GAS LISTING /var/folders/rt/4gvqv631095f64jvm7jfj_000000gn/T//ccyrs4wC.s 			page 1


   1              		.file	"adc.c"
   2              		.option nopic
   3              		.attribute arch, "rv32i2p0_m2p0_a2p0_c2p0"
   4              		.attribute unaligned_access, 0
   5              		.attribute stack_align, 16
   6              		.text
   7              	.Ltext0:
   8              		.cfi_sections	.debug_frame
   9              		.section	.text.ADC3powerUpInit,"ax",@progbits
  10              		.align	1
  11              		.globl	ADC3powerUpInit
  13              	ADC3powerUpInit:
  14              	.LFB2:
  15              		.file 1 "adc.c"
   1:adc.c         **** #include "adc.h"
   2:adc.c         **** #include "gd32vf103.h"
   3:adc.c         **** 
   4:adc.c         **** void ADC3powerUpInit(int tmp) {
  16              		.loc 1 4 31
  17              		.cfi_startproc
  18              	.LVL0:
   5:adc.c         ****     rcu_periph_clock_enable(RCU_GPIOA);
  19              		.loc 1 5 5
   4:adc.c         ****     rcu_periph_clock_enable(RCU_GPIOA);
  20              		.loc 1 4 31 is_stmt 0
  21 0000 4111     		addi	sp,sp,-16
  22              	.LCFI0:
  23              		.cfi_def_cfa_offset 16
  24 0002 26C2     		sw	s1,4(sp)
  25              		.cfi_offset 9, -12
  26 0004 AA84     		mv	s1,a0
  27              		.loc 1 5 5
  28 0006 13052060 		li	a0,1538
  29              	.LVL1:
   4:adc.c         ****     rcu_periph_clock_enable(RCU_GPIOA);
  30              		.loc 1 4 31
  31 000a 06C6     		sw	ra,12(sp)
  32 000c 22C4     		sw	s0,8(sp)
  33              		.cfi_offset 1, -4
  34              		.cfi_offset 8, -8
  35              		.loc 1 5 5
  36 000e 97000000 		call	rcu_periph_clock_enable
  36      E7800000 
  37              	.LVL2:
   6:adc.c         ****     rcu_periph_clock_enable(RCU_ADC0);
  38              		.loc 1 6 5 is_stmt 1
  39 0016 13059060 		li	a0,1545
  40 001a 97000000 		call	rcu_periph_clock_enable
  40      E7800000 
  41              	.LVL3:
   7:adc.c         ****     rcu_adc_clock_config(RCU_CKADC_CKAPB2_DIV8);
  42              		.loc 1 7 5
  43 0022 0D45     		li	a0,3
  44 0024 97000000 		call	rcu_adc_clock_config
  44      E7800000 
  45              	.LVL4:
   8:adc.c         **** 
GAS LISTING /var/folders/rt/4gvqv631095f64jvm7jfj_000000gn/T//ccyrs4wC.s 			page 2


   9:adc.c         ****     gpio_init(GPIOA, GPIO_MODE_AIN, 0x00, GPIO_PIN_3);          // ÄNDRAD från weird default vär
  46              		.loc 1 9 5
  47 002c 37150140 		li	a0,1073811456
  48 0030 A146     		li	a3,8
  49 0032 0146     		li	a2,0
  50 0034 8145     		li	a1,0
  51 0036 13050580 		addi	a0,a0,-2048
  52 003a 97000000 		call	gpio_init
  52      E7800000 
  53              	.LVL5:
  10:adc.c         ****     
  11:adc.c         ****     adc_deinit(ADC0);                                                   // Reset...
  54              		.loc 1 11 5
  55 0042 37240140 		li	s0,1073815552
  56 0046 13050440 		addi	a0,s0,1024
  57 004a 97000000 		call	adc_deinit
  57      E7800000 
  58              	.LVL6:
  12:adc.c         ****     adc_mode_config(ADC_MODE_FREE);                                     // ADC0 & ADC1 runs indep.
  59              		.loc 1 12 5
  60 0052 0145     		li	a0,0
  61 0054 97000000 		call	adc_mode_config
  61      E7800000 
  62              	.LVL7:
  13:adc.c         ****     adc_special_function_config(ADC0, ADC_CONTINUOUS_MODE, DISABLE);    // Trigger each sample
  63              		.loc 1 13 5
  64 005c 0146     		li	a2,0
  65 005e 8945     		li	a1,2
  66 0060 13050440 		addi	a0,s0,1024
  67 0064 97000000 		call	adc_special_function_config
  67      E7800000 
  68              	.LVL8:
  14:adc.c         ****     adc_special_function_config(ADC0, ADC_SCAN_MODE, DISABLE);          // Scan mode disable
  69              		.loc 1 14 5
  70 006c 0146     		li	a2,0
  71 006e 93050010 		li	a1,256
  72 0072 13050440 		addi	a0,s0,1024
  73 0076 97000000 		call	adc_special_function_config
  73      E7800000 
  74              	.LVL9:
  15:adc.c         ****     adc_data_alignment_config(ADC0, ADC_DATAALIGN_RIGHT);               // Align ADC value right
  75              		.loc 1 15 5
  76 007e 8145     		li	a1,0
  77 0080 13050440 		addi	a0,s0,1024
  78 0084 97000000 		call	adc_data_alignment_config
  78      E7800000 
  79              	.LVL10:
  16:adc.c         ****     adc_channel_length_config(ADC0, ADC_REGULAR_CHANNEL, 1);            // Convert one channel
  80              		.loc 1 16 5
  81 008c 0546     		li	a2,1
  82 008e 8545     		li	a1,1
  83 0090 13050440 		addi	a0,s0,1024
  84 0094 97000000 		call	adc_channel_length_config
  84      E7800000 
  85              	.LVL11:
  17:adc.c         **** 
  18:adc.c         ****     adc_regular_channel_config(ADC0, 0, ADC_CHANNEL_3, 
GAS LISTING /var/folders/rt/4gvqv631095f64jvm7jfj_000000gn/T//ccyrs4wC.s 			page 3


  86              		.loc 1 18 5
  87 009c 8946     		li	a3,2
  88 009e 0D46     		li	a2,3
  89 00a0 8145     		li	a1,0
  90 00a2 13050440 		addi	a0,s0,1024
  91 00a6 97000000 		call	adc_regular_channel_config
  91      E7800000 
  92              	.LVL12:
  19:adc.c         ****                                ADC_SAMPLETIME_13POINT5);                // Conv. takes 13.5us
  20:adc.c         ****     adc_external_trigger_source_config(ADC0, ADC_REGULAR_CHANNEL, 
  93              		.loc 1 20 5
  94 00ae 37060E00 		li	a2,917504
  95 00b2 8545     		li	a1,1
  96 00b4 13050440 		addi	a0,s0,1024
  97 00b8 97000000 		call	adc_external_trigger_source_config
  97      E7800000 
  98              	.LVL13:
  21:adc.c         ****                                        ADC0_1_EXTTRIG_REGULAR_NONE);    // SW Trigger
  22:adc.c         ****     adc_external_trigger_config(ADC0, ADC_REGULAR_CHANNEL, ENABLE);     // Enable trigger
  99              		.loc 1 22 5
 100 00c0 0546     		li	a2,1
 101 00c2 8545     		li	a1,1
 102 00c4 13050440 		addi	a0,s0,1024
 103 00c8 97000000 		call	adc_external_trigger_config
 103      E7800000 
 104              	.LVL14:
  23:adc.c         **** 
  24:adc.c         ****     if (tmp) {                                                          // Add Ch16 Temp?
 105              		.loc 1 24 5
 106              		.loc 1 24 8 is_stmt 0
 107 00d0 9DCC     		beq	s1,zero,.L2
  25:adc.c         ****         adc_special_function_config(ADC0, ADC_INSERTED_CHANNEL_AUTO, ENABLE);
 108              		.loc 1 25 9 is_stmt 1
 109 00d2 0546     		li	a2,1
 110 00d4 93050040 		li	a1,1024
 111 00d8 13050440 		addi	a0,s0,1024
 112 00dc 97000000 		call	adc_special_function_config
 112      E7800000 
 113              	.LVL15:
  26:adc.c         ****         adc_channel_length_config(ADC0, ADC_INSERTED_CHANNEL, 1);
 114              		.loc 1 26 9
 115 00e4 0546     		li	a2,1
 116 00e6 8945     		li	a1,2
 117 00e8 13050440 		addi	a0,s0,1024
 118 00ec 97000000 		call	adc_channel_length_config
 118      E7800000 
 119              	.LVL16:
  27:adc.c         ****         adc_tempsensor_vrefint_enable();
 120              		.loc 1 27 9
 121 00f4 97000000 		call	adc_tempsensor_vrefint_enable
 121      E7800000 
 122              	.LVL17:
  28:adc.c         ****         adc_inserted_channel_config(ADC0, 0, ADC_CHANNEL_16, ADC_SAMPLETIME_239POINT5);
 123              		.loc 1 28 9
 124 00fc 9D46     		li	a3,7
 125 00fe 4146     		li	a2,16
 126 0100 8145     		li	a1,0
GAS LISTING /var/folders/rt/4gvqv631095f64jvm7jfj_000000gn/T//ccyrs4wC.s 			page 4


 127 0102 13050440 		addi	a0,s0,1024
 128 0106 97000000 		call	adc_inserted_channel_config
 128      E7800000 
 129              	.LVL18:
 130              	.L2:
  29:adc.c         ****     }
  30:adc.c         **** 
  31:adc.c         ****     adc_enable(ADC0);                                                   // ...enable!...
 131              		.loc 1 31 5
 132 010e 37240140 		li	s0,1073815552
 133 0112 13050440 		addi	a0,s0,1024
 134 0116 97000000 		call	adc_enable
 134      E7800000 
 135              	.LVL19:
  32:adc.c         ****     //delay_1ms(1);
  33:adc.c         ****     for (int i=0; i<0xFFFF; i++);                                       // ...wait 1ms...
 136              		.loc 1 33 5
 137              		.loc 1 33 10
  34:adc.c         ****     adc_calibration_enable(ADC0);                                       // ...calibrate...
 138              		.loc 1 34 5
 139 011e 13050440 		addi	a0,s0,1024
 140 0122 97000000 		call	adc_calibration_enable
 140      E7800000 
 141              	.LVL20:
  35:adc.c         ****     //delay_1ms(1);                                                     // ...wait 1ms...
  36:adc.c         ****     for (int i=0; i<0xFFFF; i++);
 142              		.loc 1 36 5
 143              		.loc 1 36 10
  37:adc.c         ****     adc_software_trigger_enable(ADC0, ADC_REGULAR_CHANNEL);             // ...trigger 1:st conv!
 144              		.loc 1 37 5
 145 012a 13050440 		addi	a0,s0,1024
  38:adc.c         **** }...
 146              		.loc 1 38 1 is_stmt 0
 147 012e 2244     		lw	s0,8(sp)
 148              		.cfi_restore 8
 149 0130 B240     		lw	ra,12(sp)
 150              		.cfi_restore 1
 151 0132 9244     		lw	s1,4(sp)
 152              		.cfi_restore 9
 153              	.LVL21:
  37:adc.c         ****     adc_software_trigger_enable(ADC0, ADC_REGULAR_CHANNEL);             // ...trigger 1:st conv!
 154              		.loc 1 37 5
 155 0134 8545     		li	a1,1
 156              		.loc 1 38 1
 157 0136 4101     		addi	sp,sp,16
 158              	.LCFI1:
 159              		.cfi_def_cfa_offset 0
  37:adc.c         ****     adc_software_trigger_enable(ADC0, ADC_REGULAR_CHANNEL);             // ...trigger 1:st conv!
 160              		.loc 1 37 5
 161 0138 17030000 		tail	adc_software_trigger_enable
 161      67000300 
 162              	.LVL22:
 163              		.cfi_endproc
 164              	.LFE2:
 166              		.text
 167              	.Letext0:
 168              		.file 2 "/Users/alexstrae/toolchain-gd32v-v202-osx/compiler/riscv64-unknown-elf/include/machine/_d
GAS LISTING /var/folders/rt/4gvqv631095f64jvm7jfj_000000gn/T//ccyrs4wC.s 			page 5


 169              		.file 3 "/Users/alexstrae/toolchain-gd32v-v202-osx/compiler/riscv64-unknown-elf/include/sys/_stdin
 170              		.file 4 "../../firmware/GD32VF103_standard_peripheral/gd32vf103.h"
 171              		.file 5 "../../firmware/GD32VF103_standard_peripheral/Include/gd32vf103_rcu.h"
 172              		.file 6 "../../firmware/GD32VF103_standard_peripheral/Include/gd32vf103_gpio.h"
 173              		.file 7 "../../firmware/GD32VF103_standard_peripheral/Include/gd32vf103_adc.h"
 174              		.file 8 "../../firmware/GD32VF103_standard_peripheral/system_gd32vf103.h"
GAS LISTING /var/folders/rt/4gvqv631095f64jvm7jfj_000000gn/T//ccyrs4wC.s 			page 6


DEFINED SYMBOLS
                            *ABS*:0000000000000000 adc.c
/var/folders/rt/4gvqv631095f64jvm7jfj_000000gn/T//ccyrs4wC.s:13     .text.ADC3powerUpInit:0000000000000000 ADC3powerUpInit
/var/folders/rt/4gvqv631095f64jvm7jfj_000000gn/T//ccyrs4wC.s:17     .text.ADC3powerUpInit:0000000000000000 .L0 
/var/folders/rt/4gvqv631095f64jvm7jfj_000000gn/T//ccyrs4wC.s:19     .text.ADC3powerUpInit:0000000000000000 .L0 
/var/folders/rt/4gvqv631095f64jvm7jfj_000000gn/T//ccyrs4wC.s:20     .text.ADC3powerUpInit:0000000000000000 .L0 
/var/folders/rt/4gvqv631095f64jvm7jfj_000000gn/T//ccyrs4wC.s:21     .text.ADC3powerUpInit:0000000000000000 .L0 
/var/folders/rt/4gvqv631095f64jvm7jfj_000000gn/T//ccyrs4wC.s:23     .text.ADC3powerUpInit:0000000000000002 .L0 
/var/folders/rt/4gvqv631095f64jvm7jfj_000000gn/T//ccyrs4wC.s:25     .text.ADC3powerUpInit:0000000000000004 .L0 
/var/folders/rt/4gvqv631095f64jvm7jfj_000000gn/T//ccyrs4wC.s:28     .text.ADC3powerUpInit:0000000000000006 .L0 
/var/folders/rt/4gvqv631095f64jvm7jfj_000000gn/T//ccyrs4wC.s:31     .text.ADC3powerUpInit:000000000000000a .L0 
/var/folders/rt/4gvqv631095f64jvm7jfj_000000gn/T//ccyrs4wC.s:33     .text.ADC3powerUpInit:000000000000000e .L0 
/var/folders/rt/4gvqv631095f64jvm7jfj_000000gn/T//ccyrs4wC.s:34     .text.ADC3powerUpInit:000000000000000e .L0 
/var/folders/rt/4gvqv631095f64jvm7jfj_000000gn/T//ccyrs4wC.s:36     .text.ADC3powerUpInit:000000000000000e .L0 
/var/folders/rt/4gvqv631095f64jvm7jfj_000000gn/T//ccyrs4wC.s:39     .text.ADC3powerUpInit:0000000000000016 .L0 
/var/folders/rt/4gvqv631095f64jvm7jfj_000000gn/T//ccyrs4wC.s:43     .text.ADC3powerUpInit:0000000000000022 .L0 
/var/folders/rt/4gvqv631095f64jvm7jfj_000000gn/T//ccyrs4wC.s:47     .text.ADC3powerUpInit:000000000000002c .L0 
/var/folders/rt/4gvqv631095f64jvm7jfj_000000gn/T//ccyrs4wC.s:55     .text.ADC3powerUpInit:0000000000000042 .L0 
/var/folders/rt/4gvqv631095f64jvm7jfj_000000gn/T//ccyrs4wC.s:60     .text.ADC3powerUpInit:0000000000000052 .L0 
/var/folders/rt/4gvqv631095f64jvm7jfj_000000gn/T//ccyrs4wC.s:64     .text.ADC3powerUpInit:000000000000005c .L0 
/var/folders/rt/4gvqv631095f64jvm7jfj_000000gn/T//ccyrs4wC.s:70     .text.ADC3powerUpInit:000000000000006c .L0 
/var/folders/rt/4gvqv631095f64jvm7jfj_000000gn/T//ccyrs4wC.s:76     .text.ADC3powerUpInit:000000000000007e .L0 
/var/folders/rt/4gvqv631095f64jvm7jfj_000000gn/T//ccyrs4wC.s:81     .text.ADC3powerUpInit:000000000000008c .L0 
/var/folders/rt/4gvqv631095f64jvm7jfj_000000gn/T//ccyrs4wC.s:87     .text.ADC3powerUpInit:000000000000009c .L0 
/var/folders/rt/4gvqv631095f64jvm7jfj_000000gn/T//ccyrs4wC.s:94     .text.ADC3powerUpInit:00000000000000ae .L0 
/var/folders/rt/4gvqv631095f64jvm7jfj_000000gn/T//ccyrs4wC.s:100    .text.ADC3powerUpInit:00000000000000c0 .L0 
/var/folders/rt/4gvqv631095f64jvm7jfj_000000gn/T//ccyrs4wC.s:106    .text.ADC3powerUpInit:00000000000000d0 .L0 
/var/folders/rt/4gvqv631095f64jvm7jfj_000000gn/T//ccyrs4wC.s:107    .text.ADC3powerUpInit:00000000000000d0 .L0 
/var/folders/rt/4gvqv631095f64jvm7jfj_000000gn/T//ccyrs4wC.s:109    .text.ADC3powerUpInit:00000000000000d2 .L0 
/var/folders/rt/4gvqv631095f64jvm7jfj_000000gn/T//ccyrs4wC.s:115    .text.ADC3powerUpInit:00000000000000e4 .L0 
/var/folders/rt/4gvqv631095f64jvm7jfj_000000gn/T//ccyrs4wC.s:121    .text.ADC3powerUpInit:00000000000000f4 .L0 
/var/folders/rt/4gvqv631095f64jvm7jfj_000000gn/T//ccyrs4wC.s:124    .text.ADC3powerUpInit:00000000000000fc .L0 
/var/folders/rt/4gvqv631095f64jvm7jfj_000000gn/T//ccyrs4wC.s:132    .text.ADC3powerUpInit:000000000000010e .L0 
/var/folders/rt/4gvqv631095f64jvm7jfj_000000gn/T//ccyrs4wC.s:137    .text.ADC3powerUpInit:000000000000011e .L0 
/var/folders/rt/4gvqv631095f64jvm7jfj_000000gn/T//ccyrs4wC.s:138    .text.ADC3powerUpInit:000000000000011e .L0 
/var/folders/rt/4gvqv631095f64jvm7jfj_000000gn/T//ccyrs4wC.s:139    .text.ADC3powerUpInit:000000000000011e .L0 
/var/folders/rt/4gvqv631095f64jvm7jfj_000000gn/T//ccyrs4wC.s:143    .text.ADC3powerUpInit:000000000000012a .L0 
/var/folders/rt/4gvqv631095f64jvm7jfj_000000gn/T//ccyrs4wC.s:144    .text.ADC3powerUpInit:000000000000012a .L0 
/var/folders/rt/4gvqv631095f64jvm7jfj_000000gn/T//ccyrs4wC.s:145    .text.ADC3powerUpInit:000000000000012a .L0 
/var/folders/rt/4gvqv631095f64jvm7jfj_000000gn/T//ccyrs4wC.s:147    .text.ADC3powerUpInit:000000000000012e .L0 
/var/folders/rt/4gvqv631095f64jvm7jfj_000000gn/T//ccyrs4wC.s:148    .text.ADC3powerUpInit:0000000000000130 .L0 
/var/folders/rt/4gvqv631095f64jvm7jfj_000000gn/T//ccyrs4wC.s:150    .text.ADC3powerUpInit:0000000000000132 .L0 
/var/folders/rt/4gvqv631095f64jvm7jfj_000000gn/T//ccyrs4wC.s:152    .text.ADC3powerUpInit:0000000000000134 .L0 
/var/folders/rt/4gvqv631095f64jvm7jfj_000000gn/T//ccyrs4wC.s:155    .text.ADC3powerUpInit:0000000000000134 .L0 
/var/folders/rt/4gvqv631095f64jvm7jfj_000000gn/T//ccyrs4wC.s:157    .text.ADC3powerUpInit:0000000000000136 .L0 
/var/folders/rt/4gvqv631095f64jvm7jfj_000000gn/T//ccyrs4wC.s:159    .text.ADC3powerUpInit:0000000000000138 .L0 
/var/folders/rt/4gvqv631095f64jvm7jfj_000000gn/T//ccyrs4wC.s:161    .text.ADC3powerUpInit:0000000000000138 .L0 
/var/folders/rt/4gvqv631095f64jvm7jfj_000000gn/T//ccyrs4wC.s:163    .text.ADC3powerUpInit:0000000000000140 .L0 
/var/folders/rt/4gvqv631095f64jvm7jfj_000000gn/T//ccyrs4wC.s:166    .text.ADC3powerUpInit:0000000000000140 .L0 
                     .debug_frame:0000000000000000 .L0 
/var/folders/rt/4gvqv631095f64jvm7jfj_000000gn/T//ccyrs4wC.s:130    .text.ADC3powerUpInit:000000000000010e .L2
/var/folders/rt/4gvqv631095f64jvm7jfj_000000gn/T//ccyrs4wC.s:908    .debug_abbrev:0000000000000000 .Ldebug_abbrev0
/var/folders/rt/4gvqv631095f64jvm7jfj_000000gn/T//ccyrs4wC.s:1227   .debug_str:0000000000000000 .LASF69
/var/folders/rt/4gvqv631095f64jvm7jfj_000000gn/T//ccyrs4wC.s:1259   .debug_str:0000000000000186 .LASF70
/var/folders/rt/4gvqv631095f64jvm7jfj_000000gn/T//ccyrs4wC.s:1255   .debug_str:000000000000013b .LASF71
/var/folders/rt/4gvqv631095f64jvm7jfj_000000gn/T//ccyrs4wC.s:1219   .debug_ranges:0000000000000000 .Ldebug_ranges0
/var/folders/rt/4gvqv631095f64jvm7jfj_000000gn/T//ccyrs4wC.s:1225   .debug_line:0000000000000000 .Ldebug_line0
GAS LISTING /var/folders/rt/4gvqv631095f64jvm7jfj_000000gn/T//ccyrs4wC.s 			page 7


/var/folders/rt/4gvqv631095f64jvm7jfj_000000gn/T//ccyrs4wC.s:1319   .debug_str:00000000000002e1 .LASF0
/var/folders/rt/4gvqv631095f64jvm7jfj_000000gn/T//ccyrs4wC.s:1313   .debug_str:00000000000002b5 .LASF1
/var/folders/rt/4gvqv631095f64jvm7jfj_000000gn/T//ccyrs4wC.s:1371   .debug_str:0000000000000468 .LASF6
/var/folders/rt/4gvqv631095f64jvm7jfj_000000gn/T//ccyrs4wC.s:1303   .debug_str:0000000000000274 .LASF2
/var/folders/rt/4gvqv631095f64jvm7jfj_000000gn/T//ccyrs4wC.s:1261   .debug_str:000000000000018c .LASF3
/var/folders/rt/4gvqv631095f64jvm7jfj_000000gn/T//ccyrs4wC.s:1325   .debug_str:0000000000000310 .LASF4
/var/folders/rt/4gvqv631095f64jvm7jfj_000000gn/T//ccyrs4wC.s:1279   .debug_str:00000000000001f7 .LASF5
/var/folders/rt/4gvqv631095f64jvm7jfj_000000gn/T//ccyrs4wC.s:1253   .debug_str:0000000000000130 .LASF7
/var/folders/rt/4gvqv631095f64jvm7jfj_000000gn/T//ccyrs4wC.s:1341   .debug_str:000000000000039c .LASF8
/var/folders/rt/4gvqv631095f64jvm7jfj_000000gn/T//ccyrs4wC.s:1251   .debug_str:0000000000000122 .LASF9
/var/folders/rt/4gvqv631095f64jvm7jfj_000000gn/T//ccyrs4wC.s:1315   .debug_str:00000000000002c1 .LASF10
/var/folders/rt/4gvqv631095f64jvm7jfj_000000gn/T//ccyrs4wC.s:1263   .debug_str:0000000000000196 .LASF11
/var/folders/rt/4gvqv631095f64jvm7jfj_000000gn/T//ccyrs4wC.s:1317   .debug_str:00000000000002d8 .LASF12
/var/folders/rt/4gvqv631095f64jvm7jfj_000000gn/T//ccyrs4wC.s:1229   .debug_str:0000000000000088 .LASF72
/var/folders/rt/4gvqv631095f64jvm7jfj_000000gn/T//ccyrs4wC.s:1267   .debug_str:00000000000001a7 .LASF13
/var/folders/rt/4gvqv631095f64jvm7jfj_000000gn/T//ccyrs4wC.s:1369   .debug_str:0000000000000461 .LASF14
/var/folders/rt/4gvqv631095f64jvm7jfj_000000gn/T//ccyrs4wC.s:1265   .debug_str:000000000000019e .LASF15
/var/folders/rt/4gvqv631095f64jvm7jfj_000000gn/T//ccyrs4wC.s:1333   .debug_str:0000000000000351 .LASF16
/var/folders/rt/4gvqv631095f64jvm7jfj_000000gn/T//ccyrs4wC.s:1367   .debug_str:0000000000000459 .LASF17
/var/folders/rt/4gvqv631095f64jvm7jfj_000000gn/T//ccyrs4wC.s:1365   .debug_str:0000000000000450 .LASF18
/var/folders/rt/4gvqv631095f64jvm7jfj_000000gn/T//ccyrs4wC.s:1355   .debug_str:00000000000003ff .LASF19
/var/folders/rt/4gvqv631095f64jvm7jfj_000000gn/T//ccyrs4wC.s:1289   .debug_str:0000000000000226 .LASF20
/var/folders/rt/4gvqv631095f64jvm7jfj_000000gn/T//ccyrs4wC.s:1291   .debug_str:0000000000000231 .LASF21
/var/folders/rt/4gvqv631095f64jvm7jfj_000000gn/T//ccyrs4wC.s:1293   .debug_str:000000000000023c .LASF22
/var/folders/rt/4gvqv631095f64jvm7jfj_000000gn/T//ccyrs4wC.s:1295   .debug_str:0000000000000247 .LASF23
/var/folders/rt/4gvqv631095f64jvm7jfj_000000gn/T//ccyrs4wC.s:1297   .debug_str:0000000000000252 .LASF24
/var/folders/rt/4gvqv631095f64jvm7jfj_000000gn/T//ccyrs4wC.s:1299   .debug_str:000000000000025d .LASF25
/var/folders/rt/4gvqv631095f64jvm7jfj_000000gn/T//ccyrs4wC.s:1277   .debug_str:00000000000001ed .LASF26
/var/folders/rt/4gvqv631095f64jvm7jfj_000000gn/T//ccyrs4wC.s:1283   .debug_str:0000000000000209 .LASF27
/var/folders/rt/4gvqv631095f64jvm7jfj_000000gn/T//ccyrs4wC.s:1285   .debug_str:0000000000000212 .LASF28
/var/folders/rt/4gvqv631095f64jvm7jfj_000000gn/T//ccyrs4wC.s:1351   .debug_str:00000000000003e9 .LASF29
/var/folders/rt/4gvqv631095f64jvm7jfj_000000gn/T//ccyrs4wC.s:1353   .debug_str:00000000000003f4 .LASF30
/var/folders/rt/4gvqv631095f64jvm7jfj_000000gn/T//ccyrs4wC.s:1357   .debug_str:0000000000000409 .LASF31
/var/folders/rt/4gvqv631095f64jvm7jfj_000000gn/T//ccyrs4wC.s:1359   .debug_str:0000000000000413 .LASF32
/var/folders/rt/4gvqv631095f64jvm7jfj_000000gn/T//ccyrs4wC.s:1327   .debug_str:0000000000000323 .LASF33
/var/folders/rt/4gvqv631095f64jvm7jfj_000000gn/T//ccyrs4wC.s:1329   .debug_str:000000000000032c .LASF34
/var/folders/rt/4gvqv631095f64jvm7jfj_000000gn/T//ccyrs4wC.s:1269   .debug_str:00000000000001af .LASF35
/var/folders/rt/4gvqv631095f64jvm7jfj_000000gn/T//ccyrs4wC.s:1271   .debug_str:00000000000001b8 .LASF36
/var/folders/rt/4gvqv631095f64jvm7jfj_000000gn/T//ccyrs4wC.s:1311   .debug_str:00000000000002ac .LASF37
/var/folders/rt/4gvqv631095f64jvm7jfj_000000gn/T//ccyrs4wC.s:1323   .debug_str:0000000000000308 .LASF38
/var/folders/rt/4gvqv631095f64jvm7jfj_000000gn/T//ccyrs4wC.s:1337   .debug_str:0000000000000371 .LASF39
/var/folders/rt/4gvqv631095f64jvm7jfj_000000gn/T//ccyrs4wC.s:1257   .debug_str:000000000000017e .LASF40
/var/folders/rt/4gvqv631095f64jvm7jfj_000000gn/T//ccyrs4wC.s:1231   .debug_str:0000000000000098 .LASF41
/var/folders/rt/4gvqv631095f64jvm7jfj_000000gn/T//ccyrs4wC.s:1237   .debug_str:00000000000000ba .LASF42
/var/folders/rt/4gvqv631095f64jvm7jfj_000000gn/T//ccyrs4wC.s:1239   .debug_str:00000000000000c4 .LASF43
/var/folders/rt/4gvqv631095f64jvm7jfj_000000gn/T//ccyrs4wC.s:1241   .debug_str:00000000000000ce .LASF44
/var/folders/rt/4gvqv631095f64jvm7jfj_000000gn/T//ccyrs4wC.s:1243   .debug_str:00000000000000d8 .LASF45
/var/folders/rt/4gvqv631095f64jvm7jfj_000000gn/T//ccyrs4wC.s:1245   .debug_str:00000000000000e2 .LASF46
/var/folders/rt/4gvqv631095f64jvm7jfj_000000gn/T//ccyrs4wC.s:1307   .debug_str:000000000000029a .LASF47
/var/folders/rt/4gvqv631095f64jvm7jfj_000000gn/T//ccyrs4wC.s:1309   .debug_str:00000000000002a3 .LASF48
/var/folders/rt/4gvqv631095f64jvm7jfj_000000gn/T//ccyrs4wC.s:1287   .debug_str:000000000000021b .LASF49
/var/folders/rt/4gvqv631095f64jvm7jfj_000000gn/T//ccyrs4wC.s:1281   .debug_str:0000000000000200 .LASF50
/var/folders/rt/4gvqv631095f64jvm7jfj_000000gn/T//ccyrs4wC.s:1349   .debug_str:00000000000003de .LASF51
/var/folders/rt/4gvqv631095f64jvm7jfj_000000gn/T//ccyrs4wC.s:1301   .debug_str:0000000000000268 .LASF52
/var/folders/rt/4gvqv631095f64jvm7jfj_000000gn/T//ccyrs4wC.s:1235   .debug_str:00000000000000aa .LASF73
/var/folders/rt/4gvqv631095f64jvm7jfj_000000gn/T//ccyrs4wC.s:14     .text.ADC3powerUpInit:0000000000000000 .LFB2
/var/folders/rt/4gvqv631095f64jvm7jfj_000000gn/T//ccyrs4wC.s:164    .text.ADC3powerUpInit:0000000000000140 .LFE2
GAS LISTING /var/folders/rt/4gvqv631095f64jvm7jfj_000000gn/T//ccyrs4wC.s 			page 8


/var/folders/rt/4gvqv631095f64jvm7jfj_000000gn/T//ccyrs4wC.s:1170   .debug_loc:0000000000000000 .LLST0
/var/folders/rt/4gvqv631095f64jvm7jfj_000000gn/T//ccyrs4wC.s:1188   .debug_loc:000000000000002c .LLST1
/var/folders/rt/4gvqv631095f64jvm7jfj_000000gn/T//ccyrs4wC.s:37     .text.ADC3powerUpInit:0000000000000016 .LVL2
/var/folders/rt/4gvqv631095f64jvm7jfj_000000gn/T//ccyrs4wC.s:41     .text.ADC3powerUpInit:0000000000000022 .LVL3
/var/folders/rt/4gvqv631095f64jvm7jfj_000000gn/T//ccyrs4wC.s:45     .text.ADC3powerUpInit:000000000000002c .LVL4
/var/folders/rt/4gvqv631095f64jvm7jfj_000000gn/T//ccyrs4wC.s:53     .text.ADC3powerUpInit:0000000000000042 .LVL5
/var/folders/rt/4gvqv631095f64jvm7jfj_000000gn/T//ccyrs4wC.s:58     .text.ADC3powerUpInit:0000000000000052 .LVL6
/var/folders/rt/4gvqv631095f64jvm7jfj_000000gn/T//ccyrs4wC.s:62     .text.ADC3powerUpInit:000000000000005c .LVL7
/var/folders/rt/4gvqv631095f64jvm7jfj_000000gn/T//ccyrs4wC.s:68     .text.ADC3powerUpInit:000000000000006c .LVL8
/var/folders/rt/4gvqv631095f64jvm7jfj_000000gn/T//ccyrs4wC.s:74     .text.ADC3powerUpInit:000000000000007e .LVL9
/var/folders/rt/4gvqv631095f64jvm7jfj_000000gn/T//ccyrs4wC.s:79     .text.ADC3powerUpInit:000000000000008c .LVL10
/var/folders/rt/4gvqv631095f64jvm7jfj_000000gn/T//ccyrs4wC.s:85     .text.ADC3powerUpInit:000000000000009c .LVL11
/var/folders/rt/4gvqv631095f64jvm7jfj_000000gn/T//ccyrs4wC.s:92     .text.ADC3powerUpInit:00000000000000ae .LVL12
/var/folders/rt/4gvqv631095f64jvm7jfj_000000gn/T//ccyrs4wC.s:98     .text.ADC3powerUpInit:00000000000000c0 .LVL13
/var/folders/rt/4gvqv631095f64jvm7jfj_000000gn/T//ccyrs4wC.s:104    .text.ADC3powerUpInit:00000000000000d0 .LVL14
/var/folders/rt/4gvqv631095f64jvm7jfj_000000gn/T//ccyrs4wC.s:113    .text.ADC3powerUpInit:00000000000000e4 .LVL15
/var/folders/rt/4gvqv631095f64jvm7jfj_000000gn/T//ccyrs4wC.s:119    .text.ADC3powerUpInit:00000000000000f4 .LVL16
/var/folders/rt/4gvqv631095f64jvm7jfj_000000gn/T//ccyrs4wC.s:122    .text.ADC3powerUpInit:00000000000000fc .LVL17
/var/folders/rt/4gvqv631095f64jvm7jfj_000000gn/T//ccyrs4wC.s:129    .text.ADC3powerUpInit:000000000000010e .LVL18
/var/folders/rt/4gvqv631095f64jvm7jfj_000000gn/T//ccyrs4wC.s:135    .text.ADC3powerUpInit:000000000000011e .LVL19
/var/folders/rt/4gvqv631095f64jvm7jfj_000000gn/T//ccyrs4wC.s:141    .text.ADC3powerUpInit:000000000000012a .LVL20
/var/folders/rt/4gvqv631095f64jvm7jfj_000000gn/T//ccyrs4wC.s:162    .text.ADC3powerUpInit:0000000000000140 .LVL22
/var/folders/rt/4gvqv631095f64jvm7jfj_000000gn/T//ccyrs4wC.s:1305   .debug_str:0000000000000282 .LASF53
/var/folders/rt/4gvqv631095f64jvm7jfj_000000gn/T//ccyrs4wC.s:1363   .debug_str:000000000000043b .LASF54
/var/folders/rt/4gvqv631095f64jvm7jfj_000000gn/T//ccyrs4wC.s:1347   .debug_str:00000000000003d4 .LASF55
/var/folders/rt/4gvqv631095f64jvm7jfj_000000gn/T//ccyrs4wC.s:1233   .debug_str:000000000000009f .LASF56
/var/folders/rt/4gvqv631095f64jvm7jfj_000000gn/T//ccyrs4wC.s:1273   .debug_str:00000000000001c1 .LASF57
/var/folders/rt/4gvqv631095f64jvm7jfj_000000gn/T//ccyrs4wC.s:1249   .debug_str:0000000000000106 .LASF58
/var/folders/rt/4gvqv631095f64jvm7jfj_000000gn/T//ccyrs4wC.s:1321   .debug_str:00000000000002ee .LASF59
/var/folders/rt/4gvqv631095f64jvm7jfj_000000gn/T//ccyrs4wC.s:1247   .debug_str:00000000000000ec .LASF60
/var/folders/rt/4gvqv631095f64jvm7jfj_000000gn/T//ccyrs4wC.s:1345   .debug_str:00000000000003b9 .LASF61
/var/folders/rt/4gvqv631095f64jvm7jfj_000000gn/T//ccyrs4wC.s:1339   .debug_str:0000000000000379 .LASF62
/var/folders/rt/4gvqv631095f64jvm7jfj_000000gn/T//ccyrs4wC.s:1275   .debug_str:00000000000001d1 .LASF63
/var/folders/rt/4gvqv631095f64jvm7jfj_000000gn/T//ccyrs4wC.s:1361   .debug_str:000000000000041d .LASF64
/var/folders/rt/4gvqv631095f64jvm7jfj_000000gn/T//ccyrs4wC.s:1373   .debug_str:0000000000000472 .LASF65
/var/folders/rt/4gvqv631095f64jvm7jfj_000000gn/T//ccyrs4wC.s:1343   .debug_str:00000000000003ae .LASF66
/var/folders/rt/4gvqv631095f64jvm7jfj_000000gn/T//ccyrs4wC.s:1335   .debug_str:000000000000035a .LASF67
/var/folders/rt/4gvqv631095f64jvm7jfj_000000gn/T//ccyrs4wC.s:1331   .debug_str:0000000000000335 .LASF68
/var/folders/rt/4gvqv631095f64jvm7jfj_000000gn/T//ccyrs4wC.s:22     .text.ADC3powerUpInit:0000000000000002 .LCFI0
/var/folders/rt/4gvqv631095f64jvm7jfj_000000gn/T//ccyrs4wC.s:158    .text.ADC3powerUpInit:0000000000000138 .LCFI1
/var/folders/rt/4gvqv631095f64jvm7jfj_000000gn/T//ccyrs4wC.s:18     .text.ADC3powerUpInit:0000000000000000 .LVL0
/var/folders/rt/4gvqv631095f64jvm7jfj_000000gn/T//ccyrs4wC.s:29     .text.ADC3powerUpInit:000000000000000a .LVL1
/var/folders/rt/4gvqv631095f64jvm7jfj_000000gn/T//ccyrs4wC.s:153    .text.ADC3powerUpInit:0000000000000134 .LVL21
/var/folders/rt/4gvqv631095f64jvm7jfj_000000gn/T//ccyrs4wC.s:176    .debug_info:0000000000000000 .Ldebug_info0

UNDEFINED SYMBOLS
rcu_periph_clock_enable
rcu_adc_clock_config
gpio_init
adc_deinit
adc_mode_config
adc_special_function_config
adc_data_alignment_config
adc_channel_length_config
adc_regular_channel_config
adc_external_trigger_source_config
adc_external_trigger_config
GAS LISTING /var/folders/rt/4gvqv631095f64jvm7jfj_000000gn/T//ccyrs4wC.s 			page 9


adc_tempsensor_vrefint_enable
adc_inserted_channel_config
adc_enable
adc_calibration_enable
adc_software_trigger_enable
