GAS LISTING /var/folders/rt/4gvqv631095f64jvm7jfj_000000gn/T//ccUKT69D.s 			page 1


   1              		.file	"adc.c"
   2              		.option nopic
   3              		.attribute arch, "rv32i2p0_m2p0_a2p0_c2p0"
   4              		.attribute unaligned_access, 0
   5              		.attribute stack_align, 16
   6              		.text
   7              	.Ltext0:
   8              		.cfi_sections	.debug_frame
   9              		.section	.text.ADC3powerUpInit,"ax",@progbits
  10              		.align	1
  11              		.globl	ADC3powerUpInit
  13              	ADC3powerUpInit:
  14              	.LFB5:
  15              		.file 1 "adc.c"
   1:adc.c         **** #include "adc.h"
   2:adc.c         **** #include "gd32vf103.h"
   3:adc.c         **** #include "lcd.h"
   4:adc.c         **** #include <stdio.h>
   5:adc.c         **** #include "drivers.h"
   6:adc.c         **** #include "gd32vf103.h"
   7:adc.c         **** 
   8:adc.c         **** #define FCLK_SLOW() { SPI_CTL0(SPI1) = (SPI_CTL0(SPI1) & ~0x38) | 0x20; }	// Set SCLK = PCLK2 / 64 
   9:adc.c         **** #define FCLK_FAST() { SPI_CTL0(SPI1) = (SPI_CTL0(SPI1) & ~0x38) | 0x08; }	// Set SCLK = PCLK2
  10:adc.c         **** #define MAX_CS_Clr() gpio_bit_reset(GPIOA, GPIO_PIN_4)
  11:adc.c         **** #define MAX_CS_Set() gpio_bit_set(GPIOA, GPIO_PIN_4)
  12:adc.c         **** 
  13:adc.c         **** 
  14:adc.c         **** void ADC3powerUpInit(int tmp) {
  16              		.loc 1 14 31
  17              		.cfi_startproc
  18              	.LVL0:
  15:adc.c         ****     rcu_periph_clock_enable(RCU_GPIOA);
  19              		.loc 1 15 5
  14:adc.c         ****     rcu_periph_clock_enable(RCU_GPIOA);
  20              		.loc 1 14 31 is_stmt 0
  21 0000 4111     		addi	sp,sp,-16
  22              	.LCFI0:
  23              		.cfi_def_cfa_offset 16
  24 0002 26C2     		sw	s1,4(sp)
  25              		.cfi_offset 9, -12
  26 0004 AA84     		mv	s1,a0
  27              		.loc 1 15 5
  28 0006 13052060 		li	a0,1538
  29              	.LVL1:
  14:adc.c         ****     rcu_periph_clock_enable(RCU_GPIOA);
  30              		.loc 1 14 31
  31 000a 06C6     		sw	ra,12(sp)
  32 000c 22C4     		sw	s0,8(sp)
  33              		.cfi_offset 1, -4
  34              		.cfi_offset 8, -8
  35              		.loc 1 15 5
  36 000e 97000000 		call	rcu_periph_clock_enable
  36      E7800000 
  37              	.LVL2:
  16:adc.c         ****     rcu_periph_clock_enable(RCU_ADC0);
  38              		.loc 1 16 5 is_stmt 1
  39 0016 13059060 		li	a0,1545
GAS LISTING /var/folders/rt/4gvqv631095f64jvm7jfj_000000gn/T//ccUKT69D.s 			page 2


  40 001a 97000000 		call	rcu_periph_clock_enable
  40      E7800000 
  41              	.LVL3:
  17:adc.c         ****     rcu_adc_clock_config(RCU_CKADC_CKAPB2_DIV8);
  42              		.loc 1 17 5
  43 0022 0D45     		li	a0,3
  44 0024 97000000 		call	rcu_adc_clock_config
  44      E7800000 
  45              	.LVL4:
  18:adc.c         **** 
  19:adc.c         ****     gpio_init(GPIOA, GPIO_MODE_AIN, 0x00, GPIO_PIN_3 | GPIO_PIN_1);
  46              		.loc 1 19 5
  47 002c 37150140 		li	a0,1073811456
  48 0030 A946     		li	a3,10
  49 0032 0146     		li	a2,0
  50 0034 8145     		li	a1,0
  51 0036 13050580 		addi	a0,a0,-2048
  52 003a 97000000 		call	gpio_init
  52      E7800000 
  53              	.LVL5:
  20:adc.c         ****     
  21:adc.c         ****     adc_deinit(ADC0);                                                   // Reset...
  54              		.loc 1 21 5
  55 0042 37240140 		li	s0,1073815552
  56 0046 13050440 		addi	a0,s0,1024
  57 004a 97000000 		call	adc_deinit
  57      E7800000 
  58              	.LVL6:
  22:adc.c         ****     adc_mode_config(ADC_MODE_FREE);                                     // ADC0 & ADC1 runs indep.
  59              		.loc 1 22 5
  60 0052 0145     		li	a0,0
  61 0054 97000000 		call	adc_mode_config
  61      E7800000 
  62              	.LVL7:
  23:adc.c         ****     adc_special_function_config(ADC0, ADC_CONTINUOUS_MODE, DISABLE);    // Trigger each sample
  63              		.loc 1 23 5
  64 005c 0146     		li	a2,0
  65 005e 8945     		li	a1,2
  66 0060 13050440 		addi	a0,s0,1024
  67 0064 97000000 		call	adc_special_function_config
  67      E7800000 
  68              	.LVL8:
  24:adc.c         ****     adc_special_function_config(ADC0, ADC_SCAN_MODE, DISABLE);          // Scan mode disable
  69              		.loc 1 24 5
  70 006c 0146     		li	a2,0
  71 006e 93050010 		li	a1,256
  72 0072 13050440 		addi	a0,s0,1024
  73 0076 97000000 		call	adc_special_function_config
  73      E7800000 
  74              	.LVL9:
  25:adc.c         ****     adc_data_alignment_config(ADC0, ADC_DATAALIGN_RIGHT);               // Align ADC value right
  75              		.loc 1 25 5
  76 007e 8145     		li	a1,0
  77 0080 13050440 		addi	a0,s0,1024
  78 0084 97000000 		call	adc_data_alignment_config
  78      E7800000 
  79              	.LVL10:
GAS LISTING /var/folders/rt/4gvqv631095f64jvm7jfj_000000gn/T//ccUKT69D.s 			page 3


  26:adc.c         ****     adc_channel_length_config(ADC0, ADC_REGULAR_CHANNEL, 1);            // Convert one channel
  80              		.loc 1 26 5
  81 008c 0546     		li	a2,1
  82 008e 8545     		li	a1,1
  83 0090 13050440 		addi	a0,s0,1024
  84 0094 97000000 		call	adc_channel_length_config
  84      E7800000 
  85              	.LVL11:
  27:adc.c         **** 
  28:adc.c         ****     adc_regular_channel_config(ADC0, 0, ADC_CHANNEL_3,     //ADC_CHANNEL_3
  86              		.loc 1 28 5
  87 009c 8946     		li	a3,2
  88 009e 0D46     		li	a2,3
  89 00a0 8145     		li	a1,0
  90 00a2 13050440 		addi	a0,s0,1024
  91 00a6 97000000 		call	adc_regular_channel_config
  91      E7800000 
  92              	.LVL12:
  29:adc.c         ****                               ADC_SAMPLETIME_13POINT5);    // Conv. takes 13.5us                   
  30:adc.c         ****     adc_external_trigger_source_config(ADC0, ADC_REGULAR_CHANNEL, 
  93              		.loc 1 30 5
  94 00ae 37060E00 		li	a2,917504
  95 00b2 8545     		li	a1,1
  96 00b4 13050440 		addi	a0,s0,1024
  97 00b8 97000000 		call	adc_external_trigger_source_config
  97      E7800000 
  98              	.LVL13:
  31:adc.c         ****                                        ADC0_1_EXTTRIG_REGULAR_NONE);    // SW Trigger
  32:adc.c         ****     adc_external_trigger_config(ADC0, ADC_REGULAR_CHANNEL, ENABLE);     // Enable trigger
  99              		.loc 1 32 5
 100 00c0 0546     		li	a2,1
 101 00c2 8545     		li	a1,1
 102 00c4 13050440 		addi	a0,s0,1024
 103 00c8 97000000 		call	adc_external_trigger_config
 103      E7800000 
 104              	.LVL14:
  33:adc.c         **** 
  34:adc.c         ****     if (tmp) {                                                          // Add Ch16 Temp?
 105              		.loc 1 34 5
 106              		.loc 1 34 8 is_stmt 0
 107 00d0 9DCC     		beq	s1,zero,.L2
  35:adc.c         ****         adc_special_function_config(ADC0, ADC_INSERTED_CHANNEL_AUTO, ENABLE);
 108              		.loc 1 35 9 is_stmt 1
 109 00d2 0546     		li	a2,1
 110 00d4 93050040 		li	a1,1024
 111 00d8 13050440 		addi	a0,s0,1024
 112 00dc 97000000 		call	adc_special_function_config
 112      E7800000 
 113              	.LVL15:
  36:adc.c         ****         adc_channel_length_config(ADC0, ADC_INSERTED_CHANNEL, 1);
 114              		.loc 1 36 9
 115 00e4 0546     		li	a2,1
 116 00e6 8945     		li	a1,2
 117 00e8 13050440 		addi	a0,s0,1024
 118 00ec 97000000 		call	adc_channel_length_config
 118      E7800000 
 119              	.LVL16:
GAS LISTING /var/folders/rt/4gvqv631095f64jvm7jfj_000000gn/T//ccUKT69D.s 			page 4


  37:adc.c         ****         adc_tempsensor_vrefint_enable();
 120              		.loc 1 37 9
 121 00f4 97000000 		call	adc_tempsensor_vrefint_enable
 121      E7800000 
 122              	.LVL17:
  38:adc.c         ****         adc_inserted_channel_config(ADC0, 0, ADC_CHANNEL_16, ADC_SAMPLETIME_239POINT5);
 123              		.loc 1 38 9
 124 00fc 9D46     		li	a3,7
 125 00fe 4146     		li	a2,16
 126 0100 8145     		li	a1,0
 127 0102 13050440 		addi	a0,s0,1024
 128 0106 97000000 		call	adc_inserted_channel_config
 128      E7800000 
 129              	.LVL18:
 130              	.L2:
  39:adc.c         ****     }
  40:adc.c         **** 
  41:adc.c         ****     adc_enable(ADC0);                                                   // ...enable!...
 131              		.loc 1 41 5
 132 010e 37240140 		li	s0,1073815552
 133 0112 13050440 		addi	a0,s0,1024
 134 0116 97000000 		call	adc_enable
 134      E7800000 
 135              	.LVL19:
  42:adc.c         ****     //delay_1ms(1);
  43:adc.c         ****     for (int i=0; i<0xFFFF; i++);                                       // ...wait 1ms...
 136              		.loc 1 43 5
 137              		.loc 1 43 10
  44:adc.c         ****     adc_calibration_enable(ADC0);                                       // ...calibrate...
 138              		.loc 1 44 5
 139 011e 13050440 		addi	a0,s0,1024
 140 0122 97000000 		call	adc_calibration_enable
 140      E7800000 
 141              	.LVL20:
  45:adc.c         ****     //delay_1ms(1);                                                     // ...wait 1ms...
  46:adc.c         ****     for (int i=0; i<0xFFFF; i++);
 142              		.loc 1 46 5
 143              		.loc 1 46 10
  47:adc.c         ****     adc_software_trigger_enable(ADC0, ADC_REGULAR_CHANNEL);             // ...trigger 1:st conv!
 144              		.loc 1 47 5
 145 012a 13050440 		addi	a0,s0,1024
  48:adc.c         **** }
 146              		.loc 1 48 1 is_stmt 0
 147 012e 2244     		lw	s0,8(sp)
 148              		.cfi_restore 8
 149 0130 B240     		lw	ra,12(sp)
 150              		.cfi_restore 1
 151 0132 9244     		lw	s1,4(sp)
 152              		.cfi_restore 9
 153              	.LVL21:
  47:adc.c         ****     adc_software_trigger_enable(ADC0, ADC_REGULAR_CHANNEL);             // ...trigger 1:st conv!
 154              		.loc 1 47 5
 155 0134 8545     		li	a1,1
 156              		.loc 1 48 1
 157 0136 4101     		addi	sp,sp,16
 158              	.LCFI1:
 159              		.cfi_def_cfa_offset 0
GAS LISTING /var/folders/rt/4gvqv631095f64jvm7jfj_000000gn/T//ccUKT69D.s 			page 5


  47:adc.c         ****     adc_software_trigger_enable(ADC0, ADC_REGULAR_CHANNEL);             // ...trigger 1:st conv!
 160              		.loc 1 47 5
 161 0138 17030000 		tail	adc_software_trigger_enable
 161      67000300 
 162              	.LVL22:
 163              		.cfi_endproc
 164              	.LFE5:
 166              		.section	.text.MAX31865_ExchangeByte,"ax",@progbits
 167              		.align	1
 168              		.globl	MAX31865_ExchangeByte
 170              	MAX31865_ExchangeByte:
 171              	.LFB6:
  49:adc.c         **** 
  50:adc.c         **** // JOCKE TEMP-SENSOR ÖVER SPI
  51:adc.c         **** 
  52:adc.c         **** /*  MAX31865 är resistans-till-digital-konverteraren (RTD) som sitter kopplad till tempsensorn.
  53:adc.c         ****     MAX31865_ExchangeByte är grundläggande SPI-kommunikation.
  54:adc.c         ****     Funktionen väntar på att sändningsbufferten är tom (TBE) och att 
  55:adc.c         ****     mottagningsbufferten är full (RBNE) innan den returnerar svar.
  56:adc.c         ****     Sensorn lyssnar när GPIOA pin 4 sätts låg
  57:adc.c         **** */
  58:adc.c         **** 
  59:adc.c         **** uint8_t MAX31865_ExchangeByte(uint8_t data) {
 172              		.loc 1 59 45 is_stmt 1
 173              		.cfi_startproc
 174              	.LVL23:
  60:adc.c         ****     spi_i2s_data_receive(SPI1);
 175              		.loc 1 60 5
  59:adc.c         ****     spi_i2s_data_receive(SPI1);
 176              		.loc 1 59 45 is_stmt 0
 177 0000 4111     		addi	sp,sp,-16
 178              	.LCFI2:
 179              		.cfi_def_cfa_offset 16
 180 0002 26C2     		sw	s1,4(sp)
 181              		.cfi_offset 9, -12
 182 0004 AA84     		mv	s1,a0
 183              		.loc 1 60 5
 184 0006 37450040 		li	a0,1073758208
 185              	.LVL24:
  59:adc.c         ****     spi_i2s_data_receive(SPI1);
 186              		.loc 1 59 45
 187 000a 22C4     		sw	s0,8(sp)
 188              		.loc 1 60 5
 189 000c 13050580 		addi	a0,a0,-2048
 190              		.cfi_offset 8, -8
  61:adc.c         ****     while (spi_i2s_flag_get(SPI1, SPI_FLAG_TBE) == RESET);  
 191              		.loc 1 61 12
 192 0010 37440040 		li	s0,1073758208
  59:adc.c         ****     spi_i2s_data_receive(SPI1);
 193              		.loc 1 59 45
 194 0014 4AC0     		sw	s2,0(sp)
 195 0016 06C6     		sw	ra,12(sp)
 196              		.cfi_offset 18, -16
 197              		.cfi_offset 1, -4
 198              		.loc 1 61 12
 199 0018 13090480 		addi	s2,s0,-2048
  60:adc.c         ****     spi_i2s_data_receive(SPI1);
GAS LISTING /var/folders/rt/4gvqv631095f64jvm7jfj_000000gn/T//ccUKT69D.s 			page 6


 200              		.loc 1 60 5
 201 001c 97000000 		call	spi_i2s_data_receive
 201      E7800000 
 202              	.LVL25:
 203              		.loc 1 61 5 is_stmt 1
 204              	.L8:
 205              		.loc 1 61 58 discriminator 1
 206              		.loc 1 61 12 is_stmt 0 discriminator 1
 207 0024 8945     		li	a1,2
 208 0026 4A85     		mv	a0,s2
 209 0028 97000000 		call	spi_i2s_flag_get
 209      E7800000 
 210              	.LVL26:
 211              		.loc 1 61 11 discriminator 1
 212 0030 75D9     		beq	a0,zero,.L8
  62:adc.c         ****     spi_i2s_data_transmit(SPI1, data);                
 213              		.loc 1 62 5 is_stmt 1
 214 0032 A685     		mv	a1,s1
 215 0034 13050480 		addi	a0,s0,-2048
  63:adc.c         ****     while (spi_i2s_flag_get(SPI1, SPI_FLAG_RBNE) == RESET); 
 216              		.loc 1 63 12 is_stmt 0
 217 0038 37440040 		li	s0,1073758208
  62:adc.c         ****     spi_i2s_data_transmit(SPI1, data);                
 218              		.loc 1 62 5
 219 003c 97000000 		call	spi_i2s_data_transmit
 219      E7800000 
 220              	.LVL27:
 221              		.loc 1 63 5 is_stmt 1
 222              		.loc 1 63 12 is_stmt 0
 223 0044 93040480 		addi	s1,s0,-2048
 224              	.L9:
 225              		.loc 1 63 59 is_stmt 1 discriminator 1
 226              		.loc 1 63 12 is_stmt 0 discriminator 1
 227 0048 8545     		li	a1,1
 228 004a 2685     		mv	a0,s1
 229 004c 97000000 		call	spi_i2s_flag_get
 229      E7800000 
 230              	.LVL28:
 231              		.loc 1 63 11 discriminator 1
 232 0054 75D9     		beq	a0,zero,.L9
  64:adc.c         ****     return spi_i2s_data_receive(SPI1);
 233              		.loc 1 64 5 is_stmt 1
 234              		.loc 1 64 12 is_stmt 0
 235 0056 13050480 		addi	a0,s0,-2048
 236 005a 97000000 		call	spi_i2s_data_receive
 236      E7800000 
 237              	.LVL29:
  65:adc.c         ****   }
 238              		.loc 1 65 3
 239 0062 B240     		lw	ra,12(sp)
 240              		.cfi_restore 1
 241 0064 2244     		lw	s0,8(sp)
 242              		.cfi_restore 8
 243 0066 9244     		lw	s1,4(sp)
 244              		.cfi_restore 9
 245 0068 0249     		lw	s2,0(sp)
 246              		.cfi_restore 18
GAS LISTING /var/folders/rt/4gvqv631095f64jvm7jfj_000000gn/T//ccUKT69D.s 			page 7


 247 006a 1375F50F 		andi	a0,a0,0xff
 248 006e 4101     		addi	sp,sp,16
 249              	.LCFI3:
 250              		.cfi_def_cfa_offset 0
 251 0070 8280     		jr	ra
 252              		.cfi_endproc
 253              	.LFE6:
 255              		.section	.text.MAX31865_Init,"ax",@progbits
 256              		.align	1
 257              		.globl	MAX31865_Init
 259              	MAX31865_Init:
 260              	.LFB7:
  66:adc.c         **** 
  67:adc.c         **** void MAX31865_Init(void) {
 261              		.loc 1 67 26 is_stmt 1
 262              		.cfi_startproc
  68:adc.c         ****     spi_parameter_struct spi_init_struct;
 263              		.loc 1 68 5
  69:adc.c         ****     rcu_periph_clock_enable(RCU_GPIOA);
 264              		.loc 1 69 5
  67:adc.c         ****     spi_parameter_struct spi_init_struct;
 265              		.loc 1 67 26 is_stmt 0
 266 0000 7971     		addi	sp,sp,-48
 267              	.LCFI4:
 268              		.cfi_def_cfa_offset 48
 269              		.loc 1 69 5
 270 0002 13052060 		li	a0,1538
  67:adc.c         ****     spi_parameter_struct spi_init_struct;
 271              		.loc 1 67 26
 272 0006 06D6     		sw	ra,44(sp)
 273 0008 22D4     		sw	s0,40(sp)
 274 000a 26D2     		sw	s1,36(sp)
 275              		.cfi_offset 1, -4
 276              		.cfi_offset 8, -8
 277              		.cfi_offset 9, -12
 278              		.loc 1 69 5
 279 000c 97000000 		call	rcu_periph_clock_enable
 279      E7800000 
 280              	.LVL30:
  70:adc.c         ****     rcu_periph_clock_enable(RCU_SPI1);
 281              		.loc 1 70 5 is_stmt 1
 282 0014 1305E070 		li	a0,1806
 283 0018 97000000 		call	rcu_periph_clock_enable
 283      E7800000 
 284              	.LVL31:
  71:adc.c         ****     rcu_periph_clock_enable(RCU_GPIOB); 
 285              		.loc 1 71 5
 286 0020 13053060 		li	a0,1539
 287 0024 97000000 		call	rcu_periph_clock_enable
 287      E7800000 
 288              	.LVL32:
  72:adc.c         ****     gpio_init(GPIOA, GPIO_MODE_OUT_PP, GPIO_OSPEED_50MHZ, GPIO_PIN_4); // CS
 289              		.loc 1 72 5
 290 002c B7140140 		li	s1,1073811456
 291 0030 13850480 		addi	a0,s1,-2048
 292 0034 C146     		li	a3,16
 293 0036 0D46     		li	a2,3
GAS LISTING /var/folders/rt/4gvqv631095f64jvm7jfj_000000gn/T//ccUKT69D.s 			page 8


 294 0038 C145     		li	a1,16
 295 003a 97000000 		call	gpio_init
 295      E7800000 
 296              	.LVL33:
  73:adc.c         ****     gpio_init(GPIOB, GPIO_MODE_AF_PP, GPIO_OSPEED_50MHZ, GPIO_PIN_13 | GPIO_PIN_15); // SCK (Serial
 297              		.loc 1 73 5
 298 0042 138504C0 		addi	a0,s1,-1024
 299 0046 A966     		li	a3,40960
 300 0048 0D46     		li	a2,3
 301 004a E145     		li	a1,24
 302 004c 97000000 		call	gpio_init
 302      E7800000 
 303              	.LVL34:
  74:adc.c         ****     gpio_init(GPIOB, GPIO_MODE_IN_FLOATING, GPIO_OSPEED_50MHZ, GPIO_PIN_14); // MISO (Master In, Sl
 304              		.loc 1 74 5
 305 0054 9166     		li	a3,16384
 306 0056 0D46     		li	a2,3
 307 0058 138504C0 		addi	a0,s1,-1024
 308 005c 9145     		li	a1,4
 309 005e 97000000 		call	gpio_init
 309      E7800000 
 310              	.LVL35:
  75:adc.c         ****     
  76:adc.c         ****    MAX_CS_Set(); // Sätter CS hög så sensorn är inaktiv under uppstart
 311              		.loc 1 76 4
 312 0066 C145     		li	a1,16
 313 0068 13850480 		addi	a0,s1,-2048
 314 006c 97000000 		call	gpio_bit_set
 314      E7800000 
 315              	.LVL36:
  77:adc.c         **** 
  78:adc.c         ****    //  SPI-parametrar: Master, 8-bit, Mode 3 (CPOL=1, CPHA=1), Hastighet: dividerat med 32
  79:adc.c         ****    spi_struct_para_init(&spi_init_struct);
 316              		.loc 1 79 4
 317 0074 4800     		addi	a0,sp,4
 318 0076 97000000 		call	spi_struct_para_init
 318      E7800000 
 319              	.LVL37:
  80:adc.c         ****     spi_init_struct.trans_mode           = SPI_TRANSMODE_FULLDUPLEX;
 320              		.loc 1 80 5
  81:adc.c         ****     spi_init_struct.device_mode          = SPI_MASTER;
 321              		.loc 1 81 42 is_stmt 0
 322 007e 93074010 		li	a5,260
 323 0082 3EC2     		sw	a5,4(sp)
  82:adc.c         ****     spi_init_struct.frame_size           = SPI_FRAMESIZE_8BIT;
  83:adc.c         ****     spi_init_struct.clock_polarity_phase = SPI_CK_PL_HIGH_PH_2EDGE; // Mode 3 
 324              		.loc 1 83 42
 325 0084 8D47     		li	a5,3
  84:adc.c         ****     spi_init_struct.nss                  = SPI_NSS_SOFT;
  85:adc.c         ****     spi_init_struct.prescale             = SPI_PSC_32; 
  86:adc.c         ****     spi_init_struct.endian               = SPI_ENDIAN_MSB; 
  87:adc.c         ****     
  88:adc.c         ****     spi_init(SPI1, &spi_init_struct);
 326              		.loc 1 88 5
 327 0086 37440040 		li	s0,1073758208
  83:adc.c         ****     spi_init_struct.nss                  = SPI_NSS_SOFT;
 328              		.loc 1 83 42
GAS LISTING /var/folders/rt/4gvqv631095f64jvm7jfj_000000gn/T//ccUKT69D.s 			page 9


 329 008a 3ECC     		sw	a5,24(sp)
  84:adc.c         ****     spi_init_struct.nss                  = SPI_NSS_SOFT;
 330              		.loc 1 84 42
 331 008c 93070020 		li	a5,512
 332              		.loc 1 88 5
 333 0090 4C00     		addi	a1,sp,4
  84:adc.c         ****     spi_init_struct.nss                  = SPI_NSS_SOFT;
 334              		.loc 1 84 42
 335 0092 3EC8     		sw	a5,16(sp)
 336              		.loc 1 88 5
 337 0094 13050480 		addi	a0,s0,-2048
  85:adc.c         ****     spi_init_struct.endian               = SPI_ENDIAN_MSB; 
 338              		.loc 1 85 42
 339 0098 93070002 		li	a5,32
 340 009c 3ECE     		sw	a5,28(sp)
  80:adc.c         ****     spi_init_struct.device_mode          = SPI_MASTER;
 341              		.loc 1 80 42
 342 009e 02C4     		sw	zero,8(sp)
  81:adc.c         ****     spi_init_struct.frame_size           = SPI_FRAMESIZE_8BIT;
 343              		.loc 1 81 5 is_stmt 1
  82:adc.c         ****     spi_init_struct.clock_polarity_phase = SPI_CK_PL_HIGH_PH_2EDGE; // Mode 3 
 344              		.loc 1 82 5
  82:adc.c         ****     spi_init_struct.clock_polarity_phase = SPI_CK_PL_HIGH_PH_2EDGE; // Mode 3 
 345              		.loc 1 82 42 is_stmt 0
 346 00a0 02C6     		sw	zero,12(sp)
  83:adc.c         ****     spi_init_struct.nss                  = SPI_NSS_SOFT;
 347              		.loc 1 83 5 is_stmt 1
  84:adc.c         ****     spi_init_struct.prescale             = SPI_PSC_32; 
 348              		.loc 1 84 5
  85:adc.c         ****     spi_init_struct.endian               = SPI_ENDIAN_MSB; 
 349              		.loc 1 85 5
  86:adc.c         ****     
 350              		.loc 1 86 5
  86:adc.c         ****     
 351              		.loc 1 86 42 is_stmt 0
 352 00a2 02CA     		sw	zero,20(sp)
 353              		.loc 1 88 5 is_stmt 1
 354 00a4 97000000 		call	spi_init
 354      E7800000 
 355              	.LVL38:
  89:adc.c         **** 
  90:adc.c         ****     spi_enable(SPI1); // Startar SPI0-modulen
 356              		.loc 1 90 5
 357 00ac 13050480 		addi	a0,s0,-2048
 358 00b0 97000000 		call	spi_enable
 358      E7800000 
 359              	.LVL39:
  91:adc.c         ****     FCLK_SLOW();
 360              		.loc 1 91 5
 361 00b8 83270480 		lw	a5,-2048(s0)
  92:adc.c         ****     MAX_CS_Clr();
 362              		.loc 1 92 5 is_stmt 0
 363 00bc C145     		li	a1,16
 364 00be 13850480 		addi	a0,s1,-2048
  91:adc.c         ****     FCLK_SLOW();
 365              		.loc 1 91 5
 366 00c2 93F777FC 		andi	a5,a5,-57
GAS LISTING /var/folders/rt/4gvqv631095f64jvm7jfj_000000gn/T//ccUKT69D.s 			page 10


 367 00c6 93E70702 		ori	a5,a5,32
 368 00ca 2320F480 		sw	a5,-2048(s0)
  91:adc.c         ****     FCLK_SLOW();
 369              		.loc 1 91 16 is_stmt 1
 370              		.loc 1 92 5
 371 00ce 97000000 		call	gpio_bit_reset
 371      E7800000 
 372              	.LVL40:
  93:adc.c         ****     MAX31865_ExchangeByte(0x80); // Konfar sensorns register 0x00, skrivadress 0x80
 373              		.loc 1 93 5
 374 00d6 13050008 		li	a0,128
 375 00da 97000000 		call	MAX31865_ExchangeByte
 375      E7800000 
 376              	.LVL41:
  94:adc.c         ****     MAX31865_ExchangeByte(0xD1); // 0xD1 aktiverar VBIAS (ström till sensorn), autoomvandling, 3-t
 377              		.loc 1 94 5
 378 00e2 1305100D 		li	a0,209
 379 00e6 97000000 		call	MAX31865_ExchangeByte
 379      E7800000 
 380              	.LVL42:
  95:adc.c         ****     MAX_CS_Set();
 381              		.loc 1 95 5
 382 00ee 13850480 		addi	a0,s1,-2048
 383 00f2 C145     		li	a1,16
 384 00f4 97000000 		call	gpio_bit_set
 384      E7800000 
 385              	.LVL43:
  96:adc.c         ****     FCLK_FAST(); 
 386              		.loc 1 96 5
 387 00fc 83270480 		lw	a5,-2048(s0)
  97:adc.c         **** }
 388              		.loc 1 97 1 is_stmt 0
 389 0100 B250     		lw	ra,44(sp)
 390              		.cfi_restore 1
 391 0102 9254     		lw	s1,36(sp)
 392              		.cfi_restore 9
  96:adc.c         ****     FCLK_FAST(); 
 393              		.loc 1 96 5
 394 0104 93F777FC 		andi	a5,a5,-57
 395 0108 93E78700 		ori	a5,a5,8
 396 010c 2320F480 		sw	a5,-2048(s0)
  96:adc.c         ****     FCLK_FAST(); 
 397              		.loc 1 96 16 is_stmt 1
 398              		.loc 1 97 1 is_stmt 0
 399 0110 2254     		lw	s0,40(sp)
 400              		.cfi_restore 8
 401 0112 4561     		addi	sp,sp,48
 402              	.LCFI5:
 403              		.cfi_def_cfa_offset 0
 404 0114 8280     		jr	ra
 405              		.cfi_endproc
 406              	.LFE7:
 408              		.section	.text.MAX31865_ReadADC,"ax",@progbits
 409              		.align	1
 410              		.globl	MAX31865_ReadADC
 412              	MAX31865_ReadADC:
 413              	.LFB8:
GAS LISTING /var/folders/rt/4gvqv631095f64jvm7jfj_000000gn/T//ccUKT69D.s 			page 11


  98:adc.c         **** 
  99:adc.c         **** // Läser in resistansvärdet från sensorn. 
 100:adc.c         **** // Läser RTD MSB (0x01) LSB (0x02) och slår ihop dem till ett 15-bitars värde.
 101:adc.c         **** uint16_t MAX31865_ReadADC(void) {
 414              		.loc 1 101 33 is_stmt 1
 415              		.cfi_startproc
 102:adc.c         ****     uint8_t msb, lsb;
 416              		.loc 1 102 5
 103:adc.c         ****     FCLK_SLOW();
 417              		.loc 1 103 5
 101:adc.c         ****     uint8_t msb, lsb;
 418              		.loc 1 101 33 is_stmt 0
 419 0000 0111     		addi	sp,sp,-32
 420              	.LCFI6:
 421              		.cfi_def_cfa_offset 32
 422 0002 26CA     		sw	s1,20(sp)
 423              		.cfi_offset 9, -12
 424              		.loc 1 103 5
 425 0004 B7440040 		li	s1,1073758208
 426 0008 83A70480 		lw	a5,-2048(s1)
 101:adc.c         ****     uint8_t msb, lsb;
 427              		.loc 1 101 33
 428 000c 06CE     		sw	ra,28(sp)
 429 000e 22CC     		sw	s0,24(sp)
 430              		.loc 1 103 5
 431 0010 93F777FC 		andi	a5,a5,-57
 101:adc.c         ****     uint8_t msb, lsb;
 432              		.loc 1 101 33
 433 0014 4AC8     		sw	s2,16(sp)
 434 0016 4EC6     		sw	s3,12(sp)
 435              		.cfi_offset 1, -4
 436              		.cfi_offset 8, -8
 437              		.cfi_offset 18, -16
 438              		.cfi_offset 19, -20
 439              		.loc 1 103 5
 440 0018 93E70702 		ori	a5,a5,32
 104:adc.c         ****     MAX_CS_Clr();
 441              		.loc 1 104 5
 442 001c 37190140 		li	s2,1073811456
 103:adc.c         ****     FCLK_SLOW();
 443              		.loc 1 103 5
 444 0020 23A0F480 		sw	a5,-2048(s1)
 103:adc.c         ****     FCLK_SLOW();
 445              		.loc 1 103 16 is_stmt 1
 446              		.loc 1 104 5
 447 0024 C145     		li	a1,16
 448 0026 13050980 		addi	a0,s2,-2048
 449 002a 97000000 		call	gpio_bit_reset
 449      E7800000 
 450              	.LVL44:
 105:adc.c         ****     MAX31865_ExchangeByte(0x01);        // Frågar efter register 0x01
 451              		.loc 1 105 5
 452 0032 0545     		li	a0,1
 453 0034 97000000 		call	MAX31865_ExchangeByte
 453      E7800000 
 454              	.LVL45:
 106:adc.c         ****     msb = MAX31865_ExchangeByte(0xFF);  // Klockar in MSB (skickar skräp-data ut)
GAS LISTING /var/folders/rt/4gvqv631095f64jvm7jfj_000000gn/T//ccUKT69D.s 			page 12


 455              		.loc 1 106 5
 456              		.loc 1 106 11 is_stmt 0
 457 003c 1305F00F 		li	a0,255
 458 0040 97000000 		call	MAX31865_ExchangeByte
 458      E7800000 
 459              	.LVL46:
 460 0048 2A84     		mv	s0,a0
 461              	.LVL47:
 107:adc.c         ****     lsb = MAX31865_ExchangeByte(0xFF);  // Klockar in LSB
 462              		.loc 1 107 5 is_stmt 1
 463              		.loc 1 107 11 is_stmt 0
 464 004a 1305F00F 		li	a0,255
 465 004e 97000000 		call	MAX31865_ExchangeByte
 465      E7800000 
 466              	.LVL48:
 467 0056 AA89     		mv	s3,a0
 468              	.LVL49:
 108:adc.c         ****     lcd_delay_1ms(1);
 469              		.loc 1 108 5 is_stmt 1
 470 0058 0545     		li	a0,1
 471 005a 97000000 		call	lcd_delay_1ms
 471      E7800000 
 472              	.LVL50:
 109:adc.c         ****     MAX_CS_Set();
 473              		.loc 1 109 5
 474 0062 13050980 		addi	a0,s2,-2048
 475 0066 C145     		li	a1,16
 476 0068 97000000 		call	gpio_bit_set
 476      E7800000 
 477              	.LVL51:
 110:adc.c         ****     FCLK_FAST();
 478              		.loc 1 110 5
 479 0070 83A70480 		lw	a5,-2048(s1)
 111:adc.c         **** 
 112:adc.c         ****     // Kombinera byten och ta bort sista biten (fel-flaggan D0)
 113:adc.c         ****     uint16_t adc_code = (msb << 8) | lsb;
 480              		.loc 1 113 30 is_stmt 0
 481 0074 13158400 		slli	a0,s0,8
 482              		.loc 1 113 36
 483 0078 33653501 		or	a0,a0,s3
 114:adc.c         ****     return adc_code >> 1; 
 115:adc.c         **** }
 484              		.loc 1 115 1
 485 007c F240     		lw	ra,28(sp)
 486              		.cfi_restore 1
 487 007e 6244     		lw	s0,24(sp)
 488              		.cfi_restore 8
 489              	.LVL52:
 110:adc.c         **** 
 490              		.loc 1 110 5
 491 0080 93F777FC 		andi	a5,a5,-57
 492 0084 93E78700 		ori	a5,a5,8
 114:adc.c         ****     return adc_code >> 1; 
 493              		.loc 1 114 21
 494 0088 4205     		slli	a0,a0,16
 110:adc.c         **** 
 495              		.loc 1 110 5
GAS LISTING /var/folders/rt/4gvqv631095f64jvm7jfj_000000gn/T//ccUKT69D.s 			page 13


 496 008a 23A0F480 		sw	a5,-2048(s1)
 110:adc.c         **** 
 497              		.loc 1 110 16 is_stmt 1
 113:adc.c         ****     return adc_code >> 1; 
 498              		.loc 1 113 5
 499              	.LVL53:
 114:adc.c         ****     return adc_code >> 1; 
 500              		.loc 1 114 5
 114:adc.c         ****     return adc_code >> 1; 
 501              		.loc 1 114 21 is_stmt 0
 502 008e 4181     		srli	a0,a0,16
 503              		.loc 1 115 1
 504 0090 D244     		lw	s1,20(sp)
 505              		.cfi_restore 9
 506 0092 4249     		lw	s2,16(sp)
 507              		.cfi_restore 18
 508 0094 B249     		lw	s3,12(sp)
 509              		.cfi_restore 19
 510              	.LVL54:
 511 0096 0581     		srli	a0,a0,1
 512 0098 0561     		addi	sp,sp,32
 513              	.LCFI7:
 514              		.cfi_def_cfa_offset 0
 515 009a 8280     		jr	ra
 516              		.cfi_endproc
 517              	.LFE8:
 519              		.globl	__floatunsisf
 520              		.globl	__mulsf3
 521              		.globl	__extendsfdf2
 522              		.globl	__subdf3
 523              		.globl	__divdf3
 524              		.globl	__truncdfsf2
 525              		.globl	__addsf3
 526              		.globl	__divsf3
 527              		.section	.text.read_temp,"ax",@progbits
 528              		.align	1
 529              		.globl	read_temp
 531              	read_temp:
 532              	.LFB9:
 116:adc.c         **** 
 117:adc.c         **** // Läser temp på tempesensorn och returnerar ett värde
 118:adc.c         **** float read_temp(void) {
 533              		.loc 1 118 23 is_stmt 1
 534              		.cfi_startproc
 119:adc.c         ****     int sample_count = 0;
 535              		.loc 1 119 5
 536              	.LVL55:
 120:adc.c         ****     float temp_sum = 0;
 537              		.loc 1 120 5
 121:adc.c         ****     const float R_ref = 430.0; // Referensmotståndet på MAX31865-modulen
 538              		.loc 1 121 5
 122:adc.c         ****     
 123:adc.c         ****                   
 124:adc.c         ****     // Samplar 5 ggr per sekund
 125:adc.c         ****    while (sample_count < 5) {
 539              		.loc 1 125 4
 118:adc.c         ****     int sample_count = 0;
GAS LISTING /var/folders/rt/4gvqv631095f64jvm7jfj_000000gn/T//ccUKT69D.s 			page 14


 540              		.loc 1 118 23 is_stmt 0
 541 0000 7971     		addi	sp,sp,-48
 542              	.LCFI8:
 543              		.cfi_def_cfa_offset 48
 544              	.LBB2:
 126:adc.c         ****         uint16_t adc_val = MAX31865_ReadADC(); //
 127:adc.c         ****         // Omvandlar ADC-värde till resistans och sedan till Celsius
 128:adc.c         ****         float R_rtd = (float)adc_val * R_ref / 32768.0; // R_rtd är resistansen i RTD-sensorn
 545              		.loc 1 128 38
 546 0002 B7070000 		lui	a5,%hi(.LC0)
 547              	.LBE2:
 118:adc.c         ****     int sample_count = 0;
 548              		.loc 1 118 23
 549 0006 4ECE     		sw	s3,28(sp)
 550              		.cfi_offset 19, -20
 551              	.LBB5:
 552              		.loc 1 128 38
 553 0008 83A90700 		lw	s3,%lo(.LC0)(a5)
 554              		.loc 1 128 15
 555 000c B7070000 		lui	a5,%hi(.LC1)
 556              	.LBE5:
 118:adc.c         ****     int sample_count = 0;
 557              		.loc 1 118 23
 558 0010 62C4     		sw	s8,8(sp)
 559              		.cfi_offset 24, -40
 560              	.LBB6:
 561              		.loc 1 128 15
 562 0012 03AC0700 		lw	s8,%lo(.LC1)(a5)
 129:adc.c         ****         float current_temp = (R_rtd - 100.0) / 0.3851;
 563              		.loc 1 129 37
 564 0016 B7070000 		lui	a5,%hi(.LC2)
 565              	.LBE6:
 118:adc.c         ****     int sample_count = 0;
 566              		.loc 1 118 23
 567 001a 52CC     		sw	s4,24(sp)
 568 001c 56CA     		sw	s5,20(sp)
 569              		.cfi_offset 20, -24
 570              		.cfi_offset 21, -28
 571              	.LBB7:
 572              		.loc 1 129 37
 573 001e 03AA0700 		lw	s4,%lo(.LC2)(a5)
 574 0022 83AA4700 		lw	s5,%lo(.LC2+4)(a5)
 575              		.loc 1 129 46
 576 0026 B7070000 		lui	a5,%hi(.LC3)
 577              	.LBE7:
 118:adc.c         ****     int sample_count = 0;
 578              		.loc 1 118 23
 579 002a 5AC8     		sw	s6,16(sp)
 580 002c 5EC6     		sw	s7,12(sp)
 581              		.cfi_offset 22, -32
 582              		.cfi_offset 23, -36
 583              	.LBB8:
 584              		.loc 1 129 46
 585 002e 03AB0700 		lw	s6,%lo(.LC3)(a5)
 586 0032 83AB4700 		lw	s7,%lo(.LC3+4)(a5)
 587              	.LBE8:
 118:adc.c         ****     int sample_count = 0;
GAS LISTING /var/folders/rt/4gvqv631095f64jvm7jfj_000000gn/T//ccUKT69D.s 			page 15


 588              		.loc 1 118 23
 589 0036 22D4     		sw	s0,40(sp)
 590 0038 26D2     		sw	s1,36(sp)
 591 003a 06D6     		sw	ra,44(sp)
 592 003c 4AD0     		sw	s2,32(sp)
 593              		.cfi_offset 8, -8
 594              		.cfi_offset 9, -12
 595              		.cfi_offset 1, -4
 596              		.cfi_offset 18, -16
 118:adc.c         ****     int sample_count = 0;
 597              		.loc 1 118 23
 598 003e 9544     		li	s1,5
 120:adc.c         ****     const float R_ref = 430.0; // Referensmotståndet på MAX31865-modulen
 599              		.loc 1 120 11
 600 0040 13040000 		mv	s0,zero
 601              	.LVL56:
 602              	.L21:
 603              	.LBB9:
 126:adc.c         ****         uint16_t adc_val = MAX31865_ReadADC(); //
 604              		.loc 1 126 9 is_stmt 1
 126:adc.c         ****         uint16_t adc_val = MAX31865_ReadADC(); //
 605              		.loc 1 126 28 is_stmt 0
 606 0044 97000000 		call	MAX31865_ReadADC
 606      E7800000 
 607              	.LVL57:
 128:adc.c         ****         float current_temp = (R_rtd - 100.0) / 0.3851;
 608              		.loc 1 128 9 is_stmt 1
 609              		.loc 1 129 9
 130:adc.c         ****         
 131:adc.c         ****         temp_sum += current_temp;
 610              		.loc 1 131 9
 128:adc.c         ****         float current_temp = (R_rtd - 100.0) / 0.3851;
 611              		.loc 1 128 23 is_stmt 0
 612 004c 97000000 		call	__floatunsisf
 612      E7800000 
 613              	.LVL58:
 128:adc.c         ****         float current_temp = (R_rtd - 100.0) / 0.3851;
 614              		.loc 1 128 38
 615 0054 CE85     		mv	a1,s3
 616 0056 97000000 		call	__mulsf3
 616      E7800000 
 617              	.LVL59:
 128:adc.c         ****         float current_temp = (R_rtd - 100.0) / 0.3851;
 618              		.loc 1 128 15
 619 005e E285     		mv	a1,s8
 620 0060 97000000 		call	__mulsf3
 620      E7800000 
 621              	.LVL60:
 129:adc.c         ****         
 622              		.loc 1 129 37
 623 0068 97000000 		call	__extendsfdf2
 623      E7800000 
 624              	.LVL61:
 625 0070 5286     		mv	a2,s4
 626 0072 D686     		mv	a3,s5
 627 0074 97000000 		call	__subdf3
 627      E7800000 
GAS LISTING /var/folders/rt/4gvqv631095f64jvm7jfj_000000gn/T//ccUKT69D.s 			page 16


 628              	.LVL62:
 129:adc.c         ****         
 629              		.loc 1 129 46
 630 007c 5A86     		mv	a2,s6
 631 007e DE86     		mv	a3,s7
 632 0080 97000000 		call	__divdf3
 632      E7800000 
 633              	.LVL63:
 129:adc.c         ****         
 634              		.loc 1 129 15
 635 0088 97000000 		call	__truncdfsf2
 635      E7800000 
 636              	.LVL64:
 637              		.loc 1 131 18
 638 0090 AA85     		mv	a1,a0
 639 0092 2285     		mv	a0,s0
 640 0094 97000000 		call	__addsf3
 640      E7800000 
 641              	.LVL65:
 642 009c 2A84     		mv	s0,a0
 643              	.LVL66:
 132:adc.c         ****     
 133:adc.c         ****         //lcd_delay_1ms(25);
 134:adc.c         ****         for (int i = 0; i < 25; i++) {
 644              		.loc 1 134 9 is_stmt 1
 645              	.LBB3:
 646              		.loc 1 134 14
 647              	.LBE3:
 131:adc.c         ****     
 648              		.loc 1 131 18 is_stmt 0
 649 009e 6549     		li	s2,25
 650              	.LVL67:
 651              	.L20:
 652              	.LBB4:
 135:adc.c         ****     lcd_delay_1ms(1);
 653              		.loc 1 135 5 is_stmt 1 discriminator 3
 654 00a0 0545     		li	a0,1
 655 00a2 7D19     		addi	s2,s2,-1
 656              	.LVL68:
 657 00a4 97000000 		call	lcd_delay_1ms
 657      E7800000 
 658              	.LVL69:
 136:adc.c         ****     LCD_WR_Queue();   // keep LCD alive
 659              		.loc 1 136 5 discriminator 3
 660 00ac 97000000 		call	LCD_WR_Queue
 660      E7800000 
 661              	.LVL70:
 134:adc.c         ****     lcd_delay_1ms(1);
 662              		.loc 1 134 9 is_stmt 0 discriminator 3
 663 00b4 E31609FE 		bne	s2,zero,.L20
 664              	.LBE4:
 137:adc.c         **** }
 138:adc.c         ****         sample_count++;
 665              		.loc 1 138 9 is_stmt 1
 666              	.LVL71:
 667 00b8 FD14     		addi	s1,s1,-1
 668              	.LVL72:
GAS LISTING /var/folders/rt/4gvqv631095f64jvm7jfj_000000gn/T//ccUKT69D.s 			page 17


 669              	.LBE9:
 125:adc.c         ****         uint16_t adc_val = MAX31865_ReadADC(); //
 670              		.loc 1 125 10 is_stmt 0
 671 00ba C9F4     		bne	s1,zero,.L21
 139:adc.c         ****     }
 140:adc.c         ****     
 141:adc.c         ****     return (temp_sum / 5.0f);//temp_sum / 5.0f
 672              		.loc 1 141 5 is_stmt 1
 673              		.loc 1 141 22 is_stmt 0
 674 00bc B7070000 		lui	a5,%hi(.LC4)
 675 00c0 83A50700 		lw	a1,%lo(.LC4)(a5)
 676 00c4 2285     		mv	a0,s0
 677 00c6 97000000 		call	__divsf3
 677      E7800000 
 678              	.LVL73:
 142:adc.c         ****     
 143:adc.c         **** }
 679              		.loc 1 143 1
 680 00ce B250     		lw	ra,44(sp)
 681              		.cfi_restore 1
 682 00d0 2254     		lw	s0,40(sp)
 683              		.cfi_restore 8
 684              	.LVL74:
 685 00d2 9254     		lw	s1,36(sp)
 686              		.cfi_restore 9
 687              	.LVL75:
 688 00d4 0259     		lw	s2,32(sp)
 689              		.cfi_restore 18
 690 00d6 F249     		lw	s3,28(sp)
 691              		.cfi_restore 19
 692 00d8 624A     		lw	s4,24(sp)
 693              		.cfi_restore 20
 694 00da D24A     		lw	s5,20(sp)
 695              		.cfi_restore 21
 696 00dc 424B     		lw	s6,16(sp)
 697              		.cfi_restore 22
 698 00de B24B     		lw	s7,12(sp)
 699              		.cfi_restore 23
 700 00e0 224C     		lw	s8,8(sp)
 701              		.cfi_restore 24
 702 00e2 4561     		addi	sp,sp,48
 703              	.LCFI9:
 704              		.cfi_def_cfa_offset 0
 705 00e4 8280     		jr	ra
 706              		.cfi_endproc
 707              	.LFE9:
 709              		.section	.text.ADC_read,"ax",@progbits
 710              		.align	1
 711              		.globl	ADC_read
 713              	ADC_read:
 714              	.LFB10:
 144:adc.c         **** 
 145:adc.c         **** // JOCKE TEMP-SENSOR ÖVER SPI -- SLUT
 146:adc.c         **** 
 147:adc.c         **** // DAVE MOISTURE SENSOR ÖVER ADC START
 148:adc.c         **** 
 149:adc.c         **** 
GAS LISTING /var/folders/rt/4gvqv631095f64jvm7jfj_000000gn/T//ccUKT69D.s 			page 18


 150:adc.c         **** uint16_t ADC_read(int channel) {
 715              		.loc 1 150 32 is_stmt 1
 716              		.cfi_startproc
 717              	.LVL76:
 151:adc.c         **** 
 152:adc.c         ****     if(channel == 1)
 718              		.loc 1 152 5
 150:adc.c         **** 
 719              		.loc 1 150 32 is_stmt 0
 720 0000 4111     		addi	sp,sp,-16
 721              	.LCFI10:
 722              		.cfi_def_cfa_offset 16
 723 0002 06C6     		sw	ra,12(sp)
 724 0004 22C4     		sw	s0,8(sp)
 725 0006 26C2     		sw	s1,4(sp)
 726              		.cfi_offset 1, -4
 727              		.cfi_offset 8, -8
 728              		.cfi_offset 9, -12
 729              		.loc 1 152 7
 730 0008 8547     		li	a5,1
 731 000a 631BF504 		bne	a0,a5,.L26
 153:adc.c         ****     adc_regular_channel_config(ADC0, 0, ADC_CHANNEL_1, ADC_SAMPLETIME_13POINT5);  ////////
 732              		.loc 1 153 5 is_stmt 1
 733 000e 8946     		li	a3,2
 734 0010 0546     		li	a2,1
 735              	.L32:
 154:adc.c         ****     if(channel == 3)
 155:adc.c         ****     adc_regular_channel_config(ADC0, 0, ADC_CHANNEL_3, ADC_SAMPLETIME_13POINT5);
 736              		.loc 1 155 5 is_stmt 0
 737 0012 37250140 		li	a0,1073815552
 738              	.LVL77:
 739 0016 8145     		li	a1,0
 740 0018 13050540 		addi	a0,a0,1024
 741 001c 97000000 		call	adc_regular_channel_config
 741      E7800000 
 742              	.LVL78:
 743              	.L27:
 156:adc.c         **** 
 157:adc.c         ****     adc_software_trigger_enable(ADC0, ADC_REGULAR_CHANNEL);
 744              		.loc 1 157 5 is_stmt 1
 745 0024 37250140 		li	a0,1073815552
 746 0028 8545     		li	a1,1
 747 002a 13050540 		addi	a0,a0,1024
 158:adc.c         **** 
 159:adc.c         ****     while(!adc_flag_get(ADC0, ADC_FLAG_EOC));
 748              		.loc 1 159 12 is_stmt 0
 749 002e 37240140 		li	s0,1073815552
 157:adc.c         **** 
 750              		.loc 1 157 5
 751 0032 97000000 		call	adc_software_trigger_enable
 751      E7800000 
 752              	.LVL79:
 753              		.loc 1 159 5 is_stmt 1
 754              		.loc 1 159 12 is_stmt 0
 755 003a 93040440 		addi	s1,s0,1024
 756              	.L28:
 757              		.loc 1 159 45 is_stmt 1 discriminator 1
GAS LISTING /var/folders/rt/4gvqv631095f64jvm7jfj_000000gn/T//ccUKT69D.s 			page 19


 758              		.loc 1 159 12 is_stmt 0 discriminator 1
 759 003e 8945     		li	a1,2
 760 0040 2685     		mv	a0,s1
 761 0042 97000000 		call	adc_flag_get
 761      E7800000 
 762              	.LVL80:
 763              		.loc 1 159 10 discriminator 1
 764 004a 75D9     		beq	a0,zero,.L28
 160:adc.c         **** 
 161:adc.c         ****     uint16_t sensorValue = adc_regular_data_read(ADC0);
 765              		.loc 1 161 5 is_stmt 1
 766              		.loc 1 161 28 is_stmt 0
 767 004c 13050440 		addi	a0,s0,1024
 162:adc.c         ****     if (channel == 1) {
 163:adc.c         ****         //KALIBRERA SOLVÄRDE
 164:adc.c         ****     } else if (channel == 3) {
 165:adc.c         ****         //KALIBRERA FUKTVÄRDE
 166:adc.c         ****     }
 167:adc.c         ****     return sensorValue;
 168:adc.c         **** }
 768              		.loc 1 168 1
 769 0050 2244     		lw	s0,8(sp)
 770              		.cfi_remember_state
 771              		.cfi_restore 8
 772 0052 B240     		lw	ra,12(sp)
 773              		.cfi_restore 1
 774 0054 9244     		lw	s1,4(sp)
 775              		.cfi_restore 9
 776 0056 4101     		addi	sp,sp,16
 777              	.LCFI11:
 778              		.cfi_def_cfa_offset 0
 161:adc.c         ****     if (channel == 1) {
 779              		.loc 1 161 28
 780 0058 17030000 		tail	adc_regular_data_read
 780      67000300 
 781              	.LVL81:
 782              	.L26:
 783              	.LCFI12:
 784              		.cfi_restore_state
 154:adc.c         ****     adc_regular_channel_config(ADC0, 0, ADC_CHANNEL_3, ADC_SAMPLETIME_13POINT5);
 785              		.loc 1 154 5 is_stmt 1
 154:adc.c         ****     adc_regular_channel_config(ADC0, 0, ADC_CHANNEL_3, ADC_SAMPLETIME_13POINT5);
 786              		.loc 1 154 7 is_stmt 0
 787 0060 8D47     		li	a5,3
 788 0062 E311F5FC 		bne	a0,a5,.L27
 155:adc.c         **** 
 789              		.loc 1 155 5 is_stmt 1
 790 0066 8946     		li	a3,2
 791 0068 0D46     		li	a2,3
 792 006a 65B7     		j	.L32
 793              		.cfi_endproc
 794              	.LFE10:
 796              		.section	.rodata.read_temp.cst4,"aM",@progbits,4
 797              		.align	2
 798              	.LC0:
 799 0000 0000D743 		.word	1138163712
 800              	.LC1:
GAS LISTING /var/folders/rt/4gvqv631095f64jvm7jfj_000000gn/T//ccUKT69D.s 			page 20


 801 0004 00000038 		.word	939524096
 802              	.LC4:
 803 0008 0000A040 		.word	1084227584
 804              		.section	.rodata.read_temp.cst8,"aM",@progbits,8
 805              		.align	3
 806              	.LC2:
 807 0000 00000000 		.word	0
 808 0004 00005940 		.word	1079574528
 809              	.LC3:
 810 0008 68226C78 		.word	2020352616
 811 000c 7AA5D83F 		.word	1071162746
 812              		.text
 813              	.Letext0:
 814              		.file 2 "/Users/alexstrae/toolchain-gd32v-v202-osx/compiler/riscv64-unknown-elf/include/machine/_d
 815              		.file 3 "/Users/alexstrae/toolchain-gd32v-v202-osx/compiler/lib/gcc/riscv64-unknown-elf/8.3.0/incl
 816              		.file 4 "/Users/alexstrae/toolchain-gd32v-v202-osx/compiler/riscv64-unknown-elf/include/sys/_types
 817              		.file 5 "/Users/alexstrae/toolchain-gd32v-v202-osx/compiler/riscv64-unknown-elf/include/sys/reent.
 818              		.file 6 "/Users/alexstrae/toolchain-gd32v-v202-osx/compiler/riscv64-unknown-elf/include/sys/lock.h
 819              		.file 7 "/Users/alexstrae/toolchain-gd32v-v202-osx/compiler/riscv64-unknown-elf/include/sys/_stdin
 820              		.file 8 "../../firmware/GD32VF103_standard_peripheral/system_gd32vf103.h"
 821              		.file 9 "../../firmware/GD32VF103_standard_peripheral/gd32vf103.h"
 822              		.file 10 "../../firmware/GD32VF103_standard_peripheral/Include/gd32vf103_rcu.h"
 823              		.file 11 "../../firmware/GD32VF103_standard_peripheral/Include/gd32vf103_spi.h"
 824              		.file 12 "/Users/alexstrae/toolchain-gd32v-v202-osx/compiler/riscv64-unknown-elf/include/stdlib.h"
 825              		.file 13 "lcd.h"
 826              		.file 14 "../../firmware/GD32VF103_standard_peripheral/Include/gd32vf103_adc.h"
 827              		.file 15 "../../firmware/GD32VF103_standard_peripheral/Include/gd32vf103_gpio.h"
GAS LISTING /var/folders/rt/4gvqv631095f64jvm7jfj_000000gn/T//ccUKT69D.s 			page 21


DEFINED SYMBOLS
                            *ABS*:0000000000000000 adc.c
/var/folders/rt/4gvqv631095f64jvm7jfj_000000gn/T//ccUKT69D.s:13     .text.ADC3powerUpInit:0000000000000000 ADC3powerUpInit
/var/folders/rt/4gvqv631095f64jvm7jfj_000000gn/T//ccUKT69D.s:17     .text.ADC3powerUpInit:0000000000000000 .L0 
/var/folders/rt/4gvqv631095f64jvm7jfj_000000gn/T//ccUKT69D.s:19     .text.ADC3powerUpInit:0000000000000000 .L0 
/var/folders/rt/4gvqv631095f64jvm7jfj_000000gn/T//ccUKT69D.s:20     .text.ADC3powerUpInit:0000000000000000 .L0 
/var/folders/rt/4gvqv631095f64jvm7jfj_000000gn/T//ccUKT69D.s:21     .text.ADC3powerUpInit:0000000000000000 .L0 
/var/folders/rt/4gvqv631095f64jvm7jfj_000000gn/T//ccUKT69D.s:23     .text.ADC3powerUpInit:0000000000000002 .L0 
/var/folders/rt/4gvqv631095f64jvm7jfj_000000gn/T//ccUKT69D.s:25     .text.ADC3powerUpInit:0000000000000004 .L0 
/var/folders/rt/4gvqv631095f64jvm7jfj_000000gn/T//ccUKT69D.s:28     .text.ADC3powerUpInit:0000000000000006 .L0 
/var/folders/rt/4gvqv631095f64jvm7jfj_000000gn/T//ccUKT69D.s:31     .text.ADC3powerUpInit:000000000000000a .L0 
/var/folders/rt/4gvqv631095f64jvm7jfj_000000gn/T//ccUKT69D.s:33     .text.ADC3powerUpInit:000000000000000e .L0 
/var/folders/rt/4gvqv631095f64jvm7jfj_000000gn/T//ccUKT69D.s:34     .text.ADC3powerUpInit:000000000000000e .L0 
/var/folders/rt/4gvqv631095f64jvm7jfj_000000gn/T//ccUKT69D.s:36     .text.ADC3powerUpInit:000000000000000e .L0 
/var/folders/rt/4gvqv631095f64jvm7jfj_000000gn/T//ccUKT69D.s:39     .text.ADC3powerUpInit:0000000000000016 .L0 
/var/folders/rt/4gvqv631095f64jvm7jfj_000000gn/T//ccUKT69D.s:43     .text.ADC3powerUpInit:0000000000000022 .L0 
/var/folders/rt/4gvqv631095f64jvm7jfj_000000gn/T//ccUKT69D.s:47     .text.ADC3powerUpInit:000000000000002c .L0 
/var/folders/rt/4gvqv631095f64jvm7jfj_000000gn/T//ccUKT69D.s:55     .text.ADC3powerUpInit:0000000000000042 .L0 
/var/folders/rt/4gvqv631095f64jvm7jfj_000000gn/T//ccUKT69D.s:60     .text.ADC3powerUpInit:0000000000000052 .L0 
/var/folders/rt/4gvqv631095f64jvm7jfj_000000gn/T//ccUKT69D.s:64     .text.ADC3powerUpInit:000000000000005c .L0 
/var/folders/rt/4gvqv631095f64jvm7jfj_000000gn/T//ccUKT69D.s:70     .text.ADC3powerUpInit:000000000000006c .L0 
/var/folders/rt/4gvqv631095f64jvm7jfj_000000gn/T//ccUKT69D.s:76     .text.ADC3powerUpInit:000000000000007e .L0 
/var/folders/rt/4gvqv631095f64jvm7jfj_000000gn/T//ccUKT69D.s:81     .text.ADC3powerUpInit:000000000000008c .L0 
/var/folders/rt/4gvqv631095f64jvm7jfj_000000gn/T//ccUKT69D.s:87     .text.ADC3powerUpInit:000000000000009c .L0 
/var/folders/rt/4gvqv631095f64jvm7jfj_000000gn/T//ccUKT69D.s:94     .text.ADC3powerUpInit:00000000000000ae .L0 
/var/folders/rt/4gvqv631095f64jvm7jfj_000000gn/T//ccUKT69D.s:100    .text.ADC3powerUpInit:00000000000000c0 .L0 
/var/folders/rt/4gvqv631095f64jvm7jfj_000000gn/T//ccUKT69D.s:106    .text.ADC3powerUpInit:00000000000000d0 .L0 
/var/folders/rt/4gvqv631095f64jvm7jfj_000000gn/T//ccUKT69D.s:107    .text.ADC3powerUpInit:00000000000000d0 .L0 
/var/folders/rt/4gvqv631095f64jvm7jfj_000000gn/T//ccUKT69D.s:109    .text.ADC3powerUpInit:00000000000000d2 .L0 
/var/folders/rt/4gvqv631095f64jvm7jfj_000000gn/T//ccUKT69D.s:115    .text.ADC3powerUpInit:00000000000000e4 .L0 
/var/folders/rt/4gvqv631095f64jvm7jfj_000000gn/T//ccUKT69D.s:121    .text.ADC3powerUpInit:00000000000000f4 .L0 
/var/folders/rt/4gvqv631095f64jvm7jfj_000000gn/T//ccUKT69D.s:124    .text.ADC3powerUpInit:00000000000000fc .L0 
/var/folders/rt/4gvqv631095f64jvm7jfj_000000gn/T//ccUKT69D.s:132    .text.ADC3powerUpInit:000000000000010e .L0 
/var/folders/rt/4gvqv631095f64jvm7jfj_000000gn/T//ccUKT69D.s:137    .text.ADC3powerUpInit:000000000000011e .L0 
/var/folders/rt/4gvqv631095f64jvm7jfj_000000gn/T//ccUKT69D.s:138    .text.ADC3powerUpInit:000000000000011e .L0 
/var/folders/rt/4gvqv631095f64jvm7jfj_000000gn/T//ccUKT69D.s:139    .text.ADC3powerUpInit:000000000000011e .L0 
/var/folders/rt/4gvqv631095f64jvm7jfj_000000gn/T//ccUKT69D.s:143    .text.ADC3powerUpInit:000000000000012a .L0 
/var/folders/rt/4gvqv631095f64jvm7jfj_000000gn/T//ccUKT69D.s:144    .text.ADC3powerUpInit:000000000000012a .L0 
/var/folders/rt/4gvqv631095f64jvm7jfj_000000gn/T//ccUKT69D.s:145    .text.ADC3powerUpInit:000000000000012a .L0 
/var/folders/rt/4gvqv631095f64jvm7jfj_000000gn/T//ccUKT69D.s:147    .text.ADC3powerUpInit:000000000000012e .L0 
/var/folders/rt/4gvqv631095f64jvm7jfj_000000gn/T//ccUKT69D.s:148    .text.ADC3powerUpInit:0000000000000130 .L0 
/var/folders/rt/4gvqv631095f64jvm7jfj_000000gn/T//ccUKT69D.s:150    .text.ADC3powerUpInit:0000000000000132 .L0 
/var/folders/rt/4gvqv631095f64jvm7jfj_000000gn/T//ccUKT69D.s:152    .text.ADC3powerUpInit:0000000000000134 .L0 
/var/folders/rt/4gvqv631095f64jvm7jfj_000000gn/T//ccUKT69D.s:155    .text.ADC3powerUpInit:0000000000000134 .L0 
/var/folders/rt/4gvqv631095f64jvm7jfj_000000gn/T//ccUKT69D.s:157    .text.ADC3powerUpInit:0000000000000136 .L0 
/var/folders/rt/4gvqv631095f64jvm7jfj_000000gn/T//ccUKT69D.s:159    .text.ADC3powerUpInit:0000000000000138 .L0 
/var/folders/rt/4gvqv631095f64jvm7jfj_000000gn/T//ccUKT69D.s:161    .text.ADC3powerUpInit:0000000000000138 .L0 
/var/folders/rt/4gvqv631095f64jvm7jfj_000000gn/T//ccUKT69D.s:163    .text.ADC3powerUpInit:0000000000000140 .L0 
/var/folders/rt/4gvqv631095f64jvm7jfj_000000gn/T//ccUKT69D.s:170    .text.MAX31865_ExchangeByte:0000000000000000 MAX31865_ExchangeByte
/var/folders/rt/4gvqv631095f64jvm7jfj_000000gn/T//ccUKT69D.s:173    .text.MAX31865_ExchangeByte:0000000000000000 .L0 
/var/folders/rt/4gvqv631095f64jvm7jfj_000000gn/T//ccUKT69D.s:175    .text.MAX31865_ExchangeByte:0000000000000000 .L0 
/var/folders/rt/4gvqv631095f64jvm7jfj_000000gn/T//ccUKT69D.s:176    .text.MAX31865_ExchangeByte:0000000000000000 .L0 
/var/folders/rt/4gvqv631095f64jvm7jfj_000000gn/T//ccUKT69D.s:177    .text.MAX31865_ExchangeByte:0000000000000000 .L0 
/var/folders/rt/4gvqv631095f64jvm7jfj_000000gn/T//ccUKT69D.s:179    .text.MAX31865_ExchangeByte:0000000000000002 .L0 
/var/folders/rt/4gvqv631095f64jvm7jfj_000000gn/T//ccUKT69D.s:181    .text.MAX31865_ExchangeByte:0000000000000004 .L0 
/var/folders/rt/4gvqv631095f64jvm7jfj_000000gn/T//ccUKT69D.s:184    .text.MAX31865_ExchangeByte:0000000000000006 .L0 
/var/folders/rt/4gvqv631095f64jvm7jfj_000000gn/T//ccUKT69D.s:187    .text.MAX31865_ExchangeByte:000000000000000a .L0 
GAS LISTING /var/folders/rt/4gvqv631095f64jvm7jfj_000000gn/T//ccUKT69D.s 			page 22


/var/folders/rt/4gvqv631095f64jvm7jfj_000000gn/T//ccUKT69D.s:189    .text.MAX31865_ExchangeByte:000000000000000c .L0 
/var/folders/rt/4gvqv631095f64jvm7jfj_000000gn/T//ccUKT69D.s:190    .text.MAX31865_ExchangeByte:0000000000000010 .L0 
/var/folders/rt/4gvqv631095f64jvm7jfj_000000gn/T//ccUKT69D.s:192    .text.MAX31865_ExchangeByte:0000000000000010 .L0 
/var/folders/rt/4gvqv631095f64jvm7jfj_000000gn/T//ccUKT69D.s:194    .text.MAX31865_ExchangeByte:0000000000000014 .L0 
/var/folders/rt/4gvqv631095f64jvm7jfj_000000gn/T//ccUKT69D.s:196    .text.MAX31865_ExchangeByte:0000000000000018 .L0 
/var/folders/rt/4gvqv631095f64jvm7jfj_000000gn/T//ccUKT69D.s:197    .text.MAX31865_ExchangeByte:0000000000000018 .L0 
/var/folders/rt/4gvqv631095f64jvm7jfj_000000gn/T//ccUKT69D.s:199    .text.MAX31865_ExchangeByte:0000000000000018 .L0 
/var/folders/rt/4gvqv631095f64jvm7jfj_000000gn/T//ccUKT69D.s:201    .text.MAX31865_ExchangeByte:000000000000001c .L0 
/var/folders/rt/4gvqv631095f64jvm7jfj_000000gn/T//ccUKT69D.s:205    .text.MAX31865_ExchangeByte:0000000000000024 .L0 
/var/folders/rt/4gvqv631095f64jvm7jfj_000000gn/T//ccUKT69D.s:206    .text.MAX31865_ExchangeByte:0000000000000024 .L0 
/var/folders/rt/4gvqv631095f64jvm7jfj_000000gn/T//ccUKT69D.s:207    .text.MAX31865_ExchangeByte:0000000000000024 .L0 
/var/folders/rt/4gvqv631095f64jvm7jfj_000000gn/T//ccUKT69D.s:212    .text.MAX31865_ExchangeByte:0000000000000030 .L0 
/var/folders/rt/4gvqv631095f64jvm7jfj_000000gn/T//ccUKT69D.s:214    .text.MAX31865_ExchangeByte:0000000000000032 .L0 
/var/folders/rt/4gvqv631095f64jvm7jfj_000000gn/T//ccUKT69D.s:217    .text.MAX31865_ExchangeByte:0000000000000038 .L0 
/var/folders/rt/4gvqv631095f64jvm7jfj_000000gn/T//ccUKT69D.s:219    .text.MAX31865_ExchangeByte:000000000000003c .L0 
/var/folders/rt/4gvqv631095f64jvm7jfj_000000gn/T//ccUKT69D.s:222    .text.MAX31865_ExchangeByte:0000000000000044 .L0 
/var/folders/rt/4gvqv631095f64jvm7jfj_000000gn/T//ccUKT69D.s:223    .text.MAX31865_ExchangeByte:0000000000000044 .L0 
/var/folders/rt/4gvqv631095f64jvm7jfj_000000gn/T//ccUKT69D.s:226    .text.MAX31865_ExchangeByte:0000000000000048 .L0 
/var/folders/rt/4gvqv631095f64jvm7jfj_000000gn/T//ccUKT69D.s:227    .text.MAX31865_ExchangeByte:0000000000000048 .L0 
/var/folders/rt/4gvqv631095f64jvm7jfj_000000gn/T//ccUKT69D.s:232    .text.MAX31865_ExchangeByte:0000000000000054 .L0 
/var/folders/rt/4gvqv631095f64jvm7jfj_000000gn/T//ccUKT69D.s:234    .text.MAX31865_ExchangeByte:0000000000000056 .L0 
/var/folders/rt/4gvqv631095f64jvm7jfj_000000gn/T//ccUKT69D.s:235    .text.MAX31865_ExchangeByte:0000000000000056 .L0 
/var/folders/rt/4gvqv631095f64jvm7jfj_000000gn/T//ccUKT69D.s:239    .text.MAX31865_ExchangeByte:0000000000000062 .L0 
/var/folders/rt/4gvqv631095f64jvm7jfj_000000gn/T//ccUKT69D.s:240    .text.MAX31865_ExchangeByte:0000000000000064 .L0 
/var/folders/rt/4gvqv631095f64jvm7jfj_000000gn/T//ccUKT69D.s:242    .text.MAX31865_ExchangeByte:0000000000000066 .L0 
/var/folders/rt/4gvqv631095f64jvm7jfj_000000gn/T//ccUKT69D.s:244    .text.MAX31865_ExchangeByte:0000000000000068 .L0 
/var/folders/rt/4gvqv631095f64jvm7jfj_000000gn/T//ccUKT69D.s:246    .text.MAX31865_ExchangeByte:000000000000006a .L0 
/var/folders/rt/4gvqv631095f64jvm7jfj_000000gn/T//ccUKT69D.s:250    .text.MAX31865_ExchangeByte:0000000000000070 .L0 
/var/folders/rt/4gvqv631095f64jvm7jfj_000000gn/T//ccUKT69D.s:252    .text.MAX31865_ExchangeByte:0000000000000072 .L0 
/var/folders/rt/4gvqv631095f64jvm7jfj_000000gn/T//ccUKT69D.s:259    .text.MAX31865_Init:0000000000000000 MAX31865_Init
/var/folders/rt/4gvqv631095f64jvm7jfj_000000gn/T//ccUKT69D.s:262    .text.MAX31865_Init:0000000000000000 .L0 
/var/folders/rt/4gvqv631095f64jvm7jfj_000000gn/T//ccUKT69D.s:263    .text.MAX31865_Init:0000000000000000 .L0 
/var/folders/rt/4gvqv631095f64jvm7jfj_000000gn/T//ccUKT69D.s:264    .text.MAX31865_Init:0000000000000000 .L0 
/var/folders/rt/4gvqv631095f64jvm7jfj_000000gn/T//ccUKT69D.s:265    .text.MAX31865_Init:0000000000000000 .L0 
/var/folders/rt/4gvqv631095f64jvm7jfj_000000gn/T//ccUKT69D.s:266    .text.MAX31865_Init:0000000000000000 .L0 
/var/folders/rt/4gvqv631095f64jvm7jfj_000000gn/T//ccUKT69D.s:268    .text.MAX31865_Init:0000000000000002 .L0 
/var/folders/rt/4gvqv631095f64jvm7jfj_000000gn/T//ccUKT69D.s:270    .text.MAX31865_Init:0000000000000002 .L0 
/var/folders/rt/4gvqv631095f64jvm7jfj_000000gn/T//ccUKT69D.s:272    .text.MAX31865_Init:0000000000000006 .L0 
/var/folders/rt/4gvqv631095f64jvm7jfj_000000gn/T//ccUKT69D.s:275    .text.MAX31865_Init:000000000000000c .L0 
/var/folders/rt/4gvqv631095f64jvm7jfj_000000gn/T//ccUKT69D.s:276    .text.MAX31865_Init:000000000000000c .L0 
/var/folders/rt/4gvqv631095f64jvm7jfj_000000gn/T//ccUKT69D.s:277    .text.MAX31865_Init:000000000000000c .L0 
/var/folders/rt/4gvqv631095f64jvm7jfj_000000gn/T//ccUKT69D.s:279    .text.MAX31865_Init:000000000000000c .L0 
/var/folders/rt/4gvqv631095f64jvm7jfj_000000gn/T//ccUKT69D.s:282    .text.MAX31865_Init:0000000000000014 .L0 
/var/folders/rt/4gvqv631095f64jvm7jfj_000000gn/T//ccUKT69D.s:286    .text.MAX31865_Init:0000000000000020 .L0 
/var/folders/rt/4gvqv631095f64jvm7jfj_000000gn/T//ccUKT69D.s:290    .text.MAX31865_Init:000000000000002c .L0 
/var/folders/rt/4gvqv631095f64jvm7jfj_000000gn/T//ccUKT69D.s:298    .text.MAX31865_Init:0000000000000042 .L0 
/var/folders/rt/4gvqv631095f64jvm7jfj_000000gn/T//ccUKT69D.s:305    .text.MAX31865_Init:0000000000000054 .L0 
/var/folders/rt/4gvqv631095f64jvm7jfj_000000gn/T//ccUKT69D.s:312    .text.MAX31865_Init:0000000000000066 .L0 
/var/folders/rt/4gvqv631095f64jvm7jfj_000000gn/T//ccUKT69D.s:317    .text.MAX31865_Init:0000000000000074 .L0 
/var/folders/rt/4gvqv631095f64jvm7jfj_000000gn/T//ccUKT69D.s:321    .text.MAX31865_Init:000000000000007e .L0 
/var/folders/rt/4gvqv631095f64jvm7jfj_000000gn/T//ccUKT69D.s:322    .text.MAX31865_Init:000000000000007e .L0 
/var/folders/rt/4gvqv631095f64jvm7jfj_000000gn/T//ccUKT69D.s:325    .text.MAX31865_Init:0000000000000084 .L0 
/var/folders/rt/4gvqv631095f64jvm7jfj_000000gn/T//ccUKT69D.s:327    .text.MAX31865_Init:0000000000000086 .L0 
/var/folders/rt/4gvqv631095f64jvm7jfj_000000gn/T//ccUKT69D.s:329    .text.MAX31865_Init:000000000000008a .L0 
/var/folders/rt/4gvqv631095f64jvm7jfj_000000gn/T//ccUKT69D.s:331    .text.MAX31865_Init:000000000000008c .L0 
/var/folders/rt/4gvqv631095f64jvm7jfj_000000gn/T//ccUKT69D.s:333    .text.MAX31865_Init:0000000000000090 .L0 
/var/folders/rt/4gvqv631095f64jvm7jfj_000000gn/T//ccUKT69D.s:335    .text.MAX31865_Init:0000000000000092 .L0 
GAS LISTING /var/folders/rt/4gvqv631095f64jvm7jfj_000000gn/T//ccUKT69D.s 			page 23


/var/folders/rt/4gvqv631095f64jvm7jfj_000000gn/T//ccUKT69D.s:337    .text.MAX31865_Init:0000000000000094 .L0 
/var/folders/rt/4gvqv631095f64jvm7jfj_000000gn/T//ccUKT69D.s:339    .text.MAX31865_Init:0000000000000098 .L0 
/var/folders/rt/4gvqv631095f64jvm7jfj_000000gn/T//ccUKT69D.s:342    .text.MAX31865_Init:000000000000009e .L0 
/var/folders/rt/4gvqv631095f64jvm7jfj_000000gn/T//ccUKT69D.s:344    .text.MAX31865_Init:00000000000000a0 .L0 
/var/folders/rt/4gvqv631095f64jvm7jfj_000000gn/T//ccUKT69D.s:345    .text.MAX31865_Init:00000000000000a0 .L0 
/var/folders/rt/4gvqv631095f64jvm7jfj_000000gn/T//ccUKT69D.s:346    .text.MAX31865_Init:00000000000000a0 .L0 
/var/folders/rt/4gvqv631095f64jvm7jfj_000000gn/T//ccUKT69D.s:348    .text.MAX31865_Init:00000000000000a2 .L0 
/var/folders/rt/4gvqv631095f64jvm7jfj_000000gn/T//ccUKT69D.s:349    .text.MAX31865_Init:00000000000000a2 .L0 
/var/folders/rt/4gvqv631095f64jvm7jfj_000000gn/T//ccUKT69D.s:350    .text.MAX31865_Init:00000000000000a2 .L0 
/var/folders/rt/4gvqv631095f64jvm7jfj_000000gn/T//ccUKT69D.s:351    .text.MAX31865_Init:00000000000000a2 .L0 
/var/folders/rt/4gvqv631095f64jvm7jfj_000000gn/T//ccUKT69D.s:352    .text.MAX31865_Init:00000000000000a2 .L0 
/var/folders/rt/4gvqv631095f64jvm7jfj_000000gn/T//ccUKT69D.s:354    .text.MAX31865_Init:00000000000000a4 .L0 
/var/folders/rt/4gvqv631095f64jvm7jfj_000000gn/T//ccUKT69D.s:357    .text.MAX31865_Init:00000000000000ac .L0 
/var/folders/rt/4gvqv631095f64jvm7jfj_000000gn/T//ccUKT69D.s:361    .text.MAX31865_Init:00000000000000b8 .L0 
/var/folders/rt/4gvqv631095f64jvm7jfj_000000gn/T//ccUKT69D.s:363    .text.MAX31865_Init:00000000000000bc .L0 
/var/folders/rt/4gvqv631095f64jvm7jfj_000000gn/T//ccUKT69D.s:366    .text.MAX31865_Init:00000000000000c2 .L0 
/var/folders/rt/4gvqv631095f64jvm7jfj_000000gn/T//ccUKT69D.s:370    .text.MAX31865_Init:00000000000000ce .L0 
/var/folders/rt/4gvqv631095f64jvm7jfj_000000gn/T//ccUKT69D.s:371    .text.MAX31865_Init:00000000000000ce .L0 
/var/folders/rt/4gvqv631095f64jvm7jfj_000000gn/T//ccUKT69D.s:374    .text.MAX31865_Init:00000000000000d6 .L0 
/var/folders/rt/4gvqv631095f64jvm7jfj_000000gn/T//ccUKT69D.s:378    .text.MAX31865_Init:00000000000000e2 .L0 
/var/folders/rt/4gvqv631095f64jvm7jfj_000000gn/T//ccUKT69D.s:382    .text.MAX31865_Init:00000000000000ee .L0 
/var/folders/rt/4gvqv631095f64jvm7jfj_000000gn/T//ccUKT69D.s:387    .text.MAX31865_Init:00000000000000fc .L0 
/var/folders/rt/4gvqv631095f64jvm7jfj_000000gn/T//ccUKT69D.s:389    .text.MAX31865_Init:0000000000000100 .L0 
/var/folders/rt/4gvqv631095f64jvm7jfj_000000gn/T//ccUKT69D.s:390    .text.MAX31865_Init:0000000000000102 .L0 
/var/folders/rt/4gvqv631095f64jvm7jfj_000000gn/T//ccUKT69D.s:392    .text.MAX31865_Init:0000000000000104 .L0 
/var/folders/rt/4gvqv631095f64jvm7jfj_000000gn/T//ccUKT69D.s:394    .text.MAX31865_Init:0000000000000104 .L0 
/var/folders/rt/4gvqv631095f64jvm7jfj_000000gn/T//ccUKT69D.s:398    .text.MAX31865_Init:0000000000000110 .L0 
/var/folders/rt/4gvqv631095f64jvm7jfj_000000gn/T//ccUKT69D.s:399    .text.MAX31865_Init:0000000000000110 .L0 
/var/folders/rt/4gvqv631095f64jvm7jfj_000000gn/T//ccUKT69D.s:400    .text.MAX31865_Init:0000000000000112 .L0 
/var/folders/rt/4gvqv631095f64jvm7jfj_000000gn/T//ccUKT69D.s:403    .text.MAX31865_Init:0000000000000114 .L0 
/var/folders/rt/4gvqv631095f64jvm7jfj_000000gn/T//ccUKT69D.s:405    .text.MAX31865_Init:0000000000000116 .L0 
/var/folders/rt/4gvqv631095f64jvm7jfj_000000gn/T//ccUKT69D.s:412    .text.MAX31865_ReadADC:0000000000000000 MAX31865_ReadADC
/var/folders/rt/4gvqv631095f64jvm7jfj_000000gn/T//ccUKT69D.s:415    .text.MAX31865_ReadADC:0000000000000000 .L0 
/var/folders/rt/4gvqv631095f64jvm7jfj_000000gn/T//ccUKT69D.s:416    .text.MAX31865_ReadADC:0000000000000000 .L0 
/var/folders/rt/4gvqv631095f64jvm7jfj_000000gn/T//ccUKT69D.s:417    .text.MAX31865_ReadADC:0000000000000000 .L0 
/var/folders/rt/4gvqv631095f64jvm7jfj_000000gn/T//ccUKT69D.s:418    .text.MAX31865_ReadADC:0000000000000000 .L0 
/var/folders/rt/4gvqv631095f64jvm7jfj_000000gn/T//ccUKT69D.s:419    .text.MAX31865_ReadADC:0000000000000000 .L0 
/var/folders/rt/4gvqv631095f64jvm7jfj_000000gn/T//ccUKT69D.s:421    .text.MAX31865_ReadADC:0000000000000002 .L0 
/var/folders/rt/4gvqv631095f64jvm7jfj_000000gn/T//ccUKT69D.s:423    .text.MAX31865_ReadADC:0000000000000004 .L0 
/var/folders/rt/4gvqv631095f64jvm7jfj_000000gn/T//ccUKT69D.s:425    .text.MAX31865_ReadADC:0000000000000004 .L0 
/var/folders/rt/4gvqv631095f64jvm7jfj_000000gn/T//ccUKT69D.s:428    .text.MAX31865_ReadADC:000000000000000c .L0 
/var/folders/rt/4gvqv631095f64jvm7jfj_000000gn/T//ccUKT69D.s:431    .text.MAX31865_ReadADC:0000000000000010 .L0 
/var/folders/rt/4gvqv631095f64jvm7jfj_000000gn/T//ccUKT69D.s:433    .text.MAX31865_ReadADC:0000000000000014 .L0 
/var/folders/rt/4gvqv631095f64jvm7jfj_000000gn/T//ccUKT69D.s:435    .text.MAX31865_ReadADC:0000000000000018 .L0 
/var/folders/rt/4gvqv631095f64jvm7jfj_000000gn/T//ccUKT69D.s:436    .text.MAX31865_ReadADC:0000000000000018 .L0 
/var/folders/rt/4gvqv631095f64jvm7jfj_000000gn/T//ccUKT69D.s:437    .text.MAX31865_ReadADC:0000000000000018 .L0 
/var/folders/rt/4gvqv631095f64jvm7jfj_000000gn/T//ccUKT69D.s:438    .text.MAX31865_ReadADC:0000000000000018 .L0 
/var/folders/rt/4gvqv631095f64jvm7jfj_000000gn/T//ccUKT69D.s:440    .text.MAX31865_ReadADC:0000000000000018 .L0 
/var/folders/rt/4gvqv631095f64jvm7jfj_000000gn/T//ccUKT69D.s:442    .text.MAX31865_ReadADC:000000000000001c .L0 
/var/folders/rt/4gvqv631095f64jvm7jfj_000000gn/T//ccUKT69D.s:444    .text.MAX31865_ReadADC:0000000000000020 .L0 
/var/folders/rt/4gvqv631095f64jvm7jfj_000000gn/T//ccUKT69D.s:446    .text.MAX31865_ReadADC:0000000000000024 .L0 
/var/folders/rt/4gvqv631095f64jvm7jfj_000000gn/T//ccUKT69D.s:447    .text.MAX31865_ReadADC:0000000000000024 .L0 
/var/folders/rt/4gvqv631095f64jvm7jfj_000000gn/T//ccUKT69D.s:452    .text.MAX31865_ReadADC:0000000000000032 .L0 
/var/folders/rt/4gvqv631095f64jvm7jfj_000000gn/T//ccUKT69D.s:456    .text.MAX31865_ReadADC:000000000000003c .L0 
/var/folders/rt/4gvqv631095f64jvm7jfj_000000gn/T//ccUKT69D.s:457    .text.MAX31865_ReadADC:000000000000003c .L0 
/var/folders/rt/4gvqv631095f64jvm7jfj_000000gn/T//ccUKT69D.s:463    .text.MAX31865_ReadADC:000000000000004a .L0 
/var/folders/rt/4gvqv631095f64jvm7jfj_000000gn/T//ccUKT69D.s:464    .text.MAX31865_ReadADC:000000000000004a .L0 
GAS LISTING /var/folders/rt/4gvqv631095f64jvm7jfj_000000gn/T//ccUKT69D.s 			page 24


/var/folders/rt/4gvqv631095f64jvm7jfj_000000gn/T//ccUKT69D.s:470    .text.MAX31865_ReadADC:0000000000000058 .L0 
/var/folders/rt/4gvqv631095f64jvm7jfj_000000gn/T//ccUKT69D.s:474    .text.MAX31865_ReadADC:0000000000000062 .L0 
/var/folders/rt/4gvqv631095f64jvm7jfj_000000gn/T//ccUKT69D.s:479    .text.MAX31865_ReadADC:0000000000000070 .L0 
/var/folders/rt/4gvqv631095f64jvm7jfj_000000gn/T//ccUKT69D.s:481    .text.MAX31865_ReadADC:0000000000000074 .L0 
/var/folders/rt/4gvqv631095f64jvm7jfj_000000gn/T//ccUKT69D.s:483    .text.MAX31865_ReadADC:0000000000000078 .L0 
/var/folders/rt/4gvqv631095f64jvm7jfj_000000gn/T//ccUKT69D.s:485    .text.MAX31865_ReadADC:000000000000007c .L0 
/var/folders/rt/4gvqv631095f64jvm7jfj_000000gn/T//ccUKT69D.s:486    .text.MAX31865_ReadADC:000000000000007e .L0 
/var/folders/rt/4gvqv631095f64jvm7jfj_000000gn/T//ccUKT69D.s:488    .text.MAX31865_ReadADC:0000000000000080 .L0 
/var/folders/rt/4gvqv631095f64jvm7jfj_000000gn/T//ccUKT69D.s:491    .text.MAX31865_ReadADC:0000000000000080 .L0 
/var/folders/rt/4gvqv631095f64jvm7jfj_000000gn/T//ccUKT69D.s:494    .text.MAX31865_ReadADC:0000000000000088 .L0 
/var/folders/rt/4gvqv631095f64jvm7jfj_000000gn/T//ccUKT69D.s:496    .text.MAX31865_ReadADC:000000000000008a .L0 
/var/folders/rt/4gvqv631095f64jvm7jfj_000000gn/T//ccUKT69D.s:498    .text.MAX31865_ReadADC:000000000000008e .L0 
/var/folders/rt/4gvqv631095f64jvm7jfj_000000gn/T//ccUKT69D.s:500    .text.MAX31865_ReadADC:000000000000008e .L0 
/var/folders/rt/4gvqv631095f64jvm7jfj_000000gn/T//ccUKT69D.s:501    .text.MAX31865_ReadADC:000000000000008e .L0 
/var/folders/rt/4gvqv631095f64jvm7jfj_000000gn/T//ccUKT69D.s:502    .text.MAX31865_ReadADC:000000000000008e .L0 
/var/folders/rt/4gvqv631095f64jvm7jfj_000000gn/T//ccUKT69D.s:504    .text.MAX31865_ReadADC:0000000000000090 .L0 
/var/folders/rt/4gvqv631095f64jvm7jfj_000000gn/T//ccUKT69D.s:505    .text.MAX31865_ReadADC:0000000000000092 .L0 
/var/folders/rt/4gvqv631095f64jvm7jfj_000000gn/T//ccUKT69D.s:507    .text.MAX31865_ReadADC:0000000000000094 .L0 
/var/folders/rt/4gvqv631095f64jvm7jfj_000000gn/T//ccUKT69D.s:509    .text.MAX31865_ReadADC:0000000000000096 .L0 
/var/folders/rt/4gvqv631095f64jvm7jfj_000000gn/T//ccUKT69D.s:514    .text.MAX31865_ReadADC:000000000000009a .L0 
/var/folders/rt/4gvqv631095f64jvm7jfj_000000gn/T//ccUKT69D.s:516    .text.MAX31865_ReadADC:000000000000009c .L0 
/var/folders/rt/4gvqv631095f64jvm7jfj_000000gn/T//ccUKT69D.s:531    .text.read_temp:0000000000000000 read_temp
/var/folders/rt/4gvqv631095f64jvm7jfj_000000gn/T//ccUKT69D.s:534    .text.read_temp:0000000000000000 .L0 
/var/folders/rt/4gvqv631095f64jvm7jfj_000000gn/T//ccUKT69D.s:535    .text.read_temp:0000000000000000 .L0 
/var/folders/rt/4gvqv631095f64jvm7jfj_000000gn/T//ccUKT69D.s:537    .text.read_temp:0000000000000000 .L0 
/var/folders/rt/4gvqv631095f64jvm7jfj_000000gn/T//ccUKT69D.s:538    .text.read_temp:0000000000000000 .L0 
/var/folders/rt/4gvqv631095f64jvm7jfj_000000gn/T//ccUKT69D.s:539    .text.read_temp:0000000000000000 .L0 
/var/folders/rt/4gvqv631095f64jvm7jfj_000000gn/T//ccUKT69D.s:540    .text.read_temp:0000000000000000 .L0 
/var/folders/rt/4gvqv631095f64jvm7jfj_000000gn/T//ccUKT69D.s:541    .text.read_temp:0000000000000000 .L0 
/var/folders/rt/4gvqv631095f64jvm7jfj_000000gn/T//ccUKT69D.s:543    .text.read_temp:0000000000000002 .L0 
/var/folders/rt/4gvqv631095f64jvm7jfj_000000gn/T//ccUKT69D.s:546    .text.read_temp:0000000000000002 .L0 
/var/folders/rt/4gvqv631095f64jvm7jfj_000000gn/T//ccUKT69D.s:549    .text.read_temp:0000000000000006 .L0 
/var/folders/rt/4gvqv631095f64jvm7jfj_000000gn/T//ccUKT69D.s:550    .text.read_temp:0000000000000008 .L0 
/var/folders/rt/4gvqv631095f64jvm7jfj_000000gn/T//ccUKT69D.s:553    .text.read_temp:0000000000000008 .L0 
/var/folders/rt/4gvqv631095f64jvm7jfj_000000gn/T//ccUKT69D.s:555    .text.read_temp:000000000000000c .L0 
/var/folders/rt/4gvqv631095f64jvm7jfj_000000gn/T//ccUKT69D.s:558    .text.read_temp:0000000000000010 .L0 
/var/folders/rt/4gvqv631095f64jvm7jfj_000000gn/T//ccUKT69D.s:559    .text.read_temp:0000000000000012 .L0 
/var/folders/rt/4gvqv631095f64jvm7jfj_000000gn/T//ccUKT69D.s:562    .text.read_temp:0000000000000012 .L0 
/var/folders/rt/4gvqv631095f64jvm7jfj_000000gn/T//ccUKT69D.s:564    .text.read_temp:0000000000000016 .L0 
/var/folders/rt/4gvqv631095f64jvm7jfj_000000gn/T//ccUKT69D.s:567    .text.read_temp:000000000000001a .L0 
/var/folders/rt/4gvqv631095f64jvm7jfj_000000gn/T//ccUKT69D.s:569    .text.read_temp:000000000000001e .L0 
/var/folders/rt/4gvqv631095f64jvm7jfj_000000gn/T//ccUKT69D.s:570    .text.read_temp:000000000000001e .L0 
/var/folders/rt/4gvqv631095f64jvm7jfj_000000gn/T//ccUKT69D.s:573    .text.read_temp:000000000000001e .L0 
/var/folders/rt/4gvqv631095f64jvm7jfj_000000gn/T//ccUKT69D.s:576    .text.read_temp:0000000000000026 .L0 
/var/folders/rt/4gvqv631095f64jvm7jfj_000000gn/T//ccUKT69D.s:579    .text.read_temp:000000000000002a .L0 
/var/folders/rt/4gvqv631095f64jvm7jfj_000000gn/T//ccUKT69D.s:581    .text.read_temp:000000000000002e .L0 
/var/folders/rt/4gvqv631095f64jvm7jfj_000000gn/T//ccUKT69D.s:582    .text.read_temp:000000000000002e .L0 
/var/folders/rt/4gvqv631095f64jvm7jfj_000000gn/T//ccUKT69D.s:585    .text.read_temp:000000000000002e .L0 
/var/folders/rt/4gvqv631095f64jvm7jfj_000000gn/T//ccUKT69D.s:589    .text.read_temp:0000000000000036 .L0 
/var/folders/rt/4gvqv631095f64jvm7jfj_000000gn/T//ccUKT69D.s:593    .text.read_temp:000000000000003e .L0 
/var/folders/rt/4gvqv631095f64jvm7jfj_000000gn/T//ccUKT69D.s:594    .text.read_temp:000000000000003e .L0 
/var/folders/rt/4gvqv631095f64jvm7jfj_000000gn/T//ccUKT69D.s:595    .text.read_temp:000000000000003e .L0 
/var/folders/rt/4gvqv631095f64jvm7jfj_000000gn/T//ccUKT69D.s:596    .text.read_temp:000000000000003e .L0 
/var/folders/rt/4gvqv631095f64jvm7jfj_000000gn/T//ccUKT69D.s:598    .text.read_temp:000000000000003e .L0 
/var/folders/rt/4gvqv631095f64jvm7jfj_000000gn/T//ccUKT69D.s:600    .text.read_temp:0000000000000040 .L0 
/var/folders/rt/4gvqv631095f64jvm7jfj_000000gn/T//ccUKT69D.s:605    .text.read_temp:0000000000000044 .L0 
/var/folders/rt/4gvqv631095f64jvm7jfj_000000gn/T//ccUKT69D.s:606    .text.read_temp:0000000000000044 .L0 
GAS LISTING /var/folders/rt/4gvqv631095f64jvm7jfj_000000gn/T//ccUKT69D.s 			page 25


/var/folders/rt/4gvqv631095f64jvm7jfj_000000gn/T//ccUKT69D.s:609    .text.read_temp:000000000000004c .L0 
/var/folders/rt/4gvqv631095f64jvm7jfj_000000gn/T//ccUKT69D.s:610    .text.read_temp:000000000000004c .L0 
/var/folders/rt/4gvqv631095f64jvm7jfj_000000gn/T//ccUKT69D.s:611    .text.read_temp:000000000000004c .L0 
/var/folders/rt/4gvqv631095f64jvm7jfj_000000gn/T//ccUKT69D.s:612    .text.read_temp:000000000000004c .L0 
/var/folders/rt/4gvqv631095f64jvm7jfj_000000gn/T//ccUKT69D.s:615    .text.read_temp:0000000000000054 .L0 
/var/folders/rt/4gvqv631095f64jvm7jfj_000000gn/T//ccUKT69D.s:619    .text.read_temp:000000000000005e .L0 
/var/folders/rt/4gvqv631095f64jvm7jfj_000000gn/T//ccUKT69D.s:623    .text.read_temp:0000000000000068 .L0 
/var/folders/rt/4gvqv631095f64jvm7jfj_000000gn/T//ccUKT69D.s:630    .text.read_temp:000000000000007c .L0 
/var/folders/rt/4gvqv631095f64jvm7jfj_000000gn/T//ccUKT69D.s:635    .text.read_temp:0000000000000088 .L0 
/var/folders/rt/4gvqv631095f64jvm7jfj_000000gn/T//ccUKT69D.s:638    .text.read_temp:0000000000000090 .L0 
/var/folders/rt/4gvqv631095f64jvm7jfj_000000gn/T//ccUKT69D.s:646    .text.read_temp:000000000000009e .L0 
/var/folders/rt/4gvqv631095f64jvm7jfj_000000gn/T//ccUKT69D.s:648    .text.read_temp:000000000000009e .L0 
/var/folders/rt/4gvqv631095f64jvm7jfj_000000gn/T//ccUKT69D.s:649    .text.read_temp:000000000000009e .L0 
/var/folders/rt/4gvqv631095f64jvm7jfj_000000gn/T//ccUKT69D.s:654    .text.read_temp:00000000000000a0 .L0 
/var/folders/rt/4gvqv631095f64jvm7jfj_000000gn/T//ccUKT69D.s:660    .text.read_temp:00000000000000ac .L0 
/var/folders/rt/4gvqv631095f64jvm7jfj_000000gn/T//ccUKT69D.s:663    .text.read_temp:00000000000000b4 .L0 
/var/folders/rt/4gvqv631095f64jvm7jfj_000000gn/T//ccUKT69D.s:667    .text.read_temp:00000000000000b8 .L0 
/var/folders/rt/4gvqv631095f64jvm7jfj_000000gn/T//ccUKT69D.s:671    .text.read_temp:00000000000000ba .L0 
/var/folders/rt/4gvqv631095f64jvm7jfj_000000gn/T//ccUKT69D.s:673    .text.read_temp:00000000000000bc .L0 
/var/folders/rt/4gvqv631095f64jvm7jfj_000000gn/T//ccUKT69D.s:674    .text.read_temp:00000000000000bc .L0 
/var/folders/rt/4gvqv631095f64jvm7jfj_000000gn/T//ccUKT69D.s:680    .text.read_temp:00000000000000ce .L0 
/var/folders/rt/4gvqv631095f64jvm7jfj_000000gn/T//ccUKT69D.s:681    .text.read_temp:00000000000000d0 .L0 
/var/folders/rt/4gvqv631095f64jvm7jfj_000000gn/T//ccUKT69D.s:683    .text.read_temp:00000000000000d2 .L0 
/var/folders/rt/4gvqv631095f64jvm7jfj_000000gn/T//ccUKT69D.s:686    .text.read_temp:00000000000000d4 .L0 
/var/folders/rt/4gvqv631095f64jvm7jfj_000000gn/T//ccUKT69D.s:689    .text.read_temp:00000000000000d6 .L0 
/var/folders/rt/4gvqv631095f64jvm7jfj_000000gn/T//ccUKT69D.s:691    .text.read_temp:00000000000000d8 .L0 
/var/folders/rt/4gvqv631095f64jvm7jfj_000000gn/T//ccUKT69D.s:693    .text.read_temp:00000000000000da .L0 
/var/folders/rt/4gvqv631095f64jvm7jfj_000000gn/T//ccUKT69D.s:695    .text.read_temp:00000000000000dc .L0 
/var/folders/rt/4gvqv631095f64jvm7jfj_000000gn/T//ccUKT69D.s:697    .text.read_temp:00000000000000de .L0 
/var/folders/rt/4gvqv631095f64jvm7jfj_000000gn/T//ccUKT69D.s:699    .text.read_temp:00000000000000e0 .L0 
/var/folders/rt/4gvqv631095f64jvm7jfj_000000gn/T//ccUKT69D.s:701    .text.read_temp:00000000000000e2 .L0 
/var/folders/rt/4gvqv631095f64jvm7jfj_000000gn/T//ccUKT69D.s:704    .text.read_temp:00000000000000e4 .L0 
/var/folders/rt/4gvqv631095f64jvm7jfj_000000gn/T//ccUKT69D.s:706    .text.read_temp:00000000000000e6 .L0 
/var/folders/rt/4gvqv631095f64jvm7jfj_000000gn/T//ccUKT69D.s:713    .text.ADC_read:0000000000000000 ADC_read
/var/folders/rt/4gvqv631095f64jvm7jfj_000000gn/T//ccUKT69D.s:716    .text.ADC_read:0000000000000000 .L0 
/var/folders/rt/4gvqv631095f64jvm7jfj_000000gn/T//ccUKT69D.s:718    .text.ADC_read:0000000000000000 .L0 
/var/folders/rt/4gvqv631095f64jvm7jfj_000000gn/T//ccUKT69D.s:719    .text.ADC_read:0000000000000000 .L0 
/var/folders/rt/4gvqv631095f64jvm7jfj_000000gn/T//ccUKT69D.s:720    .text.ADC_read:0000000000000000 .L0 
/var/folders/rt/4gvqv631095f64jvm7jfj_000000gn/T//ccUKT69D.s:722    .text.ADC_read:0000000000000002 .L0 
/var/folders/rt/4gvqv631095f64jvm7jfj_000000gn/T//ccUKT69D.s:726    .text.ADC_read:0000000000000008 .L0 
/var/folders/rt/4gvqv631095f64jvm7jfj_000000gn/T//ccUKT69D.s:727    .text.ADC_read:0000000000000008 .L0 
/var/folders/rt/4gvqv631095f64jvm7jfj_000000gn/T//ccUKT69D.s:728    .text.ADC_read:0000000000000008 .L0 
/var/folders/rt/4gvqv631095f64jvm7jfj_000000gn/T//ccUKT69D.s:730    .text.ADC_read:0000000000000008 .L0 
/var/folders/rt/4gvqv631095f64jvm7jfj_000000gn/T//ccUKT69D.s:733    .text.ADC_read:000000000000000e .L0 
/var/folders/rt/4gvqv631095f64jvm7jfj_000000gn/T//ccUKT69D.s:737    .text.ADC_read:0000000000000012 .L0 
/var/folders/rt/4gvqv631095f64jvm7jfj_000000gn/T//ccUKT69D.s:745    .text.ADC_read:0000000000000024 .L0 
/var/folders/rt/4gvqv631095f64jvm7jfj_000000gn/T//ccUKT69D.s:749    .text.ADC_read:000000000000002e .L0 
/var/folders/rt/4gvqv631095f64jvm7jfj_000000gn/T//ccUKT69D.s:751    .text.ADC_read:0000000000000032 .L0 
/var/folders/rt/4gvqv631095f64jvm7jfj_000000gn/T//ccUKT69D.s:754    .text.ADC_read:000000000000003a .L0 
/var/folders/rt/4gvqv631095f64jvm7jfj_000000gn/T//ccUKT69D.s:755    .text.ADC_read:000000000000003a .L0 
/var/folders/rt/4gvqv631095f64jvm7jfj_000000gn/T//ccUKT69D.s:758    .text.ADC_read:000000000000003e .L0 
/var/folders/rt/4gvqv631095f64jvm7jfj_000000gn/T//ccUKT69D.s:759    .text.ADC_read:000000000000003e .L0 
/var/folders/rt/4gvqv631095f64jvm7jfj_000000gn/T//ccUKT69D.s:764    .text.ADC_read:000000000000004a .L0 
/var/folders/rt/4gvqv631095f64jvm7jfj_000000gn/T//ccUKT69D.s:766    .text.ADC_read:000000000000004c .L0 
/var/folders/rt/4gvqv631095f64jvm7jfj_000000gn/T//ccUKT69D.s:767    .text.ADC_read:000000000000004c .L0 
/var/folders/rt/4gvqv631095f64jvm7jfj_000000gn/T//ccUKT69D.s:769    .text.ADC_read:0000000000000050 .L0 
/var/folders/rt/4gvqv631095f64jvm7jfj_000000gn/T//ccUKT69D.s:770    .text.ADC_read:0000000000000052 .L0 
GAS LISTING /var/folders/rt/4gvqv631095f64jvm7jfj_000000gn/T//ccUKT69D.s 			page 26


/var/folders/rt/4gvqv631095f64jvm7jfj_000000gn/T//ccUKT69D.s:771    .text.ADC_read:0000000000000052 .L0 
/var/folders/rt/4gvqv631095f64jvm7jfj_000000gn/T//ccUKT69D.s:773    .text.ADC_read:0000000000000054 .L0 
/var/folders/rt/4gvqv631095f64jvm7jfj_000000gn/T//ccUKT69D.s:775    .text.ADC_read:0000000000000056 .L0 
/var/folders/rt/4gvqv631095f64jvm7jfj_000000gn/T//ccUKT69D.s:778    .text.ADC_read:0000000000000058 .L0 
/var/folders/rt/4gvqv631095f64jvm7jfj_000000gn/T//ccUKT69D.s:780    .text.ADC_read:0000000000000058 .L0 
/var/folders/rt/4gvqv631095f64jvm7jfj_000000gn/T//ccUKT69D.s:784    .text.ADC_read:0000000000000060 .L0 
/var/folders/rt/4gvqv631095f64jvm7jfj_000000gn/T//ccUKT69D.s:786    .text.ADC_read:0000000000000060 .L0 
/var/folders/rt/4gvqv631095f64jvm7jfj_000000gn/T//ccUKT69D.s:787    .text.ADC_read:0000000000000060 .L0 
/var/folders/rt/4gvqv631095f64jvm7jfj_000000gn/T//ccUKT69D.s:790    .text.ADC_read:0000000000000066 .L0 
/var/folders/rt/4gvqv631095f64jvm7jfj_000000gn/T//ccUKT69D.s:793    .text.ADC_read:000000000000006c .L0 
/var/folders/rt/4gvqv631095f64jvm7jfj_000000gn/T//ccUKT69D.s:166    .text.ADC3powerUpInit:0000000000000140 .L0 
/var/folders/rt/4gvqv631095f64jvm7jfj_000000gn/T//ccUKT69D.s:255    .text.MAX31865_ExchangeByte:0000000000000072 .L0 
/var/folders/rt/4gvqv631095f64jvm7jfj_000000gn/T//ccUKT69D.s:408    .text.MAX31865_Init:0000000000000116 .L0 
/var/folders/rt/4gvqv631095f64jvm7jfj_000000gn/T//ccUKT69D.s:527    .text.MAX31865_ReadADC:000000000000009c .L0 
/var/folders/rt/4gvqv631095f64jvm7jfj_000000gn/T//ccUKT69D.s:709    .text.read_temp:00000000000000e6 .L0 
/var/folders/rt/4gvqv631095f64jvm7jfj_000000gn/T//ccUKT69D.s:796    .text.ADC_read:000000000000006c .L0 
                     .debug_frame:0000000000000000 .L0 
/var/folders/rt/4gvqv631095f64jvm7jfj_000000gn/T//ccUKT69D.s:130    .text.ADC3powerUpInit:000000000000010e .L2
/var/folders/rt/4gvqv631095f64jvm7jfj_000000gn/T//ccUKT69D.s:204    .text.MAX31865_ExchangeByte:0000000000000024 .L8
/var/folders/rt/4gvqv631095f64jvm7jfj_000000gn/T//ccUKT69D.s:224    .text.MAX31865_ExchangeByte:0000000000000048 .L9
/var/folders/rt/4gvqv631095f64jvm7jfj_000000gn/T//ccUKT69D.s:798    .rodata.read_temp.cst4:0000000000000000 .LC0
/var/folders/rt/4gvqv631095f64jvm7jfj_000000gn/T//ccUKT69D.s:800    .rodata.read_temp.cst4:0000000000000004 .LC1
/var/folders/rt/4gvqv631095f64jvm7jfj_000000gn/T//ccUKT69D.s:806    .rodata.read_temp.cst8:0000000000000000 .LC2
/var/folders/rt/4gvqv631095f64jvm7jfj_000000gn/T//ccUKT69D.s:809    .rodata.read_temp.cst8:0000000000000008 .LC3
/var/folders/rt/4gvqv631095f64jvm7jfj_000000gn/T//ccUKT69D.s:802    .rodata.read_temp.cst4:0000000000000008 .LC4
/var/folders/rt/4gvqv631095f64jvm7jfj_000000gn/T//ccUKT69D.s:651    .text.read_temp:00000000000000a0 .L20
/var/folders/rt/4gvqv631095f64jvm7jfj_000000gn/T//ccUKT69D.s:602    .text.read_temp:0000000000000044 .L21
/var/folders/rt/4gvqv631095f64jvm7jfj_000000gn/T//ccUKT69D.s:782    .text.ADC_read:0000000000000060 .L26
/var/folders/rt/4gvqv631095f64jvm7jfj_000000gn/T//ccUKT69D.s:756    .text.ADC_read:000000000000003e .L28
/var/folders/rt/4gvqv631095f64jvm7jfj_000000gn/T//ccUKT69D.s:743    .text.ADC_read:0000000000000024 .L27
/var/folders/rt/4gvqv631095f64jvm7jfj_000000gn/T//ccUKT69D.s:735    .text.ADC_read:0000000000000012 .L32
/var/folders/rt/4gvqv631095f64jvm7jfj_000000gn/T//ccUKT69D.s:3734   .debug_abbrev:0000000000000000 .Ldebug_abbrev0
/var/folders/rt/4gvqv631095f64jvm7jfj_000000gn/T//ccUKT69D.s:5301   .debug_str:0000000000000810 .LASF223
/var/folders/rt/4gvqv631095f64jvm7jfj_000000gn/T//ccUKT69D.s:5265   .debug_str:0000000000000754 .LASF224
/var/folders/rt/4gvqv631095f64jvm7jfj_000000gn/T//ccUKT69D.s:5305   .debug_str:00000000000008a1 .LASF225
/var/folders/rt/4gvqv631095f64jvm7jfj_000000gn/T//ccUKT69D.s:4887   .debug_ranges:0000000000000000 .Ldebug_ranges0
/var/folders/rt/4gvqv631095f64jvm7jfj_000000gn/T//ccUKT69D.s:4923   .debug_line:0000000000000000 .Ldebug_line0
/var/folders/rt/4gvqv631095f64jvm7jfj_000000gn/T//ccUKT69D.s:5267   .debug_str:000000000000075a .LASF0
/var/folders/rt/4gvqv631095f64jvm7jfj_000000gn/T//ccUKT69D.s:5043   .debug_str:0000000000000281 .LASF1
/var/folders/rt/4gvqv631095f64jvm7jfj_000000gn/T//ccUKT69D.s:5225   .debug_str:0000000000000677 .LASF2
/var/folders/rt/4gvqv631095f64jvm7jfj_000000gn/T//ccUKT69D.s:4947   .debug_str:000000000000007e .LASF3
/var/folders/rt/4gvqv631095f64jvm7jfj_000000gn/T//ccUKT69D.s:4949   .debug_str:000000000000008a .LASF6
/var/folders/rt/4gvqv631095f64jvm7jfj_000000gn/T//ccUKT69D.s:5199   .debug_str:00000000000005f9 .LASF4
/var/folders/rt/4gvqv631095f64jvm7jfj_000000gn/T//ccUKT69D.s:5287   .debug_str:00000000000007b6 .LASF5
/var/folders/rt/4gvqv631095f64jvm7jfj_000000gn/T//ccUKT69D.s:5281   .debug_str:0000000000000792 .LASF7
/var/folders/rt/4gvqv631095f64jvm7jfj_000000gn/T//ccUKT69D.s:5021   .debug_str:000000000000021e .LASF8
/var/folders/rt/4gvqv631095f64jvm7jfj_000000gn/T//ccUKT69D.s:5059   .debug_str:00000000000002d4 .LASF9
/var/folders/rt/4gvqv631095f64jvm7jfj_000000gn/T//ccUKT69D.s:5087   .debug_str:0000000000000362 .LASF10
/var/folders/rt/4gvqv631095f64jvm7jfj_000000gn/T//ccUKT69D.s:5039   .debug_str:000000000000026a .LASF11
/var/folders/rt/4gvqv631095f64jvm7jfj_000000gn/T//ccUKT69D.s:4963   .debug_str:00000000000000e9 .LASF12
/var/folders/rt/4gvqv631095f64jvm7jfj_000000gn/T//ccUKT69D.s:5279   .debug_str:0000000000000785 .LASF13
/var/folders/rt/4gvqv631095f64jvm7jfj_000000gn/T//ccUKT69D.s:5147   .debug_str:00000000000004c1 .LASF14
/var/folders/rt/4gvqv631095f64jvm7jfj_000000gn/T//ccUKT69D.s:5169   .debug_str:0000000000000542 .LASF15
/var/folders/rt/4gvqv631095f64jvm7jfj_000000gn/T//ccUKT69D.s:5197   .debug_str:00000000000005f2 .LASF16
/var/folders/rt/4gvqv631095f64jvm7jfj_000000gn/T//ccUKT69D.s:5261   .debug_str:0000000000000743 .LASF17
/var/folders/rt/4gvqv631095f64jvm7jfj_000000gn/T//ccUKT69D.s:5341   .debug_str:00000000000009ae .LASF18
/var/folders/rt/4gvqv631095f64jvm7jfj_000000gn/T//ccUKT69D.s:5119   .debug_str:0000000000000419 .LASF19
GAS LISTING /var/folders/rt/4gvqv631095f64jvm7jfj_000000gn/T//ccUKT69D.s 			page 27


/var/folders/rt/4gvqv631095f64jvm7jfj_000000gn/T//ccUKT69D.s:5077   .debug_str:000000000000032f .LASF20
/var/folders/rt/4gvqv631095f64jvm7jfj_000000gn/T//ccUKT69D.s:5137   .debug_str:0000000000000481 .LASF21
/var/folders/rt/4gvqv631095f64jvm7jfj_000000gn/T//ccUKT69D.s:5253   .debug_str:0000000000000722 .LASF22
/var/folders/rt/4gvqv631095f64jvm7jfj_000000gn/T//ccUKT69D.s:5177   .debug_str:000000000000056b .LASF23
/var/folders/rt/4gvqv631095f64jvm7jfj_000000gn/T//ccUKT69D.s:5315   .debug_str:000000000000092f .LASF24
/var/folders/rt/4gvqv631095f64jvm7jfj_000000gn/T//ccUKT69D.s:5141   .debug_str:0000000000000492 .LASF25
/var/folders/rt/4gvqv631095f64jvm7jfj_000000gn/T//ccUKT69D.s:5207   .debug_str:0000000000000622 .LASF26
/var/folders/rt/4gvqv631095f64jvm7jfj_000000gn/T//ccUKT69D.s:5069   .debug_str:0000000000000314 .LASF31
/var/folders/rt/4gvqv631095f64jvm7jfj_000000gn/T//ccUKT69D.s:5295   .debug_str:00000000000007f3 .LASF27
/var/folders/rt/4gvqv631095f64jvm7jfj_000000gn/T//ccUKT69D.s:5243   .debug_str:00000000000006e9 .LASF28
/var/folders/rt/4gvqv631095f64jvm7jfj_000000gn/T//ccUKT69D.s:5063   .debug_str:00000000000002fa .LASF29
/var/folders/rt/4gvqv631095f64jvm7jfj_000000gn/T//ccUKT69D.s:5335   .debug_str:000000000000099c .LASF30
/var/folders/rt/4gvqv631095f64jvm7jfj_000000gn/T//ccUKT69D.s:5073   .debug_str:0000000000000322 .LASF32
/var/folders/rt/4gvqv631095f64jvm7jfj_000000gn/T//ccUKT69D.s:4989   .debug_str:000000000000017f .LASF33
/var/folders/rt/4gvqv631095f64jvm7jfj_000000gn/T//ccUKT69D.s:5361   .debug_str:0000000000000a31 .LASF34
/var/folders/rt/4gvqv631095f64jvm7jfj_000000gn/T//ccUKT69D.s:5007   .debug_str:00000000000001cf .LASF35
/var/folders/rt/4gvqv631095f64jvm7jfj_000000gn/T//ccUKT69D.s:5375   .debug_str:0000000000000a6f .LASF36
/var/folders/rt/4gvqv631095f64jvm7jfj_000000gn/T//ccUKT69D.s:5149   .debug_str:00000000000004cd .LASF37
/var/folders/rt/4gvqv631095f64jvm7jfj_000000gn/T//ccUKT69D.s:5269   .debug_str:0000000000000760 .LASF38
/var/folders/rt/4gvqv631095f64jvm7jfj_000000gn/T//ccUKT69D.s:5259   .debug_str:0000000000000739 .LASF39
/var/folders/rt/4gvqv631095f64jvm7jfj_000000gn/T//ccUKT69D.s:5371   .debug_str:0000000000000a5d .LASF40
/var/folders/rt/4gvqv631095f64jvm7jfj_000000gn/T//ccUKT69D.s:5357   .debug_str:0000000000000a17 .LASF41
/var/folders/rt/4gvqv631095f64jvm7jfj_000000gn/T//ccUKT69D.s:5011   .debug_str:00000000000001de .LASF42
/var/folders/rt/4gvqv631095f64jvm7jfj_000000gn/T//ccUKT69D.s:4935   .debug_str:0000000000000030 .LASF43
/var/folders/rt/4gvqv631095f64jvm7jfj_000000gn/T//ccUKT69D.s:4925   .debug_str:0000000000000000 .LASF44
/var/folders/rt/4gvqv631095f64jvm7jfj_000000gn/T//ccUKT69D.s:5303   .debug_str:0000000000000898 .LASF45
/var/folders/rt/4gvqv631095f64jvm7jfj_000000gn/T//ccUKT69D.s:5029   .debug_str:0000000000000240 .LASF46
/var/folders/rt/4gvqv631095f64jvm7jfj_000000gn/T//ccUKT69D.s:5161   .debug_str:0000000000000516 .LASF47
/var/folders/rt/4gvqv631095f64jvm7jfj_000000gn/T//ccUKT69D.s:5231   .debug_str:000000000000069c .LASF48
/var/folders/rt/4gvqv631095f64jvm7jfj_000000gn/T//ccUKT69D.s:5057   .debug_str:00000000000002cf .LASF49
/var/folders/rt/4gvqv631095f64jvm7jfj_000000gn/T//ccUKT69D.s:5211   .debug_str:000000000000063b .LASF50
/var/folders/rt/4gvqv631095f64jvm7jfj_000000gn/T//ccUKT69D.s:5005   .debug_str:00000000000001c9 .LASF51
/var/folders/rt/4gvqv631095f64jvm7jfj_000000gn/T//ccUKT69D.s:5277   .debug_str:000000000000077f .LASF52
/var/folders/rt/4gvqv631095f64jvm7jfj_000000gn/T//ccUKT69D.s:5217   .debug_str:0000000000000651 .LASF53
/var/folders/rt/4gvqv631095f64jvm7jfj_000000gn/T//ccUKT69D.s:5339   .debug_str:00000000000009a7 .LASF54
/var/folders/rt/4gvqv631095f64jvm7jfj_000000gn/T//ccUKT69D.s:5091   .debug_str:000000000000037c .LASF55
/var/folders/rt/4gvqv631095f64jvm7jfj_000000gn/T//ccUKT69D.s:4969   .debug_str:0000000000000114 .LASF56
/var/folders/rt/4gvqv631095f64jvm7jfj_000000gn/T//ccUKT69D.s:5017   .debug_str:000000000000020e .LASF57
/var/folders/rt/4gvqv631095f64jvm7jfj_000000gn/T//ccUKT69D.s:5071   .debug_str:000000000000031c .LASF58
/var/folders/rt/4gvqv631095f64jvm7jfj_000000gn/T//ccUKT69D.s:5133   .debug_str:0000000000000474 .LASF59
/var/folders/rt/4gvqv631095f64jvm7jfj_000000gn/T//ccUKT69D.s:5255   .debug_str:000000000000072a .LASF60
/var/folders/rt/4gvqv631095f64jvm7jfj_000000gn/T//ccUKT69D.s:4995   .debug_str:0000000000000199 .LASF61
/var/folders/rt/4gvqv631095f64jvm7jfj_000000gn/T//ccUKT69D.s:5003   .debug_str:00000000000001c3 .LASF62
/var/folders/rt/4gvqv631095f64jvm7jfj_000000gn/T//ccUKT69D.s:5353   .debug_str:0000000000000a09 .LASF63
/var/folders/rt/4gvqv631095f64jvm7jfj_000000gn/T//ccUKT69D.s:5275   .debug_str:0000000000000776 .LASF64
/var/folders/rt/4gvqv631095f64jvm7jfj_000000gn/T//ccUKT69D.s:5145   .debug_str:00000000000004b9 .LASF65
/var/folders/rt/4gvqv631095f64jvm7jfj_000000gn/T//ccUKT69D.s:5101   .debug_str:00000000000003b2 .LASF66
/var/folders/rt/4gvqv631095f64jvm7jfj_000000gn/T//ccUKT69D.s:5127   .debug_str:0000000000000451 .LASF67
/var/folders/rt/4gvqv631095f64jvm7jfj_000000gn/T//ccUKT69D.s:5219   .debug_str:0000000000000659 .LASF68
/var/folders/rt/4gvqv631095f64jvm7jfj_000000gn/T//ccUKT69D.s:5213   .debug_str:0000000000000642 .LASF69
/var/folders/rt/4gvqv631095f64jvm7jfj_000000gn/T//ccUKT69D.s:5245   .debug_str:00000000000006f1 .LASF70
/var/folders/rt/4gvqv631095f64jvm7jfj_000000gn/T//ccUKT69D.s:5271   .debug_str:000000000000076a .LASF71
/var/folders/rt/4gvqv631095f64jvm7jfj_000000gn/T//ccUKT69D.s:5031   .debug_str:0000000000000248 .LASF72
/var/folders/rt/4gvqv631095f64jvm7jfj_000000gn/T//ccUKT69D.s:5289   .debug_str:00000000000007c0 .LASF73
/var/folders/rt/4gvqv631095f64jvm7jfj_000000gn/T//ccUKT69D.s:5067   .debug_str:000000000000030c .LASF74
/var/folders/rt/4gvqv631095f64jvm7jfj_000000gn/T//ccUKT69D.s:5229   .debug_str:0000000000000697 .LASF75
/var/folders/rt/4gvqv631095f64jvm7jfj_000000gn/T//ccUKT69D.s:4941   .debug_str:000000000000005b .LASF76
GAS LISTING /var/folders/rt/4gvqv631095f64jvm7jfj_000000gn/T//ccUKT69D.s 			page 28


/var/folders/rt/4gvqv631095f64jvm7jfj_000000gn/T//ccUKT69D.s:5239   .debug_str:00000000000006bb .LASF77
/var/folders/rt/4gvqv631095f64jvm7jfj_000000gn/T//ccUKT69D.s:5373   .debug_str:0000000000000a67 .LASF78
/var/folders/rt/4gvqv631095f64jvm7jfj_000000gn/T//ccUKT69D.s:5165   .debug_str:0000000000000528 .LASF79
/var/folders/rt/4gvqv631095f64jvm7jfj_000000gn/T//ccUKT69D.s:5237   .debug_str:00000000000006b1 .LASF80
/var/folders/rt/4gvqv631095f64jvm7jfj_000000gn/T//ccUKT69D.s:5117   .debug_str:0000000000000411 .LASF81
/var/folders/rt/4gvqv631095f64jvm7jfj_000000gn/T//ccUKT69D.s:5033   .debug_str:000000000000024f .LASF82
/var/folders/rt/4gvqv631095f64jvm7jfj_000000gn/T//ccUKT69D.s:5369   .debug_str:0000000000000a58 .LASF83
/var/folders/rt/4gvqv631095f64jvm7jfj_000000gn/T//ccUKT69D.s:5173   .debug_str:0000000000000554 .LASF84
/var/folders/rt/4gvqv631095f64jvm7jfj_000000gn/T//ccUKT69D.s:5085   .debug_str:000000000000035a .LASF85
/var/folders/rt/4gvqv631095f64jvm7jfj_000000gn/T//ccUKT69D.s:5045   .debug_str:0000000000000288 .LASF86
/var/folders/rt/4gvqv631095f64jvm7jfj_000000gn/T//ccUKT69D.s:5025   .debug_str:0000000000000234 .LASF87
/var/folders/rt/4gvqv631095f64jvm7jfj_000000gn/T//ccUKT69D.s:4955   .debug_str:00000000000000aa .LASF88
/var/folders/rt/4gvqv631095f64jvm7jfj_000000gn/T//ccUKT69D.s:5345   .debug_str:00000000000009c1 .LASF89
/var/folders/rt/4gvqv631095f64jvm7jfj_000000gn/T//ccUKT69D.s:5019   .debug_str:0000000000000216 .LASF90
/var/folders/rt/4gvqv631095f64jvm7jfj_000000gn/T//ccUKT69D.s:5009   .debug_str:00000000000001d9 .LASF91
/var/folders/rt/4gvqv631095f64jvm7jfj_000000gn/T//ccUKT69D.s:5273   .debug_str:0000000000000771 .LASF92
/var/folders/rt/4gvqv631095f64jvm7jfj_000000gn/T//ccUKT69D.s:5215   .debug_str:000000000000064a .LASF93
/var/folders/rt/4gvqv631095f64jvm7jfj_000000gn/T//ccUKT69D.s:5337   .debug_str:00000000000009a1 .LASF94
/var/folders/rt/4gvqv631095f64jvm7jfj_000000gn/T//ccUKT69D.s:5103   .debug_str:00000000000003b8 .LASF95
/var/folders/rt/4gvqv631095f64jvm7jfj_000000gn/T//ccUKT69D.s:5201   .debug_str:0000000000000607 .LASF96
/var/folders/rt/4gvqv631095f64jvm7jfj_000000gn/T//ccUKT69D.s:5247   .debug_str:00000000000006f8 .LASF97
/var/folders/rt/4gvqv631095f64jvm7jfj_000000gn/T//ccUKT69D.s:5249   .debug_str:0000000000000700 .LASF98
/var/folders/rt/4gvqv631095f64jvm7jfj_000000gn/T//ccUKT69D.s:5131   .debug_str:000000000000046e .LASF99
/var/folders/rt/4gvqv631095f64jvm7jfj_000000gn/T//ccUKT69D.s:5317   .debug_str:0000000000000937 .LASF100
/var/folders/rt/4gvqv631095f64jvm7jfj_000000gn/T//ccUKT69D.s:5327   .debug_str:000000000000096b .LASF101
/var/folders/rt/4gvqv631095f64jvm7jfj_000000gn/T//ccUKT69D.s:5297   .debug_str:00000000000007f9 .LASF102
/var/folders/rt/4gvqv631095f64jvm7jfj_000000gn/T//ccUKT69D.s:5113   .debug_str:00000000000003fe .LASF103
/var/folders/rt/4gvqv631095f64jvm7jfj_000000gn/T//ccUKT69D.s:5359   .debug_str:0000000000000a22 .LASF104
/var/folders/rt/4gvqv631095f64jvm7jfj_000000gn/T//ccUKT69D.s:5167   .debug_str:0000000000000533 .LASF105
/var/folders/rt/4gvqv631095f64jvm7jfj_000000gn/T//ccUKT69D.s:5107   .debug_str:00000000000003cb .LASF106
/var/folders/rt/4gvqv631095f64jvm7jfj_000000gn/T//ccUKT69D.s:5363   .debug_str:0000000000000a3a .LASF107
/var/folders/rt/4gvqv631095f64jvm7jfj_000000gn/T//ccUKT69D.s:5227   .debug_str:000000000000068a .LASF108
/var/folders/rt/4gvqv631095f64jvm7jfj_000000gn/T//ccUKT69D.s:5367   .debug_str:0000000000000a4a .LASF109
/var/folders/rt/4gvqv631095f64jvm7jfj_000000gn/T//ccUKT69D.s:4987   .debug_str:0000000000000171 .LASF110
/var/folders/rt/4gvqv631095f64jvm7jfj_000000gn/T//ccUKT69D.s:5343   .debug_str:00000000000009b7 .LASF111
/var/folders/rt/4gvqv631095f64jvm7jfj_000000gn/T//ccUKT69D.s:5111   .debug_str:00000000000003f2 .LASF112
/var/folders/rt/4gvqv631095f64jvm7jfj_000000gn/T//ccUKT69D.s:4953   .debug_str:000000000000009d .LASF113
/var/folders/rt/4gvqv631095f64jvm7jfj_000000gn/T//ccUKT69D.s:5053   .debug_str:00000000000002b8 .LASF114
/var/folders/rt/4gvqv631095f64jvm7jfj_000000gn/T//ccUKT69D.s:4985   .debug_str:0000000000000162 .LASF115
/var/folders/rt/4gvqv631095f64jvm7jfj_000000gn/T//ccUKT69D.s:5051   .debug_str:00000000000002a7 .LASF116
/var/folders/rt/4gvqv631095f64jvm7jfj_000000gn/T//ccUKT69D.s:4959   .debug_str:00000000000000c9 .LASF117
/var/folders/rt/4gvqv631095f64jvm7jfj_000000gn/T//ccUKT69D.s:4961   .debug_str:00000000000000d8 .LASF118
/var/folders/rt/4gvqv631095f64jvm7jfj_000000gn/T//ccUKT69D.s:5205   .debug_str:0000000000000619 .LASF119
/var/folders/rt/4gvqv631095f64jvm7jfj_000000gn/T//ccUKT69D.s:5153   .debug_str:00000000000004ee .LASF120
/var/folders/rt/4gvqv631095f64jvm7jfj_000000gn/T//ccUKT69D.s:5139   .debug_str:0000000000000489 .LASF121
/var/folders/rt/4gvqv631095f64jvm7jfj_000000gn/T//ccUKT69D.s:5355   .debug_str:0000000000000a0f .LASF122
/var/folders/rt/4gvqv631095f64jvm7jfj_000000gn/T//ccUKT69D.s:4975   .debug_str:000000000000012c .LASF226
/var/folders/rt/4gvqv631095f64jvm7jfj_000000gn/T//ccUKT69D.s:5065   .debug_str:0000000000000300 .LASF123
/var/folders/rt/4gvqv631095f64jvm7jfj_000000gn/T//ccUKT69D.s:5323   .debug_str:000000000000094f .LASF124
/var/folders/rt/4gvqv631095f64jvm7jfj_000000gn/T//ccUKT69D.s:5291   .debug_str:00000000000007c8 .LASF125
/var/folders/rt/4gvqv631095f64jvm7jfj_000000gn/T//ccUKT69D.s:5041   .debug_str:0000000000000278 .LASF126
/var/folders/rt/4gvqv631095f64jvm7jfj_000000gn/T//ccUKT69D.s:5325   .debug_str:0000000000000962 .LASF127
/var/folders/rt/4gvqv631095f64jvm7jfj_000000gn/T//ccUKT69D.s:5079   .debug_str:0000000000000336 .LASF128
/var/folders/rt/4gvqv631095f64jvm7jfj_000000gn/T//ccUKT69D.s:5233   .debug_str:00000000000006a1 .LASF129
/var/folders/rt/4gvqv631095f64jvm7jfj_000000gn/T//ccUKT69D.s:5035   .debug_str:0000000000000259 .LASF130
/var/folders/rt/4gvqv631095f64jvm7jfj_000000gn/T//ccUKT69D.s:5135   .debug_str:000000000000047b .LASF131
/var/folders/rt/4gvqv631095f64jvm7jfj_000000gn/T//ccUKT69D.s:4933   .debug_str:0000000000000027 .LASF132
GAS LISTING /var/folders/rt/4gvqv631095f64jvm7jfj_000000gn/T//ccUKT69D.s 			page 29


/var/folders/rt/4gvqv631095f64jvm7jfj_000000gn/T//ccUKT69D.s:4999   .debug_str:00000000000001b1 .LASF133
/var/folders/rt/4gvqv631095f64jvm7jfj_000000gn/T//ccUKT69D.s:4993   .debug_str:0000000000000191 .LASF134
/var/folders/rt/4gvqv631095f64jvm7jfj_000000gn/T//ccUKT69D.s:5283   .debug_str:000000000000079d .LASF135
/var/folders/rt/4gvqv631095f64jvm7jfj_000000gn/T//ccUKT69D.s:5037   .debug_str:0000000000000260 .LASF136
/var/folders/rt/4gvqv631095f64jvm7jfj_000000gn/T//ccUKT69D.s:5181   .debug_str:0000000000000581 .LASF137
/var/folders/rt/4gvqv631095f64jvm7jfj_000000gn/T//ccUKT69D.s:5183   .debug_str:000000000000058c .LASF138
/var/folders/rt/4gvqv631095f64jvm7jfj_000000gn/T//ccUKT69D.s:5185   .debug_str:0000000000000597 .LASF139
/var/folders/rt/4gvqv631095f64jvm7jfj_000000gn/T//ccUKT69D.s:5187   .debug_str:00000000000005a2 .LASF140
/var/folders/rt/4gvqv631095f64jvm7jfj_000000gn/T//ccUKT69D.s:5189   .debug_str:00000000000005ad .LASF141
/var/folders/rt/4gvqv631095f64jvm7jfj_000000gn/T//ccUKT69D.s:5191   .debug_str:00000000000005b8 .LASF142
/var/folders/rt/4gvqv631095f64jvm7jfj_000000gn/T//ccUKT69D.s:5299   .debug_str:0000000000000806 .LASF143
/var/folders/rt/4gvqv631095f64jvm7jfj_000000gn/T//ccUKT69D.s:4929   .debug_str:0000000000000015 .LASF144
/var/folders/rt/4gvqv631095f64jvm7jfj_000000gn/T//ccUKT69D.s:4931   .debug_str:000000000000001e .LASF145
/var/folders/rt/4gvqv631095f64jvm7jfj_000000gn/T//ccUKT69D.s:5157   .debug_str:0000000000000500 .LASF146
/var/folders/rt/4gvqv631095f64jvm7jfj_000000gn/T//ccUKT69D.s:5159   .debug_str:000000000000050b .LASF147
/var/folders/rt/4gvqv631095f64jvm7jfj_000000gn/T//ccUKT69D.s:4965   .debug_str:0000000000000100 .LASF148
/var/folders/rt/4gvqv631095f64jvm7jfj_000000gn/T//ccUKT69D.s:4967   .debug_str:000000000000010a .LASF149
/var/folders/rt/4gvqv631095f64jvm7jfj_000000gn/T//ccUKT69D.s:4979   .debug_str:0000000000000145 .LASF150
/var/folders/rt/4gvqv631095f64jvm7jfj_000000gn/T//ccUKT69D.s:5257   .debug_str:0000000000000730 .LASF151
/var/folders/rt/4gvqv631095f64jvm7jfj_000000gn/T//ccUKT69D.s:5055   .debug_str:00000000000002c6 .LASF152
/var/folders/rt/4gvqv631095f64jvm7jfj_000000gn/T//ccUKT69D.s:4991   .debug_str:0000000000000188 .LASF153
/var/folders/rt/4gvqv631095f64jvm7jfj_000000gn/T//ccUKT69D.s:5263   .debug_str:000000000000074b .LASF154
/var/folders/rt/4gvqv631095f64jvm7jfj_000000gn/T//ccUKT69D.s:5319   .debug_str:000000000000093c .LASF155
/var/folders/rt/4gvqv631095f64jvm7jfj_000000gn/T//ccUKT69D.s:5075   .debug_str:0000000000000327 .LASF156
/var/folders/rt/4gvqv631095f64jvm7jfj_000000gn/T//ccUKT69D.s:5099   .debug_str:00000000000003aa .LASF157
/var/folders/rt/4gvqv631095f64jvm7jfj_000000gn/T//ccUKT69D.s:4943   .debug_str:0000000000000066 .LASF158
/var/folders/rt/4gvqv631095f64jvm7jfj_000000gn/T//ccUKT69D.s:4973   .debug_str:0000000000000122 .LASF159
/var/folders/rt/4gvqv631095f64jvm7jfj_000000gn/T//ccUKT69D.s:5081   .debug_str:0000000000000346 .LASF160
/var/folders/rt/4gvqv631095f64jvm7jfj_000000gn/T//ccUKT69D.s:5083   .debug_str:0000000000000350 .LASF161
/var/folders/rt/4gvqv631095f64jvm7jfj_000000gn/T//ccUKT69D.s:4981   .debug_str:000000000000014e .LASF162
/var/folders/rt/4gvqv631095f64jvm7jfj_000000gn/T//ccUKT69D.s:4983   .debug_str:0000000000000158 .LASF163
/var/folders/rt/4gvqv631095f64jvm7jfj_000000gn/T//ccUKT69D.s:5095   .debug_str:0000000000000398 .LASF164
/var/folders/rt/4gvqv631095f64jvm7jfj_000000gn/T//ccUKT69D.s:5097   .debug_str:00000000000003a1 .LASF165
/var/folders/rt/4gvqv631095f64jvm7jfj_000000gn/T//ccUKT69D.s:5179   .debug_str:0000000000000576 .LASF166
/var/folders/rt/4gvqv631095f64jvm7jfj_000000gn/T//ccUKT69D.s:4927   .debug_str:000000000000000c .LASF167
/var/folders/rt/4gvqv631095f64jvm7jfj_000000gn/T//ccUKT69D.s:5155   .debug_str:00000000000004f5 .LASF168
/var/folders/rt/4gvqv631095f64jvm7jfj_000000gn/T//ccUKT69D.s:5203   .debug_str:000000000000060d .LASF169
/var/folders/rt/4gvqv631095f64jvm7jfj_000000gn/T//ccUKT69D.s:5321   .debug_str:0000000000000944 .LASF170
/var/folders/rt/4gvqv631095f64jvm7jfj_000000gn/T//ccUKT69D.s:5333   .debug_str:0000000000000991 .LASF171
/var/folders/rt/4gvqv631095f64jvm7jfj_000000gn/T//ccUKT69D.s:5027   .debug_str:0000000000000239 .LASF172
/var/folders/rt/4gvqv631095f64jvm7jfj_000000gn/T//ccUKT69D.s:5143   .debug_str:00000000000004a4 .LASF173
/var/folders/rt/4gvqv631095f64jvm7jfj_000000gn/T//ccUKT69D.s:5001   .debug_str:00000000000001ba .LASF174
/var/folders/rt/4gvqv631095f64jvm7jfj_000000gn/T//ccUKT69D.s:5013   .debug_str:00000000000001ec .LASF175
/var/folders/rt/4gvqv631095f64jvm7jfj_000000gn/T//ccUKT69D.s:5163   .debug_str:000000000000051e .LASF176
/var/folders/rt/4gvqv631095f64jvm7jfj_000000gn/T//ccUKT69D.s:5123   .debug_str:000000000000042a .LASF177
/var/folders/rt/4gvqv631095f64jvm7jfj_000000gn/T//ccUKT69D.s:5047   .debug_str:0000000000000290 .LASF178
/var/folders/rt/4gvqv631095f64jvm7jfj_000000gn/T//ccUKT69D.s:714    .text.ADC_read:0000000000000000 .LFB10
/var/folders/rt/4gvqv631095f64jvm7jfj_000000gn/T//ccUKT69D.s:794    .text.ADC_read:000000000000006c .LFE10
/var/folders/rt/4gvqv631095f64jvm7jfj_000000gn/T//ccUKT69D.s:4549   .debug_loc:0000000000000000 .LLST15
/var/folders/rt/4gvqv631095f64jvm7jfj_000000gn/T//ccUKT69D.s:5235   .debug_str:00000000000006a9 .LASF191
/var/folders/rt/4gvqv631095f64jvm7jfj_000000gn/T//ccUKT69D.s:4572   .debug_loc:0000000000000038 .LLST16
/var/folders/rt/4gvqv631095f64jvm7jfj_000000gn/T//ccUKT69D.s:5105   .debug_str:00000000000003bf .LASF187
/var/folders/rt/4gvqv631095f64jvm7jfj_000000gn/T//ccUKT69D.s:742    .text.ADC_read:0000000000000024 .LVL78
/var/folders/rt/4gvqv631095f64jvm7jfj_000000gn/T//ccUKT69D.s:752    .text.ADC_read:000000000000003a .LVL79
/var/folders/rt/4gvqv631095f64jvm7jfj_000000gn/T//ccUKT69D.s:762    .text.ADC_read:000000000000004a .LVL80
/var/folders/rt/4gvqv631095f64jvm7jfj_000000gn/T//ccUKT69D.s:781    .text.ADC_read:0000000000000060 .LVL81
/var/folders/rt/4gvqv631095f64jvm7jfj_000000gn/T//ccUKT69D.s:5313   .debug_str:0000000000000925 .LASF179
GAS LISTING /var/folders/rt/4gvqv631095f64jvm7jfj_000000gn/T//ccUKT69D.s 			page 30


/var/folders/rt/4gvqv631095f64jvm7jfj_000000gn/T//ccUKT69D.s:532    .text.read_temp:0000000000000000 .LFB9
/var/folders/rt/4gvqv631095f64jvm7jfj_000000gn/T//ccUKT69D.s:707    .text.read_temp:00000000000000e6 .LFE9
/var/folders/rt/4gvqv631095f64jvm7jfj_000000gn/T//ccUKT69D.s:4590   .debug_loc:0000000000000064 .LLST8
/var/folders/rt/4gvqv631095f64jvm7jfj_000000gn/T//ccUKT69D.s:5347   .debug_str:00000000000009cb .LASF180
/var/folders/rt/4gvqv631095f64jvm7jfj_000000gn/T//ccUKT69D.s:4608   .debug_loc:0000000000000090 .LLST9
/var/folders/rt/4gvqv631095f64jvm7jfj_000000gn/T//ccUKT69D.s:5311   .debug_str:000000000000091c .LASF181
/var/folders/rt/4gvqv631095f64jvm7jfj_000000gn/T//ccUKT69D.s:4640   .debug_loc:00000000000000d1 .LLST10
/var/folders/rt/4gvqv631095f64jvm7jfj_000000gn/T//ccUKT69D.s:5115   .debug_str:000000000000040b .LASF182
/var/folders/rt/4gvqv631095f64jvm7jfj_000000gn/T//ccUKT69D.s:5089   .debug_str:0000000000000374 .LASF183
/var/folders/rt/4gvqv631095f64jvm7jfj_000000gn/T//ccUKT69D.s:4653   .debug_loc:00000000000000f4 .LLST11
/var/folders/rt/4gvqv631095f64jvm7jfj_000000gn/T//ccUKT69D.s:5221   .debug_str:0000000000000662 .LASF184
/var/folders/rt/4gvqv631095f64jvm7jfj_000000gn/T//ccUKT69D.s:4660   .debug_loc:0000000000000107 .LLST12
/var/folders/rt/4gvqv631095f64jvm7jfj_000000gn/T//ccUKT69D.s:5015   .debug_str:0000000000000201 .LASF185
/var/folders/rt/4gvqv631095f64jvm7jfj_000000gn/T//ccUKT69D.s:4683   .debug_loc:0000000000000130 .LLST13
/var/folders/rt/4gvqv631095f64jvm7jfj_000000gn/T//ccUKT69D.s:4722   .debug_loc:0000000000000175 .LLST14
/var/folders/rt/4gvqv631095f64jvm7jfj_000000gn/T//ccUKT69D.s:658    .text.read_temp:00000000000000ac .LVL69
/var/folders/rt/4gvqv631095f64jvm7jfj_000000gn/T//ccUKT69D.s:661    .text.read_temp:00000000000000b4 .LVL70
/var/folders/rt/4gvqv631095f64jvm7jfj_000000gn/T//ccUKT69D.s:607    .text.read_temp:000000000000004c .LVL57
/var/folders/rt/4gvqv631095f64jvm7jfj_000000gn/T//ccUKT69D.s:4997   .debug_str:00000000000001a0 .LASF186
/var/folders/rt/4gvqv631095f64jvm7jfj_000000gn/T//ccUKT69D.s:413    .text.MAX31865_ReadADC:0000000000000000 .LFB8
/var/folders/rt/4gvqv631095f64jvm7jfj_000000gn/T//ccUKT69D.s:517    .text.MAX31865_ReadADC:000000000000009c .LFE8
/var/folders/rt/4gvqv631095f64jvm7jfj_000000gn/T//ccUKT69D.s:4746   .debug_loc:00000000000001a7 .LLST5
/var/folders/rt/4gvqv631095f64jvm7jfj_000000gn/T//ccUKT69D.s:4764   .debug_loc:00000000000001d3 .LLST6
/var/folders/rt/4gvqv631095f64jvm7jfj_000000gn/T//ccUKT69D.s:4771   .debug_loc:00000000000001e6 .LLST7
/var/folders/rt/4gvqv631095f64jvm7jfj_000000gn/T//ccUKT69D.s:5331   .debug_str:0000000000000988 .LASF188
/var/folders/rt/4gvqv631095f64jvm7jfj_000000gn/T//ccUKT69D.s:450    .text.MAX31865_ReadADC:0000000000000032 .LVL44
/var/folders/rt/4gvqv631095f64jvm7jfj_000000gn/T//ccUKT69D.s:454    .text.MAX31865_ReadADC:000000000000003c .LVL45
/var/folders/rt/4gvqv631095f64jvm7jfj_000000gn/T//ccUKT69D.s:459    .text.MAX31865_ReadADC:0000000000000048 .LVL46
/var/folders/rt/4gvqv631095f64jvm7jfj_000000gn/T//ccUKT69D.s:466    .text.MAX31865_ReadADC:0000000000000056 .LVL48
/var/folders/rt/4gvqv631095f64jvm7jfj_000000gn/T//ccUKT69D.s:472    .text.MAX31865_ReadADC:0000000000000062 .LVL50
/var/folders/rt/4gvqv631095f64jvm7jfj_000000gn/T//ccUKT69D.s:477    .text.MAX31865_ReadADC:0000000000000070 .LVL51
/var/folders/rt/4gvqv631095f64jvm7jfj_000000gn/T//ccUKT69D.s:4977   .debug_str:0000000000000137 .LASF193
/var/folders/rt/4gvqv631095f64jvm7jfj_000000gn/T//ccUKT69D.s:260    .text.MAX31865_Init:0000000000000000 .LFB7
/var/folders/rt/4gvqv631095f64jvm7jfj_000000gn/T//ccUKT69D.s:406    .text.MAX31865_Init:0000000000000116 .LFE7
/var/folders/rt/4gvqv631095f64jvm7jfj_000000gn/T//ccUKT69D.s:4778   .debug_loc:00000000000001f9 .LLST4
/var/folders/rt/4gvqv631095f64jvm7jfj_000000gn/T//ccUKT69D.s:5285   .debug_str:00000000000007a6 .LASF189
/var/folders/rt/4gvqv631095f64jvm7jfj_000000gn/T//ccUKT69D.s:280    .text.MAX31865_Init:0000000000000014 .LVL30
/var/folders/rt/4gvqv631095f64jvm7jfj_000000gn/T//ccUKT69D.s:284    .text.MAX31865_Init:0000000000000020 .LVL31
/var/folders/rt/4gvqv631095f64jvm7jfj_000000gn/T//ccUKT69D.s:288    .text.MAX31865_Init:000000000000002c .LVL32
/var/folders/rt/4gvqv631095f64jvm7jfj_000000gn/T//ccUKT69D.s:296    .text.MAX31865_Init:0000000000000042 .LVL33
/var/folders/rt/4gvqv631095f64jvm7jfj_000000gn/T//ccUKT69D.s:303    .text.MAX31865_Init:0000000000000054 .LVL34
/var/folders/rt/4gvqv631095f64jvm7jfj_000000gn/T//ccUKT69D.s:310    .text.MAX31865_Init:0000000000000066 .LVL35
/var/folders/rt/4gvqv631095f64jvm7jfj_000000gn/T//ccUKT69D.s:315    .text.MAX31865_Init:0000000000000074 .LVL36
/var/folders/rt/4gvqv631095f64jvm7jfj_000000gn/T//ccUKT69D.s:319    .text.MAX31865_Init:000000000000007e .LVL37
/var/folders/rt/4gvqv631095f64jvm7jfj_000000gn/T//ccUKT69D.s:355    .text.MAX31865_Init:00000000000000ac .LVL38
/var/folders/rt/4gvqv631095f64jvm7jfj_000000gn/T//ccUKT69D.s:359    .text.MAX31865_Init:00000000000000b8 .LVL39
/var/folders/rt/4gvqv631095f64jvm7jfj_000000gn/T//ccUKT69D.s:372    .text.MAX31865_Init:00000000000000d6 .LVL40
/var/folders/rt/4gvqv631095f64jvm7jfj_000000gn/T//ccUKT69D.s:376    .text.MAX31865_Init:00000000000000e2 .LVL41
/var/folders/rt/4gvqv631095f64jvm7jfj_000000gn/T//ccUKT69D.s:380    .text.MAX31865_Init:00000000000000ee .LVL42
/var/folders/rt/4gvqv631095f64jvm7jfj_000000gn/T//ccUKT69D.s:385    .text.MAX31865_Init:00000000000000fc .LVL43
/var/folders/rt/4gvqv631095f64jvm7jfj_000000gn/T//ccUKT69D.s:4937   .debug_str:0000000000000038 .LASF190
/var/folders/rt/4gvqv631095f64jvm7jfj_000000gn/T//ccUKT69D.s:171    .text.MAX31865_ExchangeByte:0000000000000000 .LFB6
/var/folders/rt/4gvqv631095f64jvm7jfj_000000gn/T//ccUKT69D.s:253    .text.MAX31865_ExchangeByte:0000000000000072 .LFE6
/var/folders/rt/4gvqv631095f64jvm7jfj_000000gn/T//ccUKT69D.s:4796   .debug_loc:0000000000000225 .LLST2
/var/folders/rt/4gvqv631095f64jvm7jfj_000000gn/T//ccUKT69D.s:4971   .debug_str:000000000000011d .LASF192
/var/folders/rt/4gvqv631095f64jvm7jfj_000000gn/T//ccUKT69D.s:4814   .debug_loc:0000000000000251 .LLST3
/var/folders/rt/4gvqv631095f64jvm7jfj_000000gn/T//ccUKT69D.s:202    .text.MAX31865_ExchangeByte:0000000000000024 .LVL25
GAS LISTING /var/folders/rt/4gvqv631095f64jvm7jfj_000000gn/T//ccUKT69D.s 			page 31


/var/folders/rt/4gvqv631095f64jvm7jfj_000000gn/T//ccUKT69D.s:210    .text.MAX31865_ExchangeByte:0000000000000030 .LVL26
/var/folders/rt/4gvqv631095f64jvm7jfj_000000gn/T//ccUKT69D.s:220    .text.MAX31865_ExchangeByte:0000000000000044 .LVL27
/var/folders/rt/4gvqv631095f64jvm7jfj_000000gn/T//ccUKT69D.s:230    .text.MAX31865_ExchangeByte:0000000000000054 .LVL28
/var/folders/rt/4gvqv631095f64jvm7jfj_000000gn/T//ccUKT69D.s:237    .text.MAX31865_ExchangeByte:0000000000000062 .LVL29
/var/folders/rt/4gvqv631095f64jvm7jfj_000000gn/T//ccUKT69D.s:5329   .debug_str:0000000000000978 .LASF194
/var/folders/rt/4gvqv631095f64jvm7jfj_000000gn/T//ccUKT69D.s:14     .text.ADC3powerUpInit:0000000000000000 .LFB5
/var/folders/rt/4gvqv631095f64jvm7jfj_000000gn/T//ccUKT69D.s:164    .text.ADC3powerUpInit:0000000000000140 .LFE5
/var/folders/rt/4gvqv631095f64jvm7jfj_000000gn/T//ccUKT69D.s:4828   .debug_loc:0000000000000272 .LLST0
/var/folders/rt/4gvqv631095f64jvm7jfj_000000gn/T//ccUKT69D.s:4846   .debug_loc:000000000000029e .LLST1
/var/folders/rt/4gvqv631095f64jvm7jfj_000000gn/T//ccUKT69D.s:37     .text.ADC3powerUpInit:0000000000000016 .LVL2
/var/folders/rt/4gvqv631095f64jvm7jfj_000000gn/T//ccUKT69D.s:41     .text.ADC3powerUpInit:0000000000000022 .LVL3
/var/folders/rt/4gvqv631095f64jvm7jfj_000000gn/T//ccUKT69D.s:45     .text.ADC3powerUpInit:000000000000002c .LVL4
/var/folders/rt/4gvqv631095f64jvm7jfj_000000gn/T//ccUKT69D.s:53     .text.ADC3powerUpInit:0000000000000042 .LVL5
/var/folders/rt/4gvqv631095f64jvm7jfj_000000gn/T//ccUKT69D.s:58     .text.ADC3powerUpInit:0000000000000052 .LVL6
/var/folders/rt/4gvqv631095f64jvm7jfj_000000gn/T//ccUKT69D.s:62     .text.ADC3powerUpInit:000000000000005c .LVL7
/var/folders/rt/4gvqv631095f64jvm7jfj_000000gn/T//ccUKT69D.s:68     .text.ADC3powerUpInit:000000000000006c .LVL8
/var/folders/rt/4gvqv631095f64jvm7jfj_000000gn/T//ccUKT69D.s:74     .text.ADC3powerUpInit:000000000000007e .LVL9
/var/folders/rt/4gvqv631095f64jvm7jfj_000000gn/T//ccUKT69D.s:79     .text.ADC3powerUpInit:000000000000008c .LVL10
/var/folders/rt/4gvqv631095f64jvm7jfj_000000gn/T//ccUKT69D.s:85     .text.ADC3powerUpInit:000000000000009c .LVL11
/var/folders/rt/4gvqv631095f64jvm7jfj_000000gn/T//ccUKT69D.s:92     .text.ADC3powerUpInit:00000000000000ae .LVL12
/var/folders/rt/4gvqv631095f64jvm7jfj_000000gn/T//ccUKT69D.s:98     .text.ADC3powerUpInit:00000000000000c0 .LVL13
/var/folders/rt/4gvqv631095f64jvm7jfj_000000gn/T//ccUKT69D.s:104    .text.ADC3powerUpInit:00000000000000d0 .LVL14
/var/folders/rt/4gvqv631095f64jvm7jfj_000000gn/T//ccUKT69D.s:113    .text.ADC3powerUpInit:00000000000000e4 .LVL15
/var/folders/rt/4gvqv631095f64jvm7jfj_000000gn/T//ccUKT69D.s:119    .text.ADC3powerUpInit:00000000000000f4 .LVL16
/var/folders/rt/4gvqv631095f64jvm7jfj_000000gn/T//ccUKT69D.s:122    .text.ADC3powerUpInit:00000000000000fc .LVL17
/var/folders/rt/4gvqv631095f64jvm7jfj_000000gn/T//ccUKT69D.s:129    .text.ADC3powerUpInit:000000000000010e .LVL18
/var/folders/rt/4gvqv631095f64jvm7jfj_000000gn/T//ccUKT69D.s:135    .text.ADC3powerUpInit:000000000000011e .LVL19
/var/folders/rt/4gvqv631095f64jvm7jfj_000000gn/T//ccUKT69D.s:141    .text.ADC3powerUpInit:000000000000012a .LVL20
/var/folders/rt/4gvqv631095f64jvm7jfj_000000gn/T//ccUKT69D.s:162    .text.ADC3powerUpInit:0000000000000140 .LVL22
/var/folders/rt/4gvqv631095f64jvm7jfj_000000gn/T//ccUKT69D.s:5061   .debug_str:00000000000002df .LASF195
/var/folders/rt/4gvqv631095f64jvm7jfj_000000gn/T//ccUKT69D.s:5125   .debug_str:0000000000000435 .LASF196
/var/folders/rt/4gvqv631095f64jvm7jfj_000000gn/T//ccUKT69D.s:5023   .debug_str:0000000000000227 .LASF197
/var/folders/rt/4gvqv631095f64jvm7jfj_000000gn/T//ccUKT69D.s:5093   .debug_str:0000000000000382 .LASF198
/var/folders/rt/4gvqv631095f64jvm7jfj_000000gn/T//ccUKT69D.s:5049   .debug_str:0000000000000299 .LASF199
/var/folders/rt/4gvqv631095f64jvm7jfj_000000gn/T//ccUKT69D.s:5175   .debug_str:000000000000055e .LASF200
/var/folders/rt/4gvqv631095f64jvm7jfj_000000gn/T//ccUKT69D.s:5223   .debug_str:0000000000000668 .LASF201
/var/folders/rt/4gvqv631095f64jvm7jfj_000000gn/T//ccUKT69D.s:4939   .debug_str:000000000000004e .LASF202
/var/folders/rt/4gvqv631095f64jvm7jfj_000000gn/T//ccUKT69D.s:5151   .debug_str:00000000000004d6 .LASF203
/var/folders/rt/4gvqv631095f64jvm7jfj_000000gn/T//ccUKT69D.s:5377   .debug_str:0000000000000a79 .LASF204
/var/folders/rt/4gvqv631095f64jvm7jfj_000000gn/T//ccUKT69D.s:5195   .debug_str:00000000000005dd .LASF205
/var/folders/rt/4gvqv631095f64jvm7jfj_000000gn/T//ccUKT69D.s:4951   .debug_str:0000000000000094 .LASF206
/var/folders/rt/4gvqv631095f64jvm7jfj_000000gn/T//ccUKT69D.s:5365   .debug_str:0000000000000a3f .LASF207
/var/folders/rt/4gvqv631095f64jvm7jfj_000000gn/T//ccUKT69D.s:5351   .debug_str:00000000000009f4 .LASF208
/var/folders/rt/4gvqv631095f64jvm7jfj_000000gn/T//ccUKT69D.s:4945   .debug_str:000000000000006d .LASF209
/var/folders/rt/4gvqv631095f64jvm7jfj_000000gn/T//ccUKT69D.s:4957   .debug_str:00000000000000b3 .LASF210
/var/folders/rt/4gvqv631095f64jvm7jfj_000000gn/T//ccUKT69D.s:5241   .debug_str:00000000000006d4 .LASF211
/var/folders/rt/4gvqv631095f64jvm7jfj_000000gn/T//ccUKT69D.s:5121   .debug_str:000000000000041f .LASF212
/var/folders/rt/4gvqv631095f64jvm7jfj_000000gn/T//ccUKT69D.s:5209   .debug_str:000000000000062b .LASF213
/var/folders/rt/4gvqv631095f64jvm7jfj_000000gn/T//ccUKT69D.s:5251   .debug_str:0000000000000706 .LASF214
/var/folders/rt/4gvqv631095f64jvm7jfj_000000gn/T//ccUKT69D.s:5307   .debug_str:00000000000008e4 .LASF215
/var/folders/rt/4gvqv631095f64jvm7jfj_000000gn/T//ccUKT69D.s:5193   .debug_str:00000000000005c3 .LASF216
/var/folders/rt/4gvqv631095f64jvm7jfj_000000gn/T//ccUKT69D.s:5293   .debug_str:00000000000007d0 .LASF217
/var/folders/rt/4gvqv631095f64jvm7jfj_000000gn/T//ccUKT69D.s:5349   .debug_str:00000000000009d8 .LASF218
/var/folders/rt/4gvqv631095f64jvm7jfj_000000gn/T//ccUKT69D.s:5309   .debug_str:00000000000008fe .LASF219
/var/folders/rt/4gvqv631095f64jvm7jfj_000000gn/T//ccUKT69D.s:5109   .debug_str:00000000000003d6 .LASF220
/var/folders/rt/4gvqv631095f64jvm7jfj_000000gn/T//ccUKT69D.s:5171   .debug_str:0000000000000549 .LASF221
/var/folders/rt/4gvqv631095f64jvm7jfj_000000gn/T//ccUKT69D.s:5129   .debug_str:0000000000000457 .LASF222
GAS LISTING /var/folders/rt/4gvqv631095f64jvm7jfj_000000gn/T//ccUKT69D.s 			page 32


/var/folders/rt/4gvqv631095f64jvm7jfj_000000gn/T//ccUKT69D.s:721    .text.ADC_read:0000000000000002 .LCFI10
/var/folders/rt/4gvqv631095f64jvm7jfj_000000gn/T//ccUKT69D.s:777    .text.ADC_read:0000000000000058 .LCFI11
/var/folders/rt/4gvqv631095f64jvm7jfj_000000gn/T//ccUKT69D.s:783    .text.ADC_read:0000000000000060 .LCFI12
/var/folders/rt/4gvqv631095f64jvm7jfj_000000gn/T//ccUKT69D.s:717    .text.ADC_read:0000000000000000 .LVL76
/var/folders/rt/4gvqv631095f64jvm7jfj_000000gn/T//ccUKT69D.s:738    .text.ADC_read:0000000000000016 .LVL77
/var/folders/rt/4gvqv631095f64jvm7jfj_000000gn/T//ccUKT69D.s:542    .text.read_temp:0000000000000002 .LCFI8
/var/folders/rt/4gvqv631095f64jvm7jfj_000000gn/T//ccUKT69D.s:703    .text.read_temp:00000000000000e4 .LCFI9
/var/folders/rt/4gvqv631095f64jvm7jfj_000000gn/T//ccUKT69D.s:536    .text.read_temp:0000000000000000 .LVL55
/var/folders/rt/4gvqv631095f64jvm7jfj_000000gn/T//ccUKT69D.s:601    .text.read_temp:0000000000000044 .LVL56
/var/folders/rt/4gvqv631095f64jvm7jfj_000000gn/T//ccUKT69D.s:666    .text.read_temp:00000000000000b8 .LVL71
/var/folders/rt/4gvqv631095f64jvm7jfj_000000gn/T//ccUKT69D.s:668    .text.read_temp:00000000000000ba .LVL72
/var/folders/rt/4gvqv631095f64jvm7jfj_000000gn/T//ccUKT69D.s:687    .text.read_temp:00000000000000d4 .LVL75
/var/folders/rt/4gvqv631095f64jvm7jfj_000000gn/T//ccUKT69D.s:684    .text.read_temp:00000000000000d2 .LVL74
/var/folders/rt/4gvqv631095f64jvm7jfj_000000gn/T//ccUKT69D.s:613    .text.read_temp:0000000000000054 .LVL58
/var/folders/rt/4gvqv631095f64jvm7jfj_000000gn/T//ccUKT69D.s:643    .text.read_temp:000000000000009e .LVL66
/var/folders/rt/4gvqv631095f64jvm7jfj_000000gn/T//ccUKT69D.s:650    .text.read_temp:00000000000000a0 .LVL67
/var/folders/rt/4gvqv631095f64jvm7jfj_000000gn/T//ccUKT69D.s:656    .text.read_temp:00000000000000a4 .LVL68
/var/folders/rt/4gvqv631095f64jvm7jfj_000000gn/T//ccUKT69D.s:420    .text.MAX31865_ReadADC:0000000000000002 .LCFI6
/var/folders/rt/4gvqv631095f64jvm7jfj_000000gn/T//ccUKT69D.s:513    .text.MAX31865_ReadADC:000000000000009a .LCFI7
/var/folders/rt/4gvqv631095f64jvm7jfj_000000gn/T//ccUKT69D.s:461    .text.MAX31865_ReadADC:000000000000004a .LVL47
/var/folders/rt/4gvqv631095f64jvm7jfj_000000gn/T//ccUKT69D.s:489    .text.MAX31865_ReadADC:0000000000000080 .LVL52
/var/folders/rt/4gvqv631095f64jvm7jfj_000000gn/T//ccUKT69D.s:468    .text.MAX31865_ReadADC:0000000000000058 .LVL49
/var/folders/rt/4gvqv631095f64jvm7jfj_000000gn/T//ccUKT69D.s:510    .text.MAX31865_ReadADC:0000000000000096 .LVL54
/var/folders/rt/4gvqv631095f64jvm7jfj_000000gn/T//ccUKT69D.s:267    .text.MAX31865_Init:0000000000000002 .LCFI4
/var/folders/rt/4gvqv631095f64jvm7jfj_000000gn/T//ccUKT69D.s:402    .text.MAX31865_Init:0000000000000114 .LCFI5
/var/folders/rt/4gvqv631095f64jvm7jfj_000000gn/T//ccUKT69D.s:178    .text.MAX31865_ExchangeByte:0000000000000002 .LCFI2
/var/folders/rt/4gvqv631095f64jvm7jfj_000000gn/T//ccUKT69D.s:249    .text.MAX31865_ExchangeByte:0000000000000070 .LCFI3
/var/folders/rt/4gvqv631095f64jvm7jfj_000000gn/T//ccUKT69D.s:174    .text.MAX31865_ExchangeByte:0000000000000000 .LVL23
/var/folders/rt/4gvqv631095f64jvm7jfj_000000gn/T//ccUKT69D.s:185    .text.MAX31865_ExchangeByte:000000000000000a .LVL24
/var/folders/rt/4gvqv631095f64jvm7jfj_000000gn/T//ccUKT69D.s:22     .text.ADC3powerUpInit:0000000000000002 .LCFI0
/var/folders/rt/4gvqv631095f64jvm7jfj_000000gn/T//ccUKT69D.s:158    .text.ADC3powerUpInit:0000000000000138 .LCFI1
/var/folders/rt/4gvqv631095f64jvm7jfj_000000gn/T//ccUKT69D.s:18     .text.ADC3powerUpInit:0000000000000000 .LVL0
/var/folders/rt/4gvqv631095f64jvm7jfj_000000gn/T//ccUKT69D.s:29     .text.ADC3powerUpInit:000000000000000a .LVL1
/var/folders/rt/4gvqv631095f64jvm7jfj_000000gn/T//ccUKT69D.s:153    .text.ADC3powerUpInit:0000000000000134 .LVL21
/var/folders/rt/4gvqv631095f64jvm7jfj_000000gn/T//ccUKT69D.s:829    .debug_info:0000000000000000 .Ldebug_info0
/var/folders/rt/4gvqv631095f64jvm7jfj_000000gn/T//ccUKT69D.s:544    .text.read_temp:0000000000000002 .LBB2
/var/folders/rt/4gvqv631095f64jvm7jfj_000000gn/T//ccUKT69D.s:547    .text.read_temp:0000000000000006 .LBE2
/var/folders/rt/4gvqv631095f64jvm7jfj_000000gn/T//ccUKT69D.s:551    .text.read_temp:0000000000000008 .LBB5
/var/folders/rt/4gvqv631095f64jvm7jfj_000000gn/T//ccUKT69D.s:556    .text.read_temp:0000000000000010 .LBE5
/var/folders/rt/4gvqv631095f64jvm7jfj_000000gn/T//ccUKT69D.s:560    .text.read_temp:0000000000000012 .LBB6
/var/folders/rt/4gvqv631095f64jvm7jfj_000000gn/T//ccUKT69D.s:565    .text.read_temp:000000000000001a .LBE6
/var/folders/rt/4gvqv631095f64jvm7jfj_000000gn/T//ccUKT69D.s:571    .text.read_temp:000000000000001e .LBB7
/var/folders/rt/4gvqv631095f64jvm7jfj_000000gn/T//ccUKT69D.s:577    .text.read_temp:000000000000002a .LBE7
/var/folders/rt/4gvqv631095f64jvm7jfj_000000gn/T//ccUKT69D.s:583    .text.read_temp:000000000000002e .LBB8
/var/folders/rt/4gvqv631095f64jvm7jfj_000000gn/T//ccUKT69D.s:587    .text.read_temp:0000000000000036 .LBE8
/var/folders/rt/4gvqv631095f64jvm7jfj_000000gn/T//ccUKT69D.s:603    .text.read_temp:0000000000000044 .LBB9
/var/folders/rt/4gvqv631095f64jvm7jfj_000000gn/T//ccUKT69D.s:669    .text.read_temp:00000000000000ba .LBE9
/var/folders/rt/4gvqv631095f64jvm7jfj_000000gn/T//ccUKT69D.s:645    .text.read_temp:000000000000009e .LBB3
/var/folders/rt/4gvqv631095f64jvm7jfj_000000gn/T//ccUKT69D.s:647    .text.read_temp:000000000000009e .LBE3
/var/folders/rt/4gvqv631095f64jvm7jfj_000000gn/T//ccUKT69D.s:652    .text.read_temp:00000000000000a0 .LBB4
/var/folders/rt/4gvqv631095f64jvm7jfj_000000gn/T//ccUKT69D.s:664    .text.read_temp:00000000000000b8 .LBE4

UNDEFINED SYMBOLS
rcu_periph_clock_enable
rcu_adc_clock_config
gpio_init
adc_deinit
GAS LISTING /var/folders/rt/4gvqv631095f64jvm7jfj_000000gn/T//ccUKT69D.s 			page 33


adc_mode_config
adc_special_function_config
adc_data_alignment_config
adc_channel_length_config
adc_regular_channel_config
adc_external_trigger_source_config
adc_external_trigger_config
adc_tempsensor_vrefint_enable
adc_inserted_channel_config
adc_enable
adc_calibration_enable
adc_software_trigger_enable
spi_i2s_data_receive
spi_i2s_flag_get
spi_i2s_data_transmit
gpio_bit_set
spi_struct_para_init
spi_init
spi_enable
gpio_bit_reset
lcd_delay_1ms
__floatunsisf
__mulsf3
__extendsfdf2
__subdf3
__divdf3
__truncdfsf2
__addsf3
__divsf3
LCD_WR_Queue
adc_flag_get
adc_regular_data_read
