GAS LISTING /var/folders/rt/4gvqv631095f64jvm7jfj_000000gn/T//ccOTUoWQ.s 			page 1


   1              		.file	"adc.c"
   2              		.option nopic
   3              		.attribute arch, "rv32i2p0_m2p0_a2p0_c2p0"
   4              		.attribute unaligned_access, 0
   5              		.attribute stack_align, 16
   6              		.text
   7              	.Ltext0:
   8              		.cfi_sections	.debug_frame
   9              		.section	.text.ADC3powerUpInit,"ax",@progbits
  10              		.align	1
  11              		.globl	ADC3powerUpInit
  13              	ADC3powerUpInit:
  14              	.LFB5:
  15              		.file 1 "adc.c"
   1:adc.c         **** #include "adc.h"
   2:adc.c         **** #include "gd32vf103.h"
   3:adc.c         **** #include "lcd.h"
   4:adc.c         **** #include <stdio.h>
   5:adc.c         **** #include "drivers.h"
   6:adc.c         **** #include "gd32vf103.h"
   7:adc.c         **** 
   8:adc.c         **** #define FCLK_SLOW() { SPI_CTL0(SPI1) = (SPI_CTL0(SPI1) & ~0x38) | 0x20; }	// Set SCLK = PCLK2 / 64 
   9:adc.c         **** #define FCLK_FAST() { SPI_CTL0(SPI1) = (SPI_CTL0(SPI1) & ~0x38) | 0x08; }
  10:adc.c         **** 
  11:adc.c         **** #define MAX_CS_Clr() gpio_bit_reset(GPIOA, GPIO_PIN_4)
  12:adc.c         **** #define MAX_CS_Set() gpio_bit_set(GPIOA, GPIO_PIN_4)
  13:adc.c         **** 
  14:adc.c         **** 
  15:adc.c         **** void ADC3powerUpInit(int tmp) {
  16              		.loc 1 15 31
  17              		.cfi_startproc
  18              	.LVL0:
  16:adc.c         ****     rcu_periph_clock_enable(RCU_GPIOA);
  19              		.loc 1 16 5
  15:adc.c         ****     rcu_periph_clock_enable(RCU_GPIOA);
  20              		.loc 1 15 31 is_stmt 0
  21 0000 4111     		addi	sp,sp,-16
  22              	.LCFI0:
  23              		.cfi_def_cfa_offset 16
  24 0002 26C2     		sw	s1,4(sp)
  25              		.cfi_offset 9, -12
  26 0004 AA84     		mv	s1,a0
  27              		.loc 1 16 5
  28 0006 13052060 		li	a0,1538
  29              	.LVL1:
  15:adc.c         ****     rcu_periph_clock_enable(RCU_GPIOA);
  30              		.loc 1 15 31
  31 000a 06C6     		sw	ra,12(sp)
  32 000c 22C4     		sw	s0,8(sp)
  33              		.cfi_offset 1, -4
  34              		.cfi_offset 8, -8
  35              		.loc 1 16 5
  36 000e 97000000 		call	rcu_periph_clock_enable
  36      E7800000 
  37              	.LVL2:
  17:adc.c         ****     rcu_periph_clock_enable(RCU_ADC0);
  38              		.loc 1 17 5 is_stmt 1
GAS LISTING /var/folders/rt/4gvqv631095f64jvm7jfj_000000gn/T//ccOTUoWQ.s 			page 2


  39 0016 13059060 		li	a0,1545
  40 001a 97000000 		call	rcu_periph_clock_enable
  40      E7800000 
  41              	.LVL3:
  18:adc.c         ****     rcu_adc_clock_config(RCU_CKADC_CKAPB2_DIV8);
  42              		.loc 1 18 5
  43 0022 0D45     		li	a0,3
  44 0024 97000000 		call	rcu_adc_clock_config
  44      E7800000 
  45              	.LVL4:
  19:adc.c         **** 
  20:adc.c         ****     gpio_init(GPIOA, GPIO_MODE_AIN, 0x00, GPIO_PIN_3 | GPIO_PIN_1);
  46              		.loc 1 20 5
  47 002c 37150140 		li	a0,1073811456
  48 0030 A946     		li	a3,10
  49 0032 0146     		li	a2,0
  50 0034 8145     		li	a1,0
  51 0036 13050580 		addi	a0,a0,-2048
  52 003a 97000000 		call	gpio_init
  52      E7800000 
  53              	.LVL5:
  21:adc.c         ****     
  22:adc.c         ****     adc_deinit(ADC0);                                                   // Reset...
  54              		.loc 1 22 5
  55 0042 37240140 		li	s0,1073815552
  56 0046 13050440 		addi	a0,s0,1024
  57 004a 97000000 		call	adc_deinit
  57      E7800000 
  58              	.LVL6:
  23:adc.c         ****     adc_mode_config(ADC_MODE_FREE);                                     // ADC0 & ADC1 runs indep.
  59              		.loc 1 23 5
  60 0052 0145     		li	a0,0
  61 0054 97000000 		call	adc_mode_config
  61      E7800000 
  62              	.LVL7:
  24:adc.c         ****     adc_special_function_config(ADC0, ADC_CONTINUOUS_MODE, DISABLE);    // Trigger each sample
  63              		.loc 1 24 5
  64 005c 0146     		li	a2,0
  65 005e 8945     		li	a1,2
  66 0060 13050440 		addi	a0,s0,1024
  67 0064 97000000 		call	adc_special_function_config
  67      E7800000 
  68              	.LVL8:
  25:adc.c         ****     adc_special_function_config(ADC0, ADC_SCAN_MODE, DISABLE);          // Scan mode disable
  69              		.loc 1 25 5
  70 006c 0146     		li	a2,0
  71 006e 93050010 		li	a1,256
  72 0072 13050440 		addi	a0,s0,1024
  73 0076 97000000 		call	adc_special_function_config
  73      E7800000 
  74              	.LVL9:
  26:adc.c         ****     adc_data_alignment_config(ADC0, ADC_DATAALIGN_RIGHT);               // Align ADC value right
  75              		.loc 1 26 5
  76 007e 8145     		li	a1,0
  77 0080 13050440 		addi	a0,s0,1024
  78 0084 97000000 		call	adc_data_alignment_config
  78      E7800000 
GAS LISTING /var/folders/rt/4gvqv631095f64jvm7jfj_000000gn/T//ccOTUoWQ.s 			page 3


  79              	.LVL10:
  27:adc.c         ****     adc_channel_length_config(ADC0, ADC_REGULAR_CHANNEL, 1);            // Convert one channel
  80              		.loc 1 27 5
  81 008c 0546     		li	a2,1
  82 008e 8545     		li	a1,1
  83 0090 13050440 		addi	a0,s0,1024
  84 0094 97000000 		call	adc_channel_length_config
  84      E7800000 
  85              	.LVL11:
  28:adc.c         **** 
  29:adc.c         ****     adc_regular_channel_config(ADC0, 0, ADC_CHANNEL_3,     //ADC_CHANNEL_3
  86              		.loc 1 29 5
  87 009c 8946     		li	a3,2
  88 009e 0D46     		li	a2,3
  89 00a0 8145     		li	a1,0
  90 00a2 13050440 		addi	a0,s0,1024
  91 00a6 97000000 		call	adc_regular_channel_config
  91      E7800000 
  92              	.LVL12:
  30:adc.c         ****                               ADC_SAMPLETIME_13POINT5);    // Conv. takes 13.5us                   
  31:adc.c         ****     adc_external_trigger_source_config(ADC0, ADC_REGULAR_CHANNEL, 
  93              		.loc 1 31 5
  94 00ae 37060E00 		li	a2,917504
  95 00b2 8545     		li	a1,1
  96 00b4 13050440 		addi	a0,s0,1024
  97 00b8 97000000 		call	adc_external_trigger_source_config
  97      E7800000 
  98              	.LVL13:
  32:adc.c         ****                                        ADC0_1_EXTTRIG_REGULAR_NONE);    // SW Trigger
  33:adc.c         ****     adc_external_trigger_config(ADC0, ADC_REGULAR_CHANNEL, ENABLE);     // Enable trigger
  99              		.loc 1 33 5
 100 00c0 0546     		li	a2,1
 101 00c2 8545     		li	a1,1
 102 00c4 13050440 		addi	a0,s0,1024
 103 00c8 97000000 		call	adc_external_trigger_config
 103      E7800000 
 104              	.LVL14:
  34:adc.c         **** 
  35:adc.c         ****     if (tmp) {                                                          // Add Ch16 Temp?
 105              		.loc 1 35 5
 106              		.loc 1 35 8 is_stmt 0
 107 00d0 9DCC     		beq	s1,zero,.L2
  36:adc.c         ****         adc_special_function_config(ADC0, ADC_INSERTED_CHANNEL_AUTO, ENABLE);
 108              		.loc 1 36 9 is_stmt 1
 109 00d2 0546     		li	a2,1
 110 00d4 93050040 		li	a1,1024
 111 00d8 13050440 		addi	a0,s0,1024
 112 00dc 97000000 		call	adc_special_function_config
 112      E7800000 
 113              	.LVL15:
  37:adc.c         ****         adc_channel_length_config(ADC0, ADC_INSERTED_CHANNEL, 1);
 114              		.loc 1 37 9
 115 00e4 0546     		li	a2,1
 116 00e6 8945     		li	a1,2
 117 00e8 13050440 		addi	a0,s0,1024
 118 00ec 97000000 		call	adc_channel_length_config
 118      E7800000 
GAS LISTING /var/folders/rt/4gvqv631095f64jvm7jfj_000000gn/T//ccOTUoWQ.s 			page 4


 119              	.LVL16:
  38:adc.c         ****         adc_tempsensor_vrefint_enable();
 120              		.loc 1 38 9
 121 00f4 97000000 		call	adc_tempsensor_vrefint_enable
 121      E7800000 
 122              	.LVL17:
  39:adc.c         ****         adc_inserted_channel_config(ADC0, 0, ADC_CHANNEL_16, ADC_SAMPLETIME_239POINT5);
 123              		.loc 1 39 9
 124 00fc 9D46     		li	a3,7
 125 00fe 4146     		li	a2,16
 126 0100 8145     		li	a1,0
 127 0102 13050440 		addi	a0,s0,1024
 128 0106 97000000 		call	adc_inserted_channel_config
 128      E7800000 
 129              	.LVL18:
 130              	.L2:
  40:adc.c         ****     }
  41:adc.c         **** 
  42:adc.c         ****     adc_enable(ADC0);                                                   // ...enable!...
 131              		.loc 1 42 5
 132 010e 37240140 		li	s0,1073815552
 133 0112 13050440 		addi	a0,s0,1024
 134 0116 97000000 		call	adc_enable
 134      E7800000 
 135              	.LVL19:
  43:adc.c         ****     //delay_1ms(1);
  44:adc.c         ****     for (int i=0; i<0xFFFF; i++);                                       // ...wait 1ms...
 136              		.loc 1 44 5
 137              		.loc 1 44 10
  45:adc.c         ****     adc_calibration_enable(ADC0);                                       // ...calibrate...
 138              		.loc 1 45 5
 139 011e 13050440 		addi	a0,s0,1024
 140 0122 97000000 		call	adc_calibration_enable
 140      E7800000 
 141              	.LVL20:
  46:adc.c         ****     //delay_1ms(1);                                                     // ...wait 1ms...
  47:adc.c         ****     for (int i=0; i<0xFFFF; i++);
 142              		.loc 1 47 5
 143              		.loc 1 47 10
  48:adc.c         ****     adc_software_trigger_enable(ADC0, ADC_REGULAR_CHANNEL);             // ...trigger 1:st conv!
 144              		.loc 1 48 5
 145 012a 13050440 		addi	a0,s0,1024
  49:adc.c         **** }
 146              		.loc 1 49 1 is_stmt 0
 147 012e 2244     		lw	s0,8(sp)
 148              		.cfi_restore 8
 149 0130 B240     		lw	ra,12(sp)
 150              		.cfi_restore 1
 151 0132 9244     		lw	s1,4(sp)
 152              		.cfi_restore 9
 153              	.LVL21:
  48:adc.c         ****     adc_software_trigger_enable(ADC0, ADC_REGULAR_CHANNEL);             // ...trigger 1:st conv!
 154              		.loc 1 48 5
 155 0134 8545     		li	a1,1
 156              		.loc 1 49 1
 157 0136 4101     		addi	sp,sp,16
 158              	.LCFI1:
GAS LISTING /var/folders/rt/4gvqv631095f64jvm7jfj_000000gn/T//ccOTUoWQ.s 			page 5


 159              		.cfi_def_cfa_offset 0
  48:adc.c         ****     adc_software_trigger_enable(ADC0, ADC_REGULAR_CHANNEL);             // ...trigger 1:st conv!
 160              		.loc 1 48 5
 161 0138 17030000 		tail	adc_software_trigger_enable
 161      67000300 
 162              	.LVL22:
 163              		.cfi_endproc
 164              	.LFE5:
 166              		.section	.text.MAX31865_ExchangeByte,"ax",@progbits
 167              		.align	1
 168              		.globl	MAX31865_ExchangeByte
 170              	MAX31865_ExchangeByte:
 171              	.LFB6:
  50:adc.c         **** 
  51:adc.c         **** // JOCKE TEMP-SENSOR ÖVER SPI
  52:adc.c         **** 
  53:adc.c         **** /*  MAX31865 är resistans-till-digital-konverteraren (RTD) som sitter kopplad till tempsensorn.
  54:adc.c         ****     MAX31865_ExchangeByte är grundläggande SPI-kommunikation.
  55:adc.c         ****     Funktionen väntar på att sändningsbufferten är tom (TBE) och att 
  56:adc.c         ****     mottagningsbufferten är full (RBNE) innan den returnerar svar.
  57:adc.c         ****     Sensorn lyssnar när GPIOA pin 4 sätts låg
  58:adc.c         **** */
  59:adc.c         **** 
  60:adc.c         **** uint8_t MAX31865_ExchangeByte(uint8_t data) {
 172              		.loc 1 60 45 is_stmt 1
 173              		.cfi_startproc
 174              	.LVL23:
  61:adc.c         ****     spi_i2s_data_receive(SPI1);
 175              		.loc 1 61 5
  60:adc.c         ****     spi_i2s_data_receive(SPI1);
 176              		.loc 1 60 45 is_stmt 0
 177 0000 4111     		addi	sp,sp,-16
 178              	.LCFI2:
 179              		.cfi_def_cfa_offset 16
 180 0002 26C2     		sw	s1,4(sp)
 181              		.cfi_offset 9, -12
 182 0004 AA84     		mv	s1,a0
 183              		.loc 1 61 5
 184 0006 37450040 		li	a0,1073758208
 185              	.LVL24:
  60:adc.c         ****     spi_i2s_data_receive(SPI1);
 186              		.loc 1 60 45
 187 000a 22C4     		sw	s0,8(sp)
 188              		.loc 1 61 5
 189 000c 13050580 		addi	a0,a0,-2048
 190              		.cfi_offset 8, -8
  62:adc.c         ****     while (spi_i2s_flag_get(SPI1, SPI_FLAG_TBE) == RESET);  
 191              		.loc 1 62 12
 192 0010 37440040 		li	s0,1073758208
  60:adc.c         ****     spi_i2s_data_receive(SPI1);
 193              		.loc 1 60 45
 194 0014 4AC0     		sw	s2,0(sp)
 195 0016 06C6     		sw	ra,12(sp)
 196              		.cfi_offset 18, -16
 197              		.cfi_offset 1, -4
 198              		.loc 1 62 12
 199 0018 13090480 		addi	s2,s0,-2048
GAS LISTING /var/folders/rt/4gvqv631095f64jvm7jfj_000000gn/T//ccOTUoWQ.s 			page 6


  61:adc.c         ****     spi_i2s_data_receive(SPI1);
 200              		.loc 1 61 5
 201 001c 97000000 		call	spi_i2s_data_receive
 201      E7800000 
 202              	.LVL25:
 203              		.loc 1 62 5 is_stmt 1
 204              	.L8:
 205              		.loc 1 62 58 discriminator 1
 206              		.loc 1 62 12 is_stmt 0 discriminator 1
 207 0024 8945     		li	a1,2
 208 0026 4A85     		mv	a0,s2
 209 0028 97000000 		call	spi_i2s_flag_get
 209      E7800000 
 210              	.LVL26:
 211              		.loc 1 62 11 discriminator 1
 212 0030 75D9     		beq	a0,zero,.L8
  63:adc.c         ****     spi_i2s_data_transmit(SPI1, data);                
 213              		.loc 1 63 5 is_stmt 1
 214 0032 A685     		mv	a1,s1
 215 0034 13050480 		addi	a0,s0,-2048
  64:adc.c         ****     while (spi_i2s_flag_get(SPI1, SPI_FLAG_RBNE) == RESET); 
 216              		.loc 1 64 12 is_stmt 0
 217 0038 37440040 		li	s0,1073758208
  63:adc.c         ****     spi_i2s_data_transmit(SPI1, data);                
 218              		.loc 1 63 5
 219 003c 97000000 		call	spi_i2s_data_transmit
 219      E7800000 
 220              	.LVL27:
 221              		.loc 1 64 5 is_stmt 1
 222              		.loc 1 64 12 is_stmt 0
 223 0044 93040480 		addi	s1,s0,-2048
 224              	.L9:
 225              		.loc 1 64 59 is_stmt 1 discriminator 1
 226              		.loc 1 64 12 is_stmt 0 discriminator 1
 227 0048 8545     		li	a1,1
 228 004a 2685     		mv	a0,s1
 229 004c 97000000 		call	spi_i2s_flag_get
 229      E7800000 
 230              	.LVL28:
 231              		.loc 1 64 11 discriminator 1
 232 0054 75D9     		beq	a0,zero,.L9
  65:adc.c         ****     return spi_i2s_data_receive(SPI1);
 233              		.loc 1 65 5 is_stmt 1
 234              		.loc 1 65 12 is_stmt 0
 235 0056 13050480 		addi	a0,s0,-2048
 236 005a 97000000 		call	spi_i2s_data_receive
 236      E7800000 
 237              	.LVL29:
  66:adc.c         ****   }
 238              		.loc 1 66 3
 239 0062 B240     		lw	ra,12(sp)
 240              		.cfi_restore 1
 241 0064 2244     		lw	s0,8(sp)
 242              		.cfi_restore 8
 243 0066 9244     		lw	s1,4(sp)
 244              		.cfi_restore 9
 245 0068 0249     		lw	s2,0(sp)
GAS LISTING /var/folders/rt/4gvqv631095f64jvm7jfj_000000gn/T//ccOTUoWQ.s 			page 7


 246              		.cfi_restore 18
 247 006a 1375F50F 		andi	a0,a0,0xff
 248 006e 4101     		addi	sp,sp,16
 249              	.LCFI3:
 250              		.cfi_def_cfa_offset 0
 251 0070 8280     		jr	ra
 252              		.cfi_endproc
 253              	.LFE6:
 255              		.section	.text.MAX31865_Init,"ax",@progbits
 256              		.align	1
 257              		.globl	MAX31865_Init
 259              	MAX31865_Init:
 260              	.LFB7:
  67:adc.c         **** 
  68:adc.c         **** void MAX31865_Init(void) {
 261              		.loc 1 68 26 is_stmt 1
 262              		.cfi_startproc
  69:adc.c         ****     spi_parameter_struct spi_init_struct;
 263              		.loc 1 69 5
  70:adc.c         ****     rcu_periph_clock_enable(RCU_GPIOA);
 264              		.loc 1 70 5
  68:adc.c         ****     spi_parameter_struct spi_init_struct;
 265              		.loc 1 68 26 is_stmt 0
 266 0000 7971     		addi	sp,sp,-48
 267              	.LCFI4:
 268              		.cfi_def_cfa_offset 48
 269              		.loc 1 70 5
 270 0002 13052060 		li	a0,1538
  68:adc.c         ****     spi_parameter_struct spi_init_struct;
 271              		.loc 1 68 26
 272 0006 06D6     		sw	ra,44(sp)
 273 0008 22D4     		sw	s0,40(sp)
 274 000a 26D2     		sw	s1,36(sp)
 275              		.cfi_offset 1, -4
 276              		.cfi_offset 8, -8
 277              		.cfi_offset 9, -12
 278              		.loc 1 70 5
 279 000c 97000000 		call	rcu_periph_clock_enable
 279      E7800000 
 280              	.LVL30:
  71:adc.c         ****     rcu_periph_clock_enable(RCU_SPI1);
 281              		.loc 1 71 5 is_stmt 1
 282 0014 1305E070 		li	a0,1806
 283 0018 97000000 		call	rcu_periph_clock_enable
 283      E7800000 
 284              	.LVL31:
  72:adc.c         ****     rcu_periph_clock_enable(RCU_GPIOB); 
 285              		.loc 1 72 5
 286 0020 13053060 		li	a0,1539
 287 0024 97000000 		call	rcu_periph_clock_enable
 287      E7800000 
 288              	.LVL32:
  73:adc.c         ****     gpio_init(GPIOA, GPIO_MODE_OUT_PP, GPIO_OSPEED_50MHZ, GPIO_PIN_4); // CS
 289              		.loc 1 73 5
 290 002c B7140140 		li	s1,1073811456
 291 0030 13850480 		addi	a0,s1,-2048
 292 0034 C146     		li	a3,16
GAS LISTING /var/folders/rt/4gvqv631095f64jvm7jfj_000000gn/T//ccOTUoWQ.s 			page 8


 293 0036 0D46     		li	a2,3
 294 0038 C145     		li	a1,16
 295 003a 97000000 		call	gpio_init
 295      E7800000 
 296              	.LVL33:
  74:adc.c         ****     gpio_init(GPIOB, GPIO_MODE_AF_PP, GPIO_OSPEED_50MHZ, GPIO_PIN_13 | GPIO_PIN_15); // SCK (Serial
 297              		.loc 1 74 5
 298 0042 138504C0 		addi	a0,s1,-1024
 299 0046 A966     		li	a3,40960
 300 0048 0D46     		li	a2,3
 301 004a E145     		li	a1,24
 302 004c 97000000 		call	gpio_init
 302      E7800000 
 303              	.LVL34:
  75:adc.c         ****     gpio_init(GPIOB, GPIO_MODE_IN_FLOATING, GPIO_OSPEED_50MHZ, GPIO_PIN_14); // MISO (Master In, Sl
 304              		.loc 1 75 5
 305 0054 9166     		li	a3,16384
 306 0056 0D46     		li	a2,3
 307 0058 138504C0 		addi	a0,s1,-1024
 308 005c 9145     		li	a1,4
 309 005e 97000000 		call	gpio_init
 309      E7800000 
 310              	.LVL35:
  76:adc.c         ****     
  77:adc.c         ****     MAX_CS_Set(); // Sätter CS hög så sensorn är inaktiv under uppstart
 311              		.loc 1 77 5
 312 0066 C145     		li	a1,16
 313 0068 13850480 		addi	a0,s1,-2048
 314 006c 97000000 		call	gpio_bit_set
 314      E7800000 
 315              	.LVL36:
  78:adc.c         **** 
  79:adc.c         ****    //  SPI-parametrar: Master, 8-bit, Mode 3 (CPOL=1, CPHA=1), Hastighet: dividerat med 32
  80:adc.c         ****    spi_struct_para_init(&spi_init_struct);
 316              		.loc 1 80 4
 317 0074 4800     		addi	a0,sp,4
 318 0076 97000000 		call	spi_struct_para_init
 318      E7800000 
 319              	.LVL37:
  81:adc.c         ****     spi_init_struct.trans_mode           = SPI_TRANSMODE_FULLDUPLEX;
 320              		.loc 1 81 5
  82:adc.c         ****     spi_init_struct.device_mode          = SPI_MASTER;
 321              		.loc 1 82 42 is_stmt 0
 322 007e 93074010 		li	a5,260
 323 0082 3EC2     		sw	a5,4(sp)
  83:adc.c         ****     spi_init_struct.frame_size           = SPI_FRAMESIZE_8BIT;
  84:adc.c         ****     spi_init_struct.clock_polarity_phase = SPI_CK_PL_HIGH_PH_2EDGE; // Mode 3 
 324              		.loc 1 84 42
 325 0084 8D47     		li	a5,3
  85:adc.c         ****     spi_init_struct.nss                  = SPI_NSS_SOFT;
  86:adc.c         ****     spi_init_struct.prescale             = SPI_PSC_32; 
  87:adc.c         ****     spi_init_struct.endian               = SPI_ENDIAN_MSB; 
  88:adc.c         ****     spi_init(SPI1, &spi_init_struct);
 326              		.loc 1 88 5
 327 0086 37440040 		li	s0,1073758208
  84:adc.c         ****     spi_init_struct.nss                  = SPI_NSS_SOFT;
 328              		.loc 1 84 42
GAS LISTING /var/folders/rt/4gvqv631095f64jvm7jfj_000000gn/T//ccOTUoWQ.s 			page 9


 329 008a 3ECC     		sw	a5,24(sp)
  85:adc.c         ****     spi_init_struct.nss                  = SPI_NSS_SOFT;
 330              		.loc 1 85 42
 331 008c 93070020 		li	a5,512
 332              		.loc 1 88 5
 333 0090 4C00     		addi	a1,sp,4
  85:adc.c         ****     spi_init_struct.nss                  = SPI_NSS_SOFT;
 334              		.loc 1 85 42
 335 0092 3EC8     		sw	a5,16(sp)
 336              		.loc 1 88 5
 337 0094 13050480 		addi	a0,s0,-2048
  86:adc.c         ****     spi_init_struct.endian               = SPI_ENDIAN_MSB; 
 338              		.loc 1 86 42
 339 0098 93070002 		li	a5,32
 340 009c 3ECE     		sw	a5,28(sp)
  81:adc.c         ****     spi_init_struct.device_mode          = SPI_MASTER;
 341              		.loc 1 81 42
 342 009e 02C4     		sw	zero,8(sp)
  82:adc.c         ****     spi_init_struct.frame_size           = SPI_FRAMESIZE_8BIT;
 343              		.loc 1 82 5 is_stmt 1
  83:adc.c         ****     spi_init_struct.clock_polarity_phase = SPI_CK_PL_HIGH_PH_2EDGE; // Mode 3 
 344              		.loc 1 83 5
  83:adc.c         ****     spi_init_struct.clock_polarity_phase = SPI_CK_PL_HIGH_PH_2EDGE; // Mode 3 
 345              		.loc 1 83 42 is_stmt 0
 346 00a0 02C6     		sw	zero,12(sp)
  84:adc.c         ****     spi_init_struct.nss                  = SPI_NSS_SOFT;
 347              		.loc 1 84 5 is_stmt 1
  85:adc.c         ****     spi_init_struct.prescale             = SPI_PSC_32; 
 348              		.loc 1 85 5
  86:adc.c         ****     spi_init_struct.endian               = SPI_ENDIAN_MSB; 
 349              		.loc 1 86 5
  87:adc.c         ****     spi_init(SPI1, &spi_init_struct);
 350              		.loc 1 87 5
  87:adc.c         ****     spi_init(SPI1, &spi_init_struct);
 351              		.loc 1 87 42 is_stmt 0
 352 00a2 02CA     		sw	zero,20(sp)
 353              		.loc 1 88 5 is_stmt 1
 354 00a4 97000000 		call	spi_init
 354      E7800000 
 355              	.LVL38:
  89:adc.c         **** 
  90:adc.c         ****     spi_enable(SPI1); // Startar SPI0-modulen
 356              		.loc 1 90 5
 357 00ac 13050480 		addi	a0,s0,-2048
 358 00b0 97000000 		call	spi_enable
 358      E7800000 
 359              	.LVL39:
  91:adc.c         ****     FCLK_SLOW();
 360              		.loc 1 91 5
 361 00b8 83270480 		lw	a5,-2048(s0)
  92:adc.c         ****     MAX_CS_Clr();
 362              		.loc 1 92 5 is_stmt 0
 363 00bc C145     		li	a1,16
 364 00be 13850480 		addi	a0,s1,-2048
  91:adc.c         ****     FCLK_SLOW();
 365              		.loc 1 91 5
 366 00c2 93F777FC 		andi	a5,a5,-57
GAS LISTING /var/folders/rt/4gvqv631095f64jvm7jfj_000000gn/T//ccOTUoWQ.s 			page 10


 367 00c6 93E70702 		ori	a5,a5,32
 368 00ca 2320F480 		sw	a5,-2048(s0)
  91:adc.c         ****     FCLK_SLOW();
 369              		.loc 1 91 16 is_stmt 1
 370              		.loc 1 92 5
 371 00ce 97000000 		call	gpio_bit_reset
 371      E7800000 
 372              	.LVL40:
  93:adc.c         ****     MAX31865_ExchangeByte(0x80); // Konfar sensorns register 0x00, skrivadress 0x80
 373              		.loc 1 93 5
 374 00d6 13050008 		li	a0,128
 375 00da 97000000 		call	MAX31865_ExchangeByte
 375      E7800000 
 376              	.LVL41:
  94:adc.c         ****     MAX31865_ExchangeByte(0xD1); // 0xD1 aktiverar VBIAS (ström till sensorn), autoomvandling, 3-t
 377              		.loc 1 94 5
 378 00e2 1305100D 		li	a0,209
 379 00e6 97000000 		call	MAX31865_ExchangeByte
 379      E7800000 
 380              	.LVL42:
  95:adc.c         ****     MAX_CS_Set();
 381              		.loc 1 95 5
 382 00ee 13850480 		addi	a0,s1,-2048
 383 00f2 C145     		li	a1,16
 384 00f4 97000000 		call	gpio_bit_set
 384      E7800000 
 385              	.LVL43:
  96:adc.c         ****     FCLK_FAST(); 
 386              		.loc 1 96 5
 387 00fc 83270480 		lw	a5,-2048(s0)
  97:adc.c         **** }
 388              		.loc 1 97 1 is_stmt 0
 389 0100 B250     		lw	ra,44(sp)
 390              		.cfi_restore 1
 391 0102 9254     		lw	s1,36(sp)
 392              		.cfi_restore 9
  96:adc.c         ****     FCLK_FAST(); 
 393              		.loc 1 96 5
 394 0104 93F777FC 		andi	a5,a5,-57
 395 0108 93E78700 		ori	a5,a5,8
 396 010c 2320F480 		sw	a5,-2048(s0)
  96:adc.c         ****     FCLK_FAST(); 
 397              		.loc 1 96 16 is_stmt 1
 398              		.loc 1 97 1 is_stmt 0
 399 0110 2254     		lw	s0,40(sp)
 400              		.cfi_restore 8
 401 0112 4561     		addi	sp,sp,48
 402              	.LCFI5:
 403              		.cfi_def_cfa_offset 0
 404 0114 8280     		jr	ra
 405              		.cfi_endproc
 406              	.LFE7:
 408              		.section	.text.MAX31865_ReadADC,"ax",@progbits
 409              		.align	1
 410              		.globl	MAX31865_ReadADC
 412              	MAX31865_ReadADC:
 413              	.LFB8:
GAS LISTING /var/folders/rt/4gvqv631095f64jvm7jfj_000000gn/T//ccOTUoWQ.s 			page 11


  98:adc.c         **** 
  99:adc.c         **** // Läser in resistansvärdet från sensorn. 
 100:adc.c         **** // Läser RTD MSB (0x01) LSB (0x02) och slår ihop dem till ett 15-bitars värde.
 101:adc.c         **** uint16_t MAX31865_ReadADC(void) {
 414              		.loc 1 101 33 is_stmt 1
 415              		.cfi_startproc
 102:adc.c         ****     uint8_t msb, lsb;
 416              		.loc 1 102 5
 103:adc.c         ****     FCLK_SLOW();
 417              		.loc 1 103 5
 101:adc.c         ****     uint8_t msb, lsb;
 418              		.loc 1 101 33 is_stmt 0
 419 0000 0111     		addi	sp,sp,-32
 420              	.LCFI6:
 421              		.cfi_def_cfa_offset 32
 422 0002 26CA     		sw	s1,20(sp)
 423              		.cfi_offset 9, -12
 424              		.loc 1 103 5
 425 0004 B7440040 		li	s1,1073758208
 426 0008 83A70480 		lw	a5,-2048(s1)
 101:adc.c         ****     uint8_t msb, lsb;
 427              		.loc 1 101 33
 428 000c 06CE     		sw	ra,28(sp)
 429 000e 22CC     		sw	s0,24(sp)
 430              		.loc 1 103 5
 431 0010 93F777FC 		andi	a5,a5,-57
 101:adc.c         ****     uint8_t msb, lsb;
 432              		.loc 1 101 33
 433 0014 4AC8     		sw	s2,16(sp)
 434 0016 4EC6     		sw	s3,12(sp)
 435              		.cfi_offset 1, -4
 436              		.cfi_offset 8, -8
 437              		.cfi_offset 18, -16
 438              		.cfi_offset 19, -20
 439              		.loc 1 103 5
 440 0018 93E70702 		ori	a5,a5,32
 104:adc.c         ****     MAX_CS_Clr();
 441              		.loc 1 104 5
 442 001c 37190140 		li	s2,1073811456
 103:adc.c         ****     FCLK_SLOW();
 443              		.loc 1 103 5
 444 0020 23A0F480 		sw	a5,-2048(s1)
 103:adc.c         ****     FCLK_SLOW();
 445              		.loc 1 103 16 is_stmt 1
 446              		.loc 1 104 5
 447 0024 C145     		li	a1,16
 448 0026 13050980 		addi	a0,s2,-2048
 449 002a 97000000 		call	gpio_bit_reset
 449      E7800000 
 450              	.LVL44:
 105:adc.c         ****     MAX31865_ExchangeByte(0x01);        // Frågar efter register 0x01
 451              		.loc 1 105 5
 452 0032 0545     		li	a0,1
 453 0034 97000000 		call	MAX31865_ExchangeByte
 453      E7800000 
 454              	.LVL45:
 106:adc.c         ****     msb = MAX31865_ExchangeByte(0xFF);  // Klockar in MSB (skickar skräp-data ut)
GAS LISTING /var/folders/rt/4gvqv631095f64jvm7jfj_000000gn/T//ccOTUoWQ.s 			page 12


 455              		.loc 1 106 5
 456              		.loc 1 106 11 is_stmt 0
 457 003c 1305F00F 		li	a0,255
 458 0040 97000000 		call	MAX31865_ExchangeByte
 458      E7800000 
 459              	.LVL46:
 460 0048 2A84     		mv	s0,a0
 461              	.LVL47:
 107:adc.c         ****     lsb = MAX31865_ExchangeByte(0xFF);  // Klockar in LSB
 462              		.loc 1 107 5 is_stmt 1
 463              		.loc 1 107 11 is_stmt 0
 464 004a 1305F00F 		li	a0,255
 465 004e 97000000 		call	MAX31865_ExchangeByte
 465      E7800000 
 466              	.LVL48:
 467 0056 AA89     		mv	s3,a0
 468              	.LVL49:
 108:adc.c         ****     lcd_delay_1ms(1);
 469              		.loc 1 108 5 is_stmt 1
 470 0058 0545     		li	a0,1
 471 005a 97000000 		call	lcd_delay_1ms
 471      E7800000 
 472              	.LVL50:
 109:adc.c         ****     MAX_CS_Set();
 473              		.loc 1 109 5
 474 0062 13050980 		addi	a0,s2,-2048
 475 0066 C145     		li	a1,16
 476 0068 97000000 		call	gpio_bit_set
 476      E7800000 
 477              	.LVL51:
 110:adc.c         ****     FCLK_FAST();
 478              		.loc 1 110 5
 479 0070 83A70480 		lw	a5,-2048(s1)
 111:adc.c         **** 
 112:adc.c         ****     // Kombinera byten och ta bort sista biten (fel-flaggan D0)
 113:adc.c         ****     uint16_t adc_code = (msb << 8) | lsb;
 480              		.loc 1 113 30 is_stmt 0
 481 0074 13158400 		slli	a0,s0,8
 482              		.loc 1 113 36
 483 0078 33653501 		or	a0,a0,s3
 114:adc.c         ****     return adc_code >> 1; 
 115:adc.c         **** }
 484              		.loc 1 115 1
 485 007c F240     		lw	ra,28(sp)
 486              		.cfi_restore 1
 487 007e 6244     		lw	s0,24(sp)
 488              		.cfi_restore 8
 489              	.LVL52:
 110:adc.c         **** 
 490              		.loc 1 110 5
 491 0080 93F777FC 		andi	a5,a5,-57
 492 0084 93E78700 		ori	a5,a5,8
 114:adc.c         ****     return adc_code >> 1; 
 493              		.loc 1 114 21
 494 0088 4205     		slli	a0,a0,16
 110:adc.c         **** 
 495              		.loc 1 110 5
GAS LISTING /var/folders/rt/4gvqv631095f64jvm7jfj_000000gn/T//ccOTUoWQ.s 			page 13


 496 008a 23A0F480 		sw	a5,-2048(s1)
 110:adc.c         **** 
 497              		.loc 1 110 16 is_stmt 1
 113:adc.c         ****     return adc_code >> 1; 
 498              		.loc 1 113 5
 499              	.LVL53:
 114:adc.c         ****     return adc_code >> 1; 
 500              		.loc 1 114 5
 114:adc.c         ****     return adc_code >> 1; 
 501              		.loc 1 114 21 is_stmt 0
 502 008e 4181     		srli	a0,a0,16
 503              		.loc 1 115 1
 504 0090 D244     		lw	s1,20(sp)
 505              		.cfi_restore 9
 506 0092 4249     		lw	s2,16(sp)
 507              		.cfi_restore 18
 508 0094 B249     		lw	s3,12(sp)
 509              		.cfi_restore 19
 510              	.LVL54:
 511 0096 0581     		srli	a0,a0,1
 512 0098 0561     		addi	sp,sp,32
 513              	.LCFI7:
 514              		.cfi_def_cfa_offset 0
 515 009a 8280     		jr	ra
 516              		.cfi_endproc
 517              	.LFE8:
 519              		.globl	__floatunsisf
 520              		.globl	__mulsf3
 521              		.globl	__extendsfdf2
 522              		.globl	__subdf3
 523              		.globl	__divdf3
 524              		.globl	__truncdfsf2
 525              		.globl	__addsf3
 526              		.globl	__divsf3
 527              		.section	.text.read_temp,"ax",@progbits
 528              		.align	1
 529              		.globl	read_temp
 531              	read_temp:
 532              	.LFB9:
 116:adc.c         **** 
 117:adc.c         **** // Läser temp på tempesensorn och returnerar ett värde
 118:adc.c         **** float read_temp(void) {
 533              		.loc 1 118 23 is_stmt 1
 534              		.cfi_startproc
 119:adc.c         ****     int sample_count = 0;
 535              		.loc 1 119 5
 536              	.LVL55:
 120:adc.c         ****     float temp_sum = 0;
 537              		.loc 1 120 5
 121:adc.c         ****     const float R_ref = 430.0; // Referensmotståndet på MAX31865-modulen
 538              		.loc 1 121 5
 122:adc.c         ****     
 123:adc.c         ****                   
 124:adc.c         ****     // Samplar 5 ggr per sekund
 125:adc.c         ****    while (sample_count < 5) {
 539              		.loc 1 125 4
 118:adc.c         ****     int sample_count = 0;
GAS LISTING /var/folders/rt/4gvqv631095f64jvm7jfj_000000gn/T//ccOTUoWQ.s 			page 14


 540              		.loc 1 118 23 is_stmt 0
 541 0000 7971     		addi	sp,sp,-48
 542              	.LCFI8:
 543              		.cfi_def_cfa_offset 48
 544              	.LBB2:
 126:adc.c         ****         uint16_t adc_val = MAX31865_ReadADC(); //
 127:adc.c         ****         // Omvandlar ADC-värde till resistans och sedan till Celsius
 128:adc.c         ****         float R_rtd = (float)adc_val * R_ref / 32768.0; // R_rtd är resistansen i RTD-sensorn
 545              		.loc 1 128 38
 546 0002 B7070000 		lui	a5,%hi(.LC0)
 547              	.LBE2:
 118:adc.c         ****     int sample_count = 0;
 548              		.loc 1 118 23
 549 0006 4ECE     		sw	s3,28(sp)
 550              		.cfi_offset 19, -20
 551              	.LBB5:
 552              		.loc 1 128 38
 553 0008 83A90700 		lw	s3,%lo(.LC0)(a5)
 554              		.loc 1 128 15
 555 000c B7070000 		lui	a5,%hi(.LC1)
 556              	.LBE5:
 118:adc.c         ****     int sample_count = 0;
 557              		.loc 1 118 23
 558 0010 62C4     		sw	s8,8(sp)
 559              		.cfi_offset 24, -40
 560              	.LBB6:
 561              		.loc 1 128 15
 562 0012 03AC0700 		lw	s8,%lo(.LC1)(a5)
 129:adc.c         ****         float current_temp = (R_rtd - 100.0) / 0.3851;
 563              		.loc 1 129 37
 564 0016 B7070000 		lui	a5,%hi(.LC2)
 565              	.LBE6:
 118:adc.c         ****     int sample_count = 0;
 566              		.loc 1 118 23
 567 001a 52CC     		sw	s4,24(sp)
 568 001c 56CA     		sw	s5,20(sp)
 569              		.cfi_offset 20, -24
 570              		.cfi_offset 21, -28
 571              	.LBB7:
 572              		.loc 1 129 37
 573 001e 03AA0700 		lw	s4,%lo(.LC2)(a5)
 574 0022 83AA4700 		lw	s5,%lo(.LC2+4)(a5)
 575              		.loc 1 129 46
 576 0026 B7070000 		lui	a5,%hi(.LC3)
 577              	.LBE7:
 118:adc.c         ****     int sample_count = 0;
 578              		.loc 1 118 23
 579 002a 5AC8     		sw	s6,16(sp)
 580 002c 5EC6     		sw	s7,12(sp)
 581              		.cfi_offset 22, -32
 582              		.cfi_offset 23, -36
 583              	.LBB8:
 584              		.loc 1 129 46
 585 002e 03AB0700 		lw	s6,%lo(.LC3)(a5)
 586 0032 83AB4700 		lw	s7,%lo(.LC3+4)(a5)
 587              	.LBE8:
 118:adc.c         ****     int sample_count = 0;
GAS LISTING /var/folders/rt/4gvqv631095f64jvm7jfj_000000gn/T//ccOTUoWQ.s 			page 15


 588              		.loc 1 118 23
 589 0036 22D4     		sw	s0,40(sp)
 590 0038 26D2     		sw	s1,36(sp)
 591 003a 06D6     		sw	ra,44(sp)
 592 003c 4AD0     		sw	s2,32(sp)
 593              		.cfi_offset 8, -8
 594              		.cfi_offset 9, -12
 595              		.cfi_offset 1, -4
 596              		.cfi_offset 18, -16
 118:adc.c         ****     int sample_count = 0;
 597              		.loc 1 118 23
 598 003e 9544     		li	s1,5
 120:adc.c         ****     const float R_ref = 430.0; // Referensmotståndet på MAX31865-modulen
 599              		.loc 1 120 11
 600 0040 13040000 		mv	s0,zero
 601              	.LVL56:
 602              	.L21:
 603              	.LBB9:
 126:adc.c         ****         uint16_t adc_val = MAX31865_ReadADC(); //
 604              		.loc 1 126 9 is_stmt 1
 126:adc.c         ****         uint16_t adc_val = MAX31865_ReadADC(); //
 605              		.loc 1 126 28 is_stmt 0
 606 0044 97000000 		call	MAX31865_ReadADC
 606      E7800000 
 607              	.LVL57:
 128:adc.c         ****         float current_temp = (R_rtd - 100.0) / 0.3851;
 608              		.loc 1 128 9 is_stmt 1
 609              		.loc 1 129 9
 130:adc.c         ****         
 131:adc.c         ****         temp_sum += current_temp;
 610              		.loc 1 131 9
 128:adc.c         ****         float current_temp = (R_rtd - 100.0) / 0.3851;
 611              		.loc 1 128 23 is_stmt 0
 612 004c 97000000 		call	__floatunsisf
 612      E7800000 
 613              	.LVL58:
 128:adc.c         ****         float current_temp = (R_rtd - 100.0) / 0.3851;
 614              		.loc 1 128 38
 615 0054 CE85     		mv	a1,s3
 616 0056 97000000 		call	__mulsf3
 616      E7800000 
 617              	.LVL59:
 128:adc.c         ****         float current_temp = (R_rtd - 100.0) / 0.3851;
 618              		.loc 1 128 15
 619 005e E285     		mv	a1,s8
 620 0060 97000000 		call	__mulsf3
 620      E7800000 
 621              	.LVL60:
 129:adc.c         ****         
 622              		.loc 1 129 37
 623 0068 97000000 		call	__extendsfdf2
 623      E7800000 
 624              	.LVL61:
 625 0070 5286     		mv	a2,s4
 626 0072 D686     		mv	a3,s5
 627 0074 97000000 		call	__subdf3
 627      E7800000 
GAS LISTING /var/folders/rt/4gvqv631095f64jvm7jfj_000000gn/T//ccOTUoWQ.s 			page 16


 628              	.LVL62:
 129:adc.c         ****         
 629              		.loc 1 129 46
 630 007c 5A86     		mv	a2,s6
 631 007e DE86     		mv	a3,s7
 632 0080 97000000 		call	__divdf3
 632      E7800000 
 633              	.LVL63:
 129:adc.c         ****         
 634              		.loc 1 129 15
 635 0088 97000000 		call	__truncdfsf2
 635      E7800000 
 636              	.LVL64:
 637              		.loc 1 131 18
 638 0090 AA85     		mv	a1,a0
 639 0092 2285     		mv	a0,s0
 640 0094 97000000 		call	__addsf3
 640      E7800000 
 641              	.LVL65:
 642 009c 2A84     		mv	s0,a0
 643              	.LVL66:
 132:adc.c         ****     
 133:adc.c         ****         //lcd_delay_1ms(25);
 134:adc.c         ****         for (int i = 0; i < 25; i++) {
 644              		.loc 1 134 9 is_stmt 1
 645              	.LBB3:
 646              		.loc 1 134 14
 647              	.LBE3:
 131:adc.c         ****     
 648              		.loc 1 131 18 is_stmt 0
 649 009e 6549     		li	s2,25
 650              	.LVL67:
 651              	.L20:
 652              	.LBB4:
 135:adc.c         ****     lcd_delay_1ms(1);
 653              		.loc 1 135 5 is_stmt 1 discriminator 3
 654 00a0 0545     		li	a0,1
 655 00a2 7D19     		addi	s2,s2,-1
 656              	.LVL68:
 657 00a4 97000000 		call	lcd_delay_1ms
 657      E7800000 
 658              	.LVL69:
 136:adc.c         ****     LCD_WR_Queue();   // keep LCD alive
 659              		.loc 1 136 5 discriminator 3
 660 00ac 97000000 		call	LCD_WR_Queue
 660      E7800000 
 661              	.LVL70:
 134:adc.c         ****     lcd_delay_1ms(1);
 662              		.loc 1 134 9 is_stmt 0 discriminator 3
 663 00b4 E31609FE 		bne	s2,zero,.L20
 664              	.LBE4:
 137:adc.c         **** }
 138:adc.c         ****         sample_count++;
 665              		.loc 1 138 9 is_stmt 1
 666              	.LVL71:
 667 00b8 FD14     		addi	s1,s1,-1
 668              	.LVL72:
GAS LISTING /var/folders/rt/4gvqv631095f64jvm7jfj_000000gn/T//ccOTUoWQ.s 			page 17


 669              	.LBE9:
 125:adc.c         ****         uint16_t adc_val = MAX31865_ReadADC(); //
 670              		.loc 1 125 10 is_stmt 0
 671 00ba C9F4     		bne	s1,zero,.L21
 139:adc.c         ****     }
 140:adc.c         ****     return (temp_sum / 5.0f);
 672              		.loc 1 140 5 is_stmt 1
 673              		.loc 1 140 22 is_stmt 0
 674 00bc B7070000 		lui	a5,%hi(.LC4)
 675 00c0 83A50700 		lw	a1,%lo(.LC4)(a5)
 676 00c4 2285     		mv	a0,s0
 677 00c6 97000000 		call	__divsf3
 677      E7800000 
 678              	.LVL73:
 141:adc.c         **** }
 679              		.loc 1 141 1
 680 00ce B250     		lw	ra,44(sp)
 681              		.cfi_restore 1
 682 00d0 2254     		lw	s0,40(sp)
 683              		.cfi_restore 8
 684              	.LVL74:
 685 00d2 9254     		lw	s1,36(sp)
 686              		.cfi_restore 9
 687              	.LVL75:
 688 00d4 0259     		lw	s2,32(sp)
 689              		.cfi_restore 18
 690 00d6 F249     		lw	s3,28(sp)
 691              		.cfi_restore 19
 692 00d8 624A     		lw	s4,24(sp)
 693              		.cfi_restore 20
 694 00da D24A     		lw	s5,20(sp)
 695              		.cfi_restore 21
 696 00dc 424B     		lw	s6,16(sp)
 697              		.cfi_restore 22
 698 00de B24B     		lw	s7,12(sp)
 699              		.cfi_restore 23
 700 00e0 224C     		lw	s8,8(sp)
 701              		.cfi_restore 24
 702 00e2 4561     		addi	sp,sp,48
 703              	.LCFI9:
 704              		.cfi_def_cfa_offset 0
 705 00e4 8280     		jr	ra
 706              		.cfi_endproc
 707              	.LFE9:
 709              		.section	.text.ADC_read,"ax",@progbits
 710              		.align	1
 711              		.globl	ADC_read
 713              	ADC_read:
 714              	.LFB10:
 142:adc.c         **** 
 143:adc.c         **** int ADC_read(int channel) {
 715              		.loc 1 143 27 is_stmt 1
 716              		.cfi_startproc
 717              	.LVL76:
 144:adc.c         ****     if(channel == 1)
 718              		.loc 1 144 5
 143:adc.c         ****     if(channel == 1)
GAS LISTING /var/folders/rt/4gvqv631095f64jvm7jfj_000000gn/T//ccOTUoWQ.s 			page 18


 719              		.loc 1 143 27 is_stmt 0
 720 0000 4111     		addi	sp,sp,-16
 721              	.LCFI10:
 722              		.cfi_def_cfa_offset 16
 723 0002 22C4     		sw	s0,8(sp)
 724 0004 06C6     		sw	ra,12(sp)
 725 0006 26C2     		sw	s1,4(sp)
 726 0008 4AC0     		sw	s2,0(sp)
 727              		.cfi_offset 8, -8
 728              		.cfi_offset 1, -4
 729              		.cfi_offset 9, -12
 730              		.cfi_offset 18, -16
 731              		.loc 1 144 7
 732 000a 8547     		li	a5,1
 143:adc.c         ****     if(channel == 1)
 733              		.loc 1 143 27
 734 000c 2A84     		mv	s0,a0
 735              		.loc 1 144 7
 736 000e 6315F506 		bne	a0,a5,.L26
 145:adc.c         ****     adc_regular_channel_config(ADC0, 0, ADC_CHANNEL_1, ADC_SAMPLETIME_13POINT5);  
 737              		.loc 1 145 5 is_stmt 1
 738 0012 8946     		li	a3,2
 739 0014 0546     		li	a2,1
 740              	.L35:
 146:adc.c         ****     if(channel == 3)
 147:adc.c         ****     adc_regular_channel_config(ADC0, 0, ADC_CHANNEL_3, ADC_SAMPLETIME_13POINT5);
 741              		.loc 1 147 5 is_stmt 0
 742 0016 37250140 		li	a0,1073815552
 743              	.LVL77:
 744 001a 8145     		li	a1,0
 745 001c 13050540 		addi	a0,a0,1024
 746 0020 97000000 		call	adc_regular_channel_config
 746      E7800000 
 747              	.LVL78:
 748              	.L27:
 148:adc.c         **** 
 149:adc.c         ****     adc_software_trigger_enable(ADC0, ADC_REGULAR_CHANNEL);
 749              		.loc 1 149 5 is_stmt 1
 750 0028 37250140 		li	a0,1073815552
 751 002c 8545     		li	a1,1
 752 002e 13050540 		addi	a0,a0,1024
 150:adc.c         **** 
 151:adc.c         ****     while(!adc_flag_get(ADC0, ADC_FLAG_EOC));
 753              		.loc 1 151 12 is_stmt 0
 754 0032 B7240140 		li	s1,1073815552
 149:adc.c         **** 
 755              		.loc 1 149 5
 756 0036 97000000 		call	adc_software_trigger_enable
 756      E7800000 
 757              	.LVL79:
 758              		.loc 1 151 5 is_stmt 1
 759              		.loc 1 151 12 is_stmt 0
 760 003e 13890440 		addi	s2,s1,1024
 761              	.L28:
 762              		.loc 1 151 45 is_stmt 1 discriminator 1
 763              		.loc 1 151 12 is_stmt 0 discriminator 1
 764 0042 8945     		li	a1,2
GAS LISTING /var/folders/rt/4gvqv631095f64jvm7jfj_000000gn/T//ccOTUoWQ.s 			page 19


 765 0044 4A85     		mv	a0,s2
 766 0046 97000000 		call	adc_flag_get
 766      E7800000 
 767              	.LVL80:
 768              		.loc 1 151 10 discriminator 1
 769 004e 75D9     		beq	a0,zero,.L28
 152:adc.c         **** 
 153:adc.c         ****     int sensorValue = (int) adc_regular_data_read(ADC0);
 770              		.loc 1 153 5 is_stmt 1
 771              		.loc 1 153 29 is_stmt 0
 772 0050 13850440 		addi	a0,s1,1024
 773 0054 97000000 		call	adc_regular_data_read
 773      E7800000 
 774              	.LVL81:
 154:adc.c         ****     
 155:adc.c         ****     if (channel == 1) {
 775              		.loc 1 155 8
 776 005c 0547     		li	a4,1
 153:adc.c         ****     
 777              		.loc 1 153 9
 778 005e AA87     		mv	a5,a0
 779              	.LVL82:
 780              		.loc 1 155 5 is_stmt 1
 781              		.loc 1 155 8 is_stmt 0
 782 0060 6312E402 		bne	s0,a4,.L29
 156:adc.c         ****         //KALIBRERA SOLVÄRDE. PITCH BLACK = 0. FULL SOL = 4000
 157:adc.c         ****         //sensorValue = 3800 - sensorValue;
 158:adc.c         ****         if (sensorValue < 0) sensorValue = 0;
 783              		.loc 1 158 9 is_stmt 1
 159:adc.c         ****         sensorValue /= 40;
 784              		.loc 1 159 9
 785              		.loc 1 159 21 is_stmt 0
 786 0064 93078002 		li	a5,40
 787              	.L36:
 160:adc.c         ****     } else if (channel == 3) {
 161:adc.c         ****         //KALIBRERA FUKTVÄRDE. WET = 1600. DRY = 2500
 162:adc.c         ****         sensorValue = 2500 - sensorValue;
 163:adc.c         ****         if (sensorValue < 0) sensorValue = 0;
 164:adc.c         ****         sensorValue /= 9;
 788              		.loc 1 164 21
 789 0068 3345F502 		div	a0,a0,a5
 790              	.LVL83:
 165:adc.c         ****     }
 166:adc.c         ****     return sensorValue;
 791              		.loc 1 166 5 is_stmt 1
 792              	.L25:
 167:adc.c         **** }
 793              		.loc 1 167 1 is_stmt 0
 794 006c B240     		lw	ra,12(sp)
 795              		.cfi_remember_state
 796              		.cfi_restore 1
 797 006e 2244     		lw	s0,8(sp)
 798              		.cfi_restore 8
 799              	.LVL84:
 800 0070 9244     		lw	s1,4(sp)
 801              		.cfi_restore 9
 802 0072 0249     		lw	s2,0(sp)
GAS LISTING /var/folders/rt/4gvqv631095f64jvm7jfj_000000gn/T//ccOTUoWQ.s 			page 20


 803              		.cfi_restore 18
 804 0074 4101     		addi	sp,sp,16
 805              	.LCFI11:
 806              		.cfi_def_cfa_offset 0
 807 0076 8280     		jr	ra
 808              	.LVL85:
 809              	.L26:
 810              	.LCFI12:
 811              		.cfi_restore_state
 146:adc.c         ****     adc_regular_channel_config(ADC0, 0, ADC_CHANNEL_3, ADC_SAMPLETIME_13POINT5);
 812              		.loc 1 146 5 is_stmt 1
 146:adc.c         ****     adc_regular_channel_config(ADC0, 0, ADC_CHANNEL_3, ADC_SAMPLETIME_13POINT5);
 813              		.loc 1 146 7 is_stmt 0
 814 0078 8D47     		li	a5,3
 815 007a E317F5FA 		bne	a0,a5,.L27
 147:adc.c         **** 
 816              		.loc 1 147 5 is_stmt 1
 817 007e 8946     		li	a3,2
 818 0080 0D46     		li	a2,3
 819 0082 51BF     		j	.L35
 820              	.LVL86:
 821              	.L29:
 160:adc.c         ****         //KALIBRERA FUKTVÄRDE. WET = 1600. DRY = 2500
 822              		.loc 1 160 12
 160:adc.c         ****         //KALIBRERA FUKTVÄRDE. WET = 1600. DRY = 2500
 823              		.loc 1 160 15 is_stmt 0
 824 0084 0D47     		li	a4,3
 825 0086 E313E4FE 		bne	s0,a4,.L25
 162:adc.c         ****         if (sensorValue < 0) sensorValue = 0;
 826              		.loc 1 162 9 is_stmt 1
 162:adc.c         ****         if (sensorValue < 0) sensorValue = 0;
 827              		.loc 1 162 21 is_stmt 0
 828 008a 0565     		li	a0,4096
 829              	.LVL87:
 830 008c 1305459C 		addi	a0,a0,-1596
 831 0090 1D8D     		sub	a0,a0,a5
 832              	.LVL88:
 163:adc.c         ****         sensorValue /= 9;
 833              		.loc 1 163 9 is_stmt 1
 834 0092 63530500 		bge	a0,zero,.L31
 835 0096 0145     		li	a0,0
 836              	.L31:
 837              	.LVL89:
 164:adc.c         ****     }
 838              		.loc 1 164 9
 164:adc.c         ****     }
 839              		.loc 1 164 21 is_stmt 0
 840 0098 A547     		li	a5,9
 841 009a F9B7     		j	.L36
 842              		.cfi_endproc
 843              	.LFE10:
 845              		.section	.text.T1powerUpInitPWM,"ax",@progbits
 846              		.align	1
 847              		.globl	T1powerUpInitPWM
 849              	T1powerUpInitPWM:
 850              	.LFB11:
 168:adc.c         **** 
GAS LISTING /var/folders/rt/4gvqv631095f64jvm7jfj_000000gn/T//ccOTUoWQ.s 			page 21


 169:adc.c         **** 
 170:adc.c         **** void T1powerUpInitPWM(uint16_t ch){
 851              		.loc 1 170 35 is_stmt 1
 852              		.cfi_startproc
 853              	.LVL90:
 171:adc.c         ****     timer_oc_parameter_struct timer_ocinitpara;
 854              		.loc 1 171 5
 172:adc.c         ****     timer_parameter_struct timer_initpara;
 855              		.loc 1 172 5
 173:adc.c         ****     rcu_periph_clock_enable(RCU_GPIOA);
 856              		.loc 1 173 5
 170:adc.c         ****     timer_oc_parameter_struct timer_ocinitpara;
 857              		.loc 1 170 35 is_stmt 0
 858 0000 7971     		addi	sp,sp,-48
 859              	.LCFI13:
 860              		.cfi_def_cfa_offset 48
 861 0002 22D4     		sw	s0,40(sp)
 862              		.cfi_offset 8, -8
 863 0004 2A84     		mv	s0,a0
 864              		.loc 1 173 5
 865 0006 13052060 		li	a0,1538
 866              	.LVL91:
 170:adc.c         ****     timer_oc_parameter_struct timer_ocinitpara;
 867              		.loc 1 170 35
 868 000a 06D6     		sw	ra,44(sp)
 869              		.cfi_offset 1, -4
 870              		.loc 1 173 5
 871 000c 97000000 		call	rcu_periph_clock_enable
 871      E7800000 
 872              	.LVL92:
 174:adc.c         ****     rcu_periph_clock_enable(RCU_AF);
 873              		.loc 1 174 5 is_stmt 1
 874 0014 13050060 		li	a0,1536
 875 0018 0588     		andi	s0,s0,1
 876 001a 97000000 		call	rcu_periph_clock_enable
 876      E7800000 
 877              	.LVL93:
 175:adc.c         ****     if (ch&0x1) gpio_init(GPIOA, GPIO_MODE_AF_PP, GPIO_OSPEED_50MHZ, GPIO_PIN_0);
 878              		.loc 1 175 5
 879              		.loc 1 175 8 is_stmt 0
 880 0022 01CC     		beq	s0,zero,.L38
 881              		.loc 1 175 17 is_stmt 1 discriminator 1
 882 0024 37150140 		li	a0,1073811456
 883 0028 8546     		li	a3,1
 884 002a 0D46     		li	a2,3
 885 002c E145     		li	a1,24
 886 002e 13050580 		addi	a0,a0,-2048
 887 0032 97000000 		call	gpio_init
 887      E7800000 
 888              	.LVL94:
 889              	.L38:
 176:adc.c         **** 
 177:adc.c         ****     rcu_periph_clock_enable(RCU_TIMER1);
 890              		.loc 1 177 5
 891 003a 13050070 		li	a0,1792
 892 003e 97000000 		call	rcu_periph_clock_enable
 892      E7800000 
GAS LISTING /var/folders/rt/4gvqv631095f64jvm7jfj_000000gn/T//ccOTUoWQ.s 			page 22


 893              	.LVL95:
 178:adc.c         **** 
 179:adc.c         ****     timer_deinit(TIMER1);
 894              		.loc 1 179 5
 895 0046 37050040 		li	a0,1073741824
 896 004a 97000000 		call	timer_deinit
 896      E7800000 
 897              	.LVL96:
 180:adc.c         ****     timer_struct_para_init(&timer_initpara);
 898              		.loc 1 180 5
 899 0052 0808     		addi	a0,sp,16
 900 0054 97000000 		call	timer_struct_para_init
 900      E7800000 
 901              	.LVL97:
 181:adc.c         ****     timer_initpara.prescaler         = 107;
 902              		.loc 1 181 5
 182:adc.c         ****     timer_initpara.alignedmode       = TIMER_COUNTER_EDGE;
 903              		.loc 1 182 5
 183:adc.c         ****     timer_initpara.counterdirection  = TIMER_COUNTER_UP;
 904              		.loc 1 183 5
 181:adc.c         ****     timer_initpara.prescaler         = 107;
 905              		.loc 1 181 38 is_stmt 0
 906 005c 9307B006 		li	a5,107
 907 0060 3EC8     		sw	a5,16(sp)
 184:adc.c         ****     timer_initpara.period            = 15999;
 908              		.loc 1 184 38
 909 0062 9167     		li	a5,16384
 910 0064 9387F7E7 		addi	a5,a5,-385
 185:adc.c         ****     timer_initpara.clockdivision     = TIMER_CKDIV_DIV1;
 186:adc.c         ****     timer_initpara.repetitioncounter = 0;
 187:adc.c         ****     timer_init(TIMER1, &timer_initpara);
 911              		.loc 1 187 5
 912 0068 0C08     		addi	a1,sp,16
 913 006a 37050040 		li	a0,1073741824
 184:adc.c         ****     timer_initpara.period            = 15999;
 914              		.loc 1 184 38
 915 006e 3ECC     		sw	a5,24(sp)
 183:adc.c         ****     timer_initpara.period            = 15999;
 916              		.loc 1 183 38
 917 0070 231A0100 		sh	zero,20(sp)
 184:adc.c         ****     timer_initpara.period            = 15999;
 918              		.loc 1 184 5 is_stmt 1
 185:adc.c         ****     timer_initpara.clockdivision     = TIMER_CKDIV_DIV1;
 919              		.loc 1 185 5
 185:adc.c         ****     timer_initpara.clockdivision     = TIMER_CKDIV_DIV1;
 920              		.loc 1 185 38 is_stmt 0
 921 0074 231E0100 		sh	zero,28(sp)
 186:adc.c         ****     timer_init(TIMER1, &timer_initpara);
 922              		.loc 1 186 5 is_stmt 1
 186:adc.c         ****     timer_init(TIMER1, &timer_initpara);
 923              		.loc 1 186 38 is_stmt 0
 924 0078 230F0100 		sb	zero,30(sp)
 925              		.loc 1 187 5 is_stmt 1
 926 007c 97000000 		call	timer_init
 926      E7800000 
 927              	.LVL98:
 188:adc.c         **** 
GAS LISTING /var/folders/rt/4gvqv631095f64jvm7jfj_000000gn/T//ccOTUoWQ.s 			page 23


 189:adc.c         ****     timer_channel_output_struct_para_init(&timer_ocinitpara);
 928              		.loc 1 189 5
 929 0084 4800     		addi	a0,sp,4
 930 0086 97000000 		call	timer_channel_output_struct_para_init
 930      E7800000 
 931              	.LVL99:
 190:adc.c         ****     timer_ocinitpara.outputstate  = TIMER_CCX_ENABLE;
 932              		.loc 1 190 5
 191:adc.c         ****     timer_ocinitpara.outputnstate = TIMER_CCXN_DISABLE;
 933              		.loc 1 191 5
 192:adc.c         ****     timer_ocinitpara.ocpolarity   = TIMER_OC_POLARITY_HIGH;
 934              		.loc 1 192 5
 193:adc.c         ****     timer_ocinitpara.ocnpolarity  = TIMER_OCN_POLARITY_HIGH;
 935              		.loc 1 193 5
 194:adc.c         ****     timer_ocinitpara.ocidlestate  = TIMER_OC_IDLE_STATE_LOW;
 936              		.loc 1 194 5
 195:adc.c         ****     timer_ocinitpara.ocnidlestate = TIMER_OCN_IDLE_STATE_LOW;
 937              		.loc 1 195 5
 190:adc.c         ****     timer_ocinitpara.outputnstate = TIMER_CCXN_DISABLE;
 938              		.loc 1 190 35 is_stmt 0
 939 008e 8547     		li	a5,1
 940 0090 3EC2     		sw	a5,4(sp)
 192:adc.c         ****     timer_ocinitpara.ocnpolarity  = TIMER_OCN_POLARITY_HIGH;
 941              		.loc 1 192 35
 942 0092 02C4     		sw	zero,8(sp)
 194:adc.c         ****     timer_ocinitpara.ocnidlestate = TIMER_OCN_IDLE_STATE_LOW;
 943              		.loc 1 194 35
 944 0094 02C6     		sw	zero,12(sp)
 196:adc.c         ****     if (ch&0x1) timer_channel_output_config(TIMER1,TIMER_CH_0,&timer_ocinitpara);
 945              		.loc 1 196 5 is_stmt 1
 946              		.loc 1 196 8 is_stmt 0
 947 0096 21C4     		beq	s0,zero,.L39
 948              		.loc 1 196 17 is_stmt 1 discriminator 1
 949 0098 5000     		addi	a2,sp,4
 950 009a 8145     		li	a1,0
 951 009c 37050040 		li	a0,1073741824
 952 00a0 97000000 		call	timer_channel_output_config
 952      E7800000 
 953              	.LVL100:
 197:adc.c         **** 
 198:adc.c         ****     if (ch&0x1) {
 954              		.loc 1 198 5 discriminator 1
 199:adc.c         ****         timer_channel_output_pulse_value_config(TIMER1,TIMER_CH_0,11999);
 955              		.loc 1 199 9 discriminator 1
 956 00a8 0D66     		li	a2,12288
 957 00aa 1306F6ED 		addi	a2,a2,-289
 958 00ae 8145     		li	a1,0
 959 00b0 37050040 		li	a0,1073741824
 960 00b4 97000000 		call	timer_channel_output_pulse_value_config
 960      E7800000 
 961              	.LVL101:
 200:adc.c         ****         timer_channel_output_mode_config(TIMER1,TIMER_CH_0,TIMER_OC_MODE_PWM0);
 962              		.loc 1 200 9 discriminator 1
 963 00bc 13060006 		li	a2,96
 964 00c0 8145     		li	a1,0
 965 00c2 37050040 		li	a0,1073741824
 966 00c6 97000000 		call	timer_channel_output_mode_config
GAS LISTING /var/folders/rt/4gvqv631095f64jvm7jfj_000000gn/T//ccOTUoWQ.s 			page 24


 966      E7800000 
 967              	.LVL102:
 201:adc.c         ****         timer_channel_output_shadow_config(TIMER1,TIMER_CH_0,TIMER_OC_SHADOW_DISABLE);
 968              		.loc 1 201 9 discriminator 1
 969 00ce 0146     		li	a2,0
 970 00d0 8145     		li	a1,0
 971 00d2 37050040 		li	a0,1073741824
 972 00d6 97000000 		call	timer_channel_output_shadow_config
 972      E7800000 
 973              	.LVL103:
 974              	.L39:
 202:adc.c         ****     }
 203:adc.c         **** 
 204:adc.c         ****     timer_auto_reload_shadow_enable(TIMER1);
 975              		.loc 1 204 5
 976 00de 37050040 		li	a0,1073741824
 977 00e2 97000000 		call	timer_auto_reload_shadow_enable
 977      E7800000 
 978              	.LVL104:
 205:adc.c         ****     timer_enable(TIMER1);
 979              		.loc 1 205 5
 980 00ea 37050040 		li	a0,1073741824
 981 00ee 97000000 		call	timer_enable
 981      E7800000 
 982              	.LVL105:
 206:adc.c         **** }
 983              		.loc 1 206 1 is_stmt 0
 984 00f6 B250     		lw	ra,44(sp)
 985              		.cfi_restore 1
 986 00f8 2254     		lw	s0,40(sp)
 987              		.cfi_restore 8
 988 00fa 4561     		addi	sp,sp,48
 989              	.LCFI14:
 990              		.cfi_def_cfa_offset 0
 991 00fc 8280     		jr	ra
 992              		.cfi_endproc
 993              	.LFE11:
 995              		.section	.text.T1setPWMch0,"ax",@progbits
 996              		.align	1
 997              		.globl	T1setPWMch0
 999              	T1setPWMch0:
 1000              	.LFB12:
 207:adc.c         **** 
 208:adc.c         **** 
 209:adc.c         **** void T1setPWMch0(int value) {
 1001              		.loc 1 209 29 is_stmt 1
 1002              		.cfi_startproc
 1003              	.LVL106:
 210:adc.c         ****     timer_channel_output_pulse_value_config(TIMER1,TIMER_CH_0,(value));
 1004              		.loc 1 210 5
 1005 0000 2A86     		mv	a2,a0
 1006 0002 8145     		li	a1,0
 1007 0004 37050040 		li	a0,1073741824
 1008              	.LVL107:
 1009 0008 17030000 		tail	timer_channel_output_pulse_value_config
 1009      67000300 
 1010              	.LVL108:
GAS LISTING /var/folders/rt/4gvqv631095f64jvm7jfj_000000gn/T//ccOTUoWQ.s 			page 25


 1011              		.cfi_endproc
 1012              	.LFE12:
 1014              		.section	.rodata.read_temp.cst4,"aM",@progbits,4
 1015              		.align	2
 1016              	.LC0:
 1017 0000 0000D743 		.word	1138163712
 1018              	.LC1:
 1019 0004 00000038 		.word	939524096
 1020              	.LC4:
 1021 0008 0000A040 		.word	1084227584
 1022              		.section	.rodata.read_temp.cst8,"aM",@progbits,8
 1023              		.align	3
 1024              	.LC2:
 1025 0000 00000000 		.word	0
 1026 0004 00005940 		.word	1079574528
 1027              	.LC3:
 1028 0008 68226C78 		.word	2020352616
 1029 000c 7AA5D83F 		.word	1071162746
 1030              		.text
 1031              	.Letext0:
 1032              		.file 2 "/Users/alexstrae/toolchain-gd32v-v202-osx/compiler/riscv64-unknown-elf/include/machine/_d
 1033              		.file 3 "/Users/alexstrae/toolchain-gd32v-v202-osx/compiler/lib/gcc/riscv64-unknown-elf/8.3.0/incl
 1034              		.file 4 "/Users/alexstrae/toolchain-gd32v-v202-osx/compiler/riscv64-unknown-elf/include/sys/_types
 1035              		.file 5 "/Users/alexstrae/toolchain-gd32v-v202-osx/compiler/riscv64-unknown-elf/include/sys/reent.
 1036              		.file 6 "/Users/alexstrae/toolchain-gd32v-v202-osx/compiler/riscv64-unknown-elf/include/sys/lock.h
 1037              		.file 7 "/Users/alexstrae/toolchain-gd32v-v202-osx/compiler/riscv64-unknown-elf/include/sys/_stdin
 1038              		.file 8 "../../firmware/GD32VF103_standard_peripheral/system_gd32vf103.h"
 1039              		.file 9 "../../firmware/GD32VF103_standard_peripheral/gd32vf103.h"
 1040              		.file 10 "../../firmware/GD32VF103_standard_peripheral/Include/gd32vf103_rcu.h"
 1041              		.file 11 "../../firmware/GD32VF103_standard_peripheral/Include/gd32vf103_spi.h"
 1042              		.file 12 "../../firmware/GD32VF103_standard_peripheral/Include/gd32vf103_timer.h"
 1043              		.file 13 "/Users/alexstrae/toolchain-gd32v-v202-osx/compiler/riscv64-unknown-elf/include/stdlib.h"
 1044              		.file 14 "lib/lcd/include/lcd.h"
 1045              		.file 15 "../../firmware/GD32VF103_standard_peripheral/Include/gd32vf103_gpio.h"
 1046              		.file 16 "../../firmware/GD32VF103_standard_peripheral/Include/gd32vf103_adc.h"
GAS LISTING /var/folders/rt/4gvqv631095f64jvm7jfj_000000gn/T//ccOTUoWQ.s 			page 26


DEFINED SYMBOLS
                            *ABS*:0000000000000000 adc.c
/var/folders/rt/4gvqv631095f64jvm7jfj_000000gn/T//ccOTUoWQ.s:13     .text.ADC3powerUpInit:0000000000000000 ADC3powerUpInit
/var/folders/rt/4gvqv631095f64jvm7jfj_000000gn/T//ccOTUoWQ.s:17     .text.ADC3powerUpInit:0000000000000000 .L0 
/var/folders/rt/4gvqv631095f64jvm7jfj_000000gn/T//ccOTUoWQ.s:19     .text.ADC3powerUpInit:0000000000000000 .L0 
/var/folders/rt/4gvqv631095f64jvm7jfj_000000gn/T//ccOTUoWQ.s:20     .text.ADC3powerUpInit:0000000000000000 .L0 
/var/folders/rt/4gvqv631095f64jvm7jfj_000000gn/T//ccOTUoWQ.s:21     .text.ADC3powerUpInit:0000000000000000 .L0 
/var/folders/rt/4gvqv631095f64jvm7jfj_000000gn/T//ccOTUoWQ.s:23     .text.ADC3powerUpInit:0000000000000002 .L0 
/var/folders/rt/4gvqv631095f64jvm7jfj_000000gn/T//ccOTUoWQ.s:25     .text.ADC3powerUpInit:0000000000000004 .L0 
/var/folders/rt/4gvqv631095f64jvm7jfj_000000gn/T//ccOTUoWQ.s:28     .text.ADC3powerUpInit:0000000000000006 .L0 
/var/folders/rt/4gvqv631095f64jvm7jfj_000000gn/T//ccOTUoWQ.s:31     .text.ADC3powerUpInit:000000000000000a .L0 
/var/folders/rt/4gvqv631095f64jvm7jfj_000000gn/T//ccOTUoWQ.s:33     .text.ADC3powerUpInit:000000000000000e .L0 
/var/folders/rt/4gvqv631095f64jvm7jfj_000000gn/T//ccOTUoWQ.s:34     .text.ADC3powerUpInit:000000000000000e .L0 
/var/folders/rt/4gvqv631095f64jvm7jfj_000000gn/T//ccOTUoWQ.s:36     .text.ADC3powerUpInit:000000000000000e .L0 
/var/folders/rt/4gvqv631095f64jvm7jfj_000000gn/T//ccOTUoWQ.s:39     .text.ADC3powerUpInit:0000000000000016 .L0 
/var/folders/rt/4gvqv631095f64jvm7jfj_000000gn/T//ccOTUoWQ.s:43     .text.ADC3powerUpInit:0000000000000022 .L0 
/var/folders/rt/4gvqv631095f64jvm7jfj_000000gn/T//ccOTUoWQ.s:47     .text.ADC3powerUpInit:000000000000002c .L0 
/var/folders/rt/4gvqv631095f64jvm7jfj_000000gn/T//ccOTUoWQ.s:55     .text.ADC3powerUpInit:0000000000000042 .L0 
/var/folders/rt/4gvqv631095f64jvm7jfj_000000gn/T//ccOTUoWQ.s:60     .text.ADC3powerUpInit:0000000000000052 .L0 
/var/folders/rt/4gvqv631095f64jvm7jfj_000000gn/T//ccOTUoWQ.s:64     .text.ADC3powerUpInit:000000000000005c .L0 
/var/folders/rt/4gvqv631095f64jvm7jfj_000000gn/T//ccOTUoWQ.s:70     .text.ADC3powerUpInit:000000000000006c .L0 
/var/folders/rt/4gvqv631095f64jvm7jfj_000000gn/T//ccOTUoWQ.s:76     .text.ADC3powerUpInit:000000000000007e .L0 
/var/folders/rt/4gvqv631095f64jvm7jfj_000000gn/T//ccOTUoWQ.s:81     .text.ADC3powerUpInit:000000000000008c .L0 
/var/folders/rt/4gvqv631095f64jvm7jfj_000000gn/T//ccOTUoWQ.s:87     .text.ADC3powerUpInit:000000000000009c .L0 
/var/folders/rt/4gvqv631095f64jvm7jfj_000000gn/T//ccOTUoWQ.s:94     .text.ADC3powerUpInit:00000000000000ae .L0 
/var/folders/rt/4gvqv631095f64jvm7jfj_000000gn/T//ccOTUoWQ.s:100    .text.ADC3powerUpInit:00000000000000c0 .L0 
/var/folders/rt/4gvqv631095f64jvm7jfj_000000gn/T//ccOTUoWQ.s:106    .text.ADC3powerUpInit:00000000000000d0 .L0 
/var/folders/rt/4gvqv631095f64jvm7jfj_000000gn/T//ccOTUoWQ.s:107    .text.ADC3powerUpInit:00000000000000d0 .L0 
/var/folders/rt/4gvqv631095f64jvm7jfj_000000gn/T//ccOTUoWQ.s:109    .text.ADC3powerUpInit:00000000000000d2 .L0 
/var/folders/rt/4gvqv631095f64jvm7jfj_000000gn/T//ccOTUoWQ.s:115    .text.ADC3powerUpInit:00000000000000e4 .L0 
/var/folders/rt/4gvqv631095f64jvm7jfj_000000gn/T//ccOTUoWQ.s:121    .text.ADC3powerUpInit:00000000000000f4 .L0 
/var/folders/rt/4gvqv631095f64jvm7jfj_000000gn/T//ccOTUoWQ.s:124    .text.ADC3powerUpInit:00000000000000fc .L0 
/var/folders/rt/4gvqv631095f64jvm7jfj_000000gn/T//ccOTUoWQ.s:132    .text.ADC3powerUpInit:000000000000010e .L0 
/var/folders/rt/4gvqv631095f64jvm7jfj_000000gn/T//ccOTUoWQ.s:137    .text.ADC3powerUpInit:000000000000011e .L0 
/var/folders/rt/4gvqv631095f64jvm7jfj_000000gn/T//ccOTUoWQ.s:138    .text.ADC3powerUpInit:000000000000011e .L0 
/var/folders/rt/4gvqv631095f64jvm7jfj_000000gn/T//ccOTUoWQ.s:139    .text.ADC3powerUpInit:000000000000011e .L0 
/var/folders/rt/4gvqv631095f64jvm7jfj_000000gn/T//ccOTUoWQ.s:143    .text.ADC3powerUpInit:000000000000012a .L0 
/var/folders/rt/4gvqv631095f64jvm7jfj_000000gn/T//ccOTUoWQ.s:144    .text.ADC3powerUpInit:000000000000012a .L0 
/var/folders/rt/4gvqv631095f64jvm7jfj_000000gn/T//ccOTUoWQ.s:145    .text.ADC3powerUpInit:000000000000012a .L0 
/var/folders/rt/4gvqv631095f64jvm7jfj_000000gn/T//ccOTUoWQ.s:147    .text.ADC3powerUpInit:000000000000012e .L0 
/var/folders/rt/4gvqv631095f64jvm7jfj_000000gn/T//ccOTUoWQ.s:148    .text.ADC3powerUpInit:0000000000000130 .L0 
/var/folders/rt/4gvqv631095f64jvm7jfj_000000gn/T//ccOTUoWQ.s:150    .text.ADC3powerUpInit:0000000000000132 .L0 
/var/folders/rt/4gvqv631095f64jvm7jfj_000000gn/T//ccOTUoWQ.s:152    .text.ADC3powerUpInit:0000000000000134 .L0 
/var/folders/rt/4gvqv631095f64jvm7jfj_000000gn/T//ccOTUoWQ.s:155    .text.ADC3powerUpInit:0000000000000134 .L0 
/var/folders/rt/4gvqv631095f64jvm7jfj_000000gn/T//ccOTUoWQ.s:157    .text.ADC3powerUpInit:0000000000000136 .L0 
/var/folders/rt/4gvqv631095f64jvm7jfj_000000gn/T//ccOTUoWQ.s:159    .text.ADC3powerUpInit:0000000000000138 .L0 
/var/folders/rt/4gvqv631095f64jvm7jfj_000000gn/T//ccOTUoWQ.s:161    .text.ADC3powerUpInit:0000000000000138 .L0 
/var/folders/rt/4gvqv631095f64jvm7jfj_000000gn/T//ccOTUoWQ.s:163    .text.ADC3powerUpInit:0000000000000140 .L0 
/var/folders/rt/4gvqv631095f64jvm7jfj_000000gn/T//ccOTUoWQ.s:170    .text.MAX31865_ExchangeByte:0000000000000000 MAX31865_ExchangeByte
/var/folders/rt/4gvqv631095f64jvm7jfj_000000gn/T//ccOTUoWQ.s:173    .text.MAX31865_ExchangeByte:0000000000000000 .L0 
/var/folders/rt/4gvqv631095f64jvm7jfj_000000gn/T//ccOTUoWQ.s:175    .text.MAX31865_ExchangeByte:0000000000000000 .L0 
/var/folders/rt/4gvqv631095f64jvm7jfj_000000gn/T//ccOTUoWQ.s:176    .text.MAX31865_ExchangeByte:0000000000000000 .L0 
/var/folders/rt/4gvqv631095f64jvm7jfj_000000gn/T//ccOTUoWQ.s:177    .text.MAX31865_ExchangeByte:0000000000000000 .L0 
/var/folders/rt/4gvqv631095f64jvm7jfj_000000gn/T//ccOTUoWQ.s:179    .text.MAX31865_ExchangeByte:0000000000000002 .L0 
/var/folders/rt/4gvqv631095f64jvm7jfj_000000gn/T//ccOTUoWQ.s:181    .text.MAX31865_ExchangeByte:0000000000000004 .L0 
/var/folders/rt/4gvqv631095f64jvm7jfj_000000gn/T//ccOTUoWQ.s:184    .text.MAX31865_ExchangeByte:0000000000000006 .L0 
/var/folders/rt/4gvqv631095f64jvm7jfj_000000gn/T//ccOTUoWQ.s:187    .text.MAX31865_ExchangeByte:000000000000000a .L0 
GAS LISTING /var/folders/rt/4gvqv631095f64jvm7jfj_000000gn/T//ccOTUoWQ.s 			page 27


/var/folders/rt/4gvqv631095f64jvm7jfj_000000gn/T//ccOTUoWQ.s:189    .text.MAX31865_ExchangeByte:000000000000000c .L0 
/var/folders/rt/4gvqv631095f64jvm7jfj_000000gn/T//ccOTUoWQ.s:190    .text.MAX31865_ExchangeByte:0000000000000010 .L0 
/var/folders/rt/4gvqv631095f64jvm7jfj_000000gn/T//ccOTUoWQ.s:192    .text.MAX31865_ExchangeByte:0000000000000010 .L0 
/var/folders/rt/4gvqv631095f64jvm7jfj_000000gn/T//ccOTUoWQ.s:194    .text.MAX31865_ExchangeByte:0000000000000014 .L0 
/var/folders/rt/4gvqv631095f64jvm7jfj_000000gn/T//ccOTUoWQ.s:196    .text.MAX31865_ExchangeByte:0000000000000018 .L0 
/var/folders/rt/4gvqv631095f64jvm7jfj_000000gn/T//ccOTUoWQ.s:197    .text.MAX31865_ExchangeByte:0000000000000018 .L0 
/var/folders/rt/4gvqv631095f64jvm7jfj_000000gn/T//ccOTUoWQ.s:199    .text.MAX31865_ExchangeByte:0000000000000018 .L0 
/var/folders/rt/4gvqv631095f64jvm7jfj_000000gn/T//ccOTUoWQ.s:201    .text.MAX31865_ExchangeByte:000000000000001c .L0 
/var/folders/rt/4gvqv631095f64jvm7jfj_000000gn/T//ccOTUoWQ.s:205    .text.MAX31865_ExchangeByte:0000000000000024 .L0 
/var/folders/rt/4gvqv631095f64jvm7jfj_000000gn/T//ccOTUoWQ.s:206    .text.MAX31865_ExchangeByte:0000000000000024 .L0 
/var/folders/rt/4gvqv631095f64jvm7jfj_000000gn/T//ccOTUoWQ.s:207    .text.MAX31865_ExchangeByte:0000000000000024 .L0 
/var/folders/rt/4gvqv631095f64jvm7jfj_000000gn/T//ccOTUoWQ.s:212    .text.MAX31865_ExchangeByte:0000000000000030 .L0 
/var/folders/rt/4gvqv631095f64jvm7jfj_000000gn/T//ccOTUoWQ.s:214    .text.MAX31865_ExchangeByte:0000000000000032 .L0 
/var/folders/rt/4gvqv631095f64jvm7jfj_000000gn/T//ccOTUoWQ.s:217    .text.MAX31865_ExchangeByte:0000000000000038 .L0 
/var/folders/rt/4gvqv631095f64jvm7jfj_000000gn/T//ccOTUoWQ.s:219    .text.MAX31865_ExchangeByte:000000000000003c .L0 
/var/folders/rt/4gvqv631095f64jvm7jfj_000000gn/T//ccOTUoWQ.s:222    .text.MAX31865_ExchangeByte:0000000000000044 .L0 
/var/folders/rt/4gvqv631095f64jvm7jfj_000000gn/T//ccOTUoWQ.s:223    .text.MAX31865_ExchangeByte:0000000000000044 .L0 
/var/folders/rt/4gvqv631095f64jvm7jfj_000000gn/T//ccOTUoWQ.s:226    .text.MAX31865_ExchangeByte:0000000000000048 .L0 
/var/folders/rt/4gvqv631095f64jvm7jfj_000000gn/T//ccOTUoWQ.s:227    .text.MAX31865_ExchangeByte:0000000000000048 .L0 
/var/folders/rt/4gvqv631095f64jvm7jfj_000000gn/T//ccOTUoWQ.s:232    .text.MAX31865_ExchangeByte:0000000000000054 .L0 
/var/folders/rt/4gvqv631095f64jvm7jfj_000000gn/T//ccOTUoWQ.s:234    .text.MAX31865_ExchangeByte:0000000000000056 .L0 
/var/folders/rt/4gvqv631095f64jvm7jfj_000000gn/T//ccOTUoWQ.s:235    .text.MAX31865_ExchangeByte:0000000000000056 .L0 
/var/folders/rt/4gvqv631095f64jvm7jfj_000000gn/T//ccOTUoWQ.s:239    .text.MAX31865_ExchangeByte:0000000000000062 .L0 
/var/folders/rt/4gvqv631095f64jvm7jfj_000000gn/T//ccOTUoWQ.s:240    .text.MAX31865_ExchangeByte:0000000000000064 .L0 
/var/folders/rt/4gvqv631095f64jvm7jfj_000000gn/T//ccOTUoWQ.s:242    .text.MAX31865_ExchangeByte:0000000000000066 .L0 
/var/folders/rt/4gvqv631095f64jvm7jfj_000000gn/T//ccOTUoWQ.s:244    .text.MAX31865_ExchangeByte:0000000000000068 .L0 
/var/folders/rt/4gvqv631095f64jvm7jfj_000000gn/T//ccOTUoWQ.s:246    .text.MAX31865_ExchangeByte:000000000000006a .L0 
/var/folders/rt/4gvqv631095f64jvm7jfj_000000gn/T//ccOTUoWQ.s:250    .text.MAX31865_ExchangeByte:0000000000000070 .L0 
/var/folders/rt/4gvqv631095f64jvm7jfj_000000gn/T//ccOTUoWQ.s:252    .text.MAX31865_ExchangeByte:0000000000000072 .L0 
/var/folders/rt/4gvqv631095f64jvm7jfj_000000gn/T//ccOTUoWQ.s:259    .text.MAX31865_Init:0000000000000000 MAX31865_Init
/var/folders/rt/4gvqv631095f64jvm7jfj_000000gn/T//ccOTUoWQ.s:262    .text.MAX31865_Init:0000000000000000 .L0 
/var/folders/rt/4gvqv631095f64jvm7jfj_000000gn/T//ccOTUoWQ.s:263    .text.MAX31865_Init:0000000000000000 .L0 
/var/folders/rt/4gvqv631095f64jvm7jfj_000000gn/T//ccOTUoWQ.s:264    .text.MAX31865_Init:0000000000000000 .L0 
/var/folders/rt/4gvqv631095f64jvm7jfj_000000gn/T//ccOTUoWQ.s:265    .text.MAX31865_Init:0000000000000000 .L0 
/var/folders/rt/4gvqv631095f64jvm7jfj_000000gn/T//ccOTUoWQ.s:266    .text.MAX31865_Init:0000000000000000 .L0 
/var/folders/rt/4gvqv631095f64jvm7jfj_000000gn/T//ccOTUoWQ.s:268    .text.MAX31865_Init:0000000000000002 .L0 
/var/folders/rt/4gvqv631095f64jvm7jfj_000000gn/T//ccOTUoWQ.s:270    .text.MAX31865_Init:0000000000000002 .L0 
/var/folders/rt/4gvqv631095f64jvm7jfj_000000gn/T//ccOTUoWQ.s:272    .text.MAX31865_Init:0000000000000006 .L0 
/var/folders/rt/4gvqv631095f64jvm7jfj_000000gn/T//ccOTUoWQ.s:275    .text.MAX31865_Init:000000000000000c .L0 
/var/folders/rt/4gvqv631095f64jvm7jfj_000000gn/T//ccOTUoWQ.s:276    .text.MAX31865_Init:000000000000000c .L0 
/var/folders/rt/4gvqv631095f64jvm7jfj_000000gn/T//ccOTUoWQ.s:277    .text.MAX31865_Init:000000000000000c .L0 
/var/folders/rt/4gvqv631095f64jvm7jfj_000000gn/T//ccOTUoWQ.s:279    .text.MAX31865_Init:000000000000000c .L0 
/var/folders/rt/4gvqv631095f64jvm7jfj_000000gn/T//ccOTUoWQ.s:282    .text.MAX31865_Init:0000000000000014 .L0 
/var/folders/rt/4gvqv631095f64jvm7jfj_000000gn/T//ccOTUoWQ.s:286    .text.MAX31865_Init:0000000000000020 .L0 
/var/folders/rt/4gvqv631095f64jvm7jfj_000000gn/T//ccOTUoWQ.s:290    .text.MAX31865_Init:000000000000002c .L0 
/var/folders/rt/4gvqv631095f64jvm7jfj_000000gn/T//ccOTUoWQ.s:298    .text.MAX31865_Init:0000000000000042 .L0 
/var/folders/rt/4gvqv631095f64jvm7jfj_000000gn/T//ccOTUoWQ.s:305    .text.MAX31865_Init:0000000000000054 .L0 
/var/folders/rt/4gvqv631095f64jvm7jfj_000000gn/T//ccOTUoWQ.s:312    .text.MAX31865_Init:0000000000000066 .L0 
/var/folders/rt/4gvqv631095f64jvm7jfj_000000gn/T//ccOTUoWQ.s:317    .text.MAX31865_Init:0000000000000074 .L0 
/var/folders/rt/4gvqv631095f64jvm7jfj_000000gn/T//ccOTUoWQ.s:321    .text.MAX31865_Init:000000000000007e .L0 
/var/folders/rt/4gvqv631095f64jvm7jfj_000000gn/T//ccOTUoWQ.s:322    .text.MAX31865_Init:000000000000007e .L0 
/var/folders/rt/4gvqv631095f64jvm7jfj_000000gn/T//ccOTUoWQ.s:325    .text.MAX31865_Init:0000000000000084 .L0 
/var/folders/rt/4gvqv631095f64jvm7jfj_000000gn/T//ccOTUoWQ.s:327    .text.MAX31865_Init:0000000000000086 .L0 
/var/folders/rt/4gvqv631095f64jvm7jfj_000000gn/T//ccOTUoWQ.s:329    .text.MAX31865_Init:000000000000008a .L0 
/var/folders/rt/4gvqv631095f64jvm7jfj_000000gn/T//ccOTUoWQ.s:331    .text.MAX31865_Init:000000000000008c .L0 
/var/folders/rt/4gvqv631095f64jvm7jfj_000000gn/T//ccOTUoWQ.s:333    .text.MAX31865_Init:0000000000000090 .L0 
/var/folders/rt/4gvqv631095f64jvm7jfj_000000gn/T//ccOTUoWQ.s:335    .text.MAX31865_Init:0000000000000092 .L0 
GAS LISTING /var/folders/rt/4gvqv631095f64jvm7jfj_000000gn/T//ccOTUoWQ.s 			page 28


/var/folders/rt/4gvqv631095f64jvm7jfj_000000gn/T//ccOTUoWQ.s:337    .text.MAX31865_Init:0000000000000094 .L0 
/var/folders/rt/4gvqv631095f64jvm7jfj_000000gn/T//ccOTUoWQ.s:339    .text.MAX31865_Init:0000000000000098 .L0 
/var/folders/rt/4gvqv631095f64jvm7jfj_000000gn/T//ccOTUoWQ.s:342    .text.MAX31865_Init:000000000000009e .L0 
/var/folders/rt/4gvqv631095f64jvm7jfj_000000gn/T//ccOTUoWQ.s:344    .text.MAX31865_Init:00000000000000a0 .L0 
/var/folders/rt/4gvqv631095f64jvm7jfj_000000gn/T//ccOTUoWQ.s:345    .text.MAX31865_Init:00000000000000a0 .L0 
/var/folders/rt/4gvqv631095f64jvm7jfj_000000gn/T//ccOTUoWQ.s:346    .text.MAX31865_Init:00000000000000a0 .L0 
/var/folders/rt/4gvqv631095f64jvm7jfj_000000gn/T//ccOTUoWQ.s:348    .text.MAX31865_Init:00000000000000a2 .L0 
/var/folders/rt/4gvqv631095f64jvm7jfj_000000gn/T//ccOTUoWQ.s:349    .text.MAX31865_Init:00000000000000a2 .L0 
/var/folders/rt/4gvqv631095f64jvm7jfj_000000gn/T//ccOTUoWQ.s:350    .text.MAX31865_Init:00000000000000a2 .L0 
/var/folders/rt/4gvqv631095f64jvm7jfj_000000gn/T//ccOTUoWQ.s:351    .text.MAX31865_Init:00000000000000a2 .L0 
/var/folders/rt/4gvqv631095f64jvm7jfj_000000gn/T//ccOTUoWQ.s:352    .text.MAX31865_Init:00000000000000a2 .L0 
/var/folders/rt/4gvqv631095f64jvm7jfj_000000gn/T//ccOTUoWQ.s:354    .text.MAX31865_Init:00000000000000a4 .L0 
/var/folders/rt/4gvqv631095f64jvm7jfj_000000gn/T//ccOTUoWQ.s:357    .text.MAX31865_Init:00000000000000ac .L0 
/var/folders/rt/4gvqv631095f64jvm7jfj_000000gn/T//ccOTUoWQ.s:361    .text.MAX31865_Init:00000000000000b8 .L0 
/var/folders/rt/4gvqv631095f64jvm7jfj_000000gn/T//ccOTUoWQ.s:363    .text.MAX31865_Init:00000000000000bc .L0 
/var/folders/rt/4gvqv631095f64jvm7jfj_000000gn/T//ccOTUoWQ.s:366    .text.MAX31865_Init:00000000000000c2 .L0 
/var/folders/rt/4gvqv631095f64jvm7jfj_000000gn/T//ccOTUoWQ.s:370    .text.MAX31865_Init:00000000000000ce .L0 
/var/folders/rt/4gvqv631095f64jvm7jfj_000000gn/T//ccOTUoWQ.s:371    .text.MAX31865_Init:00000000000000ce .L0 
/var/folders/rt/4gvqv631095f64jvm7jfj_000000gn/T//ccOTUoWQ.s:374    .text.MAX31865_Init:00000000000000d6 .L0 
/var/folders/rt/4gvqv631095f64jvm7jfj_000000gn/T//ccOTUoWQ.s:378    .text.MAX31865_Init:00000000000000e2 .L0 
/var/folders/rt/4gvqv631095f64jvm7jfj_000000gn/T//ccOTUoWQ.s:382    .text.MAX31865_Init:00000000000000ee .L0 
/var/folders/rt/4gvqv631095f64jvm7jfj_000000gn/T//ccOTUoWQ.s:387    .text.MAX31865_Init:00000000000000fc .L0 
/var/folders/rt/4gvqv631095f64jvm7jfj_000000gn/T//ccOTUoWQ.s:389    .text.MAX31865_Init:0000000000000100 .L0 
/var/folders/rt/4gvqv631095f64jvm7jfj_000000gn/T//ccOTUoWQ.s:390    .text.MAX31865_Init:0000000000000102 .L0 
/var/folders/rt/4gvqv631095f64jvm7jfj_000000gn/T//ccOTUoWQ.s:392    .text.MAX31865_Init:0000000000000104 .L0 
/var/folders/rt/4gvqv631095f64jvm7jfj_000000gn/T//ccOTUoWQ.s:394    .text.MAX31865_Init:0000000000000104 .L0 
/var/folders/rt/4gvqv631095f64jvm7jfj_000000gn/T//ccOTUoWQ.s:398    .text.MAX31865_Init:0000000000000110 .L0 
/var/folders/rt/4gvqv631095f64jvm7jfj_000000gn/T//ccOTUoWQ.s:399    .text.MAX31865_Init:0000000000000110 .L0 
/var/folders/rt/4gvqv631095f64jvm7jfj_000000gn/T//ccOTUoWQ.s:400    .text.MAX31865_Init:0000000000000112 .L0 
/var/folders/rt/4gvqv631095f64jvm7jfj_000000gn/T//ccOTUoWQ.s:403    .text.MAX31865_Init:0000000000000114 .L0 
/var/folders/rt/4gvqv631095f64jvm7jfj_000000gn/T//ccOTUoWQ.s:405    .text.MAX31865_Init:0000000000000116 .L0 
/var/folders/rt/4gvqv631095f64jvm7jfj_000000gn/T//ccOTUoWQ.s:412    .text.MAX31865_ReadADC:0000000000000000 MAX31865_ReadADC
/var/folders/rt/4gvqv631095f64jvm7jfj_000000gn/T//ccOTUoWQ.s:415    .text.MAX31865_ReadADC:0000000000000000 .L0 
/var/folders/rt/4gvqv631095f64jvm7jfj_000000gn/T//ccOTUoWQ.s:416    .text.MAX31865_ReadADC:0000000000000000 .L0 
/var/folders/rt/4gvqv631095f64jvm7jfj_000000gn/T//ccOTUoWQ.s:417    .text.MAX31865_ReadADC:0000000000000000 .L0 
/var/folders/rt/4gvqv631095f64jvm7jfj_000000gn/T//ccOTUoWQ.s:418    .text.MAX31865_ReadADC:0000000000000000 .L0 
/var/folders/rt/4gvqv631095f64jvm7jfj_000000gn/T//ccOTUoWQ.s:419    .text.MAX31865_ReadADC:0000000000000000 .L0 
/var/folders/rt/4gvqv631095f64jvm7jfj_000000gn/T//ccOTUoWQ.s:421    .text.MAX31865_ReadADC:0000000000000002 .L0 
/var/folders/rt/4gvqv631095f64jvm7jfj_000000gn/T//ccOTUoWQ.s:423    .text.MAX31865_ReadADC:0000000000000004 .L0 
/var/folders/rt/4gvqv631095f64jvm7jfj_000000gn/T//ccOTUoWQ.s:425    .text.MAX31865_ReadADC:0000000000000004 .L0 
/var/folders/rt/4gvqv631095f64jvm7jfj_000000gn/T//ccOTUoWQ.s:428    .text.MAX31865_ReadADC:000000000000000c .L0 
/var/folders/rt/4gvqv631095f64jvm7jfj_000000gn/T//ccOTUoWQ.s:431    .text.MAX31865_ReadADC:0000000000000010 .L0 
/var/folders/rt/4gvqv631095f64jvm7jfj_000000gn/T//ccOTUoWQ.s:433    .text.MAX31865_ReadADC:0000000000000014 .L0 
/var/folders/rt/4gvqv631095f64jvm7jfj_000000gn/T//ccOTUoWQ.s:435    .text.MAX31865_ReadADC:0000000000000018 .L0 
/var/folders/rt/4gvqv631095f64jvm7jfj_000000gn/T//ccOTUoWQ.s:436    .text.MAX31865_ReadADC:0000000000000018 .L0 
/var/folders/rt/4gvqv631095f64jvm7jfj_000000gn/T//ccOTUoWQ.s:437    .text.MAX31865_ReadADC:0000000000000018 .L0 
/var/folders/rt/4gvqv631095f64jvm7jfj_000000gn/T//ccOTUoWQ.s:438    .text.MAX31865_ReadADC:0000000000000018 .L0 
/var/folders/rt/4gvqv631095f64jvm7jfj_000000gn/T//ccOTUoWQ.s:440    .text.MAX31865_ReadADC:0000000000000018 .L0 
/var/folders/rt/4gvqv631095f64jvm7jfj_000000gn/T//ccOTUoWQ.s:442    .text.MAX31865_ReadADC:000000000000001c .L0 
/var/folders/rt/4gvqv631095f64jvm7jfj_000000gn/T//ccOTUoWQ.s:444    .text.MAX31865_ReadADC:0000000000000020 .L0 
/var/folders/rt/4gvqv631095f64jvm7jfj_000000gn/T//ccOTUoWQ.s:446    .text.MAX31865_ReadADC:0000000000000024 .L0 
/var/folders/rt/4gvqv631095f64jvm7jfj_000000gn/T//ccOTUoWQ.s:447    .text.MAX31865_ReadADC:0000000000000024 .L0 
/var/folders/rt/4gvqv631095f64jvm7jfj_000000gn/T//ccOTUoWQ.s:452    .text.MAX31865_ReadADC:0000000000000032 .L0 
/var/folders/rt/4gvqv631095f64jvm7jfj_000000gn/T//ccOTUoWQ.s:456    .text.MAX31865_ReadADC:000000000000003c .L0 
/var/folders/rt/4gvqv631095f64jvm7jfj_000000gn/T//ccOTUoWQ.s:457    .text.MAX31865_ReadADC:000000000000003c .L0 
/var/folders/rt/4gvqv631095f64jvm7jfj_000000gn/T//ccOTUoWQ.s:463    .text.MAX31865_ReadADC:000000000000004a .L0 
/var/folders/rt/4gvqv631095f64jvm7jfj_000000gn/T//ccOTUoWQ.s:464    .text.MAX31865_ReadADC:000000000000004a .L0 
GAS LISTING /var/folders/rt/4gvqv631095f64jvm7jfj_000000gn/T//ccOTUoWQ.s 			page 29


/var/folders/rt/4gvqv631095f64jvm7jfj_000000gn/T//ccOTUoWQ.s:470    .text.MAX31865_ReadADC:0000000000000058 .L0 
/var/folders/rt/4gvqv631095f64jvm7jfj_000000gn/T//ccOTUoWQ.s:474    .text.MAX31865_ReadADC:0000000000000062 .L0 
/var/folders/rt/4gvqv631095f64jvm7jfj_000000gn/T//ccOTUoWQ.s:479    .text.MAX31865_ReadADC:0000000000000070 .L0 
/var/folders/rt/4gvqv631095f64jvm7jfj_000000gn/T//ccOTUoWQ.s:481    .text.MAX31865_ReadADC:0000000000000074 .L0 
/var/folders/rt/4gvqv631095f64jvm7jfj_000000gn/T//ccOTUoWQ.s:483    .text.MAX31865_ReadADC:0000000000000078 .L0 
/var/folders/rt/4gvqv631095f64jvm7jfj_000000gn/T//ccOTUoWQ.s:485    .text.MAX31865_ReadADC:000000000000007c .L0 
/var/folders/rt/4gvqv631095f64jvm7jfj_000000gn/T//ccOTUoWQ.s:486    .text.MAX31865_ReadADC:000000000000007e .L0 
/var/folders/rt/4gvqv631095f64jvm7jfj_000000gn/T//ccOTUoWQ.s:488    .text.MAX31865_ReadADC:0000000000000080 .L0 
/var/folders/rt/4gvqv631095f64jvm7jfj_000000gn/T//ccOTUoWQ.s:491    .text.MAX31865_ReadADC:0000000000000080 .L0 
/var/folders/rt/4gvqv631095f64jvm7jfj_000000gn/T//ccOTUoWQ.s:494    .text.MAX31865_ReadADC:0000000000000088 .L0 
/var/folders/rt/4gvqv631095f64jvm7jfj_000000gn/T//ccOTUoWQ.s:496    .text.MAX31865_ReadADC:000000000000008a .L0 
/var/folders/rt/4gvqv631095f64jvm7jfj_000000gn/T//ccOTUoWQ.s:498    .text.MAX31865_ReadADC:000000000000008e .L0 
/var/folders/rt/4gvqv631095f64jvm7jfj_000000gn/T//ccOTUoWQ.s:500    .text.MAX31865_ReadADC:000000000000008e .L0 
/var/folders/rt/4gvqv631095f64jvm7jfj_000000gn/T//ccOTUoWQ.s:501    .text.MAX31865_ReadADC:000000000000008e .L0 
/var/folders/rt/4gvqv631095f64jvm7jfj_000000gn/T//ccOTUoWQ.s:502    .text.MAX31865_ReadADC:000000000000008e .L0 
/var/folders/rt/4gvqv631095f64jvm7jfj_000000gn/T//ccOTUoWQ.s:504    .text.MAX31865_ReadADC:0000000000000090 .L0 
/var/folders/rt/4gvqv631095f64jvm7jfj_000000gn/T//ccOTUoWQ.s:505    .text.MAX31865_ReadADC:0000000000000092 .L0 
/var/folders/rt/4gvqv631095f64jvm7jfj_000000gn/T//ccOTUoWQ.s:507    .text.MAX31865_ReadADC:0000000000000094 .L0 
/var/folders/rt/4gvqv631095f64jvm7jfj_000000gn/T//ccOTUoWQ.s:509    .text.MAX31865_ReadADC:0000000000000096 .L0 
/var/folders/rt/4gvqv631095f64jvm7jfj_000000gn/T//ccOTUoWQ.s:514    .text.MAX31865_ReadADC:000000000000009a .L0 
/var/folders/rt/4gvqv631095f64jvm7jfj_000000gn/T//ccOTUoWQ.s:516    .text.MAX31865_ReadADC:000000000000009c .L0 
/var/folders/rt/4gvqv631095f64jvm7jfj_000000gn/T//ccOTUoWQ.s:531    .text.read_temp:0000000000000000 read_temp
/var/folders/rt/4gvqv631095f64jvm7jfj_000000gn/T//ccOTUoWQ.s:534    .text.read_temp:0000000000000000 .L0 
/var/folders/rt/4gvqv631095f64jvm7jfj_000000gn/T//ccOTUoWQ.s:535    .text.read_temp:0000000000000000 .L0 
/var/folders/rt/4gvqv631095f64jvm7jfj_000000gn/T//ccOTUoWQ.s:537    .text.read_temp:0000000000000000 .L0 
/var/folders/rt/4gvqv631095f64jvm7jfj_000000gn/T//ccOTUoWQ.s:538    .text.read_temp:0000000000000000 .L0 
/var/folders/rt/4gvqv631095f64jvm7jfj_000000gn/T//ccOTUoWQ.s:539    .text.read_temp:0000000000000000 .L0 
/var/folders/rt/4gvqv631095f64jvm7jfj_000000gn/T//ccOTUoWQ.s:540    .text.read_temp:0000000000000000 .L0 
/var/folders/rt/4gvqv631095f64jvm7jfj_000000gn/T//ccOTUoWQ.s:541    .text.read_temp:0000000000000000 .L0 
/var/folders/rt/4gvqv631095f64jvm7jfj_000000gn/T//ccOTUoWQ.s:543    .text.read_temp:0000000000000002 .L0 
/var/folders/rt/4gvqv631095f64jvm7jfj_000000gn/T//ccOTUoWQ.s:546    .text.read_temp:0000000000000002 .L0 
/var/folders/rt/4gvqv631095f64jvm7jfj_000000gn/T//ccOTUoWQ.s:549    .text.read_temp:0000000000000006 .L0 
/var/folders/rt/4gvqv631095f64jvm7jfj_000000gn/T//ccOTUoWQ.s:550    .text.read_temp:0000000000000008 .L0 
/var/folders/rt/4gvqv631095f64jvm7jfj_000000gn/T//ccOTUoWQ.s:553    .text.read_temp:0000000000000008 .L0 
/var/folders/rt/4gvqv631095f64jvm7jfj_000000gn/T//ccOTUoWQ.s:555    .text.read_temp:000000000000000c .L0 
/var/folders/rt/4gvqv631095f64jvm7jfj_000000gn/T//ccOTUoWQ.s:558    .text.read_temp:0000000000000010 .L0 
/var/folders/rt/4gvqv631095f64jvm7jfj_000000gn/T//ccOTUoWQ.s:559    .text.read_temp:0000000000000012 .L0 
/var/folders/rt/4gvqv631095f64jvm7jfj_000000gn/T//ccOTUoWQ.s:562    .text.read_temp:0000000000000012 .L0 
/var/folders/rt/4gvqv631095f64jvm7jfj_000000gn/T//ccOTUoWQ.s:564    .text.read_temp:0000000000000016 .L0 
/var/folders/rt/4gvqv631095f64jvm7jfj_000000gn/T//ccOTUoWQ.s:567    .text.read_temp:000000000000001a .L0 
/var/folders/rt/4gvqv631095f64jvm7jfj_000000gn/T//ccOTUoWQ.s:569    .text.read_temp:000000000000001e .L0 
/var/folders/rt/4gvqv631095f64jvm7jfj_000000gn/T//ccOTUoWQ.s:570    .text.read_temp:000000000000001e .L0 
/var/folders/rt/4gvqv631095f64jvm7jfj_000000gn/T//ccOTUoWQ.s:573    .text.read_temp:000000000000001e .L0 
/var/folders/rt/4gvqv631095f64jvm7jfj_000000gn/T//ccOTUoWQ.s:576    .text.read_temp:0000000000000026 .L0 
/var/folders/rt/4gvqv631095f64jvm7jfj_000000gn/T//ccOTUoWQ.s:579    .text.read_temp:000000000000002a .L0 
/var/folders/rt/4gvqv631095f64jvm7jfj_000000gn/T//ccOTUoWQ.s:581    .text.read_temp:000000000000002e .L0 
/var/folders/rt/4gvqv631095f64jvm7jfj_000000gn/T//ccOTUoWQ.s:582    .text.read_temp:000000000000002e .L0 
/var/folders/rt/4gvqv631095f64jvm7jfj_000000gn/T//ccOTUoWQ.s:585    .text.read_temp:000000000000002e .L0 
/var/folders/rt/4gvqv631095f64jvm7jfj_000000gn/T//ccOTUoWQ.s:589    .text.read_temp:0000000000000036 .L0 
/var/folders/rt/4gvqv631095f64jvm7jfj_000000gn/T//ccOTUoWQ.s:593    .text.read_temp:000000000000003e .L0 
/var/folders/rt/4gvqv631095f64jvm7jfj_000000gn/T//ccOTUoWQ.s:594    .text.read_temp:000000000000003e .L0 
/var/folders/rt/4gvqv631095f64jvm7jfj_000000gn/T//ccOTUoWQ.s:595    .text.read_temp:000000000000003e .L0 
/var/folders/rt/4gvqv631095f64jvm7jfj_000000gn/T//ccOTUoWQ.s:596    .text.read_temp:000000000000003e .L0 
/var/folders/rt/4gvqv631095f64jvm7jfj_000000gn/T//ccOTUoWQ.s:598    .text.read_temp:000000000000003e .L0 
/var/folders/rt/4gvqv631095f64jvm7jfj_000000gn/T//ccOTUoWQ.s:600    .text.read_temp:0000000000000040 .L0 
/var/folders/rt/4gvqv631095f64jvm7jfj_000000gn/T//ccOTUoWQ.s:605    .text.read_temp:0000000000000044 .L0 
/var/folders/rt/4gvqv631095f64jvm7jfj_000000gn/T//ccOTUoWQ.s:606    .text.read_temp:0000000000000044 .L0 
GAS LISTING /var/folders/rt/4gvqv631095f64jvm7jfj_000000gn/T//ccOTUoWQ.s 			page 30


/var/folders/rt/4gvqv631095f64jvm7jfj_000000gn/T//ccOTUoWQ.s:609    .text.read_temp:000000000000004c .L0 
/var/folders/rt/4gvqv631095f64jvm7jfj_000000gn/T//ccOTUoWQ.s:610    .text.read_temp:000000000000004c .L0 
/var/folders/rt/4gvqv631095f64jvm7jfj_000000gn/T//ccOTUoWQ.s:611    .text.read_temp:000000000000004c .L0 
/var/folders/rt/4gvqv631095f64jvm7jfj_000000gn/T//ccOTUoWQ.s:612    .text.read_temp:000000000000004c .L0 
/var/folders/rt/4gvqv631095f64jvm7jfj_000000gn/T//ccOTUoWQ.s:615    .text.read_temp:0000000000000054 .L0 
/var/folders/rt/4gvqv631095f64jvm7jfj_000000gn/T//ccOTUoWQ.s:619    .text.read_temp:000000000000005e .L0 
/var/folders/rt/4gvqv631095f64jvm7jfj_000000gn/T//ccOTUoWQ.s:623    .text.read_temp:0000000000000068 .L0 
/var/folders/rt/4gvqv631095f64jvm7jfj_000000gn/T//ccOTUoWQ.s:630    .text.read_temp:000000000000007c .L0 
/var/folders/rt/4gvqv631095f64jvm7jfj_000000gn/T//ccOTUoWQ.s:635    .text.read_temp:0000000000000088 .L0 
/var/folders/rt/4gvqv631095f64jvm7jfj_000000gn/T//ccOTUoWQ.s:638    .text.read_temp:0000000000000090 .L0 
/var/folders/rt/4gvqv631095f64jvm7jfj_000000gn/T//ccOTUoWQ.s:646    .text.read_temp:000000000000009e .L0 
/var/folders/rt/4gvqv631095f64jvm7jfj_000000gn/T//ccOTUoWQ.s:648    .text.read_temp:000000000000009e .L0 
/var/folders/rt/4gvqv631095f64jvm7jfj_000000gn/T//ccOTUoWQ.s:649    .text.read_temp:000000000000009e .L0 
/var/folders/rt/4gvqv631095f64jvm7jfj_000000gn/T//ccOTUoWQ.s:654    .text.read_temp:00000000000000a0 .L0 
/var/folders/rt/4gvqv631095f64jvm7jfj_000000gn/T//ccOTUoWQ.s:660    .text.read_temp:00000000000000ac .L0 
/var/folders/rt/4gvqv631095f64jvm7jfj_000000gn/T//ccOTUoWQ.s:663    .text.read_temp:00000000000000b4 .L0 
/var/folders/rt/4gvqv631095f64jvm7jfj_000000gn/T//ccOTUoWQ.s:667    .text.read_temp:00000000000000b8 .L0 
/var/folders/rt/4gvqv631095f64jvm7jfj_000000gn/T//ccOTUoWQ.s:671    .text.read_temp:00000000000000ba .L0 
/var/folders/rt/4gvqv631095f64jvm7jfj_000000gn/T//ccOTUoWQ.s:673    .text.read_temp:00000000000000bc .L0 
/var/folders/rt/4gvqv631095f64jvm7jfj_000000gn/T//ccOTUoWQ.s:674    .text.read_temp:00000000000000bc .L0 
/var/folders/rt/4gvqv631095f64jvm7jfj_000000gn/T//ccOTUoWQ.s:680    .text.read_temp:00000000000000ce .L0 
/var/folders/rt/4gvqv631095f64jvm7jfj_000000gn/T//ccOTUoWQ.s:681    .text.read_temp:00000000000000d0 .L0 
/var/folders/rt/4gvqv631095f64jvm7jfj_000000gn/T//ccOTUoWQ.s:683    .text.read_temp:00000000000000d2 .L0 
/var/folders/rt/4gvqv631095f64jvm7jfj_000000gn/T//ccOTUoWQ.s:686    .text.read_temp:00000000000000d4 .L0 
/var/folders/rt/4gvqv631095f64jvm7jfj_000000gn/T//ccOTUoWQ.s:689    .text.read_temp:00000000000000d6 .L0 
/var/folders/rt/4gvqv631095f64jvm7jfj_000000gn/T//ccOTUoWQ.s:691    .text.read_temp:00000000000000d8 .L0 
/var/folders/rt/4gvqv631095f64jvm7jfj_000000gn/T//ccOTUoWQ.s:693    .text.read_temp:00000000000000da .L0 
/var/folders/rt/4gvqv631095f64jvm7jfj_000000gn/T//ccOTUoWQ.s:695    .text.read_temp:00000000000000dc .L0 
/var/folders/rt/4gvqv631095f64jvm7jfj_000000gn/T//ccOTUoWQ.s:697    .text.read_temp:00000000000000de .L0 
/var/folders/rt/4gvqv631095f64jvm7jfj_000000gn/T//ccOTUoWQ.s:699    .text.read_temp:00000000000000e0 .L0 
/var/folders/rt/4gvqv631095f64jvm7jfj_000000gn/T//ccOTUoWQ.s:701    .text.read_temp:00000000000000e2 .L0 
/var/folders/rt/4gvqv631095f64jvm7jfj_000000gn/T//ccOTUoWQ.s:704    .text.read_temp:00000000000000e4 .L0 
/var/folders/rt/4gvqv631095f64jvm7jfj_000000gn/T//ccOTUoWQ.s:706    .text.read_temp:00000000000000e6 .L0 
/var/folders/rt/4gvqv631095f64jvm7jfj_000000gn/T//ccOTUoWQ.s:713    .text.ADC_read:0000000000000000 ADC_read
/var/folders/rt/4gvqv631095f64jvm7jfj_000000gn/T//ccOTUoWQ.s:716    .text.ADC_read:0000000000000000 .L0 
/var/folders/rt/4gvqv631095f64jvm7jfj_000000gn/T//ccOTUoWQ.s:718    .text.ADC_read:0000000000000000 .L0 
/var/folders/rt/4gvqv631095f64jvm7jfj_000000gn/T//ccOTUoWQ.s:719    .text.ADC_read:0000000000000000 .L0 
/var/folders/rt/4gvqv631095f64jvm7jfj_000000gn/T//ccOTUoWQ.s:720    .text.ADC_read:0000000000000000 .L0 
/var/folders/rt/4gvqv631095f64jvm7jfj_000000gn/T//ccOTUoWQ.s:722    .text.ADC_read:0000000000000002 .L0 
/var/folders/rt/4gvqv631095f64jvm7jfj_000000gn/T//ccOTUoWQ.s:727    .text.ADC_read:000000000000000a .L0 
/var/folders/rt/4gvqv631095f64jvm7jfj_000000gn/T//ccOTUoWQ.s:728    .text.ADC_read:000000000000000a .L0 
/var/folders/rt/4gvqv631095f64jvm7jfj_000000gn/T//ccOTUoWQ.s:729    .text.ADC_read:000000000000000a .L0 
/var/folders/rt/4gvqv631095f64jvm7jfj_000000gn/T//ccOTUoWQ.s:730    .text.ADC_read:000000000000000a .L0 
/var/folders/rt/4gvqv631095f64jvm7jfj_000000gn/T//ccOTUoWQ.s:732    .text.ADC_read:000000000000000a .L0 
/var/folders/rt/4gvqv631095f64jvm7jfj_000000gn/T//ccOTUoWQ.s:734    .text.ADC_read:000000000000000c .L0 
/var/folders/rt/4gvqv631095f64jvm7jfj_000000gn/T//ccOTUoWQ.s:736    .text.ADC_read:000000000000000e .L0 
/var/folders/rt/4gvqv631095f64jvm7jfj_000000gn/T//ccOTUoWQ.s:738    .text.ADC_read:0000000000000012 .L0 
/var/folders/rt/4gvqv631095f64jvm7jfj_000000gn/T//ccOTUoWQ.s:742    .text.ADC_read:0000000000000016 .L0 
/var/folders/rt/4gvqv631095f64jvm7jfj_000000gn/T//ccOTUoWQ.s:750    .text.ADC_read:0000000000000028 .L0 
/var/folders/rt/4gvqv631095f64jvm7jfj_000000gn/T//ccOTUoWQ.s:754    .text.ADC_read:0000000000000032 .L0 
/var/folders/rt/4gvqv631095f64jvm7jfj_000000gn/T//ccOTUoWQ.s:756    .text.ADC_read:0000000000000036 .L0 
/var/folders/rt/4gvqv631095f64jvm7jfj_000000gn/T//ccOTUoWQ.s:759    .text.ADC_read:000000000000003e .L0 
/var/folders/rt/4gvqv631095f64jvm7jfj_000000gn/T//ccOTUoWQ.s:760    .text.ADC_read:000000000000003e .L0 
/var/folders/rt/4gvqv631095f64jvm7jfj_000000gn/T//ccOTUoWQ.s:763    .text.ADC_read:0000000000000042 .L0 
/var/folders/rt/4gvqv631095f64jvm7jfj_000000gn/T//ccOTUoWQ.s:764    .text.ADC_read:0000000000000042 .L0 
/var/folders/rt/4gvqv631095f64jvm7jfj_000000gn/T//ccOTUoWQ.s:769    .text.ADC_read:000000000000004e .L0 
/var/folders/rt/4gvqv631095f64jvm7jfj_000000gn/T//ccOTUoWQ.s:771    .text.ADC_read:0000000000000050 .L0 
GAS LISTING /var/folders/rt/4gvqv631095f64jvm7jfj_000000gn/T//ccOTUoWQ.s 			page 31


/var/folders/rt/4gvqv631095f64jvm7jfj_000000gn/T//ccOTUoWQ.s:772    .text.ADC_read:0000000000000050 .L0 
/var/folders/rt/4gvqv631095f64jvm7jfj_000000gn/T//ccOTUoWQ.s:776    .text.ADC_read:000000000000005c .L0 
/var/folders/rt/4gvqv631095f64jvm7jfj_000000gn/T//ccOTUoWQ.s:778    .text.ADC_read:000000000000005e .L0 
/var/folders/rt/4gvqv631095f64jvm7jfj_000000gn/T//ccOTUoWQ.s:781    .text.ADC_read:0000000000000060 .L0 
/var/folders/rt/4gvqv631095f64jvm7jfj_000000gn/T//ccOTUoWQ.s:782    .text.ADC_read:0000000000000060 .L0 
/var/folders/rt/4gvqv631095f64jvm7jfj_000000gn/T//ccOTUoWQ.s:784    .text.ADC_read:0000000000000064 .L0 
/var/folders/rt/4gvqv631095f64jvm7jfj_000000gn/T//ccOTUoWQ.s:785    .text.ADC_read:0000000000000064 .L0 
/var/folders/rt/4gvqv631095f64jvm7jfj_000000gn/T//ccOTUoWQ.s:786    .text.ADC_read:0000000000000064 .L0 
/var/folders/rt/4gvqv631095f64jvm7jfj_000000gn/T//ccOTUoWQ.s:789    .text.ADC_read:0000000000000068 .L0 
/var/folders/rt/4gvqv631095f64jvm7jfj_000000gn/T//ccOTUoWQ.s:793    .text.ADC_read:000000000000006c .L0 
/var/folders/rt/4gvqv631095f64jvm7jfj_000000gn/T//ccOTUoWQ.s:794    .text.ADC_read:000000000000006c .L0 
/var/folders/rt/4gvqv631095f64jvm7jfj_000000gn/T//ccOTUoWQ.s:795    .text.ADC_read:000000000000006e .L0 
/var/folders/rt/4gvqv631095f64jvm7jfj_000000gn/T//ccOTUoWQ.s:796    .text.ADC_read:000000000000006e .L0 
/var/folders/rt/4gvqv631095f64jvm7jfj_000000gn/T//ccOTUoWQ.s:798    .text.ADC_read:0000000000000070 .L0 
/var/folders/rt/4gvqv631095f64jvm7jfj_000000gn/T//ccOTUoWQ.s:801    .text.ADC_read:0000000000000072 .L0 
/var/folders/rt/4gvqv631095f64jvm7jfj_000000gn/T//ccOTUoWQ.s:803    .text.ADC_read:0000000000000074 .L0 
/var/folders/rt/4gvqv631095f64jvm7jfj_000000gn/T//ccOTUoWQ.s:806    .text.ADC_read:0000000000000076 .L0 
/var/folders/rt/4gvqv631095f64jvm7jfj_000000gn/T//ccOTUoWQ.s:811    .text.ADC_read:0000000000000078 .L0 
/var/folders/rt/4gvqv631095f64jvm7jfj_000000gn/T//ccOTUoWQ.s:813    .text.ADC_read:0000000000000078 .L0 
/var/folders/rt/4gvqv631095f64jvm7jfj_000000gn/T//ccOTUoWQ.s:814    .text.ADC_read:0000000000000078 .L0 
/var/folders/rt/4gvqv631095f64jvm7jfj_000000gn/T//ccOTUoWQ.s:817    .text.ADC_read:000000000000007e .L0 
/var/folders/rt/4gvqv631095f64jvm7jfj_000000gn/T//ccOTUoWQ.s:823    .text.ADC_read:0000000000000084 .L0 
/var/folders/rt/4gvqv631095f64jvm7jfj_000000gn/T//ccOTUoWQ.s:824    .text.ADC_read:0000000000000084 .L0 
/var/folders/rt/4gvqv631095f64jvm7jfj_000000gn/T//ccOTUoWQ.s:827    .text.ADC_read:000000000000008a .L0 
/var/folders/rt/4gvqv631095f64jvm7jfj_000000gn/T//ccOTUoWQ.s:828    .text.ADC_read:000000000000008a .L0 
/var/folders/rt/4gvqv631095f64jvm7jfj_000000gn/T//ccOTUoWQ.s:834    .text.ADC_read:0000000000000092 .L0 
/var/folders/rt/4gvqv631095f64jvm7jfj_000000gn/T//ccOTUoWQ.s:839    .text.ADC_read:0000000000000098 .L0 
/var/folders/rt/4gvqv631095f64jvm7jfj_000000gn/T//ccOTUoWQ.s:840    .text.ADC_read:0000000000000098 .L0 
/var/folders/rt/4gvqv631095f64jvm7jfj_000000gn/T//ccOTUoWQ.s:842    .text.ADC_read:000000000000009c .L0 
/var/folders/rt/4gvqv631095f64jvm7jfj_000000gn/T//ccOTUoWQ.s:849    .text.T1powerUpInitPWM:0000000000000000 T1powerUpInitPWM
/var/folders/rt/4gvqv631095f64jvm7jfj_000000gn/T//ccOTUoWQ.s:852    .text.T1powerUpInitPWM:0000000000000000 .L0 
/var/folders/rt/4gvqv631095f64jvm7jfj_000000gn/T//ccOTUoWQ.s:854    .text.T1powerUpInitPWM:0000000000000000 .L0 
/var/folders/rt/4gvqv631095f64jvm7jfj_000000gn/T//ccOTUoWQ.s:855    .text.T1powerUpInitPWM:0000000000000000 .L0 
/var/folders/rt/4gvqv631095f64jvm7jfj_000000gn/T//ccOTUoWQ.s:856    .text.T1powerUpInitPWM:0000000000000000 .L0 
/var/folders/rt/4gvqv631095f64jvm7jfj_000000gn/T//ccOTUoWQ.s:857    .text.T1powerUpInitPWM:0000000000000000 .L0 
/var/folders/rt/4gvqv631095f64jvm7jfj_000000gn/T//ccOTUoWQ.s:858    .text.T1powerUpInitPWM:0000000000000000 .L0 
/var/folders/rt/4gvqv631095f64jvm7jfj_000000gn/T//ccOTUoWQ.s:860    .text.T1powerUpInitPWM:0000000000000002 .L0 
/var/folders/rt/4gvqv631095f64jvm7jfj_000000gn/T//ccOTUoWQ.s:862    .text.T1powerUpInitPWM:0000000000000004 .L0 
/var/folders/rt/4gvqv631095f64jvm7jfj_000000gn/T//ccOTUoWQ.s:865    .text.T1powerUpInitPWM:0000000000000006 .L0 
/var/folders/rt/4gvqv631095f64jvm7jfj_000000gn/T//ccOTUoWQ.s:868    .text.T1powerUpInitPWM:000000000000000a .L0 
/var/folders/rt/4gvqv631095f64jvm7jfj_000000gn/T//ccOTUoWQ.s:869    .text.T1powerUpInitPWM:000000000000000c .L0 
/var/folders/rt/4gvqv631095f64jvm7jfj_000000gn/T//ccOTUoWQ.s:871    .text.T1powerUpInitPWM:000000000000000c .L0 
/var/folders/rt/4gvqv631095f64jvm7jfj_000000gn/T//ccOTUoWQ.s:874    .text.T1powerUpInitPWM:0000000000000014 .L0 
/var/folders/rt/4gvqv631095f64jvm7jfj_000000gn/T//ccOTUoWQ.s:879    .text.T1powerUpInitPWM:0000000000000022 .L0 
/var/folders/rt/4gvqv631095f64jvm7jfj_000000gn/T//ccOTUoWQ.s:880    .text.T1powerUpInitPWM:0000000000000022 .L0 
/var/folders/rt/4gvqv631095f64jvm7jfj_000000gn/T//ccOTUoWQ.s:882    .text.T1powerUpInitPWM:0000000000000024 .L0 
/var/folders/rt/4gvqv631095f64jvm7jfj_000000gn/T//ccOTUoWQ.s:891    .text.T1powerUpInitPWM:000000000000003a .L0 
/var/folders/rt/4gvqv631095f64jvm7jfj_000000gn/T//ccOTUoWQ.s:895    .text.T1powerUpInitPWM:0000000000000046 .L0 
/var/folders/rt/4gvqv631095f64jvm7jfj_000000gn/T//ccOTUoWQ.s:899    .text.T1powerUpInitPWM:0000000000000052 .L0 
/var/folders/rt/4gvqv631095f64jvm7jfj_000000gn/T//ccOTUoWQ.s:903    .text.T1powerUpInitPWM:000000000000005c .L0 
/var/folders/rt/4gvqv631095f64jvm7jfj_000000gn/T//ccOTUoWQ.s:904    .text.T1powerUpInitPWM:000000000000005c .L0 
/var/folders/rt/4gvqv631095f64jvm7jfj_000000gn/T//ccOTUoWQ.s:905    .text.T1powerUpInitPWM:000000000000005c .L0 
/var/folders/rt/4gvqv631095f64jvm7jfj_000000gn/T//ccOTUoWQ.s:906    .text.T1powerUpInitPWM:000000000000005c .L0 
/var/folders/rt/4gvqv631095f64jvm7jfj_000000gn/T//ccOTUoWQ.s:909    .text.T1powerUpInitPWM:0000000000000062 .L0 
/var/folders/rt/4gvqv631095f64jvm7jfj_000000gn/T//ccOTUoWQ.s:912    .text.T1powerUpInitPWM:0000000000000068 .L0 
/var/folders/rt/4gvqv631095f64jvm7jfj_000000gn/T//ccOTUoWQ.s:915    .text.T1powerUpInitPWM:000000000000006e .L0 
/var/folders/rt/4gvqv631095f64jvm7jfj_000000gn/T//ccOTUoWQ.s:917    .text.T1powerUpInitPWM:0000000000000070 .L0 
GAS LISTING /var/folders/rt/4gvqv631095f64jvm7jfj_000000gn/T//ccOTUoWQ.s 			page 32


/var/folders/rt/4gvqv631095f64jvm7jfj_000000gn/T//ccOTUoWQ.s:919    .text.T1powerUpInitPWM:0000000000000074 .L0 
/var/folders/rt/4gvqv631095f64jvm7jfj_000000gn/T//ccOTUoWQ.s:920    .text.T1powerUpInitPWM:0000000000000074 .L0 
/var/folders/rt/4gvqv631095f64jvm7jfj_000000gn/T//ccOTUoWQ.s:921    .text.T1powerUpInitPWM:0000000000000074 .L0 
/var/folders/rt/4gvqv631095f64jvm7jfj_000000gn/T//ccOTUoWQ.s:923    .text.T1powerUpInitPWM:0000000000000078 .L0 
/var/folders/rt/4gvqv631095f64jvm7jfj_000000gn/T//ccOTUoWQ.s:924    .text.T1powerUpInitPWM:0000000000000078 .L0 
/var/folders/rt/4gvqv631095f64jvm7jfj_000000gn/T//ccOTUoWQ.s:926    .text.T1powerUpInitPWM:000000000000007c .L0 
/var/folders/rt/4gvqv631095f64jvm7jfj_000000gn/T//ccOTUoWQ.s:929    .text.T1powerUpInitPWM:0000000000000084 .L0 
/var/folders/rt/4gvqv631095f64jvm7jfj_000000gn/T//ccOTUoWQ.s:933    .text.T1powerUpInitPWM:000000000000008e .L0 
/var/folders/rt/4gvqv631095f64jvm7jfj_000000gn/T//ccOTUoWQ.s:934    .text.T1powerUpInitPWM:000000000000008e .L0 
/var/folders/rt/4gvqv631095f64jvm7jfj_000000gn/T//ccOTUoWQ.s:935    .text.T1powerUpInitPWM:000000000000008e .L0 
/var/folders/rt/4gvqv631095f64jvm7jfj_000000gn/T//ccOTUoWQ.s:936    .text.T1powerUpInitPWM:000000000000008e .L0 
/var/folders/rt/4gvqv631095f64jvm7jfj_000000gn/T//ccOTUoWQ.s:937    .text.T1powerUpInitPWM:000000000000008e .L0 
/var/folders/rt/4gvqv631095f64jvm7jfj_000000gn/T//ccOTUoWQ.s:938    .text.T1powerUpInitPWM:000000000000008e .L0 
/var/folders/rt/4gvqv631095f64jvm7jfj_000000gn/T//ccOTUoWQ.s:939    .text.T1powerUpInitPWM:000000000000008e .L0 
/var/folders/rt/4gvqv631095f64jvm7jfj_000000gn/T//ccOTUoWQ.s:942    .text.T1powerUpInitPWM:0000000000000092 .L0 
/var/folders/rt/4gvqv631095f64jvm7jfj_000000gn/T//ccOTUoWQ.s:944    .text.T1powerUpInitPWM:0000000000000094 .L0 
/var/folders/rt/4gvqv631095f64jvm7jfj_000000gn/T//ccOTUoWQ.s:946    .text.T1powerUpInitPWM:0000000000000096 .L0 
/var/folders/rt/4gvqv631095f64jvm7jfj_000000gn/T//ccOTUoWQ.s:947    .text.T1powerUpInitPWM:0000000000000096 .L0 
/var/folders/rt/4gvqv631095f64jvm7jfj_000000gn/T//ccOTUoWQ.s:949    .text.T1powerUpInitPWM:0000000000000098 .L0 
/var/folders/rt/4gvqv631095f64jvm7jfj_000000gn/T//ccOTUoWQ.s:955    .text.T1powerUpInitPWM:00000000000000a8 .L0 
/var/folders/rt/4gvqv631095f64jvm7jfj_000000gn/T//ccOTUoWQ.s:956    .text.T1powerUpInitPWM:00000000000000a8 .L0 
/var/folders/rt/4gvqv631095f64jvm7jfj_000000gn/T//ccOTUoWQ.s:963    .text.T1powerUpInitPWM:00000000000000bc .L0 
/var/folders/rt/4gvqv631095f64jvm7jfj_000000gn/T//ccOTUoWQ.s:969    .text.T1powerUpInitPWM:00000000000000ce .L0 
/var/folders/rt/4gvqv631095f64jvm7jfj_000000gn/T//ccOTUoWQ.s:976    .text.T1powerUpInitPWM:00000000000000de .L0 
/var/folders/rt/4gvqv631095f64jvm7jfj_000000gn/T//ccOTUoWQ.s:980    .text.T1powerUpInitPWM:00000000000000ea .L0 
/var/folders/rt/4gvqv631095f64jvm7jfj_000000gn/T//ccOTUoWQ.s:984    .text.T1powerUpInitPWM:00000000000000f6 .L0 
/var/folders/rt/4gvqv631095f64jvm7jfj_000000gn/T//ccOTUoWQ.s:985    .text.T1powerUpInitPWM:00000000000000f8 .L0 
/var/folders/rt/4gvqv631095f64jvm7jfj_000000gn/T//ccOTUoWQ.s:987    .text.T1powerUpInitPWM:00000000000000fa .L0 
/var/folders/rt/4gvqv631095f64jvm7jfj_000000gn/T//ccOTUoWQ.s:990    .text.T1powerUpInitPWM:00000000000000fc .L0 
/var/folders/rt/4gvqv631095f64jvm7jfj_000000gn/T//ccOTUoWQ.s:992    .text.T1powerUpInitPWM:00000000000000fe .L0 
/var/folders/rt/4gvqv631095f64jvm7jfj_000000gn/T//ccOTUoWQ.s:999    .text.T1setPWMch0:0000000000000000 T1setPWMch0
/var/folders/rt/4gvqv631095f64jvm7jfj_000000gn/T//ccOTUoWQ.s:1002   .text.T1setPWMch0:0000000000000000 .L0 
/var/folders/rt/4gvqv631095f64jvm7jfj_000000gn/T//ccOTUoWQ.s:1004   .text.T1setPWMch0:0000000000000000 .L0 
/var/folders/rt/4gvqv631095f64jvm7jfj_000000gn/T//ccOTUoWQ.s:1005   .text.T1setPWMch0:0000000000000000 .L0 
/var/folders/rt/4gvqv631095f64jvm7jfj_000000gn/T//ccOTUoWQ.s:1011   .text.T1setPWMch0:0000000000000010 .L0 
/var/folders/rt/4gvqv631095f64jvm7jfj_000000gn/T//ccOTUoWQ.s:166    .text.ADC3powerUpInit:0000000000000140 .L0 
/var/folders/rt/4gvqv631095f64jvm7jfj_000000gn/T//ccOTUoWQ.s:255    .text.MAX31865_ExchangeByte:0000000000000072 .L0 
/var/folders/rt/4gvqv631095f64jvm7jfj_000000gn/T//ccOTUoWQ.s:408    .text.MAX31865_Init:0000000000000116 .L0 
/var/folders/rt/4gvqv631095f64jvm7jfj_000000gn/T//ccOTUoWQ.s:527    .text.MAX31865_ReadADC:000000000000009c .L0 
/var/folders/rt/4gvqv631095f64jvm7jfj_000000gn/T//ccOTUoWQ.s:709    .text.read_temp:00000000000000e6 .L0 
/var/folders/rt/4gvqv631095f64jvm7jfj_000000gn/T//ccOTUoWQ.s:845    .text.ADC_read:000000000000009c .L0 
/var/folders/rt/4gvqv631095f64jvm7jfj_000000gn/T//ccOTUoWQ.s:995    .text.T1powerUpInitPWM:00000000000000fe .L0 
/var/folders/rt/4gvqv631095f64jvm7jfj_000000gn/T//ccOTUoWQ.s:1014   .text.T1setPWMch0:0000000000000010 .L0 
                     .debug_frame:0000000000000000 .L0 
/var/folders/rt/4gvqv631095f64jvm7jfj_000000gn/T//ccOTUoWQ.s:130    .text.ADC3powerUpInit:000000000000010e .L2
/var/folders/rt/4gvqv631095f64jvm7jfj_000000gn/T//ccOTUoWQ.s:204    .text.MAX31865_ExchangeByte:0000000000000024 .L8
/var/folders/rt/4gvqv631095f64jvm7jfj_000000gn/T//ccOTUoWQ.s:224    .text.MAX31865_ExchangeByte:0000000000000048 .L9
/var/folders/rt/4gvqv631095f64jvm7jfj_000000gn/T//ccOTUoWQ.s:1016   .rodata.read_temp.cst4:0000000000000000 .LC0
/var/folders/rt/4gvqv631095f64jvm7jfj_000000gn/T//ccOTUoWQ.s:1018   .rodata.read_temp.cst4:0000000000000004 .LC1
/var/folders/rt/4gvqv631095f64jvm7jfj_000000gn/T//ccOTUoWQ.s:1024   .rodata.read_temp.cst8:0000000000000000 .LC2
/var/folders/rt/4gvqv631095f64jvm7jfj_000000gn/T//ccOTUoWQ.s:1027   .rodata.read_temp.cst8:0000000000000008 .LC3
/var/folders/rt/4gvqv631095f64jvm7jfj_000000gn/T//ccOTUoWQ.s:1020   .rodata.read_temp.cst4:0000000000000008 .LC4
/var/folders/rt/4gvqv631095f64jvm7jfj_000000gn/T//ccOTUoWQ.s:651    .text.read_temp:00000000000000a0 .L20
/var/folders/rt/4gvqv631095f64jvm7jfj_000000gn/T//ccOTUoWQ.s:602    .text.read_temp:0000000000000044 .L21
/var/folders/rt/4gvqv631095f64jvm7jfj_000000gn/T//ccOTUoWQ.s:809    .text.ADC_read:0000000000000078 .L26
/var/folders/rt/4gvqv631095f64jvm7jfj_000000gn/T//ccOTUoWQ.s:761    .text.ADC_read:0000000000000042 .L28
/var/folders/rt/4gvqv631095f64jvm7jfj_000000gn/T//ccOTUoWQ.s:821    .text.ADC_read:0000000000000084 .L29
GAS LISTING /var/folders/rt/4gvqv631095f64jvm7jfj_000000gn/T//ccOTUoWQ.s 			page 33


/var/folders/rt/4gvqv631095f64jvm7jfj_000000gn/T//ccOTUoWQ.s:748    .text.ADC_read:0000000000000028 .L27
/var/folders/rt/4gvqv631095f64jvm7jfj_000000gn/T//ccOTUoWQ.s:740    .text.ADC_read:0000000000000016 .L35
/var/folders/rt/4gvqv631095f64jvm7jfj_000000gn/T//ccOTUoWQ.s:792    .text.ADC_read:000000000000006c .L25
/var/folders/rt/4gvqv631095f64jvm7jfj_000000gn/T//ccOTUoWQ.s:836    .text.ADC_read:0000000000000098 .L31
/var/folders/rt/4gvqv631095f64jvm7jfj_000000gn/T//ccOTUoWQ.s:787    .text.ADC_read:0000000000000068 .L36
/var/folders/rt/4gvqv631095f64jvm7jfj_000000gn/T//ccOTUoWQ.s:889    .text.T1powerUpInitPWM:000000000000003a .L38
/var/folders/rt/4gvqv631095f64jvm7jfj_000000gn/T//ccOTUoWQ.s:974    .text.T1powerUpInitPWM:00000000000000de .L39
/var/folders/rt/4gvqv631095f64jvm7jfj_000000gn/T//ccOTUoWQ.s:4476   .debug_abbrev:0000000000000000 .Ldebug_abbrev0
/var/folders/rt/4gvqv631095f64jvm7jfj_000000gn/T//ccOTUoWQ.s:5849   .debug_str:00000000000001be .LASF252
/var/folders/rt/4gvqv631095f64jvm7jfj_000000gn/T//ccOTUoWQ.s:6061   .debug_str:0000000000000749 .LASF253
/var/folders/rt/4gvqv631095f64jvm7jfj_000000gn/T//ccOTUoWQ.s:5913   .debug_str:00000000000003b2 .LASF254
/var/folders/rt/4gvqv631095f64jvm7jfj_000000gn/T//ccOTUoWQ.s:5733   .debug_ranges:0000000000000000 .Ldebug_ranges0
/var/folders/rt/4gvqv631095f64jvm7jfj_000000gn/T//ccOTUoWQ.s:5773   .debug_line:0000000000000000 .Ldebug_line0
/var/folders/rt/4gvqv631095f64jvm7jfj_000000gn/T//ccOTUoWQ.s:6053   .debug_str:000000000000070a .LASF0
/var/folders/rt/4gvqv631095f64jvm7jfj_000000gn/T//ccOTUoWQ.s:6037   .debug_str:00000000000006ba .LASF1
/var/folders/rt/4gvqv631095f64jvm7jfj_000000gn/T//ccOTUoWQ.s:6259   .debug_str:0000000000000bdb .LASF2
/var/folders/rt/4gvqv631095f64jvm7jfj_000000gn/T//ccOTUoWQ.s:5895   .debug_str:0000000000000341 .LASF3
/var/folders/rt/4gvqv631095f64jvm7jfj_000000gn/T//ccOTUoWQ.s:5861   .debug_str:0000000000000294 .LASF6
/var/folders/rt/4gvqv631095f64jvm7jfj_000000gn/T//ccOTUoWQ.s:5905   .debug_str:0000000000000371 .LASF4
/var/folders/rt/4gvqv631095f64jvm7jfj_000000gn/T//ccOTUoWQ.s:6201   .debug_str:0000000000000aa9 .LASF5
/var/folders/rt/4gvqv631095f64jvm7jfj_000000gn/T//ccOTUoWQ.s:5933   .debug_str:000000000000044c .LASF7
/var/folders/rt/4gvqv631095f64jvm7jfj_000000gn/T//ccOTUoWQ.s:5869   .debug_str:00000000000002c0 .LASF8
/var/folders/rt/4gvqv631095f64jvm7jfj_000000gn/T//ccOTUoWQ.s:6009   .debug_str:000000000000062a .LASF9
/var/folders/rt/4gvqv631095f64jvm7jfj_000000gn/T//ccOTUoWQ.s:5965   .debug_str:000000000000052a .LASF10
/var/folders/rt/4gvqv631095f64jvm7jfj_000000gn/T//ccOTUoWQ.s:6017   .debug_str:0000000000000652 .LASF11
/var/folders/rt/4gvqv631095f64jvm7jfj_000000gn/T//ccOTUoWQ.s:6129   .debug_str:00000000000008e2 .LASF12
/var/folders/rt/4gvqv631095f64jvm7jfj_000000gn/T//ccOTUoWQ.s:6057   .debug_str:0000000000000727 .LASF13
/var/folders/rt/4gvqv631095f64jvm7jfj_000000gn/T//ccOTUoWQ.s:6109   .debug_str:0000000000000884 .LASF14
/var/folders/rt/4gvqv631095f64jvm7jfj_000000gn/T//ccOTUoWQ.s:6185   .debug_str:0000000000000a63 .LASF15
/var/folders/rt/4gvqv631095f64jvm7jfj_000000gn/T//ccOTUoWQ.s:6255   .debug_str:0000000000000bcf .LASF16
/var/folders/rt/4gvqv631095f64jvm7jfj_000000gn/T//ccOTUoWQ.s:6119   .debug_str:00000000000008ae .LASF17
/var/folders/rt/4gvqv631095f64jvm7jfj_000000gn/T//ccOTUoWQ.s:5779   .debug_str:000000000000002d .LASF18
/var/folders/rt/4gvqv631095f64jvm7jfj_000000gn/T//ccOTUoWQ.s:5859   .debug_str:000000000000028e .LASF19
/var/folders/rt/4gvqv631095f64jvm7jfj_000000gn/T//ccOTUoWQ.s:6121   .debug_str:00000000000008b6 .LASF20
/var/folders/rt/4gvqv631095f64jvm7jfj_000000gn/T//ccOTUoWQ.s:6097   .debug_str:0000000000000812 .LASF21
/var/folders/rt/4gvqv631095f64jvm7jfj_000000gn/T//ccOTUoWQ.s:5783   .debug_str:0000000000000041 .LASF22
/var/folders/rt/4gvqv631095f64jvm7jfj_000000gn/T//ccOTUoWQ.s:6173   .debug_str:0000000000000a1c .LASF23
/var/folders/rt/4gvqv631095f64jvm7jfj_000000gn/T//ccOTUoWQ.s:6237   .debug_str:0000000000000b5b .LASF24
/var/folders/rt/4gvqv631095f64jvm7jfj_000000gn/T//ccOTUoWQ.s:5983   .debug_str:0000000000000594 .LASF25
/var/folders/rt/4gvqv631095f64jvm7jfj_000000gn/T//ccOTUoWQ.s:6163   .debug_str:00000000000009e9 .LASF26
/var/folders/rt/4gvqv631095f64jvm7jfj_000000gn/T//ccOTUoWQ.s:5989   .debug_str:00000000000005b9 .LASF31
/var/folders/rt/4gvqv631095f64jvm7jfj_000000gn/T//ccOTUoWQ.s:6187   .debug_str:0000000000000a6a .LASF27
/var/folders/rt/4gvqv631095f64jvm7jfj_000000gn/T//ccOTUoWQ.s:5995   .debug_str:00000000000005de .LASF28
/var/folders/rt/4gvqv631095f64jvm7jfj_000000gn/T//ccOTUoWQ.s:6049   .debug_str:00000000000006f7 .LASF29
/var/folders/rt/4gvqv631095f64jvm7jfj_000000gn/T//ccOTUoWQ.s:5943   .debug_str:000000000000049e .LASF30
/var/folders/rt/4gvqv631095f64jvm7jfj_000000gn/T//ccOTUoWQ.s:5809   .debug_str:00000000000000d6 .LASF32
/var/folders/rt/4gvqv631095f64jvm7jfj_000000gn/T//ccOTUoWQ.s:5815   .debug_str:00000000000000f2 .LASF33
/var/folders/rt/4gvqv631095f64jvm7jfj_000000gn/T//ccOTUoWQ.s:6283   .debug_str:0000000000000c82 .LASF34
/var/folders/rt/4gvqv631095f64jvm7jfj_000000gn/T//ccOTUoWQ.s:6261   .debug_str:0000000000000bee .LASF35
/var/folders/rt/4gvqv631095f64jvm7jfj_000000gn/T//ccOTUoWQ.s:6073   .debug_str:0000000000000791 .LASF36
/var/folders/rt/4gvqv631095f64jvm7jfj_000000gn/T//ccOTUoWQ.s:5881   .debug_str:0000000000000301 .LASF37
/var/folders/rt/4gvqv631095f64jvm7jfj_000000gn/T//ccOTUoWQ.s:6211   .debug_str:0000000000000ad6 .LASF38
/var/folders/rt/4gvqv631095f64jvm7jfj_000000gn/T//ccOTUoWQ.s:6105   .debug_str:0000000000000872 .LASF39
/var/folders/rt/4gvqv631095f64jvm7jfj_000000gn/T//ccOTUoWQ.s:6111   .debug_str:0000000000000890 .LASF40
/var/folders/rt/4gvqv631095f64jvm7jfj_000000gn/T//ccOTUoWQ.s:6275   .debug_str:0000000000000c59 .LASF41
/var/folders/rt/4gvqv631095f64jvm7jfj_000000gn/T//ccOTUoWQ.s:5865   .debug_str:00000000000002a4 .LASF42
/var/folders/rt/4gvqv631095f64jvm7jfj_000000gn/T//ccOTUoWQ.s:6273   .debug_str:0000000000000c51 .LASF43
GAS LISTING /var/folders/rt/4gvqv631095f64jvm7jfj_000000gn/T//ccOTUoWQ.s 			page 34


/var/folders/rt/4gvqv631095f64jvm7jfj_000000gn/T//ccOTUoWQ.s:6135   .debug_str:0000000000000920 .LASF44
/var/folders/rt/4gvqv631095f64jvm7jfj_000000gn/T//ccOTUoWQ.s:6205   .debug_str:0000000000000abd .LASF45
/var/folders/rt/4gvqv631095f64jvm7jfj_000000gn/T//ccOTUoWQ.s:6229   .debug_str:0000000000000b3b .LASF46
/var/folders/rt/4gvqv631095f64jvm7jfj_000000gn/T//ccOTUoWQ.s:6093   .debug_str:0000000000000800 .LASF47
/var/folders/rt/4gvqv631095f64jvm7jfj_000000gn/T//ccOTUoWQ.s:6223   .debug_str:0000000000000b22 .LASF48
/var/folders/rt/4gvqv631095f64jvm7jfj_000000gn/T//ccOTUoWQ.s:5921   .debug_str:0000000000000409 .LASF49
/var/folders/rt/4gvqv631095f64jvm7jfj_000000gn/T//ccOTUoWQ.s:6227   .debug_str:0000000000000b34 .LASF50
/var/folders/rt/4gvqv631095f64jvm7jfj_000000gn/T//ccOTUoWQ.s:6143   .debug_str:0000000000000945 .LASF51
/var/folders/rt/4gvqv631095f64jvm7jfj_000000gn/T//ccOTUoWQ.s:5875   .debug_str:00000000000002df .LASF52
/var/folders/rt/4gvqv631095f64jvm7jfj_000000gn/T//ccOTUoWQ.s:5969   .debug_str:000000000000054b .LASF53
/var/folders/rt/4gvqv631095f64jvm7jfj_000000gn/T//ccOTUoWQ.s:6089   .debug_str:00000000000007dd .LASF54
/var/folders/rt/4gvqv631095f64jvm7jfj_000000gn/T//ccOTUoWQ.s:5863   .debug_str:000000000000029e .LASF55
/var/folders/rt/4gvqv631095f64jvm7jfj_000000gn/T//ccOTUoWQ.s:6217   .debug_str:0000000000000b09 .LASF56
/var/folders/rt/4gvqv631095f64jvm7jfj_000000gn/T//ccOTUoWQ.s:5941   .debug_str:0000000000000496 .LASF57
/var/folders/rt/4gvqv631095f64jvm7jfj_000000gn/T//ccOTUoWQ.s:5789   .debug_str:000000000000005a .LASF58
/var/folders/rt/4gvqv631095f64jvm7jfj_000000gn/T//ccOTUoWQ.s:5793   .debug_str:0000000000000068 .LASF59
/var/folders/rt/4gvqv631095f64jvm7jfj_000000gn/T//ccOTUoWQ.s:6117   .debug_str:00000000000008a8 .LASF60
/var/folders/rt/4gvqv631095f64jvm7jfj_000000gn/T//ccOTUoWQ.s:5927   .debug_str:000000000000042e .LASF61
/var/folders/rt/4gvqv631095f64jvm7jfj_000000gn/T//ccOTUoWQ.s:6079   .debug_str:00000000000007ad .LASF62
/var/folders/rt/4gvqv631095f64jvm7jfj_000000gn/T//ccOTUoWQ.s:5813   .debug_str:00000000000000ec .LASF63
/var/folders/rt/4gvqv631095f64jvm7jfj_000000gn/T//ccOTUoWQ.s:6141   .debug_str:000000000000093c .LASF64
/var/folders/rt/4gvqv631095f64jvm7jfj_000000gn/T//ccOTUoWQ.s:5949   .debug_str:00000000000004b9 .LASF65
/var/folders/rt/4gvqv631095f64jvm7jfj_000000gn/T//ccOTUoWQ.s:6189   .debug_str:0000000000000a70 .LASF66
/var/folders/rt/4gvqv631095f64jvm7jfj_000000gn/T//ccOTUoWQ.s:5845   .debug_str:00000000000001a3 .LASF67
/var/folders/rt/4gvqv631095f64jvm7jfj_000000gn/T//ccOTUoWQ.s:6085   .debug_str:00000000000007c9 .LASF68
/var/folders/rt/4gvqv631095f64jvm7jfj_000000gn/T//ccOTUoWQ.s:5973   .debug_str:000000000000055e .LASF69
/var/folders/rt/4gvqv631095f64jvm7jfj_000000gn/T//ccOTUoWQ.s:5909   .debug_str:0000000000000398 .LASF70
/var/folders/rt/4gvqv631095f64jvm7jfj_000000gn/T//ccOTUoWQ.s:5985   .debug_str:00000000000005a6 .LASF71
/var/folders/rt/4gvqv631095f64jvm7jfj_000000gn/T//ccOTUoWQ.s:5935   .debug_str:0000000000000457 .LASF72
/var/folders/rt/4gvqv631095f64jvm7jfj_000000gn/T//ccOTUoWQ.s:6139   .debug_str:0000000000000934 .LASF73
/var/folders/rt/4gvqv631095f64jvm7jfj_000000gn/T//ccOTUoWQ.s:6081   .debug_str:00000000000007b3 .LASF74
/var/folders/rt/4gvqv631095f64jvm7jfj_000000gn/T//ccOTUoWQ.s:6221   .debug_str:0000000000000b1d .LASF75
/var/folders/rt/4gvqv631095f64jvm7jfj_000000gn/T//ccOTUoWQ.s:6011   .debug_str:0000000000000635 .LASF76
/var/folders/rt/4gvqv631095f64jvm7jfj_000000gn/T//ccOTUoWQ.s:5907   .debug_str:000000000000037f .LASF77
/var/folders/rt/4gvqv631095f64jvm7jfj_000000gn/T//ccOTUoWQ.s:6235   .debug_str:0000000000000b53 .LASF78
/var/folders/rt/4gvqv631095f64jvm7jfj_000000gn/T//ccOTUoWQ.s:5971   .debug_str:0000000000000553 .LASF79
/var/folders/rt/4gvqv631095f64jvm7jfj_000000gn/T//ccOTUoWQ.s:5999   .debug_str:00000000000005f0 .LASF80
/var/folders/rt/4gvqv631095f64jvm7jfj_000000gn/T//ccOTUoWQ.s:6247   .debug_str:0000000000000b98 .LASF81
/var/folders/rt/4gvqv631095f64jvm7jfj_000000gn/T//ccOTUoWQ.s:5873   .debug_str:00000000000002d5 .LASF82
/var/folders/rt/4gvqv631095f64jvm7jfj_000000gn/T//ccOTUoWQ.s:5963   .debug_str:0000000000000525 .LASF83
/var/folders/rt/4gvqv631095f64jvm7jfj_000000gn/T//ccOTUoWQ.s:6043   .debug_str:00000000000006e1 .LASF84
/var/folders/rt/4gvqv631095f64jvm7jfj_000000gn/T//ccOTUoWQ.s:5799   .debug_str:000000000000008c .LASF85
/var/folders/rt/4gvqv631095f64jvm7jfj_000000gn/T//ccOTUoWQ.s:5951   .debug_str:00000000000004c1 .LASF86
/var/folders/rt/4gvqv631095f64jvm7jfj_000000gn/T//ccOTUoWQ.s:6077   .debug_str:00000000000007a8 .LASF87
/var/folders/rt/4gvqv631095f64jvm7jfj_000000gn/T//ccOTUoWQ.s:6001   .debug_str:00000000000005fa .LASF88
/var/folders/rt/4gvqv631095f64jvm7jfj_000000gn/T//ccOTUoWQ.s:5945   .debug_str:00000000000004a3 .LASF89
/var/folders/rt/4gvqv631095f64jvm7jfj_000000gn/T//ccOTUoWQ.s:6033   .debug_str:00000000000006a9 .LASF90
/var/folders/rt/4gvqv631095f64jvm7jfj_000000gn/T//ccOTUoWQ.s:5785   .debug_str:0000000000000049 .LASF91
/var/folders/rt/4gvqv631095f64jvm7jfj_000000gn/T//ccOTUoWQ.s:5919   .debug_str:0000000000000404 .LASF92
/var/folders/rt/4gvqv631095f64jvm7jfj_000000gn/T//ccOTUoWQ.s:6167   .debug_str:00000000000009f9 .LASF93
/var/folders/rt/4gvqv631095f64jvm7jfj_000000gn/T//ccOTUoWQ.s:6047   .debug_str:00000000000006f1 .LASF94
/var/folders/rt/4gvqv631095f64jvm7jfj_000000gn/T//ccOTUoWQ.s:6031   .debug_str:00000000000006a2 .LASF95
/var/folders/rt/4gvqv631095f64jvm7jfj_000000gn/T//ccOTUoWQ.s:6045   .debug_str:00000000000006eb .LASF96
/var/folders/rt/4gvqv631095f64jvm7jfj_000000gn/T//ccOTUoWQ.s:6137   .debug_str:000000000000092c .LASF97
/var/folders/rt/4gvqv631095f64jvm7jfj_000000gn/T//ccOTUoWQ.s:6115   .debug_str:00000000000008a2 .LASF98
/var/folders/rt/4gvqv631095f64jvm7jfj_000000gn/T//ccOTUoWQ.s:5851   .debug_str:0000000000000246 .LASF99
/var/folders/rt/4gvqv631095f64jvm7jfj_000000gn/T//ccOTUoWQ.s:6257   .debug_str:0000000000000bd6 .LASF100
GAS LISTING /var/folders/rt/4gvqv631095f64jvm7jfj_000000gn/T//ccOTUoWQ.s 			page 35


/var/folders/rt/4gvqv631095f64jvm7jfj_000000gn/T//ccOTUoWQ.s:5891   .debug_str:000000000000032b .LASF101
/var/folders/rt/4gvqv631095f64jvm7jfj_000000gn/T//ccOTUoWQ.s:6147   .debug_str:000000000000095b .LASF102
/var/folders/rt/4gvqv631095f64jvm7jfj_000000gn/T//ccOTUoWQ.s:5797   .debug_str:000000000000007f .LASF103
/var/folders/rt/4gvqv631095f64jvm7jfj_000000gn/T//ccOTUoWQ.s:5877   .debug_str:00000000000002e5 .LASF104
/var/folders/rt/4gvqv631095f64jvm7jfj_000000gn/T//ccOTUoWQ.s:6039   .debug_str:00000000000006c1 .LASF105
/var/folders/rt/4gvqv631095f64jvm7jfj_000000gn/T//ccOTUoWQ.s:6087   .debug_str:00000000000007d2 .LASF106
/var/folders/rt/4gvqv631095f64jvm7jfj_000000gn/T//ccOTUoWQ.s:6177   .debug_str:0000000000000a42 .LASF107
/var/folders/rt/4gvqv631095f64jvm7jfj_000000gn/T//ccOTUoWQ.s:6197   .debug_str:0000000000000a94 .LASF108
/var/folders/rt/4gvqv631095f64jvm7jfj_000000gn/T//ccOTUoWQ.s:6123   .debug_str:00000000000008bd .LASF109
/var/folders/rt/4gvqv631095f64jvm7jfj_000000gn/T//ccOTUoWQ.s:6083   .debug_str:00000000000007bb .LASF110
/var/folders/rt/4gvqv631095f64jvm7jfj_000000gn/T//ccOTUoWQ.s:5825   .debug_str:0000000000000127 .LASF111
/var/folders/rt/4gvqv631095f64jvm7jfj_000000gn/T//ccOTUoWQ.s:5987   .debug_str:00000000000005ad .LASF112
/var/folders/rt/4gvqv631095f64jvm7jfj_000000gn/T//ccOTUoWQ.s:6285   .debug_str:0000000000000c8b .LASF113
/var/folders/rt/4gvqv631095f64jvm7jfj_000000gn/T//ccOTUoWQ.s:5867   .debug_str:00000000000002b2 .LASF114
/var/folders/rt/4gvqv631095f64jvm7jfj_000000gn/T//ccOTUoWQ.s:6155   .debug_str:00000000000009a3 .LASF115
/var/folders/rt/4gvqv631095f64jvm7jfj_000000gn/T//ccOTUoWQ.s:6263   .debug_str:0000000000000bf8 .LASF116
/var/folders/rt/4gvqv631095f64jvm7jfj_000000gn/T//ccOTUoWQ.s:6071   .debug_str:0000000000000782 .LASF117
/var/folders/rt/4gvqv631095f64jvm7jfj_000000gn/T//ccOTUoWQ.s:5811   .debug_str:00000000000000db .LASF118
/var/folders/rt/4gvqv631095f64jvm7jfj_000000gn/T//ccOTUoWQ.s:6065   .debug_str:0000000000000757 .LASF119
/var/folders/rt/4gvqv631095f64jvm7jfj_000000gn/T//ccOTUoWQ.s:6233   .debug_str:0000000000000b4c .LASF120
/var/folders/rt/4gvqv631095f64jvm7jfj_000000gn/T//ccOTUoWQ.s:6035   .debug_str:00000000000006b1 .LASF121
/var/folders/rt/4gvqv631095f64jvm7jfj_000000gn/T//ccOTUoWQ.s:5807   .debug_str:00000000000000ce .LASF122
/var/folders/rt/4gvqv631095f64jvm7jfj_000000gn/T//ccOTUoWQ.s:5781   .debug_str:0000000000000036 .LASF255
/var/folders/rt/4gvqv631095f64jvm7jfj_000000gn/T//ccOTUoWQ.s:5871   .debug_str:00000000000002c9 .LASF123
/var/folders/rt/4gvqv631095f64jvm7jfj_000000gn/T//ccOTUoWQ.s:5911   .debug_str:000000000000039f .LASF124
/var/folders/rt/4gvqv631095f64jvm7jfj_000000gn/T//ccOTUoWQ.s:5897   .debug_str:000000000000034d .LASF125
/var/folders/rt/4gvqv631095f64jvm7jfj_000000gn/T//ccOTUoWQ.s:6131   .debug_str:00000000000008f9 .LASF126
/var/folders/rt/4gvqv631095f64jvm7jfj_000000gn/T//ccOTUoWQ.s:6241   .debug_str:0000000000000b7d .LASF127
/var/folders/rt/4gvqv631095f64jvm7jfj_000000gn/T//ccOTUoWQ.s:5975   .debug_str:0000000000000566 .LASF128
/var/folders/rt/4gvqv631095f64jvm7jfj_000000gn/T//ccOTUoWQ.s:6107   .debug_str:000000000000087c .LASF129
/var/folders/rt/4gvqv631095f64jvm7jfj_000000gn/T//ccOTUoWQ.s:6207   .debug_str:0000000000000ac6 .LASF130
/var/folders/rt/4gvqv631095f64jvm7jfj_000000gn/T//ccOTUoWQ.s:6169   .debug_str:0000000000000a00 .LASF131
/var/folders/rt/4gvqv631095f64jvm7jfj_000000gn/T//ccOTUoWQ.s:6179   .debug_str:0000000000000a47 .LASF132
/var/folders/rt/4gvqv631095f64jvm7jfj_000000gn/T//ccOTUoWQ.s:6181   .debug_str:0000000000000a50 .LASF133
/var/folders/rt/4gvqv631095f64jvm7jfj_000000gn/T//ccOTUoWQ.s:6063   .debug_str:000000000000074f .LASF134
/var/folders/rt/4gvqv631095f64jvm7jfj_000000gn/T//ccOTUoWQ.s:6231   .debug_str:0000000000000b43 .LASF135
/var/folders/rt/4gvqv631095f64jvm7jfj_000000gn/T//ccOTUoWQ.s:5997   .debug_str:00000000000005e6 .LASF136
/var/folders/rt/4gvqv631095f64jvm7jfj_000000gn/T//ccOTUoWQ.s:5819   .debug_str:0000000000000106 .LASF137
/var/folders/rt/4gvqv631095f64jvm7jfj_000000gn/T//ccOTUoWQ.s:5821   .debug_str:0000000000000111 .LASF138
/var/folders/rt/4gvqv631095f64jvm7jfj_000000gn/T//ccOTUoWQ.s:5823   .debug_str:000000000000011c .LASF139
/var/folders/rt/4gvqv631095f64jvm7jfj_000000gn/T//ccOTUoWQ.s:6149   .debug_str:0000000000000968 .LASF140
/var/folders/rt/4gvqv631095f64jvm7jfj_000000gn/T//ccOTUoWQ.s:5827   .debug_str:0000000000000131 .LASF141
/var/folders/rt/4gvqv631095f64jvm7jfj_000000gn/T//ccOTUoWQ.s:5829   .debug_str:000000000000013c .LASF142
/var/folders/rt/4gvqv631095f64jvm7jfj_000000gn/T//ccOTUoWQ.s:6095   .debug_str:0000000000000808 .LASF143
/var/folders/rt/4gvqv631095f64jvm7jfj_000000gn/T//ccOTUoWQ.s:5887   .debug_str:0000000000000319 .LASF144
/var/folders/rt/4gvqv631095f64jvm7jfj_000000gn/T//ccOTUoWQ.s:5889   .debug_str:0000000000000322 .LASF145
/var/folders/rt/4gvqv631095f64jvm7jfj_000000gn/T//ccOTUoWQ.s:5839   .debug_str:0000000000000186 .LASF146
/var/folders/rt/4gvqv631095f64jvm7jfj_000000gn/T//ccOTUoWQ.s:5841   .debug_str:0000000000000191 .LASF147
/var/folders/rt/4gvqv631095f64jvm7jfj_000000gn/T//ccOTUoWQ.s:5801   .debug_str:0000000000000094 .LASF148
/var/folders/rt/4gvqv631095f64jvm7jfj_000000gn/T//ccOTUoWQ.s:5803   .debug_str:000000000000009e .LASF149
/var/folders/rt/4gvqv631095f64jvm7jfj_000000gn/T//ccOTUoWQ.s:6243   .debug_str:0000000000000b86 .LASF150
/var/folders/rt/4gvqv631095f64jvm7jfj_000000gn/T//ccOTUoWQ.s:6245   .debug_str:0000000000000b8f .LASF151
/var/folders/rt/4gvqv631095f64jvm7jfj_000000gn/T//ccOTUoWQ.s:6191   .debug_str:0000000000000a76 .LASF152
/var/folders/rt/4gvqv631095f64jvm7jfj_000000gn/T//ccOTUoWQ.s:5915   .debug_str:00000000000003f5 .LASF153
/var/folders/rt/4gvqv631095f64jvm7jfj_000000gn/T//ccOTUoWQ.s:6213   .debug_str:0000000000000ae0 .LASF154
/var/folders/rt/4gvqv631095f64jvm7jfj_000000gn/T//ccOTUoWQ.s:5791   .debug_str:0000000000000060 .LASF155
/var/folders/rt/4gvqv631095f64jvm7jfj_000000gn/T//ccOTUoWQ.s:5899   .debug_str:0000000000000355 .LASF156
GAS LISTING /var/folders/rt/4gvqv631095f64jvm7jfj_000000gn/T//ccOTUoWQ.s 			page 36


/var/folders/rt/4gvqv631095f64jvm7jfj_000000gn/T//ccOTUoWQ.s:6113   .debug_str:000000000000089a .LASF157
/var/folders/rt/4gvqv631095f64jvm7jfj_000000gn/T//ccOTUoWQ.s:5981   .debug_str:000000000000058d .LASF158
/var/folders/rt/4gvqv631095f64jvm7jfj_000000gn/T//ccOTUoWQ.s:6021   .debug_str:0000000000000670 .LASF159
/var/folders/rt/4gvqv631095f64jvm7jfj_000000gn/T//ccOTUoWQ.s:6023   .debug_str:000000000000067a .LASF160
/var/folders/rt/4gvqv631095f64jvm7jfj_000000gn/T//ccOTUoWQ.s:6025   .debug_str:0000000000000684 .LASF161
/var/folders/rt/4gvqv631095f64jvm7jfj_000000gn/T//ccOTUoWQ.s:6027   .debug_str:000000000000068e .LASF162
/var/folders/rt/4gvqv631095f64jvm7jfj_000000gn/T//ccOTUoWQ.s:6029   .debug_str:0000000000000698 .LASF163
/var/folders/rt/4gvqv631095f64jvm7jfj_000000gn/T//ccOTUoWQ.s:6013   .debug_str:0000000000000640 .LASF164
/var/folders/rt/4gvqv631095f64jvm7jfj_000000gn/T//ccOTUoWQ.s:6015   .debug_str:0000000000000649 .LASF165
/var/folders/rt/4gvqv631095f64jvm7jfj_000000gn/T//ccOTUoWQ.s:5817   .debug_str:00000000000000fb .LASF166
/var/folders/rt/4gvqv631095f64jvm7jfj_000000gn/T//ccOTUoWQ.s:5885   .debug_str:0000000000000310 .LASF167
/var/folders/rt/4gvqv631095f64jvm7jfj_000000gn/T//ccOTUoWQ.s:5837   .debug_str:000000000000017b .LASF168
/var/folders/rt/4gvqv631095f64jvm7jfj_000000gn/T//ccOTUoWQ.s:5947   .debug_str:00000000000004ad .LASF169
/var/folders/rt/4gvqv631095f64jvm7jfj_000000gn/T//ccOTUoWQ.s:6219   .debug_str:0000000000000b12 .LASF170
/var/folders/rt/4gvqv631095f64jvm7jfj_000000gn/T//ccOTUoWQ.s:6277   .debug_str:0000000000000c64 .LASF171
/var/folders/rt/4gvqv631095f64jvm7jfj_000000gn/T//ccOTUoWQ.s:5843   .debug_str:000000000000019c .LASF172
/var/folders/rt/4gvqv631095f64jvm7jfj_000000gn/T//ccOTUoWQ.s:5847   .debug_str:00000000000001a9 .LASF173
/var/folders/rt/4gvqv631095f64jvm7jfj_000000gn/T//ccOTUoWQ.s:6267   .debug_str:0000000000000c25 .LASF174
/var/folders/rt/4gvqv631095f64jvm7jfj_000000gn/T//ccOTUoWQ.s:6161   .debug_str:00000000000009d4 .LASF175
/var/folders/rt/4gvqv631095f64jvm7jfj_000000gn/T//ccOTUoWQ.s:5961   .debug_str:000000000000051b .LASF176
/var/folders/rt/4gvqv631095f64jvm7jfj_000000gn/T//ccOTUoWQ.s:6003   .debug_str:0000000000000603 .LASF177
/var/folders/rt/4gvqv631095f64jvm7jfj_000000gn/T//ccOTUoWQ.s:5991   .debug_str:00000000000005c1 .LASF178
/var/folders/rt/4gvqv631095f64jvm7jfj_000000gn/T//ccOTUoWQ.s:6165   .debug_str:00000000000009f2 .LASF179
/var/folders/rt/4gvqv631095f64jvm7jfj_000000gn/T//ccOTUoWQ.s:6249   .debug_str:0000000000000ba0 .LASF180
/var/folders/rt/4gvqv631095f64jvm7jfj_000000gn/T//ccOTUoWQ.s:5853   .debug_str:000000000000024c .LASF181
/var/folders/rt/4gvqv631095f64jvm7jfj_000000gn/T//ccOTUoWQ.s:6055   .debug_str:0000000000000710 .LASF182
/var/folders/rt/4gvqv631095f64jvm7jfj_000000gn/T//ccOTUoWQ.s:5993   .debug_str:00000000000005d2 .LASF183
/var/folders/rt/4gvqv631095f64jvm7jfj_000000gn/T//ccOTUoWQ.s:6051   .debug_str:00000000000006fd .LASF184
/var/folders/rt/4gvqv631095f64jvm7jfj_000000gn/T//ccOTUoWQ.s:5929   .debug_str:0000000000000435 .LASF185
/var/folders/rt/4gvqv631095f64jvm7jfj_000000gn/T//ccOTUoWQ.s:6251   .debug_str:0000000000000bae .LASF186
/var/folders/rt/4gvqv631095f64jvm7jfj_000000gn/T//ccOTUoWQ.s:5787   .debug_str:000000000000004e .LASF187
/var/folders/rt/4gvqv631095f64jvm7jfj_000000gn/T//ccOTUoWQ.s:6075   .debug_str:000000000000079b .LASF188
/var/folders/rt/4gvqv631095f64jvm7jfj_000000gn/T//ccOTUoWQ.s:5957   .debug_str:00000000000004f0 .LASF189
/var/folders/rt/4gvqv631095f64jvm7jfj_000000gn/T//ccOTUoWQ.s:6203   .debug_str:0000000000000ab3 .LASF190
/var/folders/rt/4gvqv631095f64jvm7jfj_000000gn/T//ccOTUoWQ.s:6157   .debug_str:00000000000009b2 .LASF191
/var/folders/rt/4gvqv631095f64jvm7jfj_000000gn/T//ccOTUoWQ.s:5931   .debug_str:0000000000000440 .LASF192
/var/folders/rt/4gvqv631095f64jvm7jfj_000000gn/T//ccOTUoWQ.s:1000   .text.T1setPWMch0:0000000000000000 .LFB12
/var/folders/rt/4gvqv631095f64jvm7jfj_000000gn/T//ccOTUoWQ.s:1012   .text.T1setPWMch0:0000000000000010 .LFE12
/var/folders/rt/4gvqv631095f64jvm7jfj_000000gn/T//ccOTUoWQ.s:5917   .debug_str:00000000000003fe .LASF194
/var/folders/rt/4gvqv631095f64jvm7jfj_000000gn/T//ccOTUoWQ.s:5318   .debug_loc:0000000000000000 .LLST20
/var/folders/rt/4gvqv631095f64jvm7jfj_000000gn/T//ccOTUoWQ.s:1010   .text.T1setPWMch0:0000000000000010 .LVL108
/var/folders/rt/4gvqv631095f64jvm7jfj_000000gn/T//ccOTUoWQ.s:5959   .debug_str:000000000000050a .LASF193
/var/folders/rt/4gvqv631095f64jvm7jfj_000000gn/T//ccOTUoWQ.s:850    .text.T1powerUpInitPWM:0000000000000000 .LFB11
/var/folders/rt/4gvqv631095f64jvm7jfj_000000gn/T//ccOTUoWQ.s:993    .text.T1powerUpInitPWM:00000000000000fe .LFE11
/var/folders/rt/4gvqv631095f64jvm7jfj_000000gn/T//ccOTUoWQ.s:5336   .debug_loc:000000000000002c .LLST18
/var/folders/rt/4gvqv631095f64jvm7jfj_000000gn/T//ccOTUoWQ.s:5354   .debug_loc:0000000000000058 .LLST19
/var/folders/rt/4gvqv631095f64jvm7jfj_000000gn/T//ccOTUoWQ.s:6041   .debug_str:00000000000006d0 .LASF195
/var/folders/rt/4gvqv631095f64jvm7jfj_000000gn/T//ccOTUoWQ.s:5979   .debug_str:000000000000057e .LASF196
/var/folders/rt/4gvqv631095f64jvm7jfj_000000gn/T//ccOTUoWQ.s:872    .text.T1powerUpInitPWM:0000000000000014 .LVL92
/var/folders/rt/4gvqv631095f64jvm7jfj_000000gn/T//ccOTUoWQ.s:877    .text.T1powerUpInitPWM:0000000000000022 .LVL93
/var/folders/rt/4gvqv631095f64jvm7jfj_000000gn/T//ccOTUoWQ.s:888    .text.T1powerUpInitPWM:000000000000003a .LVL94
/var/folders/rt/4gvqv631095f64jvm7jfj_000000gn/T//ccOTUoWQ.s:893    .text.T1powerUpInitPWM:0000000000000046 .LVL95
/var/folders/rt/4gvqv631095f64jvm7jfj_000000gn/T//ccOTUoWQ.s:897    .text.T1powerUpInitPWM:0000000000000052 .LVL96
/var/folders/rt/4gvqv631095f64jvm7jfj_000000gn/T//ccOTUoWQ.s:901    .text.T1powerUpInitPWM:000000000000005c .LVL97
/var/folders/rt/4gvqv631095f64jvm7jfj_000000gn/T//ccOTUoWQ.s:927    .text.T1powerUpInitPWM:0000000000000084 .LVL98
/var/folders/rt/4gvqv631095f64jvm7jfj_000000gn/T//ccOTUoWQ.s:931    .text.T1powerUpInitPWM:000000000000008e .LVL99
/var/folders/rt/4gvqv631095f64jvm7jfj_000000gn/T//ccOTUoWQ.s:953    .text.T1powerUpInitPWM:00000000000000a8 .LVL100
GAS LISTING /var/folders/rt/4gvqv631095f64jvm7jfj_000000gn/T//ccOTUoWQ.s 			page 37


/var/folders/rt/4gvqv631095f64jvm7jfj_000000gn/T//ccOTUoWQ.s:961    .text.T1powerUpInitPWM:00000000000000bc .LVL101
/var/folders/rt/4gvqv631095f64jvm7jfj_000000gn/T//ccOTUoWQ.s:967    .text.T1powerUpInitPWM:00000000000000ce .LVL102
/var/folders/rt/4gvqv631095f64jvm7jfj_000000gn/T//ccOTUoWQ.s:973    .text.T1powerUpInitPWM:00000000000000de .LVL103
/var/folders/rt/4gvqv631095f64jvm7jfj_000000gn/T//ccOTUoWQ.s:978    .text.T1powerUpInitPWM:00000000000000ea .LVL104
/var/folders/rt/4gvqv631095f64jvm7jfj_000000gn/T//ccOTUoWQ.s:982    .text.T1powerUpInitPWM:00000000000000f6 .LVL105
/var/folders/rt/4gvqv631095f64jvm7jfj_000000gn/T//ccOTUoWQ.s:5893   .debug_str:0000000000000338 .LASF199
/var/folders/rt/4gvqv631095f64jvm7jfj_000000gn/T//ccOTUoWQ.s:714    .text.ADC_read:0000000000000000 .LFB10
/var/folders/rt/4gvqv631095f64jvm7jfj_000000gn/T//ccOTUoWQ.s:843    .text.ADC_read:000000000000009c .LFE10
/var/folders/rt/4gvqv631095f64jvm7jfj_000000gn/T//ccOTUoWQ.s:5368   .debug_loc:0000000000000079 .LLST15
/var/folders/rt/4gvqv631095f64jvm7jfj_000000gn/T//ccOTUoWQ.s:5977   .debug_str:0000000000000576 .LASF197
/var/folders/rt/4gvqv631095f64jvm7jfj_000000gn/T//ccOTUoWQ.s:5391   .debug_loc:00000000000000b1 .LLST16
/var/folders/rt/4gvqv631095f64jvm7jfj_000000gn/T//ccOTUoWQ.s:6193   .debug_str:0000000000000a7f .LASF198
/var/folders/rt/4gvqv631095f64jvm7jfj_000000gn/T//ccOTUoWQ.s:5413   .debug_loc:00000000000000e8 .LLST17
/var/folders/rt/4gvqv631095f64jvm7jfj_000000gn/T//ccOTUoWQ.s:747    .text.ADC_read:0000000000000028 .LVL78
/var/folders/rt/4gvqv631095f64jvm7jfj_000000gn/T//ccOTUoWQ.s:757    .text.ADC_read:000000000000003e .LVL79
/var/folders/rt/4gvqv631095f64jvm7jfj_000000gn/T//ccOTUoWQ.s:767    .text.ADC_read:000000000000004e .LVL80
/var/folders/rt/4gvqv631095f64jvm7jfj_000000gn/T//ccOTUoWQ.s:774    .text.ADC_read:000000000000005c .LVL81
/var/folders/rt/4gvqv631095f64jvm7jfj_000000gn/T//ccOTUoWQ.s:5923   .debug_str:000000000000040e .LASF200
/var/folders/rt/4gvqv631095f64jvm7jfj_000000gn/T//ccOTUoWQ.s:532    .text.read_temp:0000000000000000 .LFB9
/var/folders/rt/4gvqv631095f64jvm7jfj_000000gn/T//ccOTUoWQ.s:707    .text.read_temp:00000000000000e6 .LFE9
/var/folders/rt/4gvqv631095f64jvm7jfj_000000gn/T//ccOTUoWQ.s:5432   .debug_loc:000000000000011c .LLST8
/var/folders/rt/4gvqv631095f64jvm7jfj_000000gn/T//ccOTUoWQ.s:6007   .debug_str:000000000000061d .LASF201
/var/folders/rt/4gvqv631095f64jvm7jfj_000000gn/T//ccOTUoWQ.s:5450   .debug_loc:0000000000000148 .LLST9
/var/folders/rt/4gvqv631095f64jvm7jfj_000000gn/T//ccOTUoWQ.s:6195   .debug_str:0000000000000a8b .LASF202
/var/folders/rt/4gvqv631095f64jvm7jfj_000000gn/T//ccOTUoWQ.s:5482   .debug_loc:0000000000000189 .LLST10
/var/folders/rt/4gvqv631095f64jvm7jfj_000000gn/T//ccOTUoWQ.s:5883   .debug_str:000000000000030a .LASF203
/var/folders/rt/4gvqv631095f64jvm7jfj_000000gn/T//ccOTUoWQ.s:6199   .debug_str:0000000000000aa1 .LASF204
/var/folders/rt/4gvqv631095f64jvm7jfj_000000gn/T//ccOTUoWQ.s:5495   .debug_loc:00000000000001ac .LLST11
/var/folders/rt/4gvqv631095f64jvm7jfj_000000gn/T//ccOTUoWQ.s:6127   .debug_str:00000000000008dc .LASF205
/var/folders/rt/4gvqv631095f64jvm7jfj_000000gn/T//ccOTUoWQ.s:5502   .debug_loc:00000000000001bf .LLST12
/var/folders/rt/4gvqv631095f64jvm7jfj_000000gn/T//ccOTUoWQ.s:6225   .debug_str:0000000000000b27 .LASF206
/var/folders/rt/4gvqv631095f64jvm7jfj_000000gn/T//ccOTUoWQ.s:5525   .debug_loc:00000000000001e8 .LLST13
/var/folders/rt/4gvqv631095f64jvm7jfj_000000gn/T//ccOTUoWQ.s:5564   .debug_loc:000000000000022d .LLST14
/var/folders/rt/4gvqv631095f64jvm7jfj_000000gn/T//ccOTUoWQ.s:658    .text.read_temp:00000000000000ac .LVL69
/var/folders/rt/4gvqv631095f64jvm7jfj_000000gn/T//ccOTUoWQ.s:661    .text.read_temp:00000000000000b4 .LVL70
/var/folders/rt/4gvqv631095f64jvm7jfj_000000gn/T//ccOTUoWQ.s:607    .text.read_temp:000000000000004c .LVL57
/var/folders/rt/4gvqv631095f64jvm7jfj_000000gn/T//ccOTUoWQ.s:5775   .debug_str:0000000000000000 .LASF207
/var/folders/rt/4gvqv631095f64jvm7jfj_000000gn/T//ccOTUoWQ.s:413    .text.MAX31865_ReadADC:0000000000000000 .LFB8
/var/folders/rt/4gvqv631095f64jvm7jfj_000000gn/T//ccOTUoWQ.s:517    .text.MAX31865_ReadADC:000000000000009c .LFE8
/var/folders/rt/4gvqv631095f64jvm7jfj_000000gn/T//ccOTUoWQ.s:5588   .debug_loc:000000000000025f .LLST5
/var/folders/rt/4gvqv631095f64jvm7jfj_000000gn/T//ccOTUoWQ.s:5606   .debug_loc:000000000000028b .LLST6
/var/folders/rt/4gvqv631095f64jvm7jfj_000000gn/T//ccOTUoWQ.s:5613   .debug_loc:000000000000029e .LLST7
/var/folders/rt/4gvqv631095f64jvm7jfj_000000gn/T//ccOTUoWQ.s:6209   .debug_str:0000000000000acd .LASF213
/var/folders/rt/4gvqv631095f64jvm7jfj_000000gn/T//ccOTUoWQ.s:450    .text.MAX31865_ReadADC:0000000000000032 .LVL44
/var/folders/rt/4gvqv631095f64jvm7jfj_000000gn/T//ccOTUoWQ.s:454    .text.MAX31865_ReadADC:000000000000003c .LVL45
/var/folders/rt/4gvqv631095f64jvm7jfj_000000gn/T//ccOTUoWQ.s:459    .text.MAX31865_ReadADC:0000000000000048 .LVL46
/var/folders/rt/4gvqv631095f64jvm7jfj_000000gn/T//ccOTUoWQ.s:466    .text.MAX31865_ReadADC:0000000000000056 .LVL48
/var/folders/rt/4gvqv631095f64jvm7jfj_000000gn/T//ccOTUoWQ.s:472    .text.MAX31865_ReadADC:0000000000000062 .LVL50
/var/folders/rt/4gvqv631095f64jvm7jfj_000000gn/T//ccOTUoWQ.s:477    .text.MAX31865_ReadADC:0000000000000070 .LVL51
/var/folders/rt/4gvqv631095f64jvm7jfj_000000gn/T//ccOTUoWQ.s:6281   .debug_str:0000000000000c74 .LASF208
/var/folders/rt/4gvqv631095f64jvm7jfj_000000gn/T//ccOTUoWQ.s:260    .text.MAX31865_Init:0000000000000000 .LFB7
/var/folders/rt/4gvqv631095f64jvm7jfj_000000gn/T//ccOTUoWQ.s:406    .text.MAX31865_Init:0000000000000116 .LFE7
/var/folders/rt/4gvqv631095f64jvm7jfj_000000gn/T//ccOTUoWQ.s:5620   .debug_loc:00000000000002b1 .LLST4
/var/folders/rt/4gvqv631095f64jvm7jfj_000000gn/T//ccOTUoWQ.s:6145   .debug_str:000000000000094b .LASF209
/var/folders/rt/4gvqv631095f64jvm7jfj_000000gn/T//ccOTUoWQ.s:280    .text.MAX31865_Init:0000000000000014 .LVL30
/var/folders/rt/4gvqv631095f64jvm7jfj_000000gn/T//ccOTUoWQ.s:284    .text.MAX31865_Init:0000000000000020 .LVL31
/var/folders/rt/4gvqv631095f64jvm7jfj_000000gn/T//ccOTUoWQ.s:288    .text.MAX31865_Init:000000000000002c .LVL32
GAS LISTING /var/folders/rt/4gvqv631095f64jvm7jfj_000000gn/T//ccOTUoWQ.s 			page 38


/var/folders/rt/4gvqv631095f64jvm7jfj_000000gn/T//ccOTUoWQ.s:296    .text.MAX31865_Init:0000000000000042 .LVL33
/var/folders/rt/4gvqv631095f64jvm7jfj_000000gn/T//ccOTUoWQ.s:303    .text.MAX31865_Init:0000000000000054 .LVL34
/var/folders/rt/4gvqv631095f64jvm7jfj_000000gn/T//ccOTUoWQ.s:310    .text.MAX31865_Init:0000000000000066 .LVL35
/var/folders/rt/4gvqv631095f64jvm7jfj_000000gn/T//ccOTUoWQ.s:315    .text.MAX31865_Init:0000000000000074 .LVL36
/var/folders/rt/4gvqv631095f64jvm7jfj_000000gn/T//ccOTUoWQ.s:319    .text.MAX31865_Init:000000000000007e .LVL37
/var/folders/rt/4gvqv631095f64jvm7jfj_000000gn/T//ccOTUoWQ.s:355    .text.MAX31865_Init:00000000000000ac .LVL38
/var/folders/rt/4gvqv631095f64jvm7jfj_000000gn/T//ccOTUoWQ.s:359    .text.MAX31865_Init:00000000000000b8 .LVL39
/var/folders/rt/4gvqv631095f64jvm7jfj_000000gn/T//ccOTUoWQ.s:372    .text.MAX31865_Init:00000000000000d6 .LVL40
/var/folders/rt/4gvqv631095f64jvm7jfj_000000gn/T//ccOTUoWQ.s:376    .text.MAX31865_Init:00000000000000e2 .LVL41
/var/folders/rt/4gvqv631095f64jvm7jfj_000000gn/T//ccOTUoWQ.s:380    .text.MAX31865_Init:00000000000000ee .LVL42
/var/folders/rt/4gvqv631095f64jvm7jfj_000000gn/T//ccOTUoWQ.s:385    .text.MAX31865_Init:00000000000000fc .LVL43
/var/folders/rt/4gvqv631095f64jvm7jfj_000000gn/T//ccOTUoWQ.s:5925   .debug_str:0000000000000418 .LASF210
/var/folders/rt/4gvqv631095f64jvm7jfj_000000gn/T//ccOTUoWQ.s:171    .text.MAX31865_ExchangeByte:0000000000000000 .LFB6
/var/folders/rt/4gvqv631095f64jvm7jfj_000000gn/T//ccOTUoWQ.s:253    .text.MAX31865_ExchangeByte:0000000000000072 .LFE6
/var/folders/rt/4gvqv631095f64jvm7jfj_000000gn/T//ccOTUoWQ.s:5638   .debug_loc:00000000000002dd .LLST2
/var/folders/rt/4gvqv631095f64jvm7jfj_000000gn/T//ccOTUoWQ.s:6279   .debug_str:0000000000000c6f .LASF211
/var/folders/rt/4gvqv631095f64jvm7jfj_000000gn/T//ccOTUoWQ.s:5656   .debug_loc:0000000000000309 .LLST3
/var/folders/rt/4gvqv631095f64jvm7jfj_000000gn/T//ccOTUoWQ.s:202    .text.MAX31865_ExchangeByte:0000000000000024 .LVL25
/var/folders/rt/4gvqv631095f64jvm7jfj_000000gn/T//ccOTUoWQ.s:210    .text.MAX31865_ExchangeByte:0000000000000030 .LVL26
/var/folders/rt/4gvqv631095f64jvm7jfj_000000gn/T//ccOTUoWQ.s:220    .text.MAX31865_ExchangeByte:0000000000000044 .LVL27
/var/folders/rt/4gvqv631095f64jvm7jfj_000000gn/T//ccOTUoWQ.s:230    .text.MAX31865_ExchangeByte:0000000000000054 .LVL28
/var/folders/rt/4gvqv631095f64jvm7jfj_000000gn/T//ccOTUoWQ.s:237    .text.MAX31865_ExchangeByte:0000000000000062 .LVL29
/var/folders/rt/4gvqv631095f64jvm7jfj_000000gn/T//ccOTUoWQ.s:5795   .debug_str:000000000000006f .LASF212
/var/folders/rt/4gvqv631095f64jvm7jfj_000000gn/T//ccOTUoWQ.s:14     .text.ADC3powerUpInit:0000000000000000 .LFB5
/var/folders/rt/4gvqv631095f64jvm7jfj_000000gn/T//ccOTUoWQ.s:164    .text.ADC3powerUpInit:0000000000000140 .LFE5
/var/folders/rt/4gvqv631095f64jvm7jfj_000000gn/T//ccOTUoWQ.s:5670   .debug_loc:000000000000032a .LLST0
/var/folders/rt/4gvqv631095f64jvm7jfj_000000gn/T//ccOTUoWQ.s:5688   .debug_loc:0000000000000356 .LLST1
/var/folders/rt/4gvqv631095f64jvm7jfj_000000gn/T//ccOTUoWQ.s:37     .text.ADC3powerUpInit:0000000000000016 .LVL2
/var/folders/rt/4gvqv631095f64jvm7jfj_000000gn/T//ccOTUoWQ.s:41     .text.ADC3powerUpInit:0000000000000022 .LVL3
/var/folders/rt/4gvqv631095f64jvm7jfj_000000gn/T//ccOTUoWQ.s:45     .text.ADC3powerUpInit:000000000000002c .LVL4
/var/folders/rt/4gvqv631095f64jvm7jfj_000000gn/T//ccOTUoWQ.s:53     .text.ADC3powerUpInit:0000000000000042 .LVL5
/var/folders/rt/4gvqv631095f64jvm7jfj_000000gn/T//ccOTUoWQ.s:58     .text.ADC3powerUpInit:0000000000000052 .LVL6
/var/folders/rt/4gvqv631095f64jvm7jfj_000000gn/T//ccOTUoWQ.s:62     .text.ADC3powerUpInit:000000000000005c .LVL7
/var/folders/rt/4gvqv631095f64jvm7jfj_000000gn/T//ccOTUoWQ.s:68     .text.ADC3powerUpInit:000000000000006c .LVL8
/var/folders/rt/4gvqv631095f64jvm7jfj_000000gn/T//ccOTUoWQ.s:74     .text.ADC3powerUpInit:000000000000007e .LVL9
/var/folders/rt/4gvqv631095f64jvm7jfj_000000gn/T//ccOTUoWQ.s:79     .text.ADC3powerUpInit:000000000000008c .LVL10
/var/folders/rt/4gvqv631095f64jvm7jfj_000000gn/T//ccOTUoWQ.s:85     .text.ADC3powerUpInit:000000000000009c .LVL11
/var/folders/rt/4gvqv631095f64jvm7jfj_000000gn/T//ccOTUoWQ.s:92     .text.ADC3powerUpInit:00000000000000ae .LVL12
/var/folders/rt/4gvqv631095f64jvm7jfj_000000gn/T//ccOTUoWQ.s:98     .text.ADC3powerUpInit:00000000000000c0 .LVL13
/var/folders/rt/4gvqv631095f64jvm7jfj_000000gn/T//ccOTUoWQ.s:104    .text.ADC3powerUpInit:00000000000000d0 .LVL14
/var/folders/rt/4gvqv631095f64jvm7jfj_000000gn/T//ccOTUoWQ.s:113    .text.ADC3powerUpInit:00000000000000e4 .LVL15
/var/folders/rt/4gvqv631095f64jvm7jfj_000000gn/T//ccOTUoWQ.s:119    .text.ADC3powerUpInit:00000000000000f4 .LVL16
/var/folders/rt/4gvqv631095f64jvm7jfj_000000gn/T//ccOTUoWQ.s:122    .text.ADC3powerUpInit:00000000000000fc .LVL17
/var/folders/rt/4gvqv631095f64jvm7jfj_000000gn/T//ccOTUoWQ.s:129    .text.ADC3powerUpInit:000000000000010e .LVL18
/var/folders/rt/4gvqv631095f64jvm7jfj_000000gn/T//ccOTUoWQ.s:135    .text.ADC3powerUpInit:000000000000011e .LVL19
/var/folders/rt/4gvqv631095f64jvm7jfj_000000gn/T//ccOTUoWQ.s:141    .text.ADC3powerUpInit:000000000000012a .LVL20
/var/folders/rt/4gvqv631095f64jvm7jfj_000000gn/T//ccOTUoWQ.s:162    .text.ADC3powerUpInit:0000000000000140 .LVL22
/var/folders/rt/4gvqv631095f64jvm7jfj_000000gn/T//ccOTUoWQ.s:6103   .debug_str:000000000000084a .LASF214
/var/folders/rt/4gvqv631095f64jvm7jfj_000000gn/T//ccOTUoWQ.s:6269   .debug_str:0000000000000c2e .LASF215
/var/folders/rt/4gvqv631095f64jvm7jfj_000000gn/T//ccOTUoWQ.s:6183   .debug_str:0000000000000a59 .LASF216
/var/folders/rt/4gvqv631095f64jvm7jfj_000000gn/T//ccOTUoWQ.s:6099   .debug_str:000000000000081a .LASF217
/var/folders/rt/4gvqv631095f64jvm7jfj_000000gn/T//ccOTUoWQ.s:6159   .debug_str:00000000000009bd .LASF218
/var/folders/rt/4gvqv631095f64jvm7jfj_000000gn/T//ccOTUoWQ.s:5955   .debug_str:00000000000004e5 .LASF219
/var/folders/rt/4gvqv631095f64jvm7jfj_000000gn/T//ccOTUoWQ.s:5805   .debug_str:00000000000000a8 .LASF220
/var/folders/rt/4gvqv631095f64jvm7jfj_000000gn/T//ccOTUoWQ.s:5777   .debug_str:0000000000000011 .LASF221
/var/folders/rt/4gvqv631095f64jvm7jfj_000000gn/T//ccOTUoWQ.s:5939   .debug_str:0000000000000475 .LASF222
/var/folders/rt/4gvqv631095f64jvm7jfj_000000gn/T//ccOTUoWQ.s:6153   .debug_str:0000000000000980 .LASF223
GAS LISTING /var/folders/rt/4gvqv631095f64jvm7jfj_000000gn/T//ccOTUoWQ.s 			page 39


/var/folders/rt/4gvqv631095f64jvm7jfj_000000gn/T//ccOTUoWQ.s:6215   .debug_str:0000000000000ae9 .LASF224
/var/folders/rt/4gvqv631095f64jvm7jfj_000000gn/T//ccOTUoWQ.s:5879   .debug_str:00000000000002f4 .LASF225
/var/folders/rt/4gvqv631095f64jvm7jfj_000000gn/T//ccOTUoWQ.s:6175   .debug_str:0000000000000a27 .LASF226
/var/folders/rt/4gvqv631095f64jvm7jfj_000000gn/T//ccOTUoWQ.s:5953   .debug_str:00000000000004c9 .LASF227
/var/folders/rt/4gvqv631095f64jvm7jfj_000000gn/T//ccOTUoWQ.s:6069   .debug_str:0000000000000775 .LASF228
/var/folders/rt/4gvqv631095f64jvm7jfj_000000gn/T//ccOTUoWQ.s:5857   .debug_str:0000000000000278 .LASF229
/var/folders/rt/4gvqv631095f64jvm7jfj_000000gn/T//ccOTUoWQ.s:6005   .debug_str:000000000000060f .LASF230
/var/folders/rt/4gvqv631095f64jvm7jfj_000000gn/T//ccOTUoWQ.s:5835   .debug_str:000000000000016e .LASF231
/var/folders/rt/4gvqv631095f64jvm7jfj_000000gn/T//ccOTUoWQ.s:5967   .debug_str:000000000000053c .LASF232
/var/folders/rt/4gvqv631095f64jvm7jfj_000000gn/T//ccOTUoWQ.s:6151   .debug_str:0000000000000973 .LASF233
/var/folders/rt/4gvqv631095f64jvm7jfj_000000gn/T//ccOTUoWQ.s:6253   .debug_str:0000000000000bba .LASF234
/var/folders/rt/4gvqv631095f64jvm7jfj_000000gn/T//ccOTUoWQ.s:5901   .debug_str:000000000000035d .LASF235
/var/folders/rt/4gvqv631095f64jvm7jfj_000000gn/T//ccOTUoWQ.s:6271   .debug_str:0000000000000c46 .LASF236
/var/folders/rt/4gvqv631095f64jvm7jfj_000000gn/T//ccOTUoWQ.s:6067   .debug_str:0000000000000760 .LASF237
/var/folders/rt/4gvqv631095f64jvm7jfj_000000gn/T//ccOTUoWQ.s:6125   .debug_str:00000000000008cb .LASF238
/var/folders/rt/4gvqv631095f64jvm7jfj_000000gn/T//ccOTUoWQ.s:6171   .debug_str:0000000000000a06 .LASF239
/var/folders/rt/4gvqv631095f64jvm7jfj_000000gn/T//ccOTUoWQ.s:6059   .debug_str:0000000000000734 .LASF240
/var/folders/rt/4gvqv631095f64jvm7jfj_000000gn/T//ccOTUoWQ.s:5903   .debug_str:0000000000000366 .LASF241
/var/folders/rt/4gvqv631095f64jvm7jfj_000000gn/T//ccOTUoWQ.s:6019   .debug_str:0000000000000660 .LASF242
/var/folders/rt/4gvqv631095f64jvm7jfj_000000gn/T//ccOTUoWQ.s:6091   .debug_str:00000000000007e4 .LASF243
/var/folders/rt/4gvqv631095f64jvm7jfj_000000gn/T//ccOTUoWQ.s:6239   .debug_str:0000000000000b63 .LASF244
/var/folders/rt/4gvqv631095f64jvm7jfj_000000gn/T//ccOTUoWQ.s:5855   .debug_str:000000000000025e .LASF245
/var/folders/rt/4gvqv631095f64jvm7jfj_000000gn/T//ccOTUoWQ.s:6101   .debug_str:0000000000000827 .LASF246
/var/folders/rt/4gvqv631095f64jvm7jfj_000000gn/T//ccOTUoWQ.s:6265   .debug_str:0000000000000c09 .LASF247
/var/folders/rt/4gvqv631095f64jvm7jfj_000000gn/T//ccOTUoWQ.s:6133   .debug_str:0000000000000902 .LASF248
/var/folders/rt/4gvqv631095f64jvm7jfj_000000gn/T//ccOTUoWQ.s:5831   .debug_str:0000000000000147 .LASF249
/var/folders/rt/4gvqv631095f64jvm7jfj_000000gn/T//ccOTUoWQ.s:5833   .debug_str:0000000000000163 .LASF250
/var/folders/rt/4gvqv631095f64jvm7jfj_000000gn/T//ccOTUoWQ.s:5937   .debug_str:000000000000045e .LASF251
/var/folders/rt/4gvqv631095f64jvm7jfj_000000gn/T//ccOTUoWQ.s:1003   .text.T1setPWMch0:0000000000000000 .LVL106
/var/folders/rt/4gvqv631095f64jvm7jfj_000000gn/T//ccOTUoWQ.s:1008   .text.T1setPWMch0:0000000000000008 .LVL107
/var/folders/rt/4gvqv631095f64jvm7jfj_000000gn/T//ccOTUoWQ.s:859    .text.T1powerUpInitPWM:0000000000000002 .LCFI13
/var/folders/rt/4gvqv631095f64jvm7jfj_000000gn/T//ccOTUoWQ.s:989    .text.T1powerUpInitPWM:00000000000000fc .LCFI14
/var/folders/rt/4gvqv631095f64jvm7jfj_000000gn/T//ccOTUoWQ.s:853    .text.T1powerUpInitPWM:0000000000000000 .LVL90
/var/folders/rt/4gvqv631095f64jvm7jfj_000000gn/T//ccOTUoWQ.s:866    .text.T1powerUpInitPWM:000000000000000a .LVL91
/var/folders/rt/4gvqv631095f64jvm7jfj_000000gn/T//ccOTUoWQ.s:721    .text.ADC_read:0000000000000002 .LCFI10
/var/folders/rt/4gvqv631095f64jvm7jfj_000000gn/T//ccOTUoWQ.s:805    .text.ADC_read:0000000000000076 .LCFI11
/var/folders/rt/4gvqv631095f64jvm7jfj_000000gn/T//ccOTUoWQ.s:810    .text.ADC_read:0000000000000078 .LCFI12
/var/folders/rt/4gvqv631095f64jvm7jfj_000000gn/T//ccOTUoWQ.s:717    .text.ADC_read:0000000000000000 .LVL76
/var/folders/rt/4gvqv631095f64jvm7jfj_000000gn/T//ccOTUoWQ.s:743    .text.ADC_read:000000000000001a .LVL77
/var/folders/rt/4gvqv631095f64jvm7jfj_000000gn/T//ccOTUoWQ.s:799    .text.ADC_read:0000000000000070 .LVL84
/var/folders/rt/4gvqv631095f64jvm7jfj_000000gn/T//ccOTUoWQ.s:808    .text.ADC_read:0000000000000078 .LVL85
/var/folders/rt/4gvqv631095f64jvm7jfj_000000gn/T//ccOTUoWQ.s:779    .text.ADC_read:0000000000000060 .LVL82
/var/folders/rt/4gvqv631095f64jvm7jfj_000000gn/T//ccOTUoWQ.s:820    .text.ADC_read:0000000000000084 .LVL86
/var/folders/rt/4gvqv631095f64jvm7jfj_000000gn/T//ccOTUoWQ.s:829    .text.ADC_read:000000000000008c .LVL87
/var/folders/rt/4gvqv631095f64jvm7jfj_000000gn/T//ccOTUoWQ.s:832    .text.ADC_read:0000000000000092 .LVL88
/var/folders/rt/4gvqv631095f64jvm7jfj_000000gn/T//ccOTUoWQ.s:837    .text.ADC_read:0000000000000098 .LVL89
/var/folders/rt/4gvqv631095f64jvm7jfj_000000gn/T//ccOTUoWQ.s:542    .text.read_temp:0000000000000002 .LCFI8
/var/folders/rt/4gvqv631095f64jvm7jfj_000000gn/T//ccOTUoWQ.s:703    .text.read_temp:00000000000000e4 .LCFI9
/var/folders/rt/4gvqv631095f64jvm7jfj_000000gn/T//ccOTUoWQ.s:536    .text.read_temp:0000000000000000 .LVL55
/var/folders/rt/4gvqv631095f64jvm7jfj_000000gn/T//ccOTUoWQ.s:601    .text.read_temp:0000000000000044 .LVL56
/var/folders/rt/4gvqv631095f64jvm7jfj_000000gn/T//ccOTUoWQ.s:666    .text.read_temp:00000000000000b8 .LVL71
/var/folders/rt/4gvqv631095f64jvm7jfj_000000gn/T//ccOTUoWQ.s:668    .text.read_temp:00000000000000ba .LVL72
/var/folders/rt/4gvqv631095f64jvm7jfj_000000gn/T//ccOTUoWQ.s:687    .text.read_temp:00000000000000d4 .LVL75
/var/folders/rt/4gvqv631095f64jvm7jfj_000000gn/T//ccOTUoWQ.s:684    .text.read_temp:00000000000000d2 .LVL74
/var/folders/rt/4gvqv631095f64jvm7jfj_000000gn/T//ccOTUoWQ.s:613    .text.read_temp:0000000000000054 .LVL58
/var/folders/rt/4gvqv631095f64jvm7jfj_000000gn/T//ccOTUoWQ.s:643    .text.read_temp:000000000000009e .LVL66
/var/folders/rt/4gvqv631095f64jvm7jfj_000000gn/T//ccOTUoWQ.s:650    .text.read_temp:00000000000000a0 .LVL67
GAS LISTING /var/folders/rt/4gvqv631095f64jvm7jfj_000000gn/T//ccOTUoWQ.s 			page 40


/var/folders/rt/4gvqv631095f64jvm7jfj_000000gn/T//ccOTUoWQ.s:656    .text.read_temp:00000000000000a4 .LVL68
/var/folders/rt/4gvqv631095f64jvm7jfj_000000gn/T//ccOTUoWQ.s:420    .text.MAX31865_ReadADC:0000000000000002 .LCFI6
/var/folders/rt/4gvqv631095f64jvm7jfj_000000gn/T//ccOTUoWQ.s:513    .text.MAX31865_ReadADC:000000000000009a .LCFI7
/var/folders/rt/4gvqv631095f64jvm7jfj_000000gn/T//ccOTUoWQ.s:461    .text.MAX31865_ReadADC:000000000000004a .LVL47
/var/folders/rt/4gvqv631095f64jvm7jfj_000000gn/T//ccOTUoWQ.s:489    .text.MAX31865_ReadADC:0000000000000080 .LVL52
/var/folders/rt/4gvqv631095f64jvm7jfj_000000gn/T//ccOTUoWQ.s:468    .text.MAX31865_ReadADC:0000000000000058 .LVL49
/var/folders/rt/4gvqv631095f64jvm7jfj_000000gn/T//ccOTUoWQ.s:510    .text.MAX31865_ReadADC:0000000000000096 .LVL54
/var/folders/rt/4gvqv631095f64jvm7jfj_000000gn/T//ccOTUoWQ.s:267    .text.MAX31865_Init:0000000000000002 .LCFI4
/var/folders/rt/4gvqv631095f64jvm7jfj_000000gn/T//ccOTUoWQ.s:402    .text.MAX31865_Init:0000000000000114 .LCFI5
/var/folders/rt/4gvqv631095f64jvm7jfj_000000gn/T//ccOTUoWQ.s:178    .text.MAX31865_ExchangeByte:0000000000000002 .LCFI2
/var/folders/rt/4gvqv631095f64jvm7jfj_000000gn/T//ccOTUoWQ.s:249    .text.MAX31865_ExchangeByte:0000000000000070 .LCFI3
/var/folders/rt/4gvqv631095f64jvm7jfj_000000gn/T//ccOTUoWQ.s:174    .text.MAX31865_ExchangeByte:0000000000000000 .LVL23
/var/folders/rt/4gvqv631095f64jvm7jfj_000000gn/T//ccOTUoWQ.s:185    .text.MAX31865_ExchangeByte:000000000000000a .LVL24
/var/folders/rt/4gvqv631095f64jvm7jfj_000000gn/T//ccOTUoWQ.s:22     .text.ADC3powerUpInit:0000000000000002 .LCFI0
/var/folders/rt/4gvqv631095f64jvm7jfj_000000gn/T//ccOTUoWQ.s:158    .text.ADC3powerUpInit:0000000000000138 .LCFI1
/var/folders/rt/4gvqv631095f64jvm7jfj_000000gn/T//ccOTUoWQ.s:18     .text.ADC3powerUpInit:0000000000000000 .LVL0
/var/folders/rt/4gvqv631095f64jvm7jfj_000000gn/T//ccOTUoWQ.s:29     .text.ADC3powerUpInit:000000000000000a .LVL1
/var/folders/rt/4gvqv631095f64jvm7jfj_000000gn/T//ccOTUoWQ.s:153    .text.ADC3powerUpInit:0000000000000134 .LVL21
/var/folders/rt/4gvqv631095f64jvm7jfj_000000gn/T//ccOTUoWQ.s:1048   .debug_info:0000000000000000 .Ldebug_info0
/var/folders/rt/4gvqv631095f64jvm7jfj_000000gn/T//ccOTUoWQ.s:544    .text.read_temp:0000000000000002 .LBB2
/var/folders/rt/4gvqv631095f64jvm7jfj_000000gn/T//ccOTUoWQ.s:547    .text.read_temp:0000000000000006 .LBE2
/var/folders/rt/4gvqv631095f64jvm7jfj_000000gn/T//ccOTUoWQ.s:551    .text.read_temp:0000000000000008 .LBB5
/var/folders/rt/4gvqv631095f64jvm7jfj_000000gn/T//ccOTUoWQ.s:556    .text.read_temp:0000000000000010 .LBE5
/var/folders/rt/4gvqv631095f64jvm7jfj_000000gn/T//ccOTUoWQ.s:560    .text.read_temp:0000000000000012 .LBB6
/var/folders/rt/4gvqv631095f64jvm7jfj_000000gn/T//ccOTUoWQ.s:565    .text.read_temp:000000000000001a .LBE6
/var/folders/rt/4gvqv631095f64jvm7jfj_000000gn/T//ccOTUoWQ.s:571    .text.read_temp:000000000000001e .LBB7
/var/folders/rt/4gvqv631095f64jvm7jfj_000000gn/T//ccOTUoWQ.s:577    .text.read_temp:000000000000002a .LBE7
/var/folders/rt/4gvqv631095f64jvm7jfj_000000gn/T//ccOTUoWQ.s:583    .text.read_temp:000000000000002e .LBB8
/var/folders/rt/4gvqv631095f64jvm7jfj_000000gn/T//ccOTUoWQ.s:587    .text.read_temp:0000000000000036 .LBE8
/var/folders/rt/4gvqv631095f64jvm7jfj_000000gn/T//ccOTUoWQ.s:603    .text.read_temp:0000000000000044 .LBB9
/var/folders/rt/4gvqv631095f64jvm7jfj_000000gn/T//ccOTUoWQ.s:669    .text.read_temp:00000000000000ba .LBE9
/var/folders/rt/4gvqv631095f64jvm7jfj_000000gn/T//ccOTUoWQ.s:645    .text.read_temp:000000000000009e .LBB3
/var/folders/rt/4gvqv631095f64jvm7jfj_000000gn/T//ccOTUoWQ.s:647    .text.read_temp:000000000000009e .LBE3
/var/folders/rt/4gvqv631095f64jvm7jfj_000000gn/T//ccOTUoWQ.s:652    .text.read_temp:00000000000000a0 .LBB4
/var/folders/rt/4gvqv631095f64jvm7jfj_000000gn/T//ccOTUoWQ.s:664    .text.read_temp:00000000000000b8 .LBE4

UNDEFINED SYMBOLS
rcu_periph_clock_enable
rcu_adc_clock_config
gpio_init
adc_deinit
adc_mode_config
adc_special_function_config
adc_data_alignment_config
adc_channel_length_config
adc_regular_channel_config
adc_external_trigger_source_config
adc_external_trigger_config
adc_tempsensor_vrefint_enable
adc_inserted_channel_config
adc_enable
adc_calibration_enable
adc_software_trigger_enable
spi_i2s_data_receive
spi_i2s_flag_get
spi_i2s_data_transmit
gpio_bit_set
GAS LISTING /var/folders/rt/4gvqv631095f64jvm7jfj_000000gn/T//ccOTUoWQ.s 			page 41


spi_struct_para_init
spi_init
spi_enable
gpio_bit_reset
lcd_delay_1ms
__floatunsisf
__mulsf3
__extendsfdf2
__subdf3
__divdf3
__truncdfsf2
__addsf3
__divsf3
LCD_WR_Queue
adc_flag_get
adc_regular_data_read
timer_deinit
timer_struct_para_init
timer_init
timer_channel_output_struct_para_init
timer_channel_output_config
timer_channel_output_pulse_value_config
timer_channel_output_mode_config
timer_channel_output_shadow_config
timer_auto_reload_shadow_enable
timer_enable
