GAS LISTING /var/folders/rt/4gvqv631095f64jvm7jfj_000000gn/T//ccd2KeZO.s 			page 1


   1              		.file	"adc.c"
   2              		.option nopic
   3              		.attribute arch, "rv32i2p0_m2p0_a2p0_c2p0"
   4              		.attribute unaligned_access, 0
   5              		.attribute stack_align, 16
   6              		.text
   7              	.Ltext0:
   8              		.cfi_sections	.debug_frame
   9              		.section	.text.ADC3powerUpInit,"ax",@progbits
  10              		.align	1
  11              		.globl	ADC3powerUpInit
  13              	ADC3powerUpInit:
  14              	.LFB5:
  15              		.file 1 "adc.c"
   1:adc.c         **** #include "adc.h"
   2:adc.c         **** #include "gd32vf103.h"
   3:adc.c         **** #include "lcd.h"
   4:adc.c         **** #include <stdio.h>
   5:adc.c         **** 
   6:adc.c         **** 
   7:adc.c         **** void ADC3powerUpInit(int tmp) {
  16              		.loc 1 7 31
  17              		.cfi_startproc
  18              	.LVL0:
   8:adc.c         ****     rcu_periph_clock_enable(RCU_GPIOA);
  19              		.loc 1 8 5
   7:adc.c         ****     rcu_periph_clock_enable(RCU_GPIOA);
  20              		.loc 1 7 31 is_stmt 0
  21 0000 4111     		addi	sp,sp,-16
  22              	.LCFI0:
  23              		.cfi_def_cfa_offset 16
  24 0002 26C2     		sw	s1,4(sp)
  25              		.cfi_offset 9, -12
  26 0004 AA84     		mv	s1,a0
  27              		.loc 1 8 5
  28 0006 13052060 		li	a0,1538
  29              	.LVL1:
   7:adc.c         ****     rcu_periph_clock_enable(RCU_GPIOA);
  30              		.loc 1 7 31
  31 000a 06C6     		sw	ra,12(sp)
  32 000c 22C4     		sw	s0,8(sp)
  33              		.cfi_offset 1, -4
  34              		.cfi_offset 8, -8
  35              		.loc 1 8 5
  36 000e 97000000 		call	rcu_periph_clock_enable
  36      E7800000 
  37              	.LVL2:
   9:adc.c         ****     rcu_periph_clock_enable(RCU_ADC0);
  38              		.loc 1 9 5 is_stmt 1
  39 0016 13059060 		li	a0,1545
  40 001a 97000000 		call	rcu_periph_clock_enable
  40      E7800000 
  41              	.LVL3:
  10:adc.c         ****     rcu_adc_clock_config(RCU_CKADC_CKAPB2_DIV8);
  42              		.loc 1 10 5
  43 0022 0D45     		li	a0,3
  44 0024 97000000 		call	rcu_adc_clock_config
GAS LISTING /var/folders/rt/4gvqv631095f64jvm7jfj_000000gn/T//ccd2KeZO.s 			page 2


  44      E7800000 
  45              	.LVL4:
  11:adc.c         **** 
  12:adc.c         ****     gpio_init(GPIOA, GPIO_MODE_AIN, 0x00, GPIO_PIN_3);          // ÄNDRAD från weird default vär
  46              		.loc 1 12 5
  47 002c 37150140 		li	a0,1073811456
  48 0030 A146     		li	a3,8
  49 0032 0146     		li	a2,0
  50 0034 8145     		li	a1,0
  51 0036 13050580 		addi	a0,a0,-2048
  52 003a 97000000 		call	gpio_init
  52      E7800000 
  53              	.LVL5:
  13:adc.c         ****     
  14:adc.c         ****     adc_deinit(ADC0);                                                   // Reset...
  54              		.loc 1 14 5
  55 0042 37240140 		li	s0,1073815552
  56 0046 13050440 		addi	a0,s0,1024
  57 004a 97000000 		call	adc_deinit
  57      E7800000 
  58              	.LVL6:
  15:adc.c         ****     adc_mode_config(ADC_MODE_FREE);                                     // ADC0 & ADC1 runs indep.
  59              		.loc 1 15 5
  60 0052 0145     		li	a0,0
  61 0054 97000000 		call	adc_mode_config
  61      E7800000 
  62              	.LVL7:
  16:adc.c         ****     adc_special_function_config(ADC0, ADC_CONTINUOUS_MODE, DISABLE);    // Trigger each sample
  63              		.loc 1 16 5
  64 005c 0146     		li	a2,0
  65 005e 8945     		li	a1,2
  66 0060 13050440 		addi	a0,s0,1024
  67 0064 97000000 		call	adc_special_function_config
  67      E7800000 
  68              	.LVL8:
  17:adc.c         ****     adc_special_function_config(ADC0, ADC_SCAN_MODE, DISABLE);          // Scan mode disable
  69              		.loc 1 17 5
  70 006c 0146     		li	a2,0
  71 006e 93050010 		li	a1,256
  72 0072 13050440 		addi	a0,s0,1024
  73 0076 97000000 		call	adc_special_function_config
  73      E7800000 
  74              	.LVL9:
  18:adc.c         ****     adc_data_alignment_config(ADC0, ADC_DATAALIGN_RIGHT);               // Align ADC value right
  75              		.loc 1 18 5
  76 007e 8145     		li	a1,0
  77 0080 13050440 		addi	a0,s0,1024
  78 0084 97000000 		call	adc_data_alignment_config
  78      E7800000 
  79              	.LVL10:
  19:adc.c         ****     adc_channel_length_config(ADC0, ADC_REGULAR_CHANNEL, 1);            // Convert one channel
  80              		.loc 1 19 5
  81 008c 0546     		li	a2,1
  82 008e 8545     		li	a1,1
  83 0090 13050440 		addi	a0,s0,1024
  84 0094 97000000 		call	adc_channel_length_config
  84      E7800000 
GAS LISTING /var/folders/rt/4gvqv631095f64jvm7jfj_000000gn/T//ccd2KeZO.s 			page 3


  85              	.LVL11:
  20:adc.c         **** 
  21:adc.c         ****     adc_regular_channel_config(ADC0, 0, ADC_CHANNEL_3, 
  86              		.loc 1 21 5
  87 009c 8946     		li	a3,2
  88 009e 0D46     		li	a2,3
  89 00a0 8145     		li	a1,0
  90 00a2 13050440 		addi	a0,s0,1024
  91 00a6 97000000 		call	adc_regular_channel_config
  91      E7800000 
  92              	.LVL12:
  22:adc.c         ****                                ADC_SAMPLETIME_13POINT5);                // Conv. takes 13.5us
  23:adc.c         ****     adc_external_trigger_source_config(ADC0, ADC_REGULAR_CHANNEL, 
  93              		.loc 1 23 5
  94 00ae 37060E00 		li	a2,917504
  95 00b2 8545     		li	a1,1
  96 00b4 13050440 		addi	a0,s0,1024
  97 00b8 97000000 		call	adc_external_trigger_source_config
  97      E7800000 
  98              	.LVL13:
  24:adc.c         ****                                        ADC0_1_EXTTRIG_REGULAR_NONE);    // SW Trigger
  25:adc.c         ****     adc_external_trigger_config(ADC0, ADC_REGULAR_CHANNEL, ENABLE);     // Enable trigger
  99              		.loc 1 25 5
 100 00c0 0546     		li	a2,1
 101 00c2 8545     		li	a1,1
 102 00c4 13050440 		addi	a0,s0,1024
 103 00c8 97000000 		call	adc_external_trigger_config
 103      E7800000 
 104              	.LVL14:
  26:adc.c         **** 
  27:adc.c         ****     if (tmp) {                                                          // Add Ch16 Temp?
 105              		.loc 1 27 5
 106              		.loc 1 27 8 is_stmt 0
 107 00d0 9DCC     		beq	s1,zero,.L2
  28:adc.c         ****         adc_special_function_config(ADC0, ADC_INSERTED_CHANNEL_AUTO, ENABLE);
 108              		.loc 1 28 9 is_stmt 1
 109 00d2 0546     		li	a2,1
 110 00d4 93050040 		li	a1,1024
 111 00d8 13050440 		addi	a0,s0,1024
 112 00dc 97000000 		call	adc_special_function_config
 112      E7800000 
 113              	.LVL15:
  29:adc.c         ****         adc_channel_length_config(ADC0, ADC_INSERTED_CHANNEL, 1);
 114              		.loc 1 29 9
 115 00e4 0546     		li	a2,1
 116 00e6 8945     		li	a1,2
 117 00e8 13050440 		addi	a0,s0,1024
 118 00ec 97000000 		call	adc_channel_length_config
 118      E7800000 
 119              	.LVL16:
  30:adc.c         ****         adc_tempsensor_vrefint_enable();
 120              		.loc 1 30 9
 121 00f4 97000000 		call	adc_tempsensor_vrefint_enable
 121      E7800000 
 122              	.LVL17:
  31:adc.c         ****         adc_inserted_channel_config(ADC0, 0, ADC_CHANNEL_16, ADC_SAMPLETIME_239POINT5);
 123              		.loc 1 31 9
GAS LISTING /var/folders/rt/4gvqv631095f64jvm7jfj_000000gn/T//ccd2KeZO.s 			page 4


 124 00fc 9D46     		li	a3,7
 125 00fe 4146     		li	a2,16
 126 0100 8145     		li	a1,0
 127 0102 13050440 		addi	a0,s0,1024
 128 0106 97000000 		call	adc_inserted_channel_config
 128      E7800000 
 129              	.LVL18:
 130              	.L2:
  32:adc.c         ****     }
  33:adc.c         **** 
  34:adc.c         ****     adc_enable(ADC0);                                                   // ...enable!...
 131              		.loc 1 34 5
 132 010e 37240140 		li	s0,1073815552
 133 0112 13050440 		addi	a0,s0,1024
 134 0116 97000000 		call	adc_enable
 134      E7800000 
 135              	.LVL19:
  35:adc.c         ****     //delay_1ms(1);
  36:adc.c         ****     for (int i=0; i<0xFFFF; i++);                                       // ...wait 1ms...
 136              		.loc 1 36 5
 137              		.loc 1 36 10
  37:adc.c         ****     adc_calibration_enable(ADC0);                                       // ...calibrate...
 138              		.loc 1 37 5
 139 011e 13050440 		addi	a0,s0,1024
 140 0122 97000000 		call	adc_calibration_enable
 140      E7800000 
 141              	.LVL20:
  38:adc.c         ****     //delay_1ms(1);                                                     // ...wait 1ms...
  39:adc.c         ****     for (int i=0; i<0xFFFF; i++);
 142              		.loc 1 39 5
 143              		.loc 1 39 10
  40:adc.c         ****     adc_software_trigger_enable(ADC0, ADC_REGULAR_CHANNEL);             // ...trigger 1:st conv!
 144              		.loc 1 40 5
 145 012a 13050440 		addi	a0,s0,1024
  41:adc.c         **** }
 146              		.loc 1 41 1 is_stmt 0
 147 012e 2244     		lw	s0,8(sp)
 148              		.cfi_restore 8
 149 0130 B240     		lw	ra,12(sp)
 150              		.cfi_restore 1
 151 0132 9244     		lw	s1,4(sp)
 152              		.cfi_restore 9
 153              	.LVL21:
  40:adc.c         ****     adc_software_trigger_enable(ADC0, ADC_REGULAR_CHANNEL);             // ...trigger 1:st conv!
 154              		.loc 1 40 5
 155 0134 8545     		li	a1,1
 156              		.loc 1 41 1
 157 0136 4101     		addi	sp,sp,16
 158              	.LCFI1:
 159              		.cfi_def_cfa_offset 0
  40:adc.c         ****     adc_software_trigger_enable(ADC0, ADC_REGULAR_CHANNEL);             // ...trigger 1:st conv!
 160              		.loc 1 40 5
 161 0138 17030000 		tail	adc_software_trigger_enable
 161      67000300 
 162              	.LVL22:
 163              		.cfi_endproc
 164              	.LFE5:
GAS LISTING /var/folders/rt/4gvqv631095f64jvm7jfj_000000gn/T//ccd2KeZO.s 			page 5


 166              		.section	.text.readLightSensor,"ax",@progbits
 167              		.align	1
 168              		.globl	readLightSensor
 170              	readLightSensor:
 171              	.LFB6:
  42:adc.c         **** 
  43:adc.c         **** int readLightSensor(uint32_t source, uint32_t EOC)
  44:adc.c         **** {
 172              		.loc 1 44 1 is_stmt 1
 173              		.cfi_startproc
 174              	.LVL23:
  45:adc.c         ****   adc_software_trigger_enable(source, ADC_REGULAR_CHANNEL);
 175              		.loc 1 45 3
  44:adc.c         ****   adc_software_trigger_enable(source, ADC_REGULAR_CHANNEL);
 176              		.loc 1 44 1 is_stmt 0
 177 0000 0111     		addi	sp,sp,-32
 178              	.LCFI2:
 179              		.cfi_def_cfa_offset 32
 180 0002 26CA     		sw	s1,20(sp)
 181              		.cfi_offset 9, -12
 182 0004 AE84     		mv	s1,a1
 183              		.loc 1 45 3
 184 0006 8545     		li	a1,1
 185              	.LVL24:
  44:adc.c         ****   adc_software_trigger_enable(source, ADC_REGULAR_CHANNEL);
 186              		.loc 1 44 1
 187 0008 22CC     		sw	s0,24(sp)
 188 000a 4AC8     		sw	s2,16(sp)
 189 000c 4EC6     		sw	s3,12(sp)
 190 000e 06CE     		sw	ra,28(sp)
 191              		.cfi_offset 8, -8
 192              		.cfi_offset 18, -16
 193              		.cfi_offset 19, -20
 194              		.cfi_offset 1, -4
  44:adc.c         ****   adc_software_trigger_enable(source, ADC_REGULAR_CHANNEL);
 195              		.loc 1 44 1
 196 0010 2A84     		mv	s0,a0
  46:adc.c         ****   int called = 0;
 197              		.loc 1 46 7
 198 0012 0149     		li	s2,0
  45:adc.c         ****   adc_software_trigger_enable(source, ADC_REGULAR_CHANNEL);
 199              		.loc 1 45 3
 200 0014 97000000 		call	adc_software_trigger_enable
 200      E7800000 
 201              	.LVL25:
 202              		.loc 1 46 3 is_stmt 1
  47:adc.c         ****   while (!adc_flag_get(source, EOC))
 203              		.loc 1 47 3
  48:adc.c         ****   { // blocking
  49:adc.c         ****     if (!called)
  50:adc.c         ****     {
  51:adc.c         ****       LCD_Clear(BLACK);
  52:adc.c         ****       LCD_ShowStr(50, 4, "reads sensor", GREEN, TRANSPARENT);
 204              		.loc 1 52 7 is_stmt 0
 205 001c B7090000 		lui	s3,%hi(.LC0)
 206              	.LVL26:
 207              	.L9:
GAS LISTING /var/folders/rt/4gvqv631095f64jvm7jfj_000000gn/T//ccd2KeZO.s 			page 6


  47:adc.c         ****   while (!adc_flag_get(source, EOC))
 208              		.loc 1 47 11
 209 0020 A685     		mv	a1,s1
 210 0022 2285     		mv	a0,s0
 211 0024 97000000 		call	adc_flag_get
 211      E7800000 
 212              	.LVL27:
  47:adc.c         ****   while (!adc_flag_get(source, EOC))
 213              		.loc 1 47 9
 214 002c 0DC5     		beq	a0,zero,.L10
  53:adc.c         ****       called = 1;
  54:adc.c         ****     }
  55:adc.c         ****   }
  56:adc.c         ****   int reading = adc_regular_data_read(source);
 215              		.loc 1 56 3 is_stmt 1
 216              		.loc 1 56 17 is_stmt 0
 217 002e 2285     		mv	a0,s0
 218 0030 97000000 		call	adc_regular_data_read
 218      E7800000 
 219              	.LVL28:
 220 0038 2A89     		mv	s2,a0
 221              	.LVL29:
  57:adc.c         ****   adc_flag_clear(source, EOC);
 222              		.loc 1 57 3 is_stmt 1
 223 003a A685     		mv	a1,s1
 224 003c 2285     		mv	a0,s0
 225 003e 97000000 		call	adc_flag_clear
 225      E7800000 
 226              	.LVL30:
  58:adc.c         ****   return reading;
 227              		.loc 1 58 3
  59:adc.c         **** }
 228              		.loc 1 59 1 is_stmt 0
 229 0046 F240     		lw	ra,28(sp)
 230              		.cfi_remember_state
 231              		.cfi_restore 1
 232 0048 6244     		lw	s0,24(sp)
 233              		.cfi_restore 8
 234              	.LVL31:
 235 004a 4A85     		mv	a0,s2
 236 004c D244     		lw	s1,20(sp)
 237              		.cfi_restore 9
 238              	.LVL32:
 239 004e 4249     		lw	s2,16(sp)
 240              		.cfi_restore 18
 241              	.LVL33:
 242 0050 B249     		lw	s3,12(sp)
 243              		.cfi_restore 19
 244 0052 0561     		addi	sp,sp,32
 245              	.LCFI3:
 246              		.cfi_def_cfa_offset 0
 247 0054 8280     		jr	ra
 248              	.LVL34:
 249              	.L10:
 250              	.LCFI4:
 251              		.cfi_restore_state
  49:adc.c         ****     {
GAS LISTING /var/folders/rt/4gvqv631095f64jvm7jfj_000000gn/T//ccd2KeZO.s 			page 7


 252              		.loc 1 49 5 is_stmt 1
  49:adc.c         ****     {
 253              		.loc 1 49 8 is_stmt 0
 254 0056 E31509FC 		bne	s2,zero,.L9
  51:adc.c         ****       LCD_ShowStr(50, 4, "reads sensor", GREEN, TRANSPARENT);
 255              		.loc 1 51 7 is_stmt 1
 256 005a 97000000 		call	LCD_Clear
 256      E7800000 
 257              	.LVL35:
  52:adc.c         ****       called = 1;
 258              		.loc 1 52 7
 259 0062 0547     		li	a4,1
 260 0064 9306007E 		li	a3,2016
 261 0068 13860900 		addi	a2,s3,%lo(.LC0)
 262 006c 9145     		li	a1,4
 263 006e 13052003 		li	a0,50
 264 0072 97000000 		call	LCD_ShowStr
 264      E7800000 
 265              	.LVL36:
  53:adc.c         ****     }
 266              		.loc 1 53 7
  53:adc.c         ****     }
 267              		.loc 1 53 14 is_stmt 0
 268 007a 0549     		li	s2,1
 269 007c 55B7     		j	.L9
 270              		.cfi_endproc
 271              	.LFE6:
 273              		.section	.text.MAX31865_ExchangeByte,"ax",@progbits
 274              		.align	1
 275              		.globl	MAX31865_ExchangeByte
 277              	MAX31865_ExchangeByte:
 278              	.LFB7:
  60:adc.c         **** 
  61:adc.c         **** // JOCKE TEMP-SENSOR ÖVER SPI
  62:adc.c         **** 
  63:adc.c         **** /*  MAX31865 är resistans-till-digital-konverteraren (RTD) som sitter kopplad till tempsensorn.
  64:adc.c         ****     MAX31865_ExchangeByte är grundläggande SPI-kommunikation.
  65:adc.c         ****     Funktionen väntar på att sändningsbufferten är tom (TBE) och att 
  66:adc.c         ****     mottagningsbufferten är full (RBNE) innan den returnerar svar.
  67:adc.c         ****     Sensorn lyssnar när GPIOA pin 4 sätts låg
  68:adc.c         **** */
  69:adc.c         **** 
  70:adc.c         **** uint8_t MAX31865_ExchangeByte(uint8_t data) {
 279              		.loc 1 70 45 is_stmt 1
 280              		.cfi_startproc
 281              	.LVL37:
 282 0000 4111     		addi	sp,sp,-16
 283              	.LCFI5:
 284              		.cfi_def_cfa_offset 16
 285 0002 22C4     		sw	s0,8(sp)
 286 0004 06C6     		sw	ra,12(sp)
 287              		.cfi_offset 8, -8
 288              		.cfi_offset 1, -4
 289 0006 2A84     		mv	s0,a0
  71:adc.c         ****     while (spi_i2s_flag_get(SPI0, SPI_FLAG_TBE) == RESET);  
 290              		.loc 1 71 5
 291              	.LVL38:
GAS LISTING /var/folders/rt/4gvqv631095f64jvm7jfj_000000gn/T//ccd2KeZO.s 			page 8


 292              	.L14:
 293              		.loc 1 71 58 discriminator 1
 294              		.loc 1 71 12 is_stmt 0 discriminator 1
 295 0008 8945     		li	a1,2
 296 000a 37350140 		li	a0,1073819648
 297 000e 97000000 		call	spi_i2s_flag_get
 297      E7800000 
 298              	.LVL39:
 299              		.loc 1 71 11 discriminator 1
 300 0016 6DD9     		beq	a0,zero,.L14
  72:adc.c         ****     spi_i2s_data_transmit(SPI0, data);                
 301              		.loc 1 72 5 is_stmt 1
 302 0018 A285     		mv	a1,s0
 303 001a 37350140 		li	a0,1073819648
 304 001e 97000000 		call	spi_i2s_data_transmit
 304      E7800000 
 305              	.LVL40:
  73:adc.c         ****     while (spi_i2s_flag_get(SPI0, SPI_FLAG_RBNE) == RESET); 
 306              		.loc 1 73 5
 307              	.L15:
 308              		.loc 1 73 59 discriminator 1
 309              		.loc 1 73 12 is_stmt 0 discriminator 1
 310 0026 8545     		li	a1,1
 311 0028 37350140 		li	a0,1073819648
 312 002c 97000000 		call	spi_i2s_flag_get
 312      E7800000 
 313              	.LVL41:
 314              		.loc 1 73 11 discriminator 1
 315 0034 6DD9     		beq	a0,zero,.L15
  74:adc.c         ****     return spi_i2s_data_receive(SPI0);
 316              		.loc 1 74 5 is_stmt 1
 317              		.loc 1 74 12 is_stmt 0
 318 0036 37350140 		li	a0,1073819648
 319 003a 97000000 		call	spi_i2s_data_receive
 319      E7800000 
 320              	.LVL42:
  75:adc.c         **** }
 321              		.loc 1 75 1
 322 0042 B240     		lw	ra,12(sp)
 323              		.cfi_restore 1
 324 0044 2244     		lw	s0,8(sp)
 325              		.cfi_restore 8
 326 0046 1375F50F 		andi	a0,a0,0xff
 327 004a 4101     		addi	sp,sp,16
 328              	.LCFI6:
 329              		.cfi_def_cfa_offset 0
 330 004c 8280     		jr	ra
 331              		.cfi_endproc
 332              	.LFE7:
 334              		.section	.text.MAX31865_Init,"ax",@progbits
 335              		.align	1
 336              		.globl	MAX31865_Init
 338              	MAX31865_Init:
 339              	.LFB8:
  76:adc.c         **** 
  77:adc.c         **** void MAX31865_Init(void) {
 340              		.loc 1 77 26 is_stmt 1
GAS LISTING /var/folders/rt/4gvqv631095f64jvm7jfj_000000gn/T//ccd2KeZO.s 			page 9


 341              		.cfi_startproc
  78:adc.c         ****     spi_parameter_struct spi_init_struct;
 342              		.loc 1 78 5
  79:adc.c         ****     rcu_periph_clock_enable(RCU_GPIOA);
 343              		.loc 1 79 5
  77:adc.c         ****     spi_parameter_struct spi_init_struct;
 344              		.loc 1 77 26 is_stmt 0
 345 0000 7971     		addi	sp,sp,-48
 346              	.LCFI7:
 347              		.cfi_def_cfa_offset 48
 348              		.loc 1 79 5
 349 0002 13052060 		li	a0,1538
  77:adc.c         ****     spi_parameter_struct spi_init_struct;
 350              		.loc 1 77 26
 351 0006 06D6     		sw	ra,44(sp)
 352 0008 22D4     		sw	s0,40(sp)
 353              		.cfi_offset 1, -4
 354              		.cfi_offset 8, -8
 355              		.loc 1 79 5
 356 000a 97000000 		call	rcu_periph_clock_enable
 356      E7800000 
 357              	.LVL43:
  80:adc.c         ****     rcu_periph_clock_enable(RCU_SPI0);
 358              		.loc 1 80 5 is_stmt 1
 359 0012 1305C060 		li	a0,1548
 360 0016 97000000 		call	rcu_periph_clock_enable
 360      E7800000 
 361              	.LVL44:
  81:adc.c         **** 
  82:adc.c         ****     gpio_init(GPIOA, GPIO_MODE_OUT_PP, GPIO_OSPEED_50MHZ, GPIO_PIN_4); // CS
 362              		.loc 1 82 5
 363 001e 37140140 		li	s0,1073811456
 364 0022 13050480 		addi	a0,s0,-2048
 365 0026 C146     		li	a3,16
 366 0028 0D46     		li	a2,3
 367 002a C145     		li	a1,16
 368 002c 97000000 		call	gpio_init
 368      E7800000 
 369              	.LVL45:
  83:adc.c         ****     gpio_init(GPIOA, GPIO_MODE_AF_PP, GPIO_OSPEED_50MHZ, GPIO_PIN_5 | GPIO_PIN_7); // SCK (Serial c
 370              		.loc 1 83 5
 371 0034 13050480 		addi	a0,s0,-2048
 372 0038 9306000A 		li	a3,160
 373 003c 0D46     		li	a2,3
 374 003e E145     		li	a1,24
 375 0040 97000000 		call	gpio_init
 375      E7800000 
 376              	.LVL46:
  84:adc.c         ****     gpio_init(GPIOA, GPIO_MODE_IN_FLOATING, GPIO_OSPEED_50MHZ, GPIO_PIN_6); // MISO (Master In, Sla
 377              		.loc 1 84 5
 378 0048 93060004 		li	a3,64
 379 004c 0D46     		li	a2,3
 380 004e 13050480 		addi	a0,s0,-2048
 381 0052 9145     		li	a1,4
 382 0054 97000000 		call	gpio_init
 382      E7800000 
 383              	.LVL47:
GAS LISTING /var/folders/rt/4gvqv631095f64jvm7jfj_000000gn/T//ccd2KeZO.s 			page 10


  85:adc.c         ****     
  86:adc.c         ****     gpio_bit_set(GPIOA, GPIO_PIN_4); // Sätter CS hög så sensorn är inaktiv under uppstart
 384              		.loc 1 86 5
 385 005c C145     		li	a1,16
 386 005e 13050480 		addi	a0,s0,-2048
 387 0062 97000000 		call	gpio_bit_set
 387      E7800000 
 388              	.LVL48:
  87:adc.c         **** 
  88:adc.c         ****     // SPI-parametrar: Master, 8-bit, Mode 3 (CPOL=1, CPHA=1), Hastighet: dividerat med 32
  89:adc.c         ****     spi_struct_para_init(&spi_init_struct);
 389              		.loc 1 89 5
 390 006a 4800     		addi	a0,sp,4
 391 006c 97000000 		call	spi_struct_para_init
 391      E7800000 
 392              	.LVL49:
  90:adc.c         ****     spi_init_struct.trans_mode           = SPI_TRANSMODE_FULLDUPLEX;
 393              		.loc 1 90 5
  91:adc.c         ****     spi_init_struct.device_mode          = SPI_MASTER;
 394              		.loc 1 91 42 is_stmt 0
 395 0074 93074010 		li	a5,260
 396 0078 3EC2     		sw	a5,4(sp)
  92:adc.c         ****     spi_init_struct.frame_size           = SPI_FRAMESIZE_8BIT;
  93:adc.c         ****     spi_init_struct.clock_polarity_phase = SPI_CK_PL_HIGH_PH_2EDGE; // Mode 3
 397              		.loc 1 93 42
 398 007a 8D47     		li	a5,3
 399 007c 3ECC     		sw	a5,24(sp)
  94:adc.c         ****     spi_init_struct.nss                  = SPI_NSS_SOFT;
 400              		.loc 1 94 42
 401 007e 93070020 		li	a5,512
  95:adc.c         ****     spi_init_struct.prescale             = SPI_PSC_32; 
  96:adc.c         ****     spi_init_struct.endian               = SPI_ENDIAN_MSB;
  97:adc.c         ****     spi_init(SPI0, &spi_init_struct);
 402              		.loc 1 97 5
 403 0082 4C00     		addi	a1,sp,4
  94:adc.c         ****     spi_init_struct.nss                  = SPI_NSS_SOFT;
 404              		.loc 1 94 42
 405 0084 3EC8     		sw	a5,16(sp)
 406              		.loc 1 97 5
 407 0086 37350140 		li	a0,1073819648
  95:adc.c         ****     spi_init_struct.prescale             = SPI_PSC_32; 
 408              		.loc 1 95 42
 409 008a 93070002 		li	a5,32
 410 008e 3ECE     		sw	a5,28(sp)
  90:adc.c         ****     spi_init_struct.device_mode          = SPI_MASTER;
 411              		.loc 1 90 42
 412 0090 02C4     		sw	zero,8(sp)
  91:adc.c         ****     spi_init_struct.frame_size           = SPI_FRAMESIZE_8BIT;
 413              		.loc 1 91 5 is_stmt 1
  92:adc.c         ****     spi_init_struct.clock_polarity_phase = SPI_CK_PL_HIGH_PH_2EDGE; // Mode 3
 414              		.loc 1 92 5
  92:adc.c         ****     spi_init_struct.clock_polarity_phase = SPI_CK_PL_HIGH_PH_2EDGE; // Mode 3
 415              		.loc 1 92 42 is_stmt 0
 416 0092 02C6     		sw	zero,12(sp)
  93:adc.c         ****     spi_init_struct.nss                  = SPI_NSS_SOFT;
 417              		.loc 1 93 5 is_stmt 1
  94:adc.c         ****     spi_init_struct.prescale             = SPI_PSC_32; 
GAS LISTING /var/folders/rt/4gvqv631095f64jvm7jfj_000000gn/T//ccd2KeZO.s 			page 11


 418              		.loc 1 94 5
  95:adc.c         ****     spi_init_struct.endian               = SPI_ENDIAN_MSB;
 419              		.loc 1 95 5
  96:adc.c         ****     spi_init(SPI0, &spi_init_struct);
 420              		.loc 1 96 5
  96:adc.c         ****     spi_init(SPI0, &spi_init_struct);
 421              		.loc 1 96 42 is_stmt 0
 422 0094 02CA     		sw	zero,20(sp)
 423              		.loc 1 97 5 is_stmt 1
 424 0096 97000000 		call	spi_init
 424      E7800000 
 425              	.LVL50:
  98:adc.c         **** 
  99:adc.c         ****     spi_enable(SPI0); // Startar SPI0-modulen
 426              		.loc 1 99 5
 427 009e 37350140 		li	a0,1073819648
 428 00a2 97000000 		call	spi_enable
 428      E7800000 
 429              	.LVL51:
 100:adc.c         **** 
 101:adc.c         ****     gpio_bit_reset(GPIOA, GPIO_PIN_4);
 430              		.loc 1 101 5
 431 00aa C145     		li	a1,16
 432 00ac 13050480 		addi	a0,s0,-2048
 433 00b0 97000000 		call	gpio_bit_reset
 433      E7800000 
 434              	.LVL52:
 102:adc.c         ****     MAX31865_ExchangeByte(0x80); // Konfar sensorns register 0x00, skrivadress 0x80
 435              		.loc 1 102 5
 436 00b8 13050008 		li	a0,128
 437 00bc 97000000 		call	MAX31865_ExchangeByte
 437      E7800000 
 438              	.LVL53:
 103:adc.c         ****     MAX31865_ExchangeByte(0xD1); // 0xD1 aktiverar VBIAS (ström till sensorn), autoomvandling, 3-t
 439              		.loc 1 103 5
 440 00c4 1305100D 		li	a0,209
 441 00c8 97000000 		call	MAX31865_ExchangeByte
 441      E7800000 
 442              	.LVL54:
 104:adc.c         ****     gpio_bit_set(GPIOA, GPIO_PIN_4);
 443              		.loc 1 104 5
 444 00d0 13050480 		addi	a0,s0,-2048
 445 00d4 C145     		li	a1,16
 446 00d6 97000000 		call	gpio_bit_set
 446      E7800000 
 447              	.LVL55:
 105:adc.c         **** }
 448              		.loc 1 105 1 is_stmt 0
 449 00de B250     		lw	ra,44(sp)
 450              		.cfi_restore 1
 451 00e0 2254     		lw	s0,40(sp)
 452              		.cfi_restore 8
 453 00e2 4561     		addi	sp,sp,48
 454              	.LCFI8:
 455              		.cfi_def_cfa_offset 0
 456 00e4 8280     		jr	ra
 457              		.cfi_endproc
GAS LISTING /var/folders/rt/4gvqv631095f64jvm7jfj_000000gn/T//ccd2KeZO.s 			page 12


 458              	.LFE8:
 460              		.section	.text.MAX31865_ReadADC,"ax",@progbits
 461              		.align	1
 462              		.globl	MAX31865_ReadADC
 464              	MAX31865_ReadADC:
 465              	.LFB9:
 106:adc.c         **** 
 107:adc.c         **** // Läser in resistansvärdet från sensorn. 
 108:adc.c         **** // Läser RTD MSB (0x01) LSB (0x02) och slår ihop dem till ett 15-bitars värde.
 109:adc.c         **** uint16_t MAX31865_ReadADC(void) {
 466              		.loc 1 109 33 is_stmt 1
 467              		.cfi_startproc
 110:adc.c         ****     uint8_t msb, lsb;
 468              		.loc 1 110 5
 111:adc.c         ****     
 112:adc.c         ****      gpio_bit_reset(GPIOA, GPIO_PIN_4);
 469              		.loc 1 112 6
 109:adc.c         ****     uint8_t msb, lsb;
 470              		.loc 1 109 33 is_stmt 0
 471 0000 4111     		addi	sp,sp,-16
 472              	.LCFI9:
 473              		.cfi_def_cfa_offset 16
 474 0002 26C2     		sw	s1,4(sp)
 475              		.cfi_offset 9, -12
 476              		.loc 1 112 6
 477 0004 B7140140 		li	s1,1073811456
 478 0008 C145     		li	a1,16
 479 000a 13850480 		addi	a0,s1,-2048
 109:adc.c         ****     uint8_t msb, lsb;
 480              		.loc 1 109 33
 481 000e 06C6     		sw	ra,12(sp)
 482 0010 22C4     		sw	s0,8(sp)
 483 0012 4AC0     		sw	s2,0(sp)
 484              		.cfi_offset 1, -4
 485              		.cfi_offset 8, -8
 486              		.cfi_offset 18, -16
 487              		.loc 1 112 6
 488 0014 97000000 		call	gpio_bit_reset
 488      E7800000 
 489              	.LVL56:
 113:adc.c         ****     MAX31865_ExchangeByte(0x01);        // Frågar efter register 0x01
 490              		.loc 1 113 5 is_stmt 1
 491 001c 0545     		li	a0,1
 492 001e 97000000 		call	MAX31865_ExchangeByte
 492      E7800000 
 493              	.LVL57:
 114:adc.c         ****     msb = MAX31865_ExchangeByte(0xFF);  // Klockar in MSB (skickar skräp-data ut)
 494              		.loc 1 114 5
 495              		.loc 1 114 11 is_stmt 0
 496 0026 1305F00F 		li	a0,255
 497 002a 97000000 		call	MAX31865_ExchangeByte
 497      E7800000 
 498              	.LVL58:
 499 0032 2A84     		mv	s0,a0
 500              	.LVL59:
 115:adc.c         ****     lsb = MAX31865_ExchangeByte(0xFF);  // Klockar in LSB
 501              		.loc 1 115 5 is_stmt 1
GAS LISTING /var/folders/rt/4gvqv631095f64jvm7jfj_000000gn/T//ccd2KeZO.s 			page 13


 502              		.loc 1 115 11 is_stmt 0
 503 0034 1305F00F 		li	a0,255
 504 0038 97000000 		call	MAX31865_ExchangeByte
 504      E7800000 
 505              	.LVL60:
 506 0040 2A89     		mv	s2,a0
 507              	.LVL61:
 116:adc.c         ****     gpio_bit_set(GPIOA, GPIO_PIN_4);
 508              		.loc 1 116 5 is_stmt 1
 509 0042 C145     		li	a1,16
 510 0044 13850480 		addi	a0,s1,-2048
 511 0048 97000000 		call	gpio_bit_set
 511      E7800000 
 512              	.LVL62:
 117:adc.c         **** 
 118:adc.c         ****     // Kombinera byten och ta bort sista biten (fel-flaggan D0)
 119:adc.c         ****     uint16_t adc_code = (msb << 8) | lsb;
 513              		.loc 1 119 5
 120:adc.c         ****     return adc_code >> 1; 
 514              		.loc 1 120 5
 119:adc.c         ****     return adc_code >> 1; 
 515              		.loc 1 119 30 is_stmt 0
 516 0050 13158400 		slli	a0,s0,8
 119:adc.c         ****     return adc_code >> 1; 
 517              		.loc 1 119 36
 518 0054 33652501 		or	a0,a0,s2
 121:adc.c         **** }
 519              		.loc 1 121 1
 520 0058 B240     		lw	ra,12(sp)
 521              		.cfi_restore 1
 522 005a 2244     		lw	s0,8(sp)
 523              		.cfi_restore 8
 524              	.LVL63:
 120:adc.c         ****     return adc_code >> 1; 
 525              		.loc 1 120 21
 526 005c 4205     		slli	a0,a0,16
 527 005e 4181     		srli	a0,a0,16
 528              		.loc 1 121 1
 529 0060 9244     		lw	s1,4(sp)
 530              		.cfi_restore 9
 531 0062 0249     		lw	s2,0(sp)
 532              		.cfi_restore 18
 533              	.LVL64:
 534 0064 0581     		srli	a0,a0,1
 535 0066 4101     		addi	sp,sp,16
 536              	.LCFI10:
 537              		.cfi_def_cfa_offset 0
 538 0068 8280     		jr	ra
 539              		.cfi_endproc
 540              	.LFE9:
 542              		.globl	__floatunsisf
 543              		.globl	__mulsf3
 544              		.globl	__extendsfdf2
 545              		.globl	__subdf3
 546              		.globl	__divdf3
 547              		.globl	__truncdfsf2
 548              		.globl	__addsf3
GAS LISTING /var/folders/rt/4gvqv631095f64jvm7jfj_000000gn/T//ccd2KeZO.s 			page 14


 549              		.globl	__floatsisf
 550              		.globl	__divsf3
 551              		.section	.text.read_temp,"ax",@progbits
 552              		.align	1
 553              		.globl	read_temp
 555              	read_temp:
 556              	.LFB10:
 122:adc.c         **** 
 123:adc.c         **** int read_temp(void) {
 557              		.loc 1 123 21 is_stmt 1
 558              		.cfi_startproc
 124:adc.c         ****     static int ms_counter=0; 
 559              		.loc 1 124 5
 125:adc.c         ****     static int sample_count = 0;
 560              		.loc 1 125 5
 126:adc.c         ****     static float temp_sum = 0;
 561              		.loc 1 126 5
 127:adc.c         ****     static float temperature = 0.0;
 562              		.loc 1 127 5
 128:adc.c         ****     const float R_ref = 430.0; // Referensmotståndet på MAX31865-modulen
 563              		.loc 1 128 5
 564              	.LVL65:
 129:adc.c         ****     ms_counter++;  
 565              		.loc 1 129 5
 123:adc.c         ****     static int ms_counter=0; 
 566              		.loc 1 123 21 is_stmt 0
 567 0000 4111     		addi	sp,sp,-16
 568              	.LCFI11:
 569              		.cfi_def_cfa_offset 16
 570 0002 22C4     		sw	s0,8(sp)
 571              		.cfi_offset 8, -8
 572              		.loc 1 129 15
 573 0004 37040000 		lui	s0,%hi(.LANCHOR0)
 574 0008 13070400 		addi	a4,s0,%lo(.LANCHOR0)
 575 000c 1C43     		lw	a5,0(a4)
 123:adc.c         ****     static int ms_counter=0; 
 576              		.loc 1 123 21
 577 000e 06C6     		sw	ra,12(sp)
 578 0010 26C2     		sw	s1,4(sp)
 579              		.cfi_offset 1, -4
 580              		.cfi_offset 9, -12
 581              		.loc 1 129 15
 582 0012 8507     		addi	a5,a5,1
 583 0014 1CC3     		sw	a5,0(a4)
 130:adc.c         ****     // Samplar 5 ggr per sekund
 131:adc.c         ****     if (ms_counter % 200 == 0) {
 584              		.loc 1 131 5 is_stmt 1
 585              		.loc 1 131 20 is_stmt 0
 586 0016 1307800C 		li	a4,200
 587 001a B3E7E702 		rem	a5,a5,a4
 588 001e 13040400 		addi	s0,s0,%lo(.LANCHOR0)
 589              		.loc 1 131 8
 590 0022 D1E7     		bne	a5,zero,.L26
 591              	.LBB2:
 132:adc.c         ****         uint16_t adc_val = MAX31865_ReadADC(); //
 592              		.loc 1 132 9 is_stmt 1
 593              		.loc 1 132 28 is_stmt 0
GAS LISTING /var/folders/rt/4gvqv631095f64jvm7jfj_000000gn/T//ccd2KeZO.s 			page 15


 594 0024 97000000 		call	MAX31865_ReadADC
 594      E7800000 
 595              	.LVL66:
 133:adc.c         ****         // Omvandlar ADC-värde till resistans och sedan till Celsius
 134:adc.c         ****         float R_rtd = (float)adc_val * R_ref / 32768.0; // R_rtd är resistansen i RTD-sensorn
 596              		.loc 1 134 9 is_stmt 1
 135:adc.c         ****         float current_temp = (R_rtd - 100.0) / 0.3851;
 597              		.loc 1 135 9
 136:adc.c         ****         temp_sum += current_temp;
 598              		.loc 1 136 9
 134:adc.c         ****         float current_temp = (R_rtd - 100.0) / 0.3851;
 599              		.loc 1 134 23 is_stmt 0
 600 002c 97000000 		call	__floatunsisf
 600      E7800000 
 601              	.LVL67:
 134:adc.c         ****         float current_temp = (R_rtd - 100.0) / 0.3851;
 602              		.loc 1 134 38
 603 0034 B7070000 		lui	a5,%hi(.LC1)
 604 0038 83A50700 		lw	a1,%lo(.LC1)(a5)
 605              		.loc 1 136 18
 606 003c B7040000 		lui	s1,%hi(.LANCHOR1)
 607 0040 93840400 		addi	s1,s1,%lo(.LANCHOR1)
 134:adc.c         ****         float current_temp = (R_rtd - 100.0) / 0.3851;
 608              		.loc 1 134 38
 609 0044 97000000 		call	__mulsf3
 609      E7800000 
 610              	.LVL68:
 134:adc.c         ****         float current_temp = (R_rtd - 100.0) / 0.3851;
 611              		.loc 1 134 15
 612 004c B7070000 		lui	a5,%hi(.LC2)
 613 0050 83A50700 		lw	a1,%lo(.LC2)(a5)
 614 0054 97000000 		call	__mulsf3
 614      E7800000 
 615              	.LVL69:
 135:adc.c         ****         float current_temp = (R_rtd - 100.0) / 0.3851;
 616              		.loc 1 135 37
 617 005c 97000000 		call	__extendsfdf2
 617      E7800000 
 618              	.LVL70:
 619 0064 B7070000 		lui	a5,%hi(.LC3)
 620 0068 03A60700 		lw	a2,%lo(.LC3)(a5)
 621 006c 83A64700 		lw	a3,%lo(.LC3+4)(a5)
 622 0070 97000000 		call	__subdf3
 622      E7800000 
 623              	.LVL71:
 135:adc.c         ****         float current_temp = (R_rtd - 100.0) / 0.3851;
 624              		.loc 1 135 46
 625 0078 B7070000 		lui	a5,%hi(.LC4)
 626 007c 03A60700 		lw	a2,%lo(.LC4)(a5)
 627 0080 83A64700 		lw	a3,%lo(.LC4+4)(a5)
 628 0084 97000000 		call	__divdf3
 628      E7800000 
 629              	.LVL72:
 135:adc.c         ****         float current_temp = (R_rtd - 100.0) / 0.3851;
 630              		.loc 1 135 15
 631 008c 97000000 		call	__truncdfsf2
 631      E7800000 
GAS LISTING /var/folders/rt/4gvqv631095f64jvm7jfj_000000gn/T//ccd2KeZO.s 			page 16


 632              	.LVL73:
 633              		.loc 1 136 18
 634 0094 8C40     		lw	a1,0(s1)
 635 0096 97000000 		call	__addsf3
 635      E7800000 
 636              	.LVL74:
 137:adc.c         ****         sample_count++;
 637              		.loc 1 137 21
 638 009e B7070000 		lui	a5,%hi(.LANCHOR2)
 639 00a2 93870700 		addi	a5,a5,%lo(.LANCHOR2)
 640 00a6 9843     		lw	a4,0(a5)
 136:adc.c         ****         temp_sum += current_temp;
 641              		.loc 1 136 18
 642 00a8 88C0     		sw	a0,0(s1)
 643              		.loc 1 137 9 is_stmt 1
 644              		.loc 1 137 21 is_stmt 0
 645 00aa 0507     		addi	a4,a4,1
 646 00ac 98C3     		sw	a4,0(a5)
 647              	.L26:
 648              	.LBE2:
 138:adc.c         ****     }
 139:adc.c         ****     // Räknar medelvärdet som sen visas på skärmen
 140:adc.c         ****     if (ms_counter >= 1000) {
 649              		.loc 1 140 5 is_stmt 1
 650              		.loc 1 140 8 is_stmt 0
 651 00ae 1840     		lw	a4,0(s0)
 652 00b0 9307703E 		li	a5,999
 653 00b4 63D9E704 		ble	a4,a5,.L28
 141:adc.c         ****         ms_counter = 0;
 654              		.loc 1 141 9 is_stmt 1
 655              		.loc 1 141 20 is_stmt 0
 656 00b8 23200400 		sw	zero,0(s0)
 142:adc.c         ****         if (sample_count > 0) {
 657              		.loc 1 142 9 is_stmt 1
 658              		.loc 1 142 26 is_stmt 0
 659 00bc 37040000 		lui	s0,%hi(.LANCHOR2)
 660 00c0 13040400 		addi	s0,s0,%lo(.LANCHOR2)
 661 00c4 0840     		lw	a0,0(s0)
 662              		.loc 1 142 12
 663 00c6 6350A004 		ble	a0,zero,.L28
 664              	.LBB3:
 143:adc.c         ****             float average_temp = temp_sum / (float)sample_count;
 665              		.loc 1 143 13 is_stmt 1
 666              	.LVL75:
 144:adc.c         ****             LCD_ShowNum1(6, 40, average_temp, 4, WHITE);
 667              		.loc 1 144 13
 143:adc.c         ****             float average_temp = temp_sum / (float)sample_count;
 668              		.loc 1 143 43 is_stmt 0
 669 00ca B7040000 		lui	s1,%hi(.LANCHOR1)
 143:adc.c         ****             float average_temp = temp_sum / (float)sample_count;
 670              		.loc 1 143 45
 671 00ce 97000000 		call	__floatsisf
 671      E7800000 
 672              	.LVL76:
 143:adc.c         ****             float average_temp = temp_sum / (float)sample_count;
 673              		.loc 1 143 43
 674 00d6 93840400 		addi	s1,s1,%lo(.LANCHOR1)
GAS LISTING /var/folders/rt/4gvqv631095f64jvm7jfj_000000gn/T//ccd2KeZO.s 			page 17


 143:adc.c         ****             float average_temp = temp_sum / (float)sample_count;
 675              		.loc 1 143 19
 676 00da AA85     		mv	a1,a0
 677 00dc 8840     		lw	a0,0(s1)
 678 00de 97000000 		call	__divsf3
 678      E7800000 
 679              	.LVL77:
 680              		.loc 1 144 13
 681 00e6 4167     		li	a4,65536
 682 00e8 2A86     		mv	a2,a0
 683 00ea 7D17     		addi	a4,a4,-1
 684 00ec 9146     		li	a3,4
 685 00ee 93058002 		li	a1,40
 686 00f2 1945     		li	a0,6
 687 00f4 97000000 		call	LCD_ShowNum1
 687      E7800000 
 688              	.LVL78:
 145:adc.c         ****             temp_sum = 0;
 689              		.loc 1 145 13 is_stmt 1
 690              		.loc 1 145 22 is_stmt 0
 691 00fc 93070000 		mv	a5,zero
 692 0100 9CC0     		sw	a5,0(s1)
 146:adc.c         ****             sample_count = 0;
 693              		.loc 1 146 13 is_stmt 1
 694              		.loc 1 146 26 is_stmt 0
 695 0102 23200400 		sw	zero,0(s0)
 696              	.L28:
 697              	.LBE3:
 147:adc.c         ****         }
 148:adc.c         ****     }
 149:adc.c         **** }
 698              		.loc 1 149 1
 699 0106 B240     		lw	ra,12(sp)
 700              		.cfi_restore 1
 701 0108 2244     		lw	s0,8(sp)
 702              		.cfi_restore 8
 703 010a 9244     		lw	s1,4(sp)
 704              		.cfi_restore 9
 705 010c 4101     		addi	sp,sp,16
 706              	.LCFI12:
 707              		.cfi_def_cfa_offset 0
 708 010e 8280     		jr	ra
 709              		.cfi_endproc
 710              	.LFE10:
 712              		.section	.text.ADC_read,"ax",@progbits
 713              		.align	1
 714              		.globl	ADC_read
 716              	ADC_read:
 717              	.LFB11:
 150:adc.c         **** 
 151:adc.c         **** // JOCKE TEMP-SENSOR ÖVER SPI -- SLUT
 152:adc.c         **** 
 153:adc.c         **** // DAVE MOISTURE SENSOR ÖVER ADC START
 154:adc.c         **** 
 155:adc.c         **** uint16_t ADC_read(void) {
 718              		.loc 1 155 25 is_stmt 1
 719              		.cfi_startproc
GAS LISTING /var/folders/rt/4gvqv631095f64jvm7jfj_000000gn/T//ccd2KeZO.s 			page 18


 156:adc.c         ****     adc_software_trigger_enable(ADC0, ADC_REGULAR_CHANNEL);
 720              		.loc 1 156 5
 155:adc.c         ****     adc_software_trigger_enable(ADC0, ADC_REGULAR_CHANNEL);
 721              		.loc 1 155 25 is_stmt 0
 722 0000 4111     		addi	sp,sp,-16
 723              	.LCFI13:
 724              		.cfi_def_cfa_offset 16
 725              		.loc 1 156 5
 726 0002 37250140 		li	a0,1073815552
 155:adc.c         ****     adc_software_trigger_enable(ADC0, ADC_REGULAR_CHANNEL);
 727              		.loc 1 155 25
 728 0006 22C4     		sw	s0,8(sp)
 729              		.loc 1 156 5
 730 0008 8545     		li	a1,1
 731 000a 13050540 		addi	a0,a0,1024
 732              		.cfi_offset 8, -8
 157:adc.c         **** 
 158:adc.c         ****     while(!adc_flag_get(ADC0, ADC_FLAG_EOC));
 733              		.loc 1 158 12
 734 000e 37240140 		li	s0,1073815552
 155:adc.c         ****     adc_software_trigger_enable(ADC0, ADC_REGULAR_CHANNEL);
 735              		.loc 1 155 25
 736 0012 26C2     		sw	s1,4(sp)
 737 0014 06C6     		sw	ra,12(sp)
 738              		.cfi_offset 9, -12
 739              		.cfi_offset 1, -4
 740              		.loc 1 158 12
 741 0016 93040440 		addi	s1,s0,1024
 156:adc.c         **** 
 742              		.loc 1 156 5
 743 001a 97000000 		call	adc_software_trigger_enable
 743      E7800000 
 744              	.LVL79:
 745              		.loc 1 158 5 is_stmt 1
 746              	.L32:
 747              		.loc 1 158 45 discriminator 1
 748              		.loc 1 158 12 is_stmt 0 discriminator 1
 749 0022 8945     		li	a1,2
 750 0024 2685     		mv	a0,s1
 751 0026 97000000 		call	adc_flag_get
 751      E7800000 
 752              	.LVL80:
 753              		.loc 1 158 10 discriminator 1
 754 002e 75D9     		beq	a0,zero,.L32
 159:adc.c         **** 
 160:adc.c         ****     return adc_regular_data_read(ADC0);
 755              		.loc 1 160 5 is_stmt 1
 756              		.loc 1 160 12 is_stmt 0
 757 0030 13050440 		addi	a0,s0,1024
 161:adc.c         **** }
 758              		.loc 1 161 1
 759 0034 2244     		lw	s0,8(sp)
 760              		.cfi_restore 8
 761 0036 B240     		lw	ra,12(sp)
 762              		.cfi_restore 1
 763 0038 9244     		lw	s1,4(sp)
 764              		.cfi_restore 9
GAS LISTING /var/folders/rt/4gvqv631095f64jvm7jfj_000000gn/T//ccd2KeZO.s 			page 19


 765 003a 4101     		addi	sp,sp,16
 766              	.LCFI14:
 767              		.cfi_def_cfa_offset 0
 160:adc.c         **** }
 768              		.loc 1 160 12
 769 003c 17030000 		tail	adc_regular_data_read
 769      67000300 
 770              	.LVL81:
 771              		.cfi_endproc
 772              	.LFE11:
 774              		.globl	__fixsfsi
 775              		.section	.text.an_average,"ax",@progbits
 776              		.align	1
 777              		.globl	an_average
 779              	an_average:
 780              	.LFB12:
 162:adc.c         **** float an_average(float average_array[])
 163:adc.c         **** {
 781              		.loc 1 163 1 is_stmt 1
 782              		.cfi_startproc
 783              	.LVL82:
 164:adc.c         ****   int the_average = 0;
 784              		.loc 1 164 3
 165:adc.c         **** 
 166:adc.c         ****   for(int i=0; i<10;i++)
 785              		.loc 1 166 3
 786              	.LBB4:
 787              		.loc 1 166 7
 788              	.LBE4:
 163:adc.c         ****   int the_average = 0;
 789              		.loc 1 163 1 is_stmt 0
 790 0000 4111     		addi	sp,sp,-16
 791              	.LCFI15:
 792              		.cfi_def_cfa_offset 16
 793 0002 22C4     		sw	s0,8(sp)
 794 0004 26C2     		sw	s1,4(sp)
 795              		.cfi_offset 8, -8
 796              		.cfi_offset 9, -12
 797 0006 2A84     		mv	s0,a0
 798 0008 93048502 		addi	s1,a0,40
 799 000c 06C6     		sw	ra,12(sp)
 800              		.cfi_offset 1, -4
 164:adc.c         ****   int the_average = 0;
 801              		.loc 1 164 7
 802 000e 0145     		li	a0,0
 803              	.LVL83:
 804              	.L37:
 805              	.LBB5:
 167:adc.c         ****   {
 168:adc.c         ****     the_average += average_array[i];
 806              		.loc 1 168 5 is_stmt 1 discriminator 3
 807              		.loc 1 168 17 is_stmt 0 discriminator 3
 808 0010 97000000 		call	__floatsisf
 808      E7800000 
 809              	.LVL84:
 810 0018 0C40     		lw	a1,0(s0)
 811 001a 1104     		addi	s0,s0,4
GAS LISTING /var/folders/rt/4gvqv631095f64jvm7jfj_000000gn/T//ccd2KeZO.s 			page 20


 812 001c 97000000 		call	__addsf3
 812      E7800000 
 813              	.LVL85:
 814 0024 97000000 		call	__fixsfsi
 814      E7800000 
 815              	.LVL86:
 166:adc.c         ****   {
 816              		.loc 1 166 3 discriminator 3
 817 002c E39284FE 		bne	s1,s0,.L37
 818              	.LBE5:
 169:adc.c         ****   }
 170:adc.c         ****   the_average = the_average / 10;
 819              		.loc 1 170 3 is_stmt 1
 820              	.LVL87:
 171:adc.c         ****   return the_average;
 821              		.loc 1 171 3
 822              		.loc 1 171 10 is_stmt 0
 823 0030 A947     		li	a5,10
 824 0032 3345F502 		div	a0,a0,a5
 825              	.LVL88:
 826 0036 97000000 		call	__floatsisf
 826      E7800000 
 827              	.LVL89:
 172:adc.c         **** }
 828              		.loc 1 172 1
 829 003e B240     		lw	ra,12(sp)
 830              		.cfi_restore 1
 831 0040 2244     		lw	s0,8(sp)
 832              		.cfi_restore 8
 833 0042 9244     		lw	s1,4(sp)
 834              		.cfi_restore 9
 835              	.LVL90:
 836 0044 4101     		addi	sp,sp,16
 837              	.LCFI16:
 838              		.cfi_def_cfa_offset 0
 839 0046 8280     		jr	ra
 840              		.cfi_endproc
 841              	.LFE12:
 843              		.section	.text.Fukt_this_sample,"ax",@progbits
 844              		.align	1
 845              		.globl	Fukt_this_sample
 847              	Fukt_this_sample:
 848              	.LFB13:
 173:adc.c         **** void Fukt_this_sample(float av_array[], float moist_array[], int *Pcount, int *PS_sample, int *Pmoi
 174:adc.c         **** {
 849              		.loc 1 174 1 is_stmt 1
 850              		.cfi_startproc
 851              	.LVL91:
 175:adc.c         ****   int adc_fukt;
 852              		.loc 1 175 3
 176:adc.c         **** 
 177:adc.c         ****   if(*Pcount < 10)
 853              		.loc 1 177 3
 174:adc.c         ****   int adc_fukt;
 854              		.loc 1 174 1 is_stmt 0
 855 0000 0111     		addi	sp,sp,-32
 856              	.LCFI17:
GAS LISTING /var/folders/rt/4gvqv631095f64jvm7jfj_000000gn/T//ccd2KeZO.s 			page 21


 857              		.cfi_def_cfa_offset 32
 858 0002 22CC     		sw	s0,24(sp)
 859              		.cfi_offset 8, -8
 860 0004 3284     		mv	s0,a2
 861              		.loc 1 177 5
 862 0006 1042     		lw	a2,0(a2)
 863              	.LVL92:
 174:adc.c         ****   int adc_fukt;
 864              		.loc 1 174 1
 865 0008 06CE     		sw	ra,28(sp)
 866 000a 26CA     		sw	s1,20(sp)
 867 000c 4AC8     		sw	s2,16(sp)
 868              		.cfi_offset 1, -4
 869              		.cfi_offset 9, -12
 870              		.cfi_offset 18, -16
 871              		.loc 1 177 5
 872 000e A547     		li	a5,9
 873 0010 63C9C702 		bgt	a2,a5,.L41
 874 0014 2A89     		mv	s2,a0
 178:adc.c         ****   {
 179:adc.c         ****                       
 180:adc.c         ****     adc_fukt = ADC_read();
 875              		.loc 1 180 5 is_stmt 1
 876              		.loc 1 180 16 is_stmt 0
 877 0016 97000000 		call	ADC_read
 877      E7800000 
 878              	.LVL93:
 181:adc.c         ****     av_array[*Pcount] = adc_fukt;
 879              		.loc 1 181 5 is_stmt 1
 880              		.loc 1 181 14 is_stmt 0
 881 001e 0440     		lw	s1,0(s0)
 882              		.loc 1 181 23
 883 0020 93972400 		slli	a5,s1,2
 884 0024 3E99     		add	s2,s2,a5
 885              	.LVL94:
 886 0026 97000000 		call	__floatsisf
 886      E7800000 
 887              	.LVL95:
 888 002e 2320A900 		sw	a0,0(s2)
 182:adc.c         ****     (*Pcount)++;
 889              		.loc 1 182 5 is_stmt 1
 890              		.loc 1 182 14 is_stmt 0
 891 0032 8504     		addi	s1,s1,1
 892 0034 04C0     		sw	s1,0(s0)
 893              	.L40:
 183:adc.c         ****   }
 184:adc.c         ****                                 
 185:adc.c         ****   else
 186:adc.c         ****   {
 187:adc.c         ****     moist_array[(*Pmoist)++%48] = an_average(av_array);
 188:adc.c         ****     (*Pcount) = 0; 
 189:adc.c         ****     (*PS_sample) = 0;
 190:adc.c         **** 
 191:adc.c         ****   }
 192:adc.c         **** 
 193:adc.c         **** }
 894              		.loc 1 193 1
GAS LISTING /var/folders/rt/4gvqv631095f64jvm7jfj_000000gn/T//ccd2KeZO.s 			page 22


 895 0036 F240     		lw	ra,28(sp)
 896              		.cfi_remember_state
 897              		.cfi_restore 1
 898 0038 6244     		lw	s0,24(sp)
 899              		.cfi_restore 8
 900              	.LVL96:
 901 003a D244     		lw	s1,20(sp)
 902              		.cfi_restore 9
 903 003c 4249     		lw	s2,16(sp)
 904              		.cfi_restore 18
 905 003e 0561     		addi	sp,sp,32
 906              	.LCFI18:
 907              		.cfi_def_cfa_offset 0
 908 0040 8280     		jr	ra
 909              	.LVL97:
 910              	.L41:
 911              	.LCFI19:
 912              		.cfi_restore_state
 187:adc.c         ****     (*Pcount) = 0; 
 913              		.loc 1 187 18
 914 0042 1C43     		lw	a5,0(a4)
 915 0044 36C6     		sw	a3,12(sp)
 187:adc.c         ****     (*Pcount) = 0; 
 916              		.loc 1 187 5 is_stmt 1
 187:adc.c         ****     (*Pcount) = 0; 
 917              		.loc 1 187 26 is_stmt 0
 918 0046 13861700 		addi	a2,a5,1
 919 004a 10C3     		sw	a2,0(a4)
 187:adc.c         ****     (*Pcount) = 0; 
 920              		.loc 1 187 28
 921 004c 13070003 		li	a4,48
 922              	.LVL98:
 923 0050 B3E7E702 		rem	a5,a5,a4
 187:adc.c         ****     (*Pcount) = 0; 
 924              		.loc 1 187 16
 925 0054 8A07     		slli	a5,a5,2
 926 0056 B384F500 		add	s1,a1,a5
 187:adc.c         ****     (*Pcount) = 0; 
 927              		.loc 1 187 35
 928 005a 97000000 		call	an_average
 928      E7800000 
 929              	.LVL99:
 189:adc.c         **** 
 930              		.loc 1 189 18
 931 0062 B246     		lw	a3,12(sp)
 187:adc.c         ****     (*Pcount) = 0; 
 932              		.loc 1 187 33
 933 0064 88C0     		sw	a0,0(s1)
 188:adc.c         ****     (*PS_sample) = 0;
 934              		.loc 1 188 5 is_stmt 1
 188:adc.c         ****     (*PS_sample) = 0;
 935              		.loc 1 188 15 is_stmt 0
 936 0066 23200400 		sw	zero,0(s0)
 189:adc.c         **** 
 937              		.loc 1 189 5 is_stmt 1
 189:adc.c         **** 
 938              		.loc 1 189 18 is_stmt 0
GAS LISTING /var/folders/rt/4gvqv631095f64jvm7jfj_000000gn/T//ccd2KeZO.s 			page 23


 939 006a 23A00600 		sw	zero,0(a3)
 940              		.loc 1 193 1
 941 006e E1B7     		j	.L40
 942              		.cfi_endproc
 943              	.LFE13:
 945              		.section	.rodata.readLightSensor.str1.4,"aMS",@progbits,1
 946              		.align	2
 947              	.LC0:
 948 0000 72656164 		.string	"reads sensor"
 948      73207365 
 948      6E736F72 
 948      00
 949              		.section	.rodata.read_temp.cst4,"aM",@progbits,4
 950              		.align	2
 951              	.LC1:
 952 0000 0000D743 		.word	1138163712
 953              	.LC2:
 954 0004 00000038 		.word	939524096
 955              		.section	.rodata.read_temp.cst8,"aM",@progbits,8
 956              		.align	3
 957              	.LC3:
 958 0000 00000000 		.word	0
 959 0004 00005940 		.word	1079574528
 960              	.LC4:
 961 0008 68226C78 		.word	2020352616
 962 000c 7AA5D83F 		.word	1071162746
 963              		.section	.sbss.ms_counter.5049,"aw",@nobits
 964              		.align	2
 965              		.set	.LANCHOR0,. + 0
 968              	ms_counter.5049:
 969 0000 00000000 		.zero	4
 970              		.section	.sbss.sample_count.5050,"aw",@nobits
 971              		.align	2
 972              		.set	.LANCHOR2,. + 0
 975              	sample_count.5050:
 976 0000 00000000 		.zero	4
 977              		.section	.sbss.temp_sum.5051,"aw",@nobits
 978              		.align	2
 979              		.set	.LANCHOR1,. + 0
 982              	temp_sum.5051:
 983 0000 00000000 		.zero	4
 984              		.text
 985              	.Letext0:
 986              		.file 2 "/Users/alexstrae/toolchain-gd32v-v202-osx/compiler/riscv64-unknown-elf/include/machine/_d
 987              		.file 3 "/Users/alexstrae/toolchain-gd32v-v202-osx/compiler/lib/gcc/riscv64-unknown-elf/8.3.0/incl
 988              		.file 4 "/Users/alexstrae/toolchain-gd32v-v202-osx/compiler/riscv64-unknown-elf/include/sys/_types
 989              		.file 5 "/Users/alexstrae/toolchain-gd32v-v202-osx/compiler/riscv64-unknown-elf/include/sys/reent.
 990              		.file 6 "/Users/alexstrae/toolchain-gd32v-v202-osx/compiler/riscv64-unknown-elf/include/sys/lock.h
 991              		.file 7 "/Users/alexstrae/toolchain-gd32v-v202-osx/compiler/riscv64-unknown-elf/include/sys/_stdin
 992              		.file 8 "../../firmware/GD32VF103_standard_peripheral/system_gd32vf103.h"
 993              		.file 9 "../../firmware/GD32VF103_standard_peripheral/gd32vf103.h"
 994              		.file 10 "../../firmware/GD32VF103_standard_peripheral/Include/gd32vf103_rcu.h"
 995              		.file 11 "../../firmware/GD32VF103_standard_peripheral/Include/gd32vf103_spi.h"
 996              		.file 12 "/Users/alexstrae/toolchain-gd32v-v202-osx/compiler/riscv64-unknown-elf/include/stdlib.h"
 997              		.file 13 "lcd.h"
 998              		.file 14 "../../firmware/GD32VF103_standard_peripheral/Include/gd32vf103_adc.h"
 999              		.file 15 "../../firmware/GD32VF103_standard_peripheral/Include/gd32vf103_gpio.h"
GAS LISTING /var/folders/rt/4gvqv631095f64jvm7jfj_000000gn/T//ccd2KeZO.s 			page 24


GAS LISTING /var/folders/rt/4gvqv631095f64jvm7jfj_000000gn/T//ccd2KeZO.s 			page 25


DEFINED SYMBOLS
                            *ABS*:0000000000000000 adc.c
/var/folders/rt/4gvqv631095f64jvm7jfj_000000gn/T//ccd2KeZO.s:13     .text.ADC3powerUpInit:0000000000000000 ADC3powerUpInit
/var/folders/rt/4gvqv631095f64jvm7jfj_000000gn/T//ccd2KeZO.s:17     .text.ADC3powerUpInit:0000000000000000 .L0 
/var/folders/rt/4gvqv631095f64jvm7jfj_000000gn/T//ccd2KeZO.s:19     .text.ADC3powerUpInit:0000000000000000 .L0 
/var/folders/rt/4gvqv631095f64jvm7jfj_000000gn/T//ccd2KeZO.s:20     .text.ADC3powerUpInit:0000000000000000 .L0 
/var/folders/rt/4gvqv631095f64jvm7jfj_000000gn/T//ccd2KeZO.s:21     .text.ADC3powerUpInit:0000000000000000 .L0 
/var/folders/rt/4gvqv631095f64jvm7jfj_000000gn/T//ccd2KeZO.s:23     .text.ADC3powerUpInit:0000000000000002 .L0 
/var/folders/rt/4gvqv631095f64jvm7jfj_000000gn/T//ccd2KeZO.s:25     .text.ADC3powerUpInit:0000000000000004 .L0 
/var/folders/rt/4gvqv631095f64jvm7jfj_000000gn/T//ccd2KeZO.s:28     .text.ADC3powerUpInit:0000000000000006 .L0 
/var/folders/rt/4gvqv631095f64jvm7jfj_000000gn/T//ccd2KeZO.s:31     .text.ADC3powerUpInit:000000000000000a .L0 
/var/folders/rt/4gvqv631095f64jvm7jfj_000000gn/T//ccd2KeZO.s:33     .text.ADC3powerUpInit:000000000000000e .L0 
/var/folders/rt/4gvqv631095f64jvm7jfj_000000gn/T//ccd2KeZO.s:34     .text.ADC3powerUpInit:000000000000000e .L0 
/var/folders/rt/4gvqv631095f64jvm7jfj_000000gn/T//ccd2KeZO.s:36     .text.ADC3powerUpInit:000000000000000e .L0 
/var/folders/rt/4gvqv631095f64jvm7jfj_000000gn/T//ccd2KeZO.s:39     .text.ADC3powerUpInit:0000000000000016 .L0 
/var/folders/rt/4gvqv631095f64jvm7jfj_000000gn/T//ccd2KeZO.s:43     .text.ADC3powerUpInit:0000000000000022 .L0 
/var/folders/rt/4gvqv631095f64jvm7jfj_000000gn/T//ccd2KeZO.s:47     .text.ADC3powerUpInit:000000000000002c .L0 
/var/folders/rt/4gvqv631095f64jvm7jfj_000000gn/T//ccd2KeZO.s:55     .text.ADC3powerUpInit:0000000000000042 .L0 
/var/folders/rt/4gvqv631095f64jvm7jfj_000000gn/T//ccd2KeZO.s:60     .text.ADC3powerUpInit:0000000000000052 .L0 
/var/folders/rt/4gvqv631095f64jvm7jfj_000000gn/T//ccd2KeZO.s:64     .text.ADC3powerUpInit:000000000000005c .L0 
/var/folders/rt/4gvqv631095f64jvm7jfj_000000gn/T//ccd2KeZO.s:70     .text.ADC3powerUpInit:000000000000006c .L0 
/var/folders/rt/4gvqv631095f64jvm7jfj_000000gn/T//ccd2KeZO.s:76     .text.ADC3powerUpInit:000000000000007e .L0 
/var/folders/rt/4gvqv631095f64jvm7jfj_000000gn/T//ccd2KeZO.s:81     .text.ADC3powerUpInit:000000000000008c .L0 
/var/folders/rt/4gvqv631095f64jvm7jfj_000000gn/T//ccd2KeZO.s:87     .text.ADC3powerUpInit:000000000000009c .L0 
/var/folders/rt/4gvqv631095f64jvm7jfj_000000gn/T//ccd2KeZO.s:94     .text.ADC3powerUpInit:00000000000000ae .L0 
/var/folders/rt/4gvqv631095f64jvm7jfj_000000gn/T//ccd2KeZO.s:100    .text.ADC3powerUpInit:00000000000000c0 .L0 
/var/folders/rt/4gvqv631095f64jvm7jfj_000000gn/T//ccd2KeZO.s:106    .text.ADC3powerUpInit:00000000000000d0 .L0 
/var/folders/rt/4gvqv631095f64jvm7jfj_000000gn/T//ccd2KeZO.s:107    .text.ADC3powerUpInit:00000000000000d0 .L0 
/var/folders/rt/4gvqv631095f64jvm7jfj_000000gn/T//ccd2KeZO.s:109    .text.ADC3powerUpInit:00000000000000d2 .L0 
/var/folders/rt/4gvqv631095f64jvm7jfj_000000gn/T//ccd2KeZO.s:115    .text.ADC3powerUpInit:00000000000000e4 .L0 
/var/folders/rt/4gvqv631095f64jvm7jfj_000000gn/T//ccd2KeZO.s:121    .text.ADC3powerUpInit:00000000000000f4 .L0 
/var/folders/rt/4gvqv631095f64jvm7jfj_000000gn/T//ccd2KeZO.s:124    .text.ADC3powerUpInit:00000000000000fc .L0 
/var/folders/rt/4gvqv631095f64jvm7jfj_000000gn/T//ccd2KeZO.s:132    .text.ADC3powerUpInit:000000000000010e .L0 
/var/folders/rt/4gvqv631095f64jvm7jfj_000000gn/T//ccd2KeZO.s:137    .text.ADC3powerUpInit:000000000000011e .L0 
/var/folders/rt/4gvqv631095f64jvm7jfj_000000gn/T//ccd2KeZO.s:138    .text.ADC3powerUpInit:000000000000011e .L0 
/var/folders/rt/4gvqv631095f64jvm7jfj_000000gn/T//ccd2KeZO.s:139    .text.ADC3powerUpInit:000000000000011e .L0 
/var/folders/rt/4gvqv631095f64jvm7jfj_000000gn/T//ccd2KeZO.s:143    .text.ADC3powerUpInit:000000000000012a .L0 
/var/folders/rt/4gvqv631095f64jvm7jfj_000000gn/T//ccd2KeZO.s:144    .text.ADC3powerUpInit:000000000000012a .L0 
/var/folders/rt/4gvqv631095f64jvm7jfj_000000gn/T//ccd2KeZO.s:145    .text.ADC3powerUpInit:000000000000012a .L0 
/var/folders/rt/4gvqv631095f64jvm7jfj_000000gn/T//ccd2KeZO.s:147    .text.ADC3powerUpInit:000000000000012e .L0 
/var/folders/rt/4gvqv631095f64jvm7jfj_000000gn/T//ccd2KeZO.s:148    .text.ADC3powerUpInit:0000000000000130 .L0 
/var/folders/rt/4gvqv631095f64jvm7jfj_000000gn/T//ccd2KeZO.s:150    .text.ADC3powerUpInit:0000000000000132 .L0 
/var/folders/rt/4gvqv631095f64jvm7jfj_000000gn/T//ccd2KeZO.s:152    .text.ADC3powerUpInit:0000000000000134 .L0 
/var/folders/rt/4gvqv631095f64jvm7jfj_000000gn/T//ccd2KeZO.s:155    .text.ADC3powerUpInit:0000000000000134 .L0 
/var/folders/rt/4gvqv631095f64jvm7jfj_000000gn/T//ccd2KeZO.s:157    .text.ADC3powerUpInit:0000000000000136 .L0 
/var/folders/rt/4gvqv631095f64jvm7jfj_000000gn/T//ccd2KeZO.s:159    .text.ADC3powerUpInit:0000000000000138 .L0 
/var/folders/rt/4gvqv631095f64jvm7jfj_000000gn/T//ccd2KeZO.s:161    .text.ADC3powerUpInit:0000000000000138 .L0 
/var/folders/rt/4gvqv631095f64jvm7jfj_000000gn/T//ccd2KeZO.s:163    .text.ADC3powerUpInit:0000000000000140 .L0 
/var/folders/rt/4gvqv631095f64jvm7jfj_000000gn/T//ccd2KeZO.s:170    .text.readLightSensor:0000000000000000 readLightSensor
/var/folders/rt/4gvqv631095f64jvm7jfj_000000gn/T//ccd2KeZO.s:173    .text.readLightSensor:0000000000000000 .L0 
/var/folders/rt/4gvqv631095f64jvm7jfj_000000gn/T//ccd2KeZO.s:175    .text.readLightSensor:0000000000000000 .L0 
/var/folders/rt/4gvqv631095f64jvm7jfj_000000gn/T//ccd2KeZO.s:176    .text.readLightSensor:0000000000000000 .L0 
/var/folders/rt/4gvqv631095f64jvm7jfj_000000gn/T//ccd2KeZO.s:177    .text.readLightSensor:0000000000000000 .L0 
/var/folders/rt/4gvqv631095f64jvm7jfj_000000gn/T//ccd2KeZO.s:179    .text.readLightSensor:0000000000000002 .L0 
/var/folders/rt/4gvqv631095f64jvm7jfj_000000gn/T//ccd2KeZO.s:181    .text.readLightSensor:0000000000000004 .L0 
/var/folders/rt/4gvqv631095f64jvm7jfj_000000gn/T//ccd2KeZO.s:184    .text.readLightSensor:0000000000000006 .L0 
/var/folders/rt/4gvqv631095f64jvm7jfj_000000gn/T//ccd2KeZO.s:187    .text.readLightSensor:0000000000000008 .L0 
GAS LISTING /var/folders/rt/4gvqv631095f64jvm7jfj_000000gn/T//ccd2KeZO.s 			page 26


/var/folders/rt/4gvqv631095f64jvm7jfj_000000gn/T//ccd2KeZO.s:191    .text.readLightSensor:0000000000000010 .L0 
/var/folders/rt/4gvqv631095f64jvm7jfj_000000gn/T//ccd2KeZO.s:192    .text.readLightSensor:0000000000000010 .L0 
/var/folders/rt/4gvqv631095f64jvm7jfj_000000gn/T//ccd2KeZO.s:193    .text.readLightSensor:0000000000000010 .L0 
/var/folders/rt/4gvqv631095f64jvm7jfj_000000gn/T//ccd2KeZO.s:194    .text.readLightSensor:0000000000000010 .L0 
/var/folders/rt/4gvqv631095f64jvm7jfj_000000gn/T//ccd2KeZO.s:196    .text.readLightSensor:0000000000000010 .L0 
/var/folders/rt/4gvqv631095f64jvm7jfj_000000gn/T//ccd2KeZO.s:198    .text.readLightSensor:0000000000000012 .L0 
/var/folders/rt/4gvqv631095f64jvm7jfj_000000gn/T//ccd2KeZO.s:200    .text.readLightSensor:0000000000000014 .L0 
/var/folders/rt/4gvqv631095f64jvm7jfj_000000gn/T//ccd2KeZO.s:203    .text.readLightSensor:000000000000001c .L0 
/var/folders/rt/4gvqv631095f64jvm7jfj_000000gn/T//ccd2KeZO.s:204    .text.readLightSensor:000000000000001c .L0 
/var/folders/rt/4gvqv631095f64jvm7jfj_000000gn/T//ccd2KeZO.s:205    .text.readLightSensor:000000000000001c .L0 
/var/folders/rt/4gvqv631095f64jvm7jfj_000000gn/T//ccd2KeZO.s:209    .text.readLightSensor:0000000000000020 .L0 
/var/folders/rt/4gvqv631095f64jvm7jfj_000000gn/T//ccd2KeZO.s:214    .text.readLightSensor:000000000000002c .L0 
/var/folders/rt/4gvqv631095f64jvm7jfj_000000gn/T//ccd2KeZO.s:216    .text.readLightSensor:000000000000002e .L0 
/var/folders/rt/4gvqv631095f64jvm7jfj_000000gn/T//ccd2KeZO.s:217    .text.readLightSensor:000000000000002e .L0 
/var/folders/rt/4gvqv631095f64jvm7jfj_000000gn/T//ccd2KeZO.s:223    .text.readLightSensor:000000000000003a .L0 
/var/folders/rt/4gvqv631095f64jvm7jfj_000000gn/T//ccd2KeZO.s:228    .text.readLightSensor:0000000000000046 .L0 
/var/folders/rt/4gvqv631095f64jvm7jfj_000000gn/T//ccd2KeZO.s:229    .text.readLightSensor:0000000000000046 .L0 
/var/folders/rt/4gvqv631095f64jvm7jfj_000000gn/T//ccd2KeZO.s:230    .text.readLightSensor:0000000000000048 .L0 
/var/folders/rt/4gvqv631095f64jvm7jfj_000000gn/T//ccd2KeZO.s:231    .text.readLightSensor:0000000000000048 .L0 
/var/folders/rt/4gvqv631095f64jvm7jfj_000000gn/T//ccd2KeZO.s:233    .text.readLightSensor:000000000000004a .L0 
/var/folders/rt/4gvqv631095f64jvm7jfj_000000gn/T//ccd2KeZO.s:237    .text.readLightSensor:000000000000004e .L0 
/var/folders/rt/4gvqv631095f64jvm7jfj_000000gn/T//ccd2KeZO.s:240    .text.readLightSensor:0000000000000050 .L0 
/var/folders/rt/4gvqv631095f64jvm7jfj_000000gn/T//ccd2KeZO.s:243    .text.readLightSensor:0000000000000052 .L0 
/var/folders/rt/4gvqv631095f64jvm7jfj_000000gn/T//ccd2KeZO.s:246    .text.readLightSensor:0000000000000054 .L0 
/var/folders/rt/4gvqv631095f64jvm7jfj_000000gn/T//ccd2KeZO.s:251    .text.readLightSensor:0000000000000056 .L0 
/var/folders/rt/4gvqv631095f64jvm7jfj_000000gn/T//ccd2KeZO.s:253    .text.readLightSensor:0000000000000056 .L0 
/var/folders/rt/4gvqv631095f64jvm7jfj_000000gn/T//ccd2KeZO.s:254    .text.readLightSensor:0000000000000056 .L0 
/var/folders/rt/4gvqv631095f64jvm7jfj_000000gn/T//ccd2KeZO.s:256    .text.readLightSensor:000000000000005a .L0 
/var/folders/rt/4gvqv631095f64jvm7jfj_000000gn/T//ccd2KeZO.s:259    .text.readLightSensor:0000000000000062 .L0 
/var/folders/rt/4gvqv631095f64jvm7jfj_000000gn/T//ccd2KeZO.s:267    .text.readLightSensor:000000000000007a .L0 
/var/folders/rt/4gvqv631095f64jvm7jfj_000000gn/T//ccd2KeZO.s:268    .text.readLightSensor:000000000000007a .L0 
/var/folders/rt/4gvqv631095f64jvm7jfj_000000gn/T//ccd2KeZO.s:270    .text.readLightSensor:000000000000007e .L0 
/var/folders/rt/4gvqv631095f64jvm7jfj_000000gn/T//ccd2KeZO.s:277    .text.MAX31865_ExchangeByte:0000000000000000 MAX31865_ExchangeByte
/var/folders/rt/4gvqv631095f64jvm7jfj_000000gn/T//ccd2KeZO.s:280    .text.MAX31865_ExchangeByte:0000000000000000 .L0 
/var/folders/rt/4gvqv631095f64jvm7jfj_000000gn/T//ccd2KeZO.s:282    .text.MAX31865_ExchangeByte:0000000000000000 .L0 
/var/folders/rt/4gvqv631095f64jvm7jfj_000000gn/T//ccd2KeZO.s:284    .text.MAX31865_ExchangeByte:0000000000000002 .L0 
/var/folders/rt/4gvqv631095f64jvm7jfj_000000gn/T//ccd2KeZO.s:287    .text.MAX31865_ExchangeByte:0000000000000006 .L0 
/var/folders/rt/4gvqv631095f64jvm7jfj_000000gn/T//ccd2KeZO.s:288    .text.MAX31865_ExchangeByte:0000000000000006 .L0 
/var/folders/rt/4gvqv631095f64jvm7jfj_000000gn/T//ccd2KeZO.s:293    .text.MAX31865_ExchangeByte:0000000000000008 .L0 
/var/folders/rt/4gvqv631095f64jvm7jfj_000000gn/T//ccd2KeZO.s:294    .text.MAX31865_ExchangeByte:0000000000000008 .L0 
/var/folders/rt/4gvqv631095f64jvm7jfj_000000gn/T//ccd2KeZO.s:295    .text.MAX31865_ExchangeByte:0000000000000008 .L0 
/var/folders/rt/4gvqv631095f64jvm7jfj_000000gn/T//ccd2KeZO.s:300    .text.MAX31865_ExchangeByte:0000000000000016 .L0 
/var/folders/rt/4gvqv631095f64jvm7jfj_000000gn/T//ccd2KeZO.s:302    .text.MAX31865_ExchangeByte:0000000000000018 .L0 
/var/folders/rt/4gvqv631095f64jvm7jfj_000000gn/T//ccd2KeZO.s:308    .text.MAX31865_ExchangeByte:0000000000000026 .L0 
/var/folders/rt/4gvqv631095f64jvm7jfj_000000gn/T//ccd2KeZO.s:309    .text.MAX31865_ExchangeByte:0000000000000026 .L0 
/var/folders/rt/4gvqv631095f64jvm7jfj_000000gn/T//ccd2KeZO.s:310    .text.MAX31865_ExchangeByte:0000000000000026 .L0 
/var/folders/rt/4gvqv631095f64jvm7jfj_000000gn/T//ccd2KeZO.s:315    .text.MAX31865_ExchangeByte:0000000000000034 .L0 
/var/folders/rt/4gvqv631095f64jvm7jfj_000000gn/T//ccd2KeZO.s:317    .text.MAX31865_ExchangeByte:0000000000000036 .L0 
/var/folders/rt/4gvqv631095f64jvm7jfj_000000gn/T//ccd2KeZO.s:318    .text.MAX31865_ExchangeByte:0000000000000036 .L0 
/var/folders/rt/4gvqv631095f64jvm7jfj_000000gn/T//ccd2KeZO.s:322    .text.MAX31865_ExchangeByte:0000000000000042 .L0 
/var/folders/rt/4gvqv631095f64jvm7jfj_000000gn/T//ccd2KeZO.s:323    .text.MAX31865_ExchangeByte:0000000000000044 .L0 
/var/folders/rt/4gvqv631095f64jvm7jfj_000000gn/T//ccd2KeZO.s:325    .text.MAX31865_ExchangeByte:0000000000000046 .L0 
/var/folders/rt/4gvqv631095f64jvm7jfj_000000gn/T//ccd2KeZO.s:329    .text.MAX31865_ExchangeByte:000000000000004c .L0 
/var/folders/rt/4gvqv631095f64jvm7jfj_000000gn/T//ccd2KeZO.s:331    .text.MAX31865_ExchangeByte:000000000000004e .L0 
/var/folders/rt/4gvqv631095f64jvm7jfj_000000gn/T//ccd2KeZO.s:338    .text.MAX31865_Init:0000000000000000 MAX31865_Init
/var/folders/rt/4gvqv631095f64jvm7jfj_000000gn/T//ccd2KeZO.s:341    .text.MAX31865_Init:0000000000000000 .L0 
/var/folders/rt/4gvqv631095f64jvm7jfj_000000gn/T//ccd2KeZO.s:342    .text.MAX31865_Init:0000000000000000 .L0 
GAS LISTING /var/folders/rt/4gvqv631095f64jvm7jfj_000000gn/T//ccd2KeZO.s 			page 27


/var/folders/rt/4gvqv631095f64jvm7jfj_000000gn/T//ccd2KeZO.s:343    .text.MAX31865_Init:0000000000000000 .L0 
/var/folders/rt/4gvqv631095f64jvm7jfj_000000gn/T//ccd2KeZO.s:344    .text.MAX31865_Init:0000000000000000 .L0 
/var/folders/rt/4gvqv631095f64jvm7jfj_000000gn/T//ccd2KeZO.s:345    .text.MAX31865_Init:0000000000000000 .L0 
/var/folders/rt/4gvqv631095f64jvm7jfj_000000gn/T//ccd2KeZO.s:347    .text.MAX31865_Init:0000000000000002 .L0 
/var/folders/rt/4gvqv631095f64jvm7jfj_000000gn/T//ccd2KeZO.s:349    .text.MAX31865_Init:0000000000000002 .L0 
/var/folders/rt/4gvqv631095f64jvm7jfj_000000gn/T//ccd2KeZO.s:351    .text.MAX31865_Init:0000000000000006 .L0 
/var/folders/rt/4gvqv631095f64jvm7jfj_000000gn/T//ccd2KeZO.s:353    .text.MAX31865_Init:000000000000000a .L0 
/var/folders/rt/4gvqv631095f64jvm7jfj_000000gn/T//ccd2KeZO.s:354    .text.MAX31865_Init:000000000000000a .L0 
/var/folders/rt/4gvqv631095f64jvm7jfj_000000gn/T//ccd2KeZO.s:356    .text.MAX31865_Init:000000000000000a .L0 
/var/folders/rt/4gvqv631095f64jvm7jfj_000000gn/T//ccd2KeZO.s:359    .text.MAX31865_Init:0000000000000012 .L0 
/var/folders/rt/4gvqv631095f64jvm7jfj_000000gn/T//ccd2KeZO.s:363    .text.MAX31865_Init:000000000000001e .L0 
/var/folders/rt/4gvqv631095f64jvm7jfj_000000gn/T//ccd2KeZO.s:371    .text.MAX31865_Init:0000000000000034 .L0 
/var/folders/rt/4gvqv631095f64jvm7jfj_000000gn/T//ccd2KeZO.s:378    .text.MAX31865_Init:0000000000000048 .L0 
/var/folders/rt/4gvqv631095f64jvm7jfj_000000gn/T//ccd2KeZO.s:385    .text.MAX31865_Init:000000000000005c .L0 
/var/folders/rt/4gvqv631095f64jvm7jfj_000000gn/T//ccd2KeZO.s:390    .text.MAX31865_Init:000000000000006a .L0 
/var/folders/rt/4gvqv631095f64jvm7jfj_000000gn/T//ccd2KeZO.s:394    .text.MAX31865_Init:0000000000000074 .L0 
/var/folders/rt/4gvqv631095f64jvm7jfj_000000gn/T//ccd2KeZO.s:395    .text.MAX31865_Init:0000000000000074 .L0 
/var/folders/rt/4gvqv631095f64jvm7jfj_000000gn/T//ccd2KeZO.s:398    .text.MAX31865_Init:000000000000007a .L0 
/var/folders/rt/4gvqv631095f64jvm7jfj_000000gn/T//ccd2KeZO.s:401    .text.MAX31865_Init:000000000000007e .L0 
/var/folders/rt/4gvqv631095f64jvm7jfj_000000gn/T//ccd2KeZO.s:403    .text.MAX31865_Init:0000000000000082 .L0 
/var/folders/rt/4gvqv631095f64jvm7jfj_000000gn/T//ccd2KeZO.s:405    .text.MAX31865_Init:0000000000000084 .L0 
/var/folders/rt/4gvqv631095f64jvm7jfj_000000gn/T//ccd2KeZO.s:407    .text.MAX31865_Init:0000000000000086 .L0 
/var/folders/rt/4gvqv631095f64jvm7jfj_000000gn/T//ccd2KeZO.s:409    .text.MAX31865_Init:000000000000008a .L0 
/var/folders/rt/4gvqv631095f64jvm7jfj_000000gn/T//ccd2KeZO.s:412    .text.MAX31865_Init:0000000000000090 .L0 
/var/folders/rt/4gvqv631095f64jvm7jfj_000000gn/T//ccd2KeZO.s:414    .text.MAX31865_Init:0000000000000092 .L0 
/var/folders/rt/4gvqv631095f64jvm7jfj_000000gn/T//ccd2KeZO.s:415    .text.MAX31865_Init:0000000000000092 .L0 
/var/folders/rt/4gvqv631095f64jvm7jfj_000000gn/T//ccd2KeZO.s:416    .text.MAX31865_Init:0000000000000092 .L0 
/var/folders/rt/4gvqv631095f64jvm7jfj_000000gn/T//ccd2KeZO.s:418    .text.MAX31865_Init:0000000000000094 .L0 
/var/folders/rt/4gvqv631095f64jvm7jfj_000000gn/T//ccd2KeZO.s:419    .text.MAX31865_Init:0000000000000094 .L0 
/var/folders/rt/4gvqv631095f64jvm7jfj_000000gn/T//ccd2KeZO.s:420    .text.MAX31865_Init:0000000000000094 .L0 
/var/folders/rt/4gvqv631095f64jvm7jfj_000000gn/T//ccd2KeZO.s:421    .text.MAX31865_Init:0000000000000094 .L0 
/var/folders/rt/4gvqv631095f64jvm7jfj_000000gn/T//ccd2KeZO.s:422    .text.MAX31865_Init:0000000000000094 .L0 
/var/folders/rt/4gvqv631095f64jvm7jfj_000000gn/T//ccd2KeZO.s:424    .text.MAX31865_Init:0000000000000096 .L0 
/var/folders/rt/4gvqv631095f64jvm7jfj_000000gn/T//ccd2KeZO.s:427    .text.MAX31865_Init:000000000000009e .L0 
/var/folders/rt/4gvqv631095f64jvm7jfj_000000gn/T//ccd2KeZO.s:431    .text.MAX31865_Init:00000000000000aa .L0 
/var/folders/rt/4gvqv631095f64jvm7jfj_000000gn/T//ccd2KeZO.s:436    .text.MAX31865_Init:00000000000000b8 .L0 
/var/folders/rt/4gvqv631095f64jvm7jfj_000000gn/T//ccd2KeZO.s:440    .text.MAX31865_Init:00000000000000c4 .L0 
/var/folders/rt/4gvqv631095f64jvm7jfj_000000gn/T//ccd2KeZO.s:444    .text.MAX31865_Init:00000000000000d0 .L0 
/var/folders/rt/4gvqv631095f64jvm7jfj_000000gn/T//ccd2KeZO.s:449    .text.MAX31865_Init:00000000000000de .L0 
/var/folders/rt/4gvqv631095f64jvm7jfj_000000gn/T//ccd2KeZO.s:450    .text.MAX31865_Init:00000000000000e0 .L0 
/var/folders/rt/4gvqv631095f64jvm7jfj_000000gn/T//ccd2KeZO.s:452    .text.MAX31865_Init:00000000000000e2 .L0 
/var/folders/rt/4gvqv631095f64jvm7jfj_000000gn/T//ccd2KeZO.s:455    .text.MAX31865_Init:00000000000000e4 .L0 
/var/folders/rt/4gvqv631095f64jvm7jfj_000000gn/T//ccd2KeZO.s:457    .text.MAX31865_Init:00000000000000e6 .L0 
/var/folders/rt/4gvqv631095f64jvm7jfj_000000gn/T//ccd2KeZO.s:464    .text.MAX31865_ReadADC:0000000000000000 MAX31865_ReadADC
/var/folders/rt/4gvqv631095f64jvm7jfj_000000gn/T//ccd2KeZO.s:467    .text.MAX31865_ReadADC:0000000000000000 .L0 
/var/folders/rt/4gvqv631095f64jvm7jfj_000000gn/T//ccd2KeZO.s:468    .text.MAX31865_ReadADC:0000000000000000 .L0 
/var/folders/rt/4gvqv631095f64jvm7jfj_000000gn/T//ccd2KeZO.s:469    .text.MAX31865_ReadADC:0000000000000000 .L0 
/var/folders/rt/4gvqv631095f64jvm7jfj_000000gn/T//ccd2KeZO.s:470    .text.MAX31865_ReadADC:0000000000000000 .L0 
/var/folders/rt/4gvqv631095f64jvm7jfj_000000gn/T//ccd2KeZO.s:471    .text.MAX31865_ReadADC:0000000000000000 .L0 
/var/folders/rt/4gvqv631095f64jvm7jfj_000000gn/T//ccd2KeZO.s:473    .text.MAX31865_ReadADC:0000000000000002 .L0 
/var/folders/rt/4gvqv631095f64jvm7jfj_000000gn/T//ccd2KeZO.s:475    .text.MAX31865_ReadADC:0000000000000004 .L0 
/var/folders/rt/4gvqv631095f64jvm7jfj_000000gn/T//ccd2KeZO.s:477    .text.MAX31865_ReadADC:0000000000000004 .L0 
/var/folders/rt/4gvqv631095f64jvm7jfj_000000gn/T//ccd2KeZO.s:481    .text.MAX31865_ReadADC:000000000000000e .L0 
/var/folders/rt/4gvqv631095f64jvm7jfj_000000gn/T//ccd2KeZO.s:484    .text.MAX31865_ReadADC:0000000000000014 .L0 
/var/folders/rt/4gvqv631095f64jvm7jfj_000000gn/T//ccd2KeZO.s:485    .text.MAX31865_ReadADC:0000000000000014 .L0 
/var/folders/rt/4gvqv631095f64jvm7jfj_000000gn/T//ccd2KeZO.s:486    .text.MAX31865_ReadADC:0000000000000014 .L0 
/var/folders/rt/4gvqv631095f64jvm7jfj_000000gn/T//ccd2KeZO.s:488    .text.MAX31865_ReadADC:0000000000000014 .L0 
GAS LISTING /var/folders/rt/4gvqv631095f64jvm7jfj_000000gn/T//ccd2KeZO.s 			page 28


/var/folders/rt/4gvqv631095f64jvm7jfj_000000gn/T//ccd2KeZO.s:491    .text.MAX31865_ReadADC:000000000000001c .L0 
/var/folders/rt/4gvqv631095f64jvm7jfj_000000gn/T//ccd2KeZO.s:495    .text.MAX31865_ReadADC:0000000000000026 .L0 
/var/folders/rt/4gvqv631095f64jvm7jfj_000000gn/T//ccd2KeZO.s:496    .text.MAX31865_ReadADC:0000000000000026 .L0 
/var/folders/rt/4gvqv631095f64jvm7jfj_000000gn/T//ccd2KeZO.s:502    .text.MAX31865_ReadADC:0000000000000034 .L0 
/var/folders/rt/4gvqv631095f64jvm7jfj_000000gn/T//ccd2KeZO.s:503    .text.MAX31865_ReadADC:0000000000000034 .L0 
/var/folders/rt/4gvqv631095f64jvm7jfj_000000gn/T//ccd2KeZO.s:509    .text.MAX31865_ReadADC:0000000000000042 .L0 
/var/folders/rt/4gvqv631095f64jvm7jfj_000000gn/T//ccd2KeZO.s:514    .text.MAX31865_ReadADC:0000000000000050 .L0 
/var/folders/rt/4gvqv631095f64jvm7jfj_000000gn/T//ccd2KeZO.s:515    .text.MAX31865_ReadADC:0000000000000050 .L0 
/var/folders/rt/4gvqv631095f64jvm7jfj_000000gn/T//ccd2KeZO.s:516    .text.MAX31865_ReadADC:0000000000000050 .L0 
/var/folders/rt/4gvqv631095f64jvm7jfj_000000gn/T//ccd2KeZO.s:518    .text.MAX31865_ReadADC:0000000000000054 .L0 
/var/folders/rt/4gvqv631095f64jvm7jfj_000000gn/T//ccd2KeZO.s:520    .text.MAX31865_ReadADC:0000000000000058 .L0 
/var/folders/rt/4gvqv631095f64jvm7jfj_000000gn/T//ccd2KeZO.s:521    .text.MAX31865_ReadADC:000000000000005a .L0 
/var/folders/rt/4gvqv631095f64jvm7jfj_000000gn/T//ccd2KeZO.s:523    .text.MAX31865_ReadADC:000000000000005c .L0 
/var/folders/rt/4gvqv631095f64jvm7jfj_000000gn/T//ccd2KeZO.s:526    .text.MAX31865_ReadADC:000000000000005c .L0 
/var/folders/rt/4gvqv631095f64jvm7jfj_000000gn/T//ccd2KeZO.s:529    .text.MAX31865_ReadADC:0000000000000060 .L0 
/var/folders/rt/4gvqv631095f64jvm7jfj_000000gn/T//ccd2KeZO.s:530    .text.MAX31865_ReadADC:0000000000000062 .L0 
/var/folders/rt/4gvqv631095f64jvm7jfj_000000gn/T//ccd2KeZO.s:532    .text.MAX31865_ReadADC:0000000000000064 .L0 
/var/folders/rt/4gvqv631095f64jvm7jfj_000000gn/T//ccd2KeZO.s:537    .text.MAX31865_ReadADC:0000000000000068 .L0 
/var/folders/rt/4gvqv631095f64jvm7jfj_000000gn/T//ccd2KeZO.s:539    .text.MAX31865_ReadADC:000000000000006a .L0 
/var/folders/rt/4gvqv631095f64jvm7jfj_000000gn/T//ccd2KeZO.s:555    .text.read_temp:0000000000000000 read_temp
/var/folders/rt/4gvqv631095f64jvm7jfj_000000gn/T//ccd2KeZO.s:558    .text.read_temp:0000000000000000 .L0 
/var/folders/rt/4gvqv631095f64jvm7jfj_000000gn/T//ccd2KeZO.s:559    .text.read_temp:0000000000000000 .L0 
/var/folders/rt/4gvqv631095f64jvm7jfj_000000gn/T//ccd2KeZO.s:560    .text.read_temp:0000000000000000 .L0 
/var/folders/rt/4gvqv631095f64jvm7jfj_000000gn/T//ccd2KeZO.s:561    .text.read_temp:0000000000000000 .L0 
/var/folders/rt/4gvqv631095f64jvm7jfj_000000gn/T//ccd2KeZO.s:562    .text.read_temp:0000000000000000 .L0 
/var/folders/rt/4gvqv631095f64jvm7jfj_000000gn/T//ccd2KeZO.s:563    .text.read_temp:0000000000000000 .L0 
/var/folders/rt/4gvqv631095f64jvm7jfj_000000gn/T//ccd2KeZO.s:565    .text.read_temp:0000000000000000 .L0 
/var/folders/rt/4gvqv631095f64jvm7jfj_000000gn/T//ccd2KeZO.s:566    .text.read_temp:0000000000000000 .L0 
/var/folders/rt/4gvqv631095f64jvm7jfj_000000gn/T//ccd2KeZO.s:567    .text.read_temp:0000000000000000 .L0 
/var/folders/rt/4gvqv631095f64jvm7jfj_000000gn/T//ccd2KeZO.s:569    .text.read_temp:0000000000000002 .L0 
/var/folders/rt/4gvqv631095f64jvm7jfj_000000gn/T//ccd2KeZO.s:571    .text.read_temp:0000000000000004 .L0 
/var/folders/rt/4gvqv631095f64jvm7jfj_000000gn/T//ccd2KeZO.s:573    .text.read_temp:0000000000000004 .L0 
/var/folders/rt/4gvqv631095f64jvm7jfj_000000gn/T//ccd2KeZO.s:577    .text.read_temp:000000000000000e .L0 
/var/folders/rt/4gvqv631095f64jvm7jfj_000000gn/T//ccd2KeZO.s:579    .text.read_temp:0000000000000012 .L0 
/var/folders/rt/4gvqv631095f64jvm7jfj_000000gn/T//ccd2KeZO.s:580    .text.read_temp:0000000000000012 .L0 
/var/folders/rt/4gvqv631095f64jvm7jfj_000000gn/T//ccd2KeZO.s:582    .text.read_temp:0000000000000012 .L0 
/var/folders/rt/4gvqv631095f64jvm7jfj_000000gn/T//ccd2KeZO.s:585    .text.read_temp:0000000000000016 .L0 
/var/folders/rt/4gvqv631095f64jvm7jfj_000000gn/T//ccd2KeZO.s:586    .text.read_temp:0000000000000016 .L0 
/var/folders/rt/4gvqv631095f64jvm7jfj_000000gn/T//ccd2KeZO.s:590    .text.read_temp:0000000000000022 .L0 
/var/folders/rt/4gvqv631095f64jvm7jfj_000000gn/T//ccd2KeZO.s:593    .text.read_temp:0000000000000024 .L0 
/var/folders/rt/4gvqv631095f64jvm7jfj_000000gn/T//ccd2KeZO.s:594    .text.read_temp:0000000000000024 .L0 
/var/folders/rt/4gvqv631095f64jvm7jfj_000000gn/T//ccd2KeZO.s:597    .text.read_temp:000000000000002c .L0 
/var/folders/rt/4gvqv631095f64jvm7jfj_000000gn/T//ccd2KeZO.s:598    .text.read_temp:000000000000002c .L0 
/var/folders/rt/4gvqv631095f64jvm7jfj_000000gn/T//ccd2KeZO.s:599    .text.read_temp:000000000000002c .L0 
/var/folders/rt/4gvqv631095f64jvm7jfj_000000gn/T//ccd2KeZO.s:600    .text.read_temp:000000000000002c .L0 
/var/folders/rt/4gvqv631095f64jvm7jfj_000000gn/T//ccd2KeZO.s:603    .text.read_temp:0000000000000034 .L0 
/var/folders/rt/4gvqv631095f64jvm7jfj_000000gn/T//ccd2KeZO.s:606    .text.read_temp:000000000000003c .L0 
/var/folders/rt/4gvqv631095f64jvm7jfj_000000gn/T//ccd2KeZO.s:609    .text.read_temp:0000000000000044 .L0 
/var/folders/rt/4gvqv631095f64jvm7jfj_000000gn/T//ccd2KeZO.s:612    .text.read_temp:000000000000004c .L0 
/var/folders/rt/4gvqv631095f64jvm7jfj_000000gn/T//ccd2KeZO.s:617    .text.read_temp:000000000000005c .L0 
/var/folders/rt/4gvqv631095f64jvm7jfj_000000gn/T//ccd2KeZO.s:625    .text.read_temp:0000000000000078 .L0 
/var/folders/rt/4gvqv631095f64jvm7jfj_000000gn/T//ccd2KeZO.s:631    .text.read_temp:000000000000008c .L0 
/var/folders/rt/4gvqv631095f64jvm7jfj_000000gn/T//ccd2KeZO.s:634    .text.read_temp:0000000000000094 .L0 
/var/folders/rt/4gvqv631095f64jvm7jfj_000000gn/T//ccd2KeZO.s:638    .text.read_temp:000000000000009e .L0 
/var/folders/rt/4gvqv631095f64jvm7jfj_000000gn/T//ccd2KeZO.s:642    .text.read_temp:00000000000000a8 .L0 
/var/folders/rt/4gvqv631095f64jvm7jfj_000000gn/T//ccd2KeZO.s:644    .text.read_temp:00000000000000aa .L0 
/var/folders/rt/4gvqv631095f64jvm7jfj_000000gn/T//ccd2KeZO.s:645    .text.read_temp:00000000000000aa .L0 
GAS LISTING /var/folders/rt/4gvqv631095f64jvm7jfj_000000gn/T//ccd2KeZO.s 			page 29


/var/folders/rt/4gvqv631095f64jvm7jfj_000000gn/T//ccd2KeZO.s:650    .text.read_temp:00000000000000ae .L0 
/var/folders/rt/4gvqv631095f64jvm7jfj_000000gn/T//ccd2KeZO.s:651    .text.read_temp:00000000000000ae .L0 
/var/folders/rt/4gvqv631095f64jvm7jfj_000000gn/T//ccd2KeZO.s:655    .text.read_temp:00000000000000b8 .L0 
/var/folders/rt/4gvqv631095f64jvm7jfj_000000gn/T//ccd2KeZO.s:656    .text.read_temp:00000000000000b8 .L0 
/var/folders/rt/4gvqv631095f64jvm7jfj_000000gn/T//ccd2KeZO.s:658    .text.read_temp:00000000000000bc .L0 
/var/folders/rt/4gvqv631095f64jvm7jfj_000000gn/T//ccd2KeZO.s:659    .text.read_temp:00000000000000bc .L0 
/var/folders/rt/4gvqv631095f64jvm7jfj_000000gn/T//ccd2KeZO.s:663    .text.read_temp:00000000000000c6 .L0 
/var/folders/rt/4gvqv631095f64jvm7jfj_000000gn/T//ccd2KeZO.s:667    .text.read_temp:00000000000000ca .L0 
/var/folders/rt/4gvqv631095f64jvm7jfj_000000gn/T//ccd2KeZO.s:668    .text.read_temp:00000000000000ca .L0 
/var/folders/rt/4gvqv631095f64jvm7jfj_000000gn/T//ccd2KeZO.s:669    .text.read_temp:00000000000000ca .L0 
/var/folders/rt/4gvqv631095f64jvm7jfj_000000gn/T//ccd2KeZO.s:671    .text.read_temp:00000000000000ce .L0 
/var/folders/rt/4gvqv631095f64jvm7jfj_000000gn/T//ccd2KeZO.s:674    .text.read_temp:00000000000000d6 .L0 
/var/folders/rt/4gvqv631095f64jvm7jfj_000000gn/T//ccd2KeZO.s:676    .text.read_temp:00000000000000da .L0 
/var/folders/rt/4gvqv631095f64jvm7jfj_000000gn/T//ccd2KeZO.s:681    .text.read_temp:00000000000000e6 .L0 
/var/folders/rt/4gvqv631095f64jvm7jfj_000000gn/T//ccd2KeZO.s:690    .text.read_temp:00000000000000fc .L0 
/var/folders/rt/4gvqv631095f64jvm7jfj_000000gn/T//ccd2KeZO.s:691    .text.read_temp:00000000000000fc .L0 
/var/folders/rt/4gvqv631095f64jvm7jfj_000000gn/T//ccd2KeZO.s:694    .text.read_temp:0000000000000102 .L0 
/var/folders/rt/4gvqv631095f64jvm7jfj_000000gn/T//ccd2KeZO.s:695    .text.read_temp:0000000000000102 .L0 
/var/folders/rt/4gvqv631095f64jvm7jfj_000000gn/T//ccd2KeZO.s:699    .text.read_temp:0000000000000106 .L0 
/var/folders/rt/4gvqv631095f64jvm7jfj_000000gn/T//ccd2KeZO.s:700    .text.read_temp:0000000000000108 .L0 
/var/folders/rt/4gvqv631095f64jvm7jfj_000000gn/T//ccd2KeZO.s:702    .text.read_temp:000000000000010a .L0 
/var/folders/rt/4gvqv631095f64jvm7jfj_000000gn/T//ccd2KeZO.s:704    .text.read_temp:000000000000010c .L0 
/var/folders/rt/4gvqv631095f64jvm7jfj_000000gn/T//ccd2KeZO.s:707    .text.read_temp:000000000000010e .L0 
/var/folders/rt/4gvqv631095f64jvm7jfj_000000gn/T//ccd2KeZO.s:709    .text.read_temp:0000000000000110 .L0 
/var/folders/rt/4gvqv631095f64jvm7jfj_000000gn/T//ccd2KeZO.s:716    .text.ADC_read:0000000000000000 ADC_read
/var/folders/rt/4gvqv631095f64jvm7jfj_000000gn/T//ccd2KeZO.s:719    .text.ADC_read:0000000000000000 .L0 
/var/folders/rt/4gvqv631095f64jvm7jfj_000000gn/T//ccd2KeZO.s:720    .text.ADC_read:0000000000000000 .L0 
/var/folders/rt/4gvqv631095f64jvm7jfj_000000gn/T//ccd2KeZO.s:721    .text.ADC_read:0000000000000000 .L0 
/var/folders/rt/4gvqv631095f64jvm7jfj_000000gn/T//ccd2KeZO.s:722    .text.ADC_read:0000000000000000 .L0 
/var/folders/rt/4gvqv631095f64jvm7jfj_000000gn/T//ccd2KeZO.s:724    .text.ADC_read:0000000000000002 .L0 
/var/folders/rt/4gvqv631095f64jvm7jfj_000000gn/T//ccd2KeZO.s:726    .text.ADC_read:0000000000000002 .L0 
/var/folders/rt/4gvqv631095f64jvm7jfj_000000gn/T//ccd2KeZO.s:728    .text.ADC_read:0000000000000006 .L0 
/var/folders/rt/4gvqv631095f64jvm7jfj_000000gn/T//ccd2KeZO.s:730    .text.ADC_read:0000000000000008 .L0 
/var/folders/rt/4gvqv631095f64jvm7jfj_000000gn/T//ccd2KeZO.s:732    .text.ADC_read:000000000000000e .L0 
/var/folders/rt/4gvqv631095f64jvm7jfj_000000gn/T//ccd2KeZO.s:734    .text.ADC_read:000000000000000e .L0 
/var/folders/rt/4gvqv631095f64jvm7jfj_000000gn/T//ccd2KeZO.s:736    .text.ADC_read:0000000000000012 .L0 
/var/folders/rt/4gvqv631095f64jvm7jfj_000000gn/T//ccd2KeZO.s:738    .text.ADC_read:0000000000000016 .L0 
/var/folders/rt/4gvqv631095f64jvm7jfj_000000gn/T//ccd2KeZO.s:739    .text.ADC_read:0000000000000016 .L0 
/var/folders/rt/4gvqv631095f64jvm7jfj_000000gn/T//ccd2KeZO.s:741    .text.ADC_read:0000000000000016 .L0 
/var/folders/rt/4gvqv631095f64jvm7jfj_000000gn/T//ccd2KeZO.s:743    .text.ADC_read:000000000000001a .L0 
/var/folders/rt/4gvqv631095f64jvm7jfj_000000gn/T//ccd2KeZO.s:747    .text.ADC_read:0000000000000022 .L0 
/var/folders/rt/4gvqv631095f64jvm7jfj_000000gn/T//ccd2KeZO.s:748    .text.ADC_read:0000000000000022 .L0 
/var/folders/rt/4gvqv631095f64jvm7jfj_000000gn/T//ccd2KeZO.s:749    .text.ADC_read:0000000000000022 .L0 
/var/folders/rt/4gvqv631095f64jvm7jfj_000000gn/T//ccd2KeZO.s:754    .text.ADC_read:000000000000002e .L0 
/var/folders/rt/4gvqv631095f64jvm7jfj_000000gn/T//ccd2KeZO.s:756    .text.ADC_read:0000000000000030 .L0 
/var/folders/rt/4gvqv631095f64jvm7jfj_000000gn/T//ccd2KeZO.s:757    .text.ADC_read:0000000000000030 .L0 
/var/folders/rt/4gvqv631095f64jvm7jfj_000000gn/T//ccd2KeZO.s:759    .text.ADC_read:0000000000000034 .L0 
/var/folders/rt/4gvqv631095f64jvm7jfj_000000gn/T//ccd2KeZO.s:760    .text.ADC_read:0000000000000036 .L0 
/var/folders/rt/4gvqv631095f64jvm7jfj_000000gn/T//ccd2KeZO.s:762    .text.ADC_read:0000000000000038 .L0 
/var/folders/rt/4gvqv631095f64jvm7jfj_000000gn/T//ccd2KeZO.s:764    .text.ADC_read:000000000000003a .L0 
/var/folders/rt/4gvqv631095f64jvm7jfj_000000gn/T//ccd2KeZO.s:767    .text.ADC_read:000000000000003c .L0 
/var/folders/rt/4gvqv631095f64jvm7jfj_000000gn/T//ccd2KeZO.s:769    .text.ADC_read:000000000000003c .L0 
/var/folders/rt/4gvqv631095f64jvm7jfj_000000gn/T//ccd2KeZO.s:771    .text.ADC_read:0000000000000044 .L0 
/var/folders/rt/4gvqv631095f64jvm7jfj_000000gn/T//ccd2KeZO.s:779    .text.an_average:0000000000000000 an_average
/var/folders/rt/4gvqv631095f64jvm7jfj_000000gn/T//ccd2KeZO.s:782    .text.an_average:0000000000000000 .L0 
/var/folders/rt/4gvqv631095f64jvm7jfj_000000gn/T//ccd2KeZO.s:784    .text.an_average:0000000000000000 .L0 
/var/folders/rt/4gvqv631095f64jvm7jfj_000000gn/T//ccd2KeZO.s:785    .text.an_average:0000000000000000 .L0 
GAS LISTING /var/folders/rt/4gvqv631095f64jvm7jfj_000000gn/T//ccd2KeZO.s 			page 30


/var/folders/rt/4gvqv631095f64jvm7jfj_000000gn/T//ccd2KeZO.s:787    .text.an_average:0000000000000000 .L0 
/var/folders/rt/4gvqv631095f64jvm7jfj_000000gn/T//ccd2KeZO.s:789    .text.an_average:0000000000000000 .L0 
/var/folders/rt/4gvqv631095f64jvm7jfj_000000gn/T//ccd2KeZO.s:790    .text.an_average:0000000000000000 .L0 
/var/folders/rt/4gvqv631095f64jvm7jfj_000000gn/T//ccd2KeZO.s:792    .text.an_average:0000000000000002 .L0 
/var/folders/rt/4gvqv631095f64jvm7jfj_000000gn/T//ccd2KeZO.s:795    .text.an_average:0000000000000006 .L0 
/var/folders/rt/4gvqv631095f64jvm7jfj_000000gn/T//ccd2KeZO.s:796    .text.an_average:0000000000000006 .L0 
/var/folders/rt/4gvqv631095f64jvm7jfj_000000gn/T//ccd2KeZO.s:800    .text.an_average:000000000000000e .L0 
/var/folders/rt/4gvqv631095f64jvm7jfj_000000gn/T//ccd2KeZO.s:802    .text.an_average:000000000000000e .L0 
/var/folders/rt/4gvqv631095f64jvm7jfj_000000gn/T//ccd2KeZO.s:807    .text.an_average:0000000000000010 .L0 
/var/folders/rt/4gvqv631095f64jvm7jfj_000000gn/T//ccd2KeZO.s:808    .text.an_average:0000000000000010 .L0 
/var/folders/rt/4gvqv631095f64jvm7jfj_000000gn/T//ccd2KeZO.s:817    .text.an_average:000000000000002c .L0 
/var/folders/rt/4gvqv631095f64jvm7jfj_000000gn/T//ccd2KeZO.s:821    .text.an_average:0000000000000030 .L0 
/var/folders/rt/4gvqv631095f64jvm7jfj_000000gn/T//ccd2KeZO.s:822    .text.an_average:0000000000000030 .L0 
/var/folders/rt/4gvqv631095f64jvm7jfj_000000gn/T//ccd2KeZO.s:823    .text.an_average:0000000000000030 .L0 
/var/folders/rt/4gvqv631095f64jvm7jfj_000000gn/T//ccd2KeZO.s:829    .text.an_average:000000000000003e .L0 
/var/folders/rt/4gvqv631095f64jvm7jfj_000000gn/T//ccd2KeZO.s:830    .text.an_average:0000000000000040 .L0 
/var/folders/rt/4gvqv631095f64jvm7jfj_000000gn/T//ccd2KeZO.s:832    .text.an_average:0000000000000042 .L0 
/var/folders/rt/4gvqv631095f64jvm7jfj_000000gn/T//ccd2KeZO.s:834    .text.an_average:0000000000000044 .L0 
/var/folders/rt/4gvqv631095f64jvm7jfj_000000gn/T//ccd2KeZO.s:838    .text.an_average:0000000000000046 .L0 
/var/folders/rt/4gvqv631095f64jvm7jfj_000000gn/T//ccd2KeZO.s:840    .text.an_average:0000000000000048 .L0 
/var/folders/rt/4gvqv631095f64jvm7jfj_000000gn/T//ccd2KeZO.s:847    .text.Fukt_this_sample:0000000000000000 Fukt_this_sample
/var/folders/rt/4gvqv631095f64jvm7jfj_000000gn/T//ccd2KeZO.s:850    .text.Fukt_this_sample:0000000000000000 .L0 
/var/folders/rt/4gvqv631095f64jvm7jfj_000000gn/T//ccd2KeZO.s:852    .text.Fukt_this_sample:0000000000000000 .L0 
/var/folders/rt/4gvqv631095f64jvm7jfj_000000gn/T//ccd2KeZO.s:853    .text.Fukt_this_sample:0000000000000000 .L0 
/var/folders/rt/4gvqv631095f64jvm7jfj_000000gn/T//ccd2KeZO.s:854    .text.Fukt_this_sample:0000000000000000 .L0 
/var/folders/rt/4gvqv631095f64jvm7jfj_000000gn/T//ccd2KeZO.s:855    .text.Fukt_this_sample:0000000000000000 .L0 
/var/folders/rt/4gvqv631095f64jvm7jfj_000000gn/T//ccd2KeZO.s:857    .text.Fukt_this_sample:0000000000000002 .L0 
/var/folders/rt/4gvqv631095f64jvm7jfj_000000gn/T//ccd2KeZO.s:859    .text.Fukt_this_sample:0000000000000004 .L0 
/var/folders/rt/4gvqv631095f64jvm7jfj_000000gn/T//ccd2KeZO.s:862    .text.Fukt_this_sample:0000000000000006 .L0 
/var/folders/rt/4gvqv631095f64jvm7jfj_000000gn/T//ccd2KeZO.s:865    .text.Fukt_this_sample:0000000000000008 .L0 
/var/folders/rt/4gvqv631095f64jvm7jfj_000000gn/T//ccd2KeZO.s:868    .text.Fukt_this_sample:000000000000000e .L0 
/var/folders/rt/4gvqv631095f64jvm7jfj_000000gn/T//ccd2KeZO.s:869    .text.Fukt_this_sample:000000000000000e .L0 
/var/folders/rt/4gvqv631095f64jvm7jfj_000000gn/T//ccd2KeZO.s:870    .text.Fukt_this_sample:000000000000000e .L0 
/var/folders/rt/4gvqv631095f64jvm7jfj_000000gn/T//ccd2KeZO.s:872    .text.Fukt_this_sample:000000000000000e .L0 
/var/folders/rt/4gvqv631095f64jvm7jfj_000000gn/T//ccd2KeZO.s:876    .text.Fukt_this_sample:0000000000000016 .L0 
/var/folders/rt/4gvqv631095f64jvm7jfj_000000gn/T//ccd2KeZO.s:877    .text.Fukt_this_sample:0000000000000016 .L0 
/var/folders/rt/4gvqv631095f64jvm7jfj_000000gn/T//ccd2KeZO.s:880    .text.Fukt_this_sample:000000000000001e .L0 
/var/folders/rt/4gvqv631095f64jvm7jfj_000000gn/T//ccd2KeZO.s:881    .text.Fukt_this_sample:000000000000001e .L0 
/var/folders/rt/4gvqv631095f64jvm7jfj_000000gn/T//ccd2KeZO.s:883    .text.Fukt_this_sample:0000000000000020 .L0 
/var/folders/rt/4gvqv631095f64jvm7jfj_000000gn/T//ccd2KeZO.s:890    .text.Fukt_this_sample:0000000000000032 .L0 
/var/folders/rt/4gvqv631095f64jvm7jfj_000000gn/T//ccd2KeZO.s:891    .text.Fukt_this_sample:0000000000000032 .L0 
/var/folders/rt/4gvqv631095f64jvm7jfj_000000gn/T//ccd2KeZO.s:895    .text.Fukt_this_sample:0000000000000036 .L0 
/var/folders/rt/4gvqv631095f64jvm7jfj_000000gn/T//ccd2KeZO.s:896    .text.Fukt_this_sample:0000000000000038 .L0 
/var/folders/rt/4gvqv631095f64jvm7jfj_000000gn/T//ccd2KeZO.s:897    .text.Fukt_this_sample:0000000000000038 .L0 
/var/folders/rt/4gvqv631095f64jvm7jfj_000000gn/T//ccd2KeZO.s:899    .text.Fukt_this_sample:000000000000003a .L0 
/var/folders/rt/4gvqv631095f64jvm7jfj_000000gn/T//ccd2KeZO.s:902    .text.Fukt_this_sample:000000000000003c .L0 
/var/folders/rt/4gvqv631095f64jvm7jfj_000000gn/T//ccd2KeZO.s:904    .text.Fukt_this_sample:000000000000003e .L0 
/var/folders/rt/4gvqv631095f64jvm7jfj_000000gn/T//ccd2KeZO.s:907    .text.Fukt_this_sample:0000000000000040 .L0 
/var/folders/rt/4gvqv631095f64jvm7jfj_000000gn/T//ccd2KeZO.s:912    .text.Fukt_this_sample:0000000000000042 .L0 
/var/folders/rt/4gvqv631095f64jvm7jfj_000000gn/T//ccd2KeZO.s:914    .text.Fukt_this_sample:0000000000000042 .L0 
/var/folders/rt/4gvqv631095f64jvm7jfj_000000gn/T//ccd2KeZO.s:917    .text.Fukt_this_sample:0000000000000046 .L0 
/var/folders/rt/4gvqv631095f64jvm7jfj_000000gn/T//ccd2KeZO.s:918    .text.Fukt_this_sample:0000000000000046 .L0 
/var/folders/rt/4gvqv631095f64jvm7jfj_000000gn/T//ccd2KeZO.s:921    .text.Fukt_this_sample:000000000000004c .L0 
/var/folders/rt/4gvqv631095f64jvm7jfj_000000gn/T//ccd2KeZO.s:925    .text.Fukt_this_sample:0000000000000054 .L0 
/var/folders/rt/4gvqv631095f64jvm7jfj_000000gn/T//ccd2KeZO.s:928    .text.Fukt_this_sample:000000000000005a .L0 
/var/folders/rt/4gvqv631095f64jvm7jfj_000000gn/T//ccd2KeZO.s:931    .text.Fukt_this_sample:0000000000000062 .L0 
/var/folders/rt/4gvqv631095f64jvm7jfj_000000gn/T//ccd2KeZO.s:933    .text.Fukt_this_sample:0000000000000064 .L0 
GAS LISTING /var/folders/rt/4gvqv631095f64jvm7jfj_000000gn/T//ccd2KeZO.s 			page 31


/var/folders/rt/4gvqv631095f64jvm7jfj_000000gn/T//ccd2KeZO.s:935    .text.Fukt_this_sample:0000000000000066 .L0 
/var/folders/rt/4gvqv631095f64jvm7jfj_000000gn/T//ccd2KeZO.s:936    .text.Fukt_this_sample:0000000000000066 .L0 
/var/folders/rt/4gvqv631095f64jvm7jfj_000000gn/T//ccd2KeZO.s:938    .text.Fukt_this_sample:000000000000006a .L0 
/var/folders/rt/4gvqv631095f64jvm7jfj_000000gn/T//ccd2KeZO.s:939    .text.Fukt_this_sample:000000000000006a .L0 
/var/folders/rt/4gvqv631095f64jvm7jfj_000000gn/T//ccd2KeZO.s:941    .text.Fukt_this_sample:000000000000006e .L0 
/var/folders/rt/4gvqv631095f64jvm7jfj_000000gn/T//ccd2KeZO.s:942    .text.Fukt_this_sample:0000000000000070 .L0 
/var/folders/rt/4gvqv631095f64jvm7jfj_000000gn/T//ccd2KeZO.s:965    .sbss.ms_counter.5049:0000000000000000 .LANCHOR0
/var/folders/rt/4gvqv631095f64jvm7jfj_000000gn/T//ccd2KeZO.s:968    .sbss.ms_counter.5049:0000000000000000 ms_counter.5049
/var/folders/rt/4gvqv631095f64jvm7jfj_000000gn/T//ccd2KeZO.s:972    .sbss.sample_count.5050:0000000000000000 .LANCHOR2
/var/folders/rt/4gvqv631095f64jvm7jfj_000000gn/T//ccd2KeZO.s:975    .sbss.sample_count.5050:0000000000000000 sample_count.5050
/var/folders/rt/4gvqv631095f64jvm7jfj_000000gn/T//ccd2KeZO.s:979    .sbss.temp_sum.5051:0000000000000000 .LANCHOR1
/var/folders/rt/4gvqv631095f64jvm7jfj_000000gn/T//ccd2KeZO.s:982    .sbss.temp_sum.5051:0000000000000000 temp_sum.5051
/var/folders/rt/4gvqv631095f64jvm7jfj_000000gn/T//ccd2KeZO.s:166    .text.ADC3powerUpInit:0000000000000140 .L0 
/var/folders/rt/4gvqv631095f64jvm7jfj_000000gn/T//ccd2KeZO.s:273    .text.readLightSensor:000000000000007e .L0 
/var/folders/rt/4gvqv631095f64jvm7jfj_000000gn/T//ccd2KeZO.s:334    .text.MAX31865_ExchangeByte:000000000000004e .L0 
/var/folders/rt/4gvqv631095f64jvm7jfj_000000gn/T//ccd2KeZO.s:460    .text.MAX31865_Init:00000000000000e6 .L0 
/var/folders/rt/4gvqv631095f64jvm7jfj_000000gn/T//ccd2KeZO.s:551    .text.MAX31865_ReadADC:000000000000006a .L0 
/var/folders/rt/4gvqv631095f64jvm7jfj_000000gn/T//ccd2KeZO.s:712    .text.read_temp:0000000000000110 .L0 
/var/folders/rt/4gvqv631095f64jvm7jfj_000000gn/T//ccd2KeZO.s:775    .text.ADC_read:0000000000000044 .L0 
/var/folders/rt/4gvqv631095f64jvm7jfj_000000gn/T//ccd2KeZO.s:843    .text.an_average:0000000000000048 .L0 
/var/folders/rt/4gvqv631095f64jvm7jfj_000000gn/T//ccd2KeZO.s:945    .text.Fukt_this_sample:0000000000000070 .L0 
                     .debug_frame:0000000000000000 .L0 
/var/folders/rt/4gvqv631095f64jvm7jfj_000000gn/T//ccd2KeZO.s:130    .text.ADC3powerUpInit:000000000000010e .L2
/var/folders/rt/4gvqv631095f64jvm7jfj_000000gn/T//ccd2KeZO.s:947    .rodata.readLightSensor.str1.4:0000000000000000 .LC0
/var/folders/rt/4gvqv631095f64jvm7jfj_000000gn/T//ccd2KeZO.s:249    .text.readLightSensor:0000000000000056 .L10
/var/folders/rt/4gvqv631095f64jvm7jfj_000000gn/T//ccd2KeZO.s:207    .text.readLightSensor:0000000000000020 .L9
/var/folders/rt/4gvqv631095f64jvm7jfj_000000gn/T//ccd2KeZO.s:292    .text.MAX31865_ExchangeByte:0000000000000008 .L14
/var/folders/rt/4gvqv631095f64jvm7jfj_000000gn/T//ccd2KeZO.s:307    .text.MAX31865_ExchangeByte:0000000000000026 .L15
/var/folders/rt/4gvqv631095f64jvm7jfj_000000gn/T//ccd2KeZO.s:951    .rodata.read_temp.cst4:0000000000000000 .LC1
/var/folders/rt/4gvqv631095f64jvm7jfj_000000gn/T//ccd2KeZO.s:953    .rodata.read_temp.cst4:0000000000000004 .LC2
/var/folders/rt/4gvqv631095f64jvm7jfj_000000gn/T//ccd2KeZO.s:957    .rodata.read_temp.cst8:0000000000000000 .LC3
/var/folders/rt/4gvqv631095f64jvm7jfj_000000gn/T//ccd2KeZO.s:960    .rodata.read_temp.cst8:0000000000000008 .LC4
/var/folders/rt/4gvqv631095f64jvm7jfj_000000gn/T//ccd2KeZO.s:647    .text.read_temp:00000000000000ae .L26
/var/folders/rt/4gvqv631095f64jvm7jfj_000000gn/T//ccd2KeZO.s:696    .text.read_temp:0000000000000106 .L28
/var/folders/rt/4gvqv631095f64jvm7jfj_000000gn/T//ccd2KeZO.s:746    .text.ADC_read:0000000000000022 .L32
/var/folders/rt/4gvqv631095f64jvm7jfj_000000gn/T//ccd2KeZO.s:804    .text.an_average:0000000000000010 .L37
/var/folders/rt/4gvqv631095f64jvm7jfj_000000gn/T//ccd2KeZO.s:910    .text.Fukt_this_sample:0000000000000042 .L41
/var/folders/rt/4gvqv631095f64jvm7jfj_000000gn/T//ccd2KeZO.s:893    .text.Fukt_this_sample:0000000000000036 .L40
/var/folders/rt/4gvqv631095f64jvm7jfj_000000gn/T//ccd2KeZO.s:4141   .debug_abbrev:0000000000000000 .Ldebug_abbrev0
/var/folders/rt/4gvqv631095f64jvm7jfj_000000gn/T//ccd2KeZO.s:5703   .debug_str:0000000000000176 .LASF240
/var/folders/rt/4gvqv631095f64jvm7jfj_000000gn/T//ccd2KeZO.s:5901   .debug_str:000000000000066d .LASF241
/var/folders/rt/4gvqv631095f64jvm7jfj_000000gn/T//ccd2KeZO.s:5769   .debug_str:000000000000036e .LASF242
/var/folders/rt/4gvqv631095f64jvm7jfj_000000gn/T//ccd2KeZO.s:5603   .debug_ranges:0000000000000000 .Ldebug_ranges0
/var/folders/rt/4gvqv631095f64jvm7jfj_000000gn/T//ccd2KeZO.s:5631   .debug_line:0000000000000000 .Ldebug_line0
/var/folders/rt/4gvqv631095f64jvm7jfj_000000gn/T//ccd2KeZO.s:5895   .debug_str:0000000000000645 .LASF0
/var/folders/rt/4gvqv631095f64jvm7jfj_000000gn/T//ccd2KeZO.s:5879   .debug_str:00000000000005fc .LASF1
/var/folders/rt/4gvqv631095f64jvm7jfj_000000gn/T//ccd2KeZO.s:6091   .debug_str:0000000000000a78 .LASF2
/var/folders/rt/4gvqv631095f64jvm7jfj_000000gn/T//ccd2KeZO.s:5751   .debug_str:00000000000002fd .LASF3
/var/folders/rt/4gvqv631095f64jvm7jfj_000000gn/T//ccd2KeZO.s:5715   .debug_str:000000000000024a .LASF6
/var/folders/rt/4gvqv631095f64jvm7jfj_000000gn/T//ccd2KeZO.s:5761   .debug_str:000000000000032d .LASF4
/var/folders/rt/4gvqv631095f64jvm7jfj_000000gn/T//ccd2KeZO.s:6039   .debug_str:0000000000000980 .LASF5
/var/folders/rt/4gvqv631095f64jvm7jfj_000000gn/T//ccd2KeZO.s:5783   .debug_str:00000000000003eb .LASF7
/var/folders/rt/4gvqv631095f64jvm7jfj_000000gn/T//ccd2KeZO.s:5725   .debug_str:0000000000000282 .LASF8
/var/folders/rt/4gvqv631095f64jvm7jfj_000000gn/T//ccd2KeZO.s:5851   .debug_str:000000000000056c .LASF9
/var/folders/rt/4gvqv631095f64jvm7jfj_000000gn/T//ccd2KeZO.s:5813   .debug_str:0000000000000493 .LASF10
/var/folders/rt/4gvqv631095f64jvm7jfj_000000gn/T//ccd2KeZO.s:5859   .debug_str:0000000000000594 .LASF11
/var/folders/rt/4gvqv631095f64jvm7jfj_000000gn/T//ccd2KeZO.s:5967   .debug_str:00000000000007d7 .LASF12
GAS LISTING /var/folders/rt/4gvqv631095f64jvm7jfj_000000gn/T//ccd2KeZO.s 			page 32


/var/folders/rt/4gvqv631095f64jvm7jfj_000000gn/T//ccd2KeZO.s:5897   .debug_str:000000000000064b .LASF13
/var/folders/rt/4gvqv631095f64jvm7jfj_000000gn/T//ccd2KeZO.s:5947   .debug_str:0000000000000779 .LASF14
/var/folders/rt/4gvqv631095f64jvm7jfj_000000gn/T//ccd2KeZO.s:6023   .debug_str:000000000000093d .LASF15
/var/folders/rt/4gvqv631095f64jvm7jfj_000000gn/T//ccd2KeZO.s:6087   .debug_str:0000000000000a6c .LASF16
/var/folders/rt/4gvqv631095f64jvm7jfj_000000gn/T//ccd2KeZO.s:5957   .debug_str:00000000000007a3 .LASF17
/var/folders/rt/4gvqv631095f64jvm7jfj_000000gn/T//ccd2KeZO.s:5635   .debug_str:0000000000000011 .LASF18
/var/folders/rt/4gvqv631095f64jvm7jfj_000000gn/T//ccd2KeZO.s:5713   .debug_str:0000000000000244 .LASF19
/var/folders/rt/4gvqv631095f64jvm7jfj_000000gn/T//ccd2KeZO.s:5959   .debug_str:00000000000007ab .LASF20
/var/folders/rt/4gvqv631095f64jvm7jfj_000000gn/T//ccd2KeZO.s:5939   .debug_str:000000000000073c .LASF21
/var/folders/rt/4gvqv631095f64jvm7jfj_000000gn/T//ccd2KeZO.s:5639   .debug_str:0000000000000025 .LASF22
/var/folders/rt/4gvqv631095f64jvm7jfj_000000gn/T//ccd2KeZO.s:6007   .debug_str:00000000000008dd .LASF23
/var/folders/rt/4gvqv631095f64jvm7jfj_000000gn/T//ccd2KeZO.s:6073   .debug_str:0000000000000a12 .LASF24
/var/folders/rt/4gvqv631095f64jvm7jfj_000000gn/T//ccd2KeZO.s:5829   .debug_str:00000000000004f0 .LASF25
/var/folders/rt/4gvqv631095f64jvm7jfj_000000gn/T//ccd2KeZO.s:5999   .debug_str:00000000000008b1 .LASF26
/var/folders/rt/4gvqv631095f64jvm7jfj_000000gn/T//ccd2KeZO.s:5835   .debug_str:0000000000000515 .LASF31
/var/folders/rt/4gvqv631095f64jvm7jfj_000000gn/T//ccd2KeZO.s:6025   .debug_str:0000000000000944 .LASF27
/var/folders/rt/4gvqv631095f64jvm7jfj_000000gn/T//ccd2KeZO.s:5839   .debug_str:000000000000052c .LASF28
/var/folders/rt/4gvqv631095f64jvm7jfj_000000gn/T//ccd2KeZO.s:5891   .debug_str:0000000000000633 .LASF29
/var/folders/rt/4gvqv631095f64jvm7jfj_000000gn/T//ccd2KeZO.s:5795   .debug_str:000000000000042a .LASF30
/var/folders/rt/4gvqv631095f64jvm7jfj_000000gn/T//ccd2KeZO.s:5663   .debug_str:0000000000000092 .LASF32
/var/folders/rt/4gvqv631095f64jvm7jfj_000000gn/T//ccd2KeZO.s:5669   .debug_str:00000000000000ae .LASF33
/var/folders/rt/4gvqv631095f64jvm7jfj_000000gn/T//ccd2KeZO.s:6115   .debug_str:0000000000000b1f .LASF34
/var/folders/rt/4gvqv631095f64jvm7jfj_000000gn/T//ccd2KeZO.s:6093   .debug_str:0000000000000a8b .LASF35
/var/folders/rt/4gvqv631095f64jvm7jfj_000000gn/T//ccd2KeZO.s:5917   .debug_str:00000000000006c8 .LASF36
/var/folders/rt/4gvqv631095f64jvm7jfj_000000gn/T//ccd2KeZO.s:5735   .debug_str:00000000000002b6 .LASF37
/var/folders/rt/4gvqv631095f64jvm7jfj_000000gn/T//ccd2KeZO.s:6049   .debug_str:00000000000009ad .LASF38
/var/folders/rt/4gvqv631095f64jvm7jfj_000000gn/T//ccd2KeZO.s:5943   .debug_str:0000000000000767 .LASF39
/var/folders/rt/4gvqv631095f64jvm7jfj_000000gn/T//ccd2KeZO.s:5949   .debug_str:0000000000000785 .LASF40
/var/folders/rt/4gvqv631095f64jvm7jfj_000000gn/T//ccd2KeZO.s:6107   .debug_str:0000000000000af6 .LASF41
/var/folders/rt/4gvqv631095f64jvm7jfj_000000gn/T//ccd2KeZO.s:5719   .debug_str:000000000000025a .LASF42
/var/folders/rt/4gvqv631095f64jvm7jfj_000000gn/T//ccd2KeZO.s:6105   .debug_str:0000000000000aee .LASF43
/var/folders/rt/4gvqv631095f64jvm7jfj_000000gn/T//ccd2KeZO.s:5973   .debug_str:0000000000000815 .LASF44
/var/folders/rt/4gvqv631095f64jvm7jfj_000000gn/T//ccd2KeZO.s:6043   .debug_str:0000000000000994 .LASF45
/var/folders/rt/4gvqv631095f64jvm7jfj_000000gn/T//ccd2KeZO.s:6065   .debug_str:00000000000009f2 .LASF46
/var/folders/rt/4gvqv631095f64jvm7jfj_000000gn/T//ccd2KeZO.s:5935   .debug_str:000000000000072a .LASF47
/var/folders/rt/4gvqv631095f64jvm7jfj_000000gn/T//ccd2KeZO.s:6059   .debug_str:00000000000009d9 .LASF48
/var/folders/rt/4gvqv631095f64jvm7jfj_000000gn/T//ccd2KeZO.s:5775   .debug_str:00000000000003bf .LASF49
/var/folders/rt/4gvqv631095f64jvm7jfj_000000gn/T//ccd2KeZO.s:6063   .debug_str:00000000000009eb .LASF50
/var/folders/rt/4gvqv631095f64jvm7jfj_000000gn/T//ccd2KeZO.s:5981   .debug_str:000000000000083a .LASF51
/var/folders/rt/4gvqv631095f64jvm7jfj_000000gn/T//ccd2KeZO.s:5731   .debug_str:00000000000002a1 .LASF52
/var/folders/rt/4gvqv631095f64jvm7jfj_000000gn/T//ccd2KeZO.s:5819   .debug_str:00000000000004be .LASF53
/var/folders/rt/4gvqv631095f64jvm7jfj_000000gn/T//ccd2KeZO.s:5931   .debug_str:0000000000000707 .LASF54
/var/folders/rt/4gvqv631095f64jvm7jfj_000000gn/T//ccd2KeZO.s:5717   .debug_str:0000000000000254 .LASF55
/var/folders/rt/4gvqv631095f64jvm7jfj_000000gn/T//ccd2KeZO.s:6053   .debug_str:00000000000009c0 .LASF56
/var/folders/rt/4gvqv631095f64jvm7jfj_000000gn/T//ccd2KeZO.s:5793   .debug_str:0000000000000422 .LASF57
/var/folders/rt/4gvqv631095f64jvm7jfj_000000gn/T//ccd2KeZO.s:5643   .debug_str:0000000000000032 .LASF58
/var/folders/rt/4gvqv631095f64jvm7jfj_000000gn/T//ccd2KeZO.s:5649   .debug_str:000000000000004a .LASF59
/var/folders/rt/4gvqv631095f64jvm7jfj_000000gn/T//ccd2KeZO.s:5955   .debug_str:000000000000079d .LASF60
/var/folders/rt/4gvqv631095f64jvm7jfj_000000gn/T//ccd2KeZO.s:5781   .debug_str:00000000000003e4 .LASF61
/var/folders/rt/4gvqv631095f64jvm7jfj_000000gn/T//ccd2KeZO.s:5921   .debug_str:00000000000006d7 .LASF62
/var/folders/rt/4gvqv631095f64jvm7jfj_000000gn/T//ccd2KeZO.s:5667   .debug_str:00000000000000a8 .LASF63
/var/folders/rt/4gvqv631095f64jvm7jfj_000000gn/T//ccd2KeZO.s:5979   .debug_str:0000000000000831 .LASF64
/var/folders/rt/4gvqv631095f64jvm7jfj_000000gn/T//ccd2KeZO.s:5801   .debug_str:0000000000000445 .LASF65
/var/folders/rt/4gvqv631095f64jvm7jfj_000000gn/T//ccd2KeZO.s:6027   .debug_str:000000000000094a .LASF66
/var/folders/rt/4gvqv631095f64jvm7jfj_000000gn/T//ccd2KeZO.s:5699   .debug_str:000000000000015b .LASF67
/var/folders/rt/4gvqv631095f64jvm7jfj_000000gn/T//ccd2KeZO.s:5927   .debug_str:00000000000006f3 .LASF68
/var/folders/rt/4gvqv631095f64jvm7jfj_000000gn/T//ccd2KeZO.s:5823   .debug_str:00000000000004d1 .LASF69
GAS LISTING /var/folders/rt/4gvqv631095f64jvm7jfj_000000gn/T//ccd2KeZO.s 			page 33


/var/folders/rt/4gvqv631095f64jvm7jfj_000000gn/T//ccd2KeZO.s:5765   .debug_str:0000000000000354 .LASF70
/var/folders/rt/4gvqv631095f64jvm7jfj_000000gn/T//ccd2KeZO.s:5831   .debug_str:0000000000000502 .LASF71
/var/folders/rt/4gvqv631095f64jvm7jfj_000000gn/T//ccd2KeZO.s:5785   .debug_str:00000000000003f6 .LASF72
/var/folders/rt/4gvqv631095f64jvm7jfj_000000gn/T//ccd2KeZO.s:5977   .debug_str:0000000000000829 .LASF73
/var/folders/rt/4gvqv631095f64jvm7jfj_000000gn/T//ccd2KeZO.s:5923   .debug_str:00000000000006dd .LASF74
/var/folders/rt/4gvqv631095f64jvm7jfj_000000gn/T//ccd2KeZO.s:6057   .debug_str:00000000000009d4 .LASF75
/var/folders/rt/4gvqv631095f64jvm7jfj_000000gn/T//ccd2KeZO.s:5853   .debug_str:0000000000000577 .LASF76
/var/folders/rt/4gvqv631095f64jvm7jfj_000000gn/T//ccd2KeZO.s:5763   .debug_str:000000000000033b .LASF77
/var/folders/rt/4gvqv631095f64jvm7jfj_000000gn/T//ccd2KeZO.s:6071   .debug_str:0000000000000a0a .LASF78
/var/folders/rt/4gvqv631095f64jvm7jfj_000000gn/T//ccd2KeZO.s:5821   .debug_str:00000000000004c6 .LASF79
/var/folders/rt/4gvqv631095f64jvm7jfj_000000gn/T//ccd2KeZO.s:5845   .debug_str:000000000000054c .LASF80
/var/folders/rt/4gvqv631095f64jvm7jfj_000000gn/T//ccd2KeZO.s:6083   .debug_str:0000000000000a4f .LASF81
/var/folders/rt/4gvqv631095f64jvm7jfj_000000gn/T//ccd2KeZO.s:5729   .debug_str:0000000000000297 .LASF82
/var/folders/rt/4gvqv631095f64jvm7jfj_000000gn/T//ccd2KeZO.s:5811   .debug_str:000000000000048e .LASF83
/var/folders/rt/4gvqv631095f64jvm7jfj_000000gn/T//ccd2KeZO.s:5883   .debug_str:0000000000000612 .LASF84
/var/folders/rt/4gvqv631095f64jvm7jfj_000000gn/T//ccd2KeZO.s:5655   .debug_str:000000000000006e .LASF85
/var/folders/rt/4gvqv631095f64jvm7jfj_000000gn/T//ccd2KeZO.s:5803   .debug_str:000000000000044d .LASF86
/var/folders/rt/4gvqv631095f64jvm7jfj_000000gn/T//ccd2KeZO.s:5919   .debug_str:00000000000006d2 .LASF87
/var/folders/rt/4gvqv631095f64jvm7jfj_000000gn/T//ccd2KeZO.s:5847   .debug_str:0000000000000556 .LASF88
/var/folders/rt/4gvqv631095f64jvm7jfj_000000gn/T//ccd2KeZO.s:5797   .debug_str:000000000000042f .LASF89
/var/folders/rt/4gvqv631095f64jvm7jfj_000000gn/T//ccd2KeZO.s:5875   .debug_str:00000000000005eb .LASF90
/var/folders/rt/4gvqv631095f64jvm7jfj_000000gn/T//ccd2KeZO.s:5641   .debug_str:000000000000002d .LASF91
/var/folders/rt/4gvqv631095f64jvm7jfj_000000gn/T//ccd2KeZO.s:5773   .debug_str:00000000000003ba .LASF92
/var/folders/rt/4gvqv631095f64jvm7jfj_000000gn/T//ccd2KeZO.s:6001   .debug_str:00000000000008ba .LASF93
/var/folders/rt/4gvqv631095f64jvm7jfj_000000gn/T//ccd2KeZO.s:5889   .debug_str:000000000000062d .LASF94
/var/folders/rt/4gvqv631095f64jvm7jfj_000000gn/T//ccd2KeZO.s:5873   .debug_str:00000000000005e4 .LASF95
/var/folders/rt/4gvqv631095f64jvm7jfj_000000gn/T//ccd2KeZO.s:5887   .debug_str:0000000000000627 .LASF96
/var/folders/rt/4gvqv631095f64jvm7jfj_000000gn/T//ccd2KeZO.s:5975   .debug_str:0000000000000821 .LASF97
/var/folders/rt/4gvqv631095f64jvm7jfj_000000gn/T//ccd2KeZO.s:5953   .debug_str:0000000000000797 .LASF98
/var/folders/rt/4gvqv631095f64jvm7jfj_000000gn/T//ccd2KeZO.s:5705   .debug_str:00000000000001fe .LASF99
/var/folders/rt/4gvqv631095f64jvm7jfj_000000gn/T//ccd2KeZO.s:6089   .debug_str:0000000000000a73 .LASF100
/var/folders/rt/4gvqv631095f64jvm7jfj_000000gn/T//ccd2KeZO.s:5747   .debug_str:00000000000002e7 .LASF101
/var/folders/rt/4gvqv631095f64jvm7jfj_000000gn/T//ccd2KeZO.s:5985   .debug_str:0000000000000850 .LASF102
/var/folders/rt/4gvqv631095f64jvm7jfj_000000gn/T//ccd2KeZO.s:5653   .debug_str:0000000000000061 .LASF103
/var/folders/rt/4gvqv631095f64jvm7jfj_000000gn/T//ccd2KeZO.s:5733   .debug_str:00000000000002a7 .LASF104
/var/folders/rt/4gvqv631095f64jvm7jfj_000000gn/T//ccd2KeZO.s:5881   .debug_str:0000000000000603 .LASF105
/var/folders/rt/4gvqv631095f64jvm7jfj_000000gn/T//ccd2KeZO.s:5929   .debug_str:00000000000006fc .LASF106
/var/folders/rt/4gvqv631095f64jvm7jfj_000000gn/T//ccd2KeZO.s:6013   .debug_str:000000000000090f .LASF107
/var/folders/rt/4gvqv631095f64jvm7jfj_000000gn/T//ccd2KeZO.s:6035   .debug_str:000000000000096b .LASF108
/var/folders/rt/4gvqv631095f64jvm7jfj_000000gn/T//ccd2KeZO.s:5961   .debug_str:00000000000007b2 .LASF109
/var/folders/rt/4gvqv631095f64jvm7jfj_000000gn/T//ccd2KeZO.s:5925   .debug_str:00000000000006e5 .LASF110
/var/folders/rt/4gvqv631095f64jvm7jfj_000000gn/T//ccd2KeZO.s:5679   .debug_str:00000000000000e3 .LASF111
/var/folders/rt/4gvqv631095f64jvm7jfj_000000gn/T//ccd2KeZO.s:5833   .debug_str:0000000000000509 .LASF112
/var/folders/rt/4gvqv631095f64jvm7jfj_000000gn/T//ccd2KeZO.s:6117   .debug_str:0000000000000b28 .LASF113
/var/folders/rt/4gvqv631095f64jvm7jfj_000000gn/T//ccd2KeZO.s:5723   .debug_str:0000000000000274 .LASF114
/var/folders/rt/4gvqv631095f64jvm7jfj_000000gn/T//ccd2KeZO.s:5993   .debug_str:0000000000000882 .LASF115
/var/folders/rt/4gvqv631095f64jvm7jfj_000000gn/T//ccd2KeZO.s:6095   .debug_str:0000000000000a95 .LASF116
/var/folders/rt/4gvqv631095f64jvm7jfj_000000gn/T//ccd2KeZO.s:5915   .debug_str:00000000000006b9 .LASF117
/var/folders/rt/4gvqv631095f64jvm7jfj_000000gn/T//ccd2KeZO.s:5665   .debug_str:0000000000000097 .LASF118
/var/folders/rt/4gvqv631095f64jvm7jfj_000000gn/T//ccd2KeZO.s:5909   .debug_str:000000000000068e .LASF119
/var/folders/rt/4gvqv631095f64jvm7jfj_000000gn/T//ccd2KeZO.s:6069   .debug_str:0000000000000a03 .LASF120
/var/folders/rt/4gvqv631095f64jvm7jfj_000000gn/T//ccd2KeZO.s:5877   .debug_str:00000000000005f3 .LASF121
/var/folders/rt/4gvqv631095f64jvm7jfj_000000gn/T//ccd2KeZO.s:5661   .debug_str:000000000000008a .LASF122
/var/folders/rt/4gvqv631095f64jvm7jfj_000000gn/T//ccd2KeZO.s:5637   .debug_str:000000000000001a .LASF243
/var/folders/rt/4gvqv631095f64jvm7jfj_000000gn/T//ccd2KeZO.s:5727   .debug_str:000000000000028b .LASF123
/var/folders/rt/4gvqv631095f64jvm7jfj_000000gn/T//ccd2KeZO.s:5767   .debug_str:000000000000035b .LASF124
/var/folders/rt/4gvqv631095f64jvm7jfj_000000gn/T//ccd2KeZO.s:5753   .debug_str:0000000000000309 .LASF125
GAS LISTING /var/folders/rt/4gvqv631095f64jvm7jfj_000000gn/T//ccd2KeZO.s 			page 34


/var/folders/rt/4gvqv631095f64jvm7jfj_000000gn/T//ccd2KeZO.s:5969   .debug_str:00000000000007ee .LASF126
/var/folders/rt/4gvqv631095f64jvm7jfj_000000gn/T//ccd2KeZO.s:6077   .debug_str:0000000000000a34 .LASF127
/var/folders/rt/4gvqv631095f64jvm7jfj_000000gn/T//ccd2KeZO.s:5825   .debug_str:00000000000004d9 .LASF128
/var/folders/rt/4gvqv631095f64jvm7jfj_000000gn/T//ccd2KeZO.s:5945   .debug_str:0000000000000771 .LASF129
/var/folders/rt/4gvqv631095f64jvm7jfj_000000gn/T//ccd2KeZO.s:6045   .debug_str:000000000000099d .LASF130
/var/folders/rt/4gvqv631095f64jvm7jfj_000000gn/T//ccd2KeZO.s:6003   .debug_str:00000000000008c1 .LASF131
/var/folders/rt/4gvqv631095f64jvm7jfj_000000gn/T//ccd2KeZO.s:6015   .debug_str:0000000000000914 .LASF132
/var/folders/rt/4gvqv631095f64jvm7jfj_000000gn/T//ccd2KeZO.s:6017   .debug_str:000000000000091d .LASF133
/var/folders/rt/4gvqv631095f64jvm7jfj_000000gn/T//ccd2KeZO.s:5905   .debug_str:000000000000067e .LASF134
/var/folders/rt/4gvqv631095f64jvm7jfj_000000gn/T//ccd2KeZO.s:6067   .debug_str:00000000000009fa .LASF135
/var/folders/rt/4gvqv631095f64jvm7jfj_000000gn/T//ccd2KeZO.s:5841   .debug_str:0000000000000534 .LASF136
/var/folders/rt/4gvqv631095f64jvm7jfj_000000gn/T//ccd2KeZO.s:5673   .debug_str:00000000000000c2 .LASF137
/var/folders/rt/4gvqv631095f64jvm7jfj_000000gn/T//ccd2KeZO.s:5675   .debug_str:00000000000000cd .LASF138
/var/folders/rt/4gvqv631095f64jvm7jfj_000000gn/T//ccd2KeZO.s:5677   .debug_str:00000000000000d8 .LASF139
/var/folders/rt/4gvqv631095f64jvm7jfj_000000gn/T//ccd2KeZO.s:5987   .debug_str:000000000000085d .LASF140
/var/folders/rt/4gvqv631095f64jvm7jfj_000000gn/T//ccd2KeZO.s:5681   .debug_str:00000000000000ed .LASF141
/var/folders/rt/4gvqv631095f64jvm7jfj_000000gn/T//ccd2KeZO.s:5683   .debug_str:00000000000000f8 .LASF142
/var/folders/rt/4gvqv631095f64jvm7jfj_000000gn/T//ccd2KeZO.s:5937   .debug_str:0000000000000732 .LASF143
/var/folders/rt/4gvqv631095f64jvm7jfj_000000gn/T//ccd2KeZO.s:5743   .debug_str:00000000000002d5 .LASF144
/var/folders/rt/4gvqv631095f64jvm7jfj_000000gn/T//ccd2KeZO.s:5745   .debug_str:00000000000002de .LASF145
/var/folders/rt/4gvqv631095f64jvm7jfj_000000gn/T//ccd2KeZO.s:5693   .debug_str:000000000000013e .LASF146
/var/folders/rt/4gvqv631095f64jvm7jfj_000000gn/T//ccd2KeZO.s:5695   .debug_str:0000000000000149 .LASF147
/var/folders/rt/4gvqv631095f64jvm7jfj_000000gn/T//ccd2KeZO.s:5657   .debug_str:0000000000000076 .LASF148
/var/folders/rt/4gvqv631095f64jvm7jfj_000000gn/T//ccd2KeZO.s:5659   .debug_str:0000000000000080 .LASF149
/var/folders/rt/4gvqv631095f64jvm7jfj_000000gn/T//ccd2KeZO.s:6079   .debug_str:0000000000000a3d .LASF150
/var/folders/rt/4gvqv631095f64jvm7jfj_000000gn/T//ccd2KeZO.s:6081   .debug_str:0000000000000a46 .LASF151
/var/folders/rt/4gvqv631095f64jvm7jfj_000000gn/T//ccd2KeZO.s:6029   .debug_str:0000000000000950 .LASF152
/var/folders/rt/4gvqv631095f64jvm7jfj_000000gn/T//ccd2KeZO.s:5771   .debug_str:00000000000003b1 .LASF153
/var/folders/rt/4gvqv631095f64jvm7jfj_000000gn/T//ccd2KeZO.s:6051   .debug_str:00000000000009b7 .LASF154
/var/folders/rt/4gvqv631095f64jvm7jfj_000000gn/T//ccd2KeZO.s:5647   .debug_str:0000000000000042 .LASF155
/var/folders/rt/4gvqv631095f64jvm7jfj_000000gn/T//ccd2KeZO.s:5755   .debug_str:0000000000000311 .LASF156
/var/folders/rt/4gvqv631095f64jvm7jfj_000000gn/T//ccd2KeZO.s:5951   .debug_str:000000000000078f .LASF157
/var/folders/rt/4gvqv631095f64jvm7jfj_000000gn/T//ccd2KeZO.s:5827   .debug_str:00000000000004e9 .LASF158
/var/folders/rt/4gvqv631095f64jvm7jfj_000000gn/T//ccd2KeZO.s:5863   .debug_str:00000000000005b2 .LASF159
/var/folders/rt/4gvqv631095f64jvm7jfj_000000gn/T//ccd2KeZO.s:5865   .debug_str:00000000000005bc .LASF160
/var/folders/rt/4gvqv631095f64jvm7jfj_000000gn/T//ccd2KeZO.s:5867   .debug_str:00000000000005c6 .LASF161
/var/folders/rt/4gvqv631095f64jvm7jfj_000000gn/T//ccd2KeZO.s:5869   .debug_str:00000000000005d0 .LASF162
/var/folders/rt/4gvqv631095f64jvm7jfj_000000gn/T//ccd2KeZO.s:5871   .debug_str:00000000000005da .LASF163
/var/folders/rt/4gvqv631095f64jvm7jfj_000000gn/T//ccd2KeZO.s:5855   .debug_str:0000000000000582 .LASF164
/var/folders/rt/4gvqv631095f64jvm7jfj_000000gn/T//ccd2KeZO.s:5857   .debug_str:000000000000058b .LASF165
/var/folders/rt/4gvqv631095f64jvm7jfj_000000gn/T//ccd2KeZO.s:5671   .debug_str:00000000000000b7 .LASF166
/var/folders/rt/4gvqv631095f64jvm7jfj_000000gn/T//ccd2KeZO.s:5741   .debug_str:00000000000002cc .LASF167
/var/folders/rt/4gvqv631095f64jvm7jfj_000000gn/T//ccd2KeZO.s:5691   .debug_str:0000000000000133 .LASF168
/var/folders/rt/4gvqv631095f64jvm7jfj_000000gn/T//ccd2KeZO.s:5799   .debug_str:0000000000000439 .LASF169
/var/folders/rt/4gvqv631095f64jvm7jfj_000000gn/T//ccd2KeZO.s:6055   .debug_str:00000000000009c9 .LASF170
/var/folders/rt/4gvqv631095f64jvm7jfj_000000gn/T//ccd2KeZO.s:6109   .debug_str:0000000000000b01 .LASF171
/var/folders/rt/4gvqv631095f64jvm7jfj_000000gn/T//ccd2KeZO.s:5697   .debug_str:0000000000000154 .LASF172
/var/folders/rt/4gvqv631095f64jvm7jfj_000000gn/T//ccd2KeZO.s:5701   .debug_str:0000000000000161 .LASF173
/var/folders/rt/4gvqv631095f64jvm7jfj_000000gn/T//ccd2KeZO.s:6099   .debug_str:0000000000000ac2 .LASF174
/var/folders/rt/4gvqv631095f64jvm7jfj_000000gn/T//ccd2KeZO.s:5997   .debug_str:000000000000089c .LASF175
/var/folders/rt/4gvqv631095f64jvm7jfj_000000gn/T//ccd2KeZO.s:6041   .debug_str:000000000000098a .LASF176
/var/folders/rt/4gvqv631095f64jvm7jfj_000000gn/T//ccd2KeZO.s:5995   .debug_str:0000000000000891 .LASF177
/var/folders/rt/4gvqv631095f64jvm7jfj_000000gn/T//ccd2KeZO.s:5807   .debug_str:0000000000000471 .LASF200
/var/folders/rt/4gvqv631095f64jvm7jfj_000000gn/T//ccd2KeZO.s:848    .text.Fukt_this_sample:0000000000000000 .LFB13
/var/folders/rt/4gvqv631095f64jvm7jfj_000000gn/T//ccd2KeZO.s:943    .text.Fukt_this_sample:0000000000000070 .LFE13
/var/folders/rt/4gvqv631095f64jvm7jfj_000000gn/T//ccd2KeZO.s:4979   .debug_loc:0000000000000000 .LLST24
/var/folders/rt/4gvqv631095f64jvm7jfj_000000gn/T//ccd2KeZO.s:5687   .debug_str:000000000000011f .LASF178
GAS LISTING /var/folders/rt/4gvqv631095f64jvm7jfj_000000gn/T//ccd2KeZO.s 			page 35


/var/folders/rt/4gvqv631095f64jvm7jfj_000000gn/T//ccd2KeZO.s:5002   .debug_loc:0000000000000038 .LLST25
/var/folders/rt/4gvqv631095f64jvm7jfj_000000gn/T//ccd2KeZO.s:5809   .debug_str:0000000000000482 .LASF179
/var/folders/rt/4gvqv631095f64jvm7jfj_000000gn/T//ccd2KeZO.s:5031   .debug_loc:000000000000007d .LLST26
/var/folders/rt/4gvqv631095f64jvm7jfj_000000gn/T//ccd2KeZO.s:6119   .debug_str:0000000000000b35 .LASF180
/var/folders/rt/4gvqv631095f64jvm7jfj_000000gn/T//ccd2KeZO.s:5056   .debug_loc:00000000000000b7 .LLST27
/var/folders/rt/4gvqv631095f64jvm7jfj_000000gn/T//ccd2KeZO.s:5815   .debug_str:00000000000004a5 .LASF181
/var/folders/rt/4gvqv631095f64jvm7jfj_000000gn/T//ccd2KeZO.s:5078   .debug_loc:00000000000000ee .LLST28
/var/folders/rt/4gvqv631095f64jvm7jfj_000000gn/T//ccd2KeZO.s:5737   .debug_str:00000000000002bf .LASF182
/var/folders/rt/4gvqv631095f64jvm7jfj_000000gn/T//ccd2KeZO.s:5101   .debug_loc:0000000000000126 .LLST29
/var/folders/rt/4gvqv631095f64jvm7jfj_000000gn/T//ccd2KeZO.s:6033   .debug_str:0000000000000962 .LASF184
/var/folders/rt/4gvqv631095f64jvm7jfj_000000gn/T//ccd2KeZO.s:5126   .debug_loc:0000000000000160 .LLST30
/var/folders/rt/4gvqv631095f64jvm7jfj_000000gn/T//ccd2KeZO.s:878    .text.Fukt_this_sample:000000000000001e .LVL93
/var/folders/rt/4gvqv631095f64jvm7jfj_000000gn/T//ccd2KeZO.s:929    .text.Fukt_this_sample:0000000000000062 .LVL99
/var/folders/rt/4gvqv631095f64jvm7jfj_000000gn/T//ccd2KeZO.s:5885   .debug_str:000000000000061c .LASF186
/var/folders/rt/4gvqv631095f64jvm7jfj_000000gn/T//ccd2KeZO.s:780    .text.an_average:0000000000000000 .LFB12
/var/folders/rt/4gvqv631095f64jvm7jfj_000000gn/T//ccd2KeZO.s:841    .text.an_average:0000000000000048 .LFE12
/var/folders/rt/4gvqv631095f64jvm7jfj_000000gn/T//ccd2KeZO.s:5138   .debug_loc:0000000000000179 .LLST20
/var/folders/rt/4gvqv631095f64jvm7jfj_000000gn/T//ccd2KeZO.s:5843   .debug_str:000000000000053e .LASF183
/var/folders/rt/4gvqv631095f64jvm7jfj_000000gn/T//ccd2KeZO.s:5156   .debug_loc:00000000000001a5 .LLST21
/var/folders/rt/4gvqv631095f64jvm7jfj_000000gn/T//ccd2KeZO.s:5893   .debug_str:0000000000000639 .LASF185
/var/folders/rt/4gvqv631095f64jvm7jfj_000000gn/T//ccd2KeZO.s:5176   .debug_loc:00000000000001d3 .LLST22
/var/folders/rt/4gvqv631095f64jvm7jfj_000000gn/T//ccd2KeZO.s:5204   .debug_loc:0000000000000217 .LLST23
/var/folders/rt/4gvqv631095f64jvm7jfj_000000gn/T//ccd2KeZO.s:5749   .debug_str:00000000000002f4 .LASF187
/var/folders/rt/4gvqv631095f64jvm7jfj_000000gn/T//ccd2KeZO.s:717    .text.ADC_read:0000000000000000 .LFB11
/var/folders/rt/4gvqv631095f64jvm7jfj_000000gn/T//ccd2KeZO.s:772    .text.ADC_read:0000000000000044 .LFE11
/var/folders/rt/4gvqv631095f64jvm7jfj_000000gn/T//ccd2KeZO.s:5212   .debug_loc:000000000000022b .LLST19
/var/folders/rt/4gvqv631095f64jvm7jfj_000000gn/T//ccd2KeZO.s:744    .text.ADC_read:0000000000000022 .LVL79
/var/folders/rt/4gvqv631095f64jvm7jfj_000000gn/T//ccd2KeZO.s:752    .text.ADC_read:000000000000002e .LVL80
/var/folders/rt/4gvqv631095f64jvm7jfj_000000gn/T//ccd2KeZO.s:770    .text.ADC_read:0000000000000044 .LVL81
/var/folders/rt/4gvqv631095f64jvm7jfj_000000gn/T//ccd2KeZO.s:5777   .debug_str:00000000000003c4 .LASF188
/var/folders/rt/4gvqv631095f64jvm7jfj_000000gn/T//ccd2KeZO.s:556    .text.read_temp:0000000000000000 .LFB10
/var/folders/rt/4gvqv631095f64jvm7jfj_000000gn/T//ccd2KeZO.s:710    .text.read_temp:0000000000000110 .LFE10
/var/folders/rt/4gvqv631095f64jvm7jfj_000000gn/T//ccd2KeZO.s:5230   .debug_loc:0000000000000257 .LLST14
/var/folders/rt/4gvqv631095f64jvm7jfj_000000gn/T//ccd2KeZO.s:5903   .debug_str:0000000000000673 .LASF189
/var/folders/rt/4gvqv631095f64jvm7jfj_000000gn/T//ccd2KeZO.s:5849   .debug_str:000000000000055f .LASF190
/var/folders/rt/4gvqv631095f64jvm7jfj_000000gn/T//ccd2KeZO.s:6031   .debug_str:0000000000000959 .LASF191
/var/folders/rt/4gvqv631095f64jvm7jfj_000000gn/T//ccd2KeZO.s:6009   .debug_str:00000000000008e8 .LASF192
/var/folders/rt/4gvqv631095f64jvm7jfj_000000gn/T//ccd2KeZO.s:5739   .debug_str:00000000000002c6 .LASF193
/var/folders/rt/4gvqv631095f64jvm7jfj_000000gn/T//ccd2KeZO.s:591    .text.read_temp:0000000000000024 .LBB2
/var/folders/rt/4gvqv631095f64jvm7jfj_000000gn/T//ccd2KeZO.s:648    .text.read_temp:00000000000000ae .LBE2
/var/folders/rt/4gvqv631095f64jvm7jfj_000000gn/T//ccd2KeZO.s:6037   .debug_str:0000000000000978 .LASF194
/var/folders/rt/4gvqv631095f64jvm7jfj_000000gn/T//ccd2KeZO.s:5248   .debug_loc:0000000000000283 .LLST15
/var/folders/rt/4gvqv631095f64jvm7jfj_000000gn/T//ccd2KeZO.s:5965   .debug_str:00000000000007d1 .LASF195
/var/folders/rt/4gvqv631095f64jvm7jfj_000000gn/T//ccd2KeZO.s:5255   .debug_loc:0000000000000296 .LLST16
/var/folders/rt/4gvqv631095f64jvm7jfj_000000gn/T//ccd2KeZO.s:6061   .debug_str:00000000000009de .LASF196
/var/folders/rt/4gvqv631095f64jvm7jfj_000000gn/T//ccd2KeZO.s:5278   .debug_loc:00000000000002bf .LLST17
/var/folders/rt/4gvqv631095f64jvm7jfj_000000gn/T//ccd2KeZO.s:595    .text.read_temp:000000000000002c .LVL66
/var/folders/rt/4gvqv631095f64jvm7jfj_000000gn/T//ccd2KeZO.s:664    .text.read_temp:00000000000000ca .LBB3
/var/folders/rt/4gvqv631095f64jvm7jfj_000000gn/T//ccd2KeZO.s:697    .text.read_temp:0000000000000106 .LBE3
/var/folders/rt/4gvqv631095f64jvm7jfj_000000gn/T//ccd2KeZO.s:5991   .debug_str:0000000000000875 .LASF197
/var/folders/rt/4gvqv631095f64jvm7jfj_000000gn/T//ccd2KeZO.s:5317   .debug_loc:0000000000000304 .LLST18
/var/folders/rt/4gvqv631095f64jvm7jfj_000000gn/T//ccd2KeZO.s:688    .text.read_temp:00000000000000fc .LVL78
/var/folders/rt/4gvqv631095f64jvm7jfj_000000gn/T//ccd2KeZO.s:5633   .debug_str:0000000000000000 .LASF198
/var/folders/rt/4gvqv631095f64jvm7jfj_000000gn/T//ccd2KeZO.s:465    .text.MAX31865_ReadADC:0000000000000000 .LFB9
/var/folders/rt/4gvqv631095f64jvm7jfj_000000gn/T//ccd2KeZO.s:540    .text.MAX31865_ReadADC:000000000000006a .LFE9
/var/folders/rt/4gvqv631095f64jvm7jfj_000000gn/T//ccd2KeZO.s:5336   .debug_loc:0000000000000326 .LLST10
/var/folders/rt/4gvqv631095f64jvm7jfj_000000gn/T//ccd2KeZO.s:5354   .debug_loc:0000000000000352 .LLST11
GAS LISTING /var/folders/rt/4gvqv631095f64jvm7jfj_000000gn/T//ccd2KeZO.s 			page 36


/var/folders/rt/4gvqv631095f64jvm7jfj_000000gn/T//ccd2KeZO.s:5361   .debug_loc:0000000000000365 .LLST12
/var/folders/rt/4gvqv631095f64jvm7jfj_000000gn/T//ccd2KeZO.s:6047   .debug_str:00000000000009a4 .LASF199
/var/folders/rt/4gvqv631095f64jvm7jfj_000000gn/T//ccd2KeZO.s:5368   .debug_loc:0000000000000378 .LLST13
/var/folders/rt/4gvqv631095f64jvm7jfj_000000gn/T//ccd2KeZO.s:489    .text.MAX31865_ReadADC:000000000000001c .LVL56
/var/folders/rt/4gvqv631095f64jvm7jfj_000000gn/T//ccd2KeZO.s:493    .text.MAX31865_ReadADC:0000000000000026 .LVL57
/var/folders/rt/4gvqv631095f64jvm7jfj_000000gn/T//ccd2KeZO.s:498    .text.MAX31865_ReadADC:0000000000000032 .LVL58
/var/folders/rt/4gvqv631095f64jvm7jfj_000000gn/T//ccd2KeZO.s:505    .text.MAX31865_ReadADC:0000000000000040 .LVL60
/var/folders/rt/4gvqv631095f64jvm7jfj_000000gn/T//ccd2KeZO.s:512    .text.MAX31865_ReadADC:0000000000000050 .LVL62
/var/folders/rt/4gvqv631095f64jvm7jfj_000000gn/T//ccd2KeZO.s:6113   .debug_str:0000000000000b11 .LASF201
/var/folders/rt/4gvqv631095f64jvm7jfj_000000gn/T//ccd2KeZO.s:339    .text.MAX31865_Init:0000000000000000 .LFB8
/var/folders/rt/4gvqv631095f64jvm7jfj_000000gn/T//ccd2KeZO.s:458    .text.MAX31865_Init:00000000000000e6 .LFE8
/var/folders/rt/4gvqv631095f64jvm7jfj_000000gn/T//ccd2KeZO.s:5388   .debug_loc:0000000000000398 .LLST9
/var/folders/rt/4gvqv631095f64jvm7jfj_000000gn/T//ccd2KeZO.s:5983   .debug_str:0000000000000840 .LASF202
/var/folders/rt/4gvqv631095f64jvm7jfj_000000gn/T//ccd2KeZO.s:357    .text.MAX31865_Init:0000000000000012 .LVL43
/var/folders/rt/4gvqv631095f64jvm7jfj_000000gn/T//ccd2KeZO.s:361    .text.MAX31865_Init:000000000000001e .LVL44
/var/folders/rt/4gvqv631095f64jvm7jfj_000000gn/T//ccd2KeZO.s:369    .text.MAX31865_Init:0000000000000034 .LVL45
/var/folders/rt/4gvqv631095f64jvm7jfj_000000gn/T//ccd2KeZO.s:376    .text.MAX31865_Init:0000000000000048 .LVL46
/var/folders/rt/4gvqv631095f64jvm7jfj_000000gn/T//ccd2KeZO.s:383    .text.MAX31865_Init:000000000000005c .LVL47
/var/folders/rt/4gvqv631095f64jvm7jfj_000000gn/T//ccd2KeZO.s:388    .text.MAX31865_Init:000000000000006a .LVL48
/var/folders/rt/4gvqv631095f64jvm7jfj_000000gn/T//ccd2KeZO.s:392    .text.MAX31865_Init:0000000000000074 .LVL49
/var/folders/rt/4gvqv631095f64jvm7jfj_000000gn/T//ccd2KeZO.s:425    .text.MAX31865_Init:000000000000009e .LVL50
/var/folders/rt/4gvqv631095f64jvm7jfj_000000gn/T//ccd2KeZO.s:429    .text.MAX31865_Init:00000000000000aa .LVL51
/var/folders/rt/4gvqv631095f64jvm7jfj_000000gn/T//ccd2KeZO.s:434    .text.MAX31865_Init:00000000000000b8 .LVL52
/var/folders/rt/4gvqv631095f64jvm7jfj_000000gn/T//ccd2KeZO.s:438    .text.MAX31865_Init:00000000000000c4 .LVL53
/var/folders/rt/4gvqv631095f64jvm7jfj_000000gn/T//ccd2KeZO.s:442    .text.MAX31865_Init:00000000000000d0 .LVL54
/var/folders/rt/4gvqv631095f64jvm7jfj_000000gn/T//ccd2KeZO.s:447    .text.MAX31865_Init:00000000000000de .LVL55
/var/folders/rt/4gvqv631095f64jvm7jfj_000000gn/T//ccd2KeZO.s:5779   .debug_str:00000000000003ce .LASF203
/var/folders/rt/4gvqv631095f64jvm7jfj_000000gn/T//ccd2KeZO.s:278    .text.MAX31865_ExchangeByte:0000000000000000 .LFB7
/var/folders/rt/4gvqv631095f64jvm7jfj_000000gn/T//ccd2KeZO.s:332    .text.MAX31865_ExchangeByte:000000000000004e .LFE7
/var/folders/rt/4gvqv631095f64jvm7jfj_000000gn/T//ccd2KeZO.s:5406   .debug_loc:00000000000003c4 .LLST7
/var/folders/rt/4gvqv631095f64jvm7jfj_000000gn/T//ccd2KeZO.s:6111   .debug_str:0000000000000b0c .LASF204
/var/folders/rt/4gvqv631095f64jvm7jfj_000000gn/T//ccd2KeZO.s:5424   .debug_loc:00000000000003f0 .LLST8
/var/folders/rt/4gvqv631095f64jvm7jfj_000000gn/T//ccd2KeZO.s:298    .text.MAX31865_ExchangeByte:0000000000000016 .LVL39
/var/folders/rt/4gvqv631095f64jvm7jfj_000000gn/T//ccd2KeZO.s:305    .text.MAX31865_ExchangeByte:0000000000000026 .LVL40
/var/folders/rt/4gvqv631095f64jvm7jfj_000000gn/T//ccd2KeZO.s:313    .text.MAX31865_ExchangeByte:0000000000000034 .LVL41
/var/folders/rt/4gvqv631095f64jvm7jfj_000000gn/T//ccd2KeZO.s:320    .text.MAX31865_ExchangeByte:0000000000000042 .LVL42
/var/folders/rt/4gvqv631095f64jvm7jfj_000000gn/T//ccd2KeZO.s:5711   .debug_str:0000000000000234 .LASF205
/var/folders/rt/4gvqv631095f64jvm7jfj_000000gn/T//ccd2KeZO.s:171    .text.readLightSensor:0000000000000000 .LFB6
/var/folders/rt/4gvqv631095f64jvm7jfj_000000gn/T//ccd2KeZO.s:271    .text.readLightSensor:000000000000007e .LFE6
/var/folders/rt/4gvqv631095f64jvm7jfj_000000gn/T//ccd2KeZO.s:5438   .debug_loc:0000000000000411 .LLST2
/var/folders/rt/4gvqv631095f64jvm7jfj_000000gn/T//ccd2KeZO.s:5787   .debug_str:00000000000003fd .LASF206
/var/folders/rt/4gvqv631095f64jvm7jfj_000000gn/T//ccd2KeZO.s:5461   .debug_loc:0000000000000449 .LLST3
/var/folders/rt/4gvqv631095f64jvm7jfj_000000gn/T//ccd2KeZO.s:5483   .debug_loc:0000000000000480 .LLST4
/var/folders/rt/4gvqv631095f64jvm7jfj_000000gn/T//ccd2KeZO.s:5791   .debug_str:000000000000041b .LASF207
/var/folders/rt/4gvqv631095f64jvm7jfj_000000gn/T//ccd2KeZO.s:5505   .debug_loc:00000000000004b7 .LLST5
/var/folders/rt/4gvqv631095f64jvm7jfj_000000gn/T//ccd2KeZO.s:5907   .debug_str:0000000000000686 .LASF208
/var/folders/rt/4gvqv631095f64jvm7jfj_000000gn/T//ccd2KeZO.s:5526   .debug_loc:00000000000004ed .LLST6
/var/folders/rt/4gvqv631095f64jvm7jfj_000000gn/T//ccd2KeZO.s:201    .text.readLightSensor:000000000000001c .LVL25
/var/folders/rt/4gvqv631095f64jvm7jfj_000000gn/T//ccd2KeZO.s:212    .text.readLightSensor:000000000000002c .LVL27
/var/folders/rt/4gvqv631095f64jvm7jfj_000000gn/T//ccd2KeZO.s:219    .text.readLightSensor:0000000000000038 .LVL28
/var/folders/rt/4gvqv631095f64jvm7jfj_000000gn/T//ccd2KeZO.s:226    .text.readLightSensor:0000000000000046 .LVL30
/var/folders/rt/4gvqv631095f64jvm7jfj_000000gn/T//ccd2KeZO.s:257    .text.readLightSensor:0000000000000062 .LVL35
/var/folders/rt/4gvqv631095f64jvm7jfj_000000gn/T//ccd2KeZO.s:265    .text.readLightSensor:000000000000007a .LVL36
/var/folders/rt/4gvqv631095f64jvm7jfj_000000gn/T//ccd2KeZO.s:5651   .debug_str:0000000000000051 .LASF209
/var/folders/rt/4gvqv631095f64jvm7jfj_000000gn/T//ccd2KeZO.s:14     .text.ADC3powerUpInit:0000000000000000 .LFB5
/var/folders/rt/4gvqv631095f64jvm7jfj_000000gn/T//ccd2KeZO.s:164    .text.ADC3powerUpInit:0000000000000140 .LFE5
/var/folders/rt/4gvqv631095f64jvm7jfj_000000gn/T//ccd2KeZO.s:5538   .debug_loc:0000000000000506 .LLST0
GAS LISTING /var/folders/rt/4gvqv631095f64jvm7jfj_000000gn/T//ccd2KeZO.s 			page 37


/var/folders/rt/4gvqv631095f64jvm7jfj_000000gn/T//ccd2KeZO.s:5556   .debug_loc:0000000000000532 .LLST1
/var/folders/rt/4gvqv631095f64jvm7jfj_000000gn/T//ccd2KeZO.s:37     .text.ADC3powerUpInit:0000000000000016 .LVL2
/var/folders/rt/4gvqv631095f64jvm7jfj_000000gn/T//ccd2KeZO.s:41     .text.ADC3powerUpInit:0000000000000022 .LVL3
/var/folders/rt/4gvqv631095f64jvm7jfj_000000gn/T//ccd2KeZO.s:45     .text.ADC3powerUpInit:000000000000002c .LVL4
/var/folders/rt/4gvqv631095f64jvm7jfj_000000gn/T//ccd2KeZO.s:53     .text.ADC3powerUpInit:0000000000000042 .LVL5
/var/folders/rt/4gvqv631095f64jvm7jfj_000000gn/T//ccd2KeZO.s:58     .text.ADC3powerUpInit:0000000000000052 .LVL6
/var/folders/rt/4gvqv631095f64jvm7jfj_000000gn/T//ccd2KeZO.s:62     .text.ADC3powerUpInit:000000000000005c .LVL7
/var/folders/rt/4gvqv631095f64jvm7jfj_000000gn/T//ccd2KeZO.s:68     .text.ADC3powerUpInit:000000000000006c .LVL8
/var/folders/rt/4gvqv631095f64jvm7jfj_000000gn/T//ccd2KeZO.s:74     .text.ADC3powerUpInit:000000000000007e .LVL9
/var/folders/rt/4gvqv631095f64jvm7jfj_000000gn/T//ccd2KeZO.s:79     .text.ADC3powerUpInit:000000000000008c .LVL10
/var/folders/rt/4gvqv631095f64jvm7jfj_000000gn/T//ccd2KeZO.s:85     .text.ADC3powerUpInit:000000000000009c .LVL11
/var/folders/rt/4gvqv631095f64jvm7jfj_000000gn/T//ccd2KeZO.s:92     .text.ADC3powerUpInit:00000000000000ae .LVL12
/var/folders/rt/4gvqv631095f64jvm7jfj_000000gn/T//ccd2KeZO.s:98     .text.ADC3powerUpInit:00000000000000c0 .LVL13
/var/folders/rt/4gvqv631095f64jvm7jfj_000000gn/T//ccd2KeZO.s:104    .text.ADC3powerUpInit:00000000000000d0 .LVL14
/var/folders/rt/4gvqv631095f64jvm7jfj_000000gn/T//ccd2KeZO.s:113    .text.ADC3powerUpInit:00000000000000e4 .LVL15
/var/folders/rt/4gvqv631095f64jvm7jfj_000000gn/T//ccd2KeZO.s:119    .text.ADC3powerUpInit:00000000000000f4 .LVL16
/var/folders/rt/4gvqv631095f64jvm7jfj_000000gn/T//ccd2KeZO.s:122    .text.ADC3powerUpInit:00000000000000fc .LVL17
/var/folders/rt/4gvqv631095f64jvm7jfj_000000gn/T//ccd2KeZO.s:129    .text.ADC3powerUpInit:000000000000010e .LVL18
/var/folders/rt/4gvqv631095f64jvm7jfj_000000gn/T//ccd2KeZO.s:135    .text.ADC3powerUpInit:000000000000011e .LVL19
/var/folders/rt/4gvqv631095f64jvm7jfj_000000gn/T//ccd2KeZO.s:141    .text.ADC3powerUpInit:000000000000012a .LVL20
/var/folders/rt/4gvqv631095f64jvm7jfj_000000gn/T//ccd2KeZO.s:162    .text.ADC3powerUpInit:0000000000000140 .LVL22
/var/folders/rt/4gvqv631095f64jvm7jfj_000000gn/T//ccd2KeZO.s:5805   .debug_str:0000000000000455 .LASF210
/var/folders/rt/4gvqv631095f64jvm7jfj_000000gn/T//ccd2KeZO.s:5913   .debug_str:00000000000006ac .LASF211
/var/folders/rt/4gvqv631095f64jvm7jfj_000000gn/T//ccd2KeZO.s:5709   .debug_str:000000000000021e .LASF212
/var/folders/rt/4gvqv631095f64jvm7jfj_000000gn/T//ccd2KeZO.s:6019   .debug_str:0000000000000926 .LASF213
/var/folders/rt/4gvqv631095f64jvm7jfj_000000gn/T//ccd2KeZO.s:5817   .debug_str:00000000000004af .LASF214
/var/folders/rt/4gvqv631095f64jvm7jfj_000000gn/T//ccd2KeZO.s:5989   .debug_str:0000000000000868 .LASF215
/var/folders/rt/4gvqv631095f64jvm7jfj_000000gn/T//ccd2KeZO.s:6101   .debug_str:0000000000000acb .LASF216
/var/folders/rt/4gvqv631095f64jvm7jfj_000000gn/T//ccd2KeZO.s:6021   .debug_str:0000000000000933 .LASF217
/var/folders/rt/4gvqv631095f64jvm7jfj_000000gn/T//ccd2KeZO.s:6085   .debug_str:0000000000000a57 .LASF218
/var/folders/rt/4gvqv631095f64jvm7jfj_000000gn/T//ccd2KeZO.s:5757   .debug_str:0000000000000319 .LASF219
/var/folders/rt/4gvqv631095f64jvm7jfj_000000gn/T//ccd2KeZO.s:6103   .debug_str:0000000000000ae3 .LASF220
/var/folders/rt/4gvqv631095f64jvm7jfj_000000gn/T//ccd2KeZO.s:5963   .debug_str:00000000000007c0 .LASF221
/var/folders/rt/4gvqv631095f64jvm7jfj_000000gn/T//ccd2KeZO.s:6005   .debug_str:00000000000008c7 .LASF222
/var/folders/rt/4gvqv631095f64jvm7jfj_000000gn/T//ccd2KeZO.s:5911   .debug_str:0000000000000697 .LASF223
/var/folders/rt/4gvqv631095f64jvm7jfj_000000gn/T//ccd2KeZO.s:5837   .debug_str:000000000000051d .LASF224
/var/folders/rt/4gvqv631095f64jvm7jfj_000000gn/T//ccd2KeZO.s:5645   .debug_str:0000000000000038 .LASF225
/var/folders/rt/4gvqv631095f64jvm7jfj_000000gn/T//ccd2KeZO.s:5721   .debug_str:0000000000000268 .LASF226
/var/folders/rt/4gvqv631095f64jvm7jfj_000000gn/T//ccd2KeZO.s:5899   .debug_str:0000000000000658 .LASF227
/var/folders/rt/4gvqv631095f64jvm7jfj_000000gn/T//ccd2KeZO.s:5759   .debug_str:0000000000000322 .LASF228
/var/folders/rt/4gvqv631095f64jvm7jfj_000000gn/T//ccd2KeZO.s:5861   .debug_str:00000000000005a2 .LASF229
/var/folders/rt/4gvqv631095f64jvm7jfj_000000gn/T//ccd2KeZO.s:5933   .debug_str:000000000000070e .LASF230
/var/folders/rt/4gvqv631095f64jvm7jfj_000000gn/T//ccd2KeZO.s:6075   .debug_str:0000000000000a1a .LASF231
/var/folders/rt/4gvqv631095f64jvm7jfj_000000gn/T//ccd2KeZO.s:5707   .debug_str:0000000000000204 .LASF232
/var/folders/rt/4gvqv631095f64jvm7jfj_000000gn/T//ccd2KeZO.s:6011   .debug_str:00000000000008f4 .LASF233
/var/folders/rt/4gvqv631095f64jvm7jfj_000000gn/T//ccd2KeZO.s:5941   .debug_str:0000000000000744 .LASF234
/var/folders/rt/4gvqv631095f64jvm7jfj_000000gn/T//ccd2KeZO.s:6097   .debug_str:0000000000000aa6 .LASF235
/var/folders/rt/4gvqv631095f64jvm7jfj_000000gn/T//ccd2KeZO.s:5971   .debug_str:00000000000007f7 .LASF236
/var/folders/rt/4gvqv631095f64jvm7jfj_000000gn/T//ccd2KeZO.s:5685   .debug_str:0000000000000103 .LASF237
/var/folders/rt/4gvqv631095f64jvm7jfj_000000gn/T//ccd2KeZO.s:5689   .debug_str:0000000000000128 .LASF238
/var/folders/rt/4gvqv631095f64jvm7jfj_000000gn/T//ccd2KeZO.s:5789   .debug_str:0000000000000404 .LASF239
/var/folders/rt/4gvqv631095f64jvm7jfj_000000gn/T//ccd2KeZO.s:856    .text.Fukt_this_sample:0000000000000002 .LCFI17
/var/folders/rt/4gvqv631095f64jvm7jfj_000000gn/T//ccd2KeZO.s:906    .text.Fukt_this_sample:0000000000000040 .LCFI18
/var/folders/rt/4gvqv631095f64jvm7jfj_000000gn/T//ccd2KeZO.s:911    .text.Fukt_this_sample:0000000000000042 .LCFI19
/var/folders/rt/4gvqv631095f64jvm7jfj_000000gn/T//ccd2KeZO.s:851    .text.Fukt_this_sample:0000000000000000 .LVL91
/var/folders/rt/4gvqv631095f64jvm7jfj_000000gn/T//ccd2KeZO.s:885    .text.Fukt_this_sample:0000000000000026 .LVL94
/var/folders/rt/4gvqv631095f64jvm7jfj_000000gn/T//ccd2KeZO.s:909    .text.Fukt_this_sample:0000000000000042 .LVL97
GAS LISTING /var/folders/rt/4gvqv631095f64jvm7jfj_000000gn/T//ccd2KeZO.s 			page 38


/var/folders/rt/4gvqv631095f64jvm7jfj_000000gn/T//ccd2KeZO.s:863    .text.Fukt_this_sample:0000000000000008 .LVL92
/var/folders/rt/4gvqv631095f64jvm7jfj_000000gn/T//ccd2KeZO.s:900    .text.Fukt_this_sample:000000000000003a .LVL96
/var/folders/rt/4gvqv631095f64jvm7jfj_000000gn/T//ccd2KeZO.s:922    .text.Fukt_this_sample:0000000000000050 .LVL98
/var/folders/rt/4gvqv631095f64jvm7jfj_000000gn/T//ccd2KeZO.s:887    .text.Fukt_this_sample:000000000000002e .LVL95
/var/folders/rt/4gvqv631095f64jvm7jfj_000000gn/T//ccd2KeZO.s:791    .text.an_average:0000000000000002 .LCFI15
/var/folders/rt/4gvqv631095f64jvm7jfj_000000gn/T//ccd2KeZO.s:837    .text.an_average:0000000000000046 .LCFI16
/var/folders/rt/4gvqv631095f64jvm7jfj_000000gn/T//ccd2KeZO.s:783    .text.an_average:0000000000000000 .LVL82
/var/folders/rt/4gvqv631095f64jvm7jfj_000000gn/T//ccd2KeZO.s:803    .text.an_average:0000000000000010 .LVL83
/var/folders/rt/4gvqv631095f64jvm7jfj_000000gn/T//ccd2KeZO.s:835    .text.an_average:0000000000000044 .LVL90
/var/folders/rt/4gvqv631095f64jvm7jfj_000000gn/T//ccd2KeZO.s:809    .text.an_average:0000000000000018 .LVL84
/var/folders/rt/4gvqv631095f64jvm7jfj_000000gn/T//ccd2KeZO.s:815    .text.an_average:000000000000002c .LVL86
/var/folders/rt/4gvqv631095f64jvm7jfj_000000gn/T//ccd2KeZO.s:820    .text.an_average:0000000000000030 .LVL87
/var/folders/rt/4gvqv631095f64jvm7jfj_000000gn/T//ccd2KeZO.s:825    .text.an_average:0000000000000036 .LVL88
/var/folders/rt/4gvqv631095f64jvm7jfj_000000gn/T//ccd2KeZO.s:827    .text.an_average:000000000000003e .LVL89
/var/folders/rt/4gvqv631095f64jvm7jfj_000000gn/T//ccd2KeZO.s:723    .text.ADC_read:0000000000000002 .LCFI13
/var/folders/rt/4gvqv631095f64jvm7jfj_000000gn/T//ccd2KeZO.s:766    .text.ADC_read:000000000000003c .LCFI14
/var/folders/rt/4gvqv631095f64jvm7jfj_000000gn/T//ccd2KeZO.s:568    .text.read_temp:0000000000000002 .LCFI11
/var/folders/rt/4gvqv631095f64jvm7jfj_000000gn/T//ccd2KeZO.s:706    .text.read_temp:000000000000010e .LCFI12
/var/folders/rt/4gvqv631095f64jvm7jfj_000000gn/T//ccd2KeZO.s:601    .text.read_temp:0000000000000034 .LVL67
/var/folders/rt/4gvqv631095f64jvm7jfj_000000gn/T//ccd2KeZO.s:666    .text.read_temp:00000000000000ca .LVL75
/var/folders/rt/4gvqv631095f64jvm7jfj_000000gn/T//ccd2KeZO.s:672    .text.read_temp:00000000000000d6 .LVL76
/var/folders/rt/4gvqv631095f64jvm7jfj_000000gn/T//ccd2KeZO.s:472    .text.MAX31865_ReadADC:0000000000000002 .LCFI9
/var/folders/rt/4gvqv631095f64jvm7jfj_000000gn/T//ccd2KeZO.s:536    .text.MAX31865_ReadADC:0000000000000068 .LCFI10
/var/folders/rt/4gvqv631095f64jvm7jfj_000000gn/T//ccd2KeZO.s:500    .text.MAX31865_ReadADC:0000000000000034 .LVL59
/var/folders/rt/4gvqv631095f64jvm7jfj_000000gn/T//ccd2KeZO.s:524    .text.MAX31865_ReadADC:000000000000005c .LVL63
/var/folders/rt/4gvqv631095f64jvm7jfj_000000gn/T//ccd2KeZO.s:507    .text.MAX31865_ReadADC:0000000000000042 .LVL61
/var/folders/rt/4gvqv631095f64jvm7jfj_000000gn/T//ccd2KeZO.s:533    .text.MAX31865_ReadADC:0000000000000064 .LVL64
/var/folders/rt/4gvqv631095f64jvm7jfj_000000gn/T//ccd2KeZO.s:346    .text.MAX31865_Init:0000000000000002 .LCFI7
/var/folders/rt/4gvqv631095f64jvm7jfj_000000gn/T//ccd2KeZO.s:454    .text.MAX31865_Init:00000000000000e4 .LCFI8
/var/folders/rt/4gvqv631095f64jvm7jfj_000000gn/T//ccd2KeZO.s:283    .text.MAX31865_ExchangeByte:0000000000000002 .LCFI5
/var/folders/rt/4gvqv631095f64jvm7jfj_000000gn/T//ccd2KeZO.s:328    .text.MAX31865_ExchangeByte:000000000000004c .LCFI6
/var/folders/rt/4gvqv631095f64jvm7jfj_000000gn/T//ccd2KeZO.s:281    .text.MAX31865_ExchangeByte:0000000000000000 .LVL37
/var/folders/rt/4gvqv631095f64jvm7jfj_000000gn/T//ccd2KeZO.s:291    .text.MAX31865_ExchangeByte:0000000000000008 .LVL38
/var/folders/rt/4gvqv631095f64jvm7jfj_000000gn/T//ccd2KeZO.s:178    .text.readLightSensor:0000000000000002 .LCFI2
/var/folders/rt/4gvqv631095f64jvm7jfj_000000gn/T//ccd2KeZO.s:245    .text.readLightSensor:0000000000000054 .LCFI3
/var/folders/rt/4gvqv631095f64jvm7jfj_000000gn/T//ccd2KeZO.s:250    .text.readLightSensor:0000000000000056 .LCFI4
/var/folders/rt/4gvqv631095f64jvm7jfj_000000gn/T//ccd2KeZO.s:174    .text.readLightSensor:0000000000000000 .LVL23
/var/folders/rt/4gvqv631095f64jvm7jfj_000000gn/T//ccd2KeZO.s:234    .text.readLightSensor:000000000000004a .LVL31
/var/folders/rt/4gvqv631095f64jvm7jfj_000000gn/T//ccd2KeZO.s:248    .text.readLightSensor:0000000000000056 .LVL34
/var/folders/rt/4gvqv631095f64jvm7jfj_000000gn/T//ccd2KeZO.s:185    .text.readLightSensor:0000000000000008 .LVL24
/var/folders/rt/4gvqv631095f64jvm7jfj_000000gn/T//ccd2KeZO.s:238    .text.readLightSensor:000000000000004e .LVL32
/var/folders/rt/4gvqv631095f64jvm7jfj_000000gn/T//ccd2KeZO.s:206    .text.readLightSensor:0000000000000020 .LVL26
/var/folders/rt/4gvqv631095f64jvm7jfj_000000gn/T//ccd2KeZO.s:221    .text.readLightSensor:000000000000003a .LVL29
/var/folders/rt/4gvqv631095f64jvm7jfj_000000gn/T//ccd2KeZO.s:241    .text.readLightSensor:0000000000000050 .LVL33
/var/folders/rt/4gvqv631095f64jvm7jfj_000000gn/T//ccd2KeZO.s:22     .text.ADC3powerUpInit:0000000000000002 .LCFI0
/var/folders/rt/4gvqv631095f64jvm7jfj_000000gn/T//ccd2KeZO.s:158    .text.ADC3powerUpInit:0000000000000138 .LCFI1
/var/folders/rt/4gvqv631095f64jvm7jfj_000000gn/T//ccd2KeZO.s:18     .text.ADC3powerUpInit:0000000000000000 .LVL0
/var/folders/rt/4gvqv631095f64jvm7jfj_000000gn/T//ccd2KeZO.s:29     .text.ADC3powerUpInit:000000000000000a .LVL1
/var/folders/rt/4gvqv631095f64jvm7jfj_000000gn/T//ccd2KeZO.s:153    .text.ADC3powerUpInit:0000000000000134 .LVL21
/var/folders/rt/4gvqv631095f64jvm7jfj_000000gn/T//ccd2KeZO.s:1001   .debug_info:0000000000000000 .Ldebug_info0
/var/folders/rt/4gvqv631095f64jvm7jfj_000000gn/T//ccd2KeZO.s:786    .text.an_average:0000000000000000 .LBB4
/var/folders/rt/4gvqv631095f64jvm7jfj_000000gn/T//ccd2KeZO.s:788    .text.an_average:0000000000000000 .LBE4
/var/folders/rt/4gvqv631095f64jvm7jfj_000000gn/T//ccd2KeZO.s:805    .text.an_average:0000000000000010 .LBB5
/var/folders/rt/4gvqv631095f64jvm7jfj_000000gn/T//ccd2KeZO.s:818    .text.an_average:0000000000000030 .LBE5

UNDEFINED SYMBOLS
rcu_periph_clock_enable
GAS LISTING /var/folders/rt/4gvqv631095f64jvm7jfj_000000gn/T//ccd2KeZO.s 			page 39


rcu_adc_clock_config
gpio_init
adc_deinit
adc_mode_config
adc_special_function_config
adc_data_alignment_config
adc_channel_length_config
adc_regular_channel_config
adc_external_trigger_source_config
adc_external_trigger_config
adc_tempsensor_vrefint_enable
adc_inserted_channel_config
adc_enable
adc_calibration_enable
adc_software_trigger_enable
adc_flag_get
adc_regular_data_read
adc_flag_clear
LCD_Clear
LCD_ShowStr
spi_i2s_flag_get
spi_i2s_data_transmit
spi_i2s_data_receive
gpio_bit_set
spi_struct_para_init
spi_init
spi_enable
gpio_bit_reset
__floatunsisf
__mulsf3
__extendsfdf2
__subdf3
__divdf3
__truncdfsf2
__addsf3
__floatsisf
__divsf3
LCD_ShowNum1
__fixsfsi
