GAS LISTING /var/folders/rt/4gvqv631095f64jvm7jfj_000000gn/T//ccOTUoWQ.s 			page 1


   1              		.file	"adc.c"
   2              		.option nopic
   3              		.attribute arch, "rv32i2p0_m2p0_a2p0_c2p0"
   4              		.attribute unaligned_access, 0
   5              		.attribute stack_align, 16
   6              		.text
   7              	.Ltext0:
   8              		.cfi_sections	.debug_frame
   9              		.section	.text.ADC3powerUpInit,"ax",@progbits
  10              		.align	1
  11              		.globl	ADC3powerUpInit
  13              	ADC3powerUpInit:
  14              	.LFB5:
  15              		.file 1 "adc.c"
   1:adc.c         **** #include "adc.h"
   2:adc.c         **** #include "gd32vf103.h"
   3:adc.c         **** #include "lcd.h"
   4:adc.c         **** #include <stdio.h>
   5:adc.c         **** #include "drivers.h"
   6:adc.c         **** #include "gd32vf103.h"
   7:adc.c         **** 
   8:adc.c         **** #define FCLK_SLOW() { SPI_CTL0(SPI1) = (SPI_CTL0(SPI1) & ~0x38) | 0x20; }	// Set SCLK = PCLK2 / 64 
   9:adc.c         **** #define FCLK_FAST() { SPI_CTL0(SPI1) = (SPI_CTL0(SPI1) & ~0x38) | 0x08; }
  10:adc.c         **** 
  11:adc.c         **** #define MAX_CS_Clr() gpio_bit_reset(GPIOA, GPIO_PIN_4)
  12:adc.c         **** #define MAX_CS_Set() gpio_bit_set(GPIOA, GPIO_PIN_4)
  13:adc.c         **** 
  14:adc.c         **** 
  15:adc.c         **** void ADC3powerUpInit(int tmp) {
  16              		.loc 1 15 31
  17              		.cfi_startproc
  18              	.LVL0:
  16:adc.c         ****     rcu_periph_clock_enable(RCU_GPIOA);
  19              		.loc 1 16 5
  15:adc.c         ****     rcu_periph_clock_enable(RCU_GPIOA);
  20              		.loc 1 15 31 is_stmt 0
  21 0000 4111     		addi	sp,sp,-16
  22              	.LCFI0:
  23              		.cfi_def_cfa_offset 16
  24 0002 26C2     		sw	s1,4(sp)
  25              		.cfi_offset 9, -12
  26 0004 AA84     		mv	s1,a0
  27              		.loc 1 16 5
  28 0006 13052060 		li	a0,1538
  29              	.LVL1:
  15:adc.c         ****     rcu_periph_clock_enable(RCU_GPIOA);
  30              		.loc 1 15 31
  31 000a 06C6     		sw	ra,12(sp)
  32 000c 22C4     		sw	s0,8(sp)
  33              		.cfi_offset 1, -4
  34              		.cfi_offset 8, -8
  35              		.loc 1 16 5
  36 000e 97000000 		call	rcu_periph_clock_enable
  36      E7800000 
  37              	.LVL2:
  17:adc.c         ****     rcu_periph_clock_enable(RCU_ADC0);
  38              		.loc 1 17 5 is_stmt 1
GAS LISTING /var/folders/rt/4gvqv631095f64jvm7jfj_000000gn/T//ccOTUoWQ.s 			page 2


  39 0016 13059060 		li	a0,1545
  40 001a 97000000 		call	rcu_periph_clock_enable
  40      E7800000 
  41              	.LVL3:
  18:adc.c         ****     rcu_adc_clock_config(RCU_CKADC_CKAPB2_DIV8);
  42              		.loc 1 18 5
  43 0022 0D45     		li	a0,3
  44 0024 97000000 		call	rcu_adc_clock_config
  44      E7800000 
  45              	.LVL4:
  19:adc.c         **** 
  20:adc.c         ****     gpio_init(GPIOA, GPIO_MODE_AIN, 0x00, GPIO_PIN_3 | GPIO_PIN_1);
  46              		.loc 1 20 5
  47 002c 37150140 		li	a0,1073811456
  48 0030 A946     		li	a3,10
  49 0032 0146     		li	a2,0
  50 0034 8145     		li	a1,0
  51 0036 13050580 		addi	a0,a0,-2048
  52 003a 97000000 		call	gpio_init
  52      E7800000 
  53              	.LVL5:
  21:adc.c         ****     
  22:adc.c         ****     adc_deinit(ADC0);                                                   // Reset...
  54              		.loc 1 22 5
  55 0042 37240140 		li	s0,1073815552
  56 0046 13050440 		addi	a0,s0,1024
  57 004a 97000000 		call	adc_deinit
  57      E7800000 
  58              	.LVL6:
  23:adc.c         ****     adc_mode_config(ADC_MODE_FREE);                                     // ADC0 & ADC1 runs indep.
  59              		.loc 1 23 5
  60 0052 0145     		li	a0,0
  61 0054 97000000 		call	adc_mode_config
  61      E7800000 
  62              	.LVL7:
  24:adc.c         ****     adc_special_function_config(ADC0, ADC_CONTINUOUS_MODE, DISABLE);    // Trigger each sample
  63              		.loc 1 24 5
  64 005c 0146     		li	a2,0
  65 005e 8945     		li	a1,2
  66 0060 13050440 		addi	a0,s0,1024
  67 0064 97000000 		call	adc_special_function_config
  67      E7800000 
  68              	.LVL8:
  25:adc.c         ****     adc_special_function_config(ADC0, ADC_SCAN_MODE, DISABLE);          // Scan mode disable
  69              		.loc 1 25 5
  70 006c 0146     		li	a2,0
  71 006e 93050010 		li	a1,256
  72 0072 13050440 		addi	a0,s0,1024
  73 0076 97000000 		call	adc_special_function_config
  73      E7800000 
  74              	.LVL9:
  26:adc.c         ****     adc_data_alignment_config(ADC0, ADC_DATAALIGN_RIGHT);               // Align ADC value right
  75              		.loc 1 26 5
  76 007e 8145     		li	a1,0
  77 0080 13050440 		addi	a0,s0,1024
  78 0084 97000000 		call	adc_data_alignment_config
  78      E7800000 
GAS LISTING /var/folders/rt/4gvqv631095f64jvm7jfj_000000gn/T//ccOTUoWQ.s 			page 3


  79              	.LVL10:
  27:adc.c         ****     adc_channel_length_config(ADC0, ADC_REGULAR_CHANNEL, 1);            // Convert one channel
  80              		.loc 1 27 5
  81 008c 0546     		li	a2,1
  82 008e 8545     		li	a1,1
  83 0090 13050440 		addi	a0,s0,1024
  84 0094 97000000 		call	adc_channel_length_config
  84      E7800000 
  85              	.LVL11:
  28:adc.c         **** 
  29:adc.c         ****     adc_regular_channel_config(ADC0, 0, ADC_CHANNEL_3,     //ADC_CHANNEL_3
  86              		.loc 1 29 5
  87 009c 8946     		li	a3,2
  88 009e 0D46     		li	a2,3
  89 00a0 8145     		li	a1,0
  90 00a2 13050440 		addi	a0,s0,1024
  91 00a6 97000000 		call	adc_regular_channel_config
  91      E7800000 
  92              	.LVL12:
  30:adc.c         ****                               ADC_SAMPLETIME_13POINT5);    // Conv. takes 13.5us                   
  31:adc.c         ****     adc_external_trigger_source_config(ADC0, ADC_REGULAR_CHANNEL, 
  93              		.loc 1 31 5
  94 00ae 37060E00 		li	a2,917504
  95 00b2 8545     		li	a1,1
  96 00b4 13050440 		addi	a0,s0,1024
  97 00b8 97000000 		call	adc_external_trigger_source_config
  97      E7800000 
  98              	.LVL13:
  32:adc.c         ****                                        ADC0_1_EXTTRIG_REGULAR_NONE);    // SW Trigger
  33:adc.c         ****     adc_external_trigger_config(ADC0, ADC_REGULAR_CHANNEL, ENABLE);     // Enable trigger
  99              		.loc 1 33 5
 100 00c0 0546     		li	a2,1
 101 00c2 8545     		li	a1,1
 102 00c4 13050440 		addi	a0,s0,1024
 103 00c8 97000000 		call	adc_external_trigger_config
 103      E7800000 
 104              	.LVL14:
  34:adc.c         **** 
  35:adc.c         ****     if (tmp) {                                                          // Add Ch16 Temp?
 105              		.loc 1 35 5
 106              		.loc 1 35 8 is_stmt 0
 107 00d0 9DCC     		beq	s1,zero,.L2
  36:adc.c         ****         adc_special_function_config(ADC0, ADC_INSERTED_CHANNEL_AUTO, ENABLE);
 108              		.loc 1 36 9 is_stmt 1
 109 00d2 0546     		li	a2,1
 110 00d4 93050040 		li	a1,1024
 111 00d8 13050440 		addi	a0,s0,1024
 112 00dc 97000000 		call	adc_special_function_config
 112      E7800000 
 113              	.LVL15:
  37:adc.c         ****         adc_channel_length_config(ADC0, ADC_INSERTED_CHANNEL, 1);
 114              		.loc 1 37 9
 115 00e4 0546     		li	a2,1
 116 00e6 8945     		li	a1,2
 117 00e8 13050440 		addi	a0,s0,1024
 118 00ec 97000000 		call	adc_channel_length_config
 118      E7800000 
GAS LISTING /var/folders/rt/4gvqv631095f64jvm7jfj_000000gn/T//ccOTUoWQ.s 			page 4


 119              	.LVL16:
  38:adc.c         ****         adc_tempsensor_vrefint_enable();
 120              		.loc 1 38 9
 121 00f4 97000000 		call	adc_tempsensor_vrefint_enable
 121      E7800000 
 122              	.LVL17:
  39:adc.c         ****         adc_inserted_channel_config(ADC0, 0, ADC_CHANNEL_16, ADC_SAMPLETIME_239POINT5);
 123              		.loc 1 39 9
 124 00fc 9D46     		li	a3,7
 125 00fe 4146     		li	a2,16
 126 0100 8145     		li	a1,0
 127 0102 13050440 		addi	a0,s0,1024
 128 0106 97000000 		call	adc_inserted_channel_config
 128      E7800000 
 129              	.LVL18:
 130              	.L2:
  40:adc.c         ****     }
  41:adc.c         **** 
  42:adc.c         ****     adc_enable(ADC0);                                                   // ...enable!...
 131              		.loc 1 42 5
 132 010e 37240140 		li	s0,1073815552
 133 0112 13050440 		addi	a0,s0,1024
 134 0116 97000000 		call	adc_enable
 134      E7800000 
 135              	.LVL19:
  43:adc.c         ****     //delay_1ms(1);
  44:adc.c         ****     for (int i=0; i<0xFFFF; i++);                                       // ...wait 1ms...
 136              		.loc 1 44 5
 137              		.loc 1 44 10
  45:adc.c         ****     adc_calibration_enable(ADC0);                                       // ...calibrate...
 138              		.loc 1 45 5
 139 011e 13050440 		addi	a0,s0,1024
 140 0122 97000000 		call	adc_calibration_enable
 140      E7800000 
 141              	.LVL20:
  46:adc.c         ****     //delay_1ms(1);                                                     // ...wait 1ms...
  47:adc.c         ****     for (int i=0; i<0xFFFF; i++);
 142              		.loc 1 47 5
 143              		.loc 1 47 10
  48:adc.c         ****     adc_software_trigger_enable(ADC0, ADC_REGULAR_CHANNEL);             // ...trigger 1:st conv!
 144              		.loc 1 48 5
 145 012a 13050440 		addi	a0,s0,1024
  49:adc.c         **** }
 146              		.loc 1 49 1 is_stmt 0
 147 012e 2244     		lw	s0,8(sp)
 148              		.cfi_restore 8
 149 0130 B240     		lw	ra,12(sp)
 150              		.cfi_restore 1
 151 0132 9244     		lw	s1,4(sp)
 152              		.cfi_restore 9
 153              	.LVL21:
  48:adc.c         ****     adc_software_trigger_enable(ADC0, ADC_REGULAR_CHANNEL);             // ...trigger 1:st conv!
 154              		.loc 1 48 5
 155 0134 8545     		li	a1,1
 156              		.loc 1 49 1
 157 0136 4101     		addi	sp,sp,16
 158              	.LCFI1:
GAS LISTING /var/folders/rt/4gvqv631095f64jvm7jfj_000000gn/T//ccOTUoWQ.s 			page 5


 159              		.cfi_def_cfa_offset 0
  48:adc.c         ****     adc_software_trigger_enable(ADC0, ADC_REGULAR_CHANNEL);             // ...trigger 1:st conv!
 160              		.loc 1 48 5
 161 0138 17030000 		tail	adc_software_trigger_enable
 161      67000300 
 162              	.LVL22:
 163              		.cfi_endproc
 164              	.LFE5:
 166              		.section	.text.MAX31865_ExchangeByte,"ax",@progbits
 167              		.align	1
 168              		.globl	MAX31865_ExchangeByte
 170              	MAX31865_ExchangeByte:
 171              	.LFB6:
  50:adc.c         **** 
  51:adc.c         **** // JOCKE TEMP-SENSOR ÖVER SPI
  52:adc.c         **** 
  53:adc.c         **** /*  MAX31865 är resistans-till-digital-konverteraren (RTD) som sitter kopplad till tempsensorn.
  54:adc.c         ****     MAX31865_ExchangeByte är grundläggande SPI-kommunikation.
  55:adc.c         ****     Funktionen väntar på att sändningsbufferten är tom (TBE) och att 
  56:adc.c         ****     mottagningsbufferten är full (RBNE) innan den returnerar svar.
  57:adc.c         ****     Sensorn lyssnar när GPIOA pin 4 sätts låg
  58:adc.c         **** */
  59:adc.c         **** 
  60:adc.c         **** uint8_t MAX31865_ExchangeByte(uint8_t data) {
 172              		.loc 1 60 45 is_stmt 1
 173              		.cfi_startproc
 174              	.LVL23:
  61:adc.c         ****     spi_i2s_data_receive(SPI1);
 175              		.loc 1 61 5
  60:adc.c         ****     spi_i2s_data_receive(SPI1);
 176              		.loc 1 60 45 is_stmt 0
 177 0000 4111     		addi	sp,sp,-16
 178              	.LCFI2:
 179              		.cfi_def_cfa_offset 16
 180 0002 26C2     		sw	s1,4(sp)
 181              		.cfi_offset 9, -12
 182 0004 AA84     		mv	s1,a0
 183              		.loc 1 61 5
 184 0006 37450040 		li	a0,1073758208
 185              	.LVL24:
  60:adc.c         ****     spi_i2s_data_receive(SPI1);
 186              		.loc 1 60 45
 187 000a 22C4     		sw	s0,8(sp)
 188              		.loc 1 61 5
 189 000c 13050580 		addi	a0,a0,-2048
 190              		.cfi_offset 8, -8
  62:adc.c         ****     while (spi_i2s_flag_get(SPI1, SPI_FLAG_TBE) == RESET);  
 191              		.loc 1 62 12
 192 0010 37440040 		li	s0,1073758208
  60:adc.c         ****     spi_i2s_data_receive(SPI1);
 193              		.loc 1 60 45
 194 0014 4AC0     		sw	s2,0(sp)
 195 0016 06C6     		sw	ra,12(sp)
 196              		.cfi_offset 18, -16
 197              		.cfi_offset 1, -4
 198              		.loc 1 62 12
 199 0018 13090480 		addi	s2,s0,-2048
GAS LISTING /var/folders/rt/4gvqv631095f64jvm7jfj_000000gn/T//ccOTUoWQ.s 			page 6


  61:adc.c         ****     spi_i2s_data_receive(SPI1);
 200              		.loc 1 61 5
 201 001c 97000000 		call	spi_i2s_data_receive
 201      E7800000 
 202              	.LVL25:
 203              		.loc 1 62 5 is_stmt 1
 204              	.L8:
 205              		.loc 1 62 58 discriminator 1
 206              		.loc 1 62 12 is_stmt 0 discriminator 1
 207 0024 8945     		li	a1,2
 208 0026 4A85     		mv	a0,s2
 209 0028 97000000 		call	spi_i2s_flag_get
 209      E7800000 
 210              	.LVL26:
 211              		.loc 1 62 11 discriminator 1
 212 0030 75D9     		beq	a0,zero,.L8
  63:adc.c         ****     spi_i2s_data_transmit(SPI1, data);                
 213              		.loc 1 63 5 is_stmt 1
 214 0032 A685     		mv	a1,s1
 215 0034 13050480 		addi	a0,s0,-2048
  64:adc.c         ****     while (spi_i2s_flag_get(SPI1, SPI_FLAG_RBNE) == RESET); 
 216              		.loc 1 64 12 is_stmt 0
 217 0038 37440040 		li	s0,1073758208
  63:adc.c         ****     spi_i2s_data_transmit(SPI1, data);                
 218              		.loc 1 63 5
 219 003c 97000000 		call	spi_i2s_data_transmit
 219      E7800000 
 220              	.LVL27:
 221              		.loc 1 64 5 is_stmt 1
 222              		.loc 1 64 12 is_stmt 0
 223 0044 93040480 		addi	s1,s0,-2048
 224              	.L9:
 225              		.loc 1 64 59 is_stmt 1 discriminator 1
 226              		.loc 1 64 12 is_stmt 0 discriminator 1
 227 0048 8545     		li	a1,1
 228 004a 2685     		mv	a0,s1
 229 004c 97000000 		call	spi_i2s_flag_get
 229      E7800000 
 230              	.LVL28:
 231              		.loc 1 64 11 discriminator 1
 232 0054 75D9     		beq	a0,zero,.L9
  65:adc.c         ****     return spi_i2s_data_receive(SPI1);
 233              		.loc 1 65 5 is_stmt 1
 234              		.loc 1 65 12 is_stmt 0
 235 0056 13050480 		addi	a0,s0,-2048
 236 005a 97000000 		call	spi_i2s_data_receive
 236      E7800000 
 237              	.LVL29:
  66:adc.c         ****   }
 238              		.loc 1 66 3
 239 0062 B240     		lw	ra,12(sp)
 240              		.cfi_restore 1
 241 0064 2244     		lw	s0,8(sp)
 242              		.cfi_restore 8
 243 0066 9244     		lw	s1,4(sp)
 244              		.cfi_restore 9
 245 0068 0249     		lw	s2,0(sp)
GAS LISTING /var/folders/rt/4gvqv631095f64jvm7jfj_000000gn/T//ccOTUoWQ.s 			page 7


 246              		.cfi_restore 18
 247 006a 1375F50F 		andi	a0,a0,0xff
 248 006e 4101     		addi	sp,sp,16
 249              	.LCFI3:
 250              		.cfi_def_cfa_offset 0
 251 0070 8280     		jr	ra
 252              		.cfi_endproc
 253              	.LFE6:
 255              		.section	.text.MAX31865_Init,"ax",@progbits
 256              		.align	1
 257              		.globl	MAX31865_Init
 259              	MAX31865_Init:
 260              	.LFB7:
  67:adc.c         **** 
  68:adc.c         **** void MAX31865_Init(void) {
 261              		.loc 1 68 26 is_stmt 1
 262              		.cfi_startproc
  69:adc.c         ****     spi_parameter_struct spi_init_struct;
 263              		.loc 1 69 5
  70:adc.c         ****     rcu_periph_clock_enable(RCU_GPIOA);
 264              		.loc 1 70 5
  68:adc.c         ****     spi_parameter_struct spi_init_struct;
 265              		.loc 1 68 26 is_stmt 0
 266 0000 7971     		addi	sp,sp,-48
 267              	.LCFI4:
 268              		.cfi_def_cfa_offset 48
 269              		.loc 1 70 5
 270 0002 13052060 		li	a0,1538
  68:adc.c         ****     spi_parameter_struct spi_init_struct;
 271              		.loc 1 68 26
 272 0006 06D6     		sw	ra,44(sp)
 273 0008 22D4     		sw	s0,40(sp)
 274 000a 26D2     		sw	s1,36(sp)
 275              		.cfi_offset 1, -4
 276              		.cfi_offset 8, -8
 277              		.cfi_offset 9, -12
 278              		.loc 1 70 5
 279 000c 97000000 		call	rcu_periph_clock_enable
 279      E7800000 
 280              	.LVL30:
  71:adc.c         ****     rcu_periph_clock_enable(RCU_SPI1);
 281              		.loc 1 71 5 is_stmt 1
 282 0014 1305E070 		li	a0,1806
 283 0018 97000000 		call	rcu_periph_clock_enable
 283      E7800000 
 284              	.LVL31:
  72:adc.c         ****     rcu_periph_clock_enable(RCU_GPIOB); 
 285              		.loc 1 72 5
 286 0020 13053060 		li	a0,1539
 287 0024 97000000 		call	rcu_periph_clock_enable
 287      E7800000 
 288              	.LVL32:
  73:adc.c         ****     gpio_init(GPIOA, GPIO_MODE_OUT_PP, GPIO_OSPEED_50MHZ, GPIO_PIN_4); // CS
 289              		.loc 1 73 5
 290 002c B7140140 		li	s1,1073811456
 291 0030 13850480 		addi	a0,s1,-2048
 292 0034 C146     		li	a3,16
GAS LISTING /var/folders/rt/4gvqv631095f64jvm7jfj_000000gn/T//ccOTUoWQ.s 			page 8


 293 0036 0D46     		li	a2,3
 294 0038 C145     		li	a1,16
 295 003a 97000000 		call	gpio_init
 295      E7800000 
 296              	.LVL33:
  74:adc.c         ****     gpio_init(GPIOB, GPIO_MODE_AF_PP, GPIO_OSPEED_50MHZ, GPIO_PIN_13 | GPIO_PIN_15); // SCK (Serial
 297              		.loc 1 74 5
 298 0042 138504C0 		addi	a0,s1,-1024
 299 0046 A966     		li	a3,40960
 300 0048 0D46     		li	a2,3
 301 004a E145     		li	a1,24
 302 004c 97000000 		call	gpio_init
 302      E7800000 
 303              	.LVL34:
  75:adc.c         ****     gpio_init(GPIOB, GPIO_MODE_IN_FLOATING, GPIO_OSPEED_50MHZ, GPIO_PIN_14); // MISO (Master In, Sl
 304              		.loc 1 75 5
 305 0054 9166     		li	a3,16384
 306 0056 0D46     		li	a2,3
 307 0058 138504C0 		addi	a0,s1,-1024
 308 005c 9145     		li	a1,4
 309 005e 97000000 		call	gpio_init
 309      E7800000 
 310              	.LVL35:
  76:adc.c         ****     
  77:adc.c         ****     MAX_CS_Set(); // Sätter CS hög så sensorn är inaktiv under uppstart
 311              		.loc 1 77 5
 312 0066 C145     		li	a1,16
 313 0068 13850480 		addi	a0,s1,-2048
 314 006c 97000000 		call	gpio_bit_set
 314      E7800000 
 315              	.LVL36:
  78:adc.c         **** 
  79:adc.c         ****    //  SPI-parametrar: Master, 8-bit, Mode 3 (CPOL=1, CPHA=1), Hastighet: dividerat med 32
  80:adc.c         ****    spi_struct_para_init(&spi_init_struct);
 316              		.loc 1 80 4
 317 0074 4800     		addi	a0,sp,4
 318 0076 97000000 		call	spi_struct_para_init
 318      E7800000 
 319              	.LVL37:
  81:adc.c         ****     spi_init_struct.trans_mode           = SPI_TRANSMODE_FULLDUPLEX;
 320              		.loc 1 81 5
  82:adc.c         ****     spi_init_struct.device_mode          = SPI_MASTER;
 321              		.loc 1 82 42 is_stmt 0
 322 007e 93074010 		li	a5,260
 323 0082 3EC2     		sw	a5,4(sp)
  83:adc.c         ****     spi_init_struct.frame_size           = SPI_FRAMESIZE_8BIT;
  84:adc.c         ****     spi_init_struct.clock_polarity_phase = SPI_CK_PL_HIGH_PH_2EDGE; // Mode 3 
 324              		.loc 1 84 42
 325 0084 8D47     		li	a5,3
  85:adc.c         ****     spi_init_struct.nss                  = SPI_NSS_SOFT;
  86:adc.c         ****     spi_init_struct.prescale             = SPI_PSC_32; 
  87:adc.c         ****     spi_init_struct.endian               = SPI_ENDIAN_MSB; 
  88:adc.c         ****     spi_init(SPI1, &spi_init_struct);
 326              		.loc 1 88 5
 327 0086 37440040 		li	s0,1073758208
  84:adc.c         ****     spi_init_struct.nss                  = SPI_NSS_SOFT;
 328              		.loc 1 84 42
GAS LISTING /var/folders/rt/4gvqv631095f64jvm7jfj_000000gn/T//ccOTUoWQ.s 			page 9


 329 008a 3ECC     		sw	a5,24(sp)
  85:adc.c         ****     spi_init_struct.nss                  = SPI_NSS_SOFT;
 330              		.loc 1 85 42
 331 008c 93070020 		li	a5,512
 332              		.loc 1 88 5
 333 0090 4C00     		addi	a1,sp,4
  85:adc.c         ****     spi_init_struct.nss                  = SPI_NSS_SOFT;
 334              		.loc 1 85 42
 335 0092 3EC8     		sw	a5,16(sp)
 336              		.loc 1 88 5
 337 0094 13050480 		addi	a0,s0,-2048
  86:adc.c         ****     spi_init_struct.endian               = SPI_ENDIAN_MSB; 
 338              		.loc 1 86 42
 339 0098 93070002 		li	a5,32
 340 009c 3ECE     		sw	a5,28(sp)
  81:adc.c         ****     spi_init_struct.device_mode          = SPI_MASTER;
 341              		.loc 1 81 42
 342 009e 02C4     		sw	zero,8(sp)
  82:adc.c         ****     spi_init_struct.frame_size           = SPI_FRAMESIZE_8BIT;
 343              		.loc 1 82 5 is_stmt 1
  83:adc.c         ****     spi_init_struct.clock_polarity_phase = SPI_CK_PL_HIGH_PH_2EDGE; // Mode 3 
 344              		.loc 1 83 5
  83:adc.c         ****     spi_init_struct.clock_polarity_phase = SPI_CK_PL_HIGH_PH_2EDGE; // Mode 3 
 345              		.loc 1 83 42 is_stmt 0
 346 00a0 02C6     		sw	zero,12(sp)
  84:adc.c         ****     spi_init_struct.nss                  = SPI_NSS_SOFT;
 347              		.loc 1 84 5 is_stmt 1
  85:adc.c         ****     spi_init_struct.prescale             = SPI_PSC_32; 
 348              		.loc 1 85 5
  86:adc.c         ****     spi_init_struct.endian               = SPI_ENDIAN_MSB; 
 349              		.loc 1 86 5
  87:adc.c         ****     spi_init(SPI1, &spi_init_struct);
 350              		.loc 1 87 5
  87:adc.c         ****     spi_init(SPI1, &spi_init_struct);
 351              		.loc 1 87 42 is_stmt 0
 352 00a2 02CA     		sw	zero,20(sp)
 353              		.loc 1 88 5 is_stmt 1
 354 00a4 97000000 		call	spi_init
 354      E7800000 
 355              	.LVL38:
  89:adc.c         **** 
  90:adc.c         ****     spi_enable(SPI1); // Startar SPI0-modulen
 356              		.loc 1 90 5
 357 00ac 13050480 		addi	a0,s0,-2048
 358 00b0 97000000 		call	spi_enable
 358      E7800000 
 359              	.LVL39:
  91:adc.c         ****     FCLK_SLOW();
 360              		.loc 1 91 5
 361 00b8 83270480 		lw	a5,-2048(s0)
  92:adc.c         ****     MAX_CS_Clr();
 362              		.loc 1 92 5 is_stmt 0
 363 00bc C145     		li	a1,16
 364 00be 13850480 		addi	a0,s1,-2048
  91:adc.c         ****     FCLK_SLOW();
 365              		.loc 1 91 5
 366 00c2 93F777FC 		andi	a5,a5,-57
GAS LISTING /var/folders/rt/4gvqv631095f64jvm7jfj_000000gn/T//ccOTUoWQ.s 			page 10


 367 00c6 93E70702 		ori	a5,a5,32
 368 00ca 2320F480 		sw	a5,-2048(s0)
  91:adc.c         ****     FCLK_SLOW();
 369              		.loc 1 91 16 is_stmt 1
 370              		.loc 1 92 5
 371 00ce 97000000 		call	gpio_bit_reset
 371      E7800000 
 372              	.LVL40:
  93:adc.c         ****     MAX31865_ExchangeByte(0x80); // Konfar sensorns register 0x00, skrivadress 0x80
 373              		.loc 1 93 5
 374 00d6 13050008 		li	a0,128
 375 00da 97000000 		call	MAX31865_ExchangeByte
 375      E7800000 
 376              	.LVL41:
  94:adc.c         ****     MAX31865_ExchangeByte(0xD1); // 0xD1 aktiverar VBIAS (ström till sensorn), autoomvandling, 3-t
 377              		.loc 1 94 5
 378 00e2 1305100D 		li	a0,209
 379 00e6 97000000 		call	MAX31865_ExchangeByte
 379      E7800000 
 380              	.LVL42:
  95:adc.c         ****     MAX_CS_Set();
 381              		.loc 1 95 5
 382 00ee 13850480 		addi	a0,s1,-2048
 383 00f2 C145     		li	a1,16
 384 00f4 97000000 		call	gpio_bit_set
 384      E7800000 
 385              	.LVL43:
  96:adc.c         ****     FCLK_FAST(); 
 386              		.loc 1 96 5
 387 00fc 83270480 		lw	a5,-2048(s0)
  97:adc.c         **** }
 388              		.loc 1 97 1 is_stmt 0
 389 0100 B250     		lw	ra,44(sp)
 390              		.cfi_restore 1
 391 0102 9254     		lw	s1,36(sp)
 392              		.cfi_restore 9
  96:adc.c         ****     FCLK_FAST(); 
 393              		.loc 1 96 5
 394 0104 93F777FC 		andi	a5,a5,-57
 395 0108 93E78700 		ori	a5,a5,8
 396 010c 2320F480 		sw	a5,-2048(s0)
  96:adc.c         ****     FCLK_FAST(); 
 397              		.loc 1 96 16 is_stmt 1
 398              		.loc 1 97 1 is_stmt 0
 399 0110 2254     		lw	s0,40(sp)
 400              		.cfi_restore 8
 401 0112 4561     		addi	sp,sp,48
 402              	.LCFI5:
 403              		.cfi_def_cfa_offset 0
 404 0114 8280     		jr	ra
 405              		.cfi_endproc
 406              	.LFE7:
 408              		.section	.text.MAX31865_ReadADC,"ax",@progbits
 409              		.align	1
 410              		.globl	MAX31865_ReadADC
 412              	MAX31865_ReadADC:
 413              	.LFB8:
GAS LISTING /var/folders/rt/4gvqv631095f64jvm7jfj_000000gn/T//ccOTUoWQ.s 			page 11


  98:adc.c         **** 
  99:adc.c         **** // Läser in resistansvärdet från sensorn. 
 100:adc.c         **** // Läser RTD MSB (0x01) LSB (0x02) och slår ihop dem till ett 15-bitars värde.
 101:adc.c         **** uint16_t MAX31865_ReadADC(void) {
 414              		.loc 1 101 33 is_stmt 1
 415              		.cfi_startproc
 102:adc.c         ****     uint8_t msb, lsb;
 416              		.loc 1 102 5
 103:adc.c         ****     FCLK_SLOW();
 417              		.loc 1 103 5
 101:adc.c         ****     uint8_t msb, lsb;
 418              		.loc 1 101 33 is_stmt 0
 419 0000 0111     		addi	sp,sp,-32
 420              	.LCFI6:
 421              		.cfi_def_cfa_offset 32
 422 0002 26CA     		sw	s1,20(sp)
 423              		.cfi_offset 9, -12
 424              		.loc 1 103 5
 425 0004 B7440040 		li	s1,1073758208
 426 0008 83A70480 		lw	a5,-2048(s1)
 101:adc.c         ****     uint8_t msb, lsb;
 427              		.loc 1 101 33
 428 000c 06CE     		sw	ra,28(sp)
 429 000e 22CC     		sw	s0,24(sp)
 430              		.loc 1 103 5
 431 0010 93F777FC 		andi	a5,a5,-57
 101:adc.c         ****     uint8_t msb, lsb;
 432              		.loc 1 101 33
 433 0014 4AC8     		sw	s2,16(sp)
 434 0016 4EC6     		sw	s3,12(sp)
 435              		.cfi_offset 1, -4
 436              		.cfi_offset 8, -8
 437              		.cfi_offset 18, -16
 438              		.cfi_offset 19, -20
 439              		.loc 1 103 5
 440 0018 93E70702 		ori	a5,a5,32
 104:adc.c         ****     MAX_CS_Clr();
 441              		.loc 1 104 5
 442 001c 37190140 		li	s2,1073811456
 103:adc.c         ****     FCLK_SLOW();
 443              		.loc 1 103 5
 444 0020 23A0F480 		sw	a5,-2048(s1)
 103:adc.c         ****     FCLK_SLOW();
 445              		.loc 1 103 16 is_stmt 1
 446              		.loc 1 104 5
 447 0024 C145     		li	a1,16
 448 0026 13050980 		addi	a0,s2,-2048
 449 002a 97000000 		call	gpio_bit_reset
 449      E7800000 
 450              	.LVL44:
 105:adc.c         ****     MAX31865_ExchangeByte(0x01);        // Frågar efter register 0x01
 451              		.loc 1 105 5
 452 0032 0545     		li	a0,1
 453 0034 97000000 		call	MAX31865_ExchangeByte
 453      E7800000 
 454              	.LVL45:
 106:adc.c         ****     msb = MAX31865_ExchangeByte(0xFF);  // Klockar in MSB (skickar skräp-data ut)
GAS LISTING /var/folders/rt/4gvqv631095f64jvm7jfj_000000gn/T//ccOTUoWQ.s 			page 12


 455              		.loc 1 106 5
 456              		.loc 1 106 11 is_stmt 0
 457 003c 1305F00F 		li	a0,255
 458 0040 97000000 		call	MAX31865_ExchangeByte
 458      E7800000 
 459              	.LVL46:
 460 0048 2A84     		mv	s0,a0
 461              	.LVL47:
 107:adc.c         ****     lsb = MAX31865_ExchangeByte(0xFF);  // Klockar in LSB
 462              		.loc 1 107 5 is_stmt 1
 463              		.loc 1 107 11 is_stmt 0
 464 004a 1305F00F 		li	a0,255
 465 004e 97000000 		call	MAX31865_ExchangeByte
 465      E7800000 
 466              	.LVL48:
 467 0056 AA89     		mv	s3,a0
 468              	.LVL49:
 108:adc.c         ****     lcd_delay_1ms(1);
 469              		.loc 1 108 5 is_stmt 1
 470 0058 0545     		li	a0,1
 471 005a 97000000 		call	lcd_delay_1ms
 471      E7800000 
 472              	.LVL50:
 109:adc.c         ****     MAX_CS_Set();
 473              		.loc 1 109 5
 474 0062 13050980 		addi	a0,s2,-2048
 475 0066 C145     		li	a1,16
 476 0068 97000000 		call	gpio_bit_set
 476      E7800000 
 477              	.LVL51:
 110:adc.c         ****     FCLK_FAST();
 478              		.loc 1 110 5
 479 0070 83A70480 		lw	a5,-2048(s1)
 111:adc.c         **** 
 112:adc.c         ****     // Kombinera byten och ta bort sista biten (fel-flaggan D0)
 113:adc.c         ****     uint16_t adc_code = (msb << 8) | lsb;
 480              		.loc 1 113 30 is_stmt 0
 481 0074 13158400 		slli	a0,s0,8
 482              		.loc 1 113 36
 483 0078 33653501 		or	a0,a0,s3
 114:adc.c         ****     return adc_code >> 1; 
 115:adc.c         **** }
 484              		.loc 1 115 1
 485 007c F240     		lw	ra,28(sp)
 486              		.cfi_restore 1
 487 007e 6244     		lw	s0,24(sp)
 488              		.cfi_restore 8
 489              	.LVL52:
 110:adc.c         **** 
 490              		.loc 1 110 5
 491 0080 93F777FC 		andi	a5,a5,-57
 492 0084 93E78700 		ori	a5,a5,8
 114:adc.c         ****     return adc_code >> 1; 
 493              		.loc 1 114 21
 494 0088 4205     		slli	a0,a0,16
 110:adc.c         **** 
 495              		.loc 1 110 5
GAS LISTING /var/folders/rt/4gvqv631095f64jvm7jfj_000000gn/T//ccOTUoWQ.s 			page 13


 496 008a 23A0F480 		sw	a5,-2048(s1)
 110:adc.c         **** 
 497              		.loc 1 110 16 is_stmt 1
 113:adc.c         ****     return adc_code >> 1; 
 498              		.loc 1 113 5
 499              	.LVL53:
 114:adc.c         ****     return adc_code >> 1; 
 500              		.loc 1 114 5
 114:adc.c         ****     return adc_code >> 1; 
 501              		.loc 1 114 21 is_stmt 0
 502 008e 4181     		srli	a0,a0,16
 503              		.loc 1 115 1
 504 0090 D244     		lw	s1,20(sp)
 505              		.cfi_restore 9
 506 0092 4249     		lw	s2,16(sp)
 507              		.cfi_restore 18
 508 0094 B249     		lw	s3,12(sp)
 509              		.cfi_restore 19
 510              	.LVL54:
 511 0096 0581     		srli	a0,a0,1
 512 0098 0561     		addi	sp,sp,32
 513              	.LCFI7:
 514              		.cfi_def_cfa_offset 0
 515 009a 8280     		jr	ra
 516              		.cfi_endproc
 517              	.LFE8:
 519              		.globl	__floatunsisf
 520              		.globl	__mulsf3
 521              		.globl	__extendsfdf2
 522              		.globl	__subdf3
 523              		.globl	__divdf3
 524              		.globl	__truncdfsf2
 525              		.globl	__addsf3
 526              		.globl	__divsf3
 527              		.section	.text.read_temp,"ax",@progbits
 528              		.align	1
 529              		.globl	read_temp
 531              	read_temp:
 532              	.LFB9:
 116:adc.c         **** 
 117:adc.c         **** // Läser temp på tempesensorn och returnerar ett värde
 118:adc.c         **** float read_temp(void) {
 533              		.loc 1 118 23 is_stmt 1
 534              		.cfi_startproc
 119:adc.c         ****     int sample_count = 0;
 535              		.loc 1 119 5
 536              	.LVL55:
 120:adc.c         ****     float temp_sum = 0;
 537              		.loc 1 120 5
 121:adc.c         ****     const float R_ref = 430.0; // Referensmotståndet på MAX31865-modulen
 538              		.loc 1 121 5
 122:adc.c         ****     
 123:adc.c         ****                   
 124:adc.c         ****     // Samplar 5 ggr per sekund
 125:adc.c         ****    while (sample_count < 5) {
 539              		.loc 1 125 4
 118:adc.c         ****     int sample_count = 0;
GAS LISTING /var/folders/rt/4gvqv631095f64jvm7jfj_000000gn/T//ccOTUoWQ.s 			page 14


 540              		.loc 1 118 23 is_stmt 0
 541 0000 7971     		addi	sp,sp,-48
 542              	.LCFI8:
 543              		.cfi_def_cfa_offset 48
 544              	.LBB2:
 126:adc.c         ****         uint16_t adc_val = MAX31865_ReadADC(); //
 127:adc.c         ****         // Omvandlar ADC-värde till resistans och sedan till Celsius
 128:adc.c         ****         float R_rtd = (float)adc_val * R_ref / 32768.0; // R_rtd är resistansen i RTD-sensorn
 545              		.loc 1 128 38
 546 0002 B7070000 		lui	a5,%hi(.LC0)
 547              	.LBE2:
 118:adc.c         ****     int sample_count = 0;
 548              		.loc 1 118 23
 549 0006 4ECE     		sw	s3,28(sp)
 550              		.cfi_offset 19, -20
 551              	.LBB5:
 552              		.loc 1 128 38
 553 0008 83A90700 		lw	s3,%lo(.LC0)(a5)
 554              		.loc 1 128 15
 555 000c B7070000 		lui	a5,%hi(.LC1)
 556              	.LBE5:
 118:adc.c         ****     int sample_count = 0;
 557              		.loc 1 118 23
 558 0010 62C4     		sw	s8,8(sp)
 559              		.cfi_offset 24, -40
 560              	.LBB6:
 561              		.loc 1 128 15
 562 0012 03AC0700 		lw	s8,%lo(.LC1)(a5)
 129:adc.c         ****         float current_temp = (R_rtd - 100.0) / 0.3851;
 563              		.loc 1 129 37
 564 0016 B7070000 		lui	a5,%hi(.LC2)
 565              	.LBE6:
 118:adc.c         ****     int sample_count = 0;
 566              		.loc 1 118 23
 567 001a 52CC     		sw	s4,24(sp)
 568 001c 56CA     		sw	s5,20(sp)
 569              		.cfi_offset 20, -24
 570              		.cfi_offset 21, -28
 571              	.LBB7:
 572              		.loc 1 129 37
 573 001e 03AA0700 		lw	s4,%lo(.LC2)(a5)
 574 0022 83AA4700 		lw	s5,%lo(.LC2+4)(a5)
 575              		.loc 1 129 46
 576 0026 B7070000 		lui	a5,%hi(.LC3)
 577              	.LBE7:
 118:adc.c         ****     int sample_count = 0;
 578              		.loc 1 118 23
 579 002a 5AC8     		sw	s6,16(sp)
 580 002c 5EC6     		sw	s7,12(sp)
 581              		.cfi_offset 22, -32
 582              		.cfi_offset 23, -36
 583              	.LBB8:
 584              		.loc 1 129 46
 585 002e 03AB0700 		lw	s6,%lo(.LC3)(a5)
 586 0032 83AB4700 		lw	s7,%lo(.LC3+4)(a5)
 587              	.LBE8:
 118:adc.c         ****     int sample_count = 0;
GAS LISTING /var/folders/rt/4gvqv631095f64jvm7jfj_000000gn/T//ccOTUoWQ.s 			page 15


 588              		.loc 1 118 23
 589 0036 22D4     		sw	s0,40(sp)
 590 0038 26D2     		sw	s1,36(sp)
 591 003a 06D6     		sw	ra,44(sp)
 592 003c 4AD0     		sw	s2,32(sp)
 593              		.cfi_offset 8, -8
 594              		.cfi_offset 9, -12
 595              		.cfi_offset 1, -4
 596              		.cfi_offset 18, -16
 118:adc.c         ****     int sample_count = 0;
 597              		.loc 1 118 23
 598 003e 9544     		li	s1,5
 120:adc.c         ****     const float R_ref = 430.0; // Referensmotståndet på MAX31865-modulen
 599              		.loc 1 120 11
 600 0040 13040000 		mv	s0,zero
 601              	.LVL56:
 602              	.L21:
 603              	.LBB9:
 126:adc.c         ****         uint16_t adc_val = MAX31865_ReadADC(); //
 604              		.loc 1 126 9 is_stmt 1
 126:adc.c         ****         uint16_t adc_val = MAX31865_ReadADC(); //
 605              		.loc 1 126 28 is_stmt 0
 606 0044 97000000 		call	MAX31865_ReadADC
 606      E7800000 
 607              	.LVL57:
 128:adc.c         ****         float current_temp = (R_rtd - 100.0) / 0.3851;
 608              		.loc 1 128 9 is_stmt 1
 609              		.loc 1 129 9
 130:adc.c         ****         
 131:adc.c         ****         temp_sum += current_temp;
 610              		.loc 1 131 9
 128:adc.c         ****         float current_temp = (R_rtd - 100.0) / 0.3851;
 611              		.loc 1 128 23 is_stmt 0
 612 004c 97000000 		call	__floatunsisf
 612      E7800000 
 613              	.LVL58:
 128:adc.c         ****         float current_temp = (R_rtd - 100.0) / 0.3851;
 614              		.loc 1 128 38
 615 0054 CE85     		mv	a1,s3
 616 0056 97000000 		call	__mulsf3
 616      E7800000 
 617              	.LVL59:
 128:adc.c         ****         float current_temp = (R_rtd - 100.0) / 0.3851;
 618              		.loc 1 128 15
 619 005e E285     		mv	a1,s8
 620 0060 97000000 		call	__mulsf3
 620      E7800000 
 621              	.LVL60:
 129:adc.c         ****         
 622              		.loc 1 129 37
 623 0068 97000000 		call	__extendsfdf2
 623      E7800000 
 624              	.LVL61:
 625 0070 5286     		mv	a2,s4
 626 0072 D686     		mv	a3,s5
 627 0074 97000000 		call	__subdf3
 627      E7800000 
GAS LISTING /var/folders/rt/4gvqv631095f64jvm7jfj_000000gn/T//ccOTUoWQ.s 			page 16


 628              	.LVL62:
 129:adc.c         ****         
 629              		.loc 1 129 46
 630 007c 5A86     		mv	a2,s6
 631 007e DE86     		mv	a3,s7
 632 0080 97000000 		call	__divdf3
 632      E7800000 
 633              	.LVL63:
 129:adc.c         ****         
 634              		.loc 1 129 15
 635 0088 97000000 		call	__truncdfsf2
 635      E7800000 
 636              	.LVL64:
 637              		.loc 1 131 18
 638 0090 AA85     		mv	a1,a0
 639 0092 2285     		mv	a0,s0
 640 0094 97000000 		call	__addsf3
 640      E7800000 
 641              	.LVL65:
 642 009c 2A84     		mv	s0,a0
 643              	.LVL66:
 132:adc.c         ****     
 133:adc.c         ****         //lcd_delay_1ms(25);
 134:adc.c         ****         for (int i = 0; i < 25; i++) {
 644              		.loc 1 134 9 is_stmt 1
 645              	.LBB3:
 646              		.loc 1 134 14
 647              	.LBE3:
 131:adc.c         ****     
 648              		.loc 1 131 18 is_stmt 0
 649 009e 6549     		li	s2,25
 650              	.LVL67:
 651              	.L20:
 652              	.LBB4:
 135:adc.c         ****     lcd_delay_1ms(1);
 653              		.loc 1 135 5 is_stmt 1 discriminator 3
 654 00a0 0545     		li	a0,1
 655 00a2 7D19     		addi	s2,s2,-1
 656              	.LVL68:
 657 00a4 97000000 		call	lcd_delay_1ms
 657      E7800000 
 658              	.LVL69:
 136:adc.c         ****     LCD_WR_Queue();   // keep LCD alive
 659              		.loc 1 136 5 discriminator 3
 660 00ac 97000000 		call	LCD_WR_Queue
 660      E7800000 
 661              	.LVL70:
 134:adc.c         ****     lcd_delay_1ms(1);
 662              		.loc 1 134 9 is_stmt 0 discriminator 3
 663 00b4 E31609FE 		bne	s2,zero,.L20
 664              	.LBE4:
 137:adc.c         **** }
 138:adc.c         ****         sample_count++;
 665              		.loc 1 138 9 is_stmt 1
 666              	.LVL71:
 667 00b8 FD14     		addi	s1,s1,-1
 668              	.LVL72:
GAS LISTING /var/folders/rt/4gvqv631095f64jvm7jfj_000000gn/T//ccOTUoWQ.s 			page 17


 669              	.LBE9:
 125:adc.c         ****         uint16_t adc_val = MAX31865_ReadADC(); //
 670              		.loc 1 125 10 is_stmt 0
 671 00ba C9F4     		bne	s1,zero,.L21
 139:adc.c         ****     }
 140:adc.c         ****     return (temp_sum / 5.0f);
 672              		.loc 1 140 5 is_stmt 1
 673              		.loc 1 140 22 is_stmt 0
 674 00bc B7070000 		lui	a5,%hi(.LC4)
 675 00c0 83A50700 		lw	a1,%lo(.LC4)(a5)
 676 00c4 2285     		mv	a0,s0
 677 00c6 97000000 		call	__divsf3
 677      E7800000 
 678              	.LVL73:
 141:adc.c         **** }
 679              		.loc 1 141 1
 680 00ce B250     		lw	ra,44(sp)
 681              		.cfi_restore 1
 682 00d0 2254     		lw	s0,40(sp)
 683              		.cfi_restore 8
 684              	.LVL74:
 685 00d2 9254     		lw	s1,36(sp)
 686              		.cfi_restore 9
 687              	.LVL75:
 688 00d4 0259     		lw	s2,32(sp)
 689              		.cfi_restore 18
 690 00d6 F249     		lw	s3,28(sp)
 691              		.cfi_restore 19
 692 00d8 624A     		lw	s4,24(sp)
 693              		.cfi_restore 20
 694 00da D24A     		lw	s5,20(sp)
 695              		.cfi_restore 21
 696 00dc 424B     		lw	s6,16(sp)
 697              		.cfi_restore 22
 698 00de B24B     		lw	s7,12(sp)
 699              		.cfi_restore 23
 700 00e0 224C     		lw	s8,8(sp)
 701              		.cfi_restore 24
 702 00e2 4561     		addi	sp,sp,48
 703              	.LCFI9:
 704              		.cfi_def_cfa_offset 0
 705 00e4 8280     		jr	ra
 706              		.cfi_endproc
 707              	.LFE9:
 709              		.section	.text.ADC_read,"ax",@progbits
 710              		.align	1
 711              		.globl	ADC_read
 713              	ADC_read:
 714              	.LFB10:
 142:adc.c         **** 
 143:adc.c         **** int ADC_read(int channel) {
 715              		.loc 1 143 27 is_stmt 1
 716              		.cfi_startproc
 717              	.LVL76:
 144:adc.c         ****     if(channel == 1)
 718              		.loc 1 144 5
 143:adc.c         ****     if(channel == 1)
GAS LISTING /var/folders/rt/4gvqv631095f64jvm7jfj_000000gn/T//ccOTUoWQ.s 			page 18


 719              		.loc 1 143 27 is_stmt 0
 720 0000 4111     		addi	sp,sp,-16
 721              	.LCFI10:
 722              		.cfi_def_cfa_offset 16
 723 0002 22C4     		sw	s0,8(sp)
 724 0004 06C6     		sw	ra,12(sp)
 725 0006 26C2     		sw	s1,4(sp)
 726 0008 4AC0     		sw	s2,0(sp)
 727              		.cfi_offset 8, -8
 728              		.cfi_offset 1, -4
 729              		.cfi_offset 9, -12
 730              		.cfi_offset 18, -16
 731              		.loc 1 144 7
 732 000a 8547     		li	a5,1
 143:adc.c         ****     if(channel == 1)
 733              		.loc 1 143 27
 734 000c 2A84     		mv	s0,a0
 735              		.loc 1 144 7
 736 000e 6315F506 		bne	a0,a5,.L26
 145:adc.c         ****     adc_regular_channel_config(ADC0, 0, ADC_CHANNEL_1, ADC_SAMPLETIME_13POINT5);  
 737              		.loc 1 145 5 is_stmt 1
 738 0012 8946     		li	a3,2
 739 0014 0546     		li	a2,1
 740              	.L35:
 146:adc.c         ****     if(channel == 3)
 147:adc.c         ****     adc_regular_channel_config(ADC0, 0, ADC_CHANNEL_3, ADC_SAMPLETIME_13POINT5);
 741              		.loc 1 147 5 is_stmt 0
 742 0016 37250140 		li	a0,1073815552
 743              	.LVL77:
 744 001a 8145     		li	a1,0
 745 001c 13050540 		addi	a0,a0,1024
 746 0020 97000000 		call	adc_regular_channel_config
 746      E7800000 
 747              	.LVL78:
 748              	.L27:
 148:adc.c         **** 
 149:adc.c         ****     adc_software_trigger_enable(ADC0, ADC_REGULAR_CHANNEL);
 749              		.loc 1 149 5 is_stmt 1
 750 0028 37250140 		li	a0,1073815552
 751 002c 8545     		li	a1,1
 752 002e 13050540 		addi	a0,a0,1024
 150:adc.c         **** 
 151:adc.c         ****     while(!adc_flag_get(ADC0, ADC_FLAG_EOC));
 753              		.loc 1 151 12 is_stmt 0
 754 0032 B7240140 		li	s1,1073815552
 149:adc.c         **** 
 755              		.loc 1 149 5
 756 0036 97000000 		call	adc_software_trigger_enable
 756      E7800000 
 757              	.LVL79:
 758              		.loc 1 151 5 is_stmt 1
 759              		.loc 1 151 12 is_stmt 0
 760 003e 13890440 		addi	s2,s1,1024
 761              	.L28:
 762              		.loc 1 151 45 is_stmt 1 discriminator 1
 763              		.loc 1 151 12 is_stmt 0 discriminator 1
 764 0042 8945     		li	a1,2
GAS LISTING /var/folders/rt/4gvqv631095f64jvm7jfj_000000gn/T//ccOTUoWQ.s 			page 19


 765 0044 4A85     		mv	a0,s2
 766 0046 97000000 		call	adc_flag_get
 766      E7800000 
 767              	.LVL80:
 768              		.loc 1 151 10 discriminator 1
 769 004e 75D9     		beq	a0,zero,.L28
 152:adc.c         **** 
 153:adc.c         ****     int sensorValue = (int) adc_regular_data_read(ADC0);
 770              		.loc 1 153 5 is_stmt 1
 771              		.loc 1 153 29 is_stmt 0
 772 0050 13850440 		addi	a0,s1,1024
 773 0054 97000000 		call	adc_regular_data_read
 773      E7800000 
 774              	.LVL81:
 154:adc.c         ****     
 155:adc.c         ****     if (channel == 1) {
 775              		.loc 1 155 8
 776 005c 0547     		li	a4,1
 153:adc.c         ****     
 777              		.loc 1 153 9
 778 005e AA87     		mv	a5,a0
 779              	.LVL82:
 780              		.loc 1 155 5 is_stmt 1
 781              		.loc 1 155 8 is_stmt 0
 782 0060 6312E402 		bne	s0,a4,.L29
 156:adc.c         ****         //KALIBRERA SOLVÄRDE. PITCH BLACK = 0. FULL SOL = 4000
 157:adc.c         ****         //sensorValue = 3800 - sensorValue;
 158:adc.c         ****         if (sensorValue < 0) sensorValue = 0;
 783              		.loc 1 158 9 is_stmt 1
 159:adc.c         ****         sensorValue /= 40;
 784              		.loc 1 159 9
 785              		.loc 1 159 21 is_stmt 0
 786 0064 93078002 		li	a5,40
 787              	.L36:
 160:adc.c         ****     } else if (channel == 3) {
 161:adc.c         ****         //KALIBRERA FUKTVÄRDE. WET = 1600. DRY = 2500
 162:adc.c         ****         sensorValue = 2500 - sensorValue;
 163:adc.c         ****         if (sensorValue < 0) sensorValue = 0;
 164:adc.c         ****         sensorValue /= 9;
 788              		.loc 1 164 21
 789 0068 3345F502 		div	a0,a0,a5
 790              	.LVL83:
 165:adc.c         ****     }
 166:adc.c         ****     return sensorValue;
 791              		.loc 1 166 5 is_stmt 1
 792              	.L25:
 167:adc.c         **** }
 793              		.loc 1 167 1 is_stmt 0
 794 006c B240     		lw	ra,12(sp)
 795              		.cfi_remember_state
 796              		.cfi_restore 1
 797 006e 2244     		lw	s0,8(sp)
 798              		.cfi_restore 8
 799              	.LVL84:
 800 0070 9244     		lw	s1,4(sp)
 801              		.cfi_restore 9
 802 0072 0249     		lw	s2,0(sp)
GAS LISTING /var/folders/rt/4gvqv631095f64jvm7jfj_000000gn/T//ccOTUoWQ.s 			page 20


 803              		.cfi_restore 18
 804 0074 4101     		addi	sp,sp,16
 805              	.LCFI11:
 806              		.cfi_def_cfa_offset 0
 807 0076 8280     		jr	ra
 808              	.LVL85:
 809              	.L26:
 810              	.LCFI12:
 811              		.cfi_restore_state
 146:adc.c         ****     adc_regular_channel_config(ADC0, 0, ADC_CHANNEL_3, ADC_SAMPLETIME_13POINT5);
 812              		.loc 1 146 5 is_stmt 1
 146:adc.c         ****     adc_regular_channel_config(ADC0, 0, ADC_CHANNEL_3, ADC_SAMPLETIME_13POINT5);
 813              		.loc 1 146 7 is_stmt 0
 814 0078 8D47     		li	a5,3
 815 007a E317F5FA 		bne	a0,a5,.L27
 147:adc.c         **** 
 816              		.loc 1 147 5 is_stmt 1
 817 007e 8946     		li	a3,2
 818 0080 0D46     		li	a2,3
 819 0082 51BF     		j	.L35
 820              	.LVL86:
 821              	.L29:
 160:adc.c         ****         //KALIBRERA FUKTVÄRDE. WET = 1600. DRY = 2500
 822              		.loc 1 160 12
 160:adc.c         ****         //KALIBRERA FUKTVÄRDE. WET = 1600. DRY = 2500
 823              		.loc 1 160 15 is_stmt 0
 824 0084 0D47     		li	a4,3
 825 0086 E313E4FE 		bne	s0,a4,.L25
 162:adc.c         ****         if (sensorValue < 0) sensorValue = 0;
 826              		.loc 1 162 9 is_stmt 1
 162:adc.c         ****         if (sensorValue < 0) sensorValue = 0;
 827              		.loc 1 162 21 is_stmt 0
 828 008a 0565     		li	a0,4096
 829              	.LVL87:
 830 008c 1305459C 		addi	a0,a0,-1596
 831 0090 1D8D     		sub	a0,a0,a5
 832              	.LVL88:
 163:adc.c         ****         sensorValue /= 9;
 833              		.loc 1 163 9 is_stmt 1
 834 0092 63530500 		bge	a0,zero,.L31
 835 0096 0145     		li	a0,0
 836              	.L31:
 837              	.LVL89:
 164:adc.c         ****     }
 838              		.loc 1 164 9
 164:adc.c         ****     }
 839              		.loc 1 164 21 is_stmt 0
 840 0098 A547     		li	a5,9
 841 009a F9B7     		j	.L36
 842              		.cfi_endproc
 843              	.LFE10:
 845              		.section	.text.T1powerUpInitPWM,"ax",@progbits
 846              		.align	1
 847              		.globl	T1powerUpInitPWM
 849              	T1powerUpInitPWM:
 850              	.LFB11:
 168:adc.c         **** 
GAS LISTING /var/folders/rt/4gvqv631095f64jvm7jfj_000000gn/T//ccOTUoWQ.s 			page 21


 169:adc.c         **** 
 170:adc.c         **** void T1powerUpInitPWM(uint16_t ch){
 851              		.loc 1 170 35 is_stmt 1
 852              		.cfi_startproc
 853              	.LVL90:
 171:adc.c         ****     timer_oc_parameter_struct timer_ocinitpara;
 854              		.loc 1 171 5
 172:adc.c         ****     timer_parameter_struct timer_initpara;
 855              		.loc 1 172 5
 173:adc.c         ****     rcu_periph_clock_enable(RCU_GPIOA);
 856              		.loc 1 173 5
 170:adc.c         ****     timer_oc_parameter_struct timer_ocinitpara;
 857              		.loc 1 170 35 is_stmt 0
 858 0000 7971     		addi	sp,sp,-48
 859              	.LCFI13:
 860              		.cfi_def_cfa_offset 48
 861 0002 22D4     		sw	s0,40(sp)
 862              		.cfi_offset 8, -8
 863 0004 2A84     		mv	s0,a0
 864              		.loc 1 173 5
 865 0006 13052060 		li	a0,1538
 866              	.LVL91:
 170:adc.c         ****     timer_oc_parameter_struct timer_ocinitpara;
 867              		.loc 1 170 35
 868 000a 06D6     		sw	ra,44(sp)
 869              		.cfi_offset 1, -4
 870              		.loc 1 173 5
 871 000c 97000000 		call	rcu_periph_clock_enable
 871      E7800000 
 872              	.LVL92:
 174:adc.c         ****     rcu_periph_clock_enable(RCU_AF);
 873              		.loc 1 174 5 is_stmt 1
 874 0014 13050060 		li	a0,1536
 875 0018 0588     		andi	s0,s0,1
 876 001a 97000000 		call	rcu_periph_clock_enable
 876      E7800000 
 877              	.LVL93:
 175:adc.c         ****     if (ch&0x1) gpio_init(GPIOA, GPIO_MODE_AF_PP, GPIO_OSPEED_50MHZ, GPIO_PIN_0);
 878              		.loc 1 175 5
 879              		.loc 1 175 8 is_stmt 0
 880 0022 01CC     		beq	s0,zero,.L38
 881              		.loc 1 175 17 is_stmt 1 discriminator 1
 882 0024 37150140 		li	a0,1073811456
 883 0028 8546     		li	a3,1
 884 002a 0D46     		li	a2,3
 885 002c E145     		li	a1,24
 886 002e 13050580 		addi	a0,a0,-2048
 887 0032 97000000 		call	gpio_init
 887      E7800000 
 888              	.LVL94:
 889              	.L38:
 176:adc.c         **** 
 177:adc.c         ****     rcu_periph_clock_enable(RCU_TIMER1);
 890              		.loc 1 177 5
 891 003a 13050070 		li	a0,1792
 892 003e 97000000 		call	rcu_periph_clock_enable
 892      E7800000 
GAS LISTING /var/folders/rt/4gvqv631095f64jvm7jfj_000000gn/T//ccOTUoWQ.s 			page 22


 893              	.LVL95:
 178:adc.c         **** 
 179:adc.c         ****     timer_deinit(TIMER1);
 894              		.loc 1 179 5
 895 0046 37050040 		li	a0,1073741824
 896 004a 97000000 		call	timer_deinit
 896      E7800000 
 897              	.LVL96:
 180:adc.c         ****     timer_struct_para_init(&timer_initpara);
 898              		.loc 1 180 5
 899 0052 0808     		addi	a0,sp,16
 900 0054 97000000 		call	timer_struct_para_init
 900      E7800000 
 901              	.LVL97:
 181:adc.c         ****     timer_initpara.prescaler         = 107;
 902              		.loc 1 181 5
 182:adc.c         ****     timer_initpara.alignedmode       = TIMER_COUNTER_EDGE;
 903              		.loc 1 182 5
 183:adc.c         ****     timer_initpara.counterdirection  = TIMER_COUNTER_UP;
 904              		.loc 1 183 5
 181:adc.c         ****     timer_initpara.prescaler         = 107;
 905              		.loc 1 181 38 is_stmt 0
 906 005c 9307B006 		li	a5,107
 907 0060 3EC8     		sw	a5,16(sp)
 184:adc.c         ****     timer_initpara.period            = 15999;
 908              		.loc 1 184 38
 909 0062 9167     		li	a5,16384
 910 0064 9387F7E7 		addi	a5,a5,-385
 185:adc.c         ****     timer_initpara.clockdivision     = TIMER_CKDIV_DIV1;
 186:adc.c         ****     timer_initpara.repetitioncounter = 0;
 187:adc.c         ****     timer_init(TIMER1, &timer_initpara);
 911              		.loc 1 187 5
 912 0068 0C08     		addi	a1,sp,16
 913 006a 37050040 		li	a0,1073741824
 184:adc.c         ****     timer_initpara.period            = 15999;
 914              		.loc 1 184 38
 915 006e 3ECC     		sw	a5,24(sp)
 183:adc.c         ****     timer_initpara.period            = 15999;
 916              		.loc 1 183 38
 917 0070 231A0100 		sh	zero,20(sp)
 184:adc.c         ****     timer_initpara.period            = 15999;
 918              		.loc 1 184 5 is_stmt 1
 185:adc.c         ****     timer_initpara.clockdivision     = TIMER_CKDIV_DIV1;
 919              		.loc 1 185 5
 185:adc.c         ****     timer_initpara.clockdivision     = TIMER_CKDIV_DIV1;
 920              		.loc 1 185 38 is_stmt 0
 921 0074 231E0100 		sh	zero,28(sp)
 186:adc.c         ****     timer_init(TIMER1, &timer_initpara);
 922              		.loc 1 186 5 is_stmt 1
 186:adc.c         ****     timer_init(TIMER1, &timer_initpara);
 923              		.loc 1 186 38 is_stmt 0
 924 0078 230F0100 		sb	zero,30(sp)
 925              		.loc 1 187 5 is_stmt 1
 926 007c 97000000 		call	timer_init
 926      E7800000 
 927              	.LVL98:
 188:adc.c         **** 
GAS LISTING /var/folders/rt/4gvqv631095f64jvm7jfj_000000gn/T//ccOTUoWQ.s 			page 23


 189:adc.c         ****     timer_channel_output_struct_para_init(&timer_ocinitpara);
 928              		.loc 1 189 5
 929 0084 4800     		addi	a0,sp,4
 930 0086 97000000 		call	timer_channel_output_struct_para_init
 930      E7800000 
 931              	.LVL99:
 190:adc.c         ****     timer_ocinitpara.outputstate  = TIMER_CCX_ENABLE;
 932              		.loc 1 190 5
 191:adc.c         ****     timer_ocinitpara.outputnstate = TIMER_CCXN_DISABLE;
 933              		.loc 1 191 5
 192:adc.c         ****     timer_ocinitpara.ocpolarity   = TIMER_OC_POLARITY_HIGH;
 934              		.loc 1 192 5
 193:adc.c         ****     timer_ocinitpara.ocnpolarity  = TIMER_OCN_POLARITY_HIGH;
 935              		.loc 1 193 5
 194:adc.c         ****     timer_ocinitpara.ocidlestate  = TIMER_OC_IDLE_STATE_LOW;
 936              		.loc 1 194 5
 195:adc.c         ****     timer_ocinitpara.ocnidlestate = TIMER_OCN_IDLE_STATE_LOW;
 937              		.loc 1 195 5
 190:adc.c         ****     timer_ocinitpara.outputnstate = TIMER_CCXN_DISABLE;
 938              		.loc 1 190 35 is_stmt 0
 939 008e 8547     		li	a5,1
 940 0090 3EC2     		sw	a5,4(sp)
 192:adc.c         ****     timer_ocinitpara.ocnpolarity  = TIMER_OCN_POLARITY_HIGH;
 941              		.loc 1 192 35
 942 0092 02C4     		sw	zero,8(sp)
 194:adc.c         ****     timer_ocinitpara.ocnidlestate = TIMER_OCN_IDLE_STATE_LOW;
 943              		.loc 1 194 35
 944 0094 02C6     		sw	zero,12(sp)
 196:adc.c         ****     if (ch&0x1) timer_channel_output_config(TIMER1,TIMER_CH_0,&timer_ocinitpara);
 945              		.loc 1 196 5 is_stmt 1
 946              		.loc 1 196 8 is_stmt 0
 947 0096 21C4     		beq	s0,zero,.L39
 948              		.loc 1 196 17 is_stmt 1 discriminator 1
 949 0098 5000     		addi	a2,sp,4
 950 009a 8145     		li	a1,0
 951 009c 37050040 		li	a0,1073741824
 952 00a0 97000000 		call	timer_channel_output_config
 952      E7800000 
 953              	.LVL100:
 197:adc.c         **** 
 198:adc.c         ****     if (ch&0x1) {
 954              		.loc 1 198 5 discriminator 1
 199:adc.c         ****         timer_channel_output_pulse_value_config(TIMER1,TIMER_CH_0,11999);
 955              		.loc 1 199 9 discriminator 1
 956 00a8 0D66     		li	a2,12288
 957 00aa 1306F6ED 		addi	a2,a2,-289
 958 00ae 8145     		li	a1,0
 959 00b0 37050040 		li	a0,1073741824
 960 00b4 97000000 		call	timer_channel_output_pulse_value_config
 960      E7800000 
 961              	.LVL101:
 200:adc.c         ****         timer_channel_output_mode_config(TIMER1,TIMER_CH_0,TIMER_OC_MODE_PWM0);
 962              		.loc 1 200 9 discriminator 1
 963 00bc 13060006 		li	a2,96
 964 00c0 8145     		li	a1,0
 965 00c2 37050040 		li	a0,1073741824
 966 00c6 97000000 		call	timer_channel_output_mode_config
GAS LISTING /var/folders/rt/4gvqv631095f64jvm7jfj_000000gn/T//ccOTUoWQ.s 			page 24


 966      E7800000 
 967              	.LVL102:
 201:adc.c         ****         timer_channel_output_shadow_config(TIMER1,TIMER_CH_0,TIMER_OC_SHADOW_DISABLE);
 968              		.loc 1 201 9 discriminator 1
 969 00ce 0146     		li	a2,0
 970 00d0 8145     		li	a1,0
 971 00d2 37050040 		li	a0,1073741824
 972 00d6 97000000 		call	timer_channel_output_shadow_config
 972      E7800000 
 973              	.LVL103:
 974              	.L39:
 202:adc.c         ****     }
 203:adc.c         **** 
 204:adc.c         ****     timer_auto_reload_shadow_enable(TIMER1);
 975              		.loc 1 204 5
 976 00de 37050040 		li	a0,1073741824
 977 00e2 97000000 		call	timer_auto_reload_shadow_enable
 977      E7800000 
 978              	.LVL104:
 205:adc.c         ****     timer_enable(TIMER1);
 979              		.loc 1 205 5
 980 00ea 37050040 		li	a0,1073741824
 981 00ee 97000000 		call	timer_enable
 981      E7800000 
 982              	.LVL105:
 206:adc.c         **** }
 983              		.loc 1 206 1 is_stmt 0
 984 00f6 B250     		lw	ra,44(sp)
 985              		.cfi_restore 1
 986 00f8 2254     		lw	s0,40(sp)
 987              		.cfi_restore 8
 988 00fa 4561     		addi	sp,sp,48
 989              	.LCFI14:
 990              		.cfi_def_cfa_offset 0
 991 00fc 8280     		jr	ra
 992              		.cfi_endproc
 993              	.LFE11:
 995              		.section	.text.T1setPWMch0,"ax",@progbits
 996              		.align	1
 997              		.globl	T1setPWMch0
 999              	T1setPWMch0:
 1000              	.LFB12:
 207:adc.c         **** 
 208:adc.c         **** 
 209:adc.c         **** void T1setPWMch0(int value) {
 1001              		.loc 1 209 29 is_stmt 1
 1002              		.cfi_startproc
 1003              	.LVL106:
 210:adc.c         ****     timer_channel_output_pulse_value_config(TIMER1,TIMER_CH_0,(value));
 1004              		.loc 1 210 5
 1005 0000 2A86     		mv	a2,a0
 1006 0002 8145     		li	a1,0
 1007 0004 37050040 		li	a0,1073741824
 1008              	.LVL107:
 1009 0008 17030000 		tail	timer_channel_output_pulse_value_config
 1009      67000300 
 1010              	.LVL108:
GAS LISTING /var/folders/rt/4gvqv631095f64jvm7jfj_000000gn/T//ccOTUoWQ.s 			page 25


 1011              		.cfi_endproc
 1012              	.LFE12:
 1014              		.section	.rodata.read_temp.cst4,"aM",@progbits,4
 1015              		.align	2
 1016              	.LC0:
 1017 0000 0000D743 		.word	1138163712
 1018              	.LC1:
 1019 0004 00000038 		.word	939524096
 1020              	.LC4:
 1021 0008 0000A040 		.word	1084227584
 1022              		.section	.rodata.read_temp.cst8,"aM",@progbits,8
 1023              		.align	3
 1024              	.LC2:
 1025 0000 00000000 		.word	0
 1026 0004 00005940 		.word	1079574528
 1027              	.LC3:
 1028 0008 68226C78 		.word	2020352616
 1029 000c 7AA5D83F 		.word	1071162746
 1030              		.text
 1031              	.Letext0:
 1032              		.file 2 "/Users/alexstrae/toolchain-gd32v-v202-osx/compiler/riscv64-unknown-elf/include/machine/_d
 1033              		.file 3 "/Users/alexstrae/toolchain-gd32v-v202-osx/compiler/lib/gcc/riscv64-unknown-elf/8.3.0/incl
 1034              		.file 4 "/Users/alexstrae/toolchain-gd32v-v202-osx/compiler/riscv64-unknown-elf/include/sys/_types
 1035              		.file 5 "/Users/alexstrae/toolchain-gd32v-v202-osx/compiler/riscv64-unknown-elf/include/sys/reent.
 1036              		.file 6 "/Users/alexstrae/toolchain-gd32v-v202-osx/compiler/riscv64-unknown-elf/include/sys/lock.h
 1037              		.file 7 "/Users/alexstrae/toolchain-gd32v-v202-osx/compiler/riscv64-unknown-elf/include/sys/_stdin
 1038              		.file 8 "../../firmware/GD32VF103_standard_peripheral/system_gd32vf103.h"
 1039              		.file 9 "../../firmware/GD32VF103_standard_peripheral/gd32vf103.h"
 1040              		.file 10 "../../firmware/GD32VF103_standard_peripheral/Include/gd32vf103_rcu.h"
 1041              		.file 11 "../../firmware/GD32VF103_standard_peripheral/Include/gd32vf103_spi.h"
 1042              		.file 12 "../../firmware/GD32VF103_standard_peripheral/Include/gd32vf103_timer.h"
 1043              		.file 13 "/Users/alexstrae/toolchain-gd32v-v202-osx/compiler/riscv64-unknown-elf/include/stdlib.h"
 1044              		.file 14 "lib/lcd/include/lcd.h"
 1045              		.file 15 "../../firmware/GD32VF103_standard_peripheral/Include/gd32vf103_gpio.h"
 1046              		.file 16 "../../firmware/GD32VF103_standard_peripheral/Include/gd32vf103_adc.h"
GAS LISTING /var/folders/rt/4gvqv631095f64jvm7jfj_000000gn/T//ccOTUoWQ.s 			page 26

