GAS LISTING /var/folders/rt/4gvqv631095f64jvm7jfj_000000gn/T//ccmNtz5k.s 			page 1


   1              		.file	"gd32vf103_rtc.c"
   2              		.option nopic
   3              		.attribute arch, "rv32i2p0_m2p0_a2p0_c2p0"
   4              		.attribute unaligned_access, 0
   5              		.attribute stack_align, 16
   6              		.text
   7              	.Ltext0:
   8              		.cfi_sections	.debug_frame
   9              		.section	.text.rtc_configuration_mode_enter,"ax",@progbits
  10              		.align	1
  11              		.globl	rtc_configuration_mode_enter
  13              	rtc_configuration_mode_enter:
  14              	.LFB2:
  15              		.file 1 "../../firmware/GD32VF103_standard_peripheral/Source/gd32vf103_rtc.c"
   1:../../firmware/GD32VF103_standard_peripheral/Source/gd32vf103_rtc.c **** /*!
   2:../../firmware/GD32VF103_standard_peripheral/Source/gd32vf103_rtc.c ****     \file    gd32vf103_rtc.c
   3:../../firmware/GD32VF103_standard_peripheral/Source/gd32vf103_rtc.c ****     \brief   RTC driver
   4:../../firmware/GD32VF103_standard_peripheral/Source/gd32vf103_rtc.c ****     
   5:../../firmware/GD32VF103_standard_peripheral/Source/gd32vf103_rtc.c ****     \version 2019-06-05, V1.0.0, firmware for GD32VF103
   6:../../firmware/GD32VF103_standard_peripheral/Source/gd32vf103_rtc.c ****     \version 2020-08-04, V1.1.0, firmware for GD32VF103
   7:../../firmware/GD32VF103_standard_peripheral/Source/gd32vf103_rtc.c **** */
   8:../../firmware/GD32VF103_standard_peripheral/Source/gd32vf103_rtc.c **** 
   9:../../firmware/GD32VF103_standard_peripheral/Source/gd32vf103_rtc.c **** /*
  10:../../firmware/GD32VF103_standard_peripheral/Source/gd32vf103_rtc.c ****     Copyright (c) 2020, GigaDevice Semiconductor Inc.
  11:../../firmware/GD32VF103_standard_peripheral/Source/gd32vf103_rtc.c **** 
  12:../../firmware/GD32VF103_standard_peripheral/Source/gd32vf103_rtc.c ****     Redistribution and use in source and binary forms, with or without modification, 
  13:../../firmware/GD32VF103_standard_peripheral/Source/gd32vf103_rtc.c **** are permitted provided that the following conditions are met:
  14:../../firmware/GD32VF103_standard_peripheral/Source/gd32vf103_rtc.c **** 
  15:../../firmware/GD32VF103_standard_peripheral/Source/gd32vf103_rtc.c ****     1. Redistributions of source code must retain the above copyright notice, this 
  16:../../firmware/GD32VF103_standard_peripheral/Source/gd32vf103_rtc.c ****        list of conditions and the following disclaimer.
  17:../../firmware/GD32VF103_standard_peripheral/Source/gd32vf103_rtc.c ****     2. Redistributions in binary form must reproduce the above copyright notice, 
  18:../../firmware/GD32VF103_standard_peripheral/Source/gd32vf103_rtc.c ****        this list of conditions and the following disclaimer in the documentation 
  19:../../firmware/GD32VF103_standard_peripheral/Source/gd32vf103_rtc.c ****        and/or other materials provided with the distribution.
  20:../../firmware/GD32VF103_standard_peripheral/Source/gd32vf103_rtc.c ****     3. Neither the name of the copyright holder nor the names of its contributors 
  21:../../firmware/GD32VF103_standard_peripheral/Source/gd32vf103_rtc.c ****        may be used to endorse or promote products derived from this software without 
  22:../../firmware/GD32VF103_standard_peripheral/Source/gd32vf103_rtc.c ****        specific prior written permission.
  23:../../firmware/GD32VF103_standard_peripheral/Source/gd32vf103_rtc.c **** 
  24:../../firmware/GD32VF103_standard_peripheral/Source/gd32vf103_rtc.c ****     THIS SOFTWARE IS PROVIDED BY THE COPYRIGHT HOLDERS AND CONTRIBUTORS "AS IS" 
  25:../../firmware/GD32VF103_standard_peripheral/Source/gd32vf103_rtc.c **** AND ANY EXPRESS OR IMPLIED WARRANTIES, INCLUDING, BUT NOT LIMITED TO, THE IMPLIED 
  26:../../firmware/GD32VF103_standard_peripheral/Source/gd32vf103_rtc.c **** WARRANTIES OF MERCHANTABILITY AND FITNESS FOR A PARTICULAR PURPOSE ARE DISCLAIMED. 
  27:../../firmware/GD32VF103_standard_peripheral/Source/gd32vf103_rtc.c **** IN NO EVENT SHALL THE COPYRIGHT HOLDER OR CONTRIBUTORS BE LIABLE FOR ANY DIRECT, 
  28:../../firmware/GD32VF103_standard_peripheral/Source/gd32vf103_rtc.c **** INDIRECT, INCIDENTAL, SPECIAL, EXEMPLARY, OR CONSEQUENTIAL DAMAGES (INCLUDING, BUT 
  29:../../firmware/GD32VF103_standard_peripheral/Source/gd32vf103_rtc.c **** NOT LIMITED TO, PROCUREMENT OF SUBSTITUTE GOODS OR SERVICES; LOSS OF USE, DATA, OR 
  30:../../firmware/GD32VF103_standard_peripheral/Source/gd32vf103_rtc.c **** PROFITS; OR BUSINESS INTERRUPTION) HOWEVER CAUSED AND ON ANY THEORY OF LIABILITY, 
  31:../../firmware/GD32VF103_standard_peripheral/Source/gd32vf103_rtc.c **** WHETHER IN CONTRACT, STRICT LIABILITY, OR TORT (INCLUDING NEGLIGENCE OR OTHERWISE) 
  32:../../firmware/GD32VF103_standard_peripheral/Source/gd32vf103_rtc.c **** ARISING IN ANY WAY OUT OF THE USE OF THIS SOFTWARE, EVEN IF ADVISED OF THE POSSIBILITY 
  33:../../firmware/GD32VF103_standard_peripheral/Source/gd32vf103_rtc.c **** OF SUCH DAMAGE.
  34:../../firmware/GD32VF103_standard_peripheral/Source/gd32vf103_rtc.c **** */
  35:../../firmware/GD32VF103_standard_peripheral/Source/gd32vf103_rtc.c **** 
  36:../../firmware/GD32VF103_standard_peripheral/Source/gd32vf103_rtc.c **** #include "gd32vf103_rtc.h"
  37:../../firmware/GD32VF103_standard_peripheral/Source/gd32vf103_rtc.c **** 
  38:../../firmware/GD32VF103_standard_peripheral/Source/gd32vf103_rtc.c **** /* RTC register high / low bits mask */
  39:../../firmware/GD32VF103_standard_peripheral/Source/gd32vf103_rtc.c **** #define RTC_HIGH_BITS_MASK         ((uint32_t)0x000F0000U)  /* RTC high bits mask */
  40:../../firmware/GD32VF103_standard_peripheral/Source/gd32vf103_rtc.c **** #define RTC_LOW_BITS_MASK          ((uint32_t)0x0000FFFFU)  /* RTC low bits mask */
  41:../../firmware/GD32VF103_standard_peripheral/Source/gd32vf103_rtc.c **** 
  42:../../firmware/GD32VF103_standard_peripheral/Source/gd32vf103_rtc.c **** /* RTC register high bits offset */
  43:../../firmware/GD32VF103_standard_peripheral/Source/gd32vf103_rtc.c **** #define RTC_HIGH_BITS_OFFSET       ((uint32_t)16U)
GAS LISTING /var/folders/rt/4gvqv631095f64jvm7jfj_000000gn/T//ccmNtz5k.s 			page 2


  44:../../firmware/GD32VF103_standard_peripheral/Source/gd32vf103_rtc.c **** 
  45:../../firmware/GD32VF103_standard_peripheral/Source/gd32vf103_rtc.c **** /*!
  46:../../firmware/GD32VF103_standard_peripheral/Source/gd32vf103_rtc.c ****     \brief      enter RTC configuration mode
  47:../../firmware/GD32VF103_standard_peripheral/Source/gd32vf103_rtc.c ****     \param[in]  none
  48:../../firmware/GD32VF103_standard_peripheral/Source/gd32vf103_rtc.c ****     \param[out] none
  49:../../firmware/GD32VF103_standard_peripheral/Source/gd32vf103_rtc.c ****     \retval     none
  50:../../firmware/GD32VF103_standard_peripheral/Source/gd32vf103_rtc.c **** */
  51:../../firmware/GD32VF103_standard_peripheral/Source/gd32vf103_rtc.c **** void rtc_configuration_mode_enter(void)
  52:../../firmware/GD32VF103_standard_peripheral/Source/gd32vf103_rtc.c **** {
  16              		.loc 1 52 1
  17              		.cfi_startproc
  53:../../firmware/GD32VF103_standard_peripheral/Source/gd32vf103_rtc.c ****     RTC_CTL |= RTC_CTL_CMF;
  18              		.loc 1 53 5
  19              		.loc 1 53 13 is_stmt 0
  20 0000 37370040 		li	a4,1073754112
  21 0004 83274780 		lw	a5,-2044(a4)
  22 0008 93E70701 		ori	a5,a5,16
  23 000c 2322F780 		sw	a5,-2044(a4)
  54:../../firmware/GD32VF103_standard_peripheral/Source/gd32vf103_rtc.c **** }
  24              		.loc 1 54 1
  25 0010 8280     		ret
  26              		.cfi_endproc
  27              	.LFE2:
  29              		.section	.text.rtc_configuration_mode_exit,"ax",@progbits
  30              		.align	1
  31              		.globl	rtc_configuration_mode_exit
  33              	rtc_configuration_mode_exit:
  34              	.LFB3:
  55:../../firmware/GD32VF103_standard_peripheral/Source/gd32vf103_rtc.c **** 
  56:../../firmware/GD32VF103_standard_peripheral/Source/gd32vf103_rtc.c **** /*!
  57:../../firmware/GD32VF103_standard_peripheral/Source/gd32vf103_rtc.c ****     \brief      exit RTC configuration mode
  58:../../firmware/GD32VF103_standard_peripheral/Source/gd32vf103_rtc.c ****     \param[in]  none
  59:../../firmware/GD32VF103_standard_peripheral/Source/gd32vf103_rtc.c ****     \param[out] none
  60:../../firmware/GD32VF103_standard_peripheral/Source/gd32vf103_rtc.c ****     \retval     none
  61:../../firmware/GD32VF103_standard_peripheral/Source/gd32vf103_rtc.c **** */
  62:../../firmware/GD32VF103_standard_peripheral/Source/gd32vf103_rtc.c **** void rtc_configuration_mode_exit(void)
  63:../../firmware/GD32VF103_standard_peripheral/Source/gd32vf103_rtc.c **** {
  35              		.loc 1 63 1 is_stmt 1
  36              		.cfi_startproc
  64:../../firmware/GD32VF103_standard_peripheral/Source/gd32vf103_rtc.c ****     RTC_CTL &= ~RTC_CTL_CMF;
  37              		.loc 1 64 5
  38              		.loc 1 64 13 is_stmt 0
  39 0000 37370040 		li	a4,1073754112
  40 0004 83274780 		lw	a5,-2044(a4)
  41 0008 BD9B     		andi	a5,a5,-17
  42 000a 2322F780 		sw	a5,-2044(a4)
  65:../../firmware/GD32VF103_standard_peripheral/Source/gd32vf103_rtc.c **** }
  43              		.loc 1 65 1
  44 000e 8280     		ret
  45              		.cfi_endproc
  46              	.LFE3:
  48              		.section	.text.rtc_counter_set,"ax",@progbits
  49              		.align	1
  50              		.globl	rtc_counter_set
  52              	rtc_counter_set:
  53              	.LFB4:
  66:../../firmware/GD32VF103_standard_peripheral/Source/gd32vf103_rtc.c **** 
GAS LISTING /var/folders/rt/4gvqv631095f64jvm7jfj_000000gn/T//ccmNtz5k.s 			page 3


  67:../../firmware/GD32VF103_standard_peripheral/Source/gd32vf103_rtc.c **** /*!
  68:../../firmware/GD32VF103_standard_peripheral/Source/gd32vf103_rtc.c ****     \brief      set RTC counter value
  69:../../firmware/GD32VF103_standard_peripheral/Source/gd32vf103_rtc.c ****     \param[in]  cnt: RTC counter value
  70:../../firmware/GD32VF103_standard_peripheral/Source/gd32vf103_rtc.c ****     \param[out] none
  71:../../firmware/GD32VF103_standard_peripheral/Source/gd32vf103_rtc.c ****     \retval     none
  72:../../firmware/GD32VF103_standard_peripheral/Source/gd32vf103_rtc.c **** */
  73:../../firmware/GD32VF103_standard_peripheral/Source/gd32vf103_rtc.c **** void rtc_counter_set(uint32_t cnt)
  74:../../firmware/GD32VF103_standard_peripheral/Source/gd32vf103_rtc.c **** {
  54              		.loc 1 74 1 is_stmt 1
  55              		.cfi_startproc
  56              	.LVL0:
  75:../../firmware/GD32VF103_standard_peripheral/Source/gd32vf103_rtc.c ****     rtc_configuration_mode_enter();
  57              		.loc 1 75 5
  74:../../firmware/GD32VF103_standard_peripheral/Source/gd32vf103_rtc.c ****     rtc_configuration_mode_enter();
  58              		.loc 1 74 1 is_stmt 0
  59 0000 0111     		addi	sp,sp,-32
  60              	.LCFI0:
  61              		.cfi_def_cfa_offset 32
  62 0002 06CE     		sw	ra,28(sp)
  63              		.cfi_offset 1, -4
  74:../../firmware/GD32VF103_standard_peripheral/Source/gd32vf103_rtc.c ****     rtc_configuration_mode_enter();
  64              		.loc 1 74 1
  65 0004 2AC6     		sw	a0,12(sp)
  66              		.loc 1 75 5
  67 0006 97000000 		call	rtc_configuration_mode_enter
  67      E7800000 
  68              	.LVL1:
  76:../../firmware/GD32VF103_standard_peripheral/Source/gd32vf103_rtc.c ****     /* set the RTC counter high bits */
  77:../../firmware/GD32VF103_standard_peripheral/Source/gd32vf103_rtc.c ****     RTC_CNTH = (cnt >> RTC_HIGH_BITS_OFFSET);
  69              		.loc 1 77 5 is_stmt 1
  70              		.loc 1 77 21 is_stmt 0
  71 000e 3245     		lw	a0,12(sp)
  72              		.loc 1 77 14
  73 0010 B7370040 		li	a5,1073754112
  78:../../firmware/GD32VF103_standard_peripheral/Source/gd32vf103_rtc.c ****     /* set the RTC counter low bits */
  79:../../firmware/GD32VF103_standard_peripheral/Source/gd32vf103_rtc.c ****     RTC_CNTL = (cnt & RTC_LOW_BITS_MASK);
  80:../../firmware/GD32VF103_standard_peripheral/Source/gd32vf103_rtc.c ****     rtc_configuration_mode_exit();
  81:../../firmware/GD32VF103_standard_peripheral/Source/gd32vf103_rtc.c **** }
  74              		.loc 1 81 1
  75 0014 F240     		lw	ra,28(sp)
  76              		.cfi_restore 1
  77:../../firmware/GD32VF103_standard_peripheral/Source/gd32vf103_rtc.c ****     /* set the RTC counter low bits */
  77              		.loc 1 77 21
  78 0016 13570501 		srli	a4,a0,16
  79:../../firmware/GD32VF103_standard_peripheral/Source/gd32vf103_rtc.c ****     rtc_configuration_mode_exit();
  79              		.loc 1 79 21
  80 001a 4205     		slli	a0,a0,16
  77:../../firmware/GD32VF103_standard_peripheral/Source/gd32vf103_rtc.c ****     /* set the RTC counter low bits */
  81              		.loc 1 77 14
  82 001c 23ACE780 		sw	a4,-2024(a5)
  79:../../firmware/GD32VF103_standard_peripheral/Source/gd32vf103_rtc.c ****     rtc_configuration_mode_exit();
  83              		.loc 1 79 5 is_stmt 1
  79:../../firmware/GD32VF103_standard_peripheral/Source/gd32vf103_rtc.c ****     rtc_configuration_mode_exit();
  84              		.loc 1 79 21 is_stmt 0
  85 0020 4181     		srli	a0,a0,16
  79:../../firmware/GD32VF103_standard_peripheral/Source/gd32vf103_rtc.c ****     rtc_configuration_mode_exit();
  86              		.loc 1 79 14
GAS LISTING /var/folders/rt/4gvqv631095f64jvm7jfj_000000gn/T//ccmNtz5k.s 			page 4


  87 0022 23AEA780 		sw	a0,-2020(a5)
  80:../../firmware/GD32VF103_standard_peripheral/Source/gd32vf103_rtc.c **** }
  88              		.loc 1 80 5 is_stmt 1
  89              		.loc 1 81 1 is_stmt 0
  90 0026 0561     		addi	sp,sp,32
  91              	.LCFI1:
  92              		.cfi_def_cfa_offset 0
  93              	.LVL2:
  80:../../firmware/GD32VF103_standard_peripheral/Source/gd32vf103_rtc.c **** }
  94              		.loc 1 80 5
  95 0028 17030000 		tail	rtc_configuration_mode_exit
  95      67000300 
  96              	.LVL3:
  97              		.cfi_endproc
  98              	.LFE4:
 100              		.section	.text.rtc_prescaler_set,"ax",@progbits
 101              		.align	1
 102              		.globl	rtc_prescaler_set
 104              	rtc_prescaler_set:
 105              	.LFB5:
  82:../../firmware/GD32VF103_standard_peripheral/Source/gd32vf103_rtc.c **** 
  83:../../firmware/GD32VF103_standard_peripheral/Source/gd32vf103_rtc.c **** /*!
  84:../../firmware/GD32VF103_standard_peripheral/Source/gd32vf103_rtc.c ****     \brief      set RTC prescaler value
  85:../../firmware/GD32VF103_standard_peripheral/Source/gd32vf103_rtc.c ****     \param[in]  psc: RTC prescaler value
  86:../../firmware/GD32VF103_standard_peripheral/Source/gd32vf103_rtc.c ****     \param[out] none
  87:../../firmware/GD32VF103_standard_peripheral/Source/gd32vf103_rtc.c ****     \retval     none
  88:../../firmware/GD32VF103_standard_peripheral/Source/gd32vf103_rtc.c **** */
  89:../../firmware/GD32VF103_standard_peripheral/Source/gd32vf103_rtc.c **** void rtc_prescaler_set(uint32_t psc)
  90:../../firmware/GD32VF103_standard_peripheral/Source/gd32vf103_rtc.c **** {
 106              		.loc 1 90 1 is_stmt 1
 107              		.cfi_startproc
 108              	.LVL4:
  91:../../firmware/GD32VF103_standard_peripheral/Source/gd32vf103_rtc.c ****     rtc_configuration_mode_enter();
 109              		.loc 1 91 5
  90:../../firmware/GD32VF103_standard_peripheral/Source/gd32vf103_rtc.c ****     rtc_configuration_mode_enter();
 110              		.loc 1 90 1 is_stmt 0
 111 0000 0111     		addi	sp,sp,-32
 112              	.LCFI2:
 113              		.cfi_def_cfa_offset 32
 114 0002 06CE     		sw	ra,28(sp)
 115              		.cfi_offset 1, -4
  90:../../firmware/GD32VF103_standard_peripheral/Source/gd32vf103_rtc.c ****     rtc_configuration_mode_enter();
 116              		.loc 1 90 1
 117 0004 2AC6     		sw	a0,12(sp)
 118              		.loc 1 91 5
 119 0006 97000000 		call	rtc_configuration_mode_enter
 119      E7800000 
 120              	.LVL5:
  92:../../firmware/GD32VF103_standard_peripheral/Source/gd32vf103_rtc.c ****     /* set the RTC prescaler high bits */
  93:../../firmware/GD32VF103_standard_peripheral/Source/gd32vf103_rtc.c ****     RTC_PSCH = ((psc & RTC_HIGH_BITS_MASK) >> RTC_HIGH_BITS_OFFSET);
 121              		.loc 1 93 5 is_stmt 1
 122              		.loc 1 93 44 is_stmt 0
 123 000e 3245     		lw	a0,12(sp)
 124              		.loc 1 93 14
 125 0010 37370040 		li	a4,1073754112
  94:../../firmware/GD32VF103_standard_peripheral/Source/gd32vf103_rtc.c ****     /* set the RTC prescaler low bits */
  95:../../firmware/GD32VF103_standard_peripheral/Source/gd32vf103_rtc.c ****     RTC_PSCL = (psc & RTC_LOW_BITS_MASK);
GAS LISTING /var/folders/rt/4gvqv631095f64jvm7jfj_000000gn/T//ccmNtz5k.s 			page 5


  96:../../firmware/GD32VF103_standard_peripheral/Source/gd32vf103_rtc.c ****     rtc_configuration_mode_exit();
  97:../../firmware/GD32VF103_standard_peripheral/Source/gd32vf103_rtc.c **** }
 126              		.loc 1 97 1
 127 0014 F240     		lw	ra,28(sp)
 128              		.cfi_restore 1
  93:../../firmware/GD32VF103_standard_peripheral/Source/gd32vf103_rtc.c ****     /* set the RTC prescaler low bits */
 129              		.loc 1 93 44
 130 0016 93570501 		srli	a5,a0,16
 131 001a BD8B     		andi	a5,a5,15
  95:../../firmware/GD32VF103_standard_peripheral/Source/gd32vf103_rtc.c ****     rtc_configuration_mode_exit();
 132              		.loc 1 95 21
 133 001c 4205     		slli	a0,a0,16
  93:../../firmware/GD32VF103_standard_peripheral/Source/gd32vf103_rtc.c ****     /* set the RTC prescaler low bits */
 134              		.loc 1 93 14
 135 001e 2324F780 		sw	a5,-2040(a4)
  95:../../firmware/GD32VF103_standard_peripheral/Source/gd32vf103_rtc.c ****     rtc_configuration_mode_exit();
 136              		.loc 1 95 5 is_stmt 1
  95:../../firmware/GD32VF103_standard_peripheral/Source/gd32vf103_rtc.c ****     rtc_configuration_mode_exit();
 137              		.loc 1 95 21 is_stmt 0
 138 0022 4181     		srli	a0,a0,16
  95:../../firmware/GD32VF103_standard_peripheral/Source/gd32vf103_rtc.c ****     rtc_configuration_mode_exit();
 139              		.loc 1 95 14
 140 0024 2326A780 		sw	a0,-2036(a4)
  96:../../firmware/GD32VF103_standard_peripheral/Source/gd32vf103_rtc.c **** }
 141              		.loc 1 96 5 is_stmt 1
 142              		.loc 1 97 1 is_stmt 0
 143 0028 0561     		addi	sp,sp,32
 144              	.LCFI3:
 145              		.cfi_def_cfa_offset 0
 146              	.LVL6:
  96:../../firmware/GD32VF103_standard_peripheral/Source/gd32vf103_rtc.c **** }
 147              		.loc 1 96 5
 148 002a 17030000 		tail	rtc_configuration_mode_exit
 148      67000300 
 149              	.LVL7:
 150              		.cfi_endproc
 151              	.LFE5:
 153              		.section	.text.rtc_lwoff_wait,"ax",@progbits
 154              		.align	1
 155              		.globl	rtc_lwoff_wait
 157              	rtc_lwoff_wait:
 158              	.LFB6:
  98:../../firmware/GD32VF103_standard_peripheral/Source/gd32vf103_rtc.c **** 
  99:../../firmware/GD32VF103_standard_peripheral/Source/gd32vf103_rtc.c **** /*!
 100:../../firmware/GD32VF103_standard_peripheral/Source/gd32vf103_rtc.c ****     \brief      wait RTC last write operation finished flag set
 101:../../firmware/GD32VF103_standard_peripheral/Source/gd32vf103_rtc.c ****     \param[in]  none
 102:../../firmware/GD32VF103_standard_peripheral/Source/gd32vf103_rtc.c ****     \param[out] none
 103:../../firmware/GD32VF103_standard_peripheral/Source/gd32vf103_rtc.c ****     \retval     none
 104:../../firmware/GD32VF103_standard_peripheral/Source/gd32vf103_rtc.c **** */
 105:../../firmware/GD32VF103_standard_peripheral/Source/gd32vf103_rtc.c **** void rtc_lwoff_wait(void)
 106:../../firmware/GD32VF103_standard_peripheral/Source/gd32vf103_rtc.c **** {
 159              		.loc 1 106 1 is_stmt 1
 160              		.cfi_startproc
 107:../../firmware/GD32VF103_standard_peripheral/Source/gd32vf103_rtc.c ****     /* loop until LWOFF flag is set */
 108:../../firmware/GD32VF103_standard_peripheral/Source/gd32vf103_rtc.c ****     while(RESET == (RTC_CTL & RTC_CTL_LWOFF)){
 161              		.loc 1 108 5
 162              		.loc 1 108 21 is_stmt 0
GAS LISTING /var/folders/rt/4gvqv631095f64jvm7jfj_000000gn/T//ccmNtz5k.s 			page 6


 163 0000 37370040 		li	a4,1073754112
 164              	.L8:
 109:../../firmware/GD32VF103_standard_peripheral/Source/gd32vf103_rtc.c ****     }
 165              		.loc 1 109 5 is_stmt 1 discriminator 1
 108:../../firmware/GD32VF103_standard_peripheral/Source/gd32vf103_rtc.c ****     }
 166              		.loc 1 108 21 is_stmt 0 discriminator 1
 167 0004 83274780 		lw	a5,-2044(a4)
 108:../../firmware/GD32VF103_standard_peripheral/Source/gd32vf103_rtc.c ****     }
 168              		.loc 1 108 29 discriminator 1
 169 0008 93F70702 		andi	a5,a5,32
 108:../../firmware/GD32VF103_standard_peripheral/Source/gd32vf103_rtc.c ****     }
 170              		.loc 1 108 10 discriminator 1
 171 000c E5DF     		beq	a5,zero,.L8
 110:../../firmware/GD32VF103_standard_peripheral/Source/gd32vf103_rtc.c **** }
 172              		.loc 1 110 1
 173 000e 8280     		ret
 174              		.cfi_endproc
 175              	.LFE6:
 177              		.section	.text.rtc_register_sync_wait,"ax",@progbits
 178              		.align	1
 179              		.globl	rtc_register_sync_wait
 181              	rtc_register_sync_wait:
 182              	.LFB7:
 111:../../firmware/GD32VF103_standard_peripheral/Source/gd32vf103_rtc.c **** 
 112:../../firmware/GD32VF103_standard_peripheral/Source/gd32vf103_rtc.c **** /*!
 113:../../firmware/GD32VF103_standard_peripheral/Source/gd32vf103_rtc.c ****     \brief      wait RTC registers synchronized flag set
 114:../../firmware/GD32VF103_standard_peripheral/Source/gd32vf103_rtc.c ****     \param[in]  none
 115:../../firmware/GD32VF103_standard_peripheral/Source/gd32vf103_rtc.c ****     \param[out] none
 116:../../firmware/GD32VF103_standard_peripheral/Source/gd32vf103_rtc.c ****     \retval     none
 117:../../firmware/GD32VF103_standard_peripheral/Source/gd32vf103_rtc.c **** */
 118:../../firmware/GD32VF103_standard_peripheral/Source/gd32vf103_rtc.c **** void rtc_register_sync_wait(void)
 119:../../firmware/GD32VF103_standard_peripheral/Source/gd32vf103_rtc.c **** {
 183              		.loc 1 119 1 is_stmt 1
 184              		.cfi_startproc
 120:../../firmware/GD32VF103_standard_peripheral/Source/gd32vf103_rtc.c ****     /* clear RSYNF flag */
 121:../../firmware/GD32VF103_standard_peripheral/Source/gd32vf103_rtc.c ****     RTC_CTL &= ~RTC_CTL_RSYNF;
 185              		.loc 1 121 5
 186              		.loc 1 121 13 is_stmt 0
 187 0000 37370040 		li	a4,1073754112
 188 0004 83274780 		lw	a5,-2044(a4)
 189 0008 DD9B     		andi	a5,a5,-9
 190 000a 2322F780 		sw	a5,-2044(a4)
 122:../../firmware/GD32VF103_standard_peripheral/Source/gd32vf103_rtc.c ****     /* loop until RSYNF flag is set */
 123:../../firmware/GD32VF103_standard_peripheral/Source/gd32vf103_rtc.c ****     while(RESET == (RTC_CTL & RTC_CTL_RSYNF)){
 191              		.loc 1 123 5 is_stmt 1
 192              	.L12:
 124:../../firmware/GD32VF103_standard_peripheral/Source/gd32vf103_rtc.c ****     }
 193              		.loc 1 124 5 discriminator 1
 123:../../firmware/GD32VF103_standard_peripheral/Source/gd32vf103_rtc.c ****     }
 194              		.loc 1 123 21 is_stmt 0 discriminator 1
 195 000e 83274780 		lw	a5,-2044(a4)
 123:../../firmware/GD32VF103_standard_peripheral/Source/gd32vf103_rtc.c ****     }
 196              		.loc 1 123 29 discriminator 1
 197 0012 A18B     		andi	a5,a5,8
 123:../../firmware/GD32VF103_standard_peripheral/Source/gd32vf103_rtc.c ****     }
 198              		.loc 1 123 10 discriminator 1
 199 0014 EDDF     		beq	a5,zero,.L12
GAS LISTING /var/folders/rt/4gvqv631095f64jvm7jfj_000000gn/T//ccmNtz5k.s 			page 7


 125:../../firmware/GD32VF103_standard_peripheral/Source/gd32vf103_rtc.c **** }
 200              		.loc 1 125 1
 201 0016 8280     		ret
 202              		.cfi_endproc
 203              	.LFE7:
 205              		.section	.text.rtc_alarm_config,"ax",@progbits
 206              		.align	1
 207              		.globl	rtc_alarm_config
 209              	rtc_alarm_config:
 210              	.LFB8:
 126:../../firmware/GD32VF103_standard_peripheral/Source/gd32vf103_rtc.c **** 
 127:../../firmware/GD32VF103_standard_peripheral/Source/gd32vf103_rtc.c **** /*!
 128:../../firmware/GD32VF103_standard_peripheral/Source/gd32vf103_rtc.c ****     \brief      set RTC alarm value
 129:../../firmware/GD32VF103_standard_peripheral/Source/gd32vf103_rtc.c ****     \param[in]  alarm: RTC alarm value
 130:../../firmware/GD32VF103_standard_peripheral/Source/gd32vf103_rtc.c ****     \param[out] none
 131:../../firmware/GD32VF103_standard_peripheral/Source/gd32vf103_rtc.c ****     \retval     none
 132:../../firmware/GD32VF103_standard_peripheral/Source/gd32vf103_rtc.c **** */
 133:../../firmware/GD32VF103_standard_peripheral/Source/gd32vf103_rtc.c **** void rtc_alarm_config(uint32_t alarm)
 134:../../firmware/GD32VF103_standard_peripheral/Source/gd32vf103_rtc.c **** {
 211              		.loc 1 134 1 is_stmt 1
 212              		.cfi_startproc
 213              	.LVL8:
 135:../../firmware/GD32VF103_standard_peripheral/Source/gd32vf103_rtc.c ****     rtc_configuration_mode_enter();
 214              		.loc 1 135 5
 134:../../firmware/GD32VF103_standard_peripheral/Source/gd32vf103_rtc.c ****     rtc_configuration_mode_enter();
 215              		.loc 1 134 1 is_stmt 0
 216 0000 0111     		addi	sp,sp,-32
 217              	.LCFI4:
 218              		.cfi_def_cfa_offset 32
 219 0002 06CE     		sw	ra,28(sp)
 220              		.cfi_offset 1, -4
 134:../../firmware/GD32VF103_standard_peripheral/Source/gd32vf103_rtc.c ****     rtc_configuration_mode_enter();
 221              		.loc 1 134 1
 222 0004 2AC6     		sw	a0,12(sp)
 223              		.loc 1 135 5
 224 0006 97000000 		call	rtc_configuration_mode_enter
 224      E7800000 
 225              	.LVL9:
 136:../../firmware/GD32VF103_standard_peripheral/Source/gd32vf103_rtc.c ****     /* set the alarm high bits */
 137:../../firmware/GD32VF103_standard_peripheral/Source/gd32vf103_rtc.c ****     RTC_ALRMH = (alarm >> RTC_HIGH_BITS_OFFSET);
 226              		.loc 1 137 5 is_stmt 1
 227              		.loc 1 137 24 is_stmt 0
 228 000e 3245     		lw	a0,12(sp)
 229              		.loc 1 137 15
 230 0010 B7370040 		li	a5,1073754112
 138:../../firmware/GD32VF103_standard_peripheral/Source/gd32vf103_rtc.c ****     /* set the alarm low bits */
 139:../../firmware/GD32VF103_standard_peripheral/Source/gd32vf103_rtc.c ****     RTC_ALRML = (alarm & RTC_LOW_BITS_MASK);
 140:../../firmware/GD32VF103_standard_peripheral/Source/gd32vf103_rtc.c ****     rtc_configuration_mode_exit();
 141:../../firmware/GD32VF103_standard_peripheral/Source/gd32vf103_rtc.c **** }
 231              		.loc 1 141 1
 232 0014 F240     		lw	ra,28(sp)
 233              		.cfi_restore 1
 137:../../firmware/GD32VF103_standard_peripheral/Source/gd32vf103_rtc.c ****     /* set the alarm low bits */
 234              		.loc 1 137 24
 235 0016 13570501 		srli	a4,a0,16
 139:../../firmware/GD32VF103_standard_peripheral/Source/gd32vf103_rtc.c ****     rtc_configuration_mode_exit();
 236              		.loc 1 139 24
GAS LISTING /var/folders/rt/4gvqv631095f64jvm7jfj_000000gn/T//ccmNtz5k.s 			page 8


 237 001a 4205     		slli	a0,a0,16
 137:../../firmware/GD32VF103_standard_peripheral/Source/gd32vf103_rtc.c ****     /* set the alarm low bits */
 238              		.loc 1 137 15
 239 001c 23A0E782 		sw	a4,-2016(a5)
 139:../../firmware/GD32VF103_standard_peripheral/Source/gd32vf103_rtc.c ****     rtc_configuration_mode_exit();
 240              		.loc 1 139 5 is_stmt 1
 139:../../firmware/GD32VF103_standard_peripheral/Source/gd32vf103_rtc.c ****     rtc_configuration_mode_exit();
 241              		.loc 1 139 24 is_stmt 0
 242 0020 4181     		srli	a0,a0,16
 139:../../firmware/GD32VF103_standard_peripheral/Source/gd32vf103_rtc.c ****     rtc_configuration_mode_exit();
 243              		.loc 1 139 15
 244 0022 23A2A782 		sw	a0,-2012(a5)
 140:../../firmware/GD32VF103_standard_peripheral/Source/gd32vf103_rtc.c **** }
 245              		.loc 1 140 5 is_stmt 1
 246              		.loc 1 141 1 is_stmt 0
 247 0026 0561     		addi	sp,sp,32
 248              	.LCFI5:
 249              		.cfi_def_cfa_offset 0
 250              	.LVL10:
 140:../../firmware/GD32VF103_standard_peripheral/Source/gd32vf103_rtc.c **** }
 251              		.loc 1 140 5
 252 0028 17030000 		tail	rtc_configuration_mode_exit
 252      67000300 
 253              	.LVL11:
 254              		.cfi_endproc
 255              	.LFE8:
 257              		.section	.text.rtc_counter_get,"ax",@progbits
 258              		.align	1
 259              		.globl	rtc_counter_get
 261              	rtc_counter_get:
 262              	.LFB9:
 142:../../firmware/GD32VF103_standard_peripheral/Source/gd32vf103_rtc.c **** 
 143:../../firmware/GD32VF103_standard_peripheral/Source/gd32vf103_rtc.c **** /*!
 144:../../firmware/GD32VF103_standard_peripheral/Source/gd32vf103_rtc.c ****     \brief      get RTC counter value
 145:../../firmware/GD32VF103_standard_peripheral/Source/gd32vf103_rtc.c ****     \param[in]  none
 146:../../firmware/GD32VF103_standard_peripheral/Source/gd32vf103_rtc.c ****     \param[out] none
 147:../../firmware/GD32VF103_standard_peripheral/Source/gd32vf103_rtc.c ****     \retval     RTC counter value
 148:../../firmware/GD32VF103_standard_peripheral/Source/gd32vf103_rtc.c **** */
 149:../../firmware/GD32VF103_standard_peripheral/Source/gd32vf103_rtc.c **** /*uint32_t rtc_counter_get(void)
 150:../../firmware/GD32VF103_standard_peripheral/Source/gd32vf103_rtc.c **** {
 151:../../firmware/GD32VF103_standard_peripheral/Source/gd32vf103_rtc.c ****     uint32_t temp = 0x0U;
 152:../../firmware/GD32VF103_standard_peripheral/Source/gd32vf103_rtc.c ****     
 153:../../firmware/GD32VF103_standard_peripheral/Source/gd32vf103_rtc.c ****     temp = RTC_CNTL;
 154:../../firmware/GD32VF103_standard_peripheral/Source/gd32vf103_rtc.c ****     temp |= (RTC_CNTH << RTC_HIGH_BITS_OFFSET);
 155:../../firmware/GD32VF103_standard_peripheral/Source/gd32vf103_rtc.c ****     return temp;
 156:../../firmware/GD32VF103_standard_peripheral/Source/gd32vf103_rtc.c **** }
 157:../../firmware/GD32VF103_standard_peripheral/Source/gd32vf103_rtc.c **** */
 158:../../firmware/GD32VF103_standard_peripheral/Source/gd32vf103_rtc.c **** /*!
 159:../../firmware/GD32VF103_standard_peripheral/Source/gd32vf103_rtc.c ****     \brief      better get RTC value
 160:../../firmware/GD32VF103_standard_peripheral/Source/gd32vf103_rtc.c ****     \param[in]  none
 161:../../firmware/GD32VF103_standard_peripheral/Source/gd32vf103_rtc.c ****     \param[out] none
 162:../../firmware/GD32VF103_standard_peripheral/Source/gd32vf103_rtc.c ****     \retval     RTC counter value
 163:../../firmware/GD32VF103_standard_peripheral/Source/gd32vf103_rtc.c **** */
 164:../../firmware/GD32VF103_standard_peripheral/Source/gd32vf103_rtc.c **** uint32_t rtc_counter_get(void)
 165:../../firmware/GD32VF103_standard_peripheral/Source/gd32vf103_rtc.c **** {
 263              		.loc 1 165 1 is_stmt 1
 264              		.cfi_startproc
GAS LISTING /var/folders/rt/4gvqv631095f64jvm7jfj_000000gn/T//ccmNtz5k.s 			page 9


 166:../../firmware/GD32VF103_standard_peripheral/Source/gd32vf103_rtc.c ****     uint32_t old_h = RTC_CNTH;
 265              		.loc 1 166 5
 266              		.loc 1 166 14 is_stmt 0
 267 0000 B7370040 		li	a5,1073754112
 268 0004 83A78781 		lw	a5,-2024(a5)
 269              	.LVL12:
 270              	.LBB2:
 167:../../firmware/GD32VF103_standard_peripheral/Source/gd32vf103_rtc.c ****     for (;;) {
 168:../../firmware/GD32VF103_standard_peripheral/Source/gd32vf103_rtc.c ****         uint32_t l = RTC_CNTL;
 271              		.loc 1 168 18
 272 0008 B7360040 		li	a3,1073754112
 273              	.LVL13:
 274              	.L18:
 275              	.LBE2:
 167:../../firmware/GD32VF103_standard_peripheral/Source/gd32vf103_rtc.c ****     for (;;) {
 276              		.loc 1 167 5 is_stmt 1
 277              	.LBB4:
 278              		.loc 1 168 9
 279              		.loc 1 168 18 is_stmt 0
 280 000c 03A5C681 		lw	a0,-2020(a3)
 281              	.LVL14:
 169:../../firmware/GD32VF103_standard_peripheral/Source/gd32vf103_rtc.c ****         uint32_t h = RTC_CNTH;
 282              		.loc 1 169 9 is_stmt 1
 283              		.loc 1 169 18 is_stmt 0
 284 0010 03A78681 		lw	a4,-2024(a3)
 285              	.LVL15:
 170:../../firmware/GD32VF103_standard_peripheral/Source/gd32vf103_rtc.c ****         if (h == old_h) {
 286              		.loc 1 170 9 is_stmt 1
 287              		.loc 1 170 12 is_stmt 0
 288 0014 6395E700 		bne	a5,a4,.L19
 289              	.LBB3:
 171:../../firmware/GD32VF103_standard_peripheral/Source/gd32vf103_rtc.c ****             uint32_t r = (h << 16) | l;
 290              		.loc 1 171 13 is_stmt 1
 291              	.LVL16:
 172:../../firmware/GD32VF103_standard_peripheral/Source/gd32vf103_rtc.c ****             return r;
 292              		.loc 1 172 13
 171:../../firmware/GD32VF103_standard_peripheral/Source/gd32vf103_rtc.c ****             uint32_t r = (h << 16) | l;
 293              		.loc 1 171 29 is_stmt 0
 294 0018 C207     		slli	a5,a5,16
 295              	.LVL17:
 296              	.LBE3:
 297              	.LBE4:
 173:../../firmware/GD32VF103_standard_peripheral/Source/gd32vf103_rtc.c ****         }
 174:../../firmware/GD32VF103_standard_peripheral/Source/gd32vf103_rtc.c ****         old_h = h;
 175:../../firmware/GD32VF103_standard_peripheral/Source/gd32vf103_rtc.c ****     }
 176:../../firmware/GD32VF103_standard_peripheral/Source/gd32vf103_rtc.c **** }
 298              		.loc 1 176 1
 299 001a 5D8D     		or	a0,a5,a0
 300              	.LVL18:
 301 001c 8280     		ret
 302              	.LVL19:
 303              	.L19:
 304              	.LBB5:
 305 001e BA87     		mv	a5,a4
 306              	.LVL20:
 307 0020 F5B7     		j	.L18
 308              	.LBE5:
GAS LISTING /var/folders/rt/4gvqv631095f64jvm7jfj_000000gn/T//ccmNtz5k.s 			page 10


 309              		.cfi_endproc
 310              	.LFE9:
 312              		.section	.text.rtc_divider_get,"ax",@progbits
 313              		.align	1
 314              		.globl	rtc_divider_get
 316              	rtc_divider_get:
 317              	.LFB10:
 177:../../firmware/GD32VF103_standard_peripheral/Source/gd32vf103_rtc.c **** 
 178:../../firmware/GD32VF103_standard_peripheral/Source/gd32vf103_rtc.c **** /*!
 179:../../firmware/GD32VF103_standard_peripheral/Source/gd32vf103_rtc.c ****     \brief      get RTC divider value
 180:../../firmware/GD32VF103_standard_peripheral/Source/gd32vf103_rtc.c ****     \param[in]  none
 181:../../firmware/GD32VF103_standard_peripheral/Source/gd32vf103_rtc.c ****     \param[out] none
 182:../../firmware/GD32VF103_standard_peripheral/Source/gd32vf103_rtc.c ****     \retval     RTC divider value
 183:../../firmware/GD32VF103_standard_peripheral/Source/gd32vf103_rtc.c **** */
 184:../../firmware/GD32VF103_standard_peripheral/Source/gd32vf103_rtc.c **** uint32_t rtc_divider_get(void)
 185:../../firmware/GD32VF103_standard_peripheral/Source/gd32vf103_rtc.c **** {
 318              		.loc 1 185 1 is_stmt 1
 319              		.cfi_startproc
 186:../../firmware/GD32VF103_standard_peripheral/Source/gd32vf103_rtc.c ****     uint32_t temp = 0x00U;
 320              		.loc 1 186 5
 321              	.LVL21:
 187:../../firmware/GD32VF103_standard_peripheral/Source/gd32vf103_rtc.c ****     
 188:../../firmware/GD32VF103_standard_peripheral/Source/gd32vf103_rtc.c ****     temp = ((RTC_DIVH & RTC_DIVH_DIV) << RTC_HIGH_BITS_OFFSET);
 322              		.loc 1 188 5
 323              		.loc 1 188 14 is_stmt 0
 324 0000 37370040 		li	a4,1073754112
 325 0004 83270781 		lw	a5,-2032(a4)
 326              		.loc 1 188 10
 327 0008 37050F00 		li	a0,983040
 328              		.loc 1 188 39
 329 000c C207     		slli	a5,a5,16
 330              		.loc 1 188 10
 331 000e E98F     		and	a5,a5,a0
 332              	.LVL22:
 189:../../firmware/GD32VF103_standard_peripheral/Source/gd32vf103_rtc.c ****     temp |= RTC_DIVL;
 333              		.loc 1 189 5 is_stmt 1
 334              		.loc 1 189 13 is_stmt 0
 335 0010 03254781 		lw	a0,-2028(a4)
 336              	.LVL23:
 190:../../firmware/GD32VF103_standard_peripheral/Source/gd32vf103_rtc.c ****     return temp;
 337              		.loc 1 190 5 is_stmt 1
 191:../../firmware/GD32VF103_standard_peripheral/Source/gd32vf103_rtc.c **** }
 338              		.loc 1 191 1 is_stmt 0
 339 0014 5D8D     		or	a0,a5,a0
 340              	.LVL24:
 341 0016 8280     		ret
 342              		.cfi_endproc
 343              	.LFE10:
 345              		.section	.text.rtc_flag_get,"ax",@progbits
 346              		.align	1
 347              		.globl	rtc_flag_get
 349              	rtc_flag_get:
 350              	.LFB11:
 192:../../firmware/GD32VF103_standard_peripheral/Source/gd32vf103_rtc.c **** 
 193:../../firmware/GD32VF103_standard_peripheral/Source/gd32vf103_rtc.c **** /*!
 194:../../firmware/GD32VF103_standard_peripheral/Source/gd32vf103_rtc.c ****     \brief      get RTC flag status 
 195:../../firmware/GD32VF103_standard_peripheral/Source/gd32vf103_rtc.c ****     \param[in]  flag: specify which flag status to get
GAS LISTING /var/folders/rt/4gvqv631095f64jvm7jfj_000000gn/T//ccmNtz5k.s 			page 11


 196:../../firmware/GD32VF103_standard_peripheral/Source/gd32vf103_rtc.c ****                 only one parameter can be selected which is shown as below:
 197:../../firmware/GD32VF103_standard_peripheral/Source/gd32vf103_rtc.c ****       \arg        RTC_FLAG_SECOND: second interrupt flag
 198:../../firmware/GD32VF103_standard_peripheral/Source/gd32vf103_rtc.c ****       \arg        RTC_FLAG_ALARM: alarm interrupt flag
 199:../../firmware/GD32VF103_standard_peripheral/Source/gd32vf103_rtc.c ****       \arg        RTC_FLAG_OVERFLOW: overflow interrupt flag
 200:../../firmware/GD32VF103_standard_peripheral/Source/gd32vf103_rtc.c ****       \arg        RTC_FLAG_RSYN: registers synchronized flag
 201:../../firmware/GD32VF103_standard_peripheral/Source/gd32vf103_rtc.c ****       \arg        RTC_FLAG_LWOF: last write operation finished flag
 202:../../firmware/GD32VF103_standard_peripheral/Source/gd32vf103_rtc.c ****     \param[out] none
 203:../../firmware/GD32VF103_standard_peripheral/Source/gd32vf103_rtc.c ****     \retval     SET or RESET
 204:../../firmware/GD32VF103_standard_peripheral/Source/gd32vf103_rtc.c **** */
 205:../../firmware/GD32VF103_standard_peripheral/Source/gd32vf103_rtc.c **** FlagStatus rtc_flag_get(uint32_t flag)
 206:../../firmware/GD32VF103_standard_peripheral/Source/gd32vf103_rtc.c **** {
 351              		.loc 1 206 1 is_stmt 1
 352              		.cfi_startproc
 353              	.LVL25:
 207:../../firmware/GD32VF103_standard_peripheral/Source/gd32vf103_rtc.c ****     if(RESET != (RTC_CTL & flag)){
 354              		.loc 1 207 5
 355              		.loc 1 207 18 is_stmt 0
 356 0000 B7370040 		li	a5,1073754112
 357 0004 83A74780 		lw	a5,-2044(a5)
 358              		.loc 1 207 26
 359 0008 7D8D     		and	a0,a5,a0
 360              	.LVL26:
 208:../../firmware/GD32VF103_standard_peripheral/Source/gd32vf103_rtc.c ****         return SET;
 209:../../firmware/GD32VF103_standard_peripheral/Source/gd32vf103_rtc.c ****     }else{
 210:../../firmware/GD32VF103_standard_peripheral/Source/gd32vf103_rtc.c ****         return RESET;
 211:../../firmware/GD32VF103_standard_peripheral/Source/gd32vf103_rtc.c ****     }
 212:../../firmware/GD32VF103_standard_peripheral/Source/gd32vf103_rtc.c **** }
 361              		.loc 1 212 1
 362 000a 3335A000 		snez	a0,a0
 363 000e 8280     		ret
 364              		.cfi_endproc
 365              	.LFE11:
 367              		.section	.text.rtc_flag_clear,"ax",@progbits
 368              		.align	1
 369              		.globl	rtc_flag_clear
 371              	rtc_flag_clear:
 372              	.LFB12:
 213:../../firmware/GD32VF103_standard_peripheral/Source/gd32vf103_rtc.c **** 
 214:../../firmware/GD32VF103_standard_peripheral/Source/gd32vf103_rtc.c **** /*!
 215:../../firmware/GD32VF103_standard_peripheral/Source/gd32vf103_rtc.c ****     \brief      clear RTC flag status
 216:../../firmware/GD32VF103_standard_peripheral/Source/gd32vf103_rtc.c ****     \param[in]  flag: specify which flag status to clear
 217:../../firmware/GD32VF103_standard_peripheral/Source/gd32vf103_rtc.c ****                 one or more parameters can be selected which are shown as below:
 218:../../firmware/GD32VF103_standard_peripheral/Source/gd32vf103_rtc.c ****       \arg        RTC_FLAG_SECOND: second interrupt flag
 219:../../firmware/GD32VF103_standard_peripheral/Source/gd32vf103_rtc.c ****       \arg        RTC_FLAG_ALARM: alarm interrupt flag
 220:../../firmware/GD32VF103_standard_peripheral/Source/gd32vf103_rtc.c ****       \arg        RTC_FLAG_OVERFLOW: overflow interrupt flag
 221:../../firmware/GD32VF103_standard_peripheral/Source/gd32vf103_rtc.c ****       \arg        RTC_FLAG_RSYN: registers synchronized flag
 222:../../firmware/GD32VF103_standard_peripheral/Source/gd32vf103_rtc.c ****     \param[out] none
 223:../../firmware/GD32VF103_standard_peripheral/Source/gd32vf103_rtc.c ****     \retval     none
 224:../../firmware/GD32VF103_standard_peripheral/Source/gd32vf103_rtc.c **** */
 225:../../firmware/GD32VF103_standard_peripheral/Source/gd32vf103_rtc.c **** void rtc_flag_clear(uint32_t flag)
 226:../../firmware/GD32VF103_standard_peripheral/Source/gd32vf103_rtc.c **** {
 373              		.loc 1 226 1 is_stmt 1
 374              		.cfi_startproc
 375              	.LVL27:
 227:../../firmware/GD32VF103_standard_peripheral/Source/gd32vf103_rtc.c ****     /* clear RTC flag */
 228:../../firmware/GD32VF103_standard_peripheral/Source/gd32vf103_rtc.c ****     RTC_CTL &= ~flag;
 376              		.loc 1 228 5
GAS LISTING /var/folders/rt/4gvqv631095f64jvm7jfj_000000gn/T//ccmNtz5k.s 			page 12


 377              		.loc 1 228 13 is_stmt 0
 378 0000 B7370040 		li	a5,1073754112
 379 0004 03A74780 		lw	a4,-2044(a5)
 380              		.loc 1 228 16
 381 0008 1345F5FF 		not	a0,a0
 382              	.LVL28:
 383              		.loc 1 228 13
 384 000c 798D     		and	a0,a0,a4
 385              	.LVL29:
 386 000e 23A2A780 		sw	a0,-2044(a5)
 229:../../firmware/GD32VF103_standard_peripheral/Source/gd32vf103_rtc.c **** }
 387              		.loc 1 229 1
 388 0012 8280     		ret
 389              		.cfi_endproc
 390              	.LFE12:
 392              		.section	.text.rtc_interrupt_flag_get,"ax",@progbits
 393              		.align	1
 394              		.globl	rtc_interrupt_flag_get
 396              	rtc_interrupt_flag_get:
 397              	.LFB18:
 398              		.cfi_startproc
 399 0000 17030000 		tail	rtc_flag_get
 399      67000300 
 400              		.cfi_endproc
 401              	.LFE18:
 403              		.section	.text.rtc_interrupt_flag_clear,"ax",@progbits
 404              		.align	1
 405              		.globl	rtc_interrupt_flag_clear
 407              	rtc_interrupt_flag_clear:
 408              	.LFB20:
 409              		.cfi_startproc
 410 0000 17030000 		tail	rtc_flag_clear
 410      67000300 
 411              		.cfi_endproc
 412              	.LFE20:
 414              		.section	.text.rtc_interrupt_enable,"ax",@progbits
 415              		.align	1
 416              		.globl	rtc_interrupt_enable
 418              	rtc_interrupt_enable:
 419              	.LFB15:
 230:../../firmware/GD32VF103_standard_peripheral/Source/gd32vf103_rtc.c **** 
 231:../../firmware/GD32VF103_standard_peripheral/Source/gd32vf103_rtc.c **** /*!
 232:../../firmware/GD32VF103_standard_peripheral/Source/gd32vf103_rtc.c ****     \brief      get RTC interrupt flag status 
 233:../../firmware/GD32VF103_standard_peripheral/Source/gd32vf103_rtc.c ****     \param[in]  flag: specify which flag status to get
 234:../../firmware/GD32VF103_standard_peripheral/Source/gd32vf103_rtc.c ****                 only one parameter can be selected which is shown as below:
 235:../../firmware/GD32VF103_standard_peripheral/Source/gd32vf103_rtc.c ****       \arg        RTC_INT_FLAG_SECOND: second interrupt flag
 236:../../firmware/GD32VF103_standard_peripheral/Source/gd32vf103_rtc.c ****       \arg        RTC_INT_FLAG_ALARM: alarm interrupt flag
 237:../../firmware/GD32VF103_standard_peripheral/Source/gd32vf103_rtc.c ****       \arg        RTC_INT_FLAG_OVERFLOW: overflow interrupt flag
 238:../../firmware/GD32VF103_standard_peripheral/Source/gd32vf103_rtc.c ****     \param[out] none
 239:../../firmware/GD32VF103_standard_peripheral/Source/gd32vf103_rtc.c ****     \retval     SET or RESET
 240:../../firmware/GD32VF103_standard_peripheral/Source/gd32vf103_rtc.c **** */
 241:../../firmware/GD32VF103_standard_peripheral/Source/gd32vf103_rtc.c **** FlagStatus rtc_interrupt_flag_get(uint32_t flag)
 242:../../firmware/GD32VF103_standard_peripheral/Source/gd32vf103_rtc.c **** {
 243:../../firmware/GD32VF103_standard_peripheral/Source/gd32vf103_rtc.c ****     if(RESET != (RTC_CTL & flag)){
 244:../../firmware/GD32VF103_standard_peripheral/Source/gd32vf103_rtc.c ****         return SET;
 245:../../firmware/GD32VF103_standard_peripheral/Source/gd32vf103_rtc.c ****     }else{
 246:../../firmware/GD32VF103_standard_peripheral/Source/gd32vf103_rtc.c ****         return RESET;
GAS LISTING /var/folders/rt/4gvqv631095f64jvm7jfj_000000gn/T//ccmNtz5k.s 			page 13


 247:../../firmware/GD32VF103_standard_peripheral/Source/gd32vf103_rtc.c ****     }
 248:../../firmware/GD32VF103_standard_peripheral/Source/gd32vf103_rtc.c **** }
 249:../../firmware/GD32VF103_standard_peripheral/Source/gd32vf103_rtc.c **** 
 250:../../firmware/GD32VF103_standard_peripheral/Source/gd32vf103_rtc.c **** /*!
 251:../../firmware/GD32VF103_standard_peripheral/Source/gd32vf103_rtc.c ****     \brief      clear RTC interrupt flag status
 252:../../firmware/GD32VF103_standard_peripheral/Source/gd32vf103_rtc.c ****     \param[in]  flag: specify which flag status to clear
 253:../../firmware/GD32VF103_standard_peripheral/Source/gd32vf103_rtc.c ****                 one or more parameters can be selected which are shown as below:
 254:../../firmware/GD32VF103_standard_peripheral/Source/gd32vf103_rtc.c ****       \arg        RTC_INT_FLAG_SECOND: second interrupt flag
 255:../../firmware/GD32VF103_standard_peripheral/Source/gd32vf103_rtc.c ****       \arg        RTC_INT_FLAG_ALARM: alarm interrupt flag
 256:../../firmware/GD32VF103_standard_peripheral/Source/gd32vf103_rtc.c ****       \arg        RTC_INT_FLAG_OVERFLOW: overflow interrupt flag
 257:../../firmware/GD32VF103_standard_peripheral/Source/gd32vf103_rtc.c ****     \param[out] none
 258:../../firmware/GD32VF103_standard_peripheral/Source/gd32vf103_rtc.c ****     \retval     none
 259:../../firmware/GD32VF103_standard_peripheral/Source/gd32vf103_rtc.c **** */
 260:../../firmware/GD32VF103_standard_peripheral/Source/gd32vf103_rtc.c **** void rtc_interrupt_flag_clear(uint32_t flag)
 261:../../firmware/GD32VF103_standard_peripheral/Source/gd32vf103_rtc.c **** {
 262:../../firmware/GD32VF103_standard_peripheral/Source/gd32vf103_rtc.c ****     /* clear RTC interrupt flag */
 263:../../firmware/GD32VF103_standard_peripheral/Source/gd32vf103_rtc.c ****     RTC_CTL &= ~flag;
 264:../../firmware/GD32VF103_standard_peripheral/Source/gd32vf103_rtc.c **** }
 265:../../firmware/GD32VF103_standard_peripheral/Source/gd32vf103_rtc.c **** 
 266:../../firmware/GD32VF103_standard_peripheral/Source/gd32vf103_rtc.c **** /*!
 267:../../firmware/GD32VF103_standard_peripheral/Source/gd32vf103_rtc.c ****     \brief      enable RTC interrupt
 268:../../firmware/GD32VF103_standard_peripheral/Source/gd32vf103_rtc.c ****     \param[in]  interrupt: specify which interrupt to enbale
 269:../../firmware/GD32VF103_standard_peripheral/Source/gd32vf103_rtc.c ****                 one or more parameters can be selected which are shown as below:
 270:../../firmware/GD32VF103_standard_peripheral/Source/gd32vf103_rtc.c ****       \arg        RTC_INT_SECOND: second interrupt
 271:../../firmware/GD32VF103_standard_peripheral/Source/gd32vf103_rtc.c ****       \arg        RTC_INT_ALARM: alarm interrupt
 272:../../firmware/GD32VF103_standard_peripheral/Source/gd32vf103_rtc.c ****       \arg        RTC_INT_OVERFLOW: overflow interrupt
 273:../../firmware/GD32VF103_standard_peripheral/Source/gd32vf103_rtc.c ****     \param[out] none
 274:../../firmware/GD32VF103_standard_peripheral/Source/gd32vf103_rtc.c ****     \retval     none
 275:../../firmware/GD32VF103_standard_peripheral/Source/gd32vf103_rtc.c **** */
 276:../../firmware/GD32VF103_standard_peripheral/Source/gd32vf103_rtc.c **** void rtc_interrupt_enable(uint32_t interrupt)
 277:../../firmware/GD32VF103_standard_peripheral/Source/gd32vf103_rtc.c **** {
 420              		.loc 1 277 1 is_stmt 1
 421              		.cfi_startproc
 422              	.LVL30:
 278:../../firmware/GD32VF103_standard_peripheral/Source/gd32vf103_rtc.c ****     RTC_INTEN |= interrupt;
 423              		.loc 1 278 5
 424              		.loc 1 278 15 is_stmt 0
 425 0000 37370040 		li	a4,1073754112
 426 0004 83270780 		lw	a5,-2048(a4)
 427 0008 5D8D     		or	a0,a5,a0
 428              	.LVL31:
 429 000a 2320A780 		sw	a0,-2048(a4)
 279:../../firmware/GD32VF103_standard_peripheral/Source/gd32vf103_rtc.c **** }
 430              		.loc 1 279 1
 431 000e 8280     		ret
 432              		.cfi_endproc
 433              	.LFE15:
 435              		.section	.text.rtc_interrupt_disable,"ax",@progbits
 436              		.align	1
 437              		.globl	rtc_interrupt_disable
 439              	rtc_interrupt_disable:
 440              	.LFB16:
 280:../../firmware/GD32VF103_standard_peripheral/Source/gd32vf103_rtc.c **** 
 281:../../firmware/GD32VF103_standard_peripheral/Source/gd32vf103_rtc.c **** /*!
 282:../../firmware/GD32VF103_standard_peripheral/Source/gd32vf103_rtc.c ****     \brief      disable RTC interrupt
 283:../../firmware/GD32VF103_standard_peripheral/Source/gd32vf103_rtc.c ****     \param[in]  interrupt: specify which interrupt to disbale
 284:../../firmware/GD32VF103_standard_peripheral/Source/gd32vf103_rtc.c ****                 one or more parameters can be selected which are shown as below:
GAS LISTING /var/folders/rt/4gvqv631095f64jvm7jfj_000000gn/T//ccmNtz5k.s 			page 14


 285:../../firmware/GD32VF103_standard_peripheral/Source/gd32vf103_rtc.c ****       \arg        RTC_INT_SECOND: second interrupt
 286:../../firmware/GD32VF103_standard_peripheral/Source/gd32vf103_rtc.c ****       \arg        RTC_INT_ALARM: alarm interrupt
 287:../../firmware/GD32VF103_standard_peripheral/Source/gd32vf103_rtc.c ****       \arg        RTC_INT_OVERFLOW: overflow interrupt
 288:../../firmware/GD32VF103_standard_peripheral/Source/gd32vf103_rtc.c ****     \param[out] none
 289:../../firmware/GD32VF103_standard_peripheral/Source/gd32vf103_rtc.c ****     \retval     none
 290:../../firmware/GD32VF103_standard_peripheral/Source/gd32vf103_rtc.c **** */
 291:../../firmware/GD32VF103_standard_peripheral/Source/gd32vf103_rtc.c **** void rtc_interrupt_disable(uint32_t interrupt)
 292:../../firmware/GD32VF103_standard_peripheral/Source/gd32vf103_rtc.c **** {
 441              		.loc 1 292 1 is_stmt 1
 442              		.cfi_startproc
 443              	.LVL32:
 293:../../firmware/GD32VF103_standard_peripheral/Source/gd32vf103_rtc.c ****     RTC_INTEN &= ~interrupt;
 444              		.loc 1 293 5
 445              		.loc 1 293 15 is_stmt 0
 446 0000 B7370040 		li	a5,1073754112
 447 0004 03A70780 		lw	a4,-2048(a5)
 448              		.loc 1 293 18
 449 0008 1345F5FF 		not	a0,a0
 450              	.LVL33:
 451              		.loc 1 293 15
 452 000c 798D     		and	a0,a0,a4
 453              	.LVL34:
 454 000e 23A0A780 		sw	a0,-2048(a5)
 294:../../firmware/GD32VF103_standard_peripheral/Source/gd32vf103_rtc.c **** }
 455              		.loc 1 294 1
 456 0012 8280     		ret
 457              		.cfi_endproc
 458              	.LFE16:
 460              		.text
 461              	.Letext0:
 462              		.file 2 "/Users/alexstrae/toolchain-gd32v-v202-osx/compiler/riscv64-unknown-elf/include/machine/_d
 463              		.file 3 "/Users/alexstrae/toolchain-gd32v-v202-osx/compiler/riscv64-unknown-elf/include/sys/_stdin
 464              		.file 4 "../../firmware/GD32VF103_standard_peripheral/gd32vf103.h"
 465              		.file 5 "../../firmware/GD32VF103_standard_peripheral/system_gd32vf103.h"
GAS LISTING /var/folders/rt/4gvqv631095f64jvm7jfj_000000gn/T//ccmNtz5k.s 			page 15


DEFINED SYMBOLS
                            *ABS*:0000000000000000 gd32vf103_rtc.c
/var/folders/rt/4gvqv631095f64jvm7jfj_000000gn/T//ccmNtz5k.s:13     .text.rtc_configuration_mode_enter:0000000000000000 rtc_configuration_mode_enter
/var/folders/rt/4gvqv631095f64jvm7jfj_000000gn/T//ccmNtz5k.s:17     .text.rtc_configuration_mode_enter:0000000000000000 .L0 
/var/folders/rt/4gvqv631095f64jvm7jfj_000000gn/T//ccmNtz5k.s:18     .text.rtc_configuration_mode_enter:0000000000000000 .L0 
/var/folders/rt/4gvqv631095f64jvm7jfj_000000gn/T//ccmNtz5k.s:19     .text.rtc_configuration_mode_enter:0000000000000000 .L0 
/var/folders/rt/4gvqv631095f64jvm7jfj_000000gn/T//ccmNtz5k.s:20     .text.rtc_configuration_mode_enter:0000000000000000 .L0 
/var/folders/rt/4gvqv631095f64jvm7jfj_000000gn/T//ccmNtz5k.s:25     .text.rtc_configuration_mode_enter:0000000000000010 .L0 
/var/folders/rt/4gvqv631095f64jvm7jfj_000000gn/T//ccmNtz5k.s:26     .text.rtc_configuration_mode_enter:0000000000000012 .L0 
/var/folders/rt/4gvqv631095f64jvm7jfj_000000gn/T//ccmNtz5k.s:33     .text.rtc_configuration_mode_exit:0000000000000000 rtc_configuration_mode_exit
/var/folders/rt/4gvqv631095f64jvm7jfj_000000gn/T//ccmNtz5k.s:36     .text.rtc_configuration_mode_exit:0000000000000000 .L0 
/var/folders/rt/4gvqv631095f64jvm7jfj_000000gn/T//ccmNtz5k.s:37     .text.rtc_configuration_mode_exit:0000000000000000 .L0 
/var/folders/rt/4gvqv631095f64jvm7jfj_000000gn/T//ccmNtz5k.s:38     .text.rtc_configuration_mode_exit:0000000000000000 .L0 
/var/folders/rt/4gvqv631095f64jvm7jfj_000000gn/T//ccmNtz5k.s:39     .text.rtc_configuration_mode_exit:0000000000000000 .L0 
/var/folders/rt/4gvqv631095f64jvm7jfj_000000gn/T//ccmNtz5k.s:44     .text.rtc_configuration_mode_exit:000000000000000e .L0 
/var/folders/rt/4gvqv631095f64jvm7jfj_000000gn/T//ccmNtz5k.s:45     .text.rtc_configuration_mode_exit:0000000000000010 .L0 
/var/folders/rt/4gvqv631095f64jvm7jfj_000000gn/T//ccmNtz5k.s:52     .text.rtc_counter_set:0000000000000000 rtc_counter_set
/var/folders/rt/4gvqv631095f64jvm7jfj_000000gn/T//ccmNtz5k.s:55     .text.rtc_counter_set:0000000000000000 .L0 
/var/folders/rt/4gvqv631095f64jvm7jfj_000000gn/T//ccmNtz5k.s:57     .text.rtc_counter_set:0000000000000000 .L0 
/var/folders/rt/4gvqv631095f64jvm7jfj_000000gn/T//ccmNtz5k.s:58     .text.rtc_counter_set:0000000000000000 .L0 
/var/folders/rt/4gvqv631095f64jvm7jfj_000000gn/T//ccmNtz5k.s:59     .text.rtc_counter_set:0000000000000000 .L0 
/var/folders/rt/4gvqv631095f64jvm7jfj_000000gn/T//ccmNtz5k.s:61     .text.rtc_counter_set:0000000000000002 .L0 
/var/folders/rt/4gvqv631095f64jvm7jfj_000000gn/T//ccmNtz5k.s:63     .text.rtc_counter_set:0000000000000004 .L0 
/var/folders/rt/4gvqv631095f64jvm7jfj_000000gn/T//ccmNtz5k.s:65     .text.rtc_counter_set:0000000000000004 .L0 
/var/folders/rt/4gvqv631095f64jvm7jfj_000000gn/T//ccmNtz5k.s:67     .text.rtc_counter_set:0000000000000006 .L0 
/var/folders/rt/4gvqv631095f64jvm7jfj_000000gn/T//ccmNtz5k.s:70     .text.rtc_counter_set:000000000000000e .L0 
/var/folders/rt/4gvqv631095f64jvm7jfj_000000gn/T//ccmNtz5k.s:71     .text.rtc_counter_set:000000000000000e .L0 
/var/folders/rt/4gvqv631095f64jvm7jfj_000000gn/T//ccmNtz5k.s:73     .text.rtc_counter_set:0000000000000010 .L0 
/var/folders/rt/4gvqv631095f64jvm7jfj_000000gn/T//ccmNtz5k.s:75     .text.rtc_counter_set:0000000000000014 .L0 
/var/folders/rt/4gvqv631095f64jvm7jfj_000000gn/T//ccmNtz5k.s:76     .text.rtc_counter_set:0000000000000016 .L0 
/var/folders/rt/4gvqv631095f64jvm7jfj_000000gn/T//ccmNtz5k.s:78     .text.rtc_counter_set:0000000000000016 .L0 
/var/folders/rt/4gvqv631095f64jvm7jfj_000000gn/T//ccmNtz5k.s:80     .text.rtc_counter_set:000000000000001a .L0 
/var/folders/rt/4gvqv631095f64jvm7jfj_000000gn/T//ccmNtz5k.s:82     .text.rtc_counter_set:000000000000001c .L0 
/var/folders/rt/4gvqv631095f64jvm7jfj_000000gn/T//ccmNtz5k.s:84     .text.rtc_counter_set:0000000000000020 .L0 
/var/folders/rt/4gvqv631095f64jvm7jfj_000000gn/T//ccmNtz5k.s:85     .text.rtc_counter_set:0000000000000020 .L0 
/var/folders/rt/4gvqv631095f64jvm7jfj_000000gn/T//ccmNtz5k.s:87     .text.rtc_counter_set:0000000000000022 .L0 
/var/folders/rt/4gvqv631095f64jvm7jfj_000000gn/T//ccmNtz5k.s:89     .text.rtc_counter_set:0000000000000026 .L0 
/var/folders/rt/4gvqv631095f64jvm7jfj_000000gn/T//ccmNtz5k.s:90     .text.rtc_counter_set:0000000000000026 .L0 
/var/folders/rt/4gvqv631095f64jvm7jfj_000000gn/T//ccmNtz5k.s:92     .text.rtc_counter_set:0000000000000028 .L0 
/var/folders/rt/4gvqv631095f64jvm7jfj_000000gn/T//ccmNtz5k.s:95     .text.rtc_counter_set:0000000000000028 .L0 
/var/folders/rt/4gvqv631095f64jvm7jfj_000000gn/T//ccmNtz5k.s:97     .text.rtc_counter_set:0000000000000030 .L0 
/var/folders/rt/4gvqv631095f64jvm7jfj_000000gn/T//ccmNtz5k.s:104    .text.rtc_prescaler_set:0000000000000000 rtc_prescaler_set
/var/folders/rt/4gvqv631095f64jvm7jfj_000000gn/T//ccmNtz5k.s:107    .text.rtc_prescaler_set:0000000000000000 .L0 
/var/folders/rt/4gvqv631095f64jvm7jfj_000000gn/T//ccmNtz5k.s:109    .text.rtc_prescaler_set:0000000000000000 .L0 
/var/folders/rt/4gvqv631095f64jvm7jfj_000000gn/T//ccmNtz5k.s:110    .text.rtc_prescaler_set:0000000000000000 .L0 
/var/folders/rt/4gvqv631095f64jvm7jfj_000000gn/T//ccmNtz5k.s:111    .text.rtc_prescaler_set:0000000000000000 .L0 
/var/folders/rt/4gvqv631095f64jvm7jfj_000000gn/T//ccmNtz5k.s:113    .text.rtc_prescaler_set:0000000000000002 .L0 
/var/folders/rt/4gvqv631095f64jvm7jfj_000000gn/T//ccmNtz5k.s:115    .text.rtc_prescaler_set:0000000000000004 .L0 
/var/folders/rt/4gvqv631095f64jvm7jfj_000000gn/T//ccmNtz5k.s:117    .text.rtc_prescaler_set:0000000000000004 .L0 
/var/folders/rt/4gvqv631095f64jvm7jfj_000000gn/T//ccmNtz5k.s:119    .text.rtc_prescaler_set:0000000000000006 .L0 
/var/folders/rt/4gvqv631095f64jvm7jfj_000000gn/T//ccmNtz5k.s:122    .text.rtc_prescaler_set:000000000000000e .L0 
/var/folders/rt/4gvqv631095f64jvm7jfj_000000gn/T//ccmNtz5k.s:123    .text.rtc_prescaler_set:000000000000000e .L0 
/var/folders/rt/4gvqv631095f64jvm7jfj_000000gn/T//ccmNtz5k.s:125    .text.rtc_prescaler_set:0000000000000010 .L0 
/var/folders/rt/4gvqv631095f64jvm7jfj_000000gn/T//ccmNtz5k.s:127    .text.rtc_prescaler_set:0000000000000014 .L0 
/var/folders/rt/4gvqv631095f64jvm7jfj_000000gn/T//ccmNtz5k.s:128    .text.rtc_prescaler_set:0000000000000016 .L0 
/var/folders/rt/4gvqv631095f64jvm7jfj_000000gn/T//ccmNtz5k.s:130    .text.rtc_prescaler_set:0000000000000016 .L0 
/var/folders/rt/4gvqv631095f64jvm7jfj_000000gn/T//ccmNtz5k.s:133    .text.rtc_prescaler_set:000000000000001c .L0 
GAS LISTING /var/folders/rt/4gvqv631095f64jvm7jfj_000000gn/T//ccmNtz5k.s 			page 16


/var/folders/rt/4gvqv631095f64jvm7jfj_000000gn/T//ccmNtz5k.s:135    .text.rtc_prescaler_set:000000000000001e .L0 
/var/folders/rt/4gvqv631095f64jvm7jfj_000000gn/T//ccmNtz5k.s:137    .text.rtc_prescaler_set:0000000000000022 .L0 
/var/folders/rt/4gvqv631095f64jvm7jfj_000000gn/T//ccmNtz5k.s:138    .text.rtc_prescaler_set:0000000000000022 .L0 
/var/folders/rt/4gvqv631095f64jvm7jfj_000000gn/T//ccmNtz5k.s:140    .text.rtc_prescaler_set:0000000000000024 .L0 
/var/folders/rt/4gvqv631095f64jvm7jfj_000000gn/T//ccmNtz5k.s:142    .text.rtc_prescaler_set:0000000000000028 .L0 
/var/folders/rt/4gvqv631095f64jvm7jfj_000000gn/T//ccmNtz5k.s:143    .text.rtc_prescaler_set:0000000000000028 .L0 
/var/folders/rt/4gvqv631095f64jvm7jfj_000000gn/T//ccmNtz5k.s:145    .text.rtc_prescaler_set:000000000000002a .L0 
/var/folders/rt/4gvqv631095f64jvm7jfj_000000gn/T//ccmNtz5k.s:148    .text.rtc_prescaler_set:000000000000002a .L0 
/var/folders/rt/4gvqv631095f64jvm7jfj_000000gn/T//ccmNtz5k.s:150    .text.rtc_prescaler_set:0000000000000032 .L0 
/var/folders/rt/4gvqv631095f64jvm7jfj_000000gn/T//ccmNtz5k.s:157    .text.rtc_lwoff_wait:0000000000000000 rtc_lwoff_wait
/var/folders/rt/4gvqv631095f64jvm7jfj_000000gn/T//ccmNtz5k.s:160    .text.rtc_lwoff_wait:0000000000000000 .L0 
/var/folders/rt/4gvqv631095f64jvm7jfj_000000gn/T//ccmNtz5k.s:161    .text.rtc_lwoff_wait:0000000000000000 .L0 
/var/folders/rt/4gvqv631095f64jvm7jfj_000000gn/T//ccmNtz5k.s:162    .text.rtc_lwoff_wait:0000000000000000 .L0 
/var/folders/rt/4gvqv631095f64jvm7jfj_000000gn/T//ccmNtz5k.s:163    .text.rtc_lwoff_wait:0000000000000000 .L0 
/var/folders/rt/4gvqv631095f64jvm7jfj_000000gn/T//ccmNtz5k.s:166    .text.rtc_lwoff_wait:0000000000000004 .L0 
/var/folders/rt/4gvqv631095f64jvm7jfj_000000gn/T//ccmNtz5k.s:167    .text.rtc_lwoff_wait:0000000000000004 .L0 
/var/folders/rt/4gvqv631095f64jvm7jfj_000000gn/T//ccmNtz5k.s:169    .text.rtc_lwoff_wait:0000000000000008 .L0 
/var/folders/rt/4gvqv631095f64jvm7jfj_000000gn/T//ccmNtz5k.s:171    .text.rtc_lwoff_wait:000000000000000c .L0 
/var/folders/rt/4gvqv631095f64jvm7jfj_000000gn/T//ccmNtz5k.s:173    .text.rtc_lwoff_wait:000000000000000e .L0 
/var/folders/rt/4gvqv631095f64jvm7jfj_000000gn/T//ccmNtz5k.s:174    .text.rtc_lwoff_wait:0000000000000010 .L0 
/var/folders/rt/4gvqv631095f64jvm7jfj_000000gn/T//ccmNtz5k.s:181    .text.rtc_register_sync_wait:0000000000000000 rtc_register_sync_wait
/var/folders/rt/4gvqv631095f64jvm7jfj_000000gn/T//ccmNtz5k.s:184    .text.rtc_register_sync_wait:0000000000000000 .L0 
/var/folders/rt/4gvqv631095f64jvm7jfj_000000gn/T//ccmNtz5k.s:185    .text.rtc_register_sync_wait:0000000000000000 .L0 
/var/folders/rt/4gvqv631095f64jvm7jfj_000000gn/T//ccmNtz5k.s:186    .text.rtc_register_sync_wait:0000000000000000 .L0 
/var/folders/rt/4gvqv631095f64jvm7jfj_000000gn/T//ccmNtz5k.s:187    .text.rtc_register_sync_wait:0000000000000000 .L0 
/var/folders/rt/4gvqv631095f64jvm7jfj_000000gn/T//ccmNtz5k.s:193    .text.rtc_register_sync_wait:000000000000000e .L0 
/var/folders/rt/4gvqv631095f64jvm7jfj_000000gn/T//ccmNtz5k.s:194    .text.rtc_register_sync_wait:000000000000000e .L0 
/var/folders/rt/4gvqv631095f64jvm7jfj_000000gn/T//ccmNtz5k.s:195    .text.rtc_register_sync_wait:000000000000000e .L0 
/var/folders/rt/4gvqv631095f64jvm7jfj_000000gn/T//ccmNtz5k.s:197    .text.rtc_register_sync_wait:0000000000000012 .L0 
/var/folders/rt/4gvqv631095f64jvm7jfj_000000gn/T//ccmNtz5k.s:199    .text.rtc_register_sync_wait:0000000000000014 .L0 
/var/folders/rt/4gvqv631095f64jvm7jfj_000000gn/T//ccmNtz5k.s:201    .text.rtc_register_sync_wait:0000000000000016 .L0 
/var/folders/rt/4gvqv631095f64jvm7jfj_000000gn/T//ccmNtz5k.s:202    .text.rtc_register_sync_wait:0000000000000018 .L0 
/var/folders/rt/4gvqv631095f64jvm7jfj_000000gn/T//ccmNtz5k.s:209    .text.rtc_alarm_config:0000000000000000 rtc_alarm_config
/var/folders/rt/4gvqv631095f64jvm7jfj_000000gn/T//ccmNtz5k.s:212    .text.rtc_alarm_config:0000000000000000 .L0 
/var/folders/rt/4gvqv631095f64jvm7jfj_000000gn/T//ccmNtz5k.s:214    .text.rtc_alarm_config:0000000000000000 .L0 
/var/folders/rt/4gvqv631095f64jvm7jfj_000000gn/T//ccmNtz5k.s:215    .text.rtc_alarm_config:0000000000000000 .L0 
/var/folders/rt/4gvqv631095f64jvm7jfj_000000gn/T//ccmNtz5k.s:216    .text.rtc_alarm_config:0000000000000000 .L0 
/var/folders/rt/4gvqv631095f64jvm7jfj_000000gn/T//ccmNtz5k.s:218    .text.rtc_alarm_config:0000000000000002 .L0 
/var/folders/rt/4gvqv631095f64jvm7jfj_000000gn/T//ccmNtz5k.s:220    .text.rtc_alarm_config:0000000000000004 .L0 
/var/folders/rt/4gvqv631095f64jvm7jfj_000000gn/T//ccmNtz5k.s:222    .text.rtc_alarm_config:0000000000000004 .L0 
/var/folders/rt/4gvqv631095f64jvm7jfj_000000gn/T//ccmNtz5k.s:224    .text.rtc_alarm_config:0000000000000006 .L0 
/var/folders/rt/4gvqv631095f64jvm7jfj_000000gn/T//ccmNtz5k.s:227    .text.rtc_alarm_config:000000000000000e .L0 
/var/folders/rt/4gvqv631095f64jvm7jfj_000000gn/T//ccmNtz5k.s:228    .text.rtc_alarm_config:000000000000000e .L0 
/var/folders/rt/4gvqv631095f64jvm7jfj_000000gn/T//ccmNtz5k.s:230    .text.rtc_alarm_config:0000000000000010 .L0 
/var/folders/rt/4gvqv631095f64jvm7jfj_000000gn/T//ccmNtz5k.s:232    .text.rtc_alarm_config:0000000000000014 .L0 
/var/folders/rt/4gvqv631095f64jvm7jfj_000000gn/T//ccmNtz5k.s:233    .text.rtc_alarm_config:0000000000000016 .L0 
/var/folders/rt/4gvqv631095f64jvm7jfj_000000gn/T//ccmNtz5k.s:235    .text.rtc_alarm_config:0000000000000016 .L0 
/var/folders/rt/4gvqv631095f64jvm7jfj_000000gn/T//ccmNtz5k.s:237    .text.rtc_alarm_config:000000000000001a .L0 
/var/folders/rt/4gvqv631095f64jvm7jfj_000000gn/T//ccmNtz5k.s:239    .text.rtc_alarm_config:000000000000001c .L0 
/var/folders/rt/4gvqv631095f64jvm7jfj_000000gn/T//ccmNtz5k.s:241    .text.rtc_alarm_config:0000000000000020 .L0 
/var/folders/rt/4gvqv631095f64jvm7jfj_000000gn/T//ccmNtz5k.s:242    .text.rtc_alarm_config:0000000000000020 .L0 
/var/folders/rt/4gvqv631095f64jvm7jfj_000000gn/T//ccmNtz5k.s:244    .text.rtc_alarm_config:0000000000000022 .L0 
/var/folders/rt/4gvqv631095f64jvm7jfj_000000gn/T//ccmNtz5k.s:246    .text.rtc_alarm_config:0000000000000026 .L0 
/var/folders/rt/4gvqv631095f64jvm7jfj_000000gn/T//ccmNtz5k.s:247    .text.rtc_alarm_config:0000000000000026 .L0 
/var/folders/rt/4gvqv631095f64jvm7jfj_000000gn/T//ccmNtz5k.s:249    .text.rtc_alarm_config:0000000000000028 .L0 
/var/folders/rt/4gvqv631095f64jvm7jfj_000000gn/T//ccmNtz5k.s:252    .text.rtc_alarm_config:0000000000000028 .L0 
/var/folders/rt/4gvqv631095f64jvm7jfj_000000gn/T//ccmNtz5k.s:254    .text.rtc_alarm_config:0000000000000030 .L0 
GAS LISTING /var/folders/rt/4gvqv631095f64jvm7jfj_000000gn/T//ccmNtz5k.s 			page 17


/var/folders/rt/4gvqv631095f64jvm7jfj_000000gn/T//ccmNtz5k.s:261    .text.rtc_counter_get:0000000000000000 rtc_counter_get
/var/folders/rt/4gvqv631095f64jvm7jfj_000000gn/T//ccmNtz5k.s:264    .text.rtc_counter_get:0000000000000000 .L0 
/var/folders/rt/4gvqv631095f64jvm7jfj_000000gn/T//ccmNtz5k.s:265    .text.rtc_counter_get:0000000000000000 .L0 
/var/folders/rt/4gvqv631095f64jvm7jfj_000000gn/T//ccmNtz5k.s:266    .text.rtc_counter_get:0000000000000000 .L0 
/var/folders/rt/4gvqv631095f64jvm7jfj_000000gn/T//ccmNtz5k.s:267    .text.rtc_counter_get:0000000000000000 .L0 
/var/folders/rt/4gvqv631095f64jvm7jfj_000000gn/T//ccmNtz5k.s:272    .text.rtc_counter_get:0000000000000008 .L0 
/var/folders/rt/4gvqv631095f64jvm7jfj_000000gn/T//ccmNtz5k.s:278    .text.rtc_counter_get:000000000000000c .L0 
/var/folders/rt/4gvqv631095f64jvm7jfj_000000gn/T//ccmNtz5k.s:279    .text.rtc_counter_get:000000000000000c .L0 
/var/folders/rt/4gvqv631095f64jvm7jfj_000000gn/T//ccmNtz5k.s:280    .text.rtc_counter_get:000000000000000c .L0 
/var/folders/rt/4gvqv631095f64jvm7jfj_000000gn/T//ccmNtz5k.s:283    .text.rtc_counter_get:0000000000000010 .L0 
/var/folders/rt/4gvqv631095f64jvm7jfj_000000gn/T//ccmNtz5k.s:284    .text.rtc_counter_get:0000000000000010 .L0 
/var/folders/rt/4gvqv631095f64jvm7jfj_000000gn/T//ccmNtz5k.s:287    .text.rtc_counter_get:0000000000000014 .L0 
/var/folders/rt/4gvqv631095f64jvm7jfj_000000gn/T//ccmNtz5k.s:288    .text.rtc_counter_get:0000000000000014 .L0 
/var/folders/rt/4gvqv631095f64jvm7jfj_000000gn/T//ccmNtz5k.s:292    .text.rtc_counter_get:0000000000000018 .L0 
/var/folders/rt/4gvqv631095f64jvm7jfj_000000gn/T//ccmNtz5k.s:293    .text.rtc_counter_get:0000000000000018 .L0 
/var/folders/rt/4gvqv631095f64jvm7jfj_000000gn/T//ccmNtz5k.s:294    .text.rtc_counter_get:0000000000000018 .L0 
/var/folders/rt/4gvqv631095f64jvm7jfj_000000gn/T//ccmNtz5k.s:299    .text.rtc_counter_get:000000000000001a .L0 
/var/folders/rt/4gvqv631095f64jvm7jfj_000000gn/T//ccmNtz5k.s:309    .text.rtc_counter_get:0000000000000022 .L0 
/var/folders/rt/4gvqv631095f64jvm7jfj_000000gn/T//ccmNtz5k.s:316    .text.rtc_divider_get:0000000000000000 rtc_divider_get
/var/folders/rt/4gvqv631095f64jvm7jfj_000000gn/T//ccmNtz5k.s:319    .text.rtc_divider_get:0000000000000000 .L0 
/var/folders/rt/4gvqv631095f64jvm7jfj_000000gn/T//ccmNtz5k.s:320    .text.rtc_divider_get:0000000000000000 .L0 
/var/folders/rt/4gvqv631095f64jvm7jfj_000000gn/T//ccmNtz5k.s:322    .text.rtc_divider_get:0000000000000000 .L0 
/var/folders/rt/4gvqv631095f64jvm7jfj_000000gn/T//ccmNtz5k.s:323    .text.rtc_divider_get:0000000000000000 .L0 
/var/folders/rt/4gvqv631095f64jvm7jfj_000000gn/T//ccmNtz5k.s:324    .text.rtc_divider_get:0000000000000000 .L0 
/var/folders/rt/4gvqv631095f64jvm7jfj_000000gn/T//ccmNtz5k.s:327    .text.rtc_divider_get:0000000000000008 .L0 
/var/folders/rt/4gvqv631095f64jvm7jfj_000000gn/T//ccmNtz5k.s:329    .text.rtc_divider_get:000000000000000c .L0 
/var/folders/rt/4gvqv631095f64jvm7jfj_000000gn/T//ccmNtz5k.s:331    .text.rtc_divider_get:000000000000000e .L0 
/var/folders/rt/4gvqv631095f64jvm7jfj_000000gn/T//ccmNtz5k.s:334    .text.rtc_divider_get:0000000000000010 .L0 
/var/folders/rt/4gvqv631095f64jvm7jfj_000000gn/T//ccmNtz5k.s:335    .text.rtc_divider_get:0000000000000010 .L0 
/var/folders/rt/4gvqv631095f64jvm7jfj_000000gn/T//ccmNtz5k.s:338    .text.rtc_divider_get:0000000000000014 .L0 
/var/folders/rt/4gvqv631095f64jvm7jfj_000000gn/T//ccmNtz5k.s:339    .text.rtc_divider_get:0000000000000014 .L0 
/var/folders/rt/4gvqv631095f64jvm7jfj_000000gn/T//ccmNtz5k.s:342    .text.rtc_divider_get:0000000000000018 .L0 
/var/folders/rt/4gvqv631095f64jvm7jfj_000000gn/T//ccmNtz5k.s:349    .text.rtc_flag_get:0000000000000000 rtc_flag_get
/var/folders/rt/4gvqv631095f64jvm7jfj_000000gn/T//ccmNtz5k.s:352    .text.rtc_flag_get:0000000000000000 .L0 
/var/folders/rt/4gvqv631095f64jvm7jfj_000000gn/T//ccmNtz5k.s:354    .text.rtc_flag_get:0000000000000000 .L0 
/var/folders/rt/4gvqv631095f64jvm7jfj_000000gn/T//ccmNtz5k.s:355    .text.rtc_flag_get:0000000000000000 .L0 
/var/folders/rt/4gvqv631095f64jvm7jfj_000000gn/T//ccmNtz5k.s:356    .text.rtc_flag_get:0000000000000000 .L0 
/var/folders/rt/4gvqv631095f64jvm7jfj_000000gn/T//ccmNtz5k.s:359    .text.rtc_flag_get:0000000000000008 .L0 
/var/folders/rt/4gvqv631095f64jvm7jfj_000000gn/T//ccmNtz5k.s:362    .text.rtc_flag_get:000000000000000a .L0 
/var/folders/rt/4gvqv631095f64jvm7jfj_000000gn/T//ccmNtz5k.s:364    .text.rtc_flag_get:0000000000000010 .L0 
/var/folders/rt/4gvqv631095f64jvm7jfj_000000gn/T//ccmNtz5k.s:371    .text.rtc_flag_clear:0000000000000000 rtc_flag_clear
/var/folders/rt/4gvqv631095f64jvm7jfj_000000gn/T//ccmNtz5k.s:374    .text.rtc_flag_clear:0000000000000000 .L0 
/var/folders/rt/4gvqv631095f64jvm7jfj_000000gn/T//ccmNtz5k.s:376    .text.rtc_flag_clear:0000000000000000 .L0 
/var/folders/rt/4gvqv631095f64jvm7jfj_000000gn/T//ccmNtz5k.s:377    .text.rtc_flag_clear:0000000000000000 .L0 
/var/folders/rt/4gvqv631095f64jvm7jfj_000000gn/T//ccmNtz5k.s:378    .text.rtc_flag_clear:0000000000000000 .L0 
/var/folders/rt/4gvqv631095f64jvm7jfj_000000gn/T//ccmNtz5k.s:381    .text.rtc_flag_clear:0000000000000008 .L0 
/var/folders/rt/4gvqv631095f64jvm7jfj_000000gn/T//ccmNtz5k.s:384    .text.rtc_flag_clear:000000000000000c .L0 
/var/folders/rt/4gvqv631095f64jvm7jfj_000000gn/T//ccmNtz5k.s:388    .text.rtc_flag_clear:0000000000000012 .L0 
/var/folders/rt/4gvqv631095f64jvm7jfj_000000gn/T//ccmNtz5k.s:389    .text.rtc_flag_clear:0000000000000014 .L0 
/var/folders/rt/4gvqv631095f64jvm7jfj_000000gn/T//ccmNtz5k.s:396    .text.rtc_interrupt_flag_get:0000000000000000 rtc_interrupt_flag_get
/var/folders/rt/4gvqv631095f64jvm7jfj_000000gn/T//ccmNtz5k.s:398    .text.rtc_interrupt_flag_get:0000000000000000 .L0 
/var/folders/rt/4gvqv631095f64jvm7jfj_000000gn/T//ccmNtz5k.s:400    .text.rtc_interrupt_flag_get:0000000000000008 .L0 
/var/folders/rt/4gvqv631095f64jvm7jfj_000000gn/T//ccmNtz5k.s:407    .text.rtc_interrupt_flag_clear:0000000000000000 rtc_interrupt_flag_clear
/var/folders/rt/4gvqv631095f64jvm7jfj_000000gn/T//ccmNtz5k.s:409    .text.rtc_interrupt_flag_clear:0000000000000000 .L0 
/var/folders/rt/4gvqv631095f64jvm7jfj_000000gn/T//ccmNtz5k.s:411    .text.rtc_interrupt_flag_clear:0000000000000008 .L0 
/var/folders/rt/4gvqv631095f64jvm7jfj_000000gn/T//ccmNtz5k.s:418    .text.rtc_interrupt_enable:0000000000000000 rtc_interrupt_enable
/var/folders/rt/4gvqv631095f64jvm7jfj_000000gn/T//ccmNtz5k.s:421    .text.rtc_interrupt_enable:0000000000000000 .L0 
GAS LISTING /var/folders/rt/4gvqv631095f64jvm7jfj_000000gn/T//ccmNtz5k.s 			page 18


/var/folders/rt/4gvqv631095f64jvm7jfj_000000gn/T//ccmNtz5k.s:423    .text.rtc_interrupt_enable:0000000000000000 .L0 
/var/folders/rt/4gvqv631095f64jvm7jfj_000000gn/T//ccmNtz5k.s:424    .text.rtc_interrupt_enable:0000000000000000 .L0 
/var/folders/rt/4gvqv631095f64jvm7jfj_000000gn/T//ccmNtz5k.s:425    .text.rtc_interrupt_enable:0000000000000000 .L0 
/var/folders/rt/4gvqv631095f64jvm7jfj_000000gn/T//ccmNtz5k.s:431    .text.rtc_interrupt_enable:000000000000000e .L0 
/var/folders/rt/4gvqv631095f64jvm7jfj_000000gn/T//ccmNtz5k.s:432    .text.rtc_interrupt_enable:0000000000000010 .L0 
/var/folders/rt/4gvqv631095f64jvm7jfj_000000gn/T//ccmNtz5k.s:439    .text.rtc_interrupt_disable:0000000000000000 rtc_interrupt_disable
/var/folders/rt/4gvqv631095f64jvm7jfj_000000gn/T//ccmNtz5k.s:442    .text.rtc_interrupt_disable:0000000000000000 .L0 
/var/folders/rt/4gvqv631095f64jvm7jfj_000000gn/T//ccmNtz5k.s:444    .text.rtc_interrupt_disable:0000000000000000 .L0 
/var/folders/rt/4gvqv631095f64jvm7jfj_000000gn/T//ccmNtz5k.s:445    .text.rtc_interrupt_disable:0000000000000000 .L0 
/var/folders/rt/4gvqv631095f64jvm7jfj_000000gn/T//ccmNtz5k.s:446    .text.rtc_interrupt_disable:0000000000000000 .L0 
/var/folders/rt/4gvqv631095f64jvm7jfj_000000gn/T//ccmNtz5k.s:449    .text.rtc_interrupt_disable:0000000000000008 .L0 
/var/folders/rt/4gvqv631095f64jvm7jfj_000000gn/T//ccmNtz5k.s:452    .text.rtc_interrupt_disable:000000000000000c .L0 
/var/folders/rt/4gvqv631095f64jvm7jfj_000000gn/T//ccmNtz5k.s:456    .text.rtc_interrupt_disable:0000000000000012 .L0 
/var/folders/rt/4gvqv631095f64jvm7jfj_000000gn/T//ccmNtz5k.s:457    .text.rtc_interrupt_disable:0000000000000014 .L0 
/var/folders/rt/4gvqv631095f64jvm7jfj_000000gn/T//ccmNtz5k.s:29     .text.rtc_configuration_mode_enter:0000000000000012 .L0 
/var/folders/rt/4gvqv631095f64jvm7jfj_000000gn/T//ccmNtz5k.s:48     .text.rtc_configuration_mode_exit:0000000000000010 .L0 
/var/folders/rt/4gvqv631095f64jvm7jfj_000000gn/T//ccmNtz5k.s:100    .text.rtc_counter_set:0000000000000030 .L0 
/var/folders/rt/4gvqv631095f64jvm7jfj_000000gn/T//ccmNtz5k.s:153    .text.rtc_prescaler_set:0000000000000032 .L0 
/var/folders/rt/4gvqv631095f64jvm7jfj_000000gn/T//ccmNtz5k.s:177    .text.rtc_lwoff_wait:0000000000000010 .L0 
/var/folders/rt/4gvqv631095f64jvm7jfj_000000gn/T//ccmNtz5k.s:205    .text.rtc_register_sync_wait:0000000000000018 .L0 
/var/folders/rt/4gvqv631095f64jvm7jfj_000000gn/T//ccmNtz5k.s:257    .text.rtc_alarm_config:0000000000000030 .L0 
/var/folders/rt/4gvqv631095f64jvm7jfj_000000gn/T//ccmNtz5k.s:312    .text.rtc_counter_get:0000000000000022 .L0 
/var/folders/rt/4gvqv631095f64jvm7jfj_000000gn/T//ccmNtz5k.s:345    .text.rtc_divider_get:0000000000000018 .L0 
/var/folders/rt/4gvqv631095f64jvm7jfj_000000gn/T//ccmNtz5k.s:367    .text.rtc_flag_get:0000000000000010 .L0 
/var/folders/rt/4gvqv631095f64jvm7jfj_000000gn/T//ccmNtz5k.s:392    .text.rtc_flag_clear:0000000000000014 .L0 
/var/folders/rt/4gvqv631095f64jvm7jfj_000000gn/T//ccmNtz5k.s:435    .text.rtc_interrupt_enable:0000000000000010 .L0 
/var/folders/rt/4gvqv631095f64jvm7jfj_000000gn/T//ccmNtz5k.s:460    .text.rtc_interrupt_disable:0000000000000014 .L0 
                     .debug_frame:0000000000000000 .L0 
/var/folders/rt/4gvqv631095f64jvm7jfj_000000gn/T//ccmNtz5k.s:164    .text.rtc_lwoff_wait:0000000000000004 .L8
/var/folders/rt/4gvqv631095f64jvm7jfj_000000gn/T//ccmNtz5k.s:192    .text.rtc_register_sync_wait:000000000000000e .L12
/var/folders/rt/4gvqv631095f64jvm7jfj_000000gn/T//ccmNtz5k.s:303    .text.rtc_counter_get:000000000000001e .L19
/var/folders/rt/4gvqv631095f64jvm7jfj_000000gn/T//ccmNtz5k.s:274    .text.rtc_counter_get:000000000000000c .L18
/var/folders/rt/4gvqv631095f64jvm7jfj_000000gn/T//ccmNtz5k.s:896    .debug_abbrev:0000000000000000 .Ldebug_abbrev0
/var/folders/rt/4gvqv631095f64jvm7jfj_000000gn/T//ccmNtz5k.s:1736   .debug_str:000000000000020b .LASF32
/var/folders/rt/4gvqv631095f64jvm7jfj_000000gn/T//ccmNtz5k.s:1694   .debug_str:00000000000000a2 .LASF33
/var/folders/rt/4gvqv631095f64jvm7jfj_000000gn/T//ccmNtz5k.s:1744   .debug_str:00000000000002b1 .LASF34
/var/folders/rt/4gvqv631095f64jvm7jfj_000000gn/T//ccmNtz5k.s:1634   .debug_ranges:0000000000000000 .Ldebug_ranges0
/var/folders/rt/4gvqv631095f64jvm7jfj_000000gn/T//ccmNtz5k.s:1672   .debug_line:0000000000000000 .Ldebug_line0
/var/folders/rt/4gvqv631095f64jvm7jfj_000000gn/T//ccmNtz5k.s:1722   .debug_str:000000000000018e .LASF0
/var/folders/rt/4gvqv631095f64jvm7jfj_000000gn/T//ccmNtz5k.s:1728   .debug_str:00000000000001ce .LASF1
/var/folders/rt/4gvqv631095f64jvm7jfj_000000gn/T//ccmNtz5k.s:1712   .debug_str:000000000000015a .LASF2
/var/folders/rt/4gvqv631095f64jvm7jfj_000000gn/T//ccmNtz5k.s:1734   .debug_str:0000000000000201 .LASF3
/var/folders/rt/4gvqv631095f64jvm7jfj_000000gn/T//ccmNtz5k.s:1690   .debug_str:0000000000000079 .LASF4
/var/folders/rt/4gvqv631095f64jvm7jfj_000000gn/T//ccmNtz5k.s:1740   .debug_str:000000000000029c .LASF5
/var/folders/rt/4gvqv631095f64jvm7jfj_000000gn/T//ccmNtz5k.s:1716   .debug_str:0000000000000178 .LASF9
/var/folders/rt/4gvqv631095f64jvm7jfj_000000gn/T//ccmNtz5k.s:1706   .debug_str:000000000000013d .LASF6
/var/folders/rt/4gvqv631095f64jvm7jfj_000000gn/T//ccmNtz5k.s:1696   .debug_str:00000000000000e6 .LASF7
/var/folders/rt/4gvqv631095f64jvm7jfj_000000gn/T//ccmNtz5k.s:1724   .debug_str:000000000000019b .LASF8
/var/folders/rt/4gvqv631095f64jvm7jfj_000000gn/T//ccmNtz5k.s:1738   .debug_str:0000000000000293 .LASF10
/var/folders/rt/4gvqv631095f64jvm7jfj_000000gn/T//ccmNtz5k.s:1732   .debug_str:00000000000001f1 .LASF35
/var/folders/rt/4gvqv631095f64jvm7jfj_000000gn/T//ccmNtz5k.s:1710   .debug_str:0000000000000154 .LASF11
/var/folders/rt/4gvqv631095f64jvm7jfj_000000gn/T//ccmNtz5k.s:1700   .debug_str:00000000000000fe .LASF12
/var/folders/rt/4gvqv631095f64jvm7jfj_000000gn/T//ccmNtz5k.s:1742   .debug_str:00000000000002a5 .LASF13
/var/folders/rt/4gvqv631095f64jvm7jfj_000000gn/T//ccmNtz5k.s:1692   .debug_str:000000000000008c .LASF14
/var/folders/rt/4gvqv631095f64jvm7jfj_000000gn/T//ccmNtz5k.s:440    .text.rtc_interrupt_disable:0000000000000000 .LFB16
/var/folders/rt/4gvqv631095f64jvm7jfj_000000gn/T//ccmNtz5k.s:458    .text.rtc_interrupt_disable:0000000000000014 .LFE16
/var/folders/rt/4gvqv631095f64jvm7jfj_000000gn/T//ccmNtz5k.s:1698   .debug_str:00000000000000f4 .LASF16
GAS LISTING /var/folders/rt/4gvqv631095f64jvm7jfj_000000gn/T//ccmNtz5k.s 			page 19


/var/folders/rt/4gvqv631095f64jvm7jfj_000000gn/T//ccmNtz5k.s:1357   .debug_loc:0000000000000000 .LLST13
/var/folders/rt/4gvqv631095f64jvm7jfj_000000gn/T//ccmNtz5k.s:1686   .debug_str:0000000000000054 .LASF15
/var/folders/rt/4gvqv631095f64jvm7jfj_000000gn/T//ccmNtz5k.s:419    .text.rtc_interrupt_enable:0000000000000000 .LFB15
/var/folders/rt/4gvqv631095f64jvm7jfj_000000gn/T//ccmNtz5k.s:433    .text.rtc_interrupt_enable:0000000000000010 .LFE15
/var/folders/rt/4gvqv631095f64jvm7jfj_000000gn/T//ccmNtz5k.s:1378   .debug_loc:000000000000002f .LLST12
/var/folders/rt/4gvqv631095f64jvm7jfj_000000gn/T//ccmNtz5k.s:1746   .debug_str:00000000000002f4 .LASF36
/var/folders/rt/4gvqv631095f64jvm7jfj_000000gn/T//ccmNtz5k.s:1720   .debug_str:0000000000000189 .LASF17
/var/folders/rt/4gvqv631095f64jvm7jfj_000000gn/T//ccmNtz5k.s:1702   .debug_str:0000000000000109 .LASF37
/var/folders/rt/4gvqv631095f64jvm7jfj_000000gn/T//ccmNtz5k.s:1676   .debug_str:0000000000000011 .LASF18
/var/folders/rt/4gvqv631095f64jvm7jfj_000000gn/T//ccmNtz5k.s:372    .text.rtc_flag_clear:0000000000000000 .LFB12
/var/folders/rt/4gvqv631095f64jvm7jfj_000000gn/T//ccmNtz5k.s:390    .text.rtc_flag_clear:0000000000000014 .LFE12
/var/folders/rt/4gvqv631095f64jvm7jfj_000000gn/T//ccmNtz5k.s:1392   .debug_loc:0000000000000050 .LLST11
/var/folders/rt/4gvqv631095f64jvm7jfj_000000gn/T//ccmNtz5k.s:1684   .debug_str:0000000000000047 .LASF19
/var/folders/rt/4gvqv631095f64jvm7jfj_000000gn/T//ccmNtz5k.s:350    .text.rtc_flag_get:0000000000000000 .LFB11
/var/folders/rt/4gvqv631095f64jvm7jfj_000000gn/T//ccmNtz5k.s:365    .text.rtc_flag_get:0000000000000010 .LFE11
/var/folders/rt/4gvqv631095f64jvm7jfj_000000gn/T//ccmNtz5k.s:1413   .debug_loc:000000000000007f .LLST10
/var/folders/rt/4gvqv631095f64jvm7jfj_000000gn/T//ccmNtz5k.s:1714   .debug_str:0000000000000168 .LASF20
/var/folders/rt/4gvqv631095f64jvm7jfj_000000gn/T//ccmNtz5k.s:317    .text.rtc_divider_get:0000000000000000 .LFB10
/var/folders/rt/4gvqv631095f64jvm7jfj_000000gn/T//ccmNtz5k.s:343    .text.rtc_divider_get:0000000000000018 .LFE10
/var/folders/rt/4gvqv631095f64jvm7jfj_000000gn/T//ccmNtz5k.s:1708   .debug_str:000000000000014f .LASF22
/var/folders/rt/4gvqv631095f64jvm7jfj_000000gn/T//ccmNtz5k.s:1427   .debug_loc:00000000000000a0 .LLST9
/var/folders/rt/4gvqv631095f64jvm7jfj_000000gn/T//ccmNtz5k.s:1748   .debug_str:000000000000030d .LASF21
/var/folders/rt/4gvqv631095f64jvm7jfj_000000gn/T//ccmNtz5k.s:262    .text.rtc_counter_get:0000000000000000 .LFB9
/var/folders/rt/4gvqv631095f64jvm7jfj_000000gn/T//ccmNtz5k.s:310    .text.rtc_counter_get:0000000000000022 .LFE9
/var/folders/rt/4gvqv631095f64jvm7jfj_000000gn/T//ccmNtz5k.s:1718   .debug_str:0000000000000183 .LASF23
/var/folders/rt/4gvqv631095f64jvm7jfj_000000gn/T//ccmNtz5k.s:1452   .debug_loc:00000000000000da .LLST6
/var/folders/rt/4gvqv631095f64jvm7jfj_000000gn/T//ccmNtz5k.s:1463   .debug_loc:00000000000000f8 .LLST7
/var/folders/rt/4gvqv631095f64jvm7jfj_000000gn/T//ccmNtz5k.s:289    .text.rtc_counter_get:0000000000000018 .LBB3
/var/folders/rt/4gvqv631095f64jvm7jfj_000000gn/T//ccmNtz5k.s:296    .text.rtc_counter_get:000000000000001a .LBE3
/var/folders/rt/4gvqv631095f64jvm7jfj_000000gn/T//ccmNtz5k.s:1474   .debug_loc:0000000000000116 .LLST8
/var/folders/rt/4gvqv631095f64jvm7jfj_000000gn/T//ccmNtz5k.s:1674   .debug_str:0000000000000000 .LASF24
/var/folders/rt/4gvqv631095f64jvm7jfj_000000gn/T//ccmNtz5k.s:210    .text.rtc_alarm_config:0000000000000000 .LFB8
/var/folders/rt/4gvqv631095f64jvm7jfj_000000gn/T//ccmNtz5k.s:255    .text.rtc_alarm_config:0000000000000030 .LFE8
/var/folders/rt/4gvqv631095f64jvm7jfj_000000gn/T//ccmNtz5k.s:1492   .debug_loc:000000000000013b .LLST4
/var/folders/rt/4gvqv631095f64jvm7jfj_000000gn/T//ccmNtz5k.s:1682   .debug_str:0000000000000041 .LASF25
/var/folders/rt/4gvqv631095f64jvm7jfj_000000gn/T//ccmNtz5k.s:1510   .debug_loc:0000000000000167 .LLST5
/var/folders/rt/4gvqv631095f64jvm7jfj_000000gn/T//ccmNtz5k.s:225    .text.rtc_alarm_config:000000000000000e .LVL9
/var/folders/rt/4gvqv631095f64jvm7jfj_000000gn/T//ccmNtz5k.s:253    .text.rtc_alarm_config:0000000000000030 .LVL11
/var/folders/rt/4gvqv631095f64jvm7jfj_000000gn/T//ccmNtz5k.s:1730   .debug_str:00000000000001da .LASF26
/var/folders/rt/4gvqv631095f64jvm7jfj_000000gn/T//ccmNtz5k.s:182    .text.rtc_register_sync_wait:0000000000000000 .LFB7
/var/folders/rt/4gvqv631095f64jvm7jfj_000000gn/T//ccmNtz5k.s:203    .text.rtc_register_sync_wait:0000000000000018 .LFE7
/var/folders/rt/4gvqv631095f64jvm7jfj_000000gn/T//ccmNtz5k.s:1678   .debug_str:0000000000000020 .LASF27
/var/folders/rt/4gvqv631095f64jvm7jfj_000000gn/T//ccmNtz5k.s:158    .text.rtc_lwoff_wait:0000000000000000 .LFB6
/var/folders/rt/4gvqv631095f64jvm7jfj_000000gn/T//ccmNtz5k.s:175    .text.rtc_lwoff_wait:0000000000000010 .LFE6
/var/folders/rt/4gvqv631095f64jvm7jfj_000000gn/T//ccmNtz5k.s:1680   .debug_str:000000000000002f .LASF28
/var/folders/rt/4gvqv631095f64jvm7jfj_000000gn/T//ccmNtz5k.s:105    .text.rtc_prescaler_set:0000000000000000 .LFB5
/var/folders/rt/4gvqv631095f64jvm7jfj_000000gn/T//ccmNtz5k.s:151    .text.rtc_prescaler_set:0000000000000032 .LFE5
/var/folders/rt/4gvqv631095f64jvm7jfj_000000gn/T//ccmNtz5k.s:1527   .debug_loc:0000000000000192 .LLST2
/var/folders/rt/4gvqv631095f64jvm7jfj_000000gn/T//ccmNtz5k.s:1545   .debug_loc:00000000000001be .LLST3
/var/folders/rt/4gvqv631095f64jvm7jfj_000000gn/T//ccmNtz5k.s:120    .text.rtc_prescaler_set:000000000000000e .LVL5
/var/folders/rt/4gvqv631095f64jvm7jfj_000000gn/T//ccmNtz5k.s:149    .text.rtc_prescaler_set:0000000000000032 .LVL7
/var/folders/rt/4gvqv631095f64jvm7jfj_000000gn/T//ccmNtz5k.s:1688   .debug_str:0000000000000069 .LASF29
/var/folders/rt/4gvqv631095f64jvm7jfj_000000gn/T//ccmNtz5k.s:53     .text.rtc_counter_set:0000000000000000 .LFB4
/var/folders/rt/4gvqv631095f64jvm7jfj_000000gn/T//ccmNtz5k.s:98     .text.rtc_counter_set:0000000000000030 .LFE4
/var/folders/rt/4gvqv631095f64jvm7jfj_000000gn/T//ccmNtz5k.s:1562   .debug_loc:00000000000001e9 .LLST0
/var/folders/rt/4gvqv631095f64jvm7jfj_000000gn/T//ccmNtz5k.s:1580   .debug_loc:0000000000000215 .LLST1
/var/folders/rt/4gvqv631095f64jvm7jfj_000000gn/T//ccmNtz5k.s:68     .text.rtc_counter_set:000000000000000e .LVL1
GAS LISTING /var/folders/rt/4gvqv631095f64jvm7jfj_000000gn/T//ccmNtz5k.s 			page 20


/var/folders/rt/4gvqv631095f64jvm7jfj_000000gn/T//ccmNtz5k.s:96     .text.rtc_counter_set:0000000000000030 .LVL3
/var/folders/rt/4gvqv631095f64jvm7jfj_000000gn/T//ccmNtz5k.s:1726   .debug_str:00000000000001b2 .LASF30
/var/folders/rt/4gvqv631095f64jvm7jfj_000000gn/T//ccmNtz5k.s:34     .text.rtc_configuration_mode_exit:0000000000000000 .LFB3
/var/folders/rt/4gvqv631095f64jvm7jfj_000000gn/T//ccmNtz5k.s:46     .text.rtc_configuration_mode_exit:0000000000000010 .LFE3
/var/folders/rt/4gvqv631095f64jvm7jfj_000000gn/T//ccmNtz5k.s:1704   .debug_str:0000000000000120 .LASF31
/var/folders/rt/4gvqv631095f64jvm7jfj_000000gn/T//ccmNtz5k.s:14     .text.rtc_configuration_mode_enter:0000000000000000 .LFB2
/var/folders/rt/4gvqv631095f64jvm7jfj_000000gn/T//ccmNtz5k.s:27     .text.rtc_configuration_mode_enter:0000000000000012 .LFE2
/var/folders/rt/4gvqv631095f64jvm7jfj_000000gn/T//ccmNtz5k.s:443    .text.rtc_interrupt_disable:0000000000000000 .LVL32
/var/folders/rt/4gvqv631095f64jvm7jfj_000000gn/T//ccmNtz5k.s:450    .text.rtc_interrupt_disable:000000000000000c .LVL33
/var/folders/rt/4gvqv631095f64jvm7jfj_000000gn/T//ccmNtz5k.s:453    .text.rtc_interrupt_disable:000000000000000e .LVL34
/var/folders/rt/4gvqv631095f64jvm7jfj_000000gn/T//ccmNtz5k.s:422    .text.rtc_interrupt_enable:0000000000000000 .LVL30
/var/folders/rt/4gvqv631095f64jvm7jfj_000000gn/T//ccmNtz5k.s:428    .text.rtc_interrupt_enable:000000000000000a .LVL31
/var/folders/rt/4gvqv631095f64jvm7jfj_000000gn/T//ccmNtz5k.s:375    .text.rtc_flag_clear:0000000000000000 .LVL27
/var/folders/rt/4gvqv631095f64jvm7jfj_000000gn/T//ccmNtz5k.s:382    .text.rtc_flag_clear:000000000000000c .LVL28
/var/folders/rt/4gvqv631095f64jvm7jfj_000000gn/T//ccmNtz5k.s:385    .text.rtc_flag_clear:000000000000000e .LVL29
/var/folders/rt/4gvqv631095f64jvm7jfj_000000gn/T//ccmNtz5k.s:353    .text.rtc_flag_get:0000000000000000 .LVL25
/var/folders/rt/4gvqv631095f64jvm7jfj_000000gn/T//ccmNtz5k.s:360    .text.rtc_flag_get:000000000000000a .LVL26
/var/folders/rt/4gvqv631095f64jvm7jfj_000000gn/T//ccmNtz5k.s:321    .text.rtc_divider_get:0000000000000000 .LVL21
/var/folders/rt/4gvqv631095f64jvm7jfj_000000gn/T//ccmNtz5k.s:332    .text.rtc_divider_get:0000000000000010 .LVL22
/var/folders/rt/4gvqv631095f64jvm7jfj_000000gn/T//ccmNtz5k.s:336    .text.rtc_divider_get:0000000000000014 .LVL23
/var/folders/rt/4gvqv631095f64jvm7jfj_000000gn/T//ccmNtz5k.s:340    .text.rtc_divider_get:0000000000000016 .LVL24
/var/folders/rt/4gvqv631095f64jvm7jfj_000000gn/T//ccmNtz5k.s:269    .text.rtc_counter_get:0000000000000008 .LVL12
/var/folders/rt/4gvqv631095f64jvm7jfj_000000gn/T//ccmNtz5k.s:295    .text.rtc_counter_get:000000000000001a .LVL17
/var/folders/rt/4gvqv631095f64jvm7jfj_000000gn/T//ccmNtz5k.s:302    .text.rtc_counter_get:000000000000001e .LVL19
/var/folders/rt/4gvqv631095f64jvm7jfj_000000gn/T//ccmNtz5k.s:306    .text.rtc_counter_get:0000000000000020 .LVL20
/var/folders/rt/4gvqv631095f64jvm7jfj_000000gn/T//ccmNtz5k.s:281    .text.rtc_counter_get:0000000000000010 .LVL14
/var/folders/rt/4gvqv631095f64jvm7jfj_000000gn/T//ccmNtz5k.s:300    .text.rtc_counter_get:000000000000001c .LVL18
/var/folders/rt/4gvqv631095f64jvm7jfj_000000gn/T//ccmNtz5k.s:291    .text.rtc_counter_get:0000000000000018 .LVL16
/var/folders/rt/4gvqv631095f64jvm7jfj_000000gn/T//ccmNtz5k.s:217    .text.rtc_alarm_config:0000000000000002 .LCFI4
/var/folders/rt/4gvqv631095f64jvm7jfj_000000gn/T//ccmNtz5k.s:248    .text.rtc_alarm_config:0000000000000028 .LCFI5
/var/folders/rt/4gvqv631095f64jvm7jfj_000000gn/T//ccmNtz5k.s:213    .text.rtc_alarm_config:0000000000000000 .LVL8
/var/folders/rt/4gvqv631095f64jvm7jfj_000000gn/T//ccmNtz5k.s:250    .text.rtc_alarm_config:0000000000000028 .LVL10
/var/folders/rt/4gvqv631095f64jvm7jfj_000000gn/T//ccmNtz5k.s:112    .text.rtc_prescaler_set:0000000000000002 .LCFI2
/var/folders/rt/4gvqv631095f64jvm7jfj_000000gn/T//ccmNtz5k.s:144    .text.rtc_prescaler_set:000000000000002a .LCFI3
/var/folders/rt/4gvqv631095f64jvm7jfj_000000gn/T//ccmNtz5k.s:108    .text.rtc_prescaler_set:0000000000000000 .LVL4
/var/folders/rt/4gvqv631095f64jvm7jfj_000000gn/T//ccmNtz5k.s:146    .text.rtc_prescaler_set:000000000000002a .LVL6
/var/folders/rt/4gvqv631095f64jvm7jfj_000000gn/T//ccmNtz5k.s:60     .text.rtc_counter_set:0000000000000002 .LCFI0
/var/folders/rt/4gvqv631095f64jvm7jfj_000000gn/T//ccmNtz5k.s:91     .text.rtc_counter_set:0000000000000028 .LCFI1
/var/folders/rt/4gvqv631095f64jvm7jfj_000000gn/T//ccmNtz5k.s:56     .text.rtc_counter_set:0000000000000000 .LVL0
/var/folders/rt/4gvqv631095f64jvm7jfj_000000gn/T//ccmNtz5k.s:93     .text.rtc_counter_set:0000000000000028 .LVL2
/var/folders/rt/4gvqv631095f64jvm7jfj_000000gn/T//ccmNtz5k.s:467    .debug_info:0000000000000000 .Ldebug_info0
/var/folders/rt/4gvqv631095f64jvm7jfj_000000gn/T//ccmNtz5k.s:270    .text.rtc_counter_get:0000000000000008 .LBB2
/var/folders/rt/4gvqv631095f64jvm7jfj_000000gn/T//ccmNtz5k.s:275    .text.rtc_counter_get:000000000000000c .LBE2
/var/folders/rt/4gvqv631095f64jvm7jfj_000000gn/T//ccmNtz5k.s:277    .text.rtc_counter_get:000000000000000c .LBB4
/var/folders/rt/4gvqv631095f64jvm7jfj_000000gn/T//ccmNtz5k.s:297    .text.rtc_counter_get:000000000000001a .LBE4
/var/folders/rt/4gvqv631095f64jvm7jfj_000000gn/T//ccmNtz5k.s:304    .text.rtc_counter_get:000000000000001e .LBB5
/var/folders/rt/4gvqv631095f64jvm7jfj_000000gn/T//ccmNtz5k.s:308    .text.rtc_counter_get:0000000000000022 .LBE5

NO UNDEFINED SYMBOLS
