GAS LISTING /var/folders/rt/4gvqv631095f64jvm7jfj_000000gn/T//cctgDMa4.s 			page 1


   1              		.file	"handlers.c"
   2              		.option nopic
   3              		.attribute arch, "rv32i2p0_m2p0_a2p0_c2p0"
   4              		.attribute unaligned_access, 0
   5              		.attribute stack_align, 16
   6              		.text
   7              	.Ltext0:
   8              		.cfi_sections	.debug_frame
   9              		.section	.text.handle_nmi,"ax",@progbits
  10              		.align	1
  11              		.weak	handle_nmi
  13              	handle_nmi:
  14              	.LFB5:
  15              		.file 1 "../../firmware/RISCV/env_Eclipse/handlers.c"
   1:../../firmware/RISCV/env_Eclipse/handlers.c **** //See LICENSE for license details.
   2:../../firmware/RISCV/env_Eclipse/handlers.c **** #include <stdint.h>
   3:../../firmware/RISCV/env_Eclipse/handlers.c **** #include <stdio.h>
   4:../../firmware/RISCV/env_Eclipse/handlers.c **** #include <unistd.h>
   5:../../firmware/RISCV/env_Eclipse/handlers.c **** #include "riscv_encoding.h"
   6:../../firmware/RISCV/env_Eclipse/handlers.c **** #include "n200_func.h"
   7:../../firmware/RISCV/env_Eclipse/handlers.c **** 
   8:../../firmware/RISCV/env_Eclipse/handlers.c **** __attribute__((weak)) uintptr_t handle_nmi()
   9:../../firmware/RISCV/env_Eclipse/handlers.c **** {
  16              		.loc 1 9 1
  17              		.cfi_startproc
  10:../../firmware/RISCV/env_Eclipse/handlers.c ****   write(1, "nmi\n", 5);
  18              		.loc 1 10 3
  19 0000 B7050000 		lui	a1,%hi(.LC0)
   9:../../firmware/RISCV/env_Eclipse/handlers.c ****   write(1, "nmi\n", 5);
  20              		.loc 1 9 1 is_stmt 0
  21 0004 4111     		addi	sp,sp,-16
  22              	.LCFI0:
  23              		.cfi_def_cfa_offset 16
  24              		.loc 1 10 3
  25 0006 1546     		li	a2,5
  26 0008 93850500 		addi	a1,a1,%lo(.LC0)
  27 000c 0545     		li	a0,1
   9:../../firmware/RISCV/env_Eclipse/handlers.c ****   write(1, "nmi\n", 5);
  28              		.loc 1 9 1
  29 000e 06C6     		sw	ra,12(sp)
  30              		.cfi_offset 1, -4
  31              		.loc 1 10 3
  32 0010 97000000 		call	write
  32      E7800000 
  33              	.LVL0:
  11:../../firmware/RISCV/env_Eclipse/handlers.c ****   _exit(1);
  34              		.loc 1 11 3 is_stmt 1
  35 0018 0545     		li	a0,1
  36 001a 97000000 		call	_exit
  36      E7800000 
  37              	.LVL1:
  38              		.cfi_endproc
  39              	.LFE5:
  41              		.section	.text.handle_trap,"ax",@progbits
  42              		.align	1
  43              		.weak	handle_trap
  45              	handle_trap:
GAS LISTING /var/folders/rt/4gvqv631095f64jvm7jfj_000000gn/T//cctgDMa4.s 			page 2


  46              	.LFB6:
  12:../../firmware/RISCV/env_Eclipse/handlers.c ****   return 0;
  13:../../firmware/RISCV/env_Eclipse/handlers.c **** }
  14:../../firmware/RISCV/env_Eclipse/handlers.c **** 
  15:../../firmware/RISCV/env_Eclipse/handlers.c **** 
  16:../../firmware/RISCV/env_Eclipse/handlers.c **** __attribute__((weak)) uintptr_t handle_trap(uintptr_t mcause, uintptr_t sp)
  17:../../firmware/RISCV/env_Eclipse/handlers.c **** {
  47              		.loc 1 17 1
  48              		.cfi_startproc
  49              	.LVL2:
  18:../../firmware/RISCV/env_Eclipse/handlers.c ****   if((mcause & 0xFFF) == 0xFFF) {
  50              		.loc 1 18 3
  17:../../firmware/RISCV/env_Eclipse/handlers.c ****   if((mcause & 0xFFF) == 0xFFF) {
  51              		.loc 1 17 1 is_stmt 0
  52 0000 4111     		addi	sp,sp,-16
  53              	.LCFI1:
  54              		.cfi_def_cfa_offset 16
  55              		.loc 1 18 14
  56 0002 9347F5FF 		not	a5,a0
  17:../../firmware/RISCV/env_Eclipse/handlers.c ****   if((mcause & 0xFFF) == 0xFFF) {
  57              		.loc 1 17 1
  58 0006 22C4     		sw	s0,8(sp)
  59 0008 06C6     		sw	ra,12(sp)
  60              		.cfi_offset 8, -8
  61              		.cfi_offset 1, -4
  62              		.loc 1 18 5
  63 000a 13974701 		slli	a4,a5,20
  17:../../firmware/RISCV/env_Eclipse/handlers.c ****   if((mcause & 0xFFF) == 0xFFF) {
  64              		.loc 1 17 1
  65 000e 2A84     		mv	s0,a0
  66              		.loc 1 18 5
  67 0010 09E7     		bne	a4,zero,.L4
  19:../../firmware/RISCV/env_Eclipse/handlers.c ****       handle_nmi();
  68              		.loc 1 19 7 is_stmt 1
  69 0012 97000000 		call	handle_nmi
  69      E7800000 
  70              	.LVL3:
  71              	.L4:
  20:../../firmware/RISCV/env_Eclipse/handlers.c ****   }
  21:../../firmware/RISCV/env_Eclipse/handlers.c ****   write(1, "trap\n", 5);
  72              		.loc 1 21 3
  73 001a B7050000 		lui	a1,%hi(.LC1)
  74 001e 1546     		li	a2,5
  75 0020 93850500 		addi	a1,a1,%lo(.LC1)
  76 0024 0545     		li	a0,1
  77 0026 97000000 		call	write
  77      E7800000 
  78              	.LVL4:
  22:../../firmware/RISCV/env_Eclipse/handlers.c ****   //printf("In trap handler, the mcause is %d\n", mcause);
  23:../../firmware/RISCV/env_Eclipse/handlers.c ****   //printf("In trap handler, the mepc is 0x%x\n", read_csr(mepc));
  24:../../firmware/RISCV/env_Eclipse/handlers.c ****   //printf("In trap handler, the mtval is 0x%x\n", read_csr(mbadaddr));
  25:../../firmware/RISCV/env_Eclipse/handlers.c ****   _exit(mcause);
  79              		.loc 1 25 3
  80 002e 2285     		mv	a0,s0
  81 0030 97000000 		call	_exit
  81      E7800000 
  82              	.LVL5:
GAS LISTING /var/folders/rt/4gvqv631095f64jvm7jfj_000000gn/T//cctgDMa4.s 			page 3


  83              		.cfi_endproc
  84              	.LFE6:
  86              		.section	.rodata.handle_nmi.str1.4,"aMS",@progbits,1
  87              		.align	2
  88              	.LC0:
  89 0000 6E6D690A 		.string	"nmi\n"
  89      00
  90              		.section	.rodata.handle_trap.str1.4,"aMS",@progbits,1
  91              		.align	2
  92              	.LC1:
  93 0000 74726170 		.string	"trap\n"
  93      0A00
  94              		.text
  95              	.Letext0:
  96              		.file 2 "/Users/alexstrae/toolchain-gd32v-v202-osx/compiler/riscv64-unknown-elf/include/machine/_d
  97              		.file 3 "/Users/alexstrae/toolchain-gd32v-v202-osx/compiler/riscv64-unknown-elf/include/sys/_stdin
  98              		.file 4 "/Users/alexstrae/toolchain-gd32v-v202-osx/compiler/lib/gcc/riscv64-unknown-elf/8.3.0/incl
  99              		.file 5 "/Users/alexstrae/toolchain-gd32v-v202-osx/compiler/riscv64-unknown-elf/include/sys/_types
 100              		.file 6 "/Users/alexstrae/toolchain-gd32v-v202-osx/compiler/riscv64-unknown-elf/include/sys/reent.
 101              		.file 7 "/Users/alexstrae/toolchain-gd32v-v202-osx/compiler/riscv64-unknown-elf/include/sys/lock.h
 102              		.file 8 "/Users/alexstrae/toolchain-gd32v-v202-osx/compiler/riscv64-unknown-elf/include/sys/unistd
GAS LISTING /var/folders/rt/4gvqv631095f64jvm7jfj_000000gn/T//cctgDMa4.s 			page 4


DEFINED SYMBOLS
                            *ABS*:0000000000000000 handlers.c
/var/folders/rt/4gvqv631095f64jvm7jfj_000000gn/T//cctgDMa4.s:13     .text.handle_nmi:0000000000000000 handle_nmi
/var/folders/rt/4gvqv631095f64jvm7jfj_000000gn/T//cctgDMa4.s:17     .text.handle_nmi:0000000000000000 .L0 
/var/folders/rt/4gvqv631095f64jvm7jfj_000000gn/T//cctgDMa4.s:18     .text.handle_nmi:0000000000000000 .L0 
/var/folders/rt/4gvqv631095f64jvm7jfj_000000gn/T//cctgDMa4.s:19     .text.handle_nmi:0000000000000000 .L0 
/var/folders/rt/4gvqv631095f64jvm7jfj_000000gn/T//cctgDMa4.s:21     .text.handle_nmi:0000000000000004 .L0 
/var/folders/rt/4gvqv631095f64jvm7jfj_000000gn/T//cctgDMa4.s:23     .text.handle_nmi:0000000000000006 .L0 
/var/folders/rt/4gvqv631095f64jvm7jfj_000000gn/T//cctgDMa4.s:25     .text.handle_nmi:0000000000000006 .L0 
/var/folders/rt/4gvqv631095f64jvm7jfj_000000gn/T//cctgDMa4.s:29     .text.handle_nmi:000000000000000e .L0 
/var/folders/rt/4gvqv631095f64jvm7jfj_000000gn/T//cctgDMa4.s:30     .text.handle_nmi:0000000000000010 .L0 
/var/folders/rt/4gvqv631095f64jvm7jfj_000000gn/T//cctgDMa4.s:32     .text.handle_nmi:0000000000000010 .L0 
/var/folders/rt/4gvqv631095f64jvm7jfj_000000gn/T//cctgDMa4.s:35     .text.handle_nmi:0000000000000018 .L0 
/var/folders/rt/4gvqv631095f64jvm7jfj_000000gn/T//cctgDMa4.s:38     .text.handle_nmi:0000000000000022 .L0 
/var/folders/rt/4gvqv631095f64jvm7jfj_000000gn/T//cctgDMa4.s:45     .text.handle_trap:0000000000000000 handle_trap
/var/folders/rt/4gvqv631095f64jvm7jfj_000000gn/T//cctgDMa4.s:48     .text.handle_trap:0000000000000000 .L0 
/var/folders/rt/4gvqv631095f64jvm7jfj_000000gn/T//cctgDMa4.s:50     .text.handle_trap:0000000000000000 .L0 
/var/folders/rt/4gvqv631095f64jvm7jfj_000000gn/T//cctgDMa4.s:51     .text.handle_trap:0000000000000000 .L0 
/var/folders/rt/4gvqv631095f64jvm7jfj_000000gn/T//cctgDMa4.s:52     .text.handle_trap:0000000000000000 .L0 
/var/folders/rt/4gvqv631095f64jvm7jfj_000000gn/T//cctgDMa4.s:54     .text.handle_trap:0000000000000002 .L0 
/var/folders/rt/4gvqv631095f64jvm7jfj_000000gn/T//cctgDMa4.s:56     .text.handle_trap:0000000000000002 .L0 
/var/folders/rt/4gvqv631095f64jvm7jfj_000000gn/T//cctgDMa4.s:58     .text.handle_trap:0000000000000006 .L0 
/var/folders/rt/4gvqv631095f64jvm7jfj_000000gn/T//cctgDMa4.s:60     .text.handle_trap:000000000000000a .L0 
/var/folders/rt/4gvqv631095f64jvm7jfj_000000gn/T//cctgDMa4.s:61     .text.handle_trap:000000000000000a .L0 
/var/folders/rt/4gvqv631095f64jvm7jfj_000000gn/T//cctgDMa4.s:63     .text.handle_trap:000000000000000a .L0 
/var/folders/rt/4gvqv631095f64jvm7jfj_000000gn/T//cctgDMa4.s:65     .text.handle_trap:000000000000000e .L0 
/var/folders/rt/4gvqv631095f64jvm7jfj_000000gn/T//cctgDMa4.s:67     .text.handle_trap:0000000000000010 .L0 
/var/folders/rt/4gvqv631095f64jvm7jfj_000000gn/T//cctgDMa4.s:69     .text.handle_trap:0000000000000012 .L0 
/var/folders/rt/4gvqv631095f64jvm7jfj_000000gn/T//cctgDMa4.s:73     .text.handle_trap:000000000000001a .L0 
/var/folders/rt/4gvqv631095f64jvm7jfj_000000gn/T//cctgDMa4.s:80     .text.handle_trap:000000000000002e .L0 
/var/folders/rt/4gvqv631095f64jvm7jfj_000000gn/T//cctgDMa4.s:83     .text.handle_trap:0000000000000038 .L0 
/var/folders/rt/4gvqv631095f64jvm7jfj_000000gn/T//cctgDMa4.s:41     .text.handle_nmi:0000000000000022 .L0 
/var/folders/rt/4gvqv631095f64jvm7jfj_000000gn/T//cctgDMa4.s:86     .text.handle_trap:0000000000000038 .L0 
                     .debug_frame:0000000000000000 .L0 
/var/folders/rt/4gvqv631095f64jvm7jfj_000000gn/T//cctgDMa4.s:88     .rodata.handle_nmi.str1.4:0000000000000000 .LC0
/var/folders/rt/4gvqv631095f64jvm7jfj_000000gn/T//cctgDMa4.s:92     .rodata.handle_trap.str1.4:0000000000000000 .LC1
/var/folders/rt/4gvqv631095f64jvm7jfj_000000gn/T//cctgDMa4.s:71     .text.handle_trap:000000000000001a .L4
/var/folders/rt/4gvqv631095f64jvm7jfj_000000gn/T//cctgDMa4.s:1676   .debug_abbrev:0000000000000000 .Ldebug_abbrev0
/var/folders/rt/4gvqv631095f64jvm7jfj_000000gn/T//cctgDMa4.s:2533   .debug_str:0000000000000449 .LASF131
/var/folders/rt/4gvqv631095f64jvm7jfj_000000gn/T//cctgDMa4.s:2379   .debug_str:0000000000000171 .LASF132
/var/folders/rt/4gvqv631095f64jvm7jfj_000000gn/T//cctgDMa4.s:2537   .debug_str:00000000000004da .LASF133
/var/folders/rt/4gvqv631095f64jvm7jfj_000000gn/T//cctgDMa4.s:2297   .debug_ranges:0000000000000000 .Ldebug_ranges0
/var/folders/rt/4gvqv631095f64jvm7jfj_000000gn/T//cctgDMa4.s:2305   .debug_line:0000000000000000 .Ldebug_line0
/var/folders/rt/4gvqv631095f64jvm7jfj_000000gn/T//cctgDMa4.s:2343   .debug_str:00000000000000cd .LASF0
/var/folders/rt/4gvqv631095f64jvm7jfj_000000gn/T//cctgDMa4.s:2465   .debug_str:000000000000031d .LASF1
/var/folders/rt/4gvqv631095f64jvm7jfj_000000gn/T//cctgDMa4.s:2471   .debug_str:0000000000000339 .LASF2
/var/folders/rt/4gvqv631095f64jvm7jfj_000000gn/T//cctgDMa4.s:2415   .debug_str:000000000000022f .LASF3
/var/folders/rt/4gvqv631095f64jvm7jfj_000000gn/T//cctgDMa4.s:2359   .debug_str:0000000000000112 .LASF4
/var/folders/rt/4gvqv631095f64jvm7jfj_000000gn/T//cctgDMa4.s:2407   .debug_str:0000000000000209 .LASF5
/var/folders/rt/4gvqv631095f64jvm7jfj_000000gn/T//cctgDMa4.s:2341   .debug_str:00000000000000bf .LASF6
/var/folders/rt/4gvqv631095f64jvm7jfj_000000gn/T//cctgDMa4.s:2327   .debug_str:0000000000000068 .LASF7
/var/folders/rt/4gvqv631095f64jvm7jfj_000000gn/T//cctgDMa4.s:2485   .debug_str:0000000000000374 .LASF9
/var/folders/rt/4gvqv631095f64jvm7jfj_000000gn/T//cctgDMa4.s:2399   .debug_str:00000000000001e5 .LASF8
/var/folders/rt/4gvqv631095f64jvm7jfj_000000gn/T//cctgDMa4.s:2311   .debug_str:0000000000000012 .LASF10
/var/folders/rt/4gvqv631095f64jvm7jfj_000000gn/T//cctgDMa4.s:2447   .debug_str:00000000000002c4 .LASF11
/var/folders/rt/4gvqv631095f64jvm7jfj_000000gn/T//cctgDMa4.s:2429   .debug_str:000000000000027a .LASF12
/var/folders/rt/4gvqv631095f64jvm7jfj_000000gn/T//cctgDMa4.s:2459   .debug_str:00000000000002fa .LASF13
GAS LISTING /var/folders/rt/4gvqv631095f64jvm7jfj_000000gn/T//cctgDMa4.s 			page 5


/var/folders/rt/4gvqv631095f64jvm7jfj_000000gn/T//cctgDMa4.s:2517   .debug_str:000000000000040c .LASF14
/var/folders/rt/4gvqv631095f64jvm7jfj_000000gn/T//cctgDMa4.s:2555   .debug_str:000000000000056c .LASF15
/var/folders/rt/4gvqv631095f64jvm7jfj_000000gn/T//cctgDMa4.s:2425   .debug_str:000000000000026c .LASF16
/var/folders/rt/4gvqv631095f64jvm7jfj_000000gn/T//cctgDMa4.s:2401   .debug_str:00000000000001f2 .LASF17
/var/folders/rt/4gvqv631095f64jvm7jfj_000000gn/T//cctgDMa4.s:2509   .debug_str:00000000000003ea .LASF18
/var/folders/rt/4gvqv631095f64jvm7jfj_000000gn/T//cctgDMa4.s:2511   .debug_str:00000000000003f2 .LASF19
/var/folders/rt/4gvqv631095f64jvm7jfj_000000gn/T//cctgDMa4.s:2481   .debug_str:0000000000000361 .LASF20
/var/folders/rt/4gvqv631095f64jvm7jfj_000000gn/T//cctgDMa4.s:2541   .debug_str:0000000000000522 .LASF21
/var/folders/rt/4gvqv631095f64jvm7jfj_000000gn/T//cctgDMa4.s:2463   .debug_str:000000000000030b .LASF22
/var/folders/rt/4gvqv631095f64jvm7jfj_000000gn/T//cctgDMa4.s:2385   .debug_str:00000000000001a8 .LASF23
/var/folders/rt/4gvqv631095f64jvm7jfj_000000gn/T//cctgDMa4.s:2389   .debug_str:00000000000001b9 .LASF28
/var/folders/rt/4gvqv631095f64jvm7jfj_000000gn/T//cctgDMa4.s:2529   .debug_str:0000000000000436 .LASF24
/var/folders/rt/4gvqv631095f64jvm7jfj_000000gn/T//cctgDMa4.s:2501   .debug_str:00000000000003cd .LASF25
/var/folders/rt/4gvqv631095f64jvm7jfj_000000gn/T//cctgDMa4.s:2383   .debug_str:00000000000001a2 .LASF26
/var/folders/rt/4gvqv631095f64jvm7jfj_000000gn/T//cctgDMa4.s:2549   .debug_str:0000000000000557 .LASF27
/var/folders/rt/4gvqv631095f64jvm7jfj_000000gn/T//cctgDMa4.s:2397   .debug_str:00000000000001e0 .LASF29
/var/folders/rt/4gvqv631095f64jvm7jfj_000000gn/T//cctgDMa4.s:2337   .debug_str:00000000000000b0 .LASF30
/var/folders/rt/4gvqv631095f64jvm7jfj_000000gn/T//cctgDMa4.s:2523   .debug_str:0000000000000420 .LASF31
/var/folders/rt/4gvqv631095f64jvm7jfj_000000gn/T//cctgDMa4.s:2349   .debug_str:00000000000000e5 .LASF32
/var/folders/rt/4gvqv631095f64jvm7jfj_000000gn/T//cctgDMa4.s:2579   .debug_str:00000000000005d7 .LASF33
/var/folders/rt/4gvqv631095f64jvm7jfj_000000gn/T//cctgDMa4.s:2453   .debug_str:00000000000002de .LASF34
/var/folders/rt/4gvqv631095f64jvm7jfj_000000gn/T//cctgDMa4.s:2441   .debug_str:00000000000002aa .LASF35
/var/folders/rt/4gvqv631095f64jvm7jfj_000000gn/T//cctgDMa4.s:2551   .debug_str:000000000000055c .LASF36
/var/folders/rt/4gvqv631095f64jvm7jfj_000000gn/T//cctgDMa4.s:2473   .debug_str:0000000000000343 .LASF37
/var/folders/rt/4gvqv631095f64jvm7jfj_000000gn/T//cctgDMa4.s:2565   .debug_str:0000000000000597 .LASF38
/var/folders/rt/4gvqv631095f64jvm7jfj_000000gn/T//cctgDMa4.s:2353   .debug_str:00000000000000f4 .LASF39
/var/folders/rt/4gvqv631095f64jvm7jfj_000000gn/T//cctgDMa4.s:2377   .debug_str:0000000000000169 .LASF40
/var/folders/rt/4gvqv631095f64jvm7jfj_000000gn/T//cctgDMa4.s:2307   .debug_str:0000000000000000 .LASF41
/var/folders/rt/4gvqv631095f64jvm7jfj_000000gn/T//cctgDMa4.s:2535   .debug_str:00000000000004d1 .LASF42
/var/folders/rt/4gvqv631095f64jvm7jfj_000000gn/T//cctgDMa4.s:2363   .debug_str:0000000000000122 .LASF43
/var/folders/rt/4gvqv631095f64jvm7jfj_000000gn/T//cctgDMa4.s:2455   .debug_str:00000000000002e7 .LASF44
/var/folders/rt/4gvqv631095f64jvm7jfj_000000gn/T//cctgDMa4.s:2493   .debug_str:000000000000039d .LASF45
/var/folders/rt/4gvqv631095f64jvm7jfj_000000gn/T//cctgDMa4.s:2381   .debug_str:000000000000019d .LASF46
/var/folders/rt/4gvqv631095f64jvm7jfj_000000gn/T//cctgDMa4.s:2475   .debug_str:000000000000034d .LASF47
/var/folders/rt/4gvqv631095f64jvm7jfj_000000gn/T//cctgDMa4.s:2347   .debug_str:00000000000000df .LASF48
/var/folders/rt/4gvqv631095f64jvm7jfj_000000gn/T//cctgDMa4.s:2309   .debug_str:000000000000000c .LASF49
/var/folders/rt/4gvqv631095f64jvm7jfj_000000gn/T//cctgDMa4.s:2483   .debug_str:000000000000036c .LASF50
/var/folders/rt/4gvqv631095f64jvm7jfj_000000gn/T//cctgDMa4.s:2361   .debug_str:000000000000011b .LASF51
/var/folders/rt/4gvqv631095f64jvm7jfj_000000gn/T//cctgDMa4.s:2409   .debug_str:000000000000021b .LASF52
/var/folders/rt/4gvqv631095f64jvm7jfj_000000gn/T//cctgDMa4.s:2329   .debug_str:000000000000007f .LASF53
/var/folders/rt/4gvqv631095f64jvm7jfj_000000gn/T//cctgDMa4.s:2355   .debug_str:0000000000000102 .LASF54
/var/folders/rt/4gvqv631095f64jvm7jfj_000000gn/T//cctgDMa4.s:2393   .debug_str:00000000000001d0 .LASF55
/var/folders/rt/4gvqv631095f64jvm7jfj_000000gn/T//cctgDMa4.s:2439   .debug_str:00000000000002a3 .LASF56
/var/folders/rt/4gvqv631095f64jvm7jfj_000000gn/T//cctgDMa4.s:2513   .debug_str:00000000000003fa .LASF57
/var/folders/rt/4gvqv631095f64jvm7jfj_000000gn/T//cctgDMa4.s:2569   .debug_str:00000000000005b1 .LASF58
/var/folders/rt/4gvqv631095f64jvm7jfj_000000gn/T//cctgDMa4.s:2345   .debug_str:00000000000000d9 .LASF59
/var/folders/rt/4gvqv631095f64jvm7jfj_000000gn/T//cctgDMa4.s:2561   .debug_str:0000000000000589 .LASF60
/var/folders/rt/4gvqv631095f64jvm7jfj_000000gn/T//cctgDMa4.s:2367   .debug_str:0000000000000131 .LASF61
/var/folders/rt/4gvqv631095f64jvm7jfj_000000gn/T//cctgDMa4.s:2371   .debug_str:0000000000000142 .LASF62
/var/folders/rt/4gvqv631095f64jvm7jfj_000000gn/T//cctgDMa4.s:2321   .debug_str:0000000000000042 .LASF63
/var/folders/rt/4gvqv631095f64jvm7jfj_000000gn/T//cctgDMa4.s:2433   .debug_str:000000000000028c .LASF64
/var/folders/rt/4gvqv631095f64jvm7jfj_000000gn/T//cctgDMa4.s:2317   .debug_str:000000000000002d .LASF65
/var/folders/rt/4gvqv631095f64jvm7jfj_000000gn/T//cctgDMa4.s:2435   .debug_str:0000000000000292 .LASF66
/var/folders/rt/4gvqv631095f64jvm7jfj_000000gn/T//cctgDMa4.s:2503   .debug_str:00000000000003d5 .LASF67
/var/folders/rt/4gvqv631095f64jvm7jfj_000000gn/T//cctgDMa4.s:2519   .debug_str:0000000000000414 .LASF68
/var/folders/rt/4gvqv631095f64jvm7jfj_000000gn/T//cctgDMa4.s:2365   .debug_str:000000000000012a .LASF69
/var/folders/rt/4gvqv631095f64jvm7jfj_000000gn/T//cctgDMa4.s:2403   .debug_str:00000000000001f9 .LASF70
GAS LISTING /var/folders/rt/4gvqv631095f64jvm7jfj_000000gn/T//cctgDMa4.s 			page 6


/var/folders/rt/4gvqv631095f64jvm7jfj_000000gn/T//cctgDMa4.s:2387   .debug_str:00000000000001b1 .LASF71
/var/folders/rt/4gvqv631095f64jvm7jfj_000000gn/T//cctgDMa4.s:2491   .debug_str:0000000000000398 .LASF72
/var/folders/rt/4gvqv631095f64jvm7jfj_000000gn/T//cctgDMa4.s:2313   .debug_str:000000000000001c .LASF73
/var/folders/rt/4gvqv631095f64jvm7jfj_000000gn/T//cctgDMa4.s:2499   .debug_str:00000000000003b4 .LASF74
/var/folders/rt/4gvqv631095f64jvm7jfj_000000gn/T//cctgDMa4.s:2495   .debug_str:00000000000003a2 .LASF75
/var/folders/rt/4gvqv631095f64jvm7jfj_000000gn/T//cctgDMa4.s:2457   .debug_str:00000000000002ef .LASF76
/var/folders/rt/4gvqv631095f64jvm7jfj_000000gn/T//cctgDMa4.s:2497   .debug_str:00000000000003aa .LASF77
/var/folders/rt/4gvqv631095f64jvm7jfj_000000gn/T//cctgDMa4.s:2423   .debug_str:0000000000000264 .LASF78
/var/folders/rt/4gvqv631095f64jvm7jfj_000000gn/T//cctgDMa4.s:2395   .debug_str:00000000000001d6 .LASF79
/var/folders/rt/4gvqv631095f64jvm7jfj_000000gn/T//cctgDMa4.s:2577   .debug_str:00000000000005d2 .LASF80
/var/folders/rt/4gvqv631095f64jvm7jfj_000000gn/T//cctgDMa4.s:2461   .debug_str:0000000000000301 .LASF81
/var/folders/rt/4gvqv631095f64jvm7jfj_000000gn/T//cctgDMa4.s:2405   .debug_str:0000000000000201 .LASF82
/var/folders/rt/4gvqv631095f64jvm7jfj_000000gn/T//cctgDMa4.s:2369   .debug_str:000000000000013a .LASF83
/var/folders/rt/4gvqv631095f64jvm7jfj_000000gn/T//cctgDMa4.s:2467   .debug_str:000000000000032b .LASF84
/var/folders/rt/4gvqv631095f64jvm7jfj_000000gn/T//cctgDMa4.s:2417   .debug_str:0000000000000242 .LASF85
/var/folders/rt/4gvqv631095f64jvm7jfj_000000gn/T//cctgDMa4.s:2559   .debug_str:000000000000057f .LASF86
/var/folders/rt/4gvqv631095f64jvm7jfj_000000gn/T//cctgDMa4.s:2357   .debug_str:000000000000010a .LASF87
/var/folders/rt/4gvqv631095f64jvm7jfj_000000gn/T//cctgDMa4.s:2351   .debug_str:00000000000000ef .LASF88
/var/folders/rt/4gvqv631095f64jvm7jfj_000000gn/T//cctgDMa4.s:2521   .debug_str:000000000000041b .LASF89
/var/folders/rt/4gvqv631095f64jvm7jfj_000000gn/T//cctgDMa4.s:2479   .debug_str:000000000000035a .LASF90
/var/folders/rt/4gvqv631095f64jvm7jfj_000000gn/T//cctgDMa4.s:2553   .debug_str:0000000000000566 .LASF91
/var/folders/rt/4gvqv631095f64jvm7jfj_000000gn/T//cctgDMa4.s:2411   .debug_str:0000000000000221 .LASF92
/var/folders/rt/4gvqv631095f64jvm7jfj_000000gn/T//cctgDMa4.s:2477   .debug_str:0000000000000354 .LASF93
/var/folders/rt/4gvqv631095f64jvm7jfj_000000gn/T//cctgDMa4.s:2505   .debug_str:00000000000003dc .LASF94
/var/folders/rt/4gvqv631095f64jvm7jfj_000000gn/T//cctgDMa4.s:2507   .debug_str:00000000000003e4 .LASF95
/var/folders/rt/4gvqv631095f64jvm7jfj_000000gn/T//cctgDMa4.s:2527   .debug_str:0000000000000430 .LASF96
/var/folders/rt/4gvqv631095f64jvm7jfj_000000gn/T//cctgDMa4.s:2539   .debug_str:000000000000051d .LASF97
/var/folders/rt/4gvqv631095f64jvm7jfj_000000gn/T//cctgDMa4.s:2547   .debug_str:000000000000054a .LASF98
/var/folders/rt/4gvqv631095f64jvm7jfj_000000gn/T//cctgDMa4.s:2531   .debug_str:000000000000043c .LASF99
/var/folders/rt/4gvqv631095f64jvm7jfj_000000gn/T//cctgDMa4.s:2421   .debug_str:0000000000000257 .LASF100
/var/folders/rt/4gvqv631095f64jvm7jfj_000000gn/T//cctgDMa4.s:2567   .debug_str:00000000000005a2 .LASF101
/var/folders/rt/4gvqv631095f64jvm7jfj_000000gn/T//cctgDMa4.s:2391   .debug_str:00000000000001c1 .LASF102
/var/folders/rt/4gvqv631095f64jvm7jfj_000000gn/T//cctgDMa4.s:2487   .debug_str:0000000000000380 .LASF103
/var/folders/rt/4gvqv631095f64jvm7jfj_000000gn/T//cctgDMa4.s:2571   .debug_str:00000000000005b8 .LASF104
/var/folders/rt/4gvqv631095f64jvm7jfj_000000gn/T//cctgDMa4.s:2489   .debug_str:000000000000038b .LASF105
/var/folders/rt/4gvqv631095f64jvm7jfj_000000gn/T//cctgDMa4.s:2575   .debug_str:00000000000005c4 .LASF106
/var/folders/rt/4gvqv631095f64jvm7jfj_000000gn/T//cctgDMa4.s:2335   .debug_str:00000000000000a2 .LASF107
/var/folders/rt/4gvqv631095f64jvm7jfj_000000gn/T//cctgDMa4.s:2557   .debug_str:0000000000000575 .LASF108
/var/folders/rt/4gvqv631095f64jvm7jfj_000000gn/T//cctgDMa4.s:2419   .debug_str:000000000000024b .LASF109
/var/folders/rt/4gvqv631095f64jvm7jfj_000000gn/T//cctgDMa4.s:2543   .debug_str:000000000000052a .LASF110
/var/folders/rt/4gvqv631095f64jvm7jfj_000000gn/T//cctgDMa4.s:2375   .debug_str:000000000000015b .LASF111
/var/folders/rt/4gvqv631095f64jvm7jfj_000000gn/T//cctgDMa4.s:2333   .debug_str:0000000000000093 .LASF112
/var/folders/rt/4gvqv631095f64jvm7jfj_000000gn/T//cctgDMa4.s:2373   .debug_str:000000000000014a .LASF113
/var/folders/rt/4gvqv631095f64jvm7jfj_000000gn/T//cctgDMa4.s:2323   .debug_str:0000000000000048 .LASF114
/var/folders/rt/4gvqv631095f64jvm7jfj_000000gn/T//cctgDMa4.s:2325   .debug_str:0000000000000057 .LASF115
/var/folders/rt/4gvqv631095f64jvm7jfj_000000gn/T//cctgDMa4.s:2469   .debug_str:0000000000000330 .LASF116
/var/folders/rt/4gvqv631095f64jvm7jfj_000000gn/T//cctgDMa4.s:2451   .debug_str:00000000000002d7 .LASF117
/var/folders/rt/4gvqv631095f64jvm7jfj_000000gn/T//cctgDMa4.s:2443   .debug_str:00000000000002b4 .LASF118
/var/folders/rt/4gvqv631095f64jvm7jfj_000000gn/T//cctgDMa4.s:2563   .debug_str:000000000000058f .LASF119
/var/folders/rt/4gvqv631095f64jvm7jfj_000000gn/T//cctgDMa4.s:2331   .debug_str:0000000000000088 .LASF134
/var/folders/rt/4gvqv631095f64jvm7jfj_000000gn/T//cctgDMa4.s:2515   .debug_str:0000000000000400 .LASF120
/var/folders/rt/4gvqv631095f64jvm7jfj_000000gn/T//cctgDMa4.s:2545   .debug_str:0000000000000537 .LASF121
/var/folders/rt/4gvqv631095f64jvm7jfj_000000gn/T//cctgDMa4.s:2427   .debug_str:0000000000000272 .LASF122
/var/folders/rt/4gvqv631095f64jvm7jfj_000000gn/T//cctgDMa4.s:2445   .debug_str:00000000000002bd .LASF123
/var/folders/rt/4gvqv631095f64jvm7jfj_000000gn/T//cctgDMa4.s:2449   .debug_str:00000000000002d0 .LASF124
/var/folders/rt/4gvqv631095f64jvm7jfj_000000gn/T//cctgDMa4.s:2525   .debug_str:0000000000000429 .LASF125
/var/folders/rt/4gvqv631095f64jvm7jfj_000000gn/T//cctgDMa4.s:2573   .debug_str:00000000000005bd .LASF126
GAS LISTING /var/folders/rt/4gvqv631095f64jvm7jfj_000000gn/T//cctgDMa4.s 			page 7


/var/folders/rt/4gvqv631095f64jvm7jfj_000000gn/T//cctgDMa4.s:2437   .debug_str:000000000000029a .LASF127
/var/folders/rt/4gvqv631095f64jvm7jfj_000000gn/T//cctgDMa4.s:2319   .debug_str:0000000000000036 .LASF135
/var/folders/rt/4gvqv631095f64jvm7jfj_000000gn/T//cctgDMa4.s:46     .text.handle_trap:0000000000000000 .LFB6
/var/folders/rt/4gvqv631095f64jvm7jfj_000000gn/T//cctgDMa4.s:84     .text.handle_trap:0000000000000038 .LFE6
/var/folders/rt/4gvqv631095f64jvm7jfj_000000gn/T//cctgDMa4.s:2231   .debug_loc:0000000000000000 .LLST1
/var/folders/rt/4gvqv631095f64jvm7jfj_000000gn/T//cctgDMa4.s:2413   .debug_str:0000000000000228 .LASF128
/var/folders/rt/4gvqv631095f64jvm7jfj_000000gn/T//cctgDMa4.s:2244   .debug_loc:0000000000000020 .LLST2
/var/folders/rt/4gvqv631095f64jvm7jfj_000000gn/T//cctgDMa4.s:2255   .debug_loc:000000000000003e .LLST3
/var/folders/rt/4gvqv631095f64jvm7jfj_000000gn/T//cctgDMa4.s:70     .text.handle_trap:000000000000001a .LVL3
/var/folders/rt/4gvqv631095f64jvm7jfj_000000gn/T//cctgDMa4.s:78     .text.handle_trap:000000000000002e .LVL4
/var/folders/rt/4gvqv631095f64jvm7jfj_000000gn/T//cctgDMa4.s:82     .text.handle_trap:0000000000000038 .LVL5
/var/folders/rt/4gvqv631095f64jvm7jfj_000000gn/T//cctgDMa4.s:2431   .debug_str:0000000000000281 .LASF136
/var/folders/rt/4gvqv631095f64jvm7jfj_000000gn/T//cctgDMa4.s:14     .text.handle_nmi:0000000000000000 .LFB5
/var/folders/rt/4gvqv631095f64jvm7jfj_000000gn/T//cctgDMa4.s:39     .text.handle_nmi:0000000000000022 .LFE5
/var/folders/rt/4gvqv631095f64jvm7jfj_000000gn/T//cctgDMa4.s:2269   .debug_loc:000000000000005f .LLST0
/var/folders/rt/4gvqv631095f64jvm7jfj_000000gn/T//cctgDMa4.s:33     .text.handle_nmi:0000000000000018 .LVL0
/var/folders/rt/4gvqv631095f64jvm7jfj_000000gn/T//cctgDMa4.s:37     .text.handle_nmi:0000000000000022 .LVL1
/var/folders/rt/4gvqv631095f64jvm7jfj_000000gn/T//cctgDMa4.s:2315   .debug_str:0000000000000027 .LASF129
/var/folders/rt/4gvqv631095f64jvm7jfj_000000gn/T//cctgDMa4.s:2339   .debug_str:00000000000000b9 .LASF130
/var/folders/rt/4gvqv631095f64jvm7jfj_000000gn/T//cctgDMa4.s:53     .text.handle_trap:0000000000000002 .LCFI1
/var/folders/rt/4gvqv631095f64jvm7jfj_000000gn/T//cctgDMa4.s:49     .text.handle_trap:0000000000000000 .LVL2
/var/folders/rt/4gvqv631095f64jvm7jfj_000000gn/T//cctgDMa4.s:22     .text.handle_nmi:0000000000000006 .LCFI0
/var/folders/rt/4gvqv631095f64jvm7jfj_000000gn/T//cctgDMa4.s:104    .debug_info:0000000000000000 .Ldebug_info0

UNDEFINED SYMBOLS
write
_exit
