GAS LISTING /var/folders/rt/4gvqv631095f64jvm7jfj_000000gn/T//cc1i8NTO.s 			page 1


   1              		.file	"lcd_bigone.c"
   2              		.option nopic
   3              		.attribute arch, "rv32i2p0_m2p0_a2p0_c2p0"
   4              		.attribute unaligned_access, 0
   5              		.attribute stack_align, 16
   6              		.text
   7              	.Ltext0:
   8              		.cfi_sections	.debug_frame
   9              		.globl	__floatundidf
  10              		.globl	__floatunsidf
  11              		.globl	__divdf3
  12              		.globl	__muldf3
  13              		.globl	__ltdf2
  14              		.section	.text.lcd_delay_1ms,"ax",@progbits
  15              		.align	1
  16              		.globl	lcd_delay_1ms
  18              	lcd_delay_1ms:
  19              	.LFB2:
  20              		.file 1 "lcd_bigone.c"
   1:lcd_bigone.c  **** /*
   2:lcd_bigone.c  ****   Longan Nano LCD driver
   3:lcd_bigone.c  **** */
   4:lcd_bigone.c  **** 
   5:lcd_bigone.c  **** #include "lcd.h"
   6:lcd_bigone.c  **** #include "oledfont.h"
   7:lcd_bigone.c  **** 
   8:lcd_bigone.c  **** u16 BACK_COLOR;	// Background color
   9:lcd_bigone.c  **** 
  10:lcd_bigone.c  **** typedef struct{
  11:lcd_bigone.c  **** 	u8 configured;
  12:lcd_bigone.c  **** 	u8 inverted;
  13:lcd_bigone.c  **** 	u8 offset_x;
  14:lcd_bigone.c  **** 	u8 offset_y;
  15:lcd_bigone.c  **** }lcd_config_t;
  16:lcd_bigone.c  **** 
  17:lcd_bigone.c  **** lcd_config_t lcd_conf = {0};
  18:lcd_bigone.c  **** 
  19:lcd_bigone.c  **** 
  20:lcd_bigone.c  **** void lcd_delay_1ms(uint32_t count)
  21:lcd_bigone.c  **** {
  21              		.loc 1 21 1
  22              		.cfi_startproc
  23              	.LVL0:
  22:lcd_bigone.c  **** 	uint64_t start_mtime, delta_mtime;
  24              		.loc 1 22 2
  23:lcd_bigone.c  **** 
  24:lcd_bigone.c  **** 	// Don't start measuring until we see an mtime tick
  25:lcd_bigone.c  **** 	uint64_t tmp = get_timer_value();
  25              		.loc 1 25 2
  21:lcd_bigone.c  **** 	uint64_t start_mtime, delta_mtime;
  26              		.loc 1 21 1 is_stmt 0
  27 0000 7971     		addi	sp,sp,-48
  28              	.LCFI0:
  29              		.cfi_def_cfa_offset 48
  30 0002 4AD0     		sw	s2,32(sp)
  31 0004 4ECE     		sw	s3,28(sp)
  32 0006 5AC8     		sw	s6,16(sp)
GAS LISTING /var/folders/rt/4gvqv631095f64jvm7jfj_000000gn/T//cc1i8NTO.s 			page 2


  33 0008 06D6     		sw	ra,44(sp)
  34 000a 22D4     		sw	s0,40(sp)
  35 000c 26D2     		sw	s1,36(sp)
  36 000e 52CC     		sw	s4,24(sp)
  37 0010 56CA     		sw	s5,20(sp)
  38 0012 5EC6     		sw	s7,12(sp)
  39 0014 62C4     		sw	s8,8(sp)
  40 0016 66C2     		sw	s9,4(sp)
  41              		.cfi_offset 18, -16
  42              		.cfi_offset 19, -20
  43              		.cfi_offset 22, -32
  44              		.cfi_offset 1, -4
  45              		.cfi_offset 8, -8
  46              		.cfi_offset 9, -12
  47              		.cfi_offset 20, -24
  48              		.cfi_offset 21, -28
  49              		.cfi_offset 23, -36
  50              		.cfi_offset 24, -40
  51              		.cfi_offset 25, -44
  21:lcd_bigone.c  **** 	uint64_t start_mtime, delta_mtime;
  52              		.loc 1 21 1
  53 0018 2A8B     		mv	s6,a0
  54              		.loc 1 25 17
  55 001a 97000000 		call	get_timer_value
  55      E7800000 
  56              	.LVL1:
  57 0022 AA89     		mv	s3,a0
  58 0024 2E89     		mv	s2,a1
  59              	.LVL2:
  60              	.L2:
  26:lcd_bigone.c  **** 	do {
  61              		.loc 1 26 2 is_stmt 1 discriminator 1
  27:lcd_bigone.c  **** 	start_mtime = get_timer_value();
  62              		.loc 1 27 2 discriminator 1
  63              		.loc 1 27 16 is_stmt 0 discriminator 1
  64 0026 97000000 		call	get_timer_value
  64      E7800000 
  65              	.LVL3:
  66 002e AA84     		mv	s1,a0
  67 0030 2E84     		mv	s0,a1
  68              	.LVL4:
  28:lcd_bigone.c  **** 	} while (start_mtime == tmp);
  69              		.loc 1 28 2 discriminator 1
  70 0032 6394A900 		bne	s3,a0,.L3
  71 0036 E308B9FE 		beq	s2,a1,.L2
  72              	.L3:
  29:lcd_bigone.c  **** 
  30:lcd_bigone.c  **** 	do {
  31:lcd_bigone.c  **** 	delta_mtime = get_timer_value() - start_mtime;
  32:lcd_bigone.c  **** 	}while(delta_mtime <(SystemCoreClock/4000.0 *count ));
  73              		.loc 1 32 38 discriminator 1
  74 003a B7070000 		lui	a5,%hi(.LC0)
  75 003e 03A90700 		lw	s2,%lo(.LC0)(a5)
  76              	.LVL5:
  77 0042 83A94700 		lw	s3,%lo(.LC0+4)(a5)
  78 0046 B70B0000 		lui	s7,%hi(SystemCoreClock)
  79              	.L4:
GAS LISTING /var/folders/rt/4gvqv631095f64jvm7jfj_000000gn/T//cc1i8NTO.s 			page 3


  30:lcd_bigone.c  **** 	delta_mtime = get_timer_value() - start_mtime;
  80              		.loc 1 30 2 is_stmt 1 discriminator 1
  31:lcd_bigone.c  **** 	}while(delta_mtime <(SystemCoreClock/4000.0 *count ));
  81              		.loc 1 31 2 discriminator 1
  31:lcd_bigone.c  **** 	}while(delta_mtime <(SystemCoreClock/4000.0 *count ));
  82              		.loc 1 31 16 is_stmt 0 discriminator 1
  83 004a 97000000 		call	get_timer_value
  83      E7800000 
  84              	.LVL6:
  85 0052 AA87     		mv	a5,a0
  31:lcd_bigone.c  **** 	}while(delta_mtime <(SystemCoreClock/4000.0 *count ));
  86              		.loc 1 31 14 discriminator 1
  87 0054 058D     		sub	a0,a0,s1
  88              	.LVL7:
  89 0056 B3B7A700 		sgtu	a5,a0,a5
  90              	.LVL8:
  91 005a 818D     		sub	a1,a1,s0
  92              		.loc 1 32 21 discriminator 1
  93 005c 9D8D     		sub	a1,a1,a5
  94 005e 97000000 		call	__floatundidf
  94      E7800000 
  95              	.LVL9:
  96 0066 2A8A     		mv	s4,a0
  97              		.loc 1 32 38 discriminator 1
  98 0068 03A50B00 		lw	a0,%lo(SystemCoreClock)(s7)
  99              		.loc 1 32 21 discriminator 1
 100 006c AE8A     		mv	s5,a1
 101              		.loc 1 32 38 discriminator 1
 102 006e 97000000 		call	__floatunsidf
 102      E7800000 
 103              	.LVL10:
 104 0076 4A86     		mv	a2,s2
 105 0078 CE86     		mv	a3,s3
 106 007a 97000000 		call	__divdf3
 106      E7800000 
 107              	.LVL11:
 108 0082 2A8C     		mv	s8,a0
 109              		.loc 1 32 46 discriminator 1
 110 0084 5A85     		mv	a0,s6
 111              		.loc 1 32 38 discriminator 1
 112 0086 AE8C     		mv	s9,a1
 113              		.loc 1 32 46 discriminator 1
 114 0088 97000000 		call	__floatunsidf
 114      E7800000 
 115              	.LVL12:
 116 0090 2A86     		mv	a2,a0
 117 0092 AE86     		mv	a3,a1
 118 0094 6285     		mv	a0,s8
 119 0096 E685     		mv	a1,s9
 120 0098 97000000 		call	__muldf3
 120      E7800000 
 121              	.LVL13:
 122              		.loc 1 32 2 discriminator 1
 123 00a0 2A86     		mv	a2,a0
 124 00a2 AE86     		mv	a3,a1
 125 00a4 5285     		mv	a0,s4
 126 00a6 D685     		mv	a1,s5
GAS LISTING /var/folders/rt/4gvqv631095f64jvm7jfj_000000gn/T//cc1i8NTO.s 			page 4


 127 00a8 97000000 		call	__ltdf2
 127      E7800000 
 128              	.LVL14:
 129 00b0 E34D05F8 		blt	a0,zero,.L4
  33:lcd_bigone.c  **** }
 130              		.loc 1 33 1
 131 00b4 B250     		lw	ra,44(sp)
 132              		.cfi_restore 1
 133 00b6 2254     		lw	s0,40(sp)
 134              		.cfi_restore 8
 135              	.LVL15:
 136 00b8 9254     		lw	s1,36(sp)
 137              		.cfi_restore 9
 138 00ba 0259     		lw	s2,32(sp)
 139              		.cfi_restore 18
 140 00bc F249     		lw	s3,28(sp)
 141              		.cfi_restore 19
 142 00be 624A     		lw	s4,24(sp)
 143              		.cfi_restore 20
 144 00c0 D24A     		lw	s5,20(sp)
 145              		.cfi_restore 21
 146 00c2 424B     		lw	s6,16(sp)
 147              		.cfi_restore 22
 148              	.LVL16:
 149 00c4 B24B     		lw	s7,12(sp)
 150              		.cfi_restore 23
 151 00c6 224C     		lw	s8,8(sp)
 152              		.cfi_restore 24
 153 00c8 924C     		lw	s9,4(sp)
 154              		.cfi_restore 25
 155 00ca 4561     		addi	sp,sp,48
 156              	.LCFI1:
 157              		.cfi_def_cfa_offset 0
 158 00cc 8280     		jr	ra
 159              		.cfi_endproc
 160              	.LFE2:
 162              		.section	.text.LCD_WR_Queue,"ax",@progbits
 163              		.align	1
 164              		.globl	LCD_WR_Queue
 166              	LCD_WR_Queue:
 167              	.LFB4:
  34:lcd_bigone.c  **** 
  35:lcd_bigone.c  **** 
  36:lcd_bigone.c  **** 
  37:lcd_bigone.c  **** int r=0, w=0, queue[256]={0};                       // 256 Byte wr queue
  38:lcd_bigone.c  **** 
  39:lcd_bigone.c  **** void LCD_Wait_On_Queue(){
  40:lcd_bigone.c  **** 	while(r != w) LCD_WR_Queue();					//Blocks while emptying the queue
  41:lcd_bigone.c  **** }
  42:lcd_bigone.c  **** 
  43:lcd_bigone.c  **** void LCD_WR_Queue(){
 168              		.loc 1 43 20 is_stmt 1
 169              		.cfi_startproc
  44:lcd_bigone.c  ****     if (r!=w) {                                     // Buffer empty?
 170              		.loc 1 44 5
  43:lcd_bigone.c  ****     if (r!=w) {                                     // Buffer empty?
 171              		.loc 1 43 20 is_stmt 0
GAS LISTING /var/folders/rt/4gvqv631095f64jvm7jfj_000000gn/T//cc1i8NTO.s 			page 5


 172 0000 4111     		addi	sp,sp,-16
 173              	.LCFI2:
 174              		.cfi_def_cfa_offset 16
 175 0002 22C4     		sw	s0,8(sp)
 176              		.loc 1 44 8
 177 0004 B7070000 		lui	a5,%hi(.LANCHOR1)
 178              		.cfi_offset 8, -8
 179              		.loc 1 44 10
 180 0008 37040000 		lui	s0,%hi(.LANCHOR0)
 181              		.loc 1 44 8
 182 000c 03270400 		lw	a4,%lo(.LANCHOR0)(s0)
 183 0010 83A70700 		lw	a5,%lo(.LANCHOR1)(a5)
  43:lcd_bigone.c  ****     if (r!=w) {                                     // Buffer empty?
 184              		.loc 1 43 20
 185 0014 06C6     		sw	ra,12(sp)
 186 0016 26C2     		sw	s1,4(sp)
 187              		.cfi_offset 1, -4
 188              		.cfi_offset 9, -12
 189              		.loc 1 44 8
 190 0018 630AF708 		beq	a4,a5,.L8
  45:lcd_bigone.c  ****        if (spi_i2s_flag_get(SPI1,SPI_FLAG_TBE)) {   // ...no! Device redy?
 191              		.loc 1 45 8 is_stmt 1
 192              		.loc 1 45 12 is_stmt 0
 193 001c 37450040 		li	a0,1073758208
 194 0020 8945     		li	a1,2
 195 0022 13050580 		addi	a0,a0,-2048
 196 0026 97000000 		call	spi_i2s_flag_get
 196      E7800000 
 197              	.LVL17:
 198              		.loc 1 45 11
 199 002e 2DC5     		beq	a0,zero,.L7
 200              	.LBB168:
 201              	.LBB169:
  46:lcd_bigone.c  ****           OLED_CS_Clr();                            // ......Yes! CS (again)
 202              		.loc 1 46 11
 203 0030 8965     		li	a1,8192
 204 0032 37150140 		li	a0,1073811456
 205 0036 97000000 		call	gpio_bit_reset
 205      E7800000 
 206              	.LVL18:
 207 003e 13040400 		addi	s0,s0,%lo(.LANCHOR0)
 208              		.loc 1 46 11 is_stmt 1
  47:lcd_bigone.c  ****           (queue[r]>=1<<8) ? OLED_DC_Set() : OLED_DC_Clr(); //    DC
 209              		.loc 1 47 11
 210              		.loc 1 47 17 is_stmt 0
 211 0042 1440     		lw	a3,0(s0)
 212 0044 B7070000 		lui	a5,%hi(.LANCHOR2)
 213 0048 13870700 		addi	a4,a5,%lo(.LANCHOR2)
 214 004c 8A06     		slli	a3,a3,2
 215 004e 3697     		add	a4,a4,a3
 216              		.loc 1 47 44
 217 0050 1443     		lw	a3,0(a4)
 218 0052 1307F00F 		li	a4,255
 219 0056 93840700 		addi	s1,a5,%lo(.LANCHOR2)
 220              		.loc 1 47 30
 221 005a A165     		li	a1,32768
 222 005c 37150140 		li	a0,1073811456
GAS LISTING /var/folders/rt/4gvqv631095f64jvm7jfj_000000gn/T//cc1i8NTO.s 			page 6


 223              		.loc 1 47 44
 224 0060 6351D704 		ble	a3,a4,.L10
 225              		.loc 1 47 30
 226 0064 97000000 		call	gpio_bit_set
 226      E7800000 
 227              	.LVL19:
 228              	.L11:
  48:lcd_bigone.c  ****           spi_i2s_data_transmit(SPI1, queue[r++]&0xFF); //        Write!
 229              		.loc 1 48 11 is_stmt 1
 230              		.loc 1 48 46 is_stmt 0
 231 006c 1C40     		lw	a5,0(s0)
 232              		.loc 1 48 11
 233 006e 37450040 		li	a0,1073758208
 234 0072 13050580 		addi	a0,a0,-2048
 235              		.loc 1 48 46
 236 0076 13871700 		addi	a4,a5,1
 237              		.loc 1 48 44
 238 007a 8A07     		slli	a5,a5,2
 239 007c A697     		add	a5,s1,a5
 240              		.loc 1 48 11
 241 007e 83C50700 		lbu	a1,0(a5)
 242              		.loc 1 48 46
 243 0082 18C0     		sw	a4,0(s0)
 244              		.loc 1 48 11
 245 0084 97000000 		call	spi_i2s_data_transmit
 245      E7800000 
 246              	.LVL20:
  49:lcd_bigone.c  ****           r%=256;                                   //            Advance.
 247              		.loc 1 49 11 is_stmt 1
 248              		.loc 1 49 12 is_stmt 0
 249 008c 1C40     		lw	a5,0(s0)
 250 008e 13070010 		li	a4,256
 251 0092 B3E7E702 		rem	a5,a5,a4
 252 0096 1CC0     		sw	a5,0(s0)
 253              	.L7:
 254              	.LBE169:
 255              	.LBE168:
  50:lcd_bigone.c  ****         }                                           //       (No! Return!)
  51:lcd_bigone.c  ****     } else {
  52:lcd_bigone.c  ****         OLED_CS_Set();                              // ...yes! CS high, done!
  53:lcd_bigone.c  ****     }
  54:lcd_bigone.c  **** }
 256              		.loc 1 54 1
 257 0098 B240     		lw	ra,12(sp)
 258              		.cfi_remember_state
 259              		.cfi_restore 1
 260 009a 2244     		lw	s0,8(sp)
 261              		.cfi_restore 8
 262 009c 9244     		lw	s1,4(sp)
 263              		.cfi_restore 9
 264 009e 4101     		addi	sp,sp,16
 265              	.LCFI3:
 266              		.cfi_def_cfa_offset 0
 267 00a0 8280     		jr	ra
 268              	.L10:
 269              	.LCFI4:
 270              		.cfi_restore_state
GAS LISTING /var/folders/rt/4gvqv631095f64jvm7jfj_000000gn/T//cc1i8NTO.s 			page 7


 271              	.LBB171:
 272              	.LBB170:
  47:lcd_bigone.c  ****           spi_i2s_data_transmit(SPI1, queue[r++]&0xFF); //        Write!
 273              		.loc 1 47 46
 274 00a2 97000000 		call	gpio_bit_reset
 274      E7800000 
 275              	.LVL21:
 276 00aa C9B7     		j	.L11
 277              	.L8:
 278              	.LBE170:
 279              	.LBE171:
  52:lcd_bigone.c  ****     }
 280              		.loc 1 52 9 is_stmt 1
 281              		.loc 1 54 1 is_stmt 0
 282 00ac 2244     		lw	s0,8(sp)
 283              		.cfi_restore 8
 284 00ae B240     		lw	ra,12(sp)
 285              		.cfi_restore 1
 286 00b0 9244     		lw	s1,4(sp)
 287              		.cfi_restore 9
  52:lcd_bigone.c  ****     }
 288              		.loc 1 52 9
 289 00b2 8965     		li	a1,8192
 290              		.loc 1 54 1
  52:lcd_bigone.c  ****     }
 291              		.loc 1 52 9
 292 00b4 37150140 		li	a0,1073811456
 293              		.loc 1 54 1
 294 00b8 4101     		addi	sp,sp,16
 295              	.LCFI5:
 296              		.cfi_def_cfa_offset 0
  52:lcd_bigone.c  ****     }
 297              		.loc 1 52 9
 298 00ba 17030000 		tail	gpio_bit_set
 298      67000300 
 299              	.LVL22:
 300              		.cfi_endproc
 301              	.LFE4:
 303              		.section	.text.LCD_Wait_On_Queue,"ax",@progbits
 304              		.align	1
 305              		.globl	LCD_Wait_On_Queue
 307              	LCD_Wait_On_Queue:
 308              	.LFB3:
  39:lcd_bigone.c  **** 	while(r != w) LCD_WR_Queue();					//Blocks while emptying the queue
 309              		.loc 1 39 25 is_stmt 1
 310              		.cfi_startproc
  40:lcd_bigone.c  **** }
 311              		.loc 1 40 2
  39:lcd_bigone.c  **** 	while(r != w) LCD_WR_Queue();					//Blocks while emptying the queue
 312              		.loc 1 39 25 is_stmt 0
 313 0000 4111     		addi	sp,sp,-16
 314              	.LCFI6:
 315              		.cfi_def_cfa_offset 16
 316 0002 22C4     		sw	s0,8(sp)
 317 0004 26C2     		sw	s1,4(sp)
 318 0006 06C6     		sw	ra,12(sp)
 319              		.cfi_offset 8, -8
GAS LISTING /var/folders/rt/4gvqv631095f64jvm7jfj_000000gn/T//cc1i8NTO.s 			page 8


 320              		.cfi_offset 9, -12
 321              		.cfi_offset 1, -4
  40:lcd_bigone.c  **** }
 322              		.loc 1 40 10
 323 0008 B7040000 		lui	s1,%hi(.LANCHOR0)
 324 000c 37040000 		lui	s0,%hi(.LANCHOR1)
 325              	.L17:
  40:lcd_bigone.c  **** }
 326              		.loc 1 40 7 discriminator 1
 327 0010 03A70400 		lw	a4,%lo(.LANCHOR0)(s1)
 328 0014 83270400 		lw	a5,%lo(.LANCHOR1)(s0)
 329 0018 6317F700 		bne	a4,a5,.L18
  41:lcd_bigone.c  **** 
 330              		.loc 1 41 1
 331 001c B240     		lw	ra,12(sp)
 332              		.cfi_remember_state
 333              		.cfi_restore 1
 334 001e 2244     		lw	s0,8(sp)
 335              		.cfi_restore 8
 336 0020 9244     		lw	s1,4(sp)
 337              		.cfi_restore 9
 338 0022 4101     		addi	sp,sp,16
 339              	.LCFI7:
 340              		.cfi_def_cfa_offset 0
 341 0024 8280     		jr	ra
 342              	.L18:
 343              	.LCFI8:
 344              		.cfi_restore_state
  40:lcd_bigone.c  **** }
 345              		.loc 1 40 16 is_stmt 1 discriminator 2
 346 0026 97000000 		call	LCD_WR_Queue
 346      E7800000 
 347              	.LVL23:
 348 002e CDB7     		j	.L17
 349              		.cfi_endproc
 350              	.LFE3:
 352              		.section	.text.is_LCD_queue_empy,"ax",@progbits
 353              		.align	1
 354              		.globl	is_LCD_queue_empy
 356              	is_LCD_queue_empy:
 357              	.LFB5:
  55:lcd_bigone.c  **** 
  56:lcd_bigone.c  **** int is_LCD_queue_empy()
  57:lcd_bigone.c  **** {
 358              		.loc 1 57 1
 359              		.cfi_startproc
  58:lcd_bigone.c  **** 	if (r==w)
 360              		.loc 1 58 2
 361              		.loc 1 58 5 is_stmt 0
 362 0000 B7070000 		lui	a5,%hi(.LANCHOR0)
 363 0004 03A50700 		lw	a0,%lo(.LANCHOR0)(a5)
 364 0008 B7070000 		lui	a5,%hi(.LANCHOR1)
 365 000c 83A70700 		lw	a5,%lo(.LANCHOR1)(a5)
 366 0010 1D8D     		sub	a0,a0,a5
  59:lcd_bigone.c  **** 	return 1;
  60:lcd_bigone.c  **** 	else
  61:lcd_bigone.c  **** 	return 0;
GAS LISTING /var/folders/rt/4gvqv631095f64jvm7jfj_000000gn/T//cc1i8NTO.s 			page 9


  62:lcd_bigone.c  **** }
 367              		.loc 1 62 1
 368 0012 13351500 		seqz	a0,a0
 369 0016 8280     		ret
 370              		.cfi_endproc
 371              	.LFE5:
 373              		.section	.text.LCD_Write_Bus,"ax",@progbits
 374              		.align	1
 375              		.globl	LCD_Write_Bus
 377              	LCD_Write_Bus:
 378              	.LFB6:
  63:lcd_bigone.c  **** 
  64:lcd_bigone.c  **** void LCD_Write_Bus(int dat) {
 379              		.loc 1 64 29 is_stmt 1
 380              		.cfi_startproc
 381              	.LVL24:
  65:lcd_bigone.c  ****    while (((w+1)%256)==r) LCD_WR_Queue(); //If buffer full then spin...
 382              		.loc 1 65 4
  64:lcd_bigone.c  ****    while (((w+1)%256)==r) LCD_WR_Queue(); //If buffer full then spin...
 383              		.loc 1 64 29 is_stmt 0
 384 0000 0111     		addi	sp,sp,-32
 385              	.LCFI9:
 386              		.cfi_def_cfa_offset 32
 387 0002 22CC     		sw	s0,24(sp)
 388 0004 26CA     		sw	s1,20(sp)
 389 0006 4AC8     		sw	s2,16(sp)
 390 0008 06CE     		sw	ra,28(sp)
 391              		.cfi_offset 8, -8
 392              		.cfi_offset 9, -12
 393              		.cfi_offset 18, -16
 394              		.cfi_offset 1, -4
 395              		.loc 1 65 14
 396 000a 37090000 		lui	s2,%hi(.LANCHOR1)
 397              		.loc 1 65 17
 398 000e 93040010 		li	s1,256
 399              		.loc 1 65 22
 400 0012 37040000 		lui	s0,%hi(.LANCHOR0)
 401              	.LVL25:
 402              	.L22:
 403              		.loc 1 65 14 discriminator 1
 404 0016 13060900 		addi	a2,s2,%lo(.LANCHOR1)
 405 001a 1C42     		lw	a5,0(a2)
 406              		.loc 1 65 10 discriminator 1
 407 001c 83260400 		lw	a3,%lo(.LANCHOR0)(s0)
 408              		.loc 1 65 14 discriminator 1
 409 0020 13871700 		addi	a4,a5,1
 410              		.loc 1 65 17 discriminator 1
 411 0024 33679702 		rem	a4,a4,s1
 412              		.loc 1 65 10 discriminator 1
 413 0028 6301D702 		beq	a4,a3,.L23
  66:lcd_bigone.c  ****    queue[w++]=dat;                        //...If/when not then store data...
 414              		.loc 1 66 4 is_stmt 1
 415              		.loc 1 66 14 is_stmt 0
 416 002c 93962700 		slli	a3,a5,2
 417 0030 B7070000 		lui	a5,%hi(.LANCHOR2)
  67:lcd_bigone.c  ****    w%=256;                                //...and advance write index!
  68:lcd_bigone.c  **** }
GAS LISTING /var/folders/rt/4gvqv631095f64jvm7jfj_000000gn/T//cc1i8NTO.s 			page 10


 418              		.loc 1 68 1
 419 0034 F240     		lw	ra,28(sp)
 420              		.cfi_remember_state
 421              		.cfi_restore 1
 422 0036 6244     		lw	s0,24(sp)
 423              		.cfi_restore 8
  66:lcd_bigone.c  ****    queue[w++]=dat;                        //...If/when not then store data...
 424              		.loc 1 66 14
 425 0038 93870700 		addi	a5,a5,%lo(.LANCHOR2)
 426 003c B697     		add	a5,a5,a3
 427 003e 88C3     		sw	a0,0(a5)
  67:lcd_bigone.c  ****    w%=256;                                //...and advance write index!
 428              		.loc 1 67 4 is_stmt 1
  67:lcd_bigone.c  ****    w%=256;                                //...and advance write index!
 429              		.loc 1 67 5 is_stmt 0
 430 0040 18C2     		sw	a4,0(a2)
 431              		.loc 1 68 1
 432 0042 D244     		lw	s1,20(sp)
 433              		.cfi_restore 9
 434 0044 4249     		lw	s2,16(sp)
 435              		.cfi_restore 18
 436 0046 0561     		addi	sp,sp,32
 437              	.LCFI10:
 438              		.cfi_def_cfa_offset 0
 439 0048 8280     		jr	ra
 440              	.L23:
 441              	.LCFI11:
 442              		.cfi_restore_state
 443 004a 2AC6     		sw	a0,12(sp)
  65:lcd_bigone.c  ****    queue[w++]=dat;                        //...If/when not then store data...
 444              		.loc 1 65 27 is_stmt 1 discriminator 2
 445 004c 97000000 		call	LCD_WR_Queue
 445      E7800000 
 446              	.LVL26:
 447 0054 3245     		lw	a0,12(sp)
 448 0056 C1B7     		j	.L22
 449              		.cfi_endproc
 450              	.LFE6:
 452              		.section	.text.LCD_Writ_Bus,"ax",@progbits
 453              		.align	1
 454              		.globl	LCD_Writ_Bus
 456              	LCD_Writ_Bus:
 457              	.LFB7:
  69:lcd_bigone.c  **** 
  70:lcd_bigone.c  **** /*
  71:lcd_bigone.c  ****   Function description: LCD serial data write function (write one byte)
  72:lcd_bigone.c  ****   Entry data: dat: byte to be written
  73:lcd_bigone.c  ****   Return value: None
  74:lcd_bigone.c  ****   Note: DC must already be set (for data) or reset (for command)
  75:lcd_bigone.c  **** */
  76:lcd_bigone.c  **** void LCD_Writ_Bus(u8 dat) 
  77:lcd_bigone.c  **** {
 458              		.loc 1 77 1
 459              		.cfi_startproc
 460              	.LVL27:
  78:lcd_bigone.c  **** 	OLED_CS_Clr();
 461              		.loc 1 78 2
GAS LISTING /var/folders/rt/4gvqv631095f64jvm7jfj_000000gn/T//cc1i8NTO.s 			page 11


  77:lcd_bigone.c  **** 	OLED_CS_Clr();
 462              		.loc 1 77 1 is_stmt 0
 463 0000 4111     		addi	sp,sp,-16
 464              	.LCFI12:
 465              		.cfi_def_cfa_offset 16
 466 0002 22C4     		sw	s0,8(sp)
 467 0004 26C2     		sw	s1,4(sp)
 468              		.loc 1 78 2
 469 0006 8965     		li	a1,8192
 470              		.cfi_offset 8, -8
 471              		.cfi_offset 9, -12
  77:lcd_bigone.c  **** 	OLED_CS_Clr();
 472              		.loc 1 77 1
 473 0008 AA84     		mv	s1,a0
  79:lcd_bigone.c  **** 
  80:lcd_bigone.c  **** 	while(RESET == spi_i2s_flag_get(SPI1, SPI_FLAG_TBE));
 474              		.loc 1 80 17
 475 000a 37440040 		li	s0,1073758208
  78:lcd_bigone.c  **** 
 476              		.loc 1 78 2
 477 000e 37150140 		li	a0,1073811456
 478              	.LVL28:
  77:lcd_bigone.c  **** 	OLED_CS_Clr();
 479              		.loc 1 77 1
 480 0012 4AC0     		sw	s2,0(sp)
 481 0014 06C6     		sw	ra,12(sp)
 482              		.cfi_offset 18, -16
 483              		.cfi_offset 1, -4
 484              		.loc 1 80 17
 485 0016 13090480 		addi	s2,s0,-2048
  78:lcd_bigone.c  **** 
 486              		.loc 1 78 2
 487 001a 97000000 		call	gpio_bit_reset
 487      E7800000 
 488              	.LVL29:
 489              		.loc 1 80 2 is_stmt 1
 490              	.L26:
 491              		.loc 1 80 54 discriminator 1
 492              		.loc 1 80 17 is_stmt 0 discriminator 1
 493 0022 8945     		li	a1,2
 494 0024 4A85     		mv	a0,s2
 495 0026 97000000 		call	spi_i2s_flag_get
 495      E7800000 
 496              	.LVL30:
 497              		.loc 1 80 7 discriminator 1
 498 002e 75D9     		beq	a0,zero,.L26
  81:lcd_bigone.c  ****         spi_i2s_data_transmit(SPI1, dat);
 499              		.loc 1 81 9 is_stmt 1
 500 0030 A685     		mv	a1,s1
 501 0032 13050480 		addi	a0,s0,-2048
  82:lcd_bigone.c  **** 
  83:lcd_bigone.c  **** 
  84:lcd_bigone.c  **** 	while(RESET == spi_i2s_flag_get(SPI1, SPI_FLAG_RBNE));
 502              		.loc 1 84 17 is_stmt 0
 503 0036 37440040 		li	s0,1073758208
  81:lcd_bigone.c  ****         spi_i2s_data_transmit(SPI1, dat);
 504              		.loc 1 81 9
GAS LISTING /var/folders/rt/4gvqv631095f64jvm7jfj_000000gn/T//cc1i8NTO.s 			page 12


 505 003a 97000000 		call	spi_i2s_data_transmit
 505      E7800000 
 506              	.LVL31:
 507              		.loc 1 84 2 is_stmt 1
 508              		.loc 1 84 17 is_stmt 0
 509 0042 93040480 		addi	s1,s0,-2048
 510              	.L27:
 511              		.loc 1 84 55 is_stmt 1 discriminator 1
 512              		.loc 1 84 17 is_stmt 0 discriminator 1
 513 0046 8545     		li	a1,1
 514 0048 2685     		mv	a0,s1
 515 004a 97000000 		call	spi_i2s_flag_get
 515      E7800000 
 516              	.LVL32:
 517              		.loc 1 84 7 discriminator 1
 518 0052 75D9     		beq	a0,zero,.L27
  85:lcd_bigone.c  ****         spi_i2s_data_receive(SPI1);
 519              		.loc 1 85 9 is_stmt 1
 520 0054 13050480 		addi	a0,s0,-2048
 521 0058 97000000 		call	spi_i2s_data_receive
 521      E7800000 
 522              	.LVL33:
  86:lcd_bigone.c  **** 
  87:lcd_bigone.c  **** 	OLED_CS_Set();  
 523              		.loc 1 87 2
  88:lcd_bigone.c  **** }
 524              		.loc 1 88 1 is_stmt 0
 525 0060 2244     		lw	s0,8(sp)
 526              		.cfi_restore 8
 527 0062 B240     		lw	ra,12(sp)
 528              		.cfi_restore 1
 529 0064 9244     		lw	s1,4(sp)
 530              		.cfi_restore 9
 531 0066 0249     		lw	s2,0(sp)
 532              		.cfi_restore 18
  87:lcd_bigone.c  **** }
 533              		.loc 1 87 2
 534 0068 8965     		li	a1,8192
 535              		.loc 1 88 1
  87:lcd_bigone.c  **** }
 536              		.loc 1 87 2
 537 006a 37150140 		li	a0,1073811456
 538              		.loc 1 88 1
 539 006e 4101     		addi	sp,sp,16
 540              	.LCFI13:
 541              		.cfi_def_cfa_offset 0
  87:lcd_bigone.c  **** }
 542              		.loc 1 87 2
 543 0070 17030000 		tail	gpio_bit_set
 543      67000300 
 544              	.LVL34:
 545              		.cfi_endproc
 546              	.LFE7:
 548              		.section	.text.LCD_WR_DATA8,"ax",@progbits
 549              		.align	1
 550              		.globl	LCD_WR_DATA8
 552              	LCD_WR_DATA8:
GAS LISTING /var/folders/rt/4gvqv631095f64jvm7jfj_000000gn/T//cc1i8NTO.s 			page 13


 553              	.LFB8:
  89:lcd_bigone.c  **** 
  90:lcd_bigone.c  **** 
  91:lcd_bigone.c  **** /*
  92:lcd_bigone.c  ****   Function description: LCD write 8-bit data
  93:lcd_bigone.c  ****   Entry data: dat: data to be written
  94:lcd_bigone.c  ****   Return value: None
  95:lcd_bigone.c  **** */
  96:lcd_bigone.c  **** void LCD_WR_DATA8(u8 dat)
  97:lcd_bigone.c  **** {
 554              		.loc 1 97 1 is_stmt 1
 555              		.cfi_startproc
 556              	.LVL35:
  98:lcd_bigone.c  **** 	//OLED_DC_Set();  // Write data
  99:lcd_bigone.c  **** 	//LCD_Writ_Bus(dat);
 100:lcd_bigone.c  ****     LCD_Write_Bus(((int)dat)+(1<<8));
 557              		.loc 1 100 5
 558 0000 13050510 		addi	a0,a0,256
 559              	.LVL36:
 560 0004 17030000 		tail	LCD_Write_Bus
 560      67000300 
 561              	.LVL37:
 562              		.cfi_endproc
 563              	.LFE8:
 565              		.section	.text.LCD_WR_DATA,"ax",@progbits
 566              		.align	1
 567              		.globl	LCD_WR_DATA
 569              	LCD_WR_DATA:
 570              	.LFB9:
 101:lcd_bigone.c  **** }
 102:lcd_bigone.c  **** 
 103:lcd_bigone.c  **** 
 104:lcd_bigone.c  **** /*
 105:lcd_bigone.c  ****   Function description: LCD write 16-bit data
 106:lcd_bigone.c  ****   Entry data: dat: 16-bit data to be written
 107:lcd_bigone.c  ****   Return value: None
 108:lcd_bigone.c  **** */
 109:lcd_bigone.c  **** void LCD_WR_DATA(u16 dat)
 110:lcd_bigone.c  **** {
 571              		.loc 1 110 1
 572              		.cfi_startproc
 573              	.LVL38:
 111:lcd_bigone.c  **** 	//OLED_DC_Set();  // Write data
 112:lcd_bigone.c  **** 	//LCD_Writ_Bus(dat>>8);
 113:lcd_bigone.c  **** 	//LCD_Writ_Bus(dat);
 114:lcd_bigone.c  ****     LCD_Write_Bus(((int)dat>>8)+(1<<8));
 574              		.loc 1 114 5
 110:lcd_bigone.c  **** 	//OLED_DC_Set();  // Write data
 575              		.loc 1 110 1 is_stmt 0
 576 0000 4111     		addi	sp,sp,-16
 577              	.LCFI14:
 578              		.cfi_def_cfa_offset 16
 579 0002 22C4     		sw	s0,8(sp)
 580              		.cfi_offset 8, -8
 581 0004 2A84     		mv	s0,a0
 582              		.loc 1 114 28
 583 0006 2185     		srai	a0,a0,8
GAS LISTING /var/folders/rt/4gvqv631095f64jvm7jfj_000000gn/T//cc1i8NTO.s 			page 14


 584              	.LVL39:
 585              		.loc 1 114 5
 586 0008 13050510 		addi	a0,a0,256
 110:lcd_bigone.c  **** 	//OLED_DC_Set();  // Write data
 587              		.loc 1 110 1
 588 000c 06C6     		sw	ra,12(sp)
 589              		.cfi_offset 1, -4
 590              		.loc 1 114 5
 591 000e 97000000 		call	LCD_Write_Bus
 591      E7800000 
 592              	.LVL40:
 115:lcd_bigone.c  ****     LCD_Write_Bus(((int)dat&0xFF)+(1<<8));
 593              		.loc 1 115 5 is_stmt 1
 594              		.loc 1 115 28 is_stmt 0
 595 0016 1375F40F 		andi	a0,s0,255
 116:lcd_bigone.c  **** }
 596              		.loc 1 116 1
 597 001a 2244     		lw	s0,8(sp)
 598              		.cfi_restore 8
 599              	.LVL41:
 600 001c B240     		lw	ra,12(sp)
 601              		.cfi_restore 1
 115:lcd_bigone.c  ****     LCD_Write_Bus(((int)dat&0xFF)+(1<<8));
 602              		.loc 1 115 5
 603 001e 13050510 		addi	a0,a0,256
 604              		.loc 1 116 1
 605 0022 4101     		addi	sp,sp,16
 606              	.LCFI15:
 607              		.cfi_def_cfa_offset 0
 115:lcd_bigone.c  ****     LCD_Write_Bus(((int)dat&0xFF)+(1<<8));
 608              		.loc 1 115 5
 609 0024 17030000 		tail	LCD_Write_Bus
 609      67000300 
 610              	.LVL42:
 611              		.cfi_endproc
 612              	.LFE9:
 614              		.section	.text.LCD_WR_REG,"ax",@progbits
 615              		.align	1
 616              		.globl	LCD_WR_REG
 618              	LCD_WR_REG:
 619              	.LFB10:
 117:lcd_bigone.c  **** 
 118:lcd_bigone.c  **** 
 119:lcd_bigone.c  **** /*
 120:lcd_bigone.c  ****   Function description: LCD write 8-bit command
 121:lcd_bigone.c  ****   Entry data: dat: command to be written
 122:lcd_bigone.c  ****   Return value: None
 123:lcd_bigone.c  **** */
 124:lcd_bigone.c  **** void LCD_WR_REG(u8 dat)
 125:lcd_bigone.c  **** {
 620              		.loc 1 125 1 is_stmt 1
 621              		.cfi_startproc
 622              	.LVL43:
 126:lcd_bigone.c  **** 	//OLED_DC_Clr();  // Write command
 127:lcd_bigone.c  **** 	//LCD_Writ_Bus(dat);
 128:lcd_bigone.c  ****     LCD_Write_Bus((int)dat);
 623              		.loc 1 128 5
GAS LISTING /var/folders/rt/4gvqv631095f64jvm7jfj_000000gn/T//cc1i8NTO.s 			page 15


 624 0000 17030000 		tail	LCD_Write_Bus
 624      67000300 
 625              	.LVL44:
 626              		.cfi_endproc
 627              	.LFE10:
 629              		.section	.text.LCD_Address_Set,"ax",@progbits
 630              		.align	1
 631              		.globl	LCD_Address_Set
 633              	LCD_Address_Set:
 634              	.LFB11:
 129:lcd_bigone.c  **** }
 130:lcd_bigone.c  **** 
 131:lcd_bigone.c  **** 
 132:lcd_bigone.c  **** 
 133:lcd_bigone.c  **** /*
 134:lcd_bigone.c  ****   Function description: Set start and end addresses
 135:lcd_bigone.c  ****   Entry data: x1, x2 set the start and end column address
 136:lcd_bigone.c  ****               y1, y2 set the start and end row address
 137:lcd_bigone.c  ****   Return value: None
 138:lcd_bigone.c  **** */
 139:lcd_bigone.c  **** void LCD_Address_Set(u16 x1,u16 y1,u16 x2,u16 y2)
 140:lcd_bigone.c  **** {	lcd_conf.offset_y=-10;                           /////POTENTIALLY DANGEROUS CHECK LINUS ????
 635              		.loc 1 140 1
 636              		.cfi_startproc
 637              	.LVL45:
 638              		.loc 1 140 3
 639              		.loc 1 140 1 is_stmt 0
 640 0000 0111     		addi	sp,sp,-32
 641              	.LCFI16:
 642              		.cfi_def_cfa_offset 32
 643 0002 22CC     		sw	s0,24(sp)
 644              		.cfi_offset 8, -8
 645              		.loc 1 140 20
 646 0004 37040000 		lui	s0,%hi(.LANCHOR3)
 647              		.loc 1 140 1
 648 0008 26CA     		sw	s1,20(sp)
 649              		.loc 1 140 20
 650 000a D957     		li	a5,-10
 651 000c 13040400 		addi	s0,s0,%lo(.LANCHOR3)
 652              		.cfi_offset 9, -12
 653              		.loc 1 140 1
 654 0010 AA84     		mv	s1,a0
 655              	.LBB172:
 656              	.LBB173:
 128:lcd_bigone.c  **** }
 657              		.loc 1 128 5
 658 0012 1305A002 		li	a0,42
 659              	.LVL46:
 660              	.LBE173:
 661              	.LBE172:
 662              		.loc 1 140 1
 663 0016 06CE     		sw	ra,28(sp)
 664              		.cfi_offset 1, -4
 665              		.loc 1 140 1
 666 0018 36C2     		sw	a3,4(sp)
 667              		.loc 1 140 20
 668 001a A301F400 		sb	a5,3(s0)
GAS LISTING /var/folders/rt/4gvqv631095f64jvm7jfj_000000gn/T//cc1i8NTO.s 			page 16


 141:lcd_bigone.c  **** 	LCD_WR_REG(0x2a);  // Column address setting
 669              		.loc 1 141 2 is_stmt 1
 670              	.LVL47:
 671              	.LBB176:
 672              	.LBB174:
 128:lcd_bigone.c  **** }
 673              		.loc 1 128 5
 674              	.LBE174:
 675              	.LBE176:
 140:lcd_bigone.c  **** 	LCD_WR_REG(0x2a);  // Column address setting
 676              		.loc 1 140 1 is_stmt 0
 677 001e 2EC6     		sw	a1,12(sp)
 678 0020 32C4     		sw	a2,8(sp)
 679              	.LBB177:
 680              	.LBB175:
 128:lcd_bigone.c  **** }
 681              		.loc 1 128 5
 682 0022 97000000 		call	LCD_Write_Bus
 682      E7800000 
 683              	.LVL48:
 684              	.LBE175:
 685              	.LBE177:
 142:lcd_bigone.c  **** 	LCD_WR_DATA(x1+lcd_conf.offset_x);
 686              		.loc 1 142 2 is_stmt 1
 687              		.loc 1 142 25 is_stmt 0
 688 002a 03452400 		lbu	a0,2(s0)
 689              		.loc 1 142 2
 690 002e 2695     		add	a0,a0,s1
 691 0030 97000000 		call	LCD_WR_DATA
 691      E7800000 
 692              	.LVL49:
 143:lcd_bigone.c  **** 	LCD_WR_DATA(x2+lcd_conf.offset_x);
 693              		.loc 1 143 2 is_stmt 1
 694 0038 2246     		lw	a2,8(sp)
 695              		.loc 1 143 25 is_stmt 0
 696 003a 03452400 		lbu	a0,2(s0)
 697              		.loc 1 143 2
 698 003e 3295     		add	a0,a0,a2
 699 0040 97000000 		call	LCD_WR_DATA
 699      E7800000 
 700              	.LVL50:
 144:lcd_bigone.c  **** 	LCD_WR_REG(0x2b);  // row address setting
 701              		.loc 1 144 2 is_stmt 1
 702              	.LBB178:
 703              	.LBB179:
 128:lcd_bigone.c  **** }
 704              		.loc 1 128 5
 705 0048 1305B002 		li	a0,43
 706 004c 97000000 		call	LCD_Write_Bus
 706      E7800000 
 707              	.LVL51:
 708              	.LBE179:
 709              	.LBE178:
 145:lcd_bigone.c  **** 	LCD_WR_DATA(y1+lcd_conf.offset_y);
 710              		.loc 1 145 2
 711 0054 B245     		lw	a1,12(sp)
 712              		.loc 1 145 25 is_stmt 0
GAS LISTING /var/folders/rt/4gvqv631095f64jvm7jfj_000000gn/T//cc1i8NTO.s 			page 17


 713 0056 03453400 		lbu	a0,3(s0)
 714              		.loc 1 145 2
 715 005a 2E95     		add	a0,a0,a1
 716 005c 97000000 		call	LCD_WR_DATA
 716      E7800000 
 717              	.LVL52:
 146:lcd_bigone.c  **** 	LCD_WR_DATA(y2+lcd_conf.offset_y);
 718              		.loc 1 146 2 is_stmt 1
 719              		.loc 1 146 25 is_stmt 0
 720 0064 03453400 		lbu	a0,3(s0)
 721              		.loc 1 146 2
 722 0068 9246     		lw	a3,4(sp)
 723 006a 3695     		add	a0,a0,a3
 724 006c 97000000 		call	LCD_WR_DATA
 724      E7800000 
 725              	.LVL53:
 147:lcd_bigone.c  **** 	LCD_WR_REG(0x2c);  // Memory write
 726              		.loc 1 147 2 is_stmt 1
 727              	.LBB180:
 728              	.LBB181:
 128:lcd_bigone.c  **** }
 729              		.loc 1 128 5
 730              	.LBE181:
 731              	.LBE180:
 148:lcd_bigone.c  **** }
 732              		.loc 1 148 1 is_stmt 0
 733 0074 6244     		lw	s0,24(sp)
 734              		.cfi_restore 8
 735 0076 F240     		lw	ra,28(sp)
 736              		.cfi_restore 1
 737 0078 D244     		lw	s1,20(sp)
 738              		.cfi_restore 9
 739              	.LVL54:
 740              	.LBB184:
 741              	.LBB182:
 128:lcd_bigone.c  **** }
 742              		.loc 1 128 5
 743 007a 1305C002 		li	a0,44
 744              	.LBE182:
 745              	.LBE184:
 746              		.loc 1 148 1
 747 007e 0561     		addi	sp,sp,32
 748              	.LCFI17:
 749              		.cfi_def_cfa_offset 0
 750              	.LVL55:
 751              	.LBB185:
 752              	.LBB183:
 128:lcd_bigone.c  **** }
 753              		.loc 1 128 5
 754 0080 17030000 		tail	LCD_Write_Bus
 754      67000300 
 755              	.LVL56:
 756              	.LBE183:
 757              	.LBE185:
 758              		.cfi_endproc
 759              	.LFE11:
 761              		.section	.text.spi_config,"ax",@progbits
GAS LISTING /var/folders/rt/4gvqv631095f64jvm7jfj_000000gn/T//cc1i8NTO.s 			page 18


 762              		.align	1
 763              		.globl	spi_config
 765              	spi_config:
 766              	.LFB12:
 149:lcd_bigone.c  **** 
 150:lcd_bigone.c  **** /*!
 151:lcd_bigone.c  ****     \brief      configure the SPI peripheral
 152:lcd_bigone.c  ****     \param[in]  none
 153:lcd_bigone.c  ****     \param[out] none
 154:lcd_bigone.c  ****     \retval     none
 155:lcd_bigone.c  **** */
 156:lcd_bigone.c  **** void spi_config(void)
 157:lcd_bigone.c  **** {
 767              		.loc 1 157 1 is_stmt 1
 768              		.cfi_startproc
 158:lcd_bigone.c  ****     spi_parameter_struct spi_init_struct;
 769              		.loc 1 158 5
 159:lcd_bigone.c  ****     /* deinitilize SPI and the parameters */
 160:lcd_bigone.c  ****     OLED_CS_Set();
 770              		.loc 1 160 5
 157:lcd_bigone.c  ****     spi_parameter_struct spi_init_struct;
 771              		.loc 1 157 1 is_stmt 0
 772 0000 7971     		addi	sp,sp,-48
 773              	.LCFI18:
 774              		.cfi_def_cfa_offset 48
 775              		.loc 1 160 5
 776 0002 8965     		li	a1,8192
 777 0004 37150140 		li	a0,1073811456
 157:lcd_bigone.c  ****     spi_parameter_struct spi_init_struct;
 778              		.loc 1 157 1
 779 0008 06D6     		sw	ra,44(sp)
 780 000a 22D4     		sw	s0,40(sp)
 781              		.cfi_offset 1, -4
 782              		.cfi_offset 8, -8
 783              		.loc 1 160 5
 784 000c 97000000 		call	gpio_bit_set
 784      E7800000 
 785              	.LVL57:
 161:lcd_bigone.c  ****     spi_struct_para_init(&spi_init_struct);
 786              		.loc 1 161 5 is_stmt 1
 787 0014 4800     		addi	a0,sp,4
 788 0016 97000000 		call	spi_struct_para_init
 788      E7800000 
 789              	.LVL58:
 162:lcd_bigone.c  **** 
 163:lcd_bigone.c  ****     /*SPI1 parameter config */
 164:lcd_bigone.c  ****     spi_init_struct.trans_mode           = SPI_TRANSMODE_FULLDUPLEX;
 790              		.loc 1 164 5
 165:lcd_bigone.c  ****     spi_init_struct.device_mode          = SPI_MASTER;
 791              		.loc 1 165 42 is_stmt 0
 792 001e 93074010 		li	a5,260
 793 0022 3EC2     		sw	a5,4(sp)
 166:lcd_bigone.c  ****     spi_init_struct.frame_size           = SPI_FRAMESIZE_8BIT;
 167:lcd_bigone.c  ****     spi_init_struct.clock_polarity_phase = SPI_CK_PL_HIGH_PH_2EDGE;
 794              		.loc 1 167 42
 795 0024 8D47     		li	a5,3
 796 0026 3ECC     		sw	a5,24(sp)
GAS LISTING /var/folders/rt/4gvqv631095f64jvm7jfj_000000gn/T//cc1i8NTO.s 			page 19


 168:lcd_bigone.c  ****     spi_init_struct.nss                  = SPI_NSS_SOFT;
 169:lcd_bigone.c  ****     spi_init_struct.prescale             = SPI_PSC_4;
 170:lcd_bigone.c  ****     spi_init_struct.endian               = SPI_ENDIAN_MSB;
 171:lcd_bigone.c  ****     spi_init(SPI1, &spi_init_struct);
 797              		.loc 1 171 5
 798 0028 37440040 		li	s0,1073758208
 168:lcd_bigone.c  ****     spi_init_struct.nss                  = SPI_NSS_SOFT;
 799              		.loc 1 168 42
 800 002c 93070020 		li	a5,512
 801 0030 3EC8     		sw	a5,16(sp)
 802              		.loc 1 171 5
 803 0032 4C00     		addi	a1,sp,4
 169:lcd_bigone.c  ****     spi_init_struct.endian               = SPI_ENDIAN_MSB;
 804              		.loc 1 169 42
 805 0034 A147     		li	a5,8
 806              		.loc 1 171 5
 807 0036 13050480 		addi	a0,s0,-2048
 169:lcd_bigone.c  ****     spi_init_struct.endian               = SPI_ENDIAN_MSB;
 808              		.loc 1 169 42
 809 003a 3ECE     		sw	a5,28(sp)
 164:lcd_bigone.c  ****     spi_init_struct.device_mode          = SPI_MASTER;
 810              		.loc 1 164 42
 811 003c 02C4     		sw	zero,8(sp)
 165:lcd_bigone.c  ****     spi_init_struct.frame_size           = SPI_FRAMESIZE_8BIT;
 812              		.loc 1 165 5 is_stmt 1
 166:lcd_bigone.c  ****     spi_init_struct.clock_polarity_phase = SPI_CK_PL_HIGH_PH_2EDGE;
 813              		.loc 1 166 5
 166:lcd_bigone.c  ****     spi_init_struct.clock_polarity_phase = SPI_CK_PL_HIGH_PH_2EDGE;
 814              		.loc 1 166 42 is_stmt 0
 815 003e 02C6     		sw	zero,12(sp)
 167:lcd_bigone.c  ****     spi_init_struct.nss                  = SPI_NSS_SOFT;
 816              		.loc 1 167 5 is_stmt 1
 168:lcd_bigone.c  ****     spi_init_struct.prescale             = SPI_PSC_4;
 817              		.loc 1 168 5
 169:lcd_bigone.c  ****     spi_init_struct.endian               = SPI_ENDIAN_MSB;
 818              		.loc 1 169 5
 170:lcd_bigone.c  ****     spi_init(SPI1, &spi_init_struct);
 819              		.loc 1 170 5
 170:lcd_bigone.c  ****     spi_init(SPI1, &spi_init_struct);
 820              		.loc 1 170 42 is_stmt 0
 821 0040 02CA     		sw	zero,20(sp)
 822              		.loc 1 171 5 is_stmt 1
 823 0042 97000000 		call	spi_init
 823      E7800000 
 824              	.LVL59:
 172:lcd_bigone.c  **** 
 173:lcd_bigone.c  **** 
 174:lcd_bigone.c  **** 	
 175:lcd_bigone.c  **** 
 176:lcd_bigone.c  **** 	//spi_crc_polynomial_set(SPI1,7);
 177:lcd_bigone.c  **** 	spi_enable(SPI1);
 825              		.loc 1 177 2
 826 004a 13050480 		addi	a0,s0,-2048
 827 004e 97000000 		call	spi_enable
 827      E7800000 
 828              	.LVL60:
 178:lcd_bigone.c  **** }
GAS LISTING /var/folders/rt/4gvqv631095f64jvm7jfj_000000gn/T//cc1i8NTO.s 			page 20


 829              		.loc 1 178 1 is_stmt 0
 830 0056 B250     		lw	ra,44(sp)
 831              		.cfi_restore 1
 832 0058 2254     		lw	s0,40(sp)
 833              		.cfi_restore 8
 834 005a 4561     		addi	sp,sp,48
 835              	.LCFI19:
 836              		.cfi_def_cfa_offset 0
 837 005c 8280     		jr	ra
 838              		.cfi_endproc
 839              	.LFE12:
 841              		.section	.text.Lcd_SetType,"ax",@progbits
 842              		.align	1
 843              		.globl	Lcd_SetType
 845              	Lcd_SetType:
 846              	.LFB13:
 179:lcd_bigone.c  **** 
 180:lcd_bigone.c  **** void Lcd_SetType(int type){
 847              		.loc 1 180 27 is_stmt 1
 848              		.cfi_startproc
 849              	.LVL61:
 181:lcd_bigone.c  **** 	if(type == LCD_NORMAL){
 850              		.loc 1 181 2
 851              		.loc 1 181 4 is_stmt 0
 852 0000 09E9     		bne	a0,zero,.L42
 182:lcd_bigone.c  **** 		lcd_conf.configured = 1;
 853              		.loc 1 182 3 is_stmt 1
 183:lcd_bigone.c  **** 		lcd_conf.offset_x = 1;
 854              		.loc 1 183 3
 184:lcd_bigone.c  **** 		lcd_conf.offset_y = 26;
 855              		.loc 1 184 3
 185:lcd_bigone.c  **** 		lcd_conf.inverted = 0;
 856              		.loc 1 185 3
 182:lcd_bigone.c  **** 		lcd_conf.offset_x = 1;
 857              		.loc 1 182 23 is_stmt 0
 858 0002 B707011A 		li	a5,436273152
 859 0006 37070000 		lui	a4,%hi(.LANCHOR3)
 860 000a 8507     		addi	a5,a5,1
 861              	.L44:
 862              	.LBB188:
 863              	.LBB189:
 186:lcd_bigone.c  **** 	}
 187:lcd_bigone.c  **** 	if(type == LCD_INVERTED){
 188:lcd_bigone.c  **** 		lcd_conf.configured = 1;
 864              		.loc 1 188 23
 865 000c 2320F700 		sw	a5,%lo(.LANCHOR3)(a4)
 866              	.L41:
 867              	.LBE189:
 868              	.LBE188:
 189:lcd_bigone.c  **** 		lcd_conf.offset_x = 0;
 190:lcd_bigone.c  **** 		lcd_conf.offset_y = 24;
 191:lcd_bigone.c  **** 		lcd_conf.inverted = 1;
 192:lcd_bigone.c  **** 	}
 193:lcd_bigone.c  **** }
 869              		.loc 1 193 1
 870 0010 8280     		ret
 871              	.L42:
GAS LISTING /var/folders/rt/4gvqv631095f64jvm7jfj_000000gn/T//cc1i8NTO.s 			page 21


 187:lcd_bigone.c  **** 		lcd_conf.configured = 1;
 872              		.loc 1 187 2 is_stmt 1
 187:lcd_bigone.c  **** 		lcd_conf.configured = 1;
 873              		.loc 1 187 4 is_stmt 0
 874 0012 8547     		li	a5,1
 875 0014 E31EF5FE 		bne	a0,a5,.L41
 876              	.LVL62:
 877              	.LBB191:
 878              	.LBB190:
 188:lcd_bigone.c  **** 		lcd_conf.offset_x = 0;
 879              		.loc 1 188 3 is_stmt 1
 189:lcd_bigone.c  **** 		lcd_conf.offset_x = 0;
 880              		.loc 1 189 3
 190:lcd_bigone.c  **** 		lcd_conf.inverted = 1;
 881              		.loc 1 190 3
 191:lcd_bigone.c  **** 	}
 882              		.loc 1 191 3
 188:lcd_bigone.c  **** 		lcd_conf.offset_x = 0;
 883              		.loc 1 188 23 is_stmt 0
 884 0018 B7070018 		li	a5,402653184
 885 001c 37070000 		lui	a4,%hi(.LANCHOR3)
 886 0020 93871710 		addi	a5,a5,257
 887 0024 E5B7     		j	.L44
 888              	.LBE190:
 889              	.LBE191:
 890              		.cfi_endproc
 891              	.LFE13:
 893              		.section	.text.Lcd_Init,"ax",@progbits
 894              		.align	1
 895              		.globl	Lcd_Init
 897              	Lcd_Init:
 898              	.LFB14:
 194:lcd_bigone.c  **** 
 195:lcd_bigone.c  **** 
 196:lcd_bigone.c  **** /*
 197:lcd_bigone.c  ****   Function description: LCD initialization function
 198:lcd_bigone.c  ****   Entry data: None
 199:lcd_bigone.c  ****   Return value: None
 200:lcd_bigone.c  **** */
 201:lcd_bigone.c  **** void Lcd_Init(void)
 202:lcd_bigone.c  **** {
 899              		.loc 1 202 1 is_stmt 1
 900              		.cfi_startproc
 203:lcd_bigone.c  **** 	if(!lcd_conf.configured) Lcd_SetType(LCD_NORMAL);
 901              		.loc 1 203 2
 902              		.loc 1 203 14 is_stmt 0
 903 0000 B7070000 		lui	a5,%hi(.LANCHOR3)
 904              		.loc 1 203 4
 905 0004 03C70700 		lbu	a4,%lo(.LANCHOR3)(a5)
 202:lcd_bigone.c  **** 	if(!lcd_conf.configured) Lcd_SetType(LCD_NORMAL);
 906              		.loc 1 202 1
 907 0008 4111     		addi	sp,sp,-16
 908              	.LCFI20:
 909              		.cfi_def_cfa_offset 16
 910 000a 22C4     		sw	s0,8(sp)
 911 000c 06C6     		sw	ra,12(sp)
 912              		.cfi_offset 8, -8
GAS LISTING /var/folders/rt/4gvqv631095f64jvm7jfj_000000gn/T//cc1i8NTO.s 			page 22


 913              		.cfi_offset 1, -4
 914 000e 13840700 		addi	s0,a5,%lo(.LANCHOR3)
 915              		.loc 1 203 4
 916 0012 11E7     		bne	a4,zero,.L46
 917              		.loc 1 203 27 is_stmt 1 discriminator 1
 918 0014 0145     		li	a0,0
 919 0016 97000000 		call	Lcd_SetType
 919      E7800000 
 920              	.LVL63:
 921              	.L46:
 204:lcd_bigone.c  **** 	rcu_periph_clock_enable(RCU_GPIOB);
 922              		.loc 1 204 2
 923 001e 13053060 		li	a0,1539
 924 0022 97000000 		call	rcu_periph_clock_enable
 924      E7800000 
 925              	.LVL64:
 205:lcd_bigone.c  **** 	rcu_periph_clock_enable(RCU_GPIOC);
 926              		.loc 1 205 2
 927 002a 13054060 		li	a0,1540
 928 002e 97000000 		call	rcu_periph_clock_enable
 928      E7800000 
 929              	.LVL65:
 206:lcd_bigone.c  **** 
 207:lcd_bigone.c  ****  	rcu_periph_clock_enable(RCU_AF);
 930              		.loc 1 207 3
 931 0036 13050060 		li	a0,1536
 932 003a 97000000 		call	rcu_periph_clock_enable
 932      E7800000 
 933              	.LVL66:
 208:lcd_bigone.c  **** 	rcu_periph_clock_enable(RCU_SPI1);
 934              		.loc 1 208 2
 935 0042 1305E070 		li	a0,1806
 936 0046 97000000 		call	rcu_periph_clock_enable
 936      E7800000 
 937              	.LVL67:
 209:lcd_bigone.c  **** 	
 210:lcd_bigone.c  ****     gpio_init(GPIOB, GPIO_MODE_AF_PP, GPIO_OSPEED_50MHZ, GPIO_PIN_13 |GPIO_PIN_14| GPIO_PIN_15);
 938              		.loc 1 210 5
 939 004e 37150140 		li	a0,1073811456
 940 0052 B966     		li	a3,57344
 941 0054 0D46     		li	a2,3
 942 0056 E145     		li	a1,24
 943 0058 130505C0 		addi	a0,a0,-1024
 944 005c 97000000 		call	gpio_init
 944      E7800000 
 945              	.LVL68:
 211:lcd_bigone.c  **** 	gpio_init(GPIOC, GPIO_MODE_OUT_PP, GPIO_OSPEED_50MHZ, GPIO_PIN_13 | GPIO_PIN_15); //CS
 946              		.loc 1 211 2
 947 0064 A966     		li	a3,40960
 948 0066 0D46     		li	a2,3
 949 0068 C145     		li	a1,16
 950 006a 37150140 		li	a0,1073811456
 951 006e 97000000 		call	gpio_init
 951      E7800000 
 952              	.LVL69:
 212:lcd_bigone.c  **** 
 213:lcd_bigone.c  **** 	spi_config();
GAS LISTING /var/folders/rt/4gvqv631095f64jvm7jfj_000000gn/T//cc1i8NTO.s 			page 23


 953              		.loc 1 213 2
 954 0076 97000000 		call	spi_config
 954      E7800000 
 955              	.LVL70:
 214:lcd_bigone.c  **** 
 215:lcd_bigone.c  **** 	gpio_bit_reset(GPIOC, GPIO_PIN_13 | GPIO_PIN_15);
 956              		.loc 1 215 2
 957 007e A965     		li	a1,40960
 958 0080 37150140 		li	a0,1073811456
 959 0084 97000000 		call	gpio_bit_reset
 959      E7800000 
 960              	.LVL71:
 216:lcd_bigone.c  **** 	LCD_Wait_On_Queue();
 961              		.loc 1 216 2
 962 008c 97000000 		call	LCD_Wait_On_Queue
 962      E7800000 
 963              	.LVL72:
 217:lcd_bigone.c  **** 	lcd_delay_1ms(100);
 964              		.loc 1 217 2
 965 0094 13054006 		li	a0,100
 966 0098 97000000 		call	lcd_delay_1ms
 966      E7800000 
 967              	.LVL73:
 218:lcd_bigone.c  **** 	
 219:lcd_bigone.c  **** 
 220:lcd_bigone.c  **** 	LCD_WR_REG(0x01); 	//SW reset
 968              		.loc 1 220 2
 969              	.LBB192:
 970              	.LBB193:
 128:lcd_bigone.c  **** }
 971              		.loc 1 128 5
 972 00a0 0545     		li	a0,1
 973 00a2 97000000 		call	LCD_Write_Bus
 973      E7800000 
 974              	.LVL74:
 975              	.LBE193:
 976              	.LBE192:
 221:lcd_bigone.c  **** 	LCD_Wait_On_Queue();
 977              		.loc 1 221 2
 978 00aa 97000000 		call	LCD_Wait_On_Queue
 978      E7800000 
 979              	.LVL75:
 222:lcd_bigone.c  **** 	lcd_delay_1ms(120);
 980              		.loc 1 222 2
 981 00b2 13058007 		li	a0,120
 982 00b6 97000000 		call	lcd_delay_1ms
 982      E7800000 
 983              	.LVL76:
 223:lcd_bigone.c  **** 	
 224:lcd_bigone.c  **** 
 225:lcd_bigone.c  **** 	LCD_WR_REG(0x11); 	//SLPOUT
 984              		.loc 1 225 2
 985              	.LBB194:
 986              	.LBB195:
 128:lcd_bigone.c  **** }
 987              		.loc 1 128 5
 988 00be 4545     		li	a0,17
GAS LISTING /var/folders/rt/4gvqv631095f64jvm7jfj_000000gn/T//cc1i8NTO.s 			page 24


 989 00c0 97000000 		call	LCD_Write_Bus
 989      E7800000 
 990              	.LVL77:
 991              	.LBE195:
 992              	.LBE194:
 226:lcd_bigone.c  **** 	LCD_Wait_On_Queue();
 993              		.loc 1 226 2
 994 00c8 97000000 		call	LCD_Wait_On_Queue
 994      E7800000 
 995              	.LVL78:
 227:lcd_bigone.c  **** 	lcd_delay_1ms(100);
 996              		.loc 1 227 2
 997 00d0 13054006 		li	a0,100
 998 00d4 97000000 		call	lcd_delay_1ms
 998      E7800000 
 999              	.LVL79:
 228:lcd_bigone.c  **** 
 229:lcd_bigone.c  **** 	if(lcd_conf.inverted) LCD_WR_REG(0x22); 
 1000              		.loc 1 229 2
 1001              		.loc 1 229 4 is_stmt 0
 1002 00dc 83471400 		lbu	a5,1(s0)
 1003              	.LBB196:
 1004              	.LBB197:
 128:lcd_bigone.c  **** }
 1005              		.loc 1 128 5
 1006 00e0 13052002 		li	a0,34
 1007              	.LBE197:
 1008              	.LBE196:
 1009              		.loc 1 229 4
 1010 00e4 99E3     		bne	a5,zero,.L50
 230:lcd_bigone.c  **** 	else				  LCD_WR_REG(0x21); 	//INVON
 1011              		.loc 1 230 12 is_stmt 1
 1012              	.LVL80:
 1013              	.LBB198:
 1014              	.LBB199:
 128:lcd_bigone.c  **** }
 1015              		.loc 1 128 5
 1016 00e6 13051002 		li	a0,33
 1017              	.LVL81:
 1018              	.L50:
 1019 00ea 97000000 		call	LCD_Write_Bus
 1019      E7800000 
 1020              	.LVL82:
 1021              	.LBE199:
 1022              	.LBE198:
 231:lcd_bigone.c  **** 
 232:lcd_bigone.c  **** 	LCD_WR_REG(0xB1); 	//FRMCTRL1 - Full color
 1023              		.loc 1 232 2
 1024              	.LBB200:
 1025              	.LBB201:
 128:lcd_bigone.c  **** }
 1026              		.loc 1 128 5
 1027 00f2 1305100B 		li	a0,177
 1028 00f6 97000000 		call	LCD_Write_Bus
 1028      E7800000 
 1029              	.LVL83:
 1030              	.LBE201:
GAS LISTING /var/folders/rt/4gvqv631095f64jvm7jfj_000000gn/T//cc1i8NTO.s 			page 25


 1031              	.LBE200:
 233:lcd_bigone.c  **** 	LCD_WR_DATA8(0x05); // Framerate = 333khz / (25) * (196) = 67.9fps
 1032              		.loc 1 233 2
 1033              	.LBB202:
 1034              	.LBB203:
 100:lcd_bigone.c  **** }
 1035              		.loc 1 100 5
 1036 00fe 13055010 		li	a0,261
 1037 0102 97000000 		call	LCD_Write_Bus
 1037      E7800000 
 1038              	.LVL84:
 1039              	.LBE203:
 1040              	.LBE202:
 234:lcd_bigone.c  **** 	LCD_WR_DATA8(0x3A);
 1041              		.loc 1 234 2
 1042              	.LBB204:
 1043              	.LBB205:
 100:lcd_bigone.c  **** }
 1044              		.loc 1 100 5
 1045 010a 1305A013 		li	a0,314
 1046 010e 97000000 		call	LCD_Write_Bus
 1046      E7800000 
 1047              	.LVL85:
 1048              	.LBE205:
 1049              	.LBE204:
 235:lcd_bigone.c  **** 	LCD_WR_DATA8(0x3A);
 1050              		.loc 1 235 2
 1051              	.LBB206:
 1052              	.LBB207:
 100:lcd_bigone.c  **** }
 1053              		.loc 1 100 5
 1054 0116 1305A013 		li	a0,314
 1055 011a 97000000 		call	LCD_Write_Bus
 1055      E7800000 
 1056              	.LVL86:
 1057              	.LBE207:
 1058              	.LBE206:
 236:lcd_bigone.c  **** 
 237:lcd_bigone.c  **** 	LCD_WR_REG(0xB2);	//FRMCTRL - 8-bit color
 1059              		.loc 1 237 2
 1060              	.LBB208:
 1061              	.LBB209:
 128:lcd_bigone.c  **** }
 1062              		.loc 1 128 5
 1063 0122 1305200B 		li	a0,178
 1064 0126 97000000 		call	LCD_Write_Bus
 1064      E7800000 
 1065              	.LVL87:
 1066              	.LBE209:
 1067              	.LBE208:
 238:lcd_bigone.c  **** 	LCD_WR_DATA8(0x05); //fps = 67.9
 1068              		.loc 1 238 2
 1069              	.LBB210:
 1070              	.LBB211:
 100:lcd_bigone.c  **** }
 1071              		.loc 1 100 5
 1072 012e 13055010 		li	a0,261
GAS LISTING /var/folders/rt/4gvqv631095f64jvm7jfj_000000gn/T//cc1i8NTO.s 			page 26


 1073 0132 97000000 		call	LCD_Write_Bus
 1073      E7800000 
 1074              	.LVL88:
 1075              	.LBE211:
 1076              	.LBE210:
 239:lcd_bigone.c  **** 	LCD_WR_DATA8(0x3A);
 1077              		.loc 1 239 2
 1078              	.LBB212:
 1079              	.LBB213:
 100:lcd_bigone.c  **** }
 1080              		.loc 1 100 5
 1081 013a 1305A013 		li	a0,314
 1082 013e 97000000 		call	LCD_Write_Bus
 1082      E7800000 
 1083              	.LVL89:
 1084              	.LBE213:
 1085              	.LBE212:
 240:lcd_bigone.c  **** 	LCD_WR_DATA8(0x3A);
 1086              		.loc 1 240 2
 1087              	.LBB214:
 1088              	.LBB215:
 100:lcd_bigone.c  **** }
 1089              		.loc 1 100 5
 1090 0146 1305A013 		li	a0,314
 1091 014a 97000000 		call	LCD_Write_Bus
 1091      E7800000 
 1092              	.LVL90:
 1093              	.LBE215:
 1094              	.LBE214:
 241:lcd_bigone.c  **** 
 242:lcd_bigone.c  **** 	LCD_WR_REG(0xB3);   //Partial mode
 1095              		.loc 1 242 2
 1096              	.LBB216:
 1097              	.LBB217:
 128:lcd_bigone.c  **** }
 1098              		.loc 1 128 5
 1099 0152 1305300B 		li	a0,179
 1100 0156 97000000 		call	LCD_Write_Bus
 1100      E7800000 
 1101              	.LVL91:
 1102              	.LBE217:
 1103              	.LBE216:
 243:lcd_bigone.c  **** 	LCD_WR_DATA8(0x05);  
 1104              		.loc 1 243 2
 1105              	.LBB218:
 1106              	.LBB219:
 100:lcd_bigone.c  **** }
 1107              		.loc 1 100 5
 1108 015e 13055010 		li	a0,261
 1109 0162 97000000 		call	LCD_Write_Bus
 1109      E7800000 
 1110              	.LVL92:
 1111              	.LBE219:
 1112              	.LBE218:
 244:lcd_bigone.c  **** 	LCD_WR_DATA8(0x3A);
 1113              		.loc 1 244 2
 1114              	.LBB220:
GAS LISTING /var/folders/rt/4gvqv631095f64jvm7jfj_000000gn/T//cc1i8NTO.s 			page 27


 1115              	.LBB221:
 100:lcd_bigone.c  **** }
 1116              		.loc 1 100 5
 1117 016a 1305A013 		li	a0,314
 1118 016e 97000000 		call	LCD_Write_Bus
 1118      E7800000 
 1119              	.LVL93:
 1120              	.LBE221:
 1121              	.LBE220:
 245:lcd_bigone.c  **** 	LCD_WR_DATA8(0x3A);
 1122              		.loc 1 245 2
 1123              	.LBB222:
 1124              	.LBB223:
 100:lcd_bigone.c  **** }
 1125              		.loc 1 100 5
 1126 0176 1305A013 		li	a0,314
 1127 017a 97000000 		call	LCD_Write_Bus
 1127      E7800000 
 1128              	.LVL94:
 1129              	.LBE223:
 1130              	.LBE222:
 246:lcd_bigone.c  **** 	LCD_WR_DATA8(0x05);
 1131              		.loc 1 246 2
 1132              	.LBB224:
 1133              	.LBB225:
 100:lcd_bigone.c  **** }
 1134              		.loc 1 100 5
 1135 0182 13055010 		li	a0,261
 1136 0186 97000000 		call	LCD_Write_Bus
 1136      E7800000 
 1137              	.LVL95:
 1138              	.LBE225:
 1139              	.LBE224:
 247:lcd_bigone.c  **** 	LCD_WR_DATA8(0x3A);
 1140              		.loc 1 247 2
 1141              	.LBB226:
 1142              	.LBB227:
 100:lcd_bigone.c  **** }
 1143              		.loc 1 100 5
 1144 018e 1305A013 		li	a0,314
 1145 0192 97000000 		call	LCD_Write_Bus
 1145      E7800000 
 1146              	.LVL96:
 1147              	.LBE227:
 1148              	.LBE226:
 248:lcd_bigone.c  **** 	LCD_WR_DATA8(0x3A);
 1149              		.loc 1 248 2
 1150              	.LBB228:
 1151              	.LBB229:
 100:lcd_bigone.c  **** }
 1152              		.loc 1 100 5
 1153 019a 1305A013 		li	a0,314
 1154 019e 97000000 		call	LCD_Write_Bus
 1154      E7800000 
 1155              	.LVL97:
 1156              	.LBE229:
 1157              	.LBE228:
GAS LISTING /var/folders/rt/4gvqv631095f64jvm7jfj_000000gn/T//cc1i8NTO.s 			page 28


 249:lcd_bigone.c  **** 
 250:lcd_bigone.c  **** 	LCD_WR_REG(0xB4);  //INVCTR - Inversion control
 1158              		.loc 1 250 2
 1159              	.LBB230:
 1160              	.LBB231:
 128:lcd_bigone.c  **** }
 1161              		.loc 1 128 5
 1162 01a6 1305400B 		li	a0,180
 1163 01aa 97000000 		call	LCD_Write_Bus
 1163      E7800000 
 1164              	.LVL98:
 1165              	.LBE231:
 1166              	.LBE230:
 251:lcd_bigone.c  **** 	LCD_WR_DATA8(0x03);//Line inversion(full color) | Frame inversion
 1167              		.loc 1 251 2
 1168              	.LBB232:
 1169              	.LBB233:
 100:lcd_bigone.c  **** }
 1170              		.loc 1 100 5
 1171 01b2 13053010 		li	a0,259
 1172 01b6 97000000 		call	LCD_Write_Bus
 1172      E7800000 
 1173              	.LVL99:
 1174              	.LBE233:
 1175              	.LBE232:
 252:lcd_bigone.c  **** 
 253:lcd_bigone.c  **** 	LCD_WR_REG(0xC0);  //PWRCTR1 - Set GVDD voltage
 1176              		.loc 1 253 2
 1177              	.LBB234:
 1178              	.LBB235:
 128:lcd_bigone.c  **** }
 1179              		.loc 1 128 5
 1180 01be 1305000C 		li	a0,192
 1181 01c2 97000000 		call	LCD_Write_Bus
 1181      E7800000 
 1182              	.LVL100:
 1183              	.LBE235:
 1184              	.LBE234:
 254:lcd_bigone.c  **** 	LCD_WR_DATA8(0x62);//
 1185              		.loc 1 254 2
 1186              	.LBB236:
 1187              	.LBB237:
 100:lcd_bigone.c  **** }
 1188              		.loc 1 100 5
 1189 01ca 13052016 		li	a0,354
 1190 01ce 97000000 		call	LCD_Write_Bus
 1190      E7800000 
 1191              	.LVL101:
 1192              	.LBE237:
 1193              	.LBE236:
 255:lcd_bigone.c  **** 	LCD_WR_DATA8(0x02);//
 1194              		.loc 1 255 2
 1195              	.LBB238:
 1196              	.LBB239:
 100:lcd_bigone.c  **** }
 1197              		.loc 1 100 5
 1198 01d6 13052010 		li	a0,258
GAS LISTING /var/folders/rt/4gvqv631095f64jvm7jfj_000000gn/T//cc1i8NTO.s 			page 29


 1199 01da 97000000 		call	LCD_Write_Bus
 1199      E7800000 
 1200              	.LVL102:
 1201              	.LBE239:
 1202              	.LBE238:
 256:lcd_bigone.c  **** 	LCD_WR_DATA8(0x04);//
 1203              		.loc 1 256 2
 1204              	.LBB240:
 1205              	.LBB241:
 100:lcd_bigone.c  **** }
 1206              		.loc 1 100 5
 1207 01e2 13054010 		li	a0,260
 1208 01e6 97000000 		call	LCD_Write_Bus
 1208      E7800000 
 1209              	.LVL103:
 1210              	.LBE241:
 1211              	.LBE240:
 257:lcd_bigone.c  **** 
 258:lcd_bigone.c  **** 	LCD_WR_REG(0xC1); //More power regulation
 1212              		.loc 1 258 2
 1213              	.LBB242:
 1214              	.LBB243:
 128:lcd_bigone.c  **** }
 1215              		.loc 1 128 5
 1216 01ee 1305100C 		li	a0,193
 1217 01f2 97000000 		call	LCD_Write_Bus
 1217      E7800000 
 1218              	.LVL104:
 1219              	.LBE243:
 1220              	.LBE242:
 259:lcd_bigone.c  **** 	LCD_WR_DATA8(0xC0);
 1221              		.loc 1 259 2
 1222              	.LBB244:
 1223              	.LBB245:
 100:lcd_bigone.c  **** }
 1224              		.loc 1 100 5
 1225 01fa 1305001C 		li	a0,448
 1226 01fe 97000000 		call	LCD_Write_Bus
 1226      E7800000 
 1227              	.LVL105:
 1228              	.LBE245:
 1229              	.LBE244:
 260:lcd_bigone.c  **** 
 261:lcd_bigone.c  **** 	LCD_WR_REG(0xC2); //Same
 1230              		.loc 1 261 2
 1231              	.LBB246:
 1232              	.LBB247:
 128:lcd_bigone.c  **** }
 1233              		.loc 1 128 5
 1234 0206 1305200C 		li	a0,194
 1235 020a 97000000 		call	LCD_Write_Bus
 1235      E7800000 
 1236              	.LVL106:
 1237              	.LBE247:
 1238              	.LBE246:
 262:lcd_bigone.c  **** 	LCD_WR_DATA8(0x0D);
 1239              		.loc 1 262 2
GAS LISTING /var/folders/rt/4gvqv631095f64jvm7jfj_000000gn/T//cc1i8NTO.s 			page 30


 1240              	.LBB248:
 1241              	.LBB249:
 100:lcd_bigone.c  **** }
 1242              		.loc 1 100 5
 1243 0212 1305D010 		li	a0,269
 1244 0216 97000000 		call	LCD_Write_Bus
 1244      E7800000 
 1245              	.LVL107:
 1246              	.LBE249:
 1247              	.LBE248:
 263:lcd_bigone.c  **** 	LCD_WR_DATA8(0x00);
 1248              		.loc 1 263 2
 1249              	.LBB250:
 1250              	.LBB251:
 100:lcd_bigone.c  **** }
 1251              		.loc 1 100 5
 1252 021e 13050010 		li	a0,256
 1253 0222 97000000 		call	LCD_Write_Bus
 1253      E7800000 
 1254              	.LVL108:
 1255              	.LBE251:
 1256              	.LBE250:
 264:lcd_bigone.c  **** 
 265:lcd_bigone.c  **** 	LCD_WR_REG(0xC3); //same
 1257              		.loc 1 265 2
 1258              	.LBB252:
 1259              	.LBB253:
 128:lcd_bigone.c  **** }
 1260              		.loc 1 128 5
 1261 022a 1305300C 		li	a0,195
 1262 022e 97000000 		call	LCD_Write_Bus
 1262      E7800000 
 1263              	.LVL109:
 1264              	.LBE253:
 1265              	.LBE252:
 266:lcd_bigone.c  **** 	LCD_WR_DATA8(0x8D);
 1266              		.loc 1 266 2
 1267              	.LBB254:
 1268              	.LBB255:
 100:lcd_bigone.c  **** }
 1269              		.loc 1 100 5
 1270 0236 1305D018 		li	a0,397
 1271 023a 97000000 		call	LCD_Write_Bus
 1271      E7800000 
 1272              	.LVL110:
 1273              	.LBE255:
 1274              	.LBE254:
 267:lcd_bigone.c  **** 	LCD_WR_DATA8(0x6A);   
 1275              		.loc 1 267 2
 1276              	.LBB256:
 1277              	.LBB257:
 100:lcd_bigone.c  **** }
 1278              		.loc 1 100 5
 1279 0242 1305A016 		li	a0,362
 1280 0246 97000000 		call	LCD_Write_Bus
 1280      E7800000 
 1281              	.LVL111:
GAS LISTING /var/folders/rt/4gvqv631095f64jvm7jfj_000000gn/T//cc1i8NTO.s 			page 31


 1282              	.LBE257:
 1283              	.LBE256:
 268:lcd_bigone.c  **** 
 269:lcd_bigone.c  **** 	LCD_WR_REG(0xC4);
 1284              		.loc 1 269 2
 1285              	.LBB258:
 1286              	.LBB259:
 128:lcd_bigone.c  **** }
 1287              		.loc 1 128 5
 1288 024e 1305400C 		li	a0,196
 1289 0252 97000000 		call	LCD_Write_Bus
 1289      E7800000 
 1290              	.LVL112:
 1291              	.LBE259:
 1292              	.LBE258:
 270:lcd_bigone.c  **** 	LCD_WR_DATA8(0x8D); 
 1293              		.loc 1 270 2
 1294              	.LBB260:
 1295              	.LBB261:
 100:lcd_bigone.c  **** }
 1296              		.loc 1 100 5
 1297 025a 1305D018 		li	a0,397
 1298 025e 97000000 		call	LCD_Write_Bus
 1298      E7800000 
 1299              	.LVL113:
 1300              	.LBE261:
 1301              	.LBE260:
 271:lcd_bigone.c  **** 	LCD_WR_DATA8(0xEE); 
 1302              		.loc 1 271 2
 1303              	.LBB262:
 1304              	.LBB263:
 100:lcd_bigone.c  **** }
 1305              		.loc 1 100 5
 1306 0266 1305E01E 		li	a0,494
 1307 026a 97000000 		call	LCD_Write_Bus
 1307      E7800000 
 1308              	.LVL114:
 1309              	.LBE263:
 1310              	.LBE262:
 272:lcd_bigone.c  **** 
 273:lcd_bigone.c  **** 	LCD_WR_REG(0xC5);  /*VCOM*/
 1311              		.loc 1 273 2
 1312              	.LBB264:
 1313              	.LBB265:
 128:lcd_bigone.c  **** }
 1314              		.loc 1 128 5
 1315 0272 1305500C 		li	a0,197
 1316 0276 97000000 		call	LCD_Write_Bus
 1316      E7800000 
 1317              	.LVL115:
 1318              	.LBE265:
 1319              	.LBE264:
 274:lcd_bigone.c  **** 	LCD_WR_DATA8(0x0E);    
 1320              		.loc 1 274 2
 1321              	.LBB266:
 1322              	.LBB267:
 100:lcd_bigone.c  **** }
GAS LISTING /var/folders/rt/4gvqv631095f64jvm7jfj_000000gn/T//cc1i8NTO.s 			page 32


 1323              		.loc 1 100 5
 1324 027e 1305E010 		li	a0,270
 1325 0282 97000000 		call	LCD_Write_Bus
 1325      E7800000 
 1326              	.LVL116:
 1327              	.LBE267:
 1328              	.LBE266:
 275:lcd_bigone.c  **** 
 276:lcd_bigone.c  **** 	LCD_WR_REG(0xE0);  //Gamma correction
 1329              		.loc 1 276 2
 1330              	.LBB268:
 1331              	.LBB269:
 128:lcd_bigone.c  **** }
 1332              		.loc 1 128 5
 1333 028a 1305000E 		li	a0,224
 1334 028e 97000000 		call	LCD_Write_Bus
 1334      E7800000 
 1335              	.LVL117:
 1336              	.LBE269:
 1337              	.LBE268:
 277:lcd_bigone.c  **** 	LCD_WR_DATA8(0x10);
 1338              		.loc 1 277 2
 1339              	.LBB270:
 1340              	.LBB271:
 100:lcd_bigone.c  **** }
 1341              		.loc 1 100 5
 1342 0296 13050011 		li	a0,272
 1343 029a 97000000 		call	LCD_Write_Bus
 1343      E7800000 
 1344              	.LVL118:
 1345              	.LBE271:
 1346              	.LBE270:
 278:lcd_bigone.c  **** 	LCD_WR_DATA8(0x0E);
 1347              		.loc 1 278 2
 1348              	.LBB272:
 1349              	.LBB273:
 100:lcd_bigone.c  **** }
 1350              		.loc 1 100 5
 1351 02a2 1305E010 		li	a0,270
 1352 02a6 97000000 		call	LCD_Write_Bus
 1352      E7800000 
 1353              	.LVL119:
 1354              	.LBE273:
 1355              	.LBE272:
 279:lcd_bigone.c  **** 	LCD_WR_DATA8(0x02);
 1356              		.loc 1 279 2
 1357              	.LBB274:
 1358              	.LBB275:
 100:lcd_bigone.c  **** }
 1359              		.loc 1 100 5
 1360 02ae 13052010 		li	a0,258
 1361 02b2 97000000 		call	LCD_Write_Bus
 1361      E7800000 
 1362              	.LVL120:
 1363              	.LBE275:
 1364              	.LBE274:
 280:lcd_bigone.c  **** 	LCD_WR_DATA8(0x03);
GAS LISTING /var/folders/rt/4gvqv631095f64jvm7jfj_000000gn/T//cc1i8NTO.s 			page 33


 1365              		.loc 1 280 2
 1366              	.LBB276:
 1367              	.LBB277:
 100:lcd_bigone.c  **** }
 1368              		.loc 1 100 5
 1369 02ba 13053010 		li	a0,259
 1370 02be 97000000 		call	LCD_Write_Bus
 1370      E7800000 
 1371              	.LVL121:
 1372              	.LBE277:
 1373              	.LBE276:
 281:lcd_bigone.c  **** 	LCD_WR_DATA8(0x0E);
 1374              		.loc 1 281 2
 1375              	.LBB278:
 1376              	.LBB279:
 100:lcd_bigone.c  **** }
 1377              		.loc 1 100 5
 1378 02c6 1305E010 		li	a0,270
 1379 02ca 97000000 		call	LCD_Write_Bus
 1379      E7800000 
 1380              	.LVL122:
 1381              	.LBE279:
 1382              	.LBE278:
 282:lcd_bigone.c  **** 	LCD_WR_DATA8(0x07);
 1383              		.loc 1 282 2
 1384              	.LBB280:
 1385              	.LBB281:
 100:lcd_bigone.c  **** }
 1386              		.loc 1 100 5
 1387 02d2 13057010 		li	a0,263
 1388 02d6 97000000 		call	LCD_Write_Bus
 1388      E7800000 
 1389              	.LVL123:
 1390              	.LBE281:
 1391              	.LBE280:
 283:lcd_bigone.c  **** 	LCD_WR_DATA8(0x02);
 1392              		.loc 1 283 2
 1393              	.LBB282:
 1394              	.LBB283:
 100:lcd_bigone.c  **** }
 1395              		.loc 1 100 5
 1396 02de 13052010 		li	a0,258
 1397 02e2 97000000 		call	LCD_Write_Bus
 1397      E7800000 
 1398              	.LVL124:
 1399              	.LBE283:
 1400              	.LBE282:
 284:lcd_bigone.c  **** 	LCD_WR_DATA8(0x07);
 1401              		.loc 1 284 2
 1402              	.LBB284:
 1403              	.LBB285:
 100:lcd_bigone.c  **** }
 1404              		.loc 1 100 5
 1405 02ea 13057010 		li	a0,263
 1406 02ee 97000000 		call	LCD_Write_Bus
 1406      E7800000 
 1407              	.LVL125:
GAS LISTING /var/folders/rt/4gvqv631095f64jvm7jfj_000000gn/T//cc1i8NTO.s 			page 34


 1408              	.LBE285:
 1409              	.LBE284:
 285:lcd_bigone.c  **** 	LCD_WR_DATA8(0x0A);
 1410              		.loc 1 285 2
 1411              	.LBB286:
 1412              	.LBB287:
 100:lcd_bigone.c  **** }
 1413              		.loc 1 100 5
 1414 02f6 1305A010 		li	a0,266
 1415 02fa 97000000 		call	LCD_Write_Bus
 1415      E7800000 
 1416              	.LVL126:
 1417              	.LBE287:
 1418              	.LBE286:
 286:lcd_bigone.c  **** 	LCD_WR_DATA8(0x12);
 1419              		.loc 1 286 2
 1420              	.LBB288:
 1421              	.LBB289:
 100:lcd_bigone.c  **** }
 1422              		.loc 1 100 5
 1423 0302 13052011 		li	a0,274
 1424 0306 97000000 		call	LCD_Write_Bus
 1424      E7800000 
 1425              	.LVL127:
 1426              	.LBE289:
 1427              	.LBE288:
 287:lcd_bigone.c  **** 	LCD_WR_DATA8(0x27);
 1428              		.loc 1 287 2
 1429              	.LBB290:
 1430              	.LBB291:
 100:lcd_bigone.c  **** }
 1431              		.loc 1 100 5
 1432 030e 13057012 		li	a0,295
 1433 0312 97000000 		call	LCD_Write_Bus
 1433      E7800000 
 1434              	.LVL128:
 1435              	.LBE291:
 1436              	.LBE290:
 288:lcd_bigone.c  **** 	LCD_WR_DATA8(0x37);
 1437              		.loc 1 288 2
 1438              	.LBB292:
 1439              	.LBB293:
 100:lcd_bigone.c  **** }
 1440              		.loc 1 100 5
 1441 031a 13057013 		li	a0,311
 1442 031e 97000000 		call	LCD_Write_Bus
 1442      E7800000 
 1443              	.LVL129:
 1444              	.LBE293:
 1445              	.LBE292:
 289:lcd_bigone.c  **** 	LCD_WR_DATA8(0x00);
 1446              		.loc 1 289 2
 1447              	.LBB294:
 1448              	.LBB295:
 100:lcd_bigone.c  **** }
 1449              		.loc 1 100 5
 1450 0326 13050010 		li	a0,256
GAS LISTING /var/folders/rt/4gvqv631095f64jvm7jfj_000000gn/T//cc1i8NTO.s 			page 35


 1451 032a 97000000 		call	LCD_Write_Bus
 1451      E7800000 
 1452              	.LVL130:
 1453              	.LBE295:
 1454              	.LBE294:
 290:lcd_bigone.c  **** 	LCD_WR_DATA8(0x0D);
 1455              		.loc 1 290 2
 1456              	.LBB296:
 1457              	.LBB297:
 100:lcd_bigone.c  **** }
 1458              		.loc 1 100 5
 1459 0332 1305D010 		li	a0,269
 1460 0336 97000000 		call	LCD_Write_Bus
 1460      E7800000 
 1461              	.LVL131:
 1462              	.LBE297:
 1463              	.LBE296:
 291:lcd_bigone.c  **** 	LCD_WR_DATA8(0x0E);
 1464              		.loc 1 291 2
 1465              	.LBB298:
 1466              	.LBB299:
 100:lcd_bigone.c  **** }
 1467              		.loc 1 100 5
 1468 033e 1305E010 		li	a0,270
 1469 0342 97000000 		call	LCD_Write_Bus
 1469      E7800000 
 1470              	.LVL132:
 1471              	.LBE299:
 1472              	.LBE298:
 292:lcd_bigone.c  **** 	LCD_WR_DATA8(0x10);
 1473              		.loc 1 292 2
 1474              	.LBB300:
 1475              	.LBB301:
 100:lcd_bigone.c  **** }
 1476              		.loc 1 100 5
 1477 034a 13050011 		li	a0,272
 1478 034e 97000000 		call	LCD_Write_Bus
 1478      E7800000 
 1479              	.LVL133:
 1480              	.LBE301:
 1481              	.LBE300:
 293:lcd_bigone.c  **** 
 294:lcd_bigone.c  **** 	LCD_WR_REG(0xE1);
 1482              		.loc 1 294 2
 1483              	.LBB302:
 1484              	.LBB303:
 128:lcd_bigone.c  **** }
 1485              		.loc 1 128 5
 1486 0356 1305100E 		li	a0,225
 1487 035a 97000000 		call	LCD_Write_Bus
 1487      E7800000 
 1488              	.LVL134:
 1489              	.LBE303:
 1490              	.LBE302:
 295:lcd_bigone.c  **** 	LCD_WR_DATA8(0x10);
 1491              		.loc 1 295 2
 1492              	.LBB304:
GAS LISTING /var/folders/rt/4gvqv631095f64jvm7jfj_000000gn/T//cc1i8NTO.s 			page 36


 1493              	.LBB305:
 100:lcd_bigone.c  **** }
 1494              		.loc 1 100 5
 1495 0362 13050011 		li	a0,272
 1496 0366 97000000 		call	LCD_Write_Bus
 1496      E7800000 
 1497              	.LVL135:
 1498              	.LBE305:
 1499              	.LBE304:
 296:lcd_bigone.c  **** 	LCD_WR_DATA8(0x0E);
 1500              		.loc 1 296 2
 1501              	.LBB306:
 1502              	.LBB307:
 100:lcd_bigone.c  **** }
 1503              		.loc 1 100 5
 1504 036e 1305E010 		li	a0,270
 1505 0372 97000000 		call	LCD_Write_Bus
 1505      E7800000 
 1506              	.LVL136:
 1507              	.LBE307:
 1508              	.LBE306:
 297:lcd_bigone.c  **** 	LCD_WR_DATA8(0x03);
 1509              		.loc 1 297 2
 1510              	.LBB308:
 1511              	.LBB309:
 100:lcd_bigone.c  **** }
 1512              		.loc 1 100 5
 1513 037a 13053010 		li	a0,259
 1514 037e 97000000 		call	LCD_Write_Bus
 1514      E7800000 
 1515              	.LVL137:
 1516              	.LBE309:
 1517              	.LBE308:
 298:lcd_bigone.c  **** 	LCD_WR_DATA8(0x03);
 1518              		.loc 1 298 2
 1519              	.LBB310:
 1520              	.LBB311:
 100:lcd_bigone.c  **** }
 1521              		.loc 1 100 5
 1522 0386 13053010 		li	a0,259
 1523 038a 97000000 		call	LCD_Write_Bus
 1523      E7800000 
 1524              	.LVL138:
 1525              	.LBE311:
 1526              	.LBE310:
 299:lcd_bigone.c  **** 	LCD_WR_DATA8(0x0F);
 1527              		.loc 1 299 2
 1528              	.LBB312:
 1529              	.LBB313:
 100:lcd_bigone.c  **** }
 1530              		.loc 1 100 5
 1531 0392 1305F010 		li	a0,271
 1532 0396 97000000 		call	LCD_Write_Bus
 1532      E7800000 
 1533              	.LVL139:
 1534              	.LBE313:
 1535              	.LBE312:
GAS LISTING /var/folders/rt/4gvqv631095f64jvm7jfj_000000gn/T//cc1i8NTO.s 			page 37


 300:lcd_bigone.c  **** 	LCD_WR_DATA8(0x06);
 1536              		.loc 1 300 2
 1537              	.LBB314:
 1538              	.LBB315:
 100:lcd_bigone.c  **** }
 1539              		.loc 1 100 5
 1540 039e 13056010 		li	a0,262
 1541 03a2 97000000 		call	LCD_Write_Bus
 1541      E7800000 
 1542              	.LVL140:
 1543              	.LBE315:
 1544              	.LBE314:
 301:lcd_bigone.c  **** 	LCD_WR_DATA8(0x02);
 1545              		.loc 1 301 2
 1546              	.LBB316:
 1547              	.LBB317:
 100:lcd_bigone.c  **** }
 1548              		.loc 1 100 5
 1549 03aa 13052010 		li	a0,258
 1550 03ae 97000000 		call	LCD_Write_Bus
 1550      E7800000 
 1551              	.LVL141:
 1552              	.LBE317:
 1553              	.LBE316:
 302:lcd_bigone.c  **** 	LCD_WR_DATA8(0x08);
 1554              		.loc 1 302 2
 1555              	.LBB318:
 1556              	.LBB319:
 100:lcd_bigone.c  **** }
 1557              		.loc 1 100 5
 1558 03b6 13058010 		li	a0,264
 1559 03ba 97000000 		call	LCD_Write_Bus
 1559      E7800000 
 1560              	.LVL142:
 1561              	.LBE319:
 1562              	.LBE318:
 303:lcd_bigone.c  **** 	LCD_WR_DATA8(0x0A);
 1563              		.loc 1 303 2
 1564              	.LBB320:
 1565              	.LBB321:
 100:lcd_bigone.c  **** }
 1566              		.loc 1 100 5
 1567 03c2 1305A010 		li	a0,266
 1568 03c6 97000000 		call	LCD_Write_Bus
 1568      E7800000 
 1569              	.LVL143:
 1570              	.LBE321:
 1571              	.LBE320:
 304:lcd_bigone.c  **** 	LCD_WR_DATA8(0x13);
 1572              		.loc 1 304 2
 1573              	.LBB322:
 1574              	.LBB323:
 100:lcd_bigone.c  **** }
 1575              		.loc 1 100 5
 1576 03ce 13053011 		li	a0,275
 1577 03d2 97000000 		call	LCD_Write_Bus
 1577      E7800000 
GAS LISTING /var/folders/rt/4gvqv631095f64jvm7jfj_000000gn/T//cc1i8NTO.s 			page 38


 1578              	.LVL144:
 1579              	.LBE323:
 1580              	.LBE322:
 305:lcd_bigone.c  **** 	LCD_WR_DATA8(0x26);
 1581              		.loc 1 305 2
 1582              	.LBB324:
 1583              	.LBB325:
 100:lcd_bigone.c  **** }
 1584              		.loc 1 100 5
 1585 03da 13056012 		li	a0,294
 1586 03de 97000000 		call	LCD_Write_Bus
 1586      E7800000 
 1587              	.LVL145:
 1588              	.LBE325:
 1589              	.LBE324:
 306:lcd_bigone.c  **** 	LCD_WR_DATA8(0x36);
 1590              		.loc 1 306 2
 1591              	.LBB326:
 1592              	.LBB327:
 100:lcd_bigone.c  **** }
 1593              		.loc 1 100 5
 1594 03e6 13056013 		li	a0,310
 1595 03ea 97000000 		call	LCD_Write_Bus
 1595      E7800000 
 1596              	.LVL146:
 1597              	.LBE327:
 1598              	.LBE326:
 307:lcd_bigone.c  **** 	LCD_WR_DATA8(0x00);
 1599              		.loc 1 307 2
 1600              	.LBB328:
 1601              	.LBB329:
 100:lcd_bigone.c  **** }
 1602              		.loc 1 100 5
 1603 03f2 13050010 		li	a0,256
 1604 03f6 97000000 		call	LCD_Write_Bus
 1604      E7800000 
 1605              	.LVL147:
 1606              	.LBE329:
 1607              	.LBE328:
 308:lcd_bigone.c  **** 	LCD_WR_DATA8(0x0D);
 1608              		.loc 1 308 2
 1609              	.LBB330:
 1610              	.LBB331:
 100:lcd_bigone.c  **** }
 1611              		.loc 1 100 5
 1612 03fe 1305D010 		li	a0,269
 1613 0402 97000000 		call	LCD_Write_Bus
 1613      E7800000 
 1614              	.LVL148:
 1615              	.LBE331:
 1616              	.LBE330:
 309:lcd_bigone.c  **** 	LCD_WR_DATA8(0x0E);
 1617              		.loc 1 309 2
 1618              	.LBB332:
 1619              	.LBB333:
 100:lcd_bigone.c  **** }
 1620              		.loc 1 100 5
GAS LISTING /var/folders/rt/4gvqv631095f64jvm7jfj_000000gn/T//cc1i8NTO.s 			page 39


 1621 040a 1305E010 		li	a0,270
 1622 040e 97000000 		call	LCD_Write_Bus
 1622      E7800000 
 1623              	.LVL149:
 1624              	.LBE333:
 1625              	.LBE332:
 310:lcd_bigone.c  **** 	LCD_WR_DATA8(0x10);
 1626              		.loc 1 310 2
 1627              	.LBB334:
 1628              	.LBB335:
 100:lcd_bigone.c  **** }
 1629              		.loc 1 100 5
 1630 0416 13050011 		li	a0,272
 1631 041a 97000000 		call	LCD_Write_Bus
 1631      E7800000 
 1632              	.LVL150:
 1633              	.LBE335:
 1634              	.LBE334:
 311:lcd_bigone.c  **** 
 312:lcd_bigone.c  **** 	LCD_WR_REG(0x3A);  //Set color resolution
 1635              		.loc 1 312 2
 1636              	.LBB336:
 1637              	.LBB337:
 128:lcd_bigone.c  **** }
 1638              		.loc 1 128 5
 1639 0422 1305A003 		li	a0,58
 1640 0426 97000000 		call	LCD_Write_Bus
 1640      E7800000 
 1641              	.LVL151:
 1642              	.LBE337:
 1643              	.LBE336:
 313:lcd_bigone.c  **** 	LCD_WR_DATA8(0x05);//16 bit color
 1644              		.loc 1 313 2
 1645              	.LBB338:
 1646              	.LBB339:
 100:lcd_bigone.c  **** }
 1647              		.loc 1 100 5
 1648 042e 13055010 		li	a0,261
 1649 0432 97000000 		call	LCD_Write_Bus
 1649      E7800000 
 1650              	.LVL152:
 1651              	.LBE339:
 1652              	.LBE338:
 314:lcd_bigone.c  **** 
 315:lcd_bigone.c  **** 	LCD_WR_REG(0x36); //Data access mode
 1653              		.loc 1 315 2
 1654              	.LBB340:
 1655              	.LBB341:
 128:lcd_bigone.c  **** }
 1656              		.loc 1 128 5
 1657 043a 13056003 		li	a0,54
 1658 043e 97000000 		call	LCD_Write_Bus
 1658      E7800000 
 1659              	.LVL153:
 1660              	.LBE341:
 1661              	.LBE340:
 316:lcd_bigone.c  **** 	LCD_WR_DATA8(0x78);
GAS LISTING /var/folders/rt/4gvqv631095f64jvm7jfj_000000gn/T//cc1i8NTO.s 			page 40


 1662              		.loc 1 316 2
 1663              	.LBB342:
 1664              	.LBB343:
 100:lcd_bigone.c  **** }
 1665              		.loc 1 100 5
 1666 0446 13058017 		li	a0,376
 1667 044a 97000000 		call	LCD_Write_Bus
 1667      E7800000 
 1668              	.LVL154:
 1669              	.LBE343:
 1670              	.LBE342:
 317:lcd_bigone.c  **** 	LCD_WR_REG(0x29); 
 1671              		.loc 1 317 2
 1672              	.LBB344:
 1673              	.LBB345:
 128:lcd_bigone.c  **** }
 1674              		.loc 1 128 5
 1675              	.LBE345:
 1676              	.LBE344:
 318:lcd_bigone.c  **** } 
 1677              		.loc 1 318 1 is_stmt 0
 1678 0452 2244     		lw	s0,8(sp)
 1679              		.cfi_restore 8
 1680 0454 B240     		lw	ra,12(sp)
 1681              		.cfi_restore 1
 1682              	.LBB348:
 1683              	.LBB346:
 128:lcd_bigone.c  **** }
 1684              		.loc 1 128 5
 1685 0456 13059002 		li	a0,41
 1686              	.LBE346:
 1687              	.LBE348:
 1688              		.loc 1 318 1
 1689 045a 4101     		addi	sp,sp,16
 1690              	.LCFI21:
 1691              		.cfi_def_cfa_offset 0
 1692              	.LBB349:
 1693              	.LBB347:
 128:lcd_bigone.c  **** }
 1694              		.loc 1 128 5
 1695 045c 17030000 		tail	LCD_Write_Bus
 1695      67000300 
 1696              	.LVL155:
 1697              	.LBE347:
 1698              	.LBE349:
 1699              		.cfi_endproc
 1700              	.LFE14:
 1702              		.section	.text.LCD_Clear,"ax",@progbits
 1703              		.align	1
 1704              		.globl	LCD_Clear
 1706              	LCD_Clear:
 1707              	.LFB15:
 319:lcd_bigone.c  **** 
 320:lcd_bigone.c  **** 
 321:lcd_bigone.c  **** /*
 322:lcd_bigone.c  ****   Function description: LCD clear screen function
 323:lcd_bigone.c  ****   Entry data: Color: color to set as background
GAS LISTING /var/folders/rt/4gvqv631095f64jvm7jfj_000000gn/T//cc1i8NTO.s 			page 41


 324:lcd_bigone.c  ****   Return value: None
 325:lcd_bigone.c  **** */
 326:lcd_bigone.c  **** void LCD_Clear(u16 Color)
 327:lcd_bigone.c  **** {
 1708              		.loc 1 327 1 is_stmt 1
 1709              		.cfi_startproc
 1710              	.LVL156:
 328:lcd_bigone.c  **** 	u16 i,j;  	
 1711              		.loc 1 328 2
 329:lcd_bigone.c  **** 	LCD_Address_Set(0,0,LCD_W-1,LCD_H-1);  
 1712              		.loc 1 329 2
 327:lcd_bigone.c  **** 	u16 i,j;  	
 1713              		.loc 1 327 1 is_stmt 0
 1714 0000 4111     		addi	sp,sp,-16
 1715              	.LCFI22:
 1716              		.cfi_def_cfa_offset 16
 1717 0002 4AC0     		sw	s2,0(sp)
 1718              		.loc 1 329 2
 1719 0004 9306F009 		li	a3,159
 1720              		.cfi_offset 18, -16
 327:lcd_bigone.c  **** 	u16 i,j;  	
 1721              		.loc 1 327 1
 1722 0008 2A89     		mv	s2,a0
 1723              		.loc 1 329 2
 1724 000a 1306F009 		li	a2,159
 1725 000e 8145     		li	a1,0
 1726 0010 0145     		li	a0,0
 1727              	.LVL157:
 327:lcd_bigone.c  **** 	u16 i,j;  	
 1728              		.loc 1 327 1
 1729 0012 26C2     		sw	s1,4(sp)
 1730 0014 06C6     		sw	ra,12(sp)
 1731 0016 22C4     		sw	s0,8(sp)
 1732              		.cfi_offset 9, -12
 1733              		.cfi_offset 1, -4
 1734              		.cfi_offset 8, -8
 1735              		.loc 1 329 2
 1736 0018 9304000A 		li	s1,160
 1737 001c 97000000 		call	LCD_Address_Set
 1737      E7800000 
 1738              	.LVL158:
 330:lcd_bigone.c  ****     for(i=0;i<LCD_W;i++)
 1739              		.loc 1 330 5 is_stmt 1
 1740              	.L52:
 327:lcd_bigone.c  **** 	u16 i,j;  	
 1741              		.loc 1 327 1 is_stmt 0
 1742 0024 1304000A 		li	s0,160
 1743              	.LVL159:
 1744              	.L53:
 331:lcd_bigone.c  **** 	  {
 332:lcd_bigone.c  **** 			for (j=0;j<LCD_H;j++)
 333:lcd_bigone.c  **** 				{
 334:lcd_bigone.c  **** 					LCD_WR_DATA(Color);
 1745              		.loc 1 334 6 is_stmt 1 discriminator 3
 1746 0028 4A85     		mv	a0,s2
 1747 002a 7D14     		addi	s0,s0,-1
 1748              	.LVL160:
GAS LISTING /var/folders/rt/4gvqv631095f64jvm7jfj_000000gn/T//cc1i8NTO.s 			page 42


 1749 002c 97000000 		call	LCD_WR_DATA
 1749      E7800000 
 1750              	.LVL161:
 332:lcd_bigone.c  **** 				{
 1751              		.loc 1 332 4 is_stmt 0 discriminator 3
 1752 0034 75F8     		bne	s0,zero,.L53
 1753              	.LVL162:
 1754 0036 FD14     		addi	s1,s1,-1
 1755              	.LVL163:
 330:lcd_bigone.c  ****     for(i=0;i<LCD_W;i++)
 1756              		.loc 1 330 5 discriminator 2
 1757 0038 F5F4     		bne	s1,zero,.L52
 335:lcd_bigone.c  **** 				}
 336:lcd_bigone.c  **** 	  }
 337:lcd_bigone.c  **** }
 1758              		.loc 1 337 1
 1759 003a B240     		lw	ra,12(sp)
 1760              		.cfi_restore 1
 1761 003c 2244     		lw	s0,8(sp)
 1762              		.cfi_restore 8
 1763 003e 9244     		lw	s1,4(sp)
 1764              		.cfi_restore 9
 1765              	.LVL164:
 1766 0040 0249     		lw	s2,0(sp)
 1767              		.cfi_restore 18
 1768              	.LVL165:
 1769 0042 4101     		addi	sp,sp,16
 1770              	.LCFI23:
 1771              		.cfi_def_cfa_offset 0
 1772 0044 8280     		jr	ra
 1773              		.cfi_endproc
 1774              	.LFE15:
 1776              		.section	.text.LCD_ShowChinese,"ax",@progbits
 1777              		.align	1
 1778              		.globl	LCD_ShowChinese
 1780              	LCD_ShowChinese:
 1781              	.LFB16:
 338:lcd_bigone.c  **** 
 339:lcd_bigone.c  **** 
 340:lcd_bigone.c  **** /*
 341:lcd_bigone.c  ****   Function description: LCD display Chinese characters
 342:lcd_bigone.c  ****   Entry data:  x, y: start coordinates
 343:lcd_bigone.c  ****               index: Chinese character number
 344:lcd_bigone.c  ****                size: font size
 345:lcd_bigone.c  ****   Return value: None
 346:lcd_bigone.c  **** */
 347:lcd_bigone.c  **** void LCD_ShowChinese(u16 x,u16 y,u8 index,u8 size,u16 color)	
 348:lcd_bigone.c  **** {  
 1782              		.loc 1 348 1 is_stmt 1
 1783              		.cfi_startproc
 1784              	.LVL166:
 349:lcd_bigone.c  **** 	u8 i,j;
 1785              		.loc 1 349 2
 350:lcd_bigone.c  **** 	u8 *temp,size1;
 1786              		.loc 1 350 2
 351:lcd_bigone.c  **** 	if(size==16){temp=Hzk16;}               // Choose a font size
 1787              		.loc 1 351 2
GAS LISTING /var/folders/rt/4gvqv631095f64jvm7jfj_000000gn/T//cc1i8NTO.s 			page 43


 352:lcd_bigone.c  **** 	if(size==32){temp=Hzk32;}
 1788              		.loc 1 352 2
 348:lcd_bigone.c  **** 	u8 i,j;
 1789              		.loc 1 348 1 is_stmt 0
 1790 0000 0111     		addi	sp,sp,-32
 1791              	.LCFI24:
 1792              		.cfi_def_cfa_offset 32
 1793 0002 22CC     		sw	s0,24(sp)
 1794 0004 4AC8     		sw	s2,16(sp)
 1795 0006 4EC6     		sw	s3,12(sp)
 1796 0008 06CE     		sw	ra,28(sp)
 1797 000a 26CA     		sw	s1,20(sp)
 1798 000c 52C4     		sw	s4,8(sp)
 1799 000e 56C2     		sw	s5,4(sp)
 1800              		.cfi_offset 8, -8
 1801              		.cfi_offset 18, -16
 1802              		.cfi_offset 19, -20
 1803              		.cfi_offset 1, -4
 1804              		.cfi_offset 9, -12
 1805              		.cfi_offset 20, -24
 1806              		.cfi_offset 21, -28
 1807              		.loc 1 352 4
 1808 0010 93070002 		li	a5,32
 348:lcd_bigone.c  **** 	u8 i,j;
 1809              		.loc 1 348 1
 1810 0014 B289     		mv	s3,a2
 1811 0016 3684     		mv	s0,a3
 1812 0018 3A89     		mv	s2,a4
 1813              		.loc 1 352 4
 1814 001a 6397F604 		bne	a3,a5,.L63
 1815              		.loc 1 352 19
 1816 001e B7040000 		lui	s1,%hi(.LANCHOR5)
 1817 0022 93840400 		addi	s1,s1,%lo(.LANCHOR5)
 1818              	.L58:
 1819              	.LVL167:
 353:lcd_bigone.c  ****     LCD_Address_Set(x,y,x+size-1,y+size-1); // Set a region of Chinese characters
 1820              		.loc 1 353 5 is_stmt 1
 1821 0026 9386F5FF 		addi	a3,a1,-1
 1822              	.LVL168:
 1823 002a 1306F5FF 		addi	a2,a0,-1
 1824              	.LVL169:
 1825 002e A296     		add	a3,a3,s0
 1826 0030 2296     		add	a2,a2,s0
 354:lcd_bigone.c  ****     size1=size*size/8;                      // The bytes occupied by a Chinese character
 1827              		.loc 1 354 15 is_stmt 0
 1828 0032 33048402 		mul	s0,s0,s0
 353:lcd_bigone.c  ****     LCD_Address_Set(x,y,x+size-1,y+size-1); // Set a region of Chinese characters
 1829              		.loc 1 353 5
 1830 0036 97000000 		call	LCD_Address_Set
 1830      E7800000 
 1831              	.LVL170:
 1832              		.loc 1 354 5 is_stmt 1
 355:lcd_bigone.c  **** 	temp+=index*size1;                      // Start of writing
 356:lcd_bigone.c  **** 	for(j=0;j<size1;j++)
 357:lcd_bigone.c  **** 	{
 358:lcd_bigone.c  **** 		for(i=0;i<8;i++)
 359:lcd_bigone.c  **** 		{
GAS LISTING /var/folders/rt/4gvqv631095f64jvm7jfj_000000gn/T//cc1i8NTO.s 			page 44


 360:lcd_bigone.c  **** 		 	if((*temp&(1<<i))!=0) {         // Read from the lower bit of the data
 361:lcd_bigone.c  **** 				LCD_WR_DATA(color);         // set dot color
 362:lcd_bigone.c  **** 			}
 363:lcd_bigone.c  **** 			else
 364:lcd_bigone.c  **** 			{
 365:lcd_bigone.c  **** 				LCD_WR_DATA(BACK_COLOR);    // set dot color to background
 1833              		.loc 1 365 5 is_stmt 0
 1834 003e 370A0000 		lui	s4,%hi(BACK_COLOR)
 358:lcd_bigone.c  **** 		{
 1835              		.loc 1 358 3
 1836 0042 A14A     		li	s5,8
 354:lcd_bigone.c  ****     size1=size*size/8;                      // The bytes occupied by a Chinese character
 1837              		.loc 1 354 20
 1838 0044 0D84     		srai	s0,s0,3
 1839              	.LVL171:
 355:lcd_bigone.c  **** 	temp+=index*size1;                      // Start of writing
 1840              		.loc 1 355 2 is_stmt 1
 355:lcd_bigone.c  **** 	temp+=index*size1;                      // Start of writing
 1841              		.loc 1 355 13 is_stmt 0
 1842 0046 1374F40F 		andi	s0,s0,255
 1843              	.LVL172:
 1844 004a B3093403 		mul	s3,s0,s3
 355:lcd_bigone.c  **** 	temp+=index*size1;                      // Start of writing
 1845              		.loc 1 355 6
 1846 004e CE94     		add	s1,s1,s3
 1847              	.LVL173:
 356:lcd_bigone.c  **** 	{
 1848              		.loc 1 356 2 is_stmt 1
 1849 0050 2694     		add	s0,s1,s0
 1850              	.L59:
 356:lcd_bigone.c  **** 	{
 1851              		.loc 1 356 2 is_stmt 0 discriminator 1
 1852 0052 63908402 		bne	s1,s0,.L64
 366:lcd_bigone.c  **** 			}
 367:lcd_bigone.c  **** 		}
 368:lcd_bigone.c  **** 		temp++;
 369:lcd_bigone.c  **** 	 }
 370:lcd_bigone.c  **** }
 1853              		.loc 1 370 1
 1854 0056 F240     		lw	ra,28(sp)
 1855              		.cfi_remember_state
 1856              		.cfi_restore 1
 1857 0058 6244     		lw	s0,24(sp)
 1858              		.cfi_restore 8
 1859 005a D244     		lw	s1,20(sp)
 1860              		.cfi_restore 9
 1861              	.LVL174:
 1862 005c 4249     		lw	s2,16(sp)
 1863              		.cfi_restore 18
 1864              	.LVL175:
 1865 005e B249     		lw	s3,12(sp)
 1866              		.cfi_restore 19
 1867 0060 224A     		lw	s4,8(sp)
 1868              		.cfi_restore 20
 1869 0062 924A     		lw	s5,4(sp)
 1870              		.cfi_restore 21
 1871 0064 0561     		addi	sp,sp,32
GAS LISTING /var/folders/rt/4gvqv631095f64jvm7jfj_000000gn/T//cc1i8NTO.s 			page 45


 1872              	.LCFI25:
 1873              		.cfi_def_cfa_offset 0
 1874 0066 8280     		jr	ra
 1875              	.LVL176:
 1876              	.L63:
 1877              	.LCFI26:
 1878              		.cfi_restore_state
 1879 0068 B7040000 		lui	s1,%hi(.LANCHOR4)
 1880 006c 93840400 		addi	s1,s1,%lo(.LANCHOR4)
 1881 0070 5DBF     		j	.L58
 1882              	.LVL177:
 1883              	.L64:
 1884 0072 8149     		li	s3,0
 1885              	.L62:
 1886              	.LVL178:
 360:lcd_bigone.c  **** 				LCD_WR_DATA(color);         // set dot color
 1887              		.loc 1 360 5 is_stmt 1
 360:lcd_bigone.c  **** 				LCD_WR_DATA(color);         // set dot color
 1888              		.loc 1 360 9 is_stmt 0
 1889 0074 83C70400 		lbu	a5,0(s1)
 361:lcd_bigone.c  **** 			}
 1890              		.loc 1 361 5
 1891 0078 4A85     		mv	a0,s2
 360:lcd_bigone.c  **** 				LCD_WR_DATA(color);         // set dot color
 1892              		.loc 1 360 22
 1893 007a B3D73741 		sra	a5,a5,s3
 1894 007e 858B     		andi	a5,a5,1
 360:lcd_bigone.c  **** 				LCD_WR_DATA(color);         // set dot color
 1895              		.loc 1 360 7
 1896 0080 99E3     		bne	a5,zero,.L67
 1897              	.LVL179:
 365:lcd_bigone.c  **** 			}
 1898              		.loc 1 365 5 is_stmt 1
 1899 0082 03250A00 		lw	a0,%lo(BACK_COLOR)(s4)
 1900              	.LVL180:
 1901              	.L67:
 1902 0086 8509     		addi	s3,s3,1
 1903              	.LVL181:
 1904 0088 97000000 		call	LCD_WR_DATA
 1904      E7800000 
 1905              	.LVL182:
 358:lcd_bigone.c  **** 		{
 1906              		.loc 1 358 3 is_stmt 0
 1907 0090 E39259FF 		bne	s3,s5,.L62
 368:lcd_bigone.c  **** 	 }
 1908              		.loc 1 368 3 is_stmt 1 discriminator 2
 368:lcd_bigone.c  **** 	 }
 1909              		.loc 1 368 7 is_stmt 0 discriminator 2
 1910 0094 8504     		addi	s1,s1,1
 1911              	.LVL183:
 1912 0096 75BF     		j	.L59
 1913              		.cfi_endproc
 1914              	.LFE16:
 1916              		.section	.text.LCD_DrawPoint,"ax",@progbits
 1917              		.align	1
 1918              		.globl	LCD_DrawPoint
 1920              	LCD_DrawPoint:
GAS LISTING /var/folders/rt/4gvqv631095f64jvm7jfj_000000gn/T//cc1i8NTO.s 			page 46


 1921              	.LFB17:
 371:lcd_bigone.c  **** 
 372:lcd_bigone.c  **** 
 373:lcd_bigone.c  **** /*
 374:lcd_bigone.c  ****   Function description: LCD display Chinese characters
 375:lcd_bigone.c  ****   Entry data: x, y: start coordinates
 376:lcd_bigone.c  ****   Return value: None
 377:lcd_bigone.c  **** */
 378:lcd_bigone.c  **** void LCD_DrawPoint(u16 x,u16 y,u16 color)
 379:lcd_bigone.c  **** {
 1922              		.loc 1 379 1 is_stmt 1
 1923              		.cfi_startproc
 1924              	.LVL184:
 380:lcd_bigone.c  **** 	LCD_Address_Set(x,y,x,y); // Set cursor position
 1925              		.loc 1 380 2
 379:lcd_bigone.c  **** 	LCD_Address_Set(x,y,x,y); // Set cursor position
 1926              		.loc 1 379 1 is_stmt 0
 1927 0000 4111     		addi	sp,sp,-16
 1928              	.LCFI27:
 1929              		.cfi_def_cfa_offset 16
 1930 0002 22C4     		sw	s0,8(sp)
 1931              		.loc 1 380 2
 1932 0004 AE86     		mv	a3,a1
 1933              		.cfi_offset 8, -8
 379:lcd_bigone.c  **** 	LCD_Address_Set(x,y,x,y); // Set cursor position
 1934              		.loc 1 379 1
 1935 0006 3284     		mv	s0,a2
 1936              		.loc 1 380 2
 1937 0008 2A86     		mv	a2,a0
 1938              	.LVL185:
 379:lcd_bigone.c  **** 	LCD_Address_Set(x,y,x,y); // Set cursor position
 1939              		.loc 1 379 1
 1940 000a 06C6     		sw	ra,12(sp)
 1941              		.cfi_offset 1, -4
 1942              		.loc 1 380 2
 1943 000c 97000000 		call	LCD_Address_Set
 1943      E7800000 
 1944              	.LVL186:
 381:lcd_bigone.c  **** 	LCD_WR_DATA(color);
 1945              		.loc 1 381 2 is_stmt 1
 1946 0014 2285     		mv	a0,s0
 382:lcd_bigone.c  **** } 
 1947              		.loc 1 382 1 is_stmt 0
 1948 0016 2244     		lw	s0,8(sp)
 1949              		.cfi_restore 8
 1950              	.LVL187:
 1951 0018 B240     		lw	ra,12(sp)
 1952              		.cfi_restore 1
 1953 001a 4101     		addi	sp,sp,16
 1954              	.LCFI28:
 1955              		.cfi_def_cfa_offset 0
 381:lcd_bigone.c  **** 	LCD_WR_DATA(color);
 1956              		.loc 1 381 2
 1957 001c 17030000 		tail	LCD_WR_DATA
 1957      67000300 
 1958              	.LVL188:
 1959              		.cfi_endproc
GAS LISTING /var/folders/rt/4gvqv631095f64jvm7jfj_000000gn/T//cc1i8NTO.s 			page 47


 1960              	.LFE17:
 1962              		.section	.text.LCD_Fill,"ax",@progbits
 1963              		.align	1
 1964              		.globl	LCD_Fill
 1966              	LCD_Fill:
 1967              	.LFB19:
 383:lcd_bigone.c  **** 
 384:lcd_bigone.c  **** 
 385:lcd_bigone.c  **** /*
 386:lcd_bigone.c  ****   Function description: LCD draws a large dot
 387:lcd_bigone.c  ****   Entry data: x, y: start coordinates
 388:lcd_bigone.c  ****   Return value: None
 389:lcd_bigone.c  **** */
 390:lcd_bigone.c  **** void LCD_DrawPoint_big(u16 x,u16 y,u16 color)
 391:lcd_bigone.c  **** {
 392:lcd_bigone.c  **** 	LCD_Fill(x-1,y-1,x+1,y+1,color);
 393:lcd_bigone.c  **** } 
 394:lcd_bigone.c  **** 
 395:lcd_bigone.c  **** 
 396:lcd_bigone.c  **** /*
 397:lcd_bigone.c  ****   Function description: fill color in the specified area
 398:lcd_bigone.c  ****   Entry data: xsta, ysta:  start coordinates
 399:lcd_bigone.c  ****               xend, yend:  end coordinates
 400:lcd_bigone.c  ****   Return value: None
 401:lcd_bigone.c  **** */
 402:lcd_bigone.c  **** void LCD_Fill(u16 xsta,u16 ysta,u16 xend,u16 yend,u16 color)
 403:lcd_bigone.c  **** {          
 1968              		.loc 1 403 1 is_stmt 1
 1969              		.cfi_startproc
 1970              	.LVL189:
 404:lcd_bigone.c  **** 	u16 i,j; 
 1971              		.loc 1 404 2
 405:lcd_bigone.c  **** 	LCD_Address_Set(xsta,ysta,xend,yend);          //Set cursor position
 1972              		.loc 1 405 2
 403:lcd_bigone.c  **** 	u16 i,j; 
 1973              		.loc 1 403 1 is_stmt 0
 1974 0000 0111     		addi	sp,sp,-32
 1975              	.LCFI29:
 1976              		.cfi_def_cfa_offset 32
 1977 0002 22CC     		sw	s0,24(sp)
 1978 0004 4AC8     		sw	s2,16(sp)
 1979 0006 4EC6     		sw	s3,12(sp)
 1980 0008 52C4     		sw	s4,8(sp)
 1981 000a 56C2     		sw	s5,4(sp)
 1982 000c 06CE     		sw	ra,28(sp)
 1983 000e 26CA     		sw	s1,20(sp)
 1984              		.cfi_offset 8, -8
 1985              		.cfi_offset 18, -16
 1986              		.cfi_offset 19, -20
 1987              		.cfi_offset 20, -24
 1988              		.cfi_offset 21, -28
 1989              		.cfi_offset 1, -4
 1990              		.cfi_offset 9, -12
 403:lcd_bigone.c  **** 	u16 i,j; 
 1991              		.loc 1 403 1
 1992 0010 AA89     		mv	s3,a0
 1993 0012 2E84     		mv	s0,a1
GAS LISTING /var/folders/rt/4gvqv631095f64jvm7jfj_000000gn/T//cc1i8NTO.s 			page 48


 1994 0014 328A     		mv	s4,a2
 1995 0016 3689     		mv	s2,a3
 1996 0018 BA8A     		mv	s5,a4
 1997              		.loc 1 405 2
 1998 001a 97000000 		call	LCD_Address_Set
 1998      E7800000 
 1999              	.LVL190:
 406:lcd_bigone.c  **** 	for(i=ysta;i<=yend;i++)
 2000              		.loc 1 406 2 is_stmt 1
 2001              	.L71:
 2002              		.loc 1 406 2 is_stmt 0 discriminator 1
 2003 0022 63758902 		bleu	s0,s2,.L74
 407:lcd_bigone.c  **** 	{													   	 	
 408:lcd_bigone.c  **** 		for(j=xsta;j<=xend;j++)LCD_WR_DATA(color); //Set cursor position
 409:lcd_bigone.c  **** 	} 					  	    
 410:lcd_bigone.c  **** }
 2004              		.loc 1 410 1
 2005 0026 F240     		lw	ra,28(sp)
 2006              		.cfi_remember_state
 2007              		.cfi_restore 1
 2008 0028 6244     		lw	s0,24(sp)
 2009              		.cfi_restore 8
 2010              	.LVL191:
 2011 002a D244     		lw	s1,20(sp)
 2012              		.cfi_restore 9
 2013 002c 4249     		lw	s2,16(sp)
 2014              		.cfi_restore 18
 2015              	.LVL192:
 2016 002e B249     		lw	s3,12(sp)
 2017              		.cfi_restore 19
 2018              	.LVL193:
 2019 0030 224A     		lw	s4,8(sp)
 2020              		.cfi_restore 20
 2021              	.LVL194:
 2022 0032 924A     		lw	s5,4(sp)
 2023              		.cfi_restore 21
 2024              	.LVL195:
 2025 0034 0561     		addi	sp,sp,32
 2026              	.LCFI30:
 2027              		.cfi_def_cfa_offset 0
 2028 0036 8280     		jr	ra
 2029              	.LVL196:
 2030              	.L72:
 2031              	.LCFI31:
 2032              		.cfi_restore_state
 408:lcd_bigone.c  **** 	} 					  	    
 2033              		.loc 1 408 26 is_stmt 1 discriminator 3
 2034 0038 5685     		mv	a0,s5
 2035 003a 97000000 		call	LCD_WR_DATA
 2035      E7800000 
 2036              	.LVL197:
 408:lcd_bigone.c  **** 	} 					  	    
 2037              		.loc 1 408 23 is_stmt 0 discriminator 3
 2038 0042 8504     		addi	s1,s1,1
 2039              	.LVL198:
 2040              	.L73:
 408:lcd_bigone.c  **** 	} 					  	    
GAS LISTING /var/folders/rt/4gvqv631095f64jvm7jfj_000000gn/T//cc1i8NTO.s 			page 49


 2041              		.loc 1 408 3 discriminator 1
 2042 0044 E37A9AFE 		bleu	s1,s4,.L72
 406:lcd_bigone.c  **** 	for(i=ysta;i<=yend;i++)
 2043              		.loc 1 406 22 discriminator 2
 2044 0048 0504     		addi	s0,s0,1
 2045              	.LVL199:
 2046 004a E1BF     		j	.L71
 2047              	.LVL200:
 2048              	.L74:
 408:lcd_bigone.c  **** 	} 					  	    
 2049              		.loc 1 408 8
 2050 004c CE84     		mv	s1,s3
 2051 004e DDBF     		j	.L73
 2052              		.cfi_endproc
 2053              	.LFE19:
 2055              		.section	.text.LCD_DrawPoint_big,"ax",@progbits
 2056              		.align	1
 2057              		.globl	LCD_DrawPoint_big
 2059              	LCD_DrawPoint_big:
 2060              	.LFB18:
 391:lcd_bigone.c  **** 	LCD_Fill(x-1,y-1,x+1,y+1,color);
 2061              		.loc 1 391 1 is_stmt 1
 2062              		.cfi_startproc
 2063              	.LVL201:
 392:lcd_bigone.c  **** } 
 2064              		.loc 1 392 2
 2065 0000 3287     		mv	a4,a2
 2066 0002 93861500 		addi	a3,a1,1
 2067 0006 13061500 		addi	a2,a0,1
 2068              	.LVL202:
 2069 000a FD15     		addi	a1,a1,-1
 2070              	.LVL203:
 2071 000c 7D15     		addi	a0,a0,-1
 2072              	.LVL204:
 2073 000e 17030000 		tail	LCD_Fill
 2073      67000300 
 2074              	.LVL205:
 2075              		.cfi_endproc
 2076              	.LFE18:
 2078              		.section	.text.LCD_DrawLine,"ax",@progbits
 2079              		.align	1
 2080              		.globl	LCD_DrawLine
 2082              	LCD_DrawLine:
 2083              	.LFB20:
 411:lcd_bigone.c  **** 
 412:lcd_bigone.c  **** 
 413:lcd_bigone.c  **** /*
 414:lcd_bigone.c  ****   Function description: draw a line
 415:lcd_bigone.c  ****   Entry data: x1, y1:  start coordinates
 416:lcd_bigone.c  ****               x2, y2:  end coordinates
 417:lcd_bigone.c  ****   Return value: None
 418:lcd_bigone.c  **** ******************************************************************************/
 419:lcd_bigone.c  **** void LCD_DrawLine(u16 x1,u16 y1,u16 x2,u16 y2,u16 color)
 420:lcd_bigone.c  **** {
 2084              		.loc 1 420 1
 2085              		.cfi_startproc
 2086              	.LVL206:
GAS LISTING /var/folders/rt/4gvqv631095f64jvm7jfj_000000gn/T//cc1i8NTO.s 			page 50


 421:lcd_bigone.c  **** 	u16 t; 
 2087              		.loc 1 421 2
 422:lcd_bigone.c  **** 	int xerr=0,yerr=0,delta_x,delta_y,distance;
 2088              		.loc 1 422 2
 423:lcd_bigone.c  **** 	int incx,incy,uRow,uCol;
 2089              		.loc 1 423 2
 424:lcd_bigone.c  **** 	delta_x=x2-x1;                       // Calculate coordinate increments
 2090              		.loc 1 424 2
 420:lcd_bigone.c  **** 	u16 t; 
 2091              		.loc 1 420 1 is_stmt 0
 2092 0000 3971     		addi	sp,sp,-64
 2093              	.LCFI32:
 2094              		.cfi_def_cfa_offset 64
 2095 0002 22DC     		sw	s0,56(sp)
 2096 0004 26DA     		sw	s1,52(sp)
 2097 0006 4AD8     		sw	s2,48(sp)
 2098 0008 4ED6     		sw	s3,44(sp)
 2099 000a 62CC     		sw	s8,24(sp)
 2100 000c 06DE     		sw	ra,60(sp)
 2101 000e 52D4     		sw	s4,40(sp)
 2102 0010 56D2     		sw	s5,36(sp)
 2103 0012 5AD0     		sw	s6,32(sp)
 2104 0014 5ECE     		sw	s7,28(sp)
 2105 0016 66CA     		sw	s9,20(sp)
 2106 0018 6AC8     		sw	s10,16(sp)
 2107              		.cfi_offset 8, -8
 2108              		.cfi_offset 9, -12
 2109              		.cfi_offset 18, -16
 2110              		.cfi_offset 19, -20
 2111              		.cfi_offset 24, -40
 2112              		.cfi_offset 1, -4
 2113              		.cfi_offset 20, -24
 2114              		.cfi_offset 21, -28
 2115              		.cfi_offset 22, -32
 2116              		.cfi_offset 23, -36
 2117              		.cfi_offset 25, -44
 2118              		.cfi_offset 26, -48
 2119              		.loc 1 424 12
 2120 001a 3304A640 		sub	s0,a2,a0
 2121              	.LVL207:
 425:lcd_bigone.c  **** 	delta_y=y2-y1;
 2122              		.loc 1 425 2 is_stmt 1
 2123              		.loc 1 425 12 is_stmt 0
 2124 001e B384B640 		sub	s1,a3,a1
 2125              	.LVL208:
 426:lcd_bigone.c  **** 	uRow=x1;                             // Coordinates of starting point of drawing
 2126              		.loc 1 426 2 is_stmt 1
 2127              		.loc 1 426 6 is_stmt 0
 2128 0022 2A89     		mv	s2,a0
 2129              	.LVL209:
 427:lcd_bigone.c  **** 	uCol=y1;
 2130              		.loc 1 427 2 is_stmt 1
 2131              		.loc 1 427 6 is_stmt 0
 2132 0024 AE89     		mv	s3,a1
 2133              	.LVL210:
 428:lcd_bigone.c  **** 	if(delta_x>0)incx=1;                 // Set single step direction
 2134              		.loc 1 428 2 is_stmt 1
GAS LISTING /var/folders/rt/4gvqv631095f64jvm7jfj_000000gn/T//cc1i8NTO.s 			page 51


 2135              		.loc 1 428 19 is_stmt 0
 2136 0026 054C     		li	s8,1
 2137              		.loc 1 428 4
 2138 0028 63478000 		bgt	s0,zero,.L78
 429:lcd_bigone.c  **** 	else if (delta_x==0)incx=0;          // Vertical line
 2139              		.loc 1 429 7 is_stmt 1
 2140              		.loc 1 429 26 is_stmt 0
 2141 002c 014C     		li	s8,0
 2142              		.loc 1 429 10
 2143 002e 01C4     		beq	s0,zero,.L78
 430:lcd_bigone.c  **** 	else {incx=-1;delta_x=-delta_x;}
 2144              		.loc 1 430 8 is_stmt 1
 2145              	.LVL211:
 2146              		.loc 1 430 16
 2147              		.loc 1 430 23 is_stmt 0
 2148 0030 33048040 		neg	s0,s0
 2149              	.LVL212:
 2150              		.loc 1 430 12
 2151 0034 7D5C     		li	s8,-1
 2152              	.LVL213:
 2153              	.L78:
 431:lcd_bigone.c  **** 	if(delta_y>0)incy=1;
 2154              		.loc 1 431 2 is_stmt 1
 2155              		.loc 1 431 19 is_stmt 0
 2156 0036 854C     		li	s9,1
 2157              		.loc 1 431 4
 2158 0038 63479000 		bgt	s1,zero,.L79
 432:lcd_bigone.c  **** 	else if (delta_y==0)incy=0;          // Horizontal line
 2159              		.loc 1 432 7 is_stmt 1
 2160              		.loc 1 432 26 is_stmt 0
 2161 003c 814C     		li	s9,0
 2162              		.loc 1 432 10
 2163 003e 81C4     		beq	s1,zero,.L79
 433:lcd_bigone.c  **** 	else {incy=-1;delta_y=-delta_y;}
 2164              		.loc 1 433 8 is_stmt 1
 2165              	.LVL214:
 2166              		.loc 1 433 16
 2167              		.loc 1 433 23 is_stmt 0
 2168 0040 B3049040 		neg	s1,s1
 2169              	.LVL215:
 2170              		.loc 1 433 12
 2171 0044 FD5C     		li	s9,-1
 2172              	.LVL216:
 2173              	.L79:
 434:lcd_bigone.c  **** 	if(delta_x>delta_y)distance=delta_x; // Pick basic incremental axis
 2174              		.loc 1 434 2 is_stmt 1
 2175 0046 228A     		mv	s4,s0
 2176 0048 63539400 		bge	s0,s1,.L80
 2177 004c 268A     		mv	s4,s1
 2178              	.L80:
 2179              	.LVL217:
 435:lcd_bigone.c  **** 	else distance=delta_y;
 436:lcd_bigone.c  **** 	for(t=0;t<distance+1;t++)
 2180              		.loc 1 436 2
 422:lcd_bigone.c  **** 	int incx,incy,uRow,uCol;
 2181              		.loc 1 422 13 is_stmt 0
 2182 004e 014B     		li	s6,0
GAS LISTING /var/folders/rt/4gvqv631095f64jvm7jfj_000000gn/T//cc1i8NTO.s 			page 52


 422:lcd_bigone.c  **** 	int incx,incy,uRow,uCol;
 2183              		.loc 1 422 6
 2184 0050 814A     		li	s5,0
 2185              		.loc 1 436 7
 2186 0052 814B     		li	s7,0
 2187              		.loc 1 436 20
 2188 0054 130D1A00 		addi	s10,s4,1
 2189              	.LVL218:
 2190              	.L83:
 437:lcd_bigone.c  **** 	{
 438:lcd_bigone.c  **** 		LCD_DrawPoint(uRow,uCol,color);  // Dot
 2191              		.loc 1 438 3 is_stmt 1
 2192 0058 3A86     		mv	a2,a4
 2193 005a CE85     		mv	a1,s3
 2194 005c 4A85     		mv	a0,s2
 2195 005e 3AC6     		sw	a4,12(sp)
 439:lcd_bigone.c  **** 		xerr+=delta_x;
 2196              		.loc 1 439 7 is_stmt 0
 2197 0060 A29A     		add	s5,s5,s0
 2198              	.LVL219:
 438:lcd_bigone.c  **** 		xerr+=delta_x;
 2199              		.loc 1 438 3
 2200 0062 97000000 		call	LCD_DrawPoint
 2200      E7800000 
 2201              	.LVL220:
 2202              		.loc 1 439 3 is_stmt 1
 440:lcd_bigone.c  **** 		yerr+=delta_y;
 2203              		.loc 1 440 3
 2204              		.loc 1 440 7 is_stmt 0
 2205 006a 269B     		add	s6,s6,s1
 2206              	.LVL221:
 441:lcd_bigone.c  **** 		if(xerr>distance)
 2207              		.loc 1 441 3 is_stmt 1
 2208              		.loc 1 441 5 is_stmt 0
 2209 006c 3247     		lw	a4,12(sp)
 2210 006e 63555A01 		ble	s5,s4,.L81
 442:lcd_bigone.c  **** 		{
 443:lcd_bigone.c  **** 			xerr-=distance;
 2211              		.loc 1 443 4 is_stmt 1
 2212              		.loc 1 443 8 is_stmt 0
 2213 0072 B38A4A41 		sub	s5,s5,s4
 2214              	.LVL222:
 444:lcd_bigone.c  **** 			uRow+=incx;
 2215              		.loc 1 444 4 is_stmt 1
 2216              		.loc 1 444 8 is_stmt 0
 2217 0076 6299     		add	s2,s2,s8
 2218              	.LVL223:
 2219              	.L81:
 445:lcd_bigone.c  **** 		}
 446:lcd_bigone.c  **** 		if(yerr>distance)
 2220              		.loc 1 446 3 is_stmt 1
 2221              		.loc 1 446 5 is_stmt 0
 2222 0078 63556A01 		ble	s6,s4,.L82
 447:lcd_bigone.c  **** 		{
 448:lcd_bigone.c  **** 			yerr-=distance;
 2223              		.loc 1 448 4 is_stmt 1
 2224              		.loc 1 448 8 is_stmt 0
GAS LISTING /var/folders/rt/4gvqv631095f64jvm7jfj_000000gn/T//cc1i8NTO.s 			page 53


 2225 007c 330B4B41 		sub	s6,s6,s4
 2226              	.LVL224:
 449:lcd_bigone.c  **** 			uCol+=incy;
 2227              		.loc 1 449 4 is_stmt 1
 2228              		.loc 1 449 8 is_stmt 0
 2229 0080 E699     		add	s3,s3,s9
 2230              	.LVL225:
 2231              	.L82:
 436:lcd_bigone.c  **** 	{
 2232              		.loc 1 436 24 discriminator 2
 2233 0082 850B     		addi	s7,s7,1
 2234              	.LVL226:
 436:lcd_bigone.c  **** 	{
 2235              		.loc 1 436 2 discriminator 2
 2236 0084 E3EAABFD 		bgtu	s10,s7,.L83
 450:lcd_bigone.c  **** 		}
 451:lcd_bigone.c  **** 	}
 452:lcd_bigone.c  **** }
 2237              		.loc 1 452 1
 2238 0088 F250     		lw	ra,60(sp)
 2239              		.cfi_restore 1
 2240 008a 6254     		lw	s0,56(sp)
 2241              		.cfi_restore 8
 2242              	.LVL227:
 2243 008c D254     		lw	s1,52(sp)
 2244              		.cfi_restore 9
 2245              	.LVL228:
 2246 008e 4259     		lw	s2,48(sp)
 2247              		.cfi_restore 18
 2248              	.LVL229:
 2249 0090 B259     		lw	s3,44(sp)
 2250              		.cfi_restore 19
 2251              	.LVL230:
 2252 0092 225A     		lw	s4,40(sp)
 2253              		.cfi_restore 20
 2254              	.LVL231:
 2255 0094 925A     		lw	s5,36(sp)
 2256              		.cfi_restore 21
 2257              	.LVL232:
 2258 0096 025B     		lw	s6,32(sp)
 2259              		.cfi_restore 22
 2260              	.LVL233:
 2261 0098 F24B     		lw	s7,28(sp)
 2262              		.cfi_restore 23
 2263              	.LVL234:
 2264 009a 624C     		lw	s8,24(sp)
 2265              		.cfi_restore 24
 2266              	.LVL235:
 2267 009c D24C     		lw	s9,20(sp)
 2268              		.cfi_restore 25
 2269              	.LVL236:
 2270 009e 424D     		lw	s10,16(sp)
 2271              		.cfi_restore 26
 2272              	.LVL237:
 2273 00a0 2161     		addi	sp,sp,64
 2274              	.LCFI33:
 2275              		.cfi_def_cfa_offset 0
GAS LISTING /var/folders/rt/4gvqv631095f64jvm7jfj_000000gn/T//cc1i8NTO.s 			page 54


 2276 00a2 8280     		jr	ra
 2277              		.cfi_endproc
 2278              	.LFE20:
 2280              		.section	.text.LCD_DrawRectangle,"ax",@progbits
 2281              		.align	1
 2282              		.globl	LCD_DrawRectangle
 2284              	LCD_DrawRectangle:
 2285              	.LFB21:
 453:lcd_bigone.c  **** 
 454:lcd_bigone.c  **** 
 455:lcd_bigone.c  **** /*
 456:lcd_bigone.c  ****   Function description: draw a rectangle
 457:lcd_bigone.c  ****   Entry data: x1, y1:  start coordinates
 458:lcd_bigone.c  ****               x2, y2:  end coordinates
 459:lcd_bigone.c  ****   Return value: None
 460:lcd_bigone.c  **** */
 461:lcd_bigone.c  **** void LCD_DrawRectangle(u16 x1, u16 y1, u16 x2, u16 y2,u16 color)
 462:lcd_bigone.c  **** {
 2286              		.loc 1 462 1 is_stmt 1
 2287              		.cfi_startproc
 2288              	.LVL238:
 463:lcd_bigone.c  **** 	LCD_DrawLine(x1,y1,x2,y1,color);
 2289              		.loc 1 463 2
 462:lcd_bigone.c  **** 	LCD_DrawLine(x1,y1,x2,y1,color);
 2290              		.loc 1 462 1 is_stmt 0
 2291 0000 0111     		addi	sp,sp,-32
 2292              	.LCFI34:
 2293              		.cfi_def_cfa_offset 32
 2294 0002 22CC     		sw	s0,24(sp)
 2295              		.cfi_offset 8, -8
 2296 0004 3684     		mv	s0,a3
 2297              		.loc 1 463 2
 2298 0006 AE86     		mv	a3,a1
 2299              	.LVL239:
 462:lcd_bigone.c  **** 	LCD_DrawLine(x1,y1,x2,y1,color);
 2300              		.loc 1 462 1
 2301 0008 06CE     		sw	ra,28(sp)
 2302 000a 26CA     		sw	s1,20(sp)
 2303 000c 4AC8     		sw	s2,16(sp)
 2304 000e 4EC6     		sw	s3,12(sp)
 2305 0010 52C4     		sw	s4,8(sp)
 2306              		.cfi_offset 1, -4
 2307              		.cfi_offset 9, -12
 2308              		.cfi_offset 18, -16
 2309              		.cfi_offset 19, -20
 2310              		.cfi_offset 20, -24
 462:lcd_bigone.c  **** 	LCD_DrawLine(x1,y1,x2,y1,color);
 2311              		.loc 1 462 1
 2312 0012 AA89     		mv	s3,a0
 2313 0014 328A     		mv	s4,a2
 2314 0016 3A89     		mv	s2,a4
 2315 0018 AE84     		mv	s1,a1
 2316              		.loc 1 463 2
 2317 001a 97000000 		call	LCD_DrawLine
 2317      E7800000 
 2318              	.LVL240:
 464:lcd_bigone.c  **** 	LCD_DrawLine(x1,y1,x1,y2,color);
GAS LISTING /var/folders/rt/4gvqv631095f64jvm7jfj_000000gn/T//cc1i8NTO.s 			page 55


 2319              		.loc 1 464 2 is_stmt 1
 2320 0022 4A87     		mv	a4,s2
 2321 0024 A286     		mv	a3,s0
 2322 0026 4E86     		mv	a2,s3
 2323 0028 A685     		mv	a1,s1
 2324 002a 4E85     		mv	a0,s3
 2325 002c 97000000 		call	LCD_DrawLine
 2325      E7800000 
 2326              	.LVL241:
 465:lcd_bigone.c  **** 	LCD_DrawLine(x1,y2,x2,y2,color);
 2327              		.loc 1 465 2
 2328 0034 4A87     		mv	a4,s2
 2329 0036 A286     		mv	a3,s0
 2330 0038 5286     		mv	a2,s4
 2331 003a A285     		mv	a1,s0
 2332 003c 4E85     		mv	a0,s3
 2333 003e 97000000 		call	LCD_DrawLine
 2333      E7800000 
 2334              	.LVL242:
 466:lcd_bigone.c  **** 	LCD_DrawLine(x2,y1,x2,y2,color);
 2335              		.loc 1 466 2
 2336 0046 A286     		mv	a3,s0
 467:lcd_bigone.c  **** }
 2337              		.loc 1 467 1 is_stmt 0
 2338 0048 6244     		lw	s0,24(sp)
 2339              		.cfi_restore 8
 2340              	.LVL243:
 2341 004a F240     		lw	ra,28(sp)
 2342              		.cfi_restore 1
 2343 004c B249     		lw	s3,12(sp)
 2344              		.cfi_restore 19
 2345              	.LVL244:
 466:lcd_bigone.c  **** 	LCD_DrawLine(x2,y1,x2,y2,color);
 2346              		.loc 1 466 2
 2347 004e 4A87     		mv	a4,s2
 2348 0050 5286     		mv	a2,s4
 2349              		.loc 1 467 1
 2350 0052 4249     		lw	s2,16(sp)
 2351              		.cfi_restore 18
 2352              	.LVL245:
 466:lcd_bigone.c  **** 	LCD_DrawLine(x2,y1,x2,y2,color);
 2353              		.loc 1 466 2
 2354 0054 A685     		mv	a1,s1
 2355 0056 5285     		mv	a0,s4
 2356              		.loc 1 467 1
 2357 0058 D244     		lw	s1,20(sp)
 2358              		.cfi_restore 9
 2359              	.LVL246:
 2360 005a 224A     		lw	s4,8(sp)
 2361              		.cfi_restore 20
 2362              	.LVL247:
 2363 005c 0561     		addi	sp,sp,32
 2364              	.LCFI35:
 2365              		.cfi_def_cfa_offset 0
 466:lcd_bigone.c  **** 	LCD_DrawLine(x2,y1,x2,y2,color);
 2366              		.loc 1 466 2
 2367 005e 17030000 		tail	LCD_DrawLine
GAS LISTING /var/folders/rt/4gvqv631095f64jvm7jfj_000000gn/T//cc1i8NTO.s 			page 56


 2367      67000300 
 2368              	.LVL248:
 2369              		.cfi_endproc
 2370              	.LFE21:
 2372              		.section	.text.Draw_Circle,"ax",@progbits
 2373              		.align	1
 2374              		.globl	Draw_Circle
 2376              	Draw_Circle:
 2377              	.LFB22:
 468:lcd_bigone.c  **** 
 469:lcd_bigone.c  **** 
 470:lcd_bigone.c  **** /*
 471:lcd_bigone.c  ****   Function description: draw circle
 472:lcd_bigone.c  ****   Entry data: x0, y0:  center coordinates
 473:lcd_bigone.c  ****                    r:  radius
 474:lcd_bigone.c  ****   Return value: None
 475:lcd_bigone.c  **** */
 476:lcd_bigone.c  **** void Draw_Circle(u16 x0,u16 y0,u8 r,u16 color)
 477:lcd_bigone.c  **** {
 2378              		.loc 1 477 1 is_stmt 1
 2379              		.cfi_startproc
 2380              	.LVL249:
 478:lcd_bigone.c  **** 	int a,b;
 2381              		.loc 1 478 2
 479:lcd_bigone.c  **** 	// int di;
 480:lcd_bigone.c  **** 	a=0;b=r;	  
 2382              		.loc 1 480 2
 2383              		.loc 1 480 6
 481:lcd_bigone.c  **** 	while(a<=b)
 482:lcd_bigone.c  **** 	{
 483:lcd_bigone.c  **** 		LCD_DrawPoint(x0-b,y0-a,color);  //3           
 484:lcd_bigone.c  **** 		LCD_DrawPoint(x0+b,y0-a,color);  //0           
 485:lcd_bigone.c  **** 		LCD_DrawPoint(x0-a,y0+b,color);  //1                
 486:lcd_bigone.c  **** 		LCD_DrawPoint(x0-a,y0-b,color);  //2             
 487:lcd_bigone.c  **** 		LCD_DrawPoint(x0+b,y0+a,color);  //4               
 488:lcd_bigone.c  **** 		LCD_DrawPoint(x0+a,y0-b,color);  //5
 489:lcd_bigone.c  **** 		LCD_DrawPoint(x0+a,y0+b,color);             //6 
 490:lcd_bigone.c  **** 		LCD_DrawPoint(x0-b,y0+a,color);             //7
 491:lcd_bigone.c  **** 		a++;
 492:lcd_bigone.c  **** 		if((a*a+b*b)>(r*r)) // Determine whether the points to be drawn are too far away
 2384              		.loc 1 492 18 is_stmt 0
 2385 0000 3307C602 		mul	a4,a2,a2
 477:lcd_bigone.c  **** 	int a,b;
 2386              		.loc 1 477 1
 2387 0004 5D71     		addi	sp,sp,-80
 2388              	.LCFI36:
 2389              		.cfi_def_cfa_offset 80
 2390 0006 A2C4     		sw	s0,72(sp)
 2391 0008 A6C2     		sw	s1,68(sp)
 2392 000a CAC0     		sw	s2,64(sp)
 2393 000c 5ED6     		sw	s7,44(sp)
 2394 000e 62D4     		sw	s8,40(sp)
 2395 0010 86C6     		sw	ra,76(sp)
 2396 0012 4EDE     		sw	s3,60(sp)
 2397 0014 52DC     		sw	s4,56(sp)
 2398 0016 56DA     		sw	s5,52(sp)
 2399 0018 5AD8     		sw	s6,48(sp)
GAS LISTING /var/folders/rt/4gvqv631095f64jvm7jfj_000000gn/T//cc1i8NTO.s 			page 57


 2400 001a 66D2     		sw	s9,36(sp)
 2401 001c 6AD0     		sw	s10,32(sp)
 2402 001e 6ECE     		sw	s11,28(sp)
 2403              		.cfi_offset 8, -8
 2404              		.cfi_offset 9, -12
 2405              		.cfi_offset 18, -16
 2406              		.cfi_offset 23, -36
 2407              		.cfi_offset 24, -40
 2408              		.cfi_offset 1, -4
 2409              		.cfi_offset 19, -20
 2410              		.cfi_offset 20, -24
 2411              		.cfi_offset 21, -28
 2412              		.cfi_offset 22, -32
 2413              		.cfi_offset 25, -44
 2414              		.cfi_offset 26, -48
 2415              		.cfi_offset 27, -52
 477:lcd_bigone.c  **** 	int a,b;
 2416              		.loc 1 477 1
 2417 0020 AA8B     		mv	s7,a0
 2418 0022 2E8C     		mv	s8,a1
 2419 0024 3689     		mv	s2,a3
 480:lcd_bigone.c  **** 	while(a<=b)
 2420              		.loc 1 480 7
 2421 0026 3284     		mv	s0,a2
 2422              	.LVL250:
 481:lcd_bigone.c  **** 	while(a<=b)
 2423              		.loc 1 481 2 is_stmt 1
 480:lcd_bigone.c  **** 	while(a<=b)
 2424              		.loc 1 480 3 is_stmt 0
 2425 0028 8144     		li	s1,0
 2426              	.LVL251:
 2427              	.L96:
 2428 002a B3099C40 		sub	s3,s8,s1
 483:lcd_bigone.c  **** 		LCD_DrawPoint(x0+b,y0-a,color);  //0           
 2429              		.loc 1 483 3
 2430 002e B38A8B40 		sub	s5,s7,s0
 2431 0032 CE85     		mv	a1,s3
 2432 0034 4A86     		mv	a2,s2
 2433 0036 5685     		mv	a0,s5
 2434 0038 3AC6     		sw	a4,12(sp)
 2435              	.LVL252:
 483:lcd_bigone.c  **** 		LCD_DrawPoint(x0+b,y0-a,color);  //0           
 2436              		.loc 1 483 3 is_stmt 1
 484:lcd_bigone.c  **** 		LCD_DrawPoint(x0-a,y0+b,color);  //1                
 2437              		.loc 1 484 3 is_stmt 0
 2438 003a 330D7401 		add	s10,s0,s7
 483:lcd_bigone.c  **** 		LCD_DrawPoint(x0+b,y0-a,color);  //0           
 2439              		.loc 1 483 3
 2440 003e 97000000 		call	LCD_DrawPoint
 2440      E7800000 
 2441              	.LVL253:
 484:lcd_bigone.c  **** 		LCD_DrawPoint(x0-a,y0+b,color);  //1                
 2442              		.loc 1 484 3 is_stmt 1
 2443 0046 CE85     		mv	a1,s3
 2444 0048 4A86     		mv	a2,s2
 2445 004a 6A85     		mv	a0,s10
 2446 004c 97000000 		call	LCD_DrawPoint
GAS LISTING /var/folders/rt/4gvqv631095f64jvm7jfj_000000gn/T//cc1i8NTO.s 			page 58


 2446      E7800000 
 2447              	.LVL254:
 485:lcd_bigone.c  **** 		LCD_DrawPoint(x0-a,y0-b,color);  //2             
 2448              		.loc 1 485 3
 2449 0054 338A9B40 		sub	s4,s7,s1
 2450 0058 330B8401 		add	s6,s0,s8
 2451 005c 5285     		mv	a0,s4
 2452 005e 4A86     		mv	a2,s2
 2453 0060 DA85     		mv	a1,s6
 2454 0062 97000000 		call	LCD_DrawPoint
 2454      E7800000 
 2455              	.LVL255:
 486:lcd_bigone.c  **** 		LCD_DrawPoint(x0+b,y0+a,color);  //4               
 2456              		.loc 1 486 3
 2457 006a B30C8C40 		sub	s9,s8,s0
 2458 006e 5285     		mv	a0,s4
 2459 0070 939D1400 		slli	s11,s1,1
 2460 0074 4A86     		mv	a2,s2
 2461 0076 E685     		mv	a1,s9
 2462 0078 97000000 		call	LCD_DrawPoint
 2462      E7800000 
 2463              	.LVL256:
 487:lcd_bigone.c  **** 		LCD_DrawPoint(x0+a,y0-b,color);  //5
 2464              		.loc 1 487 3
 2465 0080 EE99     		add	s3,s3,s11
 2466 0082 4A86     		mv	a2,s2
 2467 0084 CE85     		mv	a1,s3
 2468 0086 6A85     		mv	a0,s10
 2469 0088 97000000 		call	LCD_DrawPoint
 2469      E7800000 
 2470              	.LVL257:
 488:lcd_bigone.c  **** 		LCD_DrawPoint(x0+a,y0+b,color);             //6 
 2471              		.loc 1 488 3
 2472 0090 6E9A     		add	s4,s4,s11
 2473 0092 4A86     		mv	a2,s2
 2474 0094 E685     		mv	a1,s9
 2475 0096 5285     		mv	a0,s4
 2476 0098 97000000 		call	LCD_DrawPoint
 2476      E7800000 
 2477              	.LVL258:
 489:lcd_bigone.c  **** 		LCD_DrawPoint(x0-b,y0+a,color);             //7
 2478              		.loc 1 489 3
 2479 00a0 4A86     		mv	a2,s2
 2480 00a2 DA85     		mv	a1,s6
 2481 00a4 5285     		mv	a0,s4
 2482 00a6 97000000 		call	LCD_DrawPoint
 2482      E7800000 
 2483              	.LVL259:
 490:lcd_bigone.c  **** 		a++;
 2484              		.loc 1 490 3
 2485 00ae 4A86     		mv	a2,s2
 2486 00b0 CE85     		mv	a1,s3
 2487 00b2 5685     		mv	a0,s5
 2488 00b4 97000000 		call	LCD_DrawPoint
 2488      E7800000 
 2489              	.LVL260:
 491:lcd_bigone.c  **** 		if((a*a+b*b)>(r*r)) // Determine whether the points to be drawn are too far away
GAS LISTING /var/folders/rt/4gvqv631095f64jvm7jfj_000000gn/T//cc1i8NTO.s 			page 59


 2490              		.loc 1 491 3
 491:lcd_bigone.c  **** 		if((a*a+b*b)>(r*r)) // Determine whether the points to be drawn are too far away
 2491              		.loc 1 491 4 is_stmt 0
 2492 00bc 8504     		addi	s1,s1,1
 2493              	.LVL261:
 2494              		.loc 1 492 3 is_stmt 1
 2495              		.loc 1 492 8 is_stmt 0
 2496 00be B3879402 		mul	a5,s1,s1
 2497              		.loc 1 492 5
 2498 00c2 3247     		lw	a4,12(sp)
 2499              		.loc 1 492 12
 2500 00c4 B3068402 		mul	a3,s0,s0
 2501              		.loc 1 492 10
 2502 00c8 B697     		add	a5,a5,a3
 2503              		.loc 1 492 5
 2504 00ca 6353F700 		ble	a5,a4,.L95
 493:lcd_bigone.c  **** 		{
 494:lcd_bigone.c  **** 			b--;
 2505              		.loc 1 494 4 is_stmt 1
 2506              		.loc 1 494 5 is_stmt 0
 2507 00ce 7D14     		addi	s0,s0,-1
 2508              	.LVL262:
 2509              	.L95:
 481:lcd_bigone.c  **** 	{
 2510              		.loc 1 481 7
 2511 00d0 E35D94F4 		bge	s0,s1,.L96
 495:lcd_bigone.c  **** 		}
 496:lcd_bigone.c  **** 	}
 497:lcd_bigone.c  **** }
 2512              		.loc 1 497 1
 2513 00d4 B640     		lw	ra,76(sp)
 2514              		.cfi_restore 1
 2515 00d6 2644     		lw	s0,72(sp)
 2516              		.cfi_restore 8
 2517              	.LVL263:
 2518 00d8 9644     		lw	s1,68(sp)
 2519              		.cfi_restore 9
 2520              	.LVL264:
 2521 00da 0649     		lw	s2,64(sp)
 2522              		.cfi_restore 18
 2523              	.LVL265:
 2524 00dc F259     		lw	s3,60(sp)
 2525              		.cfi_restore 19
 2526 00de 625A     		lw	s4,56(sp)
 2527              		.cfi_restore 20
 2528 00e0 D25A     		lw	s5,52(sp)
 2529              		.cfi_restore 21
 2530 00e2 425B     		lw	s6,48(sp)
 2531              		.cfi_restore 22
 2532 00e4 B25B     		lw	s7,44(sp)
 2533              		.cfi_restore 23
 2534              	.LVL266:
 2535 00e6 225C     		lw	s8,40(sp)
 2536              		.cfi_restore 24
 2537              	.LVL267:
 2538 00e8 925C     		lw	s9,36(sp)
 2539              		.cfi_restore 25
GAS LISTING /var/folders/rt/4gvqv631095f64jvm7jfj_000000gn/T//cc1i8NTO.s 			page 60


 2540 00ea 025D     		lw	s10,32(sp)
 2541              		.cfi_restore 26
 2542 00ec F24D     		lw	s11,28(sp)
 2543              		.cfi_restore 27
 2544 00ee 6161     		addi	sp,sp,80
 2545              	.LCFI37:
 2546              		.cfi_def_cfa_offset 0
 2547 00f0 8280     		jr	ra
 2548              		.cfi_endproc
 2549              	.LFE22:
 2551              		.section	.text.LCD_ShowChar,"ax",@progbits
 2552              		.align	1
 2553              		.globl	LCD_ShowChar
 2555              	LCD_ShowChar:
 2556              	.LFB23:
 498:lcd_bigone.c  **** 
 499:lcd_bigone.c  **** 
 500:lcd_bigone.c  **** /*
 501:lcd_bigone.c  ****   Function description: display characters
 502:lcd_bigone.c  ****   Entry data: x, y:  start point coordinates
 503:lcd_bigone.c  ****                num:  characters to display
 504:lcd_bigone.c  ****               mode:  1: transparent mode
 505:lcd_bigone.c  ****                      0: non-transparent mode
 506:lcd_bigone.c  ****   Return value: None
 507:lcd_bigone.c  **** */
 508:lcd_bigone.c  **** void LCD_ShowChar(u16 x,u16 y,u8 num,u8 mode,u16 color)
 509:lcd_bigone.c  **** {
 2557              		.loc 1 509 1 is_stmt 1
 2558              		.cfi_startproc
 2559              	.LVL268:
 510:lcd_bigone.c  ****     u8 temp;
 2560              		.loc 1 510 5
 511:lcd_bigone.c  ****     u8 pos,t;
 2561              		.loc 1 511 5
 512:lcd_bigone.c  **** 	  u16 x0=x;    
 2562              		.loc 1 512 4
 513:lcd_bigone.c  ****     if(x>LCD_W-8 || y>LCD_H-16)return;	// Outside of display area
 2563              		.loc 1 513 5
 2564              		.loc 1 513 7 is_stmt 0
 2565 0000 93078009 		li	a5,152
 2566 0004 63ECA70C 		bgtu	a0,a5,.L118
 509:lcd_bigone.c  ****     u8 temp;
 2567              		.loc 1 509 1 discriminator 2
 2568 0008 7971     		addi	sp,sp,-48
 2569              	.LCFI38:
 2570              		.cfi_def_cfa_offset 48
 2571 000a 22D4     		sw	s0,40(sp)
 2572 000c 06D6     		sw	ra,44(sp)
 2573 000e 26D2     		sw	s1,36(sp)
 2574 0010 4AD0     		sw	s2,32(sp)
 2575 0012 4ECE     		sw	s3,28(sp)
 2576 0014 52CC     		sw	s4,24(sp)
 2577 0016 56CA     		sw	s5,20(sp)
 2578 0018 5AC8     		sw	s6,16(sp)
 2579 001a 5EC6     		sw	s7,12(sp)
 2580              		.cfi_offset 8, -8
 2581              		.cfi_offset 1, -4
GAS LISTING /var/folders/rt/4gvqv631095f64jvm7jfj_000000gn/T//cc1i8NTO.s 			page 61


 2582              		.cfi_offset 9, -12
 2583              		.cfi_offset 18, -16
 2584              		.cfi_offset 19, -20
 2585              		.cfi_offset 20, -24
 2586              		.cfi_offset 21, -28
 2587              		.cfi_offset 22, -32
 2588              		.cfi_offset 23, -36
 2589              		.loc 1 513 18 discriminator 2
 2590 001c 93070009 		li	a5,144
 2591 0020 2E84     		mv	s0,a1
 2592 0022 63E6B706 		bgtu	a1,a5,.L99
 2593 0026 B284     		mv	s1,a2
 2594              	.LBB352:
 2595              	.LBB353:
 514:lcd_bigone.c  **** 	num=num-' ';                        // Get offset value
 2596              		.loc 1 514 5
 2597 0028 8114     		addi	s1,s1,-32
 2598 002a 93F4F40F 		andi	s1,s1,0xff
 2599 002e B68A     		mv	s5,a3
 515:lcd_bigone.c  **** 	LCD_Address_Set(x,y,x+8-1,y+16-1);  // Set cursor position
 2600              		.loc 1 515 2
 2601 0030 13067500 		addi	a2,a0,7
 2602              	.LVL269:
 2603 0034 9386F500 		addi	a3,a1,15
 2604              	.LVL270:
 2605 0038 13994400 		slli	s2,s1,4
 2606 003c B7040000 		lui	s1,%hi(.LANCHOR6)
 2607 0040 AA89     		mv	s3,a0
 2608 0042 3A8A     		mv	s4,a4
 2609              	.LVL271:
 514:lcd_bigone.c  **** 	num=num-' ';                        // Get offset value
 2610              		.loc 1 514 2 is_stmt 1
 2611              		.loc 1 515 2
 2612 0044 93840400 		addi	s1,s1,%lo(.LANCHOR6)
 2613 0048 97000000 		call	LCD_Address_Set
 2613      E7800000 
 2614              	.LVL272:
 516:lcd_bigone.c  **** 	if(!mode)
 2615              		.loc 1 516 2
 2616              		.loc 1 516 4 is_stmt 0
 2617 0050 639A0A04 		bne	s5,zero,.L102
 2618 0054 8149     		li	s3,0
 2619              	.LVL273:
 517:lcd_bigone.c  **** 	{
 518:lcd_bigone.c  **** 		// non-trasparent mode
 519:lcd_bigone.c  **** 		for(pos=0;pos<16;pos++)
 520:lcd_bigone.c  **** 		{ 
 521:lcd_bigone.c  **** 			temp=asc2_1608[(u16)num*16+pos];  // load 1608 font character
 522:lcd_bigone.c  **** 			for(t=0;t<8;t++)
 523:lcd_bigone.c  **** 		    {                 
 524:lcd_bigone.c  **** 		        if(temp&0x01)LCD_WR_DATA(color);
 525:lcd_bigone.c  **** 				else LCD_WR_DATA(BACK_COLOR);
 2620              		.loc 1 525 10
 2621 0056 B70B0000 		lui	s7,%hi(BACK_COLOR)
 519:lcd_bigone.c  **** 		{ 
 2622              		.loc 1 519 3
 2623 005a 414B     		li	s6,16
GAS LISTING /var/folders/rt/4gvqv631095f64jvm7jfj_000000gn/T//cc1i8NTO.s 			page 62


 2624              	.LVL274:
 2625              	.L106:
 521:lcd_bigone.c  **** 			for(t=0;t<8;t++)
 2626              		.loc 1 521 4 is_stmt 1
 521:lcd_bigone.c  **** 			for(t=0;t<8;t++)
 2627              		.loc 1 521 8 is_stmt 0
 2628 005c B3073901 		add	a5,s2,s3
 2629 0060 A697     		add	a5,s1,a5
 2630 0062 83CA0700 		lbu	s5,0(a5)
 2631              	.LVL275:
 522:lcd_bigone.c  **** 		    {                 
 2632              		.loc 1 522 4 is_stmt 1
 521:lcd_bigone.c  **** 			for(t=0;t<8;t++)
 2633              		.loc 1 521 8 is_stmt 0
 2634 0066 2144     		li	s0,8
 2635              	.LVL276:
 2636              	.L105:
 524:lcd_bigone.c  **** 				else LCD_WR_DATA(BACK_COLOR);
 2637              		.loc 1 524 11 is_stmt 1
 524:lcd_bigone.c  **** 				else LCD_WR_DATA(BACK_COLOR);
 2638              		.loc 1 524 13 is_stmt 0
 2639 0068 93F71A00 		andi	a5,s5,1
 524:lcd_bigone.c  **** 				else LCD_WR_DATA(BACK_COLOR);
 2640              		.loc 1 524 24
 2641 006c 5285     		mv	a0,s4
 524:lcd_bigone.c  **** 				else LCD_WR_DATA(BACK_COLOR);
 2642              		.loc 1 524 13
 2643 006e 99E3     		bne	a5,zero,.L121
 2644              	.LVL277:
 2645              		.loc 1 525 10 is_stmt 1
 2646 0070 03A50B00 		lw	a0,%lo(BACK_COLOR)(s7)
 2647              	.LVL278:
 2648              	.L121:
 2649 0074 7D14     		addi	s0,s0,-1
 2650              	.LVL279:
 2651 0076 1374F40F 		andi	s0,s0,0xff
 2652 007a 97000000 		call	LCD_WR_DATA
 2652      E7800000 
 2653              	.LVL280:
 526:lcd_bigone.c  **** 				temp>>=1;
 2654              		.loc 1 526 5
 2655              		.loc 1 526 9 is_stmt 0
 2656 0082 93DA1A00 		srli	s5,s5,1
 2657              	.LVL281:
 527:lcd_bigone.c  **** 				x++;
 2658              		.loc 1 527 5 is_stmt 1
 522:lcd_bigone.c  **** 		    {                 
 2659              		.loc 1 522 4 is_stmt 0
 2660 0086 6DF0     		bne	s0,zero,.L105
 528:lcd_bigone.c  **** 		    }
 529:lcd_bigone.c  **** 			x=x0;
 2661              		.loc 1 529 4 is_stmt 1
 2662              	.LVL282:
 530:lcd_bigone.c  **** 			y++;
 2663              		.loc 1 530 4
 2664 0088 8509     		addi	s3,s3,1
 2665              	.LVL283:
GAS LISTING /var/folders/rt/4gvqv631095f64jvm7jfj_000000gn/T//cc1i8NTO.s 			page 63


 519:lcd_bigone.c  **** 		{ 
 2666              		.loc 1 519 3 is_stmt 0
 2667 008a E39969FD 		bne	s3,s6,.L106
 2668              	.LVL284:
 2669              	.L99:
 2670              	.LBE353:
 2671              	.LBE352:
 531:lcd_bigone.c  **** 		}	
 532:lcd_bigone.c  **** 	}else
 533:lcd_bigone.c  **** 	{
 534:lcd_bigone.c  **** 		// Transparent mode
 535:lcd_bigone.c  **** 		for(pos=0;pos<16;pos++)
 536:lcd_bigone.c  **** 		{
 537:lcd_bigone.c  **** 		    temp=asc2_1608[(u16)num*16+pos]; // load 1608 font character
 538:lcd_bigone.c  **** 			for(t=0;t<8;t++)
 539:lcd_bigone.c  **** 		    {                 
 540:lcd_bigone.c  **** 		        if(temp&0x01)LCD_DrawPoint(x+t,y+pos,color); //Draw a dot
 541:lcd_bigone.c  **** 		        temp>>=1; 
 542:lcd_bigone.c  **** 		    }
 543:lcd_bigone.c  **** 		}
 544:lcd_bigone.c  **** 	}   	   	 	  
 545:lcd_bigone.c  **** }
 2672              		.loc 1 545 1
 2673 008e B250     		lw	ra,44(sp)
 2674              		.cfi_remember_state
 2675              		.cfi_restore 1
 2676 0090 2254     		lw	s0,40(sp)
 2677              		.cfi_restore 8
 2678 0092 9254     		lw	s1,36(sp)
 2679              		.cfi_restore 9
 2680 0094 0259     		lw	s2,32(sp)
 2681              		.cfi_restore 18
 2682 0096 F249     		lw	s3,28(sp)
 2683              		.cfi_restore 19
 2684 0098 624A     		lw	s4,24(sp)
 2685              		.cfi_restore 20
 2686 009a D24A     		lw	s5,20(sp)
 2687              		.cfi_restore 21
 2688 009c 424B     		lw	s6,16(sp)
 2689              		.cfi_restore 22
 2690 009e B24B     		lw	s7,12(sp)
 2691              		.cfi_restore 23
 2692 00a0 4561     		addi	sp,sp,48
 2693              	.LCFI39:
 2694              		.cfi_def_cfa_offset 0
 2695 00a2 8280     		jr	ra
 2696              	.LVL285:
 2697              	.L102:
 2698              	.LCFI40:
 2699              		.cfi_restore_state
 2700 00a4 CA94     		add	s1,s1,s2
 2701 00a6 130B0401 		addi	s6,s0,16
 2702              	.LBB355:
 2703              	.LBB354:
 538:lcd_bigone.c  **** 		    {                 
 2704              		.loc 1 538 4
 2705 00aa A14B     		li	s7,8
GAS LISTING /var/folders/rt/4gvqv631095f64jvm7jfj_000000gn/T//cc1i8NTO.s 			page 64


 2706              	.LVL286:
 2707              	.L109:
 537:lcd_bigone.c  **** 			for(t=0;t<8;t++)
 2708              		.loc 1 537 7 is_stmt 1
 537:lcd_bigone.c  **** 			for(t=0;t<8;t++)
 2709              		.loc 1 537 11 is_stmt 0
 2710 00ac 83CA0400 		lbu	s5,0(s1)
 2711              	.LVL287:
 538:lcd_bigone.c  **** 		    {                 
 2712              		.loc 1 538 4 is_stmt 1
 537:lcd_bigone.c  **** 			for(t=0;t<8;t++)
 2713              		.loc 1 537 11 is_stmt 0
 2714 00b0 0149     		li	s2,0
 2715              	.LVL288:
 2716              	.L108:
 540:lcd_bigone.c  **** 		        temp>>=1; 
 2717              		.loc 1 540 11 is_stmt 1
 540:lcd_bigone.c  **** 		        temp>>=1; 
 2718              		.loc 1 540 13 is_stmt 0
 2719 00b2 93F71A00 		andi	a5,s5,1
 2720 00b6 89CB     		beq	a5,zero,.L107
 540:lcd_bigone.c  **** 		        temp>>=1; 
 2721              		.loc 1 540 24 is_stmt 1
 2722 00b8 5286     		mv	a2,s4
 2723 00ba A285     		mv	a1,s0
 2724 00bc 33852901 		add	a0,s3,s2
 2725 00c0 97000000 		call	LCD_DrawPoint
 2725      E7800000 
 2726              	.LVL289:
 2727              	.L107:
 541:lcd_bigone.c  **** 		    }
 2728              		.loc 1 541 11
 2729 00c8 0509     		addi	s2,s2,1
 2730              	.LVL290:
 541:lcd_bigone.c  **** 		    }
 2731              		.loc 1 541 15 is_stmt 0
 2732 00ca 93DA1A00 		srli	s5,s5,1
 2733              	.LVL291:
 538:lcd_bigone.c  **** 		    {                 
 2734              		.loc 1 538 4
 2735 00ce E31279FF 		bne	s2,s7,.L108
 2736 00d2 0504     		addi	s0,s0,1
 2737 00d4 8504     		addi	s1,s1,1
 535:lcd_bigone.c  **** 		{
 2738              		.loc 1 535 3
 2739 00d6 E31B64FD 		bne	s0,s6,.L109
 2740 00da 55BF     		j	.L99
 2741              	.LVL292:
 2742              	.L118:
 2743              	.LCFI41:
 2744              		.cfi_def_cfa_offset 0
 2745              		.cfi_restore 1
 2746              		.cfi_restore 8
 2747              		.cfi_restore 9
 2748              		.cfi_restore 18
 2749              		.cfi_restore 19
 2750              		.cfi_restore 20
GAS LISTING /var/folders/rt/4gvqv631095f64jvm7jfj_000000gn/T//cc1i8NTO.s 			page 65


 2751              		.cfi_restore 21
 2752              		.cfi_restore 22
 2753              		.cfi_restore 23
 2754 00dc 8280     		ret
 2755              	.LBE354:
 2756              	.LBE355:
 2757              		.cfi_endproc
 2758              	.LFE23:
 2760              		.section	.text.LCD_ShowString,"ax",@progbits
 2761              		.align	1
 2762              		.globl	LCD_ShowString
 2764              	LCD_ShowString:
 2765              	.LFB24:
 546:lcd_bigone.c  **** 
 547:lcd_bigone.c  **** 
 548:lcd_bigone.c  **** /*
 549:lcd_bigone.c  ****   Function description: display string
 550:lcd_bigone.c  ****   Entry data: x, y:  start point coordinates
 551:lcd_bigone.c  ****                 *p:  string start address
 552:lcd_bigone.c  ****   Return value: None
 553:lcd_bigone.c  ****   Note: If character position is outside the display area
 554:lcd_bigone.c  ****         display is cleared in red color and the character
 555:lcd_bigone.c  **** 		position is set to (0,0)
 556:lcd_bigone.c  **** */
 557:lcd_bigone.c  **** void LCD_ShowString(u16 x,u16 y,const u8 *p,u16 color)
 558:lcd_bigone.c  **** {         
 2766              		.loc 1 558 1 is_stmt 1
 2767              		.cfi_startproc
 2768              	.LVL293:
 559:lcd_bigone.c  ****     while(*p!='\0')
 2769              		.loc 1 559 5
 558:lcd_bigone.c  ****     while(*p!='\0')
 2770              		.loc 1 558 1 is_stmt 0
 2771 0000 0111     		addi	sp,sp,-32
 2772              	.LCFI42:
 2773              		.cfi_def_cfa_offset 32
 2774 0002 4EC6     		sw	s3,12(sp)
 2775              		.cfi_offset 19, -20
 560:lcd_bigone.c  ****     {       
 561:lcd_bigone.c  ****         if(x>LCD_W-8){x=0;y+=16;}
 562:lcd_bigone.c  ****         if(y>LCD_H-16){y=x=0;LCD_Clear(RED);}
 2776              		.loc 1 562 30
 2777 0004 C169     		li	s3,65536
 558:lcd_bigone.c  ****     while(*p!='\0')
 2778              		.loc 1 558 1
 2779 0006 22CC     		sw	s0,24(sp)
 2780 0008 26CA     		sw	s1,20(sp)
 2781 000a 4AC8     		sw	s2,16(sp)
 2782 000c 52C4     		sw	s4,8(sp)
 2783 000e 56C2     		sw	s5,4(sp)
 2784 0010 5AC0     		sw	s6,0(sp)
 2785 0012 06CE     		sw	ra,28(sp)
 2786              		.cfi_offset 8, -8
 2787              		.cfi_offset 9, -12
 2788              		.cfi_offset 18, -16
 2789              		.cfi_offset 20, -24
 2790              		.cfi_offset 21, -28
GAS LISTING /var/folders/rt/4gvqv631095f64jvm7jfj_000000gn/T//cc1i8NTO.s 			page 66


 2791              		.cfi_offset 22, -32
 2792              		.cfi_offset 1, -4
 558:lcd_bigone.c  ****     while(*p!='\0')
 2793              		.loc 1 558 1
 2794 0014 2A84     		mv	s0,a0
 2795 0016 AE84     		mv	s1,a1
 2796 0018 3289     		mv	s2,a2
 2797 001a 368A     		mv	s4,a3
 561:lcd_bigone.c  ****         if(y>LCD_H-16){y=x=0;LCD_Clear(RED);}
 2798              		.loc 1 561 11
 2799 001c 930A8009 		li	s5,152
 2800              		.loc 1 562 11
 2801 0020 130B0009 		li	s6,144
 2802              		.loc 1 562 30
 2803 0024 93890980 		addi	s3,s3,-2048
 2804              	.LVL294:
 2805              	.L123:
 559:lcd_bigone.c  ****     {       
 2806              		.loc 1 559 10
 2807 0028 83470900 		lbu	a5,0(s2)
 2808 002c 99EB     		bne	a5,zero,.L126
 563:lcd_bigone.c  ****         LCD_ShowChar(x,y,*p,0,color);
 564:lcd_bigone.c  ****         x+=8;
 565:lcd_bigone.c  ****         p++;
 566:lcd_bigone.c  ****     }  
 567:lcd_bigone.c  **** }
 2809              		.loc 1 567 1
 2810 002e F240     		lw	ra,28(sp)
 2811              		.cfi_remember_state
 2812              		.cfi_restore 1
 2813 0030 6244     		lw	s0,24(sp)
 2814              		.cfi_restore 8
 2815              	.LVL295:
 2816 0032 D244     		lw	s1,20(sp)
 2817              		.cfi_restore 9
 2818              	.LVL296:
 2819 0034 4249     		lw	s2,16(sp)
 2820              		.cfi_restore 18
 2821              	.LVL297:
 2822 0036 B249     		lw	s3,12(sp)
 2823              		.cfi_restore 19
 2824 0038 224A     		lw	s4,8(sp)
 2825              		.cfi_restore 20
 2826              	.LVL298:
 2827 003a 924A     		lw	s5,4(sp)
 2828              		.cfi_restore 21
 2829 003c 024B     		lw	s6,0(sp)
 2830              		.cfi_restore 22
 2831 003e 0561     		addi	sp,sp,32
 2832              	.LCFI43:
 2833              		.cfi_def_cfa_offset 0
 2834 0040 8280     		jr	ra
 2835              	.LVL299:
 2836              	.L126:
 2837              	.LCFI44:
 2838              		.cfi_restore_state
 561:lcd_bigone.c  ****         if(y>LCD_H-16){y=x=0;LCD_Clear(RED);}
GAS LISTING /var/folders/rt/4gvqv631095f64jvm7jfj_000000gn/T//cc1i8NTO.s 			page 67


 2839              		.loc 1 561 9 is_stmt 1
 561:lcd_bigone.c  ****         if(y>LCD_H-16){y=x=0;LCD_Clear(RED);}
 2840              		.loc 1 561 11 is_stmt 0
 2841 0042 63F48A00 		bleu	s0,s5,.L124
 561:lcd_bigone.c  ****         if(y>LCD_H-16){y=x=0;LCD_Clear(RED);}
 2842              		.loc 1 561 23 is_stmt 1 discriminator 1
 2843              	.LVL300:
 561:lcd_bigone.c  ****         if(y>LCD_H-16){y=x=0;LCD_Clear(RED);}
 2844              		.loc 1 561 27 discriminator 1
 561:lcd_bigone.c  ****         if(y>LCD_H-16){y=x=0;LCD_Clear(RED);}
 2845              		.loc 1 561 28 is_stmt 0 discriminator 1
 2846 0046 C104     		addi	s1,s1,16
 2847              	.LVL301:
 561:lcd_bigone.c  ****         if(y>LCD_H-16){y=x=0;LCD_Clear(RED);}
 2848              		.loc 1 561 24 discriminator 1
 2849 0048 0144     		li	s0,0
 2850              	.LVL302:
 2851              	.L124:
 562:lcd_bigone.c  ****         LCD_ShowChar(x,y,*p,0,color);
 2852              		.loc 1 562 9 is_stmt 1
 562:lcd_bigone.c  ****         LCD_ShowChar(x,y,*p,0,color);
 2853              		.loc 1 562 11 is_stmt 0
 2854 004a 63799B00 		bleu	s1,s6,.L125
 562:lcd_bigone.c  ****         LCD_ShowChar(x,y,*p,0,color);
 2855              		.loc 1 562 24 is_stmt 1 discriminator 1
 2856              	.LVL303:
 562:lcd_bigone.c  ****         LCD_ShowChar(x,y,*p,0,color);
 2857              		.loc 1 562 30 discriminator 1
 2858 004e 4E85     		mv	a0,s3
 2859 0050 97000000 		call	LCD_Clear
 2859      E7800000 
 2860              	.LVL304:
 562:lcd_bigone.c  ****         LCD_ShowChar(x,y,*p,0,color);
 2861              		.loc 1 562 25 is_stmt 0 discriminator 1
 2862 0058 8144     		li	s1,0
 562:lcd_bigone.c  ****         LCD_ShowChar(x,y,*p,0,color);
 2863              		.loc 1 562 27 discriminator 1
 2864 005a 0144     		li	s0,0
 2865              	.LVL305:
 2866              	.L125:
 563:lcd_bigone.c  ****         LCD_ShowChar(x,y,*p,0,color);
 2867              		.loc 1 563 9 is_stmt 1
 2868 005c 03460900 		lbu	a2,0(s2)
 2869 0060 2285     		mv	a0,s0
 2870 0062 5287     		mv	a4,s4
 2871 0064 8146     		li	a3,0
 2872 0066 A685     		mv	a1,s1
 2873 0068 97000000 		call	LCD_ShowChar
 2873      E7800000 
 2874              	.LVL306:
 564:lcd_bigone.c  ****         p++;
 2875              		.loc 1 564 9
 564:lcd_bigone.c  ****         p++;
 2876              		.loc 1 564 10 is_stmt 0
 2877 0070 2104     		addi	s0,s0,8
 2878              	.LVL307:
 565:lcd_bigone.c  ****     }  
GAS LISTING /var/folders/rt/4gvqv631095f64jvm7jfj_000000gn/T//cc1i8NTO.s 			page 68


 2879              		.loc 1 565 9 is_stmt 1
 565:lcd_bigone.c  ****     }  
 2880              		.loc 1 565 10 is_stmt 0
 2881 0072 0509     		addi	s2,s2,1
 2882              	.LVL308:
 2883 0074 55BF     		j	.L123
 2884              		.cfi_endproc
 2885              	.LFE24:
 2887              		.section	.text.LCD_ShowStr,"ax",@progbits
 2888              		.align	1
 2889              		.globl	LCD_ShowStr
 2891              	LCD_ShowStr:
 2892              	.LFB25:
 568:lcd_bigone.c  **** 
 569:lcd_bigone.c  **** 
 570:lcd_bigone.c  **** /*
 571:lcd_bigone.c  ****   Function description: display string
 572:lcd_bigone.c  ****   Entry data: x, y:  start point coordinates
 573:lcd_bigone.c  ****                 *p:  string start address
 574:lcd_bigone.c  ****               mode:  1: transparent mode
 575:lcd_bigone.c  ****                      0: non-transparent mode
 576:lcd_bigone.c  ****   Return value: None
 577:lcd_bigone.c  ****   Note: If character position is outside the display area
 578:lcd_bigone.c  ****         the character is not displayed
 579:lcd_bigone.c  **** */
 580:lcd_bigone.c  **** void LCD_ShowStr(u16 x,u16 y,const u8 *p,u16 color, u8 mode)
 581:lcd_bigone.c  **** {         
 2893              		.loc 1 581 1 is_stmt 1
 2894              		.cfi_startproc
 2895              	.LVL309:
 582:lcd_bigone.c  ****     while(*p!='\0')
 2896              		.loc 1 582 5
 581:lcd_bigone.c  ****     while(*p!='\0')
 2897              		.loc 1 581 1 is_stmt 0
 2898 0000 0111     		addi	sp,sp,-32
 2899              	.LCFI45:
 2900              		.cfi_def_cfa_offset 32
 2901 0002 22CC     		sw	s0,24(sp)
 2902 0004 26CA     		sw	s1,20(sp)
 2903 0006 4AC8     		sw	s2,16(sp)
 2904 0008 4EC6     		sw	s3,12(sp)
 2905 000a 52C4     		sw	s4,8(sp)
 2906 000c 56C2     		sw	s5,4(sp)
 2907 000e 5AC0     		sw	s6,0(sp)
 2908 0010 06CE     		sw	ra,28(sp)
 2909              		.cfi_offset 8, -8
 2910              		.cfi_offset 9, -12
 2911              		.cfi_offset 18, -16
 2912              		.cfi_offset 19, -20
 2913              		.cfi_offset 20, -24
 2914              		.cfi_offset 21, -28
 2915              		.cfi_offset 22, -32
 2916              		.cfi_offset 1, -4
 581:lcd_bigone.c  ****     while(*p!='\0')
 2917              		.loc 1 581 1
 2918 0012 2A84     		mv	s0,a0
 2919 0014 AE84     		mv	s1,a1
GAS LISTING /var/folders/rt/4gvqv631095f64jvm7jfj_000000gn/T//cc1i8NTO.s 			page 69


 2920 0016 3289     		mv	s2,a2
 2921 0018 B689     		mv	s3,a3
 2922 001a 3A8A     		mv	s4,a4
 583:lcd_bigone.c  ****     {       
 584:lcd_bigone.c  ****         if(x>LCD_W-8){x=0;y+=16;}
 2923              		.loc 1 584 11
 2924 001c 930A8009 		li	s5,152
 585:lcd_bigone.c  ****         if(y>LCD_H-16) break;
 2925              		.loc 1 585 11
 2926 0020 130B0009 		li	s6,144
 2927              	.LVL310:
 2928              	.L129:
 582:lcd_bigone.c  ****     {       
 2929              		.loc 1 582 11
 2930 0024 03460900 		lbu	a2,0(s2)
 582:lcd_bigone.c  ****     {       
 2931              		.loc 1 582 10
 2932 0028 19EA     		bne	a2,zero,.L132
 2933              	.L128:
 586:lcd_bigone.c  ****         LCD_ShowChar(x,y,*p,mode,color);
 587:lcd_bigone.c  ****         x+=8;
 588:lcd_bigone.c  ****         p++;
 589:lcd_bigone.c  ****     }  
 590:lcd_bigone.c  **** }
 2934              		.loc 1 590 1
 2935 002a F240     		lw	ra,28(sp)
 2936              		.cfi_remember_state
 2937              		.cfi_restore 1
 2938 002c 6244     		lw	s0,24(sp)
 2939              		.cfi_restore 8
 2940              	.LVL311:
 2941 002e D244     		lw	s1,20(sp)
 2942              		.cfi_restore 9
 2943              	.LVL312:
 2944 0030 4249     		lw	s2,16(sp)
 2945              		.cfi_restore 18
 2946              	.LVL313:
 2947 0032 B249     		lw	s3,12(sp)
 2948              		.cfi_restore 19
 2949              	.LVL314:
 2950 0034 224A     		lw	s4,8(sp)
 2951              		.cfi_restore 20
 2952 0036 924A     		lw	s5,4(sp)
 2953              		.cfi_restore 21
 2954 0038 024B     		lw	s6,0(sp)
 2955              		.cfi_restore 22
 2956 003a 0561     		addi	sp,sp,32
 2957              	.LCFI46:
 2958              		.cfi_def_cfa_offset 0
 2959 003c 8280     		jr	ra
 2960              	.LVL315:
 2961              	.L132:
 2962              	.LCFI47:
 2963              		.cfi_restore_state
 584:lcd_bigone.c  ****         if(y>LCD_H-16) break;
 2964              		.loc 1 584 9 is_stmt 1
 584:lcd_bigone.c  ****         if(y>LCD_H-16) break;
GAS LISTING /var/folders/rt/4gvqv631095f64jvm7jfj_000000gn/T//cc1i8NTO.s 			page 70


 2965              		.loc 1 584 11 is_stmt 0
 2966 003e 63F48A00 		bleu	s0,s5,.L130
 584:lcd_bigone.c  ****         if(y>LCD_H-16) break;
 2967              		.loc 1 584 23 is_stmt 1 discriminator 1
 2968              	.LVL316:
 584:lcd_bigone.c  ****         if(y>LCD_H-16) break;
 2969              		.loc 1 584 27 discriminator 1
 584:lcd_bigone.c  ****         if(y>LCD_H-16) break;
 2970              		.loc 1 584 28 is_stmt 0 discriminator 1
 2971 0042 C104     		addi	s1,s1,16
 2972              	.LVL317:
 584:lcd_bigone.c  ****         if(y>LCD_H-16) break;
 2973              		.loc 1 584 24 discriminator 1
 2974 0044 0144     		li	s0,0
 2975              	.LVL318:
 2976              	.L130:
 585:lcd_bigone.c  ****         LCD_ShowChar(x,y,*p,mode,color);
 2977              		.loc 1 585 9 is_stmt 1
 585:lcd_bigone.c  ****         LCD_ShowChar(x,y,*p,mode,color);
 2978              		.loc 1 585 11 is_stmt 0
 2979 0046 E3629BFE 		bgtu	s1,s6,.L128
 586:lcd_bigone.c  ****         LCD_ShowChar(x,y,*p,mode,color);
 2980              		.loc 1 586 9 is_stmt 1
 2981 004a 2285     		mv	a0,s0
 2982 004c 4E87     		mv	a4,s3
 2983 004e D286     		mv	a3,s4
 2984 0050 A685     		mv	a1,s1
 2985 0052 97000000 		call	LCD_ShowChar
 2985      E7800000 
 2986              	.LVL319:
 587:lcd_bigone.c  ****         p++;
 2987              		.loc 1 587 9
 587:lcd_bigone.c  ****         p++;
 2988              		.loc 1 587 10 is_stmt 0
 2989 005a 2104     		addi	s0,s0,8
 2990              	.LVL320:
 588:lcd_bigone.c  ****     }  
 2991              		.loc 1 588 9 is_stmt 1
 588:lcd_bigone.c  ****     }  
 2992              		.loc 1 588 10 is_stmt 0
 2993 005c 0509     		addi	s2,s2,1
 2994              	.LVL321:
 2995 005e D9B7     		j	.L129
 2996              		.cfi_endproc
 2997              	.LFE25:
 2999              		.section	.text.mypow,"ax",@progbits
 3000              		.align	1
 3001              		.globl	mypow
 3003              	mypow:
 3004              	.LFB26:
 591:lcd_bigone.c  **** 
 592:lcd_bigone.c  **** 
 593:lcd_bigone.c  **** /*
 594:lcd_bigone.c  ****   Function description: Calculate m^n
 595:lcd_bigone.c  ****   Entry data: m: base
 596:lcd_bigone.c  ****               n: exponent
 597:lcd_bigone.c  ****   Return value: m^n
GAS LISTING /var/folders/rt/4gvqv631095f64jvm7jfj_000000gn/T//cc1i8NTO.s 			page 71


 598:lcd_bigone.c  **** */
 599:lcd_bigone.c  **** u32 mypow(u8 m,u8 n)
 600:lcd_bigone.c  **** {
 3005              		.loc 1 600 1 is_stmt 1
 3006              		.cfi_startproc
 3007              	.LVL322:
 601:lcd_bigone.c  **** 	u32 result=1;	 
 3008              		.loc 1 601 2
 602:lcd_bigone.c  **** 	while(n--)result*=m;    
 3009              		.loc 1 602 2
 601:lcd_bigone.c  **** 	u32 result=1;	 
 3010              		.loc 1 601 6 is_stmt 0
 3011 0000 8547     		li	a5,1
 3012              		.loc 1 602 7
 3013 0002 1307F00F 		li	a4,255
 3014              	.LVL323:
 3015              	.L135:
 3016              		.loc 1 602 9 discriminator 1
 3017 0006 FD15     		addi	a1,a1,-1
 3018              	.LVL324:
 3019 0008 93F5F50F 		andi	a1,a1,0xff
 3020              	.LVL325:
 3021              		.loc 1 602 7 discriminator 1
 3022 000c 6394E500 		bne	a1,a4,.L136
 603:lcd_bigone.c  **** 	return result;
 3023              		.loc 1 603 2 is_stmt 1
 604:lcd_bigone.c  **** }
 3024              		.loc 1 604 1 is_stmt 0
 3025 0010 3E85     		mv	a0,a5
 3026              	.LVL326:
 3027 0012 8280     		ret
 3028              	.LVL327:
 3029              	.L136:
 602:lcd_bigone.c  **** 	while(n--)result*=m;    
 3030              		.loc 1 602 12 is_stmt 1 discriminator 2
 602:lcd_bigone.c  **** 	while(n--)result*=m;    
 3031              		.loc 1 602 18 is_stmt 0 discriminator 2
 3032 0014 B387A702 		mul	a5,a5,a0
 3033              	.LVL328:
 3034 0018 FDB7     		j	.L135
 3035              		.cfi_endproc
 3036              	.LFE26:
 3038              		.section	.text.LCD_ShowNum,"ax",@progbits
 3039              		.align	1
 3040              		.globl	LCD_ShowNum
 3042              	LCD_ShowNum:
 3043              	.LFB27:
 605:lcd_bigone.c  **** 
 606:lcd_bigone.c  **** 
 607:lcd_bigone.c  **** /*
 608:lcd_bigone.c  ****   Function description: display 16-bit integer numbers
 609:lcd_bigone.c  ****   Entry data: x, y:  start point coordinates
 610:lcd_bigone.c  ****                num:  number to display
 611:lcd_bigone.c  ****                len:  number of digits to display
 612:lcd_bigone.c  ****   Return value: None
 613:lcd_bigone.c  **** */
 614:lcd_bigone.c  **** void LCD_ShowNum(u16 x,u16 y,u16 num,u8 len,u16 color)
GAS LISTING /var/folders/rt/4gvqv631095f64jvm7jfj_000000gn/T//cc1i8NTO.s 			page 72


 615:lcd_bigone.c  **** {         	
 3044              		.loc 1 615 1 is_stmt 1
 3045              		.cfi_startproc
 3046              	.LVL329:
 616:lcd_bigone.c  **** 	u8 t,temp;
 3047              		.loc 1 616 2
 617:lcd_bigone.c  **** 	u8 enshow=0;
 3048              		.loc 1 617 2
 618:lcd_bigone.c  **** 	for(t=0;t<len;t++)
 3049              		.loc 1 618 2
 615:lcd_bigone.c  **** 	u8 t,temp;
 3050              		.loc 1 615 1 is_stmt 0
 3051 0000 7971     		addi	sp,sp,-48
 3052              	.LCFI48:
 3053              		.cfi_def_cfa_offset 48
 3054 0002 56CA     		sw	s5,20(sp)
 3055              		.cfi_offset 21, -28
 3056 0004 938AF6FF 		addi	s5,a3,-1
 3057 0008 22D4     		sw	s0,40(sp)
 3058 000a 26D2     		sw	s1,36(sp)
 3059 000c 4AD0     		sw	s2,32(sp)
 3060 000e 4ECE     		sw	s3,28(sp)
 3061 0010 52CC     		sw	s4,24(sp)
 3062 0012 5AC8     		sw	s6,16(sp)
 3063 0014 5EC6     		sw	s7,12(sp)
 3064 0016 62C4     		sw	s8,8(sp)
 3065 0018 66C2     		sw	s9,4(sp)
 3066 001a 06D6     		sw	ra,44(sp)
 3067              		.cfi_offset 8, -8
 3068              		.cfi_offset 9, -12
 3069              		.cfi_offset 18, -16
 3070              		.cfi_offset 19, -20
 3071              		.cfi_offset 20, -24
 3072              		.cfi_offset 22, -32
 3073              		.cfi_offset 23, -36
 3074              		.cfi_offset 24, -40
 3075              		.cfi_offset 25, -44
 3076              		.cfi_offset 1, -4
 615:lcd_bigone.c  **** 	u8 t,temp;
 3077              		.loc 1 615 1
 3078 001c AA8B     		mv	s7,a0
 3079 001e AE89     		mv	s3,a1
 3080 0020 328C     		mv	s8,a2
 3081 0022 3A8A     		mv	s4,a4
 3082 0024 13F4FA0F 		andi	s0,s5,0xff
 3083              		.loc 1 618 2
 3084 0028 814C     		li	s9,0
 617:lcd_bigone.c  **** 	u8 enshow=0;
 3085              		.loc 1 617 5
 3086 002a 0149     		li	s2,0
 3087              		.loc 1 618 2
 3088 002c 9304F00F 		li	s1,255
 3089              	.LBB356:
 3090              	.LBB357:
 602:lcd_bigone.c  **** 	return result;
 3091              		.loc 1 602 18
 3092 0030 294B     		li	s6,10
GAS LISTING /var/folders/rt/4gvqv631095f64jvm7jfj_000000gn/T//cc1i8NTO.s 			page 73


 3093              	.LVL330:
 3094              	.L138:
 3095              	.LBE357:
 3096              	.LBE356:
 3097              		.loc 1 618 2 discriminator 1
 3098 0032 63129406 		bne	s0,s1,.L144
 619:lcd_bigone.c  **** 	{
 620:lcd_bigone.c  **** 		temp=(num/mypow(10,len-t-1))%10;
 621:lcd_bigone.c  **** 		if(enshow==0&&t<(len-1))
 622:lcd_bigone.c  **** 		{
 623:lcd_bigone.c  **** 			if(temp==0)
 624:lcd_bigone.c  **** 			{
 625:lcd_bigone.c  **** 				LCD_ShowChar(x+8*t,y,' ',0,color);
 626:lcd_bigone.c  **** 				continue;
 627:lcd_bigone.c  **** 			}else enshow=1; 
 628:lcd_bigone.c  **** 		 	 
 629:lcd_bigone.c  **** 		}
 630:lcd_bigone.c  **** 	 	LCD_ShowChar(x+8*t,y,temp+48,0,color); 
 631:lcd_bigone.c  **** 	}
 632:lcd_bigone.c  **** } 
 3099              		.loc 1 632 1
 3100 0036 B250     		lw	ra,44(sp)
 3101              		.cfi_remember_state
 3102              		.cfi_restore 1
 3103 0038 2254     		lw	s0,40(sp)
 3104              		.cfi_restore 8
 3105 003a 9254     		lw	s1,36(sp)
 3106              		.cfi_restore 9
 3107 003c 0259     		lw	s2,32(sp)
 3108              		.cfi_restore 18
 3109              	.LVL331:
 3110 003e F249     		lw	s3,28(sp)
 3111              		.cfi_restore 19
 3112              	.LVL332:
 3113 0040 624A     		lw	s4,24(sp)
 3114              		.cfi_restore 20
 3115              	.LVL333:
 3116 0042 D24A     		lw	s5,20(sp)
 3117              		.cfi_restore 21
 3118 0044 424B     		lw	s6,16(sp)
 3119              		.cfi_restore 22
 3120 0046 B24B     		lw	s7,12(sp)
 3121              		.cfi_restore 23
 3122              	.LVL334:
 3123 0048 224C     		lw	s8,8(sp)
 3124              		.cfi_restore 24
 3125              	.LVL335:
 3126 004a 924C     		lw	s9,4(sp)
 3127              		.cfi_restore 25
 3128              	.LVL336:
 3129 004c 4561     		addi	sp,sp,48
 3130              	.LCFI49:
 3131              		.cfi_def_cfa_offset 0
 3132 004e 8280     		jr	ra
 3133              	.LVL337:
 3134              	.L139:
 3135              	.LCFI50:
GAS LISTING /var/folders/rt/4gvqv631095f64jvm7jfj_000000gn/T//cc1i8NTO.s 			page 74


 3136              		.cfi_restore_state
 3137              	.LBB360:
 3138              	.LBB358:
 602:lcd_bigone.c  **** 	return result;
 3139              		.loc 1 602 12 is_stmt 1
 602:lcd_bigone.c  **** 	return result;
 3140              		.loc 1 602 18 is_stmt 0
 3141 0050 B3876703 		mul	a5,a5,s6
 3142              	.LVL338:
 3143              	.L142:
 602:lcd_bigone.c  **** 	return result;
 3144              		.loc 1 602 9
 3145 0054 7D17     		addi	a4,a4,-1
 3146              	.LVL339:
 3147 0056 1377F70F 		andi	a4,a4,0xff
 3148              	.LVL340:
 602:lcd_bigone.c  **** 	return result;
 3149              		.loc 1 602 7
 3150 005a E31B97FE 		bne	a4,s1,.L139
 603:lcd_bigone.c  **** }
 3151              		.loc 1 603 2 is_stmt 1
 3152              	.LVL341:
 3153 005e 13953C00 		slli	a0,s9,3
 3154 0062 5E95     		add	a0,a0,s7
 3155              	.LBE358:
 3156              	.LBE360:
 620:lcd_bigone.c  **** 		if(enshow==0&&t<(len-1))
 3157              		.loc 1 620 12 is_stmt 0
 3158 0064 B357FC02 		divu	a5,s8,a5
 620:lcd_bigone.c  **** 		if(enshow==0&&t<(len-1))
 3159              		.loc 1 620 31
 3160 0068 B3F76703 		remu	a5,a5,s6
 620:lcd_bigone.c  **** 		if(enshow==0&&t<(len-1))
 3161              		.loc 1 620 7
 3162 006c 13F6F70F 		andi	a2,a5,0xff
 3163              	.LVL342:
 621:lcd_bigone.c  **** 		{
 3164              		.loc 1 621 3 is_stmt 1
 621:lcd_bigone.c  **** 		{
 3165              		.loc 1 621 5 is_stmt 0
 3166 0070 63170902 		bne	s2,zero,.L140
 621:lcd_bigone.c  **** 		{
 3167              		.loc 1 621 15 discriminator 1
 3168 0074 63D55C03 		ble	s5,s9,.L140
 623:lcd_bigone.c  **** 			{
 3169              		.loc 1 623 4 is_stmt 1
 623:lcd_bigone.c  **** 			{
 3170              		.loc 1 623 6 is_stmt 0
 3171 0078 95E3     		bne	a5,zero,.L143
 625:lcd_bigone.c  **** 				continue;
 3172              		.loc 1 625 5 is_stmt 1
 3173 007a 5287     		mv	a4,s4
 3174 007c 8146     		li	a3,0
 3175 007e 13060002 		li	a2,32
 3176              	.LVL343:
 3177              	.L146:
 630:lcd_bigone.c  **** 	}
GAS LISTING /var/folders/rt/4gvqv631095f64jvm7jfj_000000gn/T//cc1i8NTO.s 			page 75


 3178              		.loc 1 630 4 is_stmt 0
 3179 0082 CE85     		mv	a1,s3
 3180 0084 7D14     		addi	s0,s0,-1
 3181 0086 97000000 		call	LCD_ShowChar
 3181      E7800000 
 3182              	.LVL344:
 3183 008e 850C     		addi	s9,s9,1
 3184              	.LVL345:
 3185 0090 1374F40F 		andi	s0,s0,0xff
 3186 0094 79BF     		j	.L138
 3187              	.LVL346:
 3188              	.L144:
 3189 0096 2287     		mv	a4,s0
 3190              	.LBB361:
 3191              	.LBB359:
 601:lcd_bigone.c  **** 	while(n--)result*=m;    
 3192              		.loc 1 601 6
 3193 0098 8547     		li	a5,1
 3194 009a 6DBF     		j	.L142
 3195              	.LVL347:
 3196              	.L143:
 3197              	.LBE359:
 3198              	.LBE361:
 3199 009c 0549     		li	s2,1
 3200              	.LVL348:
 3201              	.L140:
 630:lcd_bigone.c  **** 	}
 3202              		.loc 1 630 4 is_stmt 1
 3203 009e 5287     		mv	a4,s4
 3204 00a0 8146     		li	a3,0
 3205 00a2 13060603 		addi	a2,a2,48
 3206              	.LVL349:
 3207 00a6 F1BF     		j	.L146
 3208              		.cfi_endproc
 3209              	.LFE27:
 3211              		.globl	__mulsf3
 3212              		.globl	__fixunssfsi
 3213              		.section	.text.LCD_ShowNum1,"ax",@progbits
 3214              		.align	1
 3215              		.globl	LCD_ShowNum1
 3217              	LCD_ShowNum1:
 3218              	.LFB28:
 633:lcd_bigone.c  **** 
 634:lcd_bigone.c  **** 
 635:lcd_bigone.c  **** /*
 636:lcd_bigone.c  ****   Function description: display float number with 2 decimal places
 637:lcd_bigone.c  ****   Entry data: x, y:  start point coordinates
 638:lcd_bigone.c  ****                num:  float number to display
 639:lcd_bigone.c  ****                len:  number of digits to display
 640:lcd_bigone.c  ****   Return value: None
 641:lcd_bigone.c  **** */
 642:lcd_bigone.c  **** void LCD_ShowNum1(u16 x,u16 y,float num,u8 len,u16 color)
 643:lcd_bigone.c  **** {         	
 3219              		.loc 1 643 1
 3220              		.cfi_startproc
 3221              	.LVL350:
 644:lcd_bigone.c  **** 	u8 t,temp;
GAS LISTING /var/folders/rt/4gvqv631095f64jvm7jfj_000000gn/T//cc1i8NTO.s 			page 76


 3222              		.loc 1 644 2
 645:lcd_bigone.c  **** 	// u8 enshow=0;
 646:lcd_bigone.c  **** 	u16 num1;
 3223              		.loc 1 646 2
 647:lcd_bigone.c  **** 	num1=num*100;
 3224              		.loc 1 647 2
 643:lcd_bigone.c  **** 	u8 t,temp;
 3225              		.loc 1 643 1 is_stmt 0
 3226 0000 7971     		addi	sp,sp,-48
 3227              	.LCFI51:
 3228              		.cfi_def_cfa_offset 48
 3229              		.loc 1 647 10
 3230 0002 B7070000 		lui	a5,%hi(.LC1)
 643:lcd_bigone.c  **** 	u8 t,temp;
 3231              		.loc 1 643 1
 3232 0006 52CC     		sw	s4,24(sp)
 3233              		.cfi_offset 20, -24
 3234 0008 2E8A     		mv	s4,a1
 3235              		.loc 1 647 10
 3236 000a 83A50700 		lw	a1,%lo(.LC1)(a5)
 3237              	.LVL351:
 643:lcd_bigone.c  **** 	u8 t,temp;
 3238              		.loc 1 643 1
 3239 000e 4ECE     		sw	s3,28(sp)
 3240              		.cfi_offset 19, -20
 3241 0010 AA89     		mv	s3,a0
 3242              		.loc 1 647 10
 3243 0012 3285     		mv	a0,a2
 3244              	.LVL352:
 643:lcd_bigone.c  **** 	u8 t,temp;
 3245              		.loc 1 643 1
 3246 0014 06D6     		sw	ra,44(sp)
 3247 0016 22D4     		sw	s0,40(sp)
 3248 0018 26D2     		sw	s1,36(sp)
 3249 001a 56CA     		sw	s5,20(sp)
 3250 001c 5AC8     		sw	s6,16(sp)
 3251 001e 5EC6     		sw	s7,12(sp)
 3252 0020 62C4     		sw	s8,8(sp)
 3253              		.cfi_offset 1, -4
 3254              		.cfi_offset 8, -8
 3255              		.cfi_offset 9, -12
 3256              		.cfi_offset 21, -28
 3257              		.cfi_offset 22, -32
 3258              		.cfi_offset 23, -36
 3259              		.cfi_offset 24, -40
 3260 0022 B684     		mv	s1,a3
 3261 0024 BA8A     		mv	s5,a4
 3262 0026 4AD0     		sw	s2,32(sp)
 3263              		.cfi_offset 18, -16
 3264              		.loc 1 647 10
 3265 0028 97000000 		call	__mulsf3
 3265      E7800000 
 3266              	.LVL353:
 3267              		.loc 1 647 6
 3268 0030 97000000 		call	__fixunssfsi
 3268      E7800000 
 3269              	.LVL354:
GAS LISTING /var/folders/rt/4gvqv631095f64jvm7jfj_000000gn/T//cc1i8NTO.s 			page 77


 3270 0038 AA8B     		mv	s7,a0
 3271              	.LVL355:
 648:lcd_bigone.c  **** 	for(t=0;t<len;t++)
 3272              		.loc 1 648 2 is_stmt 1
 3273              		.loc 1 648 7 is_stmt 0
 3274 003a 0144     		li	s0,0
 3275              	.LBB362:
 3276              	.LBB363:
 602:lcd_bigone.c  **** 	return result;
 3277              		.loc 1 602 7
 3278 003c 130CF00F 		li	s8,255
 602:lcd_bigone.c  **** 	return result;
 3279              		.loc 1 602 18
 3280 0040 294B     		li	s6,10
 3281              	.LVL356:
 3282              	.L148:
 3283              	.LBE363:
 3284              	.LBE362:
 3285              		.loc 1 648 2 discriminator 1
 3286 0042 636E9400 		bgtu	s1,s0,.L152
 649:lcd_bigone.c  **** 	{
 650:lcd_bigone.c  **** 		temp=(num1/mypow(10,len-t-1))%10;
 651:lcd_bigone.c  **** 		if(t==(len-2))
 652:lcd_bigone.c  **** 		{
 653:lcd_bigone.c  **** 			LCD_ShowChar(x+8*(len-2),y,'.',0,color);
 654:lcd_bigone.c  **** 			t++;
 655:lcd_bigone.c  **** 			len+=1;
 656:lcd_bigone.c  **** 		}
 657:lcd_bigone.c  **** 	 	LCD_ShowChar(x+8*t,y,temp+48,0,color);
 658:lcd_bigone.c  **** 	}
 659:lcd_bigone.c  **** }
 3287              		.loc 1 659 1
 3288 0046 B250     		lw	ra,44(sp)
 3289              		.cfi_remember_state
 3290              		.cfi_restore 1
 3291 0048 2254     		lw	s0,40(sp)
 3292              		.cfi_restore 8
 3293              	.LVL357:
 3294 004a 9254     		lw	s1,36(sp)
 3295              		.cfi_restore 9
 3296              	.LVL358:
 3297 004c 0259     		lw	s2,32(sp)
 3298              		.cfi_restore 18
 3299 004e F249     		lw	s3,28(sp)
 3300              		.cfi_restore 19
 3301              	.LVL359:
 3302 0050 624A     		lw	s4,24(sp)
 3303              		.cfi_restore 20
 3304              	.LVL360:
 3305 0052 D24A     		lw	s5,20(sp)
 3306              		.cfi_restore 21
 3307              	.LVL361:
 3308 0054 424B     		lw	s6,16(sp)
 3309              		.cfi_restore 22
 3310 0056 B24B     		lw	s7,12(sp)
 3311              		.cfi_restore 23
 3312              	.LVL362:
GAS LISTING /var/folders/rt/4gvqv631095f64jvm7jfj_000000gn/T//cc1i8NTO.s 			page 78


 3313 0058 224C     		lw	s8,8(sp)
 3314              		.cfi_restore 24
 3315 005a 4561     		addi	sp,sp,48
 3316              	.LCFI52:
 3317              		.cfi_def_cfa_offset 0
 3318 005c 8280     		jr	ra
 3319              	.LVL363:
 3320              	.L152:
 3321              	.LCFI53:
 3322              		.cfi_restore_state
 650:lcd_bigone.c  **** 		if(t==(len-2))
 3323              		.loc 1 650 3 is_stmt 1
 650:lcd_bigone.c  **** 		if(t==(len-2))
 3324              		.loc 1 650 14 is_stmt 0
 3325 005e 9386F4FF 		addi	a3,s1,-1
 3326 0062 33878640 		sub	a4,a3,s0
 3327 0066 1377F70F 		andi	a4,a4,0xff
 3328              	.LVL364:
 3329              	.LBB366:
 3330              	.LBB364:
 601:lcd_bigone.c  **** 	while(n--)result*=m;    
 3331              		.loc 1 601 2 is_stmt 1
 602:lcd_bigone.c  **** 	return result;
 3332              		.loc 1 602 2
 601:lcd_bigone.c  **** 	while(n--)result*=m;    
 3333              		.loc 1 601 6 is_stmt 0
 3334 006a 8547     		li	a5,1
 3335              	.LVL365:
 3336              	.L149:
 602:lcd_bigone.c  **** 	return result;
 3337              		.loc 1 602 9
 3338 006c 7D17     		addi	a4,a4,-1
 3339              	.LVL366:
 3340 006e 1377F70F 		andi	a4,a4,0xff
 3341              	.LVL367:
 602:lcd_bigone.c  **** 	return result;
 3342              		.loc 1 602 7
 3343 0072 631A8705 		bne	a4,s8,.L150
 603:lcd_bigone.c  **** }
 3344              		.loc 1 603 2 is_stmt 1
 3345              	.LVL368:
 3346              	.LBE364:
 3347              	.LBE366:
 650:lcd_bigone.c  **** 		if(t==(len-2))
 3348              		.loc 1 650 13 is_stmt 0
 3349 0076 B3D7FB02 		divu	a5,s7,a5
 651:lcd_bigone.c  **** 		{
 3350              		.loc 1 651 13
 3351 007a 1385E4FF 		addi	a0,s1,-2
 650:lcd_bigone.c  **** 		if(t==(len-2))
 3352              		.loc 1 650 7
 3353 007e 33F96703 		remu	s2,a5,s6
 3354              	.LVL369:
 651:lcd_bigone.c  **** 		{
 3355              		.loc 1 651 3 is_stmt 1
 651:lcd_bigone.c  **** 		{
 3356              		.loc 1 651 5 is_stmt 0
GAS LISTING /var/folders/rt/4gvqv631095f64jvm7jfj_000000gn/T//cc1i8NTO.s 			page 79


 3357 0082 6312A402 		bne	s0,a0,.L151
 653:lcd_bigone.c  **** 			t++;
 3358              		.loc 1 653 20
 3359 0086 0E05     		slli	a0,a0,3
 3360 0088 13F4F60F 		andi	s0,a3,0xff
 3361              	.LVL370:
 653:lcd_bigone.c  **** 			t++;
 3362              		.loc 1 653 4 is_stmt 1
 3363 008c 5687     		mv	a4,s5
 3364 008e 8146     		li	a3,0
 3365 0090 1306E002 		li	a2,46
 3366 0094 D285     		mv	a1,s4
 3367 0096 4E95     		add	a0,a0,s3
 655:lcd_bigone.c  **** 		}
 3368              		.loc 1 655 7 is_stmt 0
 3369 0098 8504     		addi	s1,s1,1
 3370              	.LVL371:
 653:lcd_bigone.c  **** 			t++;
 3371              		.loc 1 653 4
 3372 009a 97000000 		call	LCD_ShowChar
 3372      E7800000 
 3373              	.LVL372:
 654:lcd_bigone.c  **** 			len+=1;
 3374              		.loc 1 654 4 is_stmt 1
 655:lcd_bigone.c  **** 		}
 3375              		.loc 1 655 4
 655:lcd_bigone.c  **** 		}
 3376              		.loc 1 655 7 is_stmt 0
 3377 00a2 93F4F40F 		andi	s1,s1,0xff
 3378              	.LVL373:
 3379              	.L151:
 657:lcd_bigone.c  **** 	}
 3380              		.loc 1 657 4 is_stmt 1 discriminator 2
 657:lcd_bigone.c  **** 	}
 3381              		.loc 1 657 20 is_stmt 0 discriminator 2
 3382 00a6 13153400 		slli	a0,s0,3
 657:lcd_bigone.c  **** 	}
 3383              		.loc 1 657 4 discriminator 2
 3384 00aa 5687     		mv	a4,s5
 3385 00ac 8146     		li	a3,0
 3386 00ae 13060903 		addi	a2,s2,48
 3387 00b2 D285     		mv	a1,s4
 3388 00b4 4E95     		add	a0,a0,s3
 648:lcd_bigone.c  **** 	{
 3389              		.loc 1 648 17 discriminator 2
 3390 00b6 0504     		addi	s0,s0,1
 3391              	.LVL374:
 657:lcd_bigone.c  **** 	}
 3392              		.loc 1 657 4 discriminator 2
 3393 00b8 97000000 		call	LCD_ShowChar
 3393      E7800000 
 3394              	.LVL375:
 648:lcd_bigone.c  **** 	{
 3395              		.loc 1 648 17 discriminator 2
 3396 00c0 1374F40F 		andi	s0,s0,0xff
 3397              	.LVL376:
 3398 00c4 BDBF     		j	.L148
GAS LISTING /var/folders/rt/4gvqv631095f64jvm7jfj_000000gn/T//cc1i8NTO.s 			page 80


 3399              	.LVL377:
 3400              	.L150:
 3401              	.LBB367:
 3402              	.LBB365:
 602:lcd_bigone.c  **** 	return result;
 3403              		.loc 1 602 12 is_stmt 1
 602:lcd_bigone.c  **** 	return result;
 3404              		.loc 1 602 18 is_stmt 0
 3405 00c6 B3876703 		mul	a5,a5,s6
 3406              	.LVL378:
 3407 00ca 4DB7     		j	.L149
 3408              	.LBE365:
 3409              	.LBE367:
 3410              		.cfi_endproc
 3411              	.LFE28:
 3413              		.section	.text.LCD_ShowPicture,"ax",@progbits
 3414              		.align	1
 3415              		.globl	LCD_ShowPicture
 3417              	LCD_ShowPicture:
 3418              	.LFB29:
 660:lcd_bigone.c  **** 
 661:lcd_bigone.c  **** 
 662:lcd_bigone.c  **** /*
 663:lcd_bigone.c  ****   Function description: display the image 
 664:lcd_bigone.c  ****   Entry data: x1, y1:  start coordinates
 665:lcd_bigone.c  ****               x2, y2:  end coordinates
 666:lcd_bigone.c  ****               *image:  pointer to image buffer
 667:lcd_bigone.c  ****   Return value: None
 668:lcd_bigone.c  ****   Note: image buffere contains 16-bit pixel colors
 669:lcd_bigone.c  ****         and its size must be (x2-x1+1) * (y2-y1+1) * 2
 670:lcd_bigone.c  ****   */
 671:lcd_bigone.c  **** void LCD_ShowPicture(u16 x1, u16 y1, u16 x2, u16 y2, u8 *image)
 672:lcd_bigone.c  **** {
 3419              		.loc 1 672 1 is_stmt 1
 3420              		.cfi_startproc
 3421              	.LVL379:
 673:lcd_bigone.c  **** 	int i;
 3422              		.loc 1 673 2
 674:lcd_bigone.c  **** 	int size = (x2-x1+1) * (y2-y1+1) * 2;
 3423              		.loc 1 674 2
 672:lcd_bigone.c  **** 	int i;
 3424              		.loc 1 672 1 is_stmt 0
 3425 0000 4111     		addi	sp,sp,-16
 3426              	.LCFI54:
 3427              		.cfi_def_cfa_offset 16
 3428 0002 22C4     		sw	s0,8(sp)
 3429              		.loc 1 674 28
 3430 0004 B387B640 		sub	a5,a3,a1
 3431              		.cfi_offset 8, -8
 3432              		.loc 1 674 16
 3433 0008 3304A640 		sub	s0,a2,a0
 3434              		.loc 1 674 31
 3435 000c 8507     		addi	a5,a5,1
 3436              		.loc 1 674 35
 3437 000e 0504     		addi	s0,s0,1
 3438 0010 3304F402 		mul	s0,s0,a5
 672:lcd_bigone.c  **** 	int i;
GAS LISTING /var/folders/rt/4gvqv631095f64jvm7jfj_000000gn/T//cc1i8NTO.s 			page 81


 3439              		.loc 1 672 1
 3440 0014 26C2     		sw	s1,4(sp)
 3441 0016 4AC0     		sw	s2,0(sp)
 3442 0018 06C6     		sw	ra,12(sp)
 3443              		.cfi_offset 9, -12
 3444              		.cfi_offset 18, -16
 3445              		.cfi_offset 1, -4
 672:lcd_bigone.c  **** 	int i;
 3446              		.loc 1 672 1
 3447 001a 3A89     		mv	s2,a4
 675:lcd_bigone.c  **** 	LCD_Address_Set(x1,y1,x2,y2);
 676:lcd_bigone.c  **** 	for(i=0;i<size;i++)
 3448              		.loc 1 676 7
 3449 001c 8144     		li	s1,0
 675:lcd_bigone.c  **** 	LCD_Address_Set(x1,y1,x2,y2);
 3450              		.loc 1 675 2
 3451 001e 97000000 		call	LCD_Address_Set
 3451      E7800000 
 3452              	.LVL380:
 674:lcd_bigone.c  **** 	LCD_Address_Set(x1,y1,x2,y2);
 3453              		.loc 1 674 35
 3454 0026 0604     		slli	s0,s0,1
 3455              	.LVL381:
 675:lcd_bigone.c  **** 	LCD_Address_Set(x1,y1,x2,y2);
 3456              		.loc 1 675 2 is_stmt 1
 3457              		.loc 1 676 2
 3458              	.L155:
 3459              		.loc 1 676 2 is_stmt 0 discriminator 1
 3460 0028 63C88400 		blt	s1,s0,.L156
 677:lcd_bigone.c  **** 	{ 	
 678:lcd_bigone.c  **** 		LCD_WR_DATA8(image[i]);
 679:lcd_bigone.c  **** 	}			
 680:lcd_bigone.c  **** }
 3461              		.loc 1 680 1
 3462 002c B240     		lw	ra,12(sp)
 3463              		.cfi_remember_state
 3464              		.cfi_restore 1
 3465 002e 2244     		lw	s0,8(sp)
 3466              		.cfi_restore 8
 3467              	.LVL382:
 3468 0030 9244     		lw	s1,4(sp)
 3469              		.cfi_restore 9
 3470              	.LVL383:
 3471 0032 0249     		lw	s2,0(sp)
 3472              		.cfi_restore 18
 3473              	.LVL384:
 3474 0034 4101     		addi	sp,sp,16
 3475              	.LCFI55:
 3476              		.cfi_def_cfa_offset 0
 3477 0036 8280     		jr	ra
 3478              	.LVL385:
 3479              	.L156:
 3480              	.LCFI56:
 3481              		.cfi_restore_state
 678:lcd_bigone.c  **** 	}			
 3482              		.loc 1 678 3 is_stmt 1 discriminator 3
 3483 0038 B3079900 		add	a5,s2,s1
GAS LISTING /var/folders/rt/4gvqv631095f64jvm7jfj_000000gn/T//cc1i8NTO.s 			page 82


 3484 003c 03C50700 		lbu	a0,0(a5)
 676:lcd_bigone.c  **** 	{ 	
 3485              		.loc 1 676 18 is_stmt 0 discriminator 3
 3486 0040 8504     		addi	s1,s1,1
 3487              	.LVL386:
 678:lcd_bigone.c  **** 	}			
 3488              		.loc 1 678 3 discriminator 3
 3489 0042 97000000 		call	LCD_WR_DATA8
 3489      E7800000 
 3490              	.LVL387:
 3491 004a F9BF     		j	.L155
 3492              		.cfi_endproc
 3493              	.LFE29:
 3495              		.globl	queue
 3496              		.globl	w
 3497              		.globl	r
 3498              		.globl	lcd_conf
 3499              		.comm	BACK_COLOR,4,4
 3500              		.globl	Hzk16
 3501              		.globl	asc2_1608
 3502              		.globl	Hzk32
 3503              		.section	.bss.queue,"aw",@nobits
 3504              		.align	2
 3505              		.set	.LANCHOR2,. + 0
 3508              	queue:
 3509 0000 00000000 		.zero	1024
 3509      00000000 
 3509      00000000 
 3509      00000000 
 3509      00000000 
 3510              		.section	.data.Hzk16,"aw"
 3511              		.align	2
 3512              		.set	.LANCHOR4,. + 0
 3515              	Hzk16:
 3516 0000 80       		.byte	-128
 3517 0001 00       		.byte	0
 3518 0002 80       		.byte	-128
 3519 0003 00       		.byte	0
 3520 0004 80       		.byte	-128
 3521 0005 00       		.byte	0
 3522 0006 80       		.byte	-128
 3523 0007 00       		.byte	0
 3524 0008 FC       		.byte	-4
 3525 0009 1F       		.byte	31
 3526 000a 84       		.byte	-124
 3527 000b 10       		.byte	16
 3528 000c 84       		.byte	-124
 3529 000d 10       		.byte	16
 3530 000e 84       		.byte	-124
 3531 000f 10       		.byte	16
 3532 0010 84       		.byte	-124
 3533 0011 10       		.byte	16
 3534 0012 84       		.byte	-124
 3535 0013 10       		.byte	16
 3536 0014 FC       		.byte	-4
 3537 0015 1F       		.byte	31
 3538 0016 84       		.byte	-124
GAS LISTING /var/folders/rt/4gvqv631095f64jvm7jfj_000000gn/T//cc1i8NTO.s 			page 83


 3539 0017 10       		.byte	16
 3540 0018 80       		.byte	-128
 3541 0019 00       		.byte	0
 3542 001a 80       		.byte	-128
 3543 001b 00       		.byte	0
 3544 001c 80       		.byte	-128
 3545 001d 00       		.byte	0
 3546 001e 80       		.byte	-128
 3547 001f 00       		.byte	0
 3548 0020 F8       		.byte	-8
 3549 0021 0F       		.byte	15
 3550 0022 08       		.byte	8
 3551 0023 08       		.byte	8
 3552 0024 F8       		.byte	-8
 3553 0025 0F       		.byte	15
 3554 0026 08       		.byte	8
 3555 0027 08       		.byte	8
 3556 0028 F8       		.byte	-8
 3557 0029 0F       		.byte	15
 3558 002a 80       		.byte	-128
 3559 002b 00       		.byte	0
 3560 002c FF       		.byte	-1
 3561 002d 7F       		.byte	127
 3562 002e 00       		.byte	0
 3563 002f 00       		.byte	0
 3564 0030 F8       		.byte	-8
 3565 0031 0F       		.byte	15
 3566 0032 08       		.byte	8
 3567 0033 08       		.byte	8
 3568 0034 08       		.byte	8
 3569 0035 08       		.byte	8
 3570 0036 F8       		.byte	-8
 3571 0037 0F       		.byte	15
 3572 0038 80       		.byte	-128
 3573 0039 00       		.byte	0
 3574 003a 84       		.byte	-124
 3575 003b 10       		.byte	16
 3576 003c A2       		.byte	-94
 3577 003d 20       		.byte	32
 3578 003e 40       		.byte	64
 3579 003f 00       		.byte	0
 3580 0040 00       		.byte	0
 3581 0041 00       		.byte	0
 3582 0042 FE       		.byte	-2
 3583 0043 3F       		.byte	63
 3584 0044 02       		.byte	2
 3585 0045 20       		.byte	32
 3586 0046 F2       		.byte	-14
 3587 0047 27       		.byte	39
 3588 0048 02       		.byte	2
 3589 0049 20       		.byte	32
 3590 004a 02       		.byte	2
 3591 004b 20       		.byte	32
 3592 004c FA       		.byte	-6
 3593 004d 2F       		.byte	47
 3594 004e 22       		.byte	34
 3595 004f 21       		.byte	33
GAS LISTING /var/folders/rt/4gvqv631095f64jvm7jfj_000000gn/T//cc1i8NTO.s 			page 84


 3596 0050 22       		.byte	34
 3597 0051 21       		.byte	33
 3598 0052 22       		.byte	34
 3599 0053 21       		.byte	33
 3600 0054 12       		.byte	18
 3601 0055 29       		.byte	41
 3602 0056 12       		.byte	18
 3603 0057 29       		.byte	41
 3604 0058 0A       		.byte	10
 3605 0059 2E       		.byte	46
 3606 005a 02       		.byte	2
 3607 005b 20       		.byte	32
 3608 005c FE       		.byte	-2
 3609 005d 3F       		.byte	63
 3610 005e 02       		.byte	2
 3611 005f 20       		.byte	32
 3612 0060 80       		.byte	-128
 3613 0061 00       		.byte	0
 3614 0062 80       		.byte	-128
 3615 0063 00       		.byte	0
 3616 0064 80       		.byte	-128
 3617 0065 00       		.byte	0
 3618 0066 FC       		.byte	-4
 3619 0067 1F       		.byte	31
 3620 0068 84       		.byte	-124
 3621 0069 10       		.byte	16
 3622 006a 84       		.byte	-124
 3623 006b 10       		.byte	16
 3624 006c 84       		.byte	-124
 3625 006d 10       		.byte	16
 3626 006e FC       		.byte	-4
 3627 006f 1F       		.byte	31
 3628 0070 84       		.byte	-124
 3629 0071 10       		.byte	16
 3630 0072 84       		.byte	-124
 3631 0073 10       		.byte	16
 3632 0074 84       		.byte	-124
 3633 0075 10       		.byte	16
 3634 0076 FC       		.byte	-4
 3635 0077 1F       		.byte	31
 3636 0078 84       		.byte	-124
 3637 0079 50       		.byte	80
 3638 007a 80       		.byte	-128
 3639 007b 40       		.byte	64
 3640 007c 80       		.byte	-128
 3641 007d 40       		.byte	64
 3642 007e 00       		.byte	0
 3643 007f 7F       		.byte	127
 3644 0080 00       		.byte	0
 3645 0081 00       		.byte	0
 3646 0082 FE       		.byte	-2
 3647 0083 1F       		.byte	31
 3648 0084 00       		.byte	0
 3649 0085 08       		.byte	8
 3650 0086 00       		.byte	0
 3651 0087 04       		.byte	4
 3652 0088 00       		.byte	0
GAS LISTING /var/folders/rt/4gvqv631095f64jvm7jfj_000000gn/T//cc1i8NTO.s 			page 85


 3653 0089 02       		.byte	2
 3654 008a 80       		.byte	-128
 3655 008b 01       		.byte	1
 3656 008c 80       		.byte	-128
 3657 008d 00       		.byte	0
 3658 008e FF       		.byte	-1
 3659 008f 7F       		.byte	127
 3660 0090 80       		.byte	-128
 3661 0091 00       		.byte	0
 3662 0092 80       		.byte	-128
 3663 0093 00       		.byte	0
 3664 0094 80       		.byte	-128
 3665 0095 00       		.byte	0
 3666 0096 80       		.byte	-128
 3667 0097 00       		.byte	0
 3668 0098 80       		.byte	-128
 3669 0099 00       		.byte	0
 3670 009a 80       		.byte	-128
 3671 009b 00       		.byte	0
 3672 009c A0       		.byte	-96
 3673 009d 00       		.byte	0
 3674 009e 40       		.byte	64
 3675 009f 00       		.byte	0
 3676 00a0 10       		.byte	16
 3677 00a1 08       		.byte	8
 3678 00a2 B8       		.byte	-72
 3679 00a3 08       		.byte	8
 3680 00a4 0F       		.byte	15
 3681 00a5 09       		.byte	9
 3682 00a6 08       		.byte	8
 3683 00a7 09       		.byte	9
 3684 00a8 08       		.byte	8
 3685 00a9 08       		.byte	8
 3686 00aa BF       		.byte	-65
 3687 00ab 08       		.byte	8
 3688 00ac 08       		.byte	8
 3689 00ad 09       		.byte	9
 3690 00ae 1C       		.byte	28
 3691 00af 09       		.byte	9
 3692 00b0 2C       		.byte	44
 3693 00b1 08       		.byte	8
 3694 00b2 0A       		.byte	10
 3695 00b3 78       		.byte	120
 3696 00b4 CA       		.byte	-54
 3697 00b5 0F       		.byte	15
 3698 00b6 09       		.byte	9
 3699 00b7 08       		.byte	8
 3700 00b8 08       		.byte	8
 3701 00b9 08       		.byte	8
 3702 00ba 08       		.byte	8
 3703 00bb 08       		.byte	8
 3704 00bc 08       		.byte	8
 3705 00bd 08       		.byte	8
 3706 00be 08       		.byte	8
 3707 00bf 08       		.byte	8
 3708 00c0 08       		.byte	8
 3709 00c1 04       		.byte	4
GAS LISTING /var/folders/rt/4gvqv631095f64jvm7jfj_000000gn/T//cc1i8NTO.s 			page 86


 3710 00c2 08       		.byte	8
 3711 00c3 04       		.byte	4
 3712 00c4 08       		.byte	8
 3713 00c5 04       		.byte	4
 3714 00c6 C8       		.byte	-56
 3715 00c7 7F       		.byte	127
 3716 00c8 3F       		.byte	63
 3717 00c9 04       		.byte	4
 3718 00ca 08       		.byte	8
 3719 00cb 04       		.byte	4
 3720 00cc 08       		.byte	8
 3721 00cd 04       		.byte	4
 3722 00ce A8       		.byte	-88
 3723 00cf 3F       		.byte	63
 3724 00d0 18       		.byte	24
 3725 00d1 21       		.byte	33
 3726 00d2 0C       		.byte	12
 3727 00d3 11       		.byte	17
 3728 00d4 0B       		.byte	11
 3729 00d5 12       		.byte	18
 3730 00d6 08       		.byte	8
 3731 00d7 0A       		.byte	10
 3732 00d8 08       		.byte	8
 3733 00d9 04       		.byte	4
 3734 00da 08       		.byte	8
 3735 00db 0A       		.byte	10
 3736 00dc 8A       		.byte	-118
 3737 00dd 11       		.byte	17
 3738 00de 64       		.byte	100
 3739 00df 60       		.byte	96
 3740              		.section	.data.Hzk32,"aw"
 3741              		.align	2
 3742              		.set	.LANCHOR5,. + 0
 3745              	Hzk32:
 3746 0000 00       		.byte	0
 3747 0001 00       		.byte	0
 3748 0002 00       		.byte	0
 3749 0003 00       		.byte	0
 3750 0004 00       		.byte	0
 3751 0005 00       		.byte	0
 3752 0006 00       		.byte	0
 3753 0007 00       		.byte	0
 3754 0008 00       		.byte	0
 3755 0009 80       		.byte	-128
 3756 000a 00       		.byte	0
 3757 000b 00       		.byte	0
 3758 000c 00       		.byte	0
 3759 000d 80       		.byte	-128
 3760 000e 01       		.byte	1
 3761 000f 00       		.byte	0
 3762 0010 00       		.byte	0
 3763 0011 80       		.byte	-128
 3764 0012 01       		.byte	1
 3765 0013 00       		.byte	0
 3766 0014 00       		.byte	0
 3767 0015 80       		.byte	-128
 3768 0016 01       		.byte	1
GAS LISTING /var/folders/rt/4gvqv631095f64jvm7jfj_000000gn/T//cc1i8NTO.s 			page 87


 3769 0017 00       		.byte	0
 3770 0018 00       		.byte	0
 3771 0019 80       		.byte	-128
 3772 001a 01       		.byte	1
 3773 001b 00       		.byte	0
 3774 001c 00       		.byte	0
 3775 001d 80       		.byte	-128
 3776 001e 01       		.byte	1
 3777 001f 00       		.byte	0
 3778 0020 10       		.byte	16
 3779 0021 80       		.byte	-128
 3780 0022 01       		.byte	1
 3781 0023 0C       		.byte	12
 3782 0024 F0       		.byte	-16
 3783 0025 FF       		.byte	-1
 3784 0026 FF       		.byte	-1
 3785 0027 0F       		.byte	15
 3786 0028 30       		.byte	48
 3787 0029 80       		.byte	-128
 3788 002a 01       		.byte	1
 3789 002b 04       		.byte	4
 3790 002c 30       		.byte	48
 3791 002d 80       		.byte	-128
 3792 002e 01       		.byte	1
 3793 002f 04       		.byte	4
 3794 0030 30       		.byte	48
 3795 0031 80       		.byte	-128
 3796 0032 01       		.byte	1
 3797 0033 04       		.byte	4
 3798 0034 30       		.byte	48
 3799 0035 80       		.byte	-128
 3800 0036 01       		.byte	1
 3801 0037 04       		.byte	4
 3802 0038 30       		.byte	48
 3803 0039 80       		.byte	-128
 3804 003a 01       		.byte	1
 3805 003b 04       		.byte	4
 3806 003c 30       		.byte	48
 3807 003d 80       		.byte	-128
 3808 003e 01       		.byte	1
 3809 003f 04       		.byte	4
 3810 0040 30       		.byte	48
 3811 0041 80       		.byte	-128
 3812 0042 01       		.byte	1
 3813 0043 04       		.byte	4
 3814 0044 30       		.byte	48
 3815 0045 80       		.byte	-128
 3816 0046 01       		.byte	1
 3817 0047 04       		.byte	4
 3818 0048 F0       		.byte	-16
 3819 0049 FF       		.byte	-1
 3820 004a FF       		.byte	-1
 3821 004b 07       		.byte	7
 3822 004c 30       		.byte	48
 3823 004d 80       		.byte	-128
 3824 004e 01       		.byte	1
 3825 004f 04       		.byte	4
GAS LISTING /var/folders/rt/4gvqv631095f64jvm7jfj_000000gn/T//cc1i8NTO.s 			page 88


 3826 0050 30       		.byte	48
 3827 0051 80       		.byte	-128
 3828 0052 01       		.byte	1
 3829 0053 04       		.byte	4
 3830 0054 00       		.byte	0
 3831 0055 80       		.byte	-128
 3832 0056 01       		.byte	1
 3833 0057 00       		.byte	0
 3834 0058 00       		.byte	0
 3835 0059 80       		.byte	-128
 3836 005a 01       		.byte	1
 3837 005b 00       		.byte	0
 3838 005c 00       		.byte	0
 3839 005d 80       		.byte	-128
 3840 005e 01       		.byte	1
 3841 005f 00       		.byte	0
 3842 0060 00       		.byte	0
 3843 0061 80       		.byte	-128
 3844 0062 01       		.byte	1
 3845 0063 00       		.byte	0
 3846 0064 00       		.byte	0
 3847 0065 80       		.byte	-128
 3848 0066 01       		.byte	1
 3849 0067 00       		.byte	0
 3850 0068 00       		.byte	0
 3851 0069 80       		.byte	-128
 3852 006a 01       		.byte	1
 3853 006b 00       		.byte	0
 3854 006c 00       		.byte	0
 3855 006d 80       		.byte	-128
 3856 006e 01       		.byte	1
 3857 006f 00       		.byte	0
 3858 0070 00       		.byte	0
 3859 0071 80       		.byte	-128
 3860 0072 01       		.byte	1
 3861 0073 00       		.byte	0
 3862 0074 00       		.byte	0
 3863 0075 80       		.byte	-128
 3864 0076 01       		.byte	1
 3865 0077 00       		.byte	0
 3866 0078 00       		.byte	0
 3867 0079 80       		.byte	-128
 3868 007a 00       		.byte	0
 3869 007b 00       		.byte	0
 3870 007c 00       		.byte	0
 3871 007d 00       		.byte	0
 3872 007e 00       		.byte	0
 3873 007f 00       		.byte	0
 3874 0080 00       		.byte	0
 3875 0081 00       		.byte	0
 3876 0082 00       		.byte	0
 3877 0083 00       		.byte	0
 3878 0084 00       		.byte	0
 3879 0085 00       		.byte	0
 3880 0086 00       		.byte	0
 3881 0087 00       		.byte	0
 3882 0088 00       		.byte	0
GAS LISTING /var/folders/rt/4gvqv631095f64jvm7jfj_000000gn/T//cc1i8NTO.s 			page 89


 3883 0089 00       		.byte	0
 3884 008a 00       		.byte	0
 3885 008b 00       		.byte	0
 3886 008c 00       		.byte	0
 3887 008d 01       		.byte	1
 3888 008e 80       		.byte	-128
 3889 008f 01       		.byte	1
 3890 0090 00       		.byte	0
 3891 0091 FF       		.byte	-1
 3892 0092 FF       		.byte	-1
 3893 0093 01       		.byte	1
 3894 0094 00       		.byte	0
 3895 0095 03       		.byte	3
 3896 0096 80       		.byte	-128
 3897 0097 01       		.byte	1
 3898 0098 00       		.byte	0
 3899 0099 03       		.byte	3
 3900 009a 80       		.byte	-128
 3901 009b 01       		.byte	1
 3902 009c 00       		.byte	0
 3903 009d FF       		.byte	-1
 3904 009e FF       		.byte	-1
 3905 009f 01       		.byte	1
 3906 00a0 00       		.byte	0
 3907 00a1 03       		.byte	3
 3908 00a2 80       		.byte	-128
 3909 00a3 01       		.byte	1
 3910 00a4 00       		.byte	0
 3911 00a5 03       		.byte	3
 3912 00a6 80       		.byte	-128
 3913 00a7 01       		.byte	1
 3914 00a8 00       		.byte	0
 3915 00a9 FF       		.byte	-1
 3916 00aa FF       		.byte	-1
 3917 00ab 01       		.byte	1
 3918 00ac 00       		.byte	0
 3919 00ad 81       		.byte	-127
 3920 00ae 81       		.byte	-127
 3921 00af 00       		.byte	0
 3922 00b0 00       		.byte	0
 3923 00b1 00       		.byte	0
 3924 00b2 03       		.byte	3
 3925 00b3 00       		.byte	0
 3926 00b4 00       		.byte	0
 3927 00b5 00       		.byte	0
 3928 00b6 03       		.byte	3
 3929 00b7 1C       		.byte	28
 3930 00b8 FC       		.byte	-4
 3931 00b9 FF       		.byte	-1
 3932 00ba FF       		.byte	-1
 3933 00bb 3F       		.byte	63
 3934 00bc 00       		.byte	0
 3935 00bd 00       		.byte	0
 3936 00be 40       		.byte	64
 3937 00bf 00       		.byte	0
 3938 00c0 00       		.byte	0
 3939 00c1 03       		.byte	3
GAS LISTING /var/folders/rt/4gvqv631095f64jvm7jfj_000000gn/T//cc1i8NTO.s 			page 90


 3940 00c2 C0       		.byte	-64
 3941 00c3 01       		.byte	1
 3942 00c4 00       		.byte	0
 3943 00c5 FF       		.byte	-1
 3944 00c6 FF       		.byte	-1
 3945 00c7 01       		.byte	1
 3946 00c8 00       		.byte	0
 3947 00c9 03       		.byte	3
 3948 00ca C0       		.byte	-64
 3949 00cb 00       		.byte	0
 3950 00cc 00       		.byte	0
 3951 00cd 03       		.byte	3
 3952 00ce C0       		.byte	-64
 3953 00cf 00       		.byte	0
 3954 00d0 00       		.byte	0
 3955 00d1 03       		.byte	3
 3956 00d2 C0       		.byte	-64
 3957 00d3 00       		.byte	0
 3958 00d4 00       		.byte	0
 3959 00d5 FF       		.byte	-1
 3960 00d6 FF       		.byte	-1
 3961 00d7 00       		.byte	0
 3962 00d8 00       		.byte	0
 3963 00d9 01       		.byte	1
 3964 00da 41       		.byte	65
 3965 00db 00       		.byte	0
 3966 00dc 00       		.byte	0
 3967 00dd 04       		.byte	4
 3968 00de 01       		.byte	1
 3969 00df 00       		.byte	0
 3970 00e0 00       		.byte	0
 3971 00e1 0E       		.byte	14
 3972 00e2 71       		.byte	113
 3973 00e3 00       		.byte	0
 3974 00e4 00       		.byte	0
 3975 00e5 07       		.byte	7
 3976 00e6 81       		.byte	-127
 3977 00e7 01       		.byte	1
 3978 00e8 80       		.byte	-128
 3979 00e9 01       		.byte	1
 3980 00ea 01       		.byte	1
 3981 00eb 07       		.byte	7
 3982 00ec 60       		.byte	96
 3983 00ed 00       		.byte	0
 3984 00ee 01       		.byte	1
 3985 00ef 0E       		.byte	14
 3986 00f0 18       		.byte	24
 3987 00f1 98       		.byte	-104
 3988 00f2 01       		.byte	1
 3989 00f3 1C       		.byte	28
 3990 00f4 04       		.byte	4
 3991 00f5 E0       		.byte	-32
 3992 00f6 01       		.byte	1
 3993 00f7 18       		.byte	24
 3994 00f8 00       		.byte	0
 3995 00f9 C0       		.byte	-64
 3996 00fa 00       		.byte	0
GAS LISTING /var/folders/rt/4gvqv631095f64jvm7jfj_000000gn/T//cc1i8NTO.s 			page 91


 3997 00fb 00       		.byte	0
 3998 00fc 00       		.byte	0
 3999 00fd 00       		.byte	0
 4000 00fe 00       		.byte	0
 4001 00ff 00       		.byte	0
 4002 0100 00       		.byte	0
 4003 0101 00       		.byte	0
 4004 0102 00       		.byte	0
 4005 0103 00       		.byte	0
 4006 0104 00       		.byte	0
 4007 0105 00       		.byte	0
 4008 0106 00       		.byte	0
 4009 0107 00       		.byte	0
 4010 0108 00       		.byte	0
 4011 0109 00       		.byte	0
 4012 010a 00       		.byte	0
 4013 010b 08       		.byte	8
 4014 010c F0       		.byte	-16
 4015 010d FF       		.byte	-1
 4016 010e FF       		.byte	-1
 4017 010f 1F       		.byte	31
 4018 0110 30       		.byte	48
 4019 0111 00       		.byte	0
 4020 0112 00       		.byte	0
 4021 0113 0C       		.byte	12
 4022 0114 30       		.byte	48
 4023 0115 00       		.byte	0
 4024 0116 00       		.byte	0
 4025 0117 0C       		.byte	12
 4026 0118 30       		.byte	48
 4027 0119 00       		.byte	0
 4028 011a 10       		.byte	16
 4029 011b 0C       		.byte	12
 4030 011c 30       		.byte	48
 4031 011d FE       		.byte	-2
 4032 011e 3F       		.byte	63
 4033 011f 0C       		.byte	12
 4034 0120 30       		.byte	48
 4035 0121 04       		.byte	4
 4036 0122 00       		.byte	0
 4037 0123 0C       		.byte	12
 4038 0124 30       		.byte	48
 4039 0125 00       		.byte	0
 4040 0126 00       		.byte	0
 4041 0127 0C       		.byte	12
 4042 0128 30       		.byte	48
 4043 0129 00       		.byte	0
 4044 012a 00       		.byte	0
 4045 012b 0C       		.byte	12
 4046 012c 30       		.byte	48
 4047 012d 00       		.byte	0
 4048 012e 00       		.byte	0
 4049 012f 0C       		.byte	12
 4050 0130 30       		.byte	48
 4051 0131 00       		.byte	0
 4052 0132 C0       		.byte	-64
 4053 0133 0C       		.byte	12
GAS LISTING /var/folders/rt/4gvqv631095f64jvm7jfj_000000gn/T//cc1i8NTO.s 			page 92


 4054 0134 F0       		.byte	-16
 4055 0135 FF       		.byte	-1
 4056 0136 FF       		.byte	-1
 4057 0137 0D       		.byte	13
 4058 0138 30       		.byte	48
 4059 0139 30       		.byte	48
 4060 013a 06       		.byte	6
 4061 013b 0E       		.byte	14
 4062 013c 30       		.byte	48
 4063 013d 30       		.byte	48
 4064 013e 06       		.byte	6
 4065 013f 0C       		.byte	12
 4066 0140 30       		.byte	48
 4067 0141 10       		.byte	16
 4068 0142 06       		.byte	6
 4069 0143 0C       		.byte	12
 4070 0144 30       		.byte	48
 4071 0145 10       		.byte	16
 4072 0146 06       		.byte	6
 4073 0147 0C       		.byte	12
 4074 0148 30       		.byte	48
 4075 0149 10       		.byte	16
 4076 014a 06       		.byte	6
 4077 014b 0C       		.byte	12
 4078 014c 30       		.byte	48
 4079 014d 18       		.byte	24
 4080 014e 86       		.byte	-122
 4081 014f 0C       		.byte	12
 4082 0150 30       		.byte	48
 4083 0151 18       		.byte	24
 4084 0152 86       		.byte	-122
 4085 0153 0C       		.byte	12
 4086 0154 30       		.byte	48
 4087 0155 08       		.byte	8
 4088 0156 06       		.byte	6
 4089 0157 0D       		.byte	13
 4090 0158 30       		.byte	48
 4091 0159 0C       		.byte	12
 4092 015a 86       		.byte	-122
 4093 015b 0D       		.byte	13
 4094 015c 30       		.byte	48
 4095 015d 06       		.byte	6
 4096 015e EE       		.byte	-18
 4097 015f 0F       		.byte	15
 4098 0160 30       		.byte	48
 4099 0161 02       		.byte	2
 4100 0162 FC       		.byte	-4
 4101 0163 0D       		.byte	13
 4102 0164 30       		.byte	48
 4103 0165 01       		.byte	1
 4104 0166 00       		.byte	0
 4105 0167 0C       		.byte	12
 4106 0168 F0       		.byte	-16
 4107 0169 00       		.byte	0
 4108 016a 00       		.byte	0
 4109 016b 0C       		.byte	12
 4110 016c 30       		.byte	48
GAS LISTING /var/folders/rt/4gvqv631095f64jvm7jfj_000000gn/T//cc1i8NTO.s 			page 93


 4111 016d 00       		.byte	0
 4112 016e 00       		.byte	0
 4113 016f 0C       		.byte	12
 4114 0170 F0       		.byte	-16
 4115 0171 FF       		.byte	-1
 4116 0172 FF       		.byte	-1
 4117 0173 0F       		.byte	15
 4118 0174 30       		.byte	48
 4119 0175 00       		.byte	0
 4120 0176 00       		.byte	0
 4121 0177 0C       		.byte	12
 4122 0178 10       		.byte	16
 4123 0179 00       		.byte	0
 4124 017a 00       		.byte	0
 4125 017b 04       		.byte	4
 4126 017c 00       		.byte	0
 4127 017d 00       		.byte	0
 4128 017e 00       		.byte	0
 4129 017f 00       		.byte	0
 4130 0180 00       		.byte	0
 4131 0181 00       		.byte	0
 4132 0182 00       		.byte	0
 4133 0183 00       		.byte	0
 4134 0184 00       		.byte	0
 4135 0185 00       		.byte	0
 4136 0186 00       		.byte	0
 4137 0187 00       		.byte	0
 4138 0188 00       		.byte	0
 4139 0189 C0       		.byte	-64
 4140 018a 00       		.byte	0
 4141 018b 00       		.byte	0
 4142 018c 00       		.byte	0
 4143 018d C0       		.byte	-64
 4144 018e 01       		.byte	1
 4145 018f 00       		.byte	0
 4146 0190 00       		.byte	0
 4147 0191 C0       		.byte	-64
 4148 0192 00       		.byte	0
 4149 0193 00       		.byte	0
 4150 0194 00       		.byte	0
 4151 0195 C0       		.byte	-64
 4152 0196 00       		.byte	0
 4153 0197 00       		.byte	0
 4154 0198 00       		.byte	0
 4155 0199 C0       		.byte	-64
 4156 019a 00       		.byte	0
 4157 019b 00       		.byte	0
 4158 019c 00       		.byte	0
 4159 019d C0       		.byte	-64
 4160 019e 00       		.byte	0
 4161 019f 00       		.byte	0
 4162 01a0 E0       		.byte	-32
 4163 01a1 FF       		.byte	-1
 4164 01a2 FF       		.byte	-1
 4165 01a3 03       		.byte	3
 4166 01a4 60       		.byte	96
 4167 01a5 C0       		.byte	-64
GAS LISTING /var/folders/rt/4gvqv631095f64jvm7jfj_000000gn/T//cc1i8NTO.s 			page 94


 4168 01a6 00       		.byte	0
 4169 01a7 03       		.byte	3
 4170 01a8 60       		.byte	96
 4171 01a9 C0       		.byte	-64
 4172 01aa 00       		.byte	0
 4173 01ab 03       		.byte	3
 4174 01ac 60       		.byte	96
 4175 01ad C0       		.byte	-64
 4176 01ae 00       		.byte	0
 4177 01af 03       		.byte	3
 4178 01b0 60       		.byte	96
 4179 01b1 C0       		.byte	-64
 4180 01b2 00       		.byte	0
 4181 01b3 03       		.byte	3
 4182 01b4 60       		.byte	96
 4183 01b5 C0       		.byte	-64
 4184 01b6 00       		.byte	0
 4185 01b7 03       		.byte	3
 4186 01b8 60       		.byte	96
 4187 01b9 C0       		.byte	-64
 4188 01ba 00       		.byte	0
 4189 01bb 03       		.byte	3
 4190 01bc E0       		.byte	-32
 4191 01bd FF       		.byte	-1
 4192 01be FF       		.byte	-1
 4193 01bf 03       		.byte	3
 4194 01c0 60       		.byte	96
 4195 01c1 C0       		.byte	-64
 4196 01c2 00       		.byte	0
 4197 01c3 03       		.byte	3
 4198 01c4 60       		.byte	96
 4199 01c5 C0       		.byte	-64
 4200 01c6 00       		.byte	0
 4201 01c7 03       		.byte	3
 4202 01c8 60       		.byte	96
 4203 01c9 C0       		.byte	-64
 4204 01ca 00       		.byte	0
 4205 01cb 03       		.byte	3
 4206 01cc 60       		.byte	96
 4207 01cd C0       		.byte	-64
 4208 01ce 00       		.byte	0
 4209 01cf 03       		.byte	3
 4210 01d0 60       		.byte	96
 4211 01d1 C0       		.byte	-64
 4212 01d2 00       		.byte	0
 4213 01d3 03       		.byte	3
 4214 01d4 E0       		.byte	-32
 4215 01d5 FF       		.byte	-1
 4216 01d6 FF       		.byte	-1
 4217 01d7 03       		.byte	3
 4218 01d8 60       		.byte	96
 4219 01d9 C0       		.byte	-64
 4220 01da 00       		.byte	0
 4221 01db 01       		.byte	1
 4222 01dc 60       		.byte	96
 4223 01dd C0       		.byte	-64
 4224 01de 00       		.byte	0
GAS LISTING /var/folders/rt/4gvqv631095f64jvm7jfj_000000gn/T//cc1i8NTO.s 			page 95


 4225 01df 00       		.byte	0
 4226 01e0 00       		.byte	0
 4227 01e1 C0       		.byte	-64
 4228 01e2 00       		.byte	0
 4229 01e3 08       		.byte	8
 4230 01e4 00       		.byte	0
 4231 01e5 C0       		.byte	-64
 4232 01e6 00       		.byte	0
 4233 01e7 10       		.byte	16
 4234 01e8 00       		.byte	0
 4235 01e9 C0       		.byte	-64
 4236 01ea 00       		.byte	0
 4237 01eb 10       		.byte	16
 4238 01ec 00       		.byte	0
 4239 01ed C0       		.byte	-64
 4240 01ee 00       		.byte	0
 4241 01ef 18       		.byte	24
 4242 01f0 00       		.byte	0
 4243 01f1 C0       		.byte	-64
 4244 01f2 01       		.byte	1
 4245 01f3 38       		.byte	56
 4246 01f4 00       		.byte	0
 4247 01f5 80       		.byte	-128
 4248 01f6 FF       		.byte	-1
 4249 01f7 1F       		.byte	31
 4250 01f8 00       		.byte	0
 4251 01f9 00       		.byte	0
 4252 01fa 00       		.byte	0
 4253 01fb 00       		.byte	0
 4254 01fc 00       		.byte	0
 4255 01fd 00       		.byte	0
 4256 01fe 00       		.byte	0
 4257 01ff 00       		.byte	0
 4258 0200 00       		.byte	0
 4259 0201 00       		.byte	0
 4260 0202 00       		.byte	0
 4261 0203 00       		.byte	0
 4262 0204 00       		.byte	0
 4263 0205 00       		.byte	0
 4264 0206 00       		.byte	0
 4265 0207 00       		.byte	0
 4266 0208 00       		.byte	0
 4267 0209 00       		.byte	0
 4268 020a 00       		.byte	0
 4269 020b 00       		.byte	0
 4270 020c 00       		.byte	0
 4271 020d 00       		.byte	0
 4272 020e 00       		.byte	0
 4273 020f 03       		.byte	3
 4274 0210 C0       		.byte	-64
 4275 0211 FF       		.byte	-1
 4276 0212 FF       		.byte	-1
 4277 0213 07       		.byte	7
 4278 0214 00       		.byte	0
 4279 0215 00       		.byte	0
 4280 0216 80       		.byte	-128
 4281 0217 07       		.byte	7
GAS LISTING /var/folders/rt/4gvqv631095f64jvm7jfj_000000gn/T//cc1i8NTO.s 			page 96


 4282 0218 00       		.byte	0
 4283 0219 00       		.byte	0
 4284 021a C0       		.byte	-64
 4285 021b 00       		.byte	0
 4286 021c 00       		.byte	0
 4287 021d 00       		.byte	0
 4288 021e 60       		.byte	96
 4289 021f 00       		.byte	0
 4290 0220 00       		.byte	0
 4291 0221 00       		.byte	0
 4292 0222 18       		.byte	24
 4293 0223 00       		.byte	0
 4294 0224 00       		.byte	0
 4295 0225 00       		.byte	0
 4296 0226 0C       		.byte	12
 4297 0227 00       		.byte	0
 4298 0228 00       		.byte	0
 4299 0229 80       		.byte	-128
 4300 022a 03       		.byte	3
 4301 022b 00       		.byte	0
 4302 022c 00       		.byte	0
 4303 022d 80       		.byte	-128
 4304 022e 03       		.byte	3
 4305 022f 00       		.byte	0
 4306 0230 00       		.byte	0
 4307 0231 80       		.byte	-128
 4308 0232 01       		.byte	1
 4309 0233 00       		.byte	0
 4310 0234 00       		.byte	0
 4311 0235 80       		.byte	-128
 4312 0236 01       		.byte	1
 4313 0237 08       		.byte	8
 4314 0238 00       		.byte	0
 4315 0239 80       		.byte	-128
 4316 023a 01       		.byte	1
 4317 023b 1C       		.byte	28
 4318 023c FC       		.byte	-4
 4319 023d FF       		.byte	-1
 4320 023e FF       		.byte	-1
 4321 023f 3F       		.byte	63
 4322 0240 00       		.byte	0
 4323 0241 80       		.byte	-128
 4324 0242 01       		.byte	1
 4325 0243 00       		.byte	0
 4326 0244 00       		.byte	0
 4327 0245 80       		.byte	-128
 4328 0246 01       		.byte	1
 4329 0247 00       		.byte	0
 4330 0248 00       		.byte	0
 4331 0249 80       		.byte	-128
 4332 024a 01       		.byte	1
 4333 024b 00       		.byte	0
 4334 024c 00       		.byte	0
 4335 024d 80       		.byte	-128
 4336 024e 01       		.byte	1
 4337 024f 00       		.byte	0
 4338 0250 00       		.byte	0
GAS LISTING /var/folders/rt/4gvqv631095f64jvm7jfj_000000gn/T//cc1i8NTO.s 			page 97


 4339 0251 80       		.byte	-128
 4340 0252 01       		.byte	1
 4341 0253 00       		.byte	0
 4342 0254 00       		.byte	0
 4343 0255 80       		.byte	-128
 4344 0256 01       		.byte	1
 4345 0257 00       		.byte	0
 4346 0258 00       		.byte	0
 4347 0259 80       		.byte	-128
 4348 025a 01       		.byte	1
 4349 025b 00       		.byte	0
 4350 025c 00       		.byte	0
 4351 025d 80       		.byte	-128
 4352 025e 01       		.byte	1
 4353 025f 00       		.byte	0
 4354 0260 00       		.byte	0
 4355 0261 80       		.byte	-128
 4356 0262 01       		.byte	1
 4357 0263 00       		.byte	0
 4358 0264 00       		.byte	0
 4359 0265 80       		.byte	-128
 4360 0266 01       		.byte	1
 4361 0267 00       		.byte	0
 4362 0268 00       		.byte	0
 4363 0269 80       		.byte	-128
 4364 026a 01       		.byte	1
 4365 026b 00       		.byte	0
 4366 026c 00       		.byte	0
 4367 026d 80       		.byte	-128
 4368 026e 01       		.byte	1
 4369 026f 00       		.byte	0
 4370 0270 00       		.byte	0
 4371 0271 FC       		.byte	-4
 4372 0272 01       		.byte	1
 4373 0273 00       		.byte	0
 4374 0274 00       		.byte	0
 4375 0275 E0       		.byte	-32
 4376 0276 00       		.byte	0
 4377 0277 00       		.byte	0
 4378 0278 00       		.byte	0
 4379 0279 40       		.byte	64
 4380 027a 00       		.byte	0
 4381 027b 00       		.byte	0
 4382 027c 00       		.byte	0
 4383 027d 00       		.byte	0
 4384 027e 00       		.byte	0
 4385 027f 00       		.byte	0
 4386              		.section	.rodata.LCD_ShowNum1.cst4,"aM",@progbits,4
 4387              		.align	2
 4388              	.LC1:
 4389 0000 0000C842 		.word	1120403456
 4390              		.section	.rodata.asc2_1608,"a"
 4391              		.align	2
 4392              		.set	.LANCHOR6,. + 0
 4395              	asc2_1608:
 4396 0000 00       		.byte	0
 4397 0001 00       		.byte	0
GAS LISTING /var/folders/rt/4gvqv631095f64jvm7jfj_000000gn/T//cc1i8NTO.s 			page 98


 4398 0002 00       		.byte	0
 4399 0003 00       		.byte	0
 4400 0004 00       		.byte	0
 4401 0005 00       		.byte	0
 4402 0006 00       		.byte	0
 4403 0007 00       		.byte	0
 4404 0008 00       		.byte	0
 4405 0009 00       		.byte	0
 4406 000a 00       		.byte	0
 4407 000b 00       		.byte	0
 4408 000c 00       		.byte	0
 4409 000d 00       		.byte	0
 4410 000e 00       		.byte	0
 4411 000f 00       		.byte	0
 4412 0010 00       		.byte	0
 4413 0011 00       		.byte	0
 4414 0012 00       		.byte	0
 4415 0013 08       		.byte	8
 4416 0014 08       		.byte	8
 4417 0015 08       		.byte	8
 4418 0016 08       		.byte	8
 4419 0017 08       		.byte	8
 4420 0018 08       		.byte	8
 4421 0019 08       		.byte	8
 4422 001a 00       		.byte	0
 4423 001b 00       		.byte	0
 4424 001c 18       		.byte	24
 4425 001d 18       		.byte	24
 4426 001e 00       		.byte	0
 4427 001f 00       		.byte	0
 4428 0020 00       		.byte	0
 4429 0021 48       		.byte	72
 4430 0022 6C       		.byte	108
 4431 0023 24       		.byte	36
 4432 0024 12       		.byte	18
 4433 0025 00       		.byte	0
 4434 0026 00       		.byte	0
 4435 0027 00       		.byte	0
 4436 0028 00       		.byte	0
 4437 0029 00       		.byte	0
 4438 002a 00       		.byte	0
 4439 002b 00       		.byte	0
 4440 002c 00       		.byte	0
 4441 002d 00       		.byte	0
 4442 002e 00       		.byte	0
 4443 002f 00       		.byte	0
 4444 0030 00       		.byte	0
 4445 0031 00       		.byte	0
 4446 0032 00       		.byte	0
 4447 0033 24       		.byte	36
 4448 0034 24       		.byte	36
 4449 0035 24       		.byte	36
 4450 0036 7F       		.byte	127
 4451 0037 12       		.byte	18
 4452 0038 12       		.byte	18
 4453 0039 12       		.byte	18
 4454 003a 7F       		.byte	127
GAS LISTING /var/folders/rt/4gvqv631095f64jvm7jfj_000000gn/T//cc1i8NTO.s 			page 99


 4455 003b 12       		.byte	18
 4456 003c 12       		.byte	18
 4457 003d 12       		.byte	18
 4458 003e 00       		.byte	0
 4459 003f 00       		.byte	0
 4460 0040 00       		.byte	0
 4461 0041 00       		.byte	0
 4462 0042 08       		.byte	8
 4463 0043 1C       		.byte	28
 4464 0044 2A       		.byte	42
 4465 0045 2A       		.byte	42
 4466 0046 0A       		.byte	10
 4467 0047 0C       		.byte	12
 4468 0048 18       		.byte	24
 4469 0049 28       		.byte	40
 4470 004a 28       		.byte	40
 4471 004b 2A       		.byte	42
 4472 004c 2A       		.byte	42
 4473 004d 1C       		.byte	28
 4474 004e 08       		.byte	8
 4475 004f 08       		.byte	8
 4476 0050 00       		.byte	0
 4477 0051 00       		.byte	0
 4478 0052 00       		.byte	0
 4479 0053 22       		.byte	34
 4480 0054 25       		.byte	37
 4481 0055 15       		.byte	21
 4482 0056 15       		.byte	21
 4483 0057 15       		.byte	21
 4484 0058 2A       		.byte	42
 4485 0059 58       		.byte	88
 4486 005a 54       		.byte	84
 4487 005b 54       		.byte	84
 4488 005c 54       		.byte	84
 4489 005d 22       		.byte	34
 4490 005e 00       		.byte	0
 4491 005f 00       		.byte	0
 4492 0060 00       		.byte	0
 4493 0061 00       		.byte	0
 4494 0062 00       		.byte	0
 4495 0063 0C       		.byte	12
 4496 0064 12       		.byte	18
 4497 0065 12       		.byte	18
 4498 0066 12       		.byte	18
 4499 0067 0A       		.byte	10
 4500 0068 76       		.byte	118
 4501 0069 25       		.byte	37
 4502 006a 29       		.byte	41
 4503 006b 11       		.byte	17
 4504 006c 91       		.byte	-111
 4505 006d 6E       		.byte	110
 4506 006e 00       		.byte	0
 4507 006f 00       		.byte	0
 4508 0070 00       		.byte	0
 4509 0071 06       		.byte	6
 4510 0072 06       		.byte	6
 4511 0073 04       		.byte	4
GAS LISTING /var/folders/rt/4gvqv631095f64jvm7jfj_000000gn/T//cc1i8NTO.s 			page 100


 4512 0074 03       		.byte	3
 4513 0075 00       		.byte	0
 4514 0076 00       		.byte	0
 4515 0077 00       		.byte	0
 4516 0078 00       		.byte	0
 4517 0079 00       		.byte	0
 4518 007a 00       		.byte	0
 4519 007b 00       		.byte	0
 4520 007c 00       		.byte	0
 4521 007d 00       		.byte	0
 4522 007e 00       		.byte	0
 4523 007f 00       		.byte	0
 4524 0080 00       		.byte	0
 4525 0081 40       		.byte	64
 4526 0082 20       		.byte	32
 4527 0083 10       		.byte	16
 4528 0084 10       		.byte	16
 4529 0085 08       		.byte	8
 4530 0086 08       		.byte	8
 4531 0087 08       		.byte	8
 4532 0088 08       		.byte	8
 4533 0089 08       		.byte	8
 4534 008a 08       		.byte	8
 4535 008b 10       		.byte	16
 4536 008c 10       		.byte	16
 4537 008d 20       		.byte	32
 4538 008e 40       		.byte	64
 4539 008f 00       		.byte	0
 4540 0090 00       		.byte	0
 4541 0091 02       		.byte	2
 4542 0092 04       		.byte	4
 4543 0093 08       		.byte	8
 4544 0094 08       		.byte	8
 4545 0095 10       		.byte	16
 4546 0096 10       		.byte	16
 4547 0097 10       		.byte	16
 4548 0098 10       		.byte	16
 4549 0099 10       		.byte	16
 4550 009a 10       		.byte	16
 4551 009b 08       		.byte	8
 4552 009c 08       		.byte	8
 4553 009d 04       		.byte	4
 4554 009e 02       		.byte	2
 4555 009f 00       		.byte	0
 4556 00a0 00       		.byte	0
 4557 00a1 00       		.byte	0
 4558 00a2 00       		.byte	0
 4559 00a3 00       		.byte	0
 4560 00a4 08       		.byte	8
 4561 00a5 08       		.byte	8
 4562 00a6 6B       		.byte	107
 4563 00a7 1C       		.byte	28
 4564 00a8 1C       		.byte	28
 4565 00a9 6B       		.byte	107
 4566 00aa 08       		.byte	8
 4567 00ab 08       		.byte	8
 4568 00ac 00       		.byte	0
GAS LISTING /var/folders/rt/4gvqv631095f64jvm7jfj_000000gn/T//cc1i8NTO.s 			page 101


 4569 00ad 00       		.byte	0
 4570 00ae 00       		.byte	0
 4571 00af 00       		.byte	0
 4572 00b0 00       		.byte	0
 4573 00b1 00       		.byte	0
 4574 00b2 00       		.byte	0
 4575 00b3 00       		.byte	0
 4576 00b4 08       		.byte	8
 4577 00b5 08       		.byte	8
 4578 00b6 08       		.byte	8
 4579 00b7 08       		.byte	8
 4580 00b8 7F       		.byte	127
 4581 00b9 08       		.byte	8
 4582 00ba 08       		.byte	8
 4583 00bb 08       		.byte	8
 4584 00bc 08       		.byte	8
 4585 00bd 00       		.byte	0
 4586 00be 00       		.byte	0
 4587 00bf 00       		.byte	0
 4588 00c0 00       		.byte	0
 4589 00c1 00       		.byte	0
 4590 00c2 00       		.byte	0
 4591 00c3 00       		.byte	0
 4592 00c4 00       		.byte	0
 4593 00c5 00       		.byte	0
 4594 00c6 00       		.byte	0
 4595 00c7 00       		.byte	0
 4596 00c8 00       		.byte	0
 4597 00c9 00       		.byte	0
 4598 00ca 00       		.byte	0
 4599 00cb 00       		.byte	0
 4600 00cc 06       		.byte	6
 4601 00cd 06       		.byte	6
 4602 00ce 04       		.byte	4
 4603 00cf 03       		.byte	3
 4604 00d0 00       		.byte	0
 4605 00d1 00       		.byte	0
 4606 00d2 00       		.byte	0
 4607 00d3 00       		.byte	0
 4608 00d4 00       		.byte	0
 4609 00d5 00       		.byte	0
 4610 00d6 00       		.byte	0
 4611 00d7 00       		.byte	0
 4612 00d8 FE       		.byte	-2
 4613 00d9 00       		.byte	0
 4614 00da 00       		.byte	0
 4615 00db 00       		.byte	0
 4616 00dc 00       		.byte	0
 4617 00dd 00       		.byte	0
 4618 00de 00       		.byte	0
 4619 00df 00       		.byte	0
 4620 00e0 00       		.byte	0
 4621 00e1 00       		.byte	0
 4622 00e2 00       		.byte	0
 4623 00e3 00       		.byte	0
 4624 00e4 00       		.byte	0
 4625 00e5 00       		.byte	0
GAS LISTING /var/folders/rt/4gvqv631095f64jvm7jfj_000000gn/T//cc1i8NTO.s 			page 102


 4626 00e6 00       		.byte	0
 4627 00e7 00       		.byte	0
 4628 00e8 00       		.byte	0
 4629 00e9 00       		.byte	0
 4630 00ea 00       		.byte	0
 4631 00eb 00       		.byte	0
 4632 00ec 06       		.byte	6
 4633 00ed 06       		.byte	6
 4634 00ee 00       		.byte	0
 4635 00ef 00       		.byte	0
 4636 00f0 00       		.byte	0
 4637 00f1 00       		.byte	0
 4638 00f2 80       		.byte	-128
 4639 00f3 40       		.byte	64
 4640 00f4 40       		.byte	64
 4641 00f5 20       		.byte	32
 4642 00f6 20       		.byte	32
 4643 00f7 10       		.byte	16
 4644 00f8 10       		.byte	16
 4645 00f9 08       		.byte	8
 4646 00fa 08       		.byte	8
 4647 00fb 04       		.byte	4
 4648 00fc 04       		.byte	4
 4649 00fd 02       		.byte	2
 4650 00fe 02       		.byte	2
 4651 00ff 00       		.byte	0
 4652 0100 00       		.byte	0
 4653 0101 00       		.byte	0
 4654 0102 00       		.byte	0
 4655 0103 18       		.byte	24
 4656 0104 24       		.byte	36
 4657 0105 42       		.byte	66
 4658 0106 42       		.byte	66
 4659 0107 42       		.byte	66
 4660 0108 42       		.byte	66
 4661 0109 42       		.byte	66
 4662 010a 42       		.byte	66
 4663 010b 42       		.byte	66
 4664 010c 24       		.byte	36
 4665 010d 18       		.byte	24
 4666 010e 00       		.byte	0
 4667 010f 00       		.byte	0
 4668 0110 00       		.byte	0
 4669 0111 00       		.byte	0
 4670 0112 00       		.byte	0
 4671 0113 08       		.byte	8
 4672 0114 0E       		.byte	14
 4673 0115 08       		.byte	8
 4674 0116 08       		.byte	8
 4675 0117 08       		.byte	8
 4676 0118 08       		.byte	8
 4677 0119 08       		.byte	8
 4678 011a 08       		.byte	8
 4679 011b 08       		.byte	8
 4680 011c 08       		.byte	8
 4681 011d 3E       		.byte	62
 4682 011e 00       		.byte	0
GAS LISTING /var/folders/rt/4gvqv631095f64jvm7jfj_000000gn/T//cc1i8NTO.s 			page 103


 4683 011f 00       		.byte	0
 4684 0120 00       		.byte	0
 4685 0121 00       		.byte	0
 4686 0122 00       		.byte	0
 4687 0123 3C       		.byte	60
 4688 0124 42       		.byte	66
 4689 0125 42       		.byte	66
 4690 0126 42       		.byte	66
 4691 0127 20       		.byte	32
 4692 0128 20       		.byte	32
 4693 0129 10       		.byte	16
 4694 012a 08       		.byte	8
 4695 012b 04       		.byte	4
 4696 012c 42       		.byte	66
 4697 012d 7E       		.byte	126
 4698 012e 00       		.byte	0
 4699 012f 00       		.byte	0
 4700 0130 00       		.byte	0
 4701 0131 00       		.byte	0
 4702 0132 00       		.byte	0
 4703 0133 3C       		.byte	60
 4704 0134 42       		.byte	66
 4705 0135 42       		.byte	66
 4706 0136 20       		.byte	32
 4707 0137 18       		.byte	24
 4708 0138 20       		.byte	32
 4709 0139 40       		.byte	64
 4710 013a 40       		.byte	64
 4711 013b 42       		.byte	66
 4712 013c 22       		.byte	34
 4713 013d 1C       		.byte	28
 4714 013e 00       		.byte	0
 4715 013f 00       		.byte	0
 4716 0140 00       		.byte	0
 4717 0141 00       		.byte	0
 4718 0142 00       		.byte	0
 4719 0143 20       		.byte	32
 4720 0144 30       		.byte	48
 4721 0145 28       		.byte	40
 4722 0146 24       		.byte	36
 4723 0147 24       		.byte	36
 4724 0148 22       		.byte	34
 4725 0149 22       		.byte	34
 4726 014a 7E       		.byte	126
 4727 014b 20       		.byte	32
 4728 014c 20       		.byte	32
 4729 014d 78       		.byte	120
 4730 014e 00       		.byte	0
 4731 014f 00       		.byte	0
 4732 0150 00       		.byte	0
 4733 0151 00       		.byte	0
 4734 0152 00       		.byte	0
 4735 0153 7E       		.byte	126
 4736 0154 02       		.byte	2
 4737 0155 02       		.byte	2
 4738 0156 02       		.byte	2
 4739 0157 1A       		.byte	26
GAS LISTING /var/folders/rt/4gvqv631095f64jvm7jfj_000000gn/T//cc1i8NTO.s 			page 104


 4740 0158 26       		.byte	38
 4741 0159 40       		.byte	64
 4742 015a 40       		.byte	64
 4743 015b 42       		.byte	66
 4744 015c 22       		.byte	34
 4745 015d 1C       		.byte	28
 4746 015e 00       		.byte	0
 4747 015f 00       		.byte	0
 4748 0160 00       		.byte	0
 4749 0161 00       		.byte	0
 4750 0162 00       		.byte	0
 4751 0163 38       		.byte	56
 4752 0164 24       		.byte	36
 4753 0165 02       		.byte	2
 4754 0166 02       		.byte	2
 4755 0167 1A       		.byte	26
 4756 0168 26       		.byte	38
 4757 0169 42       		.byte	66
 4758 016a 42       		.byte	66
 4759 016b 42       		.byte	66
 4760 016c 24       		.byte	36
 4761 016d 18       		.byte	24
 4762 016e 00       		.byte	0
 4763 016f 00       		.byte	0
 4764 0170 00       		.byte	0
 4765 0171 00       		.byte	0
 4766 0172 00       		.byte	0
 4767 0173 7E       		.byte	126
 4768 0174 22       		.byte	34
 4769 0175 22       		.byte	34
 4770 0176 10       		.byte	16
 4771 0177 10       		.byte	16
 4772 0178 08       		.byte	8
 4773 0179 08       		.byte	8
 4774 017a 08       		.byte	8
 4775 017b 08       		.byte	8
 4776 017c 08       		.byte	8
 4777 017d 08       		.byte	8
 4778 017e 00       		.byte	0
 4779 017f 00       		.byte	0
 4780 0180 00       		.byte	0
 4781 0181 00       		.byte	0
 4782 0182 00       		.byte	0
 4783 0183 3C       		.byte	60
 4784 0184 42       		.byte	66
 4785 0185 42       		.byte	66
 4786 0186 42       		.byte	66
 4787 0187 24       		.byte	36
 4788 0188 18       		.byte	24
 4789 0189 24       		.byte	36
 4790 018a 42       		.byte	66
 4791 018b 42       		.byte	66
 4792 018c 42       		.byte	66
 4793 018d 3C       		.byte	60
 4794 018e 00       		.byte	0
 4795 018f 00       		.byte	0
 4796 0190 00       		.byte	0
GAS LISTING /var/folders/rt/4gvqv631095f64jvm7jfj_000000gn/T//cc1i8NTO.s 			page 105


 4797 0191 00       		.byte	0
 4798 0192 00       		.byte	0
 4799 0193 18       		.byte	24
 4800 0194 24       		.byte	36
 4801 0195 42       		.byte	66
 4802 0196 42       		.byte	66
 4803 0197 42       		.byte	66
 4804 0198 64       		.byte	100
 4805 0199 58       		.byte	88
 4806 019a 40       		.byte	64
 4807 019b 40       		.byte	64
 4808 019c 24       		.byte	36
 4809 019d 1C       		.byte	28
 4810 019e 00       		.byte	0
 4811 019f 00       		.byte	0
 4812 01a0 00       		.byte	0
 4813 01a1 00       		.byte	0
 4814 01a2 00       		.byte	0
 4815 01a3 00       		.byte	0
 4816 01a4 00       		.byte	0
 4817 01a5 00       		.byte	0
 4818 01a6 18       		.byte	24
 4819 01a7 18       		.byte	24
 4820 01a8 00       		.byte	0
 4821 01a9 00       		.byte	0
 4822 01aa 00       		.byte	0
 4823 01ab 00       		.byte	0
 4824 01ac 18       		.byte	24
 4825 01ad 18       		.byte	24
 4826 01ae 00       		.byte	0
 4827 01af 00       		.byte	0
 4828 01b0 00       		.byte	0
 4829 01b1 00       		.byte	0
 4830 01b2 00       		.byte	0
 4831 01b3 00       		.byte	0
 4832 01b4 00       		.byte	0
 4833 01b5 00       		.byte	0
 4834 01b6 00       		.byte	0
 4835 01b7 08       		.byte	8
 4836 01b8 00       		.byte	0
 4837 01b9 00       		.byte	0
 4838 01ba 00       		.byte	0
 4839 01bb 00       		.byte	0
 4840 01bc 00       		.byte	0
 4841 01bd 08       		.byte	8
 4842 01be 08       		.byte	8
 4843 01bf 04       		.byte	4
 4844 01c0 00       		.byte	0
 4845 01c1 00       		.byte	0
 4846 01c2 00       		.byte	0
 4847 01c3 40       		.byte	64
 4848 01c4 20       		.byte	32
 4849 01c5 10       		.byte	16
 4850 01c6 08       		.byte	8
 4851 01c7 04       		.byte	4
 4852 01c8 02       		.byte	2
 4853 01c9 04       		.byte	4
GAS LISTING /var/folders/rt/4gvqv631095f64jvm7jfj_000000gn/T//cc1i8NTO.s 			page 106


 4854 01ca 08       		.byte	8
 4855 01cb 10       		.byte	16
 4856 01cc 20       		.byte	32
 4857 01cd 40       		.byte	64
 4858 01ce 00       		.byte	0
 4859 01cf 00       		.byte	0
 4860 01d0 00       		.byte	0
 4861 01d1 00       		.byte	0
 4862 01d2 00       		.byte	0
 4863 01d3 00       		.byte	0
 4864 01d4 00       		.byte	0
 4865 01d5 00       		.byte	0
 4866 01d6 7F       		.byte	127
 4867 01d7 00       		.byte	0
 4868 01d8 00       		.byte	0
 4869 01d9 00       		.byte	0
 4870 01da 7F       		.byte	127
 4871 01db 00       		.byte	0
 4872 01dc 00       		.byte	0
 4873 01dd 00       		.byte	0
 4874 01de 00       		.byte	0
 4875 01df 00       		.byte	0
 4876 01e0 00       		.byte	0
 4877 01e1 00       		.byte	0
 4878 01e2 00       		.byte	0
 4879 01e3 02       		.byte	2
 4880 01e4 04       		.byte	4
 4881 01e5 08       		.byte	8
 4882 01e6 10       		.byte	16
 4883 01e7 20       		.byte	32
 4884 01e8 40       		.byte	64
 4885 01e9 20       		.byte	32
 4886 01ea 10       		.byte	16
 4887 01eb 08       		.byte	8
 4888 01ec 04       		.byte	4
 4889 01ed 02       		.byte	2
 4890 01ee 00       		.byte	0
 4891 01ef 00       		.byte	0
 4892 01f0 00       		.byte	0
 4893 01f1 00       		.byte	0
 4894 01f2 00       		.byte	0
 4895 01f3 3C       		.byte	60
 4896 01f4 42       		.byte	66
 4897 01f5 42       		.byte	66
 4898 01f6 46       		.byte	70
 4899 01f7 40       		.byte	64
 4900 01f8 20       		.byte	32
 4901 01f9 10       		.byte	16
 4902 01fa 10       		.byte	16
 4903 01fb 00       		.byte	0
 4904 01fc 18       		.byte	24
 4905 01fd 18       		.byte	24
 4906 01fe 00       		.byte	0
 4907 01ff 00       		.byte	0
 4908 0200 00       		.byte	0
 4909 0201 00       		.byte	0
 4910 0202 00       		.byte	0
GAS LISTING /var/folders/rt/4gvqv631095f64jvm7jfj_000000gn/T//cc1i8NTO.s 			page 107


 4911 0203 1C       		.byte	28
 4912 0204 22       		.byte	34
 4913 0205 5A       		.byte	90
 4914 0206 55       		.byte	85
 4915 0207 55       		.byte	85
 4916 0208 55       		.byte	85
 4917 0209 55       		.byte	85
 4918 020a 2D       		.byte	45
 4919 020b 42       		.byte	66
 4920 020c 22       		.byte	34
 4921 020d 1C       		.byte	28
 4922 020e 00       		.byte	0
 4923 020f 00       		.byte	0
 4924 0210 00       		.byte	0
 4925 0211 00       		.byte	0
 4926 0212 00       		.byte	0
 4927 0213 08       		.byte	8
 4928 0214 08       		.byte	8
 4929 0215 18       		.byte	24
 4930 0216 14       		.byte	20
 4931 0217 14       		.byte	20
 4932 0218 24       		.byte	36
 4933 0219 3C       		.byte	60
 4934 021a 22       		.byte	34
 4935 021b 42       		.byte	66
 4936 021c 42       		.byte	66
 4937 021d E7       		.byte	-25
 4938 021e 00       		.byte	0
 4939 021f 00       		.byte	0
 4940 0220 00       		.byte	0
 4941 0221 00       		.byte	0
 4942 0222 00       		.byte	0
 4943 0223 1F       		.byte	31
 4944 0224 22       		.byte	34
 4945 0225 22       		.byte	34
 4946 0226 22       		.byte	34
 4947 0227 1E       		.byte	30
 4948 0228 22       		.byte	34
 4949 0229 42       		.byte	66
 4950 022a 42       		.byte	66
 4951 022b 42       		.byte	66
 4952 022c 22       		.byte	34
 4953 022d 1F       		.byte	31
 4954 022e 00       		.byte	0
 4955 022f 00       		.byte	0
 4956 0230 00       		.byte	0
 4957 0231 00       		.byte	0
 4958 0232 00       		.byte	0
 4959 0233 7C       		.byte	124
 4960 0234 42       		.byte	66
 4961 0235 42       		.byte	66
 4962 0236 01       		.byte	1
 4963 0237 01       		.byte	1
 4964 0238 01       		.byte	1
 4965 0239 01       		.byte	1
 4966 023a 01       		.byte	1
 4967 023b 42       		.byte	66
GAS LISTING /var/folders/rt/4gvqv631095f64jvm7jfj_000000gn/T//cc1i8NTO.s 			page 108


 4968 023c 22       		.byte	34
 4969 023d 1C       		.byte	28
 4970 023e 00       		.byte	0
 4971 023f 00       		.byte	0
 4972 0240 00       		.byte	0
 4973 0241 00       		.byte	0
 4974 0242 00       		.byte	0
 4975 0243 1F       		.byte	31
 4976 0244 22       		.byte	34
 4977 0245 42       		.byte	66
 4978 0246 42       		.byte	66
 4979 0247 42       		.byte	66
 4980 0248 42       		.byte	66
 4981 0249 42       		.byte	66
 4982 024a 42       		.byte	66
 4983 024b 42       		.byte	66
 4984 024c 22       		.byte	34
 4985 024d 1F       		.byte	31
 4986 024e 00       		.byte	0
 4987 024f 00       		.byte	0
 4988 0250 00       		.byte	0
 4989 0251 00       		.byte	0
 4990 0252 00       		.byte	0
 4991 0253 3F       		.byte	63
 4992 0254 42       		.byte	66
 4993 0255 12       		.byte	18
 4994 0256 12       		.byte	18
 4995 0257 1E       		.byte	30
 4996 0258 12       		.byte	18
 4997 0259 12       		.byte	18
 4998 025a 02       		.byte	2
 4999 025b 42       		.byte	66
 5000 025c 42       		.byte	66
 5001 025d 3F       		.byte	63
 5002 025e 00       		.byte	0
 5003 025f 00       		.byte	0
 5004 0260 00       		.byte	0
 5005 0261 00       		.byte	0
 5006 0262 00       		.byte	0
 5007 0263 3F       		.byte	63
 5008 0264 42       		.byte	66
 5009 0265 12       		.byte	18
 5010 0266 12       		.byte	18
 5011 0267 1E       		.byte	30
 5012 0268 12       		.byte	18
 5013 0269 12       		.byte	18
 5014 026a 02       		.byte	2
 5015 026b 02       		.byte	2
 5016 026c 02       		.byte	2
 5017 026d 07       		.byte	7
 5018 026e 00       		.byte	0
 5019 026f 00       		.byte	0
 5020 0270 00       		.byte	0
 5021 0271 00       		.byte	0
 5022 0272 00       		.byte	0
 5023 0273 3C       		.byte	60
 5024 0274 22       		.byte	34
GAS LISTING /var/folders/rt/4gvqv631095f64jvm7jfj_000000gn/T//cc1i8NTO.s 			page 109


 5025 0275 22       		.byte	34
 5026 0276 01       		.byte	1
 5027 0277 01       		.byte	1
 5028 0278 01       		.byte	1
 5029 0279 71       		.byte	113
 5030 027a 21       		.byte	33
 5031 027b 22       		.byte	34
 5032 027c 22       		.byte	34
 5033 027d 1C       		.byte	28
 5034 027e 00       		.byte	0
 5035 027f 00       		.byte	0
 5036 0280 00       		.byte	0
 5037 0281 00       		.byte	0
 5038 0282 00       		.byte	0
 5039 0283 E7       		.byte	-25
 5040 0284 42       		.byte	66
 5041 0285 42       		.byte	66
 5042 0286 42       		.byte	66
 5043 0287 42       		.byte	66
 5044 0288 7E       		.byte	126
 5045 0289 42       		.byte	66
 5046 028a 42       		.byte	66
 5047 028b 42       		.byte	66
 5048 028c 42       		.byte	66
 5049 028d E7       		.byte	-25
 5050 028e 00       		.byte	0
 5051 028f 00       		.byte	0
 5052 0290 00       		.byte	0
 5053 0291 00       		.byte	0
 5054 0292 00       		.byte	0
 5055 0293 3E       		.byte	62
 5056 0294 08       		.byte	8
 5057 0295 08       		.byte	8
 5058 0296 08       		.byte	8
 5059 0297 08       		.byte	8
 5060 0298 08       		.byte	8
 5061 0299 08       		.byte	8
 5062 029a 08       		.byte	8
 5063 029b 08       		.byte	8
 5064 029c 08       		.byte	8
 5065 029d 3E       		.byte	62
 5066 029e 00       		.byte	0
 5067 029f 00       		.byte	0
 5068 02a0 00       		.byte	0
 5069 02a1 00       		.byte	0
 5070 02a2 00       		.byte	0
 5071 02a3 7C       		.byte	124
 5072 02a4 10       		.byte	16
 5073 02a5 10       		.byte	16
 5074 02a6 10       		.byte	16
 5075 02a7 10       		.byte	16
 5076 02a8 10       		.byte	16
 5077 02a9 10       		.byte	16
 5078 02aa 10       		.byte	16
 5079 02ab 10       		.byte	16
 5080 02ac 10       		.byte	16
 5081 02ad 10       		.byte	16
GAS LISTING /var/folders/rt/4gvqv631095f64jvm7jfj_000000gn/T//cc1i8NTO.s 			page 110


 5082 02ae 11       		.byte	17
 5083 02af 0F       		.byte	15
 5084 02b0 00       		.byte	0
 5085 02b1 00       		.byte	0
 5086 02b2 00       		.byte	0
 5087 02b3 77       		.byte	119
 5088 02b4 22       		.byte	34
 5089 02b5 12       		.byte	18
 5090 02b6 0A       		.byte	10
 5091 02b7 0E       		.byte	14
 5092 02b8 0A       		.byte	10
 5093 02b9 12       		.byte	18
 5094 02ba 12       		.byte	18
 5095 02bb 22       		.byte	34
 5096 02bc 22       		.byte	34
 5097 02bd 77       		.byte	119
 5098 02be 00       		.byte	0
 5099 02bf 00       		.byte	0
 5100 02c0 00       		.byte	0
 5101 02c1 00       		.byte	0
 5102 02c2 00       		.byte	0
 5103 02c3 07       		.byte	7
 5104 02c4 02       		.byte	2
 5105 02c5 02       		.byte	2
 5106 02c6 02       		.byte	2
 5107 02c7 02       		.byte	2
 5108 02c8 02       		.byte	2
 5109 02c9 02       		.byte	2
 5110 02ca 02       		.byte	2
 5111 02cb 02       		.byte	2
 5112 02cc 42       		.byte	66
 5113 02cd 7F       		.byte	127
 5114 02ce 00       		.byte	0
 5115 02cf 00       		.byte	0
 5116 02d0 00       		.byte	0
 5117 02d1 00       		.byte	0
 5118 02d2 00       		.byte	0
 5119 02d3 77       		.byte	119
 5120 02d4 36       		.byte	54
 5121 02d5 36       		.byte	54
 5122 02d6 36       		.byte	54
 5123 02d7 36       		.byte	54
 5124 02d8 2A       		.byte	42
 5125 02d9 2A       		.byte	42
 5126 02da 2A       		.byte	42
 5127 02db 2A       		.byte	42
 5128 02dc 2A       		.byte	42
 5129 02dd 6B       		.byte	107
 5130 02de 00       		.byte	0
 5131 02df 00       		.byte	0
 5132 02e0 00       		.byte	0
 5133 02e1 00       		.byte	0
 5134 02e2 00       		.byte	0
 5135 02e3 E3       		.byte	-29
 5136 02e4 46       		.byte	70
 5137 02e5 46       		.byte	70
 5138 02e6 4A       		.byte	74
GAS LISTING /var/folders/rt/4gvqv631095f64jvm7jfj_000000gn/T//cc1i8NTO.s 			page 111


 5139 02e7 4A       		.byte	74
 5140 02e8 52       		.byte	82
 5141 02e9 52       		.byte	82
 5142 02ea 52       		.byte	82
 5143 02eb 62       		.byte	98
 5144 02ec 62       		.byte	98
 5145 02ed 47       		.byte	71
 5146 02ee 00       		.byte	0
 5147 02ef 00       		.byte	0
 5148 02f0 00       		.byte	0
 5149 02f1 00       		.byte	0
 5150 02f2 00       		.byte	0
 5151 02f3 1C       		.byte	28
 5152 02f4 22       		.byte	34
 5153 02f5 41       		.byte	65
 5154 02f6 41       		.byte	65
 5155 02f7 41       		.byte	65
 5156 02f8 41       		.byte	65
 5157 02f9 41       		.byte	65
 5158 02fa 41       		.byte	65
 5159 02fb 41       		.byte	65
 5160 02fc 22       		.byte	34
 5161 02fd 1C       		.byte	28
 5162 02fe 00       		.byte	0
 5163 02ff 00       		.byte	0
 5164 0300 00       		.byte	0
 5165 0301 00       		.byte	0
 5166 0302 00       		.byte	0
 5167 0303 3F       		.byte	63
 5168 0304 42       		.byte	66
 5169 0305 42       		.byte	66
 5170 0306 42       		.byte	66
 5171 0307 42       		.byte	66
 5172 0308 3E       		.byte	62
 5173 0309 02       		.byte	2
 5174 030a 02       		.byte	2
 5175 030b 02       		.byte	2
 5176 030c 02       		.byte	2
 5177 030d 07       		.byte	7
 5178 030e 00       		.byte	0
 5179 030f 00       		.byte	0
 5180 0310 00       		.byte	0
 5181 0311 00       		.byte	0
 5182 0312 00       		.byte	0
 5183 0313 1C       		.byte	28
 5184 0314 22       		.byte	34
 5185 0315 41       		.byte	65
 5186 0316 41       		.byte	65
 5187 0317 41       		.byte	65
 5188 0318 41       		.byte	65
 5189 0319 41       		.byte	65
 5190 031a 4D       		.byte	77
 5191 031b 53       		.byte	83
 5192 031c 32       		.byte	50
 5193 031d 1C       		.byte	28
 5194 031e 60       		.byte	96
 5195 031f 00       		.byte	0
GAS LISTING /var/folders/rt/4gvqv631095f64jvm7jfj_000000gn/T//cc1i8NTO.s 			page 112


 5196 0320 00       		.byte	0
 5197 0321 00       		.byte	0
 5198 0322 00       		.byte	0
 5199 0323 3F       		.byte	63
 5200 0324 42       		.byte	66
 5201 0325 42       		.byte	66
 5202 0326 42       		.byte	66
 5203 0327 3E       		.byte	62
 5204 0328 12       		.byte	18
 5205 0329 12       		.byte	18
 5206 032a 22       		.byte	34
 5207 032b 22       		.byte	34
 5208 032c 42       		.byte	66
 5209 032d C7       		.byte	-57
 5210 032e 00       		.byte	0
 5211 032f 00       		.byte	0
 5212 0330 00       		.byte	0
 5213 0331 00       		.byte	0
 5214 0332 00       		.byte	0
 5215 0333 7C       		.byte	124
 5216 0334 42       		.byte	66
 5217 0335 42       		.byte	66
 5218 0336 02       		.byte	2
 5219 0337 04       		.byte	4
 5220 0338 18       		.byte	24
 5221 0339 20       		.byte	32
 5222 033a 40       		.byte	64
 5223 033b 42       		.byte	66
 5224 033c 42       		.byte	66
 5225 033d 3E       		.byte	62
 5226 033e 00       		.byte	0
 5227 033f 00       		.byte	0
 5228 0340 00       		.byte	0
 5229 0341 00       		.byte	0
 5230 0342 00       		.byte	0
 5231 0343 7F       		.byte	127
 5232 0344 49       		.byte	73
 5233 0345 08       		.byte	8
 5234 0346 08       		.byte	8
 5235 0347 08       		.byte	8
 5236 0348 08       		.byte	8
 5237 0349 08       		.byte	8
 5238 034a 08       		.byte	8
 5239 034b 08       		.byte	8
 5240 034c 08       		.byte	8
 5241 034d 1C       		.byte	28
 5242 034e 00       		.byte	0
 5243 034f 00       		.byte	0
 5244 0350 00       		.byte	0
 5245 0351 00       		.byte	0
 5246 0352 00       		.byte	0
 5247 0353 E7       		.byte	-25
 5248 0354 42       		.byte	66
 5249 0355 42       		.byte	66
 5250 0356 42       		.byte	66
 5251 0357 42       		.byte	66
 5252 0358 42       		.byte	66
GAS LISTING /var/folders/rt/4gvqv631095f64jvm7jfj_000000gn/T//cc1i8NTO.s 			page 113


 5253 0359 42       		.byte	66
 5254 035a 42       		.byte	66
 5255 035b 42       		.byte	66
 5256 035c 42       		.byte	66
 5257 035d 3C       		.byte	60
 5258 035e 00       		.byte	0
 5259 035f 00       		.byte	0
 5260 0360 00       		.byte	0
 5261 0361 00       		.byte	0
 5262 0362 00       		.byte	0
 5263 0363 E7       		.byte	-25
 5264 0364 42       		.byte	66
 5265 0365 42       		.byte	66
 5266 0366 22       		.byte	34
 5267 0367 24       		.byte	36
 5268 0368 24       		.byte	36
 5269 0369 14       		.byte	20
 5270 036a 14       		.byte	20
 5271 036b 18       		.byte	24
 5272 036c 08       		.byte	8
 5273 036d 08       		.byte	8
 5274 036e 00       		.byte	0
 5275 036f 00       		.byte	0
 5276 0370 00       		.byte	0
 5277 0371 00       		.byte	0
 5278 0372 00       		.byte	0
 5279 0373 6B       		.byte	107
 5280 0374 49       		.byte	73
 5281 0375 49       		.byte	73
 5282 0376 49       		.byte	73
 5283 0377 49       		.byte	73
 5284 0378 55       		.byte	85
 5285 0379 55       		.byte	85
 5286 037a 36       		.byte	54
 5287 037b 22       		.byte	34
 5288 037c 22       		.byte	34
 5289 037d 22       		.byte	34
 5290 037e 00       		.byte	0
 5291 037f 00       		.byte	0
 5292 0380 00       		.byte	0
 5293 0381 00       		.byte	0
 5294 0382 00       		.byte	0
 5295 0383 E7       		.byte	-25
 5296 0384 42       		.byte	66
 5297 0385 24       		.byte	36
 5298 0386 24       		.byte	36
 5299 0387 18       		.byte	24
 5300 0388 18       		.byte	24
 5301 0389 18       		.byte	24
 5302 038a 24       		.byte	36
 5303 038b 24       		.byte	36
 5304 038c 42       		.byte	66
 5305 038d E7       		.byte	-25
 5306 038e 00       		.byte	0
 5307 038f 00       		.byte	0
 5308 0390 00       		.byte	0
 5309 0391 00       		.byte	0
GAS LISTING /var/folders/rt/4gvqv631095f64jvm7jfj_000000gn/T//cc1i8NTO.s 			page 114


 5310 0392 00       		.byte	0
 5311 0393 77       		.byte	119
 5312 0394 22       		.byte	34
 5313 0395 22       		.byte	34
 5314 0396 14       		.byte	20
 5315 0397 14       		.byte	20
 5316 0398 08       		.byte	8
 5317 0399 08       		.byte	8
 5318 039a 08       		.byte	8
 5319 039b 08       		.byte	8
 5320 039c 08       		.byte	8
 5321 039d 1C       		.byte	28
 5322 039e 00       		.byte	0
 5323 039f 00       		.byte	0
 5324 03a0 00       		.byte	0
 5325 03a1 00       		.byte	0
 5326 03a2 00       		.byte	0
 5327 03a3 7E       		.byte	126
 5328 03a4 21       		.byte	33
 5329 03a5 20       		.byte	32
 5330 03a6 10       		.byte	16
 5331 03a7 10       		.byte	16
 5332 03a8 08       		.byte	8
 5333 03a9 04       		.byte	4
 5334 03aa 04       		.byte	4
 5335 03ab 42       		.byte	66
 5336 03ac 42       		.byte	66
 5337 03ad 3F       		.byte	63
 5338 03ae 00       		.byte	0
 5339 03af 00       		.byte	0
 5340 03b0 00       		.byte	0
 5341 03b1 78       		.byte	120
 5342 03b2 08       		.byte	8
 5343 03b3 08       		.byte	8
 5344 03b4 08       		.byte	8
 5345 03b5 08       		.byte	8
 5346 03b6 08       		.byte	8
 5347 03b7 08       		.byte	8
 5348 03b8 08       		.byte	8
 5349 03b9 08       		.byte	8
 5350 03ba 08       		.byte	8
 5351 03bb 08       		.byte	8
 5352 03bc 08       		.byte	8
 5353 03bd 08       		.byte	8
 5354 03be 78       		.byte	120
 5355 03bf 00       		.byte	0
 5356 03c0 00       		.byte	0
 5357 03c1 00       		.byte	0
 5358 03c2 02       		.byte	2
 5359 03c3 02       		.byte	2
 5360 03c4 04       		.byte	4
 5361 03c5 04       		.byte	4
 5362 03c6 08       		.byte	8
 5363 03c7 08       		.byte	8
 5364 03c8 08       		.byte	8
 5365 03c9 10       		.byte	16
 5366 03ca 10       		.byte	16
GAS LISTING /var/folders/rt/4gvqv631095f64jvm7jfj_000000gn/T//cc1i8NTO.s 			page 115


 5367 03cb 20       		.byte	32
 5368 03cc 20       		.byte	32
 5369 03cd 20       		.byte	32
 5370 03ce 40       		.byte	64
 5371 03cf 40       		.byte	64
 5372 03d0 00       		.byte	0
 5373 03d1 1E       		.byte	30
 5374 03d2 10       		.byte	16
 5375 03d3 10       		.byte	16
 5376 03d4 10       		.byte	16
 5377 03d5 10       		.byte	16
 5378 03d6 10       		.byte	16
 5379 03d7 10       		.byte	16
 5380 03d8 10       		.byte	16
 5381 03d9 10       		.byte	16
 5382 03da 10       		.byte	16
 5383 03db 10       		.byte	16
 5384 03dc 10       		.byte	16
 5385 03dd 10       		.byte	16
 5386 03de 1E       		.byte	30
 5387 03df 00       		.byte	0
 5388 03e0 00       		.byte	0
 5389 03e1 38       		.byte	56
 5390 03e2 44       		.byte	68
 5391 03e3 00       		.byte	0
 5392 03e4 00       		.byte	0
 5393 03e5 00       		.byte	0
 5394 03e6 00       		.byte	0
 5395 03e7 00       		.byte	0
 5396 03e8 00       		.byte	0
 5397 03e9 00       		.byte	0
 5398 03ea 00       		.byte	0
 5399 03eb 00       		.byte	0
 5400 03ec 00       		.byte	0
 5401 03ed 00       		.byte	0
 5402 03ee 00       		.byte	0
 5403 03ef 00       		.byte	0
 5404 03f0 00       		.byte	0
 5405 03f1 00       		.byte	0
 5406 03f2 00       		.byte	0
 5407 03f3 00       		.byte	0
 5408 03f4 00       		.byte	0
 5409 03f5 00       		.byte	0
 5410 03f6 00       		.byte	0
 5411 03f7 00       		.byte	0
 5412 03f8 00       		.byte	0
 5413 03f9 00       		.byte	0
 5414 03fa 00       		.byte	0
 5415 03fb 00       		.byte	0
 5416 03fc 00       		.byte	0
 5417 03fd 00       		.byte	0
 5418 03fe 00       		.byte	0
 5419 03ff FF       		.byte	-1
 5420 0400 00       		.byte	0
 5421 0401 06       		.byte	6
 5422 0402 08       		.byte	8
 5423 0403 00       		.byte	0
GAS LISTING /var/folders/rt/4gvqv631095f64jvm7jfj_000000gn/T//cc1i8NTO.s 			page 116


 5424 0404 00       		.byte	0
 5425 0405 00       		.byte	0
 5426 0406 00       		.byte	0
 5427 0407 00       		.byte	0
 5428 0408 00       		.byte	0
 5429 0409 00       		.byte	0
 5430 040a 00       		.byte	0
 5431 040b 00       		.byte	0
 5432 040c 00       		.byte	0
 5433 040d 00       		.byte	0
 5434 040e 00       		.byte	0
 5435 040f 00       		.byte	0
 5436 0410 00       		.byte	0
 5437 0411 00       		.byte	0
 5438 0412 00       		.byte	0
 5439 0413 00       		.byte	0
 5440 0414 00       		.byte	0
 5441 0415 00       		.byte	0
 5442 0416 00       		.byte	0
 5443 0417 3C       		.byte	60
 5444 0418 42       		.byte	66
 5445 0419 78       		.byte	120
 5446 041a 44       		.byte	68
 5447 041b 42       		.byte	66
 5448 041c 42       		.byte	66
 5449 041d FC       		.byte	-4
 5450 041e 00       		.byte	0
 5451 041f 00       		.byte	0
 5452 0420 00       		.byte	0
 5453 0421 00       		.byte	0
 5454 0422 00       		.byte	0
 5455 0423 03       		.byte	3
 5456 0424 02       		.byte	2
 5457 0425 02       		.byte	2
 5458 0426 02       		.byte	2
 5459 0427 1A       		.byte	26
 5460 0428 26       		.byte	38
 5461 0429 42       		.byte	66
 5462 042a 42       		.byte	66
 5463 042b 42       		.byte	66
 5464 042c 26       		.byte	38
 5465 042d 1A       		.byte	26
 5466 042e 00       		.byte	0
 5467 042f 00       		.byte	0
 5468 0430 00       		.byte	0
 5469 0431 00       		.byte	0
 5470 0432 00       		.byte	0
 5471 0433 00       		.byte	0
 5472 0434 00       		.byte	0
 5473 0435 00       		.byte	0
 5474 0436 00       		.byte	0
 5475 0437 38       		.byte	56
 5476 0438 44       		.byte	68
 5477 0439 02       		.byte	2
 5478 043a 02       		.byte	2
 5479 043b 02       		.byte	2
 5480 043c 44       		.byte	68
GAS LISTING /var/folders/rt/4gvqv631095f64jvm7jfj_000000gn/T//cc1i8NTO.s 			page 117


 5481 043d 38       		.byte	56
 5482 043e 00       		.byte	0
 5483 043f 00       		.byte	0
 5484 0440 00       		.byte	0
 5485 0441 00       		.byte	0
 5486 0442 00       		.byte	0
 5487 0443 60       		.byte	96
 5488 0444 40       		.byte	64
 5489 0445 40       		.byte	64
 5490 0446 40       		.byte	64
 5491 0447 78       		.byte	120
 5492 0448 44       		.byte	68
 5493 0449 42       		.byte	66
 5494 044a 42       		.byte	66
 5495 044b 42       		.byte	66
 5496 044c 64       		.byte	100
 5497 044d D8       		.byte	-40
 5498 044e 00       		.byte	0
 5499 044f 00       		.byte	0
 5500 0450 00       		.byte	0
 5501 0451 00       		.byte	0
 5502 0452 00       		.byte	0
 5503 0453 00       		.byte	0
 5504 0454 00       		.byte	0
 5505 0455 00       		.byte	0
 5506 0456 00       		.byte	0
 5507 0457 3C       		.byte	60
 5508 0458 42       		.byte	66
 5509 0459 7E       		.byte	126
 5510 045a 02       		.byte	2
 5511 045b 02       		.byte	2
 5512 045c 42       		.byte	66
 5513 045d 3C       		.byte	60
 5514 045e 00       		.byte	0
 5515 045f 00       		.byte	0
 5516 0460 00       		.byte	0
 5517 0461 00       		.byte	0
 5518 0462 00       		.byte	0
 5519 0463 F0       		.byte	-16
 5520 0464 88       		.byte	-120
 5521 0465 08       		.byte	8
 5522 0466 08       		.byte	8
 5523 0467 7E       		.byte	126
 5524 0468 08       		.byte	8
 5525 0469 08       		.byte	8
 5526 046a 08       		.byte	8
 5527 046b 08       		.byte	8
 5528 046c 08       		.byte	8
 5529 046d 3E       		.byte	62
 5530 046e 00       		.byte	0
 5531 046f 00       		.byte	0
 5532 0470 00       		.byte	0
 5533 0471 00       		.byte	0
 5534 0472 00       		.byte	0
 5535 0473 00       		.byte	0
 5536 0474 00       		.byte	0
 5537 0475 00       		.byte	0
GAS LISTING /var/folders/rt/4gvqv631095f64jvm7jfj_000000gn/T//cc1i8NTO.s 			page 118


 5538 0476 00       		.byte	0
 5539 0477 7C       		.byte	124
 5540 0478 22       		.byte	34
 5541 0479 22       		.byte	34
 5542 047a 1C       		.byte	28
 5543 047b 02       		.byte	2
 5544 047c 3C       		.byte	60
 5545 047d 42       		.byte	66
 5546 047e 42       		.byte	66
 5547 047f 3C       		.byte	60
 5548 0480 00       		.byte	0
 5549 0481 00       		.byte	0
 5550 0482 00       		.byte	0
 5551 0483 03       		.byte	3
 5552 0484 02       		.byte	2
 5553 0485 02       		.byte	2
 5554 0486 02       		.byte	2
 5555 0487 3A       		.byte	58
 5556 0488 46       		.byte	70
 5557 0489 42       		.byte	66
 5558 048a 42       		.byte	66
 5559 048b 42       		.byte	66
 5560 048c 42       		.byte	66
 5561 048d E7       		.byte	-25
 5562 048e 00       		.byte	0
 5563 048f 00       		.byte	0
 5564 0490 00       		.byte	0
 5565 0491 00       		.byte	0
 5566 0492 00       		.byte	0
 5567 0493 0C       		.byte	12
 5568 0494 0C       		.byte	12
 5569 0495 00       		.byte	0
 5570 0496 00       		.byte	0
 5571 0497 0E       		.byte	14
 5572 0498 08       		.byte	8
 5573 0499 08       		.byte	8
 5574 049a 08       		.byte	8
 5575 049b 08       		.byte	8
 5576 049c 08       		.byte	8
 5577 049d 3E       		.byte	62
 5578 049e 00       		.byte	0
 5579 049f 00       		.byte	0
 5580 04a0 00       		.byte	0
 5581 04a1 00       		.byte	0
 5582 04a2 00       		.byte	0
 5583 04a3 30       		.byte	48
 5584 04a4 30       		.byte	48
 5585 04a5 00       		.byte	0
 5586 04a6 00       		.byte	0
 5587 04a7 38       		.byte	56
 5588 04a8 20       		.byte	32
 5589 04a9 20       		.byte	32
 5590 04aa 20       		.byte	32
 5591 04ab 20       		.byte	32
 5592 04ac 20       		.byte	32
 5593 04ad 20       		.byte	32
 5594 04ae 22       		.byte	34
GAS LISTING /var/folders/rt/4gvqv631095f64jvm7jfj_000000gn/T//cc1i8NTO.s 			page 119


 5595 04af 1E       		.byte	30
 5596 04b0 00       		.byte	0
 5597 04b1 00       		.byte	0
 5598 04b2 00       		.byte	0
 5599 04b3 03       		.byte	3
 5600 04b4 02       		.byte	2
 5601 04b5 02       		.byte	2
 5602 04b6 02       		.byte	2
 5603 04b7 72       		.byte	114
 5604 04b8 12       		.byte	18
 5605 04b9 0A       		.byte	10
 5606 04ba 16       		.byte	22
 5607 04bb 12       		.byte	18
 5608 04bc 22       		.byte	34
 5609 04bd 77       		.byte	119
 5610 04be 00       		.byte	0
 5611 04bf 00       		.byte	0
 5612 04c0 00       		.byte	0
 5613 04c1 00       		.byte	0
 5614 04c2 00       		.byte	0
 5615 04c3 0E       		.byte	14
 5616 04c4 08       		.byte	8
 5617 04c5 08       		.byte	8
 5618 04c6 08       		.byte	8
 5619 04c7 08       		.byte	8
 5620 04c8 08       		.byte	8
 5621 04c9 08       		.byte	8
 5622 04ca 08       		.byte	8
 5623 04cb 08       		.byte	8
 5624 04cc 08       		.byte	8
 5625 04cd 3E       		.byte	62
 5626 04ce 00       		.byte	0
 5627 04cf 00       		.byte	0
 5628 04d0 00       		.byte	0
 5629 04d1 00       		.byte	0
 5630 04d2 00       		.byte	0
 5631 04d3 00       		.byte	0
 5632 04d4 00       		.byte	0
 5633 04d5 00       		.byte	0
 5634 04d6 00       		.byte	0
 5635 04d7 7F       		.byte	127
 5636 04d8 92       		.byte	-110
 5637 04d9 92       		.byte	-110
 5638 04da 92       		.byte	-110
 5639 04db 92       		.byte	-110
 5640 04dc 92       		.byte	-110
 5641 04dd B7       		.byte	-73
 5642 04de 00       		.byte	0
 5643 04df 00       		.byte	0
 5644 04e0 00       		.byte	0
 5645 04e1 00       		.byte	0
 5646 04e2 00       		.byte	0
 5647 04e3 00       		.byte	0
 5648 04e4 00       		.byte	0
 5649 04e5 00       		.byte	0
 5650 04e6 00       		.byte	0
 5651 04e7 3B       		.byte	59
GAS LISTING /var/folders/rt/4gvqv631095f64jvm7jfj_000000gn/T//cc1i8NTO.s 			page 120


 5652 04e8 46       		.byte	70
 5653 04e9 42       		.byte	66
 5654 04ea 42       		.byte	66
 5655 04eb 42       		.byte	66
 5656 04ec 42       		.byte	66
 5657 04ed E7       		.byte	-25
 5658 04ee 00       		.byte	0
 5659 04ef 00       		.byte	0
 5660 04f0 00       		.byte	0
 5661 04f1 00       		.byte	0
 5662 04f2 00       		.byte	0
 5663 04f3 00       		.byte	0
 5664 04f4 00       		.byte	0
 5665 04f5 00       		.byte	0
 5666 04f6 00       		.byte	0
 5667 04f7 3C       		.byte	60
 5668 04f8 42       		.byte	66
 5669 04f9 42       		.byte	66
 5670 04fa 42       		.byte	66
 5671 04fb 42       		.byte	66
 5672 04fc 42       		.byte	66
 5673 04fd 3C       		.byte	60
 5674 04fe 00       		.byte	0
 5675 04ff 00       		.byte	0
 5676 0500 00       		.byte	0
 5677 0501 00       		.byte	0
 5678 0502 00       		.byte	0
 5679 0503 00       		.byte	0
 5680 0504 00       		.byte	0
 5681 0505 00       		.byte	0
 5682 0506 00       		.byte	0
 5683 0507 1B       		.byte	27
 5684 0508 26       		.byte	38
 5685 0509 42       		.byte	66
 5686 050a 42       		.byte	66
 5687 050b 42       		.byte	66
 5688 050c 22       		.byte	34
 5689 050d 1E       		.byte	30
 5690 050e 02       		.byte	2
 5691 050f 07       		.byte	7
 5692 0510 00       		.byte	0
 5693 0511 00       		.byte	0
 5694 0512 00       		.byte	0
 5695 0513 00       		.byte	0
 5696 0514 00       		.byte	0
 5697 0515 00       		.byte	0
 5698 0516 00       		.byte	0
 5699 0517 78       		.byte	120
 5700 0518 44       		.byte	68
 5701 0519 42       		.byte	66
 5702 051a 42       		.byte	66
 5703 051b 42       		.byte	66
 5704 051c 44       		.byte	68
 5705 051d 78       		.byte	120
 5706 051e 40       		.byte	64
 5707 051f E0       		.byte	-32
 5708 0520 00       		.byte	0
GAS LISTING /var/folders/rt/4gvqv631095f64jvm7jfj_000000gn/T//cc1i8NTO.s 			page 121


 5709 0521 00       		.byte	0
 5710 0522 00       		.byte	0
 5711 0523 00       		.byte	0
 5712 0524 00       		.byte	0
 5713 0525 00       		.byte	0
 5714 0526 00       		.byte	0
 5715 0527 77       		.byte	119
 5716 0528 4C       		.byte	76
 5717 0529 04       		.byte	4
 5718 052a 04       		.byte	4
 5719 052b 04       		.byte	4
 5720 052c 04       		.byte	4
 5721 052d 1F       		.byte	31
 5722 052e 00       		.byte	0
 5723 052f 00       		.byte	0
 5724 0530 00       		.byte	0
 5725 0531 00       		.byte	0
 5726 0532 00       		.byte	0
 5727 0533 00       		.byte	0
 5728 0534 00       		.byte	0
 5729 0535 00       		.byte	0
 5730 0536 00       		.byte	0
 5731 0537 7C       		.byte	124
 5732 0538 42       		.byte	66
 5733 0539 02       		.byte	2
 5734 053a 3C       		.byte	60
 5735 053b 40       		.byte	64
 5736 053c 42       		.byte	66
 5737 053d 3E       		.byte	62
 5738 053e 00       		.byte	0
 5739 053f 00       		.byte	0
 5740 0540 00       		.byte	0
 5741 0541 00       		.byte	0
 5742 0542 00       		.byte	0
 5743 0543 00       		.byte	0
 5744 0544 00       		.byte	0
 5745 0545 08       		.byte	8
 5746 0546 08       		.byte	8
 5747 0547 3E       		.byte	62
 5748 0548 08       		.byte	8
 5749 0549 08       		.byte	8
 5750 054a 08       		.byte	8
 5751 054b 08       		.byte	8
 5752 054c 08       		.byte	8
 5753 054d 30       		.byte	48
 5754 054e 00       		.byte	0
 5755 054f 00       		.byte	0
 5756 0550 00       		.byte	0
 5757 0551 00       		.byte	0
 5758 0552 00       		.byte	0
 5759 0553 00       		.byte	0
 5760 0554 00       		.byte	0
 5761 0555 00       		.byte	0
 5762 0556 00       		.byte	0
 5763 0557 63       		.byte	99
 5764 0558 42       		.byte	66
 5765 0559 42       		.byte	66
GAS LISTING /var/folders/rt/4gvqv631095f64jvm7jfj_000000gn/T//cc1i8NTO.s 			page 122


 5766 055a 42       		.byte	66
 5767 055b 42       		.byte	66
 5768 055c 62       		.byte	98
 5769 055d DC       		.byte	-36
 5770 055e 00       		.byte	0
 5771 055f 00       		.byte	0
 5772 0560 00       		.byte	0
 5773 0561 00       		.byte	0
 5774 0562 00       		.byte	0
 5775 0563 00       		.byte	0
 5776 0564 00       		.byte	0
 5777 0565 00       		.byte	0
 5778 0566 00       		.byte	0
 5779 0567 E7       		.byte	-25
 5780 0568 42       		.byte	66
 5781 0569 24       		.byte	36
 5782 056a 24       		.byte	36
 5783 056b 14       		.byte	20
 5784 056c 08       		.byte	8
 5785 056d 08       		.byte	8
 5786 056e 00       		.byte	0
 5787 056f 00       		.byte	0
 5788 0570 00       		.byte	0
 5789 0571 00       		.byte	0
 5790 0572 00       		.byte	0
 5791 0573 00       		.byte	0
 5792 0574 00       		.byte	0
 5793 0575 00       		.byte	0
 5794 0576 00       		.byte	0
 5795 0577 EB       		.byte	-21
 5796 0578 49       		.byte	73
 5797 0579 49       		.byte	73
 5798 057a 55       		.byte	85
 5799 057b 55       		.byte	85
 5800 057c 22       		.byte	34
 5801 057d 22       		.byte	34
 5802 057e 00       		.byte	0
 5803 057f 00       		.byte	0
 5804 0580 00       		.byte	0
 5805 0581 00       		.byte	0
 5806 0582 00       		.byte	0
 5807 0583 00       		.byte	0
 5808 0584 00       		.byte	0
 5809 0585 00       		.byte	0
 5810 0586 00       		.byte	0
 5811 0587 76       		.byte	118
 5812 0588 24       		.byte	36
 5813 0589 18       		.byte	24
 5814 058a 18       		.byte	24
 5815 058b 18       		.byte	24
 5816 058c 24       		.byte	36
 5817 058d 6E       		.byte	110
 5818 058e 00       		.byte	0
 5819 058f 00       		.byte	0
 5820 0590 00       		.byte	0
 5821 0591 00       		.byte	0
 5822 0592 00       		.byte	0
GAS LISTING /var/folders/rt/4gvqv631095f64jvm7jfj_000000gn/T//cc1i8NTO.s 			page 123


 5823 0593 00       		.byte	0
 5824 0594 00       		.byte	0
 5825 0595 00       		.byte	0
 5826 0596 00       		.byte	0
 5827 0597 E7       		.byte	-25
 5828 0598 42       		.byte	66
 5829 0599 24       		.byte	36
 5830 059a 24       		.byte	36
 5831 059b 14       		.byte	20
 5832 059c 18       		.byte	24
 5833 059d 08       		.byte	8
 5834 059e 08       		.byte	8
 5835 059f 07       		.byte	7
 5836 05a0 00       		.byte	0
 5837 05a1 00       		.byte	0
 5838 05a2 00       		.byte	0
 5839 05a3 00       		.byte	0
 5840 05a4 00       		.byte	0
 5841 05a5 00       		.byte	0
 5842 05a6 00       		.byte	0
 5843 05a7 7E       		.byte	126
 5844 05a8 22       		.byte	34
 5845 05a9 10       		.byte	16
 5846 05aa 08       		.byte	8
 5847 05ab 08       		.byte	8
 5848 05ac 44       		.byte	68
 5849 05ad 7E       		.byte	126
 5850 05ae 00       		.byte	0
 5851 05af 00       		.byte	0
 5852 05b0 00       		.byte	0
 5853 05b1 C0       		.byte	-64
 5854 05b2 20       		.byte	32
 5855 05b3 20       		.byte	32
 5856 05b4 20       		.byte	32
 5857 05b5 20       		.byte	32
 5858 05b6 20       		.byte	32
 5859 05b7 10       		.byte	16
 5860 05b8 20       		.byte	32
 5861 05b9 20       		.byte	32
 5862 05ba 20       		.byte	32
 5863 05bb 20       		.byte	32
 5864 05bc 20       		.byte	32
 5865 05bd 20       		.byte	32
 5866 05be C0       		.byte	-64
 5867 05bf 00       		.byte	0
 5868 05c0 10       		.byte	16
 5869 05c1 10       		.byte	16
 5870 05c2 10       		.byte	16
 5871 05c3 10       		.byte	16
 5872 05c4 10       		.byte	16
 5873 05c5 10       		.byte	16
 5874 05c6 10       		.byte	16
 5875 05c7 10       		.byte	16
 5876 05c8 10       		.byte	16
 5877 05c9 10       		.byte	16
 5878 05ca 10       		.byte	16
 5879 05cb 10       		.byte	16
GAS LISTING /var/folders/rt/4gvqv631095f64jvm7jfj_000000gn/T//cc1i8NTO.s 			page 124


 5880 05cc 10       		.byte	16
 5881 05cd 10       		.byte	16
 5882 05ce 10       		.byte	16
 5883 05cf 10       		.byte	16
 5884 05d0 00       		.byte	0
 5885 05d1 06       		.byte	6
 5886 05d2 08       		.byte	8
 5887 05d3 08       		.byte	8
 5888 05d4 08       		.byte	8
 5889 05d5 08       		.byte	8
 5890 05d6 08       		.byte	8
 5891 05d7 10       		.byte	16
 5892 05d8 08       		.byte	8
 5893 05d9 08       		.byte	8
 5894 05da 08       		.byte	8
 5895 05db 08       		.byte	8
 5896 05dc 08       		.byte	8
 5897 05dd 08       		.byte	8
 5898 05de 06       		.byte	6
 5899 05df 00       		.byte	0
 5900 05e0 AA       		.byte	-86
 5901 05e1 AA       		.byte	-86
 5902 05e2 55       		.byte	85
 5903 05e3 55       		.byte	85
 5904 05e4 AA       		.byte	-86
 5905 05e5 AA       		.byte	-86
 5906 05e6 55       		.byte	85
 5907 05e7 55       		.byte	85
 5908 05e8 AA       		.byte	-86
 5909 05e9 AA       		.byte	-86
 5910 05ea 55       		.byte	85
 5911 05eb 55       		.byte	85
 5912 05ec AA       		.byte	-86
 5913 05ed AA       		.byte	-86
 5914 05ee 55       		.byte	85
 5915 05ef 55       		.byte	85
 5916 05f0 00       		.byte	0
 5917 05f1 00       		.byte	0
 5918 05f2 00       		.byte	0
 5919 05f3 04       		.byte	4
 5920 05f4 0A       		.byte	10
 5921 05f5 0E       		.byte	14
 5922 05f6 0A       		.byte	10
 5923 05f7 0A       		.byte	10
 5924 05f8 60       		.byte	96
 5925 05f9 90       		.byte	-112
 5926 05fa 60       		.byte	96
 5927 05fb 40       		.byte	64
 5928 05fc 90       		.byte	-112
 5929 05fd 60       		.byte	96
 5930 05fe 00       		.byte	0
 5931 05ff 00       		.byte	0
 5932              		.section	.rodata.lcd_delay_1ms.cst8,"aM",@progbits,8
 5933              		.align	3
 5934              	.LC0:
 5935 0000 00000000 		.word	0
 5936 0004 0040AF40 		.word	1085227008
GAS LISTING /var/folders/rt/4gvqv631095f64jvm7jfj_000000gn/T//cc1i8NTO.s 			page 125


 5937              		.section	.sbss.lcd_conf,"aw",@nobits
 5938              		.align	2
 5939              		.set	.LANCHOR3,. + 0
 5942              	lcd_conf:
 5943 0000 00000000 		.zero	4
 5944              		.section	.sbss.r,"aw",@nobits
 5945              		.align	2
 5946              		.set	.LANCHOR0,. + 0
 5949              	r:
 5950 0000 00000000 		.zero	4
 5951              		.section	.sbss.w,"aw",@nobits
 5952              		.align	2
 5953              		.set	.LANCHOR1,. + 0
 5956              	w:
 5957 0000 00000000 		.zero	4
 5958              		.text
 5959              	.Letext0:
 5960              		.file 2 "/Users/alexstrae/toolchain-gd32v-v202-osx/compiler/lib/gcc/riscv64-unknown-elf/8.3.0/incl
 5961              		.file 3 "/Users/alexstrae/toolchain-gd32v-v202-osx/compiler/riscv64-unknown-elf/include/machine/_d
 5962              		.file 4 "/Users/alexstrae/toolchain-gd32v-v202-osx/compiler/riscv64-unknown-elf/include/sys/_types
 5963              		.file 5 "/Users/alexstrae/toolchain-gd32v-v202-osx/compiler/riscv64-unknown-elf/include/sys/reent.
 5964              		.file 6 "/Users/alexstrae/toolchain-gd32v-v202-osx/compiler/riscv64-unknown-elf/include/sys/lock.h
 5965              		.file 7 "/Users/alexstrae/toolchain-gd32v-v202-osx/compiler/riscv64-unknown-elf/include/stdlib.h"
 5966              		.file 8 "/Users/alexstrae/toolchain-gd32v-v202-osx/compiler/riscv64-unknown-elf/include/sys/_stdin
 5967              		.file 9 "../../firmware/GD32VF103_standard_peripheral/system_gd32vf103.h"
 5968              		.file 10 "../../firmware/GD32VF103_standard_peripheral/gd32vf103.h"
 5969              		.file 11 "../../firmware/GD32VF103_standard_peripheral/Include/gd32vf103_rcu.h"
 5970              		.file 12 "../../firmware/GD32VF103_standard_peripheral/Include/gd32vf103_spi.h"
 5971              		.file 13 "lcd.h"
 5972              		.file 14 "oledfont.h"
 5973              		.file 15 "../../firmware/GD32VF103_standard_peripheral/Include/gd32vf103_gpio.h"
 5974              		.file 16 "../../firmware/RISCV/drivers/n200_func.h"
GAS LISTING /var/folders/rt/4gvqv631095f64jvm7jfj_000000gn/T//cc1i8NTO.s 			page 126


DEFINED SYMBOLS
                            *ABS*:0000000000000000 lcd_bigone.c
/var/folders/rt/4gvqv631095f64jvm7jfj_000000gn/T//cc1i8NTO.s:18     .text.lcd_delay_1ms:0000000000000000 lcd_delay_1ms
/var/folders/rt/4gvqv631095f64jvm7jfj_000000gn/T//cc1i8NTO.s:22     .text.lcd_delay_1ms:0000000000000000 .L0 
/var/folders/rt/4gvqv631095f64jvm7jfj_000000gn/T//cc1i8NTO.s:24     .text.lcd_delay_1ms:0000000000000000 .L0 
/var/folders/rt/4gvqv631095f64jvm7jfj_000000gn/T//cc1i8NTO.s:25     .text.lcd_delay_1ms:0000000000000000 .L0 
/var/folders/rt/4gvqv631095f64jvm7jfj_000000gn/T//cc1i8NTO.s:26     .text.lcd_delay_1ms:0000000000000000 .L0 
/var/folders/rt/4gvqv631095f64jvm7jfj_000000gn/T//cc1i8NTO.s:27     .text.lcd_delay_1ms:0000000000000000 .L0 
/var/folders/rt/4gvqv631095f64jvm7jfj_000000gn/T//cc1i8NTO.s:29     .text.lcd_delay_1ms:0000000000000002 .L0 
/var/folders/rt/4gvqv631095f64jvm7jfj_000000gn/T//cc1i8NTO.s:41     .text.lcd_delay_1ms:0000000000000018 .L0 
/var/folders/rt/4gvqv631095f64jvm7jfj_000000gn/T//cc1i8NTO.s:42     .text.lcd_delay_1ms:0000000000000018 .L0 
/var/folders/rt/4gvqv631095f64jvm7jfj_000000gn/T//cc1i8NTO.s:43     .text.lcd_delay_1ms:0000000000000018 .L0 
/var/folders/rt/4gvqv631095f64jvm7jfj_000000gn/T//cc1i8NTO.s:44     .text.lcd_delay_1ms:0000000000000018 .L0 
/var/folders/rt/4gvqv631095f64jvm7jfj_000000gn/T//cc1i8NTO.s:45     .text.lcd_delay_1ms:0000000000000018 .L0 
/var/folders/rt/4gvqv631095f64jvm7jfj_000000gn/T//cc1i8NTO.s:46     .text.lcd_delay_1ms:0000000000000018 .L0 
/var/folders/rt/4gvqv631095f64jvm7jfj_000000gn/T//cc1i8NTO.s:47     .text.lcd_delay_1ms:0000000000000018 .L0 
/var/folders/rt/4gvqv631095f64jvm7jfj_000000gn/T//cc1i8NTO.s:48     .text.lcd_delay_1ms:0000000000000018 .L0 
/var/folders/rt/4gvqv631095f64jvm7jfj_000000gn/T//cc1i8NTO.s:49     .text.lcd_delay_1ms:0000000000000018 .L0 
/var/folders/rt/4gvqv631095f64jvm7jfj_000000gn/T//cc1i8NTO.s:50     .text.lcd_delay_1ms:0000000000000018 .L0 
/var/folders/rt/4gvqv631095f64jvm7jfj_000000gn/T//cc1i8NTO.s:51     .text.lcd_delay_1ms:0000000000000018 .L0 
/var/folders/rt/4gvqv631095f64jvm7jfj_000000gn/T//cc1i8NTO.s:53     .text.lcd_delay_1ms:0000000000000018 .L0 
/var/folders/rt/4gvqv631095f64jvm7jfj_000000gn/T//cc1i8NTO.s:55     .text.lcd_delay_1ms:000000000000001a .L0 
/var/folders/rt/4gvqv631095f64jvm7jfj_000000gn/T//cc1i8NTO.s:62     .text.lcd_delay_1ms:0000000000000026 .L0 
/var/folders/rt/4gvqv631095f64jvm7jfj_000000gn/T//cc1i8NTO.s:63     .text.lcd_delay_1ms:0000000000000026 .L0 
/var/folders/rt/4gvqv631095f64jvm7jfj_000000gn/T//cc1i8NTO.s:64     .text.lcd_delay_1ms:0000000000000026 .L0 
/var/folders/rt/4gvqv631095f64jvm7jfj_000000gn/T//cc1i8NTO.s:70     .text.lcd_delay_1ms:0000000000000032 .L0 
/var/folders/rt/4gvqv631095f64jvm7jfj_000000gn/T//cc1i8NTO.s:74     .text.lcd_delay_1ms:000000000000003a .L0 
/var/folders/rt/4gvqv631095f64jvm7jfj_000000gn/T//cc1i8NTO.s:81     .text.lcd_delay_1ms:000000000000004a .L0 
/var/folders/rt/4gvqv631095f64jvm7jfj_000000gn/T//cc1i8NTO.s:82     .text.lcd_delay_1ms:000000000000004a .L0 
/var/folders/rt/4gvqv631095f64jvm7jfj_000000gn/T//cc1i8NTO.s:83     .text.lcd_delay_1ms:000000000000004a .L0 
/var/folders/rt/4gvqv631095f64jvm7jfj_000000gn/T//cc1i8NTO.s:87     .text.lcd_delay_1ms:0000000000000054 .L0 
/var/folders/rt/4gvqv631095f64jvm7jfj_000000gn/T//cc1i8NTO.s:93     .text.lcd_delay_1ms:000000000000005c .L0 
/var/folders/rt/4gvqv631095f64jvm7jfj_000000gn/T//cc1i8NTO.s:98     .text.lcd_delay_1ms:0000000000000068 .L0 
/var/folders/rt/4gvqv631095f64jvm7jfj_000000gn/T//cc1i8NTO.s:100    .text.lcd_delay_1ms:000000000000006c .L0 
/var/folders/rt/4gvqv631095f64jvm7jfj_000000gn/T//cc1i8NTO.s:102    .text.lcd_delay_1ms:000000000000006e .L0 
/var/folders/rt/4gvqv631095f64jvm7jfj_000000gn/T//cc1i8NTO.s:110    .text.lcd_delay_1ms:0000000000000084 .L0 
/var/folders/rt/4gvqv631095f64jvm7jfj_000000gn/T//cc1i8NTO.s:112    .text.lcd_delay_1ms:0000000000000086 .L0 
/var/folders/rt/4gvqv631095f64jvm7jfj_000000gn/T//cc1i8NTO.s:114    .text.lcd_delay_1ms:0000000000000088 .L0 
/var/folders/rt/4gvqv631095f64jvm7jfj_000000gn/T//cc1i8NTO.s:123    .text.lcd_delay_1ms:00000000000000a0 .L0 
/var/folders/rt/4gvqv631095f64jvm7jfj_000000gn/T//cc1i8NTO.s:131    .text.lcd_delay_1ms:00000000000000b4 .L0 
/var/folders/rt/4gvqv631095f64jvm7jfj_000000gn/T//cc1i8NTO.s:132    .text.lcd_delay_1ms:00000000000000b6 .L0 
/var/folders/rt/4gvqv631095f64jvm7jfj_000000gn/T//cc1i8NTO.s:134    .text.lcd_delay_1ms:00000000000000b8 .L0 
/var/folders/rt/4gvqv631095f64jvm7jfj_000000gn/T//cc1i8NTO.s:137    .text.lcd_delay_1ms:00000000000000ba .L0 
/var/folders/rt/4gvqv631095f64jvm7jfj_000000gn/T//cc1i8NTO.s:139    .text.lcd_delay_1ms:00000000000000bc .L0 
/var/folders/rt/4gvqv631095f64jvm7jfj_000000gn/T//cc1i8NTO.s:141    .text.lcd_delay_1ms:00000000000000be .L0 
/var/folders/rt/4gvqv631095f64jvm7jfj_000000gn/T//cc1i8NTO.s:143    .text.lcd_delay_1ms:00000000000000c0 .L0 
/var/folders/rt/4gvqv631095f64jvm7jfj_000000gn/T//cc1i8NTO.s:145    .text.lcd_delay_1ms:00000000000000c2 .L0 
/var/folders/rt/4gvqv631095f64jvm7jfj_000000gn/T//cc1i8NTO.s:147    .text.lcd_delay_1ms:00000000000000c4 .L0 
/var/folders/rt/4gvqv631095f64jvm7jfj_000000gn/T//cc1i8NTO.s:150    .text.lcd_delay_1ms:00000000000000c6 .L0 
/var/folders/rt/4gvqv631095f64jvm7jfj_000000gn/T//cc1i8NTO.s:152    .text.lcd_delay_1ms:00000000000000c8 .L0 
/var/folders/rt/4gvqv631095f64jvm7jfj_000000gn/T//cc1i8NTO.s:154    .text.lcd_delay_1ms:00000000000000ca .L0 
/var/folders/rt/4gvqv631095f64jvm7jfj_000000gn/T//cc1i8NTO.s:157    .text.lcd_delay_1ms:00000000000000cc .L0 
/var/folders/rt/4gvqv631095f64jvm7jfj_000000gn/T//cc1i8NTO.s:159    .text.lcd_delay_1ms:00000000000000ce .L0 
/var/folders/rt/4gvqv631095f64jvm7jfj_000000gn/T//cc1i8NTO.s:166    .text.LCD_WR_Queue:0000000000000000 LCD_WR_Queue
/var/folders/rt/4gvqv631095f64jvm7jfj_000000gn/T//cc1i8NTO.s:169    .text.LCD_WR_Queue:0000000000000000 .L0 
/var/folders/rt/4gvqv631095f64jvm7jfj_000000gn/T//cc1i8NTO.s:170    .text.LCD_WR_Queue:0000000000000000 .L0 
/var/folders/rt/4gvqv631095f64jvm7jfj_000000gn/T//cc1i8NTO.s:171    .text.LCD_WR_Queue:0000000000000000 .L0 
GAS LISTING /var/folders/rt/4gvqv631095f64jvm7jfj_000000gn/T//cc1i8NTO.s 			page 127


/var/folders/rt/4gvqv631095f64jvm7jfj_000000gn/T//cc1i8NTO.s:172    .text.LCD_WR_Queue:0000000000000000 .L0 
/var/folders/rt/4gvqv631095f64jvm7jfj_000000gn/T//cc1i8NTO.s:174    .text.LCD_WR_Queue:0000000000000002 .L0 
/var/folders/rt/4gvqv631095f64jvm7jfj_000000gn/T//cc1i8NTO.s:177    .text.LCD_WR_Queue:0000000000000004 .L0 
/var/folders/rt/4gvqv631095f64jvm7jfj_000000gn/T//cc1i8NTO.s:178    .text.LCD_WR_Queue:0000000000000008 .L0 
/var/folders/rt/4gvqv631095f64jvm7jfj_000000gn/T//cc1i8NTO.s:180    .text.LCD_WR_Queue:0000000000000008 .L0 
/var/folders/rt/4gvqv631095f64jvm7jfj_000000gn/T//cc1i8NTO.s:182    .text.LCD_WR_Queue:000000000000000c .L0 
/var/folders/rt/4gvqv631095f64jvm7jfj_000000gn/T//cc1i8NTO.s:185    .text.LCD_WR_Queue:0000000000000014 .L0 
/var/folders/rt/4gvqv631095f64jvm7jfj_000000gn/T//cc1i8NTO.s:187    .text.LCD_WR_Queue:0000000000000018 .L0 
/var/folders/rt/4gvqv631095f64jvm7jfj_000000gn/T//cc1i8NTO.s:188    .text.LCD_WR_Queue:0000000000000018 .L0 
/var/folders/rt/4gvqv631095f64jvm7jfj_000000gn/T//cc1i8NTO.s:190    .text.LCD_WR_Queue:0000000000000018 .L0 
/var/folders/rt/4gvqv631095f64jvm7jfj_000000gn/T//cc1i8NTO.s:192    .text.LCD_WR_Queue:000000000000001c .L0 
/var/folders/rt/4gvqv631095f64jvm7jfj_000000gn/T//cc1i8NTO.s:193    .text.LCD_WR_Queue:000000000000001c .L0 
/var/folders/rt/4gvqv631095f64jvm7jfj_000000gn/T//cc1i8NTO.s:199    .text.LCD_WR_Queue:000000000000002e .L0 
/var/folders/rt/4gvqv631095f64jvm7jfj_000000gn/T//cc1i8NTO.s:203    .text.LCD_WR_Queue:0000000000000030 .L0 
/var/folders/rt/4gvqv631095f64jvm7jfj_000000gn/T//cc1i8NTO.s:209    .text.LCD_WR_Queue:0000000000000042 .L0 
/var/folders/rt/4gvqv631095f64jvm7jfj_000000gn/T//cc1i8NTO.s:210    .text.LCD_WR_Queue:0000000000000042 .L0 
/var/folders/rt/4gvqv631095f64jvm7jfj_000000gn/T//cc1i8NTO.s:211    .text.LCD_WR_Queue:0000000000000042 .L0 
/var/folders/rt/4gvqv631095f64jvm7jfj_000000gn/T//cc1i8NTO.s:217    .text.LCD_WR_Queue:0000000000000050 .L0 
/var/folders/rt/4gvqv631095f64jvm7jfj_000000gn/T//cc1i8NTO.s:221    .text.LCD_WR_Queue:000000000000005a .L0 
/var/folders/rt/4gvqv631095f64jvm7jfj_000000gn/T//cc1i8NTO.s:224    .text.LCD_WR_Queue:0000000000000060 .L0 
/var/folders/rt/4gvqv631095f64jvm7jfj_000000gn/T//cc1i8NTO.s:226    .text.LCD_WR_Queue:0000000000000064 .L0 
/var/folders/rt/4gvqv631095f64jvm7jfj_000000gn/T//cc1i8NTO.s:230    .text.LCD_WR_Queue:000000000000006c .L0 
/var/folders/rt/4gvqv631095f64jvm7jfj_000000gn/T//cc1i8NTO.s:231    .text.LCD_WR_Queue:000000000000006c .L0 
/var/folders/rt/4gvqv631095f64jvm7jfj_000000gn/T//cc1i8NTO.s:233    .text.LCD_WR_Queue:000000000000006e .L0 
/var/folders/rt/4gvqv631095f64jvm7jfj_000000gn/T//cc1i8NTO.s:236    .text.LCD_WR_Queue:0000000000000076 .L0 
/var/folders/rt/4gvqv631095f64jvm7jfj_000000gn/T//cc1i8NTO.s:238    .text.LCD_WR_Queue:000000000000007a .L0 
/var/folders/rt/4gvqv631095f64jvm7jfj_000000gn/T//cc1i8NTO.s:241    .text.LCD_WR_Queue:000000000000007e .L0 
/var/folders/rt/4gvqv631095f64jvm7jfj_000000gn/T//cc1i8NTO.s:243    .text.LCD_WR_Queue:0000000000000082 .L0 
/var/folders/rt/4gvqv631095f64jvm7jfj_000000gn/T//cc1i8NTO.s:245    .text.LCD_WR_Queue:0000000000000084 .L0 
/var/folders/rt/4gvqv631095f64jvm7jfj_000000gn/T//cc1i8NTO.s:248    .text.LCD_WR_Queue:000000000000008c .L0 
/var/folders/rt/4gvqv631095f64jvm7jfj_000000gn/T//cc1i8NTO.s:249    .text.LCD_WR_Queue:000000000000008c .L0 
/var/folders/rt/4gvqv631095f64jvm7jfj_000000gn/T//cc1i8NTO.s:257    .text.LCD_WR_Queue:0000000000000098 .L0 
/var/folders/rt/4gvqv631095f64jvm7jfj_000000gn/T//cc1i8NTO.s:258    .text.LCD_WR_Queue:000000000000009a .L0 
/var/folders/rt/4gvqv631095f64jvm7jfj_000000gn/T//cc1i8NTO.s:259    .text.LCD_WR_Queue:000000000000009a .L0 
/var/folders/rt/4gvqv631095f64jvm7jfj_000000gn/T//cc1i8NTO.s:261    .text.LCD_WR_Queue:000000000000009c .L0 
/var/folders/rt/4gvqv631095f64jvm7jfj_000000gn/T//cc1i8NTO.s:263    .text.LCD_WR_Queue:000000000000009e .L0 
/var/folders/rt/4gvqv631095f64jvm7jfj_000000gn/T//cc1i8NTO.s:266    .text.LCD_WR_Queue:00000000000000a0 .L0 
/var/folders/rt/4gvqv631095f64jvm7jfj_000000gn/T//cc1i8NTO.s:270    .text.LCD_WR_Queue:00000000000000a2 .L0 
/var/folders/rt/4gvqv631095f64jvm7jfj_000000gn/T//cc1i8NTO.s:274    .text.LCD_WR_Queue:00000000000000a2 .L0 
/var/folders/rt/4gvqv631095f64jvm7jfj_000000gn/T//cc1i8NTO.s:281    .text.LCD_WR_Queue:00000000000000ac .L0 
/var/folders/rt/4gvqv631095f64jvm7jfj_000000gn/T//cc1i8NTO.s:282    .text.LCD_WR_Queue:00000000000000ac .L0 
/var/folders/rt/4gvqv631095f64jvm7jfj_000000gn/T//cc1i8NTO.s:283    .text.LCD_WR_Queue:00000000000000ae .L0 
/var/folders/rt/4gvqv631095f64jvm7jfj_000000gn/T//cc1i8NTO.s:285    .text.LCD_WR_Queue:00000000000000b0 .L0 
/var/folders/rt/4gvqv631095f64jvm7jfj_000000gn/T//cc1i8NTO.s:287    .text.LCD_WR_Queue:00000000000000b2 .L0 
/var/folders/rt/4gvqv631095f64jvm7jfj_000000gn/T//cc1i8NTO.s:289    .text.LCD_WR_Queue:00000000000000b2 .L0 
/var/folders/rt/4gvqv631095f64jvm7jfj_000000gn/T//cc1i8NTO.s:291    .text.LCD_WR_Queue:00000000000000b4 .L0 
/var/folders/rt/4gvqv631095f64jvm7jfj_000000gn/T//cc1i8NTO.s:292    .text.LCD_WR_Queue:00000000000000b4 .L0 
/var/folders/rt/4gvqv631095f64jvm7jfj_000000gn/T//cc1i8NTO.s:294    .text.LCD_WR_Queue:00000000000000b8 .L0 
/var/folders/rt/4gvqv631095f64jvm7jfj_000000gn/T//cc1i8NTO.s:296    .text.LCD_WR_Queue:00000000000000ba .L0 
/var/folders/rt/4gvqv631095f64jvm7jfj_000000gn/T//cc1i8NTO.s:298    .text.LCD_WR_Queue:00000000000000ba .L0 
/var/folders/rt/4gvqv631095f64jvm7jfj_000000gn/T//cc1i8NTO.s:300    .text.LCD_WR_Queue:00000000000000c2 .L0 
/var/folders/rt/4gvqv631095f64jvm7jfj_000000gn/T//cc1i8NTO.s:307    .text.LCD_Wait_On_Queue:0000000000000000 LCD_Wait_On_Queue
/var/folders/rt/4gvqv631095f64jvm7jfj_000000gn/T//cc1i8NTO.s:310    .text.LCD_Wait_On_Queue:0000000000000000 .L0 
/var/folders/rt/4gvqv631095f64jvm7jfj_000000gn/T//cc1i8NTO.s:311    .text.LCD_Wait_On_Queue:0000000000000000 .L0 
/var/folders/rt/4gvqv631095f64jvm7jfj_000000gn/T//cc1i8NTO.s:312    .text.LCD_Wait_On_Queue:0000000000000000 .L0 
/var/folders/rt/4gvqv631095f64jvm7jfj_000000gn/T//cc1i8NTO.s:313    .text.LCD_Wait_On_Queue:0000000000000000 .L0 
/var/folders/rt/4gvqv631095f64jvm7jfj_000000gn/T//cc1i8NTO.s:315    .text.LCD_Wait_On_Queue:0000000000000002 .L0 
GAS LISTING /var/folders/rt/4gvqv631095f64jvm7jfj_000000gn/T//cc1i8NTO.s 			page 128


/var/folders/rt/4gvqv631095f64jvm7jfj_000000gn/T//cc1i8NTO.s:319    .text.LCD_Wait_On_Queue:0000000000000008 .L0 
/var/folders/rt/4gvqv631095f64jvm7jfj_000000gn/T//cc1i8NTO.s:320    .text.LCD_Wait_On_Queue:0000000000000008 .L0 
/var/folders/rt/4gvqv631095f64jvm7jfj_000000gn/T//cc1i8NTO.s:321    .text.LCD_Wait_On_Queue:0000000000000008 .L0 
/var/folders/rt/4gvqv631095f64jvm7jfj_000000gn/T//cc1i8NTO.s:323    .text.LCD_Wait_On_Queue:0000000000000008 .L0 
/var/folders/rt/4gvqv631095f64jvm7jfj_000000gn/T//cc1i8NTO.s:327    .text.LCD_Wait_On_Queue:0000000000000010 .L0 
/var/folders/rt/4gvqv631095f64jvm7jfj_000000gn/T//cc1i8NTO.s:331    .text.LCD_Wait_On_Queue:000000000000001c .L0 
/var/folders/rt/4gvqv631095f64jvm7jfj_000000gn/T//cc1i8NTO.s:332    .text.LCD_Wait_On_Queue:000000000000001e .L0 
/var/folders/rt/4gvqv631095f64jvm7jfj_000000gn/T//cc1i8NTO.s:333    .text.LCD_Wait_On_Queue:000000000000001e .L0 
/var/folders/rt/4gvqv631095f64jvm7jfj_000000gn/T//cc1i8NTO.s:335    .text.LCD_Wait_On_Queue:0000000000000020 .L0 
/var/folders/rt/4gvqv631095f64jvm7jfj_000000gn/T//cc1i8NTO.s:337    .text.LCD_Wait_On_Queue:0000000000000022 .L0 
/var/folders/rt/4gvqv631095f64jvm7jfj_000000gn/T//cc1i8NTO.s:340    .text.LCD_Wait_On_Queue:0000000000000024 .L0 
/var/folders/rt/4gvqv631095f64jvm7jfj_000000gn/T//cc1i8NTO.s:344    .text.LCD_Wait_On_Queue:0000000000000026 .L0 
/var/folders/rt/4gvqv631095f64jvm7jfj_000000gn/T//cc1i8NTO.s:346    .text.LCD_Wait_On_Queue:0000000000000026 .L0 
/var/folders/rt/4gvqv631095f64jvm7jfj_000000gn/T//cc1i8NTO.s:349    .text.LCD_Wait_On_Queue:0000000000000030 .L0 
/var/folders/rt/4gvqv631095f64jvm7jfj_000000gn/T//cc1i8NTO.s:356    .text.is_LCD_queue_empy:0000000000000000 is_LCD_queue_empy
/var/folders/rt/4gvqv631095f64jvm7jfj_000000gn/T//cc1i8NTO.s:359    .text.is_LCD_queue_empy:0000000000000000 .L0 
/var/folders/rt/4gvqv631095f64jvm7jfj_000000gn/T//cc1i8NTO.s:360    .text.is_LCD_queue_empy:0000000000000000 .L0 
/var/folders/rt/4gvqv631095f64jvm7jfj_000000gn/T//cc1i8NTO.s:361    .text.is_LCD_queue_empy:0000000000000000 .L0 
/var/folders/rt/4gvqv631095f64jvm7jfj_000000gn/T//cc1i8NTO.s:362    .text.is_LCD_queue_empy:0000000000000000 .L0 
/var/folders/rt/4gvqv631095f64jvm7jfj_000000gn/T//cc1i8NTO.s:368    .text.is_LCD_queue_empy:0000000000000012 .L0 
/var/folders/rt/4gvqv631095f64jvm7jfj_000000gn/T//cc1i8NTO.s:370    .text.is_LCD_queue_empy:0000000000000018 .L0 
/var/folders/rt/4gvqv631095f64jvm7jfj_000000gn/T//cc1i8NTO.s:377    .text.LCD_Write_Bus:0000000000000000 LCD_Write_Bus
/var/folders/rt/4gvqv631095f64jvm7jfj_000000gn/T//cc1i8NTO.s:380    .text.LCD_Write_Bus:0000000000000000 .L0 
/var/folders/rt/4gvqv631095f64jvm7jfj_000000gn/T//cc1i8NTO.s:382    .text.LCD_Write_Bus:0000000000000000 .L0 
/var/folders/rt/4gvqv631095f64jvm7jfj_000000gn/T//cc1i8NTO.s:383    .text.LCD_Write_Bus:0000000000000000 .L0 
/var/folders/rt/4gvqv631095f64jvm7jfj_000000gn/T//cc1i8NTO.s:384    .text.LCD_Write_Bus:0000000000000000 .L0 
/var/folders/rt/4gvqv631095f64jvm7jfj_000000gn/T//cc1i8NTO.s:386    .text.LCD_Write_Bus:0000000000000002 .L0 
/var/folders/rt/4gvqv631095f64jvm7jfj_000000gn/T//cc1i8NTO.s:391    .text.LCD_Write_Bus:000000000000000a .L0 
/var/folders/rt/4gvqv631095f64jvm7jfj_000000gn/T//cc1i8NTO.s:392    .text.LCD_Write_Bus:000000000000000a .L0 
/var/folders/rt/4gvqv631095f64jvm7jfj_000000gn/T//cc1i8NTO.s:393    .text.LCD_Write_Bus:000000000000000a .L0 
/var/folders/rt/4gvqv631095f64jvm7jfj_000000gn/T//cc1i8NTO.s:394    .text.LCD_Write_Bus:000000000000000a .L0 
/var/folders/rt/4gvqv631095f64jvm7jfj_000000gn/T//cc1i8NTO.s:396    .text.LCD_Write_Bus:000000000000000a .L0 
/var/folders/rt/4gvqv631095f64jvm7jfj_000000gn/T//cc1i8NTO.s:398    .text.LCD_Write_Bus:000000000000000e .L0 
/var/folders/rt/4gvqv631095f64jvm7jfj_000000gn/T//cc1i8NTO.s:400    .text.LCD_Write_Bus:0000000000000012 .L0 
/var/folders/rt/4gvqv631095f64jvm7jfj_000000gn/T//cc1i8NTO.s:404    .text.LCD_Write_Bus:0000000000000016 .L0 
/var/folders/rt/4gvqv631095f64jvm7jfj_000000gn/T//cc1i8NTO.s:407    .text.LCD_Write_Bus:000000000000001c .L0 
/var/folders/rt/4gvqv631095f64jvm7jfj_000000gn/T//cc1i8NTO.s:409    .text.LCD_Write_Bus:0000000000000020 .L0 
/var/folders/rt/4gvqv631095f64jvm7jfj_000000gn/T//cc1i8NTO.s:411    .text.LCD_Write_Bus:0000000000000024 .L0 
/var/folders/rt/4gvqv631095f64jvm7jfj_000000gn/T//cc1i8NTO.s:413    .text.LCD_Write_Bus:0000000000000028 .L0 
/var/folders/rt/4gvqv631095f64jvm7jfj_000000gn/T//cc1i8NTO.s:415    .text.LCD_Write_Bus:000000000000002c .L0 
/var/folders/rt/4gvqv631095f64jvm7jfj_000000gn/T//cc1i8NTO.s:416    .text.LCD_Write_Bus:000000000000002c .L0 
/var/folders/rt/4gvqv631095f64jvm7jfj_000000gn/T//cc1i8NTO.s:419    .text.LCD_Write_Bus:0000000000000034 .L0 
/var/folders/rt/4gvqv631095f64jvm7jfj_000000gn/T//cc1i8NTO.s:420    .text.LCD_Write_Bus:0000000000000036 .L0 
/var/folders/rt/4gvqv631095f64jvm7jfj_000000gn/T//cc1i8NTO.s:421    .text.LCD_Write_Bus:0000000000000036 .L0 
/var/folders/rt/4gvqv631095f64jvm7jfj_000000gn/T//cc1i8NTO.s:423    .text.LCD_Write_Bus:0000000000000038 .L0 
/var/folders/rt/4gvqv631095f64jvm7jfj_000000gn/T//cc1i8NTO.s:425    .text.LCD_Write_Bus:0000000000000038 .L0 
/var/folders/rt/4gvqv631095f64jvm7jfj_000000gn/T//cc1i8NTO.s:429    .text.LCD_Write_Bus:0000000000000040 .L0 
/var/folders/rt/4gvqv631095f64jvm7jfj_000000gn/T//cc1i8NTO.s:430    .text.LCD_Write_Bus:0000000000000040 .L0 
/var/folders/rt/4gvqv631095f64jvm7jfj_000000gn/T//cc1i8NTO.s:432    .text.LCD_Write_Bus:0000000000000042 .L0 
/var/folders/rt/4gvqv631095f64jvm7jfj_000000gn/T//cc1i8NTO.s:433    .text.LCD_Write_Bus:0000000000000044 .L0 
/var/folders/rt/4gvqv631095f64jvm7jfj_000000gn/T//cc1i8NTO.s:435    .text.LCD_Write_Bus:0000000000000046 .L0 
/var/folders/rt/4gvqv631095f64jvm7jfj_000000gn/T//cc1i8NTO.s:438    .text.LCD_Write_Bus:0000000000000048 .L0 
/var/folders/rt/4gvqv631095f64jvm7jfj_000000gn/T//cc1i8NTO.s:442    .text.LCD_Write_Bus:000000000000004a .L0 
/var/folders/rt/4gvqv631095f64jvm7jfj_000000gn/T//cc1i8NTO.s:445    .text.LCD_Write_Bus:000000000000004c .L0 
/var/folders/rt/4gvqv631095f64jvm7jfj_000000gn/T//cc1i8NTO.s:449    .text.LCD_Write_Bus:0000000000000058 .L0 
/var/folders/rt/4gvqv631095f64jvm7jfj_000000gn/T//cc1i8NTO.s:456    .text.LCD_Writ_Bus:0000000000000000 LCD_Writ_Bus
/var/folders/rt/4gvqv631095f64jvm7jfj_000000gn/T//cc1i8NTO.s:459    .text.LCD_Writ_Bus:0000000000000000 .L0 
GAS LISTING /var/folders/rt/4gvqv631095f64jvm7jfj_000000gn/T//cc1i8NTO.s 			page 129


/var/folders/rt/4gvqv631095f64jvm7jfj_000000gn/T//cc1i8NTO.s:461    .text.LCD_Writ_Bus:0000000000000000 .L0 
/var/folders/rt/4gvqv631095f64jvm7jfj_000000gn/T//cc1i8NTO.s:462    .text.LCD_Writ_Bus:0000000000000000 .L0 
/var/folders/rt/4gvqv631095f64jvm7jfj_000000gn/T//cc1i8NTO.s:463    .text.LCD_Writ_Bus:0000000000000000 .L0 
/var/folders/rt/4gvqv631095f64jvm7jfj_000000gn/T//cc1i8NTO.s:465    .text.LCD_Writ_Bus:0000000000000002 .L0 
/var/folders/rt/4gvqv631095f64jvm7jfj_000000gn/T//cc1i8NTO.s:469    .text.LCD_Writ_Bus:0000000000000006 .L0 
/var/folders/rt/4gvqv631095f64jvm7jfj_000000gn/T//cc1i8NTO.s:470    .text.LCD_Writ_Bus:0000000000000008 .L0 
/var/folders/rt/4gvqv631095f64jvm7jfj_000000gn/T//cc1i8NTO.s:471    .text.LCD_Writ_Bus:0000000000000008 .L0 
/var/folders/rt/4gvqv631095f64jvm7jfj_000000gn/T//cc1i8NTO.s:473    .text.LCD_Writ_Bus:0000000000000008 .L0 
/var/folders/rt/4gvqv631095f64jvm7jfj_000000gn/T//cc1i8NTO.s:475    .text.LCD_Writ_Bus:000000000000000a .L0 
/var/folders/rt/4gvqv631095f64jvm7jfj_000000gn/T//cc1i8NTO.s:477    .text.LCD_Writ_Bus:000000000000000e .L0 
/var/folders/rt/4gvqv631095f64jvm7jfj_000000gn/T//cc1i8NTO.s:480    .text.LCD_Writ_Bus:0000000000000012 .L0 
/var/folders/rt/4gvqv631095f64jvm7jfj_000000gn/T//cc1i8NTO.s:482    .text.LCD_Writ_Bus:0000000000000016 .L0 
/var/folders/rt/4gvqv631095f64jvm7jfj_000000gn/T//cc1i8NTO.s:483    .text.LCD_Writ_Bus:0000000000000016 .L0 
/var/folders/rt/4gvqv631095f64jvm7jfj_000000gn/T//cc1i8NTO.s:485    .text.LCD_Writ_Bus:0000000000000016 .L0 
/var/folders/rt/4gvqv631095f64jvm7jfj_000000gn/T//cc1i8NTO.s:487    .text.LCD_Writ_Bus:000000000000001a .L0 
/var/folders/rt/4gvqv631095f64jvm7jfj_000000gn/T//cc1i8NTO.s:491    .text.LCD_Writ_Bus:0000000000000022 .L0 
/var/folders/rt/4gvqv631095f64jvm7jfj_000000gn/T//cc1i8NTO.s:492    .text.LCD_Writ_Bus:0000000000000022 .L0 
/var/folders/rt/4gvqv631095f64jvm7jfj_000000gn/T//cc1i8NTO.s:493    .text.LCD_Writ_Bus:0000000000000022 .L0 
/var/folders/rt/4gvqv631095f64jvm7jfj_000000gn/T//cc1i8NTO.s:498    .text.LCD_Writ_Bus:000000000000002e .L0 
/var/folders/rt/4gvqv631095f64jvm7jfj_000000gn/T//cc1i8NTO.s:500    .text.LCD_Writ_Bus:0000000000000030 .L0 
/var/folders/rt/4gvqv631095f64jvm7jfj_000000gn/T//cc1i8NTO.s:503    .text.LCD_Writ_Bus:0000000000000036 .L0 
/var/folders/rt/4gvqv631095f64jvm7jfj_000000gn/T//cc1i8NTO.s:505    .text.LCD_Writ_Bus:000000000000003a .L0 
/var/folders/rt/4gvqv631095f64jvm7jfj_000000gn/T//cc1i8NTO.s:508    .text.LCD_Writ_Bus:0000000000000042 .L0 
/var/folders/rt/4gvqv631095f64jvm7jfj_000000gn/T//cc1i8NTO.s:509    .text.LCD_Writ_Bus:0000000000000042 .L0 
/var/folders/rt/4gvqv631095f64jvm7jfj_000000gn/T//cc1i8NTO.s:512    .text.LCD_Writ_Bus:0000000000000046 .L0 
/var/folders/rt/4gvqv631095f64jvm7jfj_000000gn/T//cc1i8NTO.s:513    .text.LCD_Writ_Bus:0000000000000046 .L0 
/var/folders/rt/4gvqv631095f64jvm7jfj_000000gn/T//cc1i8NTO.s:518    .text.LCD_Writ_Bus:0000000000000052 .L0 
/var/folders/rt/4gvqv631095f64jvm7jfj_000000gn/T//cc1i8NTO.s:520    .text.LCD_Writ_Bus:0000000000000054 .L0 
/var/folders/rt/4gvqv631095f64jvm7jfj_000000gn/T//cc1i8NTO.s:524    .text.LCD_Writ_Bus:0000000000000060 .L0 
/var/folders/rt/4gvqv631095f64jvm7jfj_000000gn/T//cc1i8NTO.s:525    .text.LCD_Writ_Bus:0000000000000060 .L0 
/var/folders/rt/4gvqv631095f64jvm7jfj_000000gn/T//cc1i8NTO.s:526    .text.LCD_Writ_Bus:0000000000000062 .L0 
/var/folders/rt/4gvqv631095f64jvm7jfj_000000gn/T//cc1i8NTO.s:528    .text.LCD_Writ_Bus:0000000000000064 .L0 
/var/folders/rt/4gvqv631095f64jvm7jfj_000000gn/T//cc1i8NTO.s:530    .text.LCD_Writ_Bus:0000000000000066 .L0 
/var/folders/rt/4gvqv631095f64jvm7jfj_000000gn/T//cc1i8NTO.s:532    .text.LCD_Writ_Bus:0000000000000068 .L0 
/var/folders/rt/4gvqv631095f64jvm7jfj_000000gn/T//cc1i8NTO.s:534    .text.LCD_Writ_Bus:0000000000000068 .L0 
/var/folders/rt/4gvqv631095f64jvm7jfj_000000gn/T//cc1i8NTO.s:536    .text.LCD_Writ_Bus:000000000000006a .L0 
/var/folders/rt/4gvqv631095f64jvm7jfj_000000gn/T//cc1i8NTO.s:537    .text.LCD_Writ_Bus:000000000000006a .L0 
/var/folders/rt/4gvqv631095f64jvm7jfj_000000gn/T//cc1i8NTO.s:539    .text.LCD_Writ_Bus:000000000000006e .L0 
/var/folders/rt/4gvqv631095f64jvm7jfj_000000gn/T//cc1i8NTO.s:541    .text.LCD_Writ_Bus:0000000000000070 .L0 
/var/folders/rt/4gvqv631095f64jvm7jfj_000000gn/T//cc1i8NTO.s:543    .text.LCD_Writ_Bus:0000000000000070 .L0 
/var/folders/rt/4gvqv631095f64jvm7jfj_000000gn/T//cc1i8NTO.s:545    .text.LCD_Writ_Bus:0000000000000078 .L0 
/var/folders/rt/4gvqv631095f64jvm7jfj_000000gn/T//cc1i8NTO.s:552    .text.LCD_WR_DATA8:0000000000000000 LCD_WR_DATA8
/var/folders/rt/4gvqv631095f64jvm7jfj_000000gn/T//cc1i8NTO.s:555    .text.LCD_WR_DATA8:0000000000000000 .L0 
/var/folders/rt/4gvqv631095f64jvm7jfj_000000gn/T//cc1i8NTO.s:557    .text.LCD_WR_DATA8:0000000000000000 .L0 
/var/folders/rt/4gvqv631095f64jvm7jfj_000000gn/T//cc1i8NTO.s:558    .text.LCD_WR_DATA8:0000000000000000 .L0 
/var/folders/rt/4gvqv631095f64jvm7jfj_000000gn/T//cc1i8NTO.s:562    .text.LCD_WR_DATA8:000000000000000c .L0 
/var/folders/rt/4gvqv631095f64jvm7jfj_000000gn/T//cc1i8NTO.s:569    .text.LCD_WR_DATA:0000000000000000 LCD_WR_DATA
/var/folders/rt/4gvqv631095f64jvm7jfj_000000gn/T//cc1i8NTO.s:572    .text.LCD_WR_DATA:0000000000000000 .L0 
/var/folders/rt/4gvqv631095f64jvm7jfj_000000gn/T//cc1i8NTO.s:574    .text.LCD_WR_DATA:0000000000000000 .L0 
/var/folders/rt/4gvqv631095f64jvm7jfj_000000gn/T//cc1i8NTO.s:575    .text.LCD_WR_DATA:0000000000000000 .L0 
/var/folders/rt/4gvqv631095f64jvm7jfj_000000gn/T//cc1i8NTO.s:576    .text.LCD_WR_DATA:0000000000000000 .L0 
/var/folders/rt/4gvqv631095f64jvm7jfj_000000gn/T//cc1i8NTO.s:578    .text.LCD_WR_DATA:0000000000000002 .L0 
/var/folders/rt/4gvqv631095f64jvm7jfj_000000gn/T//cc1i8NTO.s:580    .text.LCD_WR_DATA:0000000000000004 .L0 
/var/folders/rt/4gvqv631095f64jvm7jfj_000000gn/T//cc1i8NTO.s:583    .text.LCD_WR_DATA:0000000000000006 .L0 
/var/folders/rt/4gvqv631095f64jvm7jfj_000000gn/T//cc1i8NTO.s:586    .text.LCD_WR_DATA:0000000000000008 .L0 
/var/folders/rt/4gvqv631095f64jvm7jfj_000000gn/T//cc1i8NTO.s:588    .text.LCD_WR_DATA:000000000000000c .L0 
/var/folders/rt/4gvqv631095f64jvm7jfj_000000gn/T//cc1i8NTO.s:589    .text.LCD_WR_DATA:000000000000000e .L0 
GAS LISTING /var/folders/rt/4gvqv631095f64jvm7jfj_000000gn/T//cc1i8NTO.s 			page 130


/var/folders/rt/4gvqv631095f64jvm7jfj_000000gn/T//cc1i8NTO.s:591    .text.LCD_WR_DATA:000000000000000e .L0 
/var/folders/rt/4gvqv631095f64jvm7jfj_000000gn/T//cc1i8NTO.s:594    .text.LCD_WR_DATA:0000000000000016 .L0 
/var/folders/rt/4gvqv631095f64jvm7jfj_000000gn/T//cc1i8NTO.s:595    .text.LCD_WR_DATA:0000000000000016 .L0 
/var/folders/rt/4gvqv631095f64jvm7jfj_000000gn/T//cc1i8NTO.s:597    .text.LCD_WR_DATA:000000000000001a .L0 
/var/folders/rt/4gvqv631095f64jvm7jfj_000000gn/T//cc1i8NTO.s:598    .text.LCD_WR_DATA:000000000000001c .L0 
/var/folders/rt/4gvqv631095f64jvm7jfj_000000gn/T//cc1i8NTO.s:601    .text.LCD_WR_DATA:000000000000001e .L0 
/var/folders/rt/4gvqv631095f64jvm7jfj_000000gn/T//cc1i8NTO.s:603    .text.LCD_WR_DATA:000000000000001e .L0 
/var/folders/rt/4gvqv631095f64jvm7jfj_000000gn/T//cc1i8NTO.s:605    .text.LCD_WR_DATA:0000000000000022 .L0 
/var/folders/rt/4gvqv631095f64jvm7jfj_000000gn/T//cc1i8NTO.s:607    .text.LCD_WR_DATA:0000000000000024 .L0 
/var/folders/rt/4gvqv631095f64jvm7jfj_000000gn/T//cc1i8NTO.s:609    .text.LCD_WR_DATA:0000000000000024 .L0 
/var/folders/rt/4gvqv631095f64jvm7jfj_000000gn/T//cc1i8NTO.s:611    .text.LCD_WR_DATA:000000000000002c .L0 
/var/folders/rt/4gvqv631095f64jvm7jfj_000000gn/T//cc1i8NTO.s:618    .text.LCD_WR_REG:0000000000000000 LCD_WR_REG
/var/folders/rt/4gvqv631095f64jvm7jfj_000000gn/T//cc1i8NTO.s:621    .text.LCD_WR_REG:0000000000000000 .L0 
/var/folders/rt/4gvqv631095f64jvm7jfj_000000gn/T//cc1i8NTO.s:623    .text.LCD_WR_REG:0000000000000000 .L0 
/var/folders/rt/4gvqv631095f64jvm7jfj_000000gn/T//cc1i8NTO.s:624    .text.LCD_WR_REG:0000000000000000 .L0 
/var/folders/rt/4gvqv631095f64jvm7jfj_000000gn/T//cc1i8NTO.s:626    .text.LCD_WR_REG:0000000000000008 .L0 
/var/folders/rt/4gvqv631095f64jvm7jfj_000000gn/T//cc1i8NTO.s:633    .text.LCD_Address_Set:0000000000000000 LCD_Address_Set
/var/folders/rt/4gvqv631095f64jvm7jfj_000000gn/T//cc1i8NTO.s:636    .text.LCD_Address_Set:0000000000000000 .L0 
/var/folders/rt/4gvqv631095f64jvm7jfj_000000gn/T//cc1i8NTO.s:638    .text.LCD_Address_Set:0000000000000000 .L0 
/var/folders/rt/4gvqv631095f64jvm7jfj_000000gn/T//cc1i8NTO.s:639    .text.LCD_Address_Set:0000000000000000 .L0 
/var/folders/rt/4gvqv631095f64jvm7jfj_000000gn/T//cc1i8NTO.s:640    .text.LCD_Address_Set:0000000000000000 .L0 
/var/folders/rt/4gvqv631095f64jvm7jfj_000000gn/T//cc1i8NTO.s:642    .text.LCD_Address_Set:0000000000000002 .L0 
/var/folders/rt/4gvqv631095f64jvm7jfj_000000gn/T//cc1i8NTO.s:644    .text.LCD_Address_Set:0000000000000004 .L0 
/var/folders/rt/4gvqv631095f64jvm7jfj_000000gn/T//cc1i8NTO.s:646    .text.LCD_Address_Set:0000000000000004 .L0 
/var/folders/rt/4gvqv631095f64jvm7jfj_000000gn/T//cc1i8NTO.s:648    .text.LCD_Address_Set:0000000000000008 .L0 
/var/folders/rt/4gvqv631095f64jvm7jfj_000000gn/T//cc1i8NTO.s:650    .text.LCD_Address_Set:000000000000000a .L0 
/var/folders/rt/4gvqv631095f64jvm7jfj_000000gn/T//cc1i8NTO.s:652    .text.LCD_Address_Set:0000000000000010 .L0 
/var/folders/rt/4gvqv631095f64jvm7jfj_000000gn/T//cc1i8NTO.s:654    .text.LCD_Address_Set:0000000000000010 .L0 
/var/folders/rt/4gvqv631095f64jvm7jfj_000000gn/T//cc1i8NTO.s:658    .text.LCD_Address_Set:0000000000000012 .L0 
/var/folders/rt/4gvqv631095f64jvm7jfj_000000gn/T//cc1i8NTO.s:663    .text.LCD_Address_Set:0000000000000016 .L0 
/var/folders/rt/4gvqv631095f64jvm7jfj_000000gn/T//cc1i8NTO.s:664    .text.LCD_Address_Set:0000000000000018 .L0 
/var/folders/rt/4gvqv631095f64jvm7jfj_000000gn/T//cc1i8NTO.s:666    .text.LCD_Address_Set:0000000000000018 .L0 
/var/folders/rt/4gvqv631095f64jvm7jfj_000000gn/T//cc1i8NTO.s:668    .text.LCD_Address_Set:000000000000001a .L0 
/var/folders/rt/4gvqv631095f64jvm7jfj_000000gn/T//cc1i8NTO.s:673    .text.LCD_Address_Set:000000000000001e .L0 
/var/folders/rt/4gvqv631095f64jvm7jfj_000000gn/T//cc1i8NTO.s:676    .text.LCD_Address_Set:000000000000001e .L0 
/var/folders/rt/4gvqv631095f64jvm7jfj_000000gn/T//cc1i8NTO.s:677    .text.LCD_Address_Set:000000000000001e .L0 
/var/folders/rt/4gvqv631095f64jvm7jfj_000000gn/T//cc1i8NTO.s:682    .text.LCD_Address_Set:0000000000000022 .L0 
/var/folders/rt/4gvqv631095f64jvm7jfj_000000gn/T//cc1i8NTO.s:687    .text.LCD_Address_Set:000000000000002a .L0 
/var/folders/rt/4gvqv631095f64jvm7jfj_000000gn/T//cc1i8NTO.s:688    .text.LCD_Address_Set:000000000000002a .L0 
/var/folders/rt/4gvqv631095f64jvm7jfj_000000gn/T//cc1i8NTO.s:690    .text.LCD_Address_Set:000000000000002e .L0 
/var/folders/rt/4gvqv631095f64jvm7jfj_000000gn/T//cc1i8NTO.s:694    .text.LCD_Address_Set:0000000000000038 .L0 
/var/folders/rt/4gvqv631095f64jvm7jfj_000000gn/T//cc1i8NTO.s:696    .text.LCD_Address_Set:000000000000003a .L0 
/var/folders/rt/4gvqv631095f64jvm7jfj_000000gn/T//cc1i8NTO.s:698    .text.LCD_Address_Set:000000000000003e .L0 
/var/folders/rt/4gvqv631095f64jvm7jfj_000000gn/T//cc1i8NTO.s:704    .text.LCD_Address_Set:0000000000000048 .L0 
/var/folders/rt/4gvqv631095f64jvm7jfj_000000gn/T//cc1i8NTO.s:705    .text.LCD_Address_Set:0000000000000048 .L0 
/var/folders/rt/4gvqv631095f64jvm7jfj_000000gn/T//cc1i8NTO.s:711    .text.LCD_Address_Set:0000000000000054 .L0 
/var/folders/rt/4gvqv631095f64jvm7jfj_000000gn/T//cc1i8NTO.s:713    .text.LCD_Address_Set:0000000000000056 .L0 
/var/folders/rt/4gvqv631095f64jvm7jfj_000000gn/T//cc1i8NTO.s:715    .text.LCD_Address_Set:000000000000005a .L0 
/var/folders/rt/4gvqv631095f64jvm7jfj_000000gn/T//cc1i8NTO.s:719    .text.LCD_Address_Set:0000000000000064 .L0 
/var/folders/rt/4gvqv631095f64jvm7jfj_000000gn/T//cc1i8NTO.s:720    .text.LCD_Address_Set:0000000000000064 .L0 
/var/folders/rt/4gvqv631095f64jvm7jfj_000000gn/T//cc1i8NTO.s:722    .text.LCD_Address_Set:0000000000000068 .L0 
/var/folders/rt/4gvqv631095f64jvm7jfj_000000gn/T//cc1i8NTO.s:729    .text.LCD_Address_Set:0000000000000074 .L0 
/var/folders/rt/4gvqv631095f64jvm7jfj_000000gn/T//cc1i8NTO.s:732    .text.LCD_Address_Set:0000000000000074 .L0 
/var/folders/rt/4gvqv631095f64jvm7jfj_000000gn/T//cc1i8NTO.s:733    .text.LCD_Address_Set:0000000000000074 .L0 
/var/folders/rt/4gvqv631095f64jvm7jfj_000000gn/T//cc1i8NTO.s:734    .text.LCD_Address_Set:0000000000000076 .L0 
/var/folders/rt/4gvqv631095f64jvm7jfj_000000gn/T//cc1i8NTO.s:736    .text.LCD_Address_Set:0000000000000078 .L0 
/var/folders/rt/4gvqv631095f64jvm7jfj_000000gn/T//cc1i8NTO.s:738    .text.LCD_Address_Set:000000000000007a .L0 
GAS LISTING /var/folders/rt/4gvqv631095f64jvm7jfj_000000gn/T//cc1i8NTO.s 			page 131


/var/folders/rt/4gvqv631095f64jvm7jfj_000000gn/T//cc1i8NTO.s:743    .text.LCD_Address_Set:000000000000007a .L0 
/var/folders/rt/4gvqv631095f64jvm7jfj_000000gn/T//cc1i8NTO.s:747    .text.LCD_Address_Set:000000000000007e .L0 
/var/folders/rt/4gvqv631095f64jvm7jfj_000000gn/T//cc1i8NTO.s:749    .text.LCD_Address_Set:0000000000000080 .L0 
/var/folders/rt/4gvqv631095f64jvm7jfj_000000gn/T//cc1i8NTO.s:754    .text.LCD_Address_Set:0000000000000080 .L0 
/var/folders/rt/4gvqv631095f64jvm7jfj_000000gn/T//cc1i8NTO.s:758    .text.LCD_Address_Set:0000000000000088 .L0 
/var/folders/rt/4gvqv631095f64jvm7jfj_000000gn/T//cc1i8NTO.s:765    .text.spi_config:0000000000000000 spi_config
/var/folders/rt/4gvqv631095f64jvm7jfj_000000gn/T//cc1i8NTO.s:768    .text.spi_config:0000000000000000 .L0 
/var/folders/rt/4gvqv631095f64jvm7jfj_000000gn/T//cc1i8NTO.s:769    .text.spi_config:0000000000000000 .L0 
/var/folders/rt/4gvqv631095f64jvm7jfj_000000gn/T//cc1i8NTO.s:770    .text.spi_config:0000000000000000 .L0 
/var/folders/rt/4gvqv631095f64jvm7jfj_000000gn/T//cc1i8NTO.s:771    .text.spi_config:0000000000000000 .L0 
/var/folders/rt/4gvqv631095f64jvm7jfj_000000gn/T//cc1i8NTO.s:772    .text.spi_config:0000000000000000 .L0 
/var/folders/rt/4gvqv631095f64jvm7jfj_000000gn/T//cc1i8NTO.s:774    .text.spi_config:0000000000000002 .L0 
/var/folders/rt/4gvqv631095f64jvm7jfj_000000gn/T//cc1i8NTO.s:776    .text.spi_config:0000000000000002 .L0 
/var/folders/rt/4gvqv631095f64jvm7jfj_000000gn/T//cc1i8NTO.s:779    .text.spi_config:0000000000000008 .L0 
/var/folders/rt/4gvqv631095f64jvm7jfj_000000gn/T//cc1i8NTO.s:781    .text.spi_config:000000000000000c .L0 
/var/folders/rt/4gvqv631095f64jvm7jfj_000000gn/T//cc1i8NTO.s:782    .text.spi_config:000000000000000c .L0 
/var/folders/rt/4gvqv631095f64jvm7jfj_000000gn/T//cc1i8NTO.s:784    .text.spi_config:000000000000000c .L0 
/var/folders/rt/4gvqv631095f64jvm7jfj_000000gn/T//cc1i8NTO.s:787    .text.spi_config:0000000000000014 .L0 
/var/folders/rt/4gvqv631095f64jvm7jfj_000000gn/T//cc1i8NTO.s:791    .text.spi_config:000000000000001e .L0 
/var/folders/rt/4gvqv631095f64jvm7jfj_000000gn/T//cc1i8NTO.s:792    .text.spi_config:000000000000001e .L0 
/var/folders/rt/4gvqv631095f64jvm7jfj_000000gn/T//cc1i8NTO.s:795    .text.spi_config:0000000000000024 .L0 
/var/folders/rt/4gvqv631095f64jvm7jfj_000000gn/T//cc1i8NTO.s:798    .text.spi_config:0000000000000028 .L0 
/var/folders/rt/4gvqv631095f64jvm7jfj_000000gn/T//cc1i8NTO.s:800    .text.spi_config:000000000000002c .L0 
/var/folders/rt/4gvqv631095f64jvm7jfj_000000gn/T//cc1i8NTO.s:803    .text.spi_config:0000000000000032 .L0 
/var/folders/rt/4gvqv631095f64jvm7jfj_000000gn/T//cc1i8NTO.s:805    .text.spi_config:0000000000000034 .L0 
/var/folders/rt/4gvqv631095f64jvm7jfj_000000gn/T//cc1i8NTO.s:807    .text.spi_config:0000000000000036 .L0 
/var/folders/rt/4gvqv631095f64jvm7jfj_000000gn/T//cc1i8NTO.s:809    .text.spi_config:000000000000003a .L0 
/var/folders/rt/4gvqv631095f64jvm7jfj_000000gn/T//cc1i8NTO.s:811    .text.spi_config:000000000000003c .L0 
/var/folders/rt/4gvqv631095f64jvm7jfj_000000gn/T//cc1i8NTO.s:813    .text.spi_config:000000000000003e .L0 
/var/folders/rt/4gvqv631095f64jvm7jfj_000000gn/T//cc1i8NTO.s:814    .text.spi_config:000000000000003e .L0 
/var/folders/rt/4gvqv631095f64jvm7jfj_000000gn/T//cc1i8NTO.s:815    .text.spi_config:000000000000003e .L0 
/var/folders/rt/4gvqv631095f64jvm7jfj_000000gn/T//cc1i8NTO.s:817    .text.spi_config:0000000000000040 .L0 
/var/folders/rt/4gvqv631095f64jvm7jfj_000000gn/T//cc1i8NTO.s:818    .text.spi_config:0000000000000040 .L0 
/var/folders/rt/4gvqv631095f64jvm7jfj_000000gn/T//cc1i8NTO.s:819    .text.spi_config:0000000000000040 .L0 
/var/folders/rt/4gvqv631095f64jvm7jfj_000000gn/T//cc1i8NTO.s:820    .text.spi_config:0000000000000040 .L0 
/var/folders/rt/4gvqv631095f64jvm7jfj_000000gn/T//cc1i8NTO.s:821    .text.spi_config:0000000000000040 .L0 
/var/folders/rt/4gvqv631095f64jvm7jfj_000000gn/T//cc1i8NTO.s:823    .text.spi_config:0000000000000042 .L0 
/var/folders/rt/4gvqv631095f64jvm7jfj_000000gn/T//cc1i8NTO.s:826    .text.spi_config:000000000000004a .L0 
/var/folders/rt/4gvqv631095f64jvm7jfj_000000gn/T//cc1i8NTO.s:830    .text.spi_config:0000000000000056 .L0 
/var/folders/rt/4gvqv631095f64jvm7jfj_000000gn/T//cc1i8NTO.s:831    .text.spi_config:0000000000000058 .L0 
/var/folders/rt/4gvqv631095f64jvm7jfj_000000gn/T//cc1i8NTO.s:833    .text.spi_config:000000000000005a .L0 
/var/folders/rt/4gvqv631095f64jvm7jfj_000000gn/T//cc1i8NTO.s:836    .text.spi_config:000000000000005c .L0 
/var/folders/rt/4gvqv631095f64jvm7jfj_000000gn/T//cc1i8NTO.s:838    .text.spi_config:000000000000005e .L0 
/var/folders/rt/4gvqv631095f64jvm7jfj_000000gn/T//cc1i8NTO.s:845    .text.Lcd_SetType:0000000000000000 Lcd_SetType
/var/folders/rt/4gvqv631095f64jvm7jfj_000000gn/T//cc1i8NTO.s:848    .text.Lcd_SetType:0000000000000000 .L0 
/var/folders/rt/4gvqv631095f64jvm7jfj_000000gn/T//cc1i8NTO.s:850    .text.Lcd_SetType:0000000000000000 .L0 
/var/folders/rt/4gvqv631095f64jvm7jfj_000000gn/T//cc1i8NTO.s:851    .text.Lcd_SetType:0000000000000000 .L0 
/var/folders/rt/4gvqv631095f64jvm7jfj_000000gn/T//cc1i8NTO.s:852    .text.Lcd_SetType:0000000000000000 .L0 
/var/folders/rt/4gvqv631095f64jvm7jfj_000000gn/T//cc1i8NTO.s:854    .text.Lcd_SetType:0000000000000002 .L0 
/var/folders/rt/4gvqv631095f64jvm7jfj_000000gn/T//cc1i8NTO.s:855    .text.Lcd_SetType:0000000000000002 .L0 
/var/folders/rt/4gvqv631095f64jvm7jfj_000000gn/T//cc1i8NTO.s:856    .text.Lcd_SetType:0000000000000002 .L0 
/var/folders/rt/4gvqv631095f64jvm7jfj_000000gn/T//cc1i8NTO.s:857    .text.Lcd_SetType:0000000000000002 .L0 
/var/folders/rt/4gvqv631095f64jvm7jfj_000000gn/T//cc1i8NTO.s:858    .text.Lcd_SetType:0000000000000002 .L0 
/var/folders/rt/4gvqv631095f64jvm7jfj_000000gn/T//cc1i8NTO.s:865    .text.Lcd_SetType:000000000000000c .L0 
/var/folders/rt/4gvqv631095f64jvm7jfj_000000gn/T//cc1i8NTO.s:870    .text.Lcd_SetType:0000000000000010 .L0 
/var/folders/rt/4gvqv631095f64jvm7jfj_000000gn/T//cc1i8NTO.s:873    .text.Lcd_SetType:0000000000000012 .L0 
/var/folders/rt/4gvqv631095f64jvm7jfj_000000gn/T//cc1i8NTO.s:874    .text.Lcd_SetType:0000000000000012 .L0 
GAS LISTING /var/folders/rt/4gvqv631095f64jvm7jfj_000000gn/T//cc1i8NTO.s 			page 132


/var/folders/rt/4gvqv631095f64jvm7jfj_000000gn/T//cc1i8NTO.s:880    .text.Lcd_SetType:0000000000000018 .L0 
/var/folders/rt/4gvqv631095f64jvm7jfj_000000gn/T//cc1i8NTO.s:881    .text.Lcd_SetType:0000000000000018 .L0 
/var/folders/rt/4gvqv631095f64jvm7jfj_000000gn/T//cc1i8NTO.s:882    .text.Lcd_SetType:0000000000000018 .L0 
/var/folders/rt/4gvqv631095f64jvm7jfj_000000gn/T//cc1i8NTO.s:883    .text.Lcd_SetType:0000000000000018 .L0 
/var/folders/rt/4gvqv631095f64jvm7jfj_000000gn/T//cc1i8NTO.s:884    .text.Lcd_SetType:0000000000000018 .L0 
/var/folders/rt/4gvqv631095f64jvm7jfj_000000gn/T//cc1i8NTO.s:890    .text.Lcd_SetType:0000000000000026 .L0 
/var/folders/rt/4gvqv631095f64jvm7jfj_000000gn/T//cc1i8NTO.s:897    .text.Lcd_Init:0000000000000000 Lcd_Init
/var/folders/rt/4gvqv631095f64jvm7jfj_000000gn/T//cc1i8NTO.s:900    .text.Lcd_Init:0000000000000000 .L0 
/var/folders/rt/4gvqv631095f64jvm7jfj_000000gn/T//cc1i8NTO.s:901    .text.Lcd_Init:0000000000000000 .L0 
/var/folders/rt/4gvqv631095f64jvm7jfj_000000gn/T//cc1i8NTO.s:902    .text.Lcd_Init:0000000000000000 .L0 
/var/folders/rt/4gvqv631095f64jvm7jfj_000000gn/T//cc1i8NTO.s:903    .text.Lcd_Init:0000000000000000 .L0 
/var/folders/rt/4gvqv631095f64jvm7jfj_000000gn/T//cc1i8NTO.s:905    .text.Lcd_Init:0000000000000004 .L0 
/var/folders/rt/4gvqv631095f64jvm7jfj_000000gn/T//cc1i8NTO.s:907    .text.Lcd_Init:0000000000000008 .L0 
/var/folders/rt/4gvqv631095f64jvm7jfj_000000gn/T//cc1i8NTO.s:909    .text.Lcd_Init:000000000000000a .L0 
/var/folders/rt/4gvqv631095f64jvm7jfj_000000gn/T//cc1i8NTO.s:912    .text.Lcd_Init:000000000000000e .L0 
/var/folders/rt/4gvqv631095f64jvm7jfj_000000gn/T//cc1i8NTO.s:913    .text.Lcd_Init:000000000000000e .L0 
/var/folders/rt/4gvqv631095f64jvm7jfj_000000gn/T//cc1i8NTO.s:916    .text.Lcd_Init:0000000000000012 .L0 
/var/folders/rt/4gvqv631095f64jvm7jfj_000000gn/T//cc1i8NTO.s:918    .text.Lcd_Init:0000000000000014 .L0 
/var/folders/rt/4gvqv631095f64jvm7jfj_000000gn/T//cc1i8NTO.s:923    .text.Lcd_Init:000000000000001e .L0 
/var/folders/rt/4gvqv631095f64jvm7jfj_000000gn/T//cc1i8NTO.s:927    .text.Lcd_Init:000000000000002a .L0 
/var/folders/rt/4gvqv631095f64jvm7jfj_000000gn/T//cc1i8NTO.s:931    .text.Lcd_Init:0000000000000036 .L0 
/var/folders/rt/4gvqv631095f64jvm7jfj_000000gn/T//cc1i8NTO.s:935    .text.Lcd_Init:0000000000000042 .L0 
/var/folders/rt/4gvqv631095f64jvm7jfj_000000gn/T//cc1i8NTO.s:939    .text.Lcd_Init:000000000000004e .L0 
/var/folders/rt/4gvqv631095f64jvm7jfj_000000gn/T//cc1i8NTO.s:947    .text.Lcd_Init:0000000000000064 .L0 
/var/folders/rt/4gvqv631095f64jvm7jfj_000000gn/T//cc1i8NTO.s:954    .text.Lcd_Init:0000000000000076 .L0 
/var/folders/rt/4gvqv631095f64jvm7jfj_000000gn/T//cc1i8NTO.s:957    .text.Lcd_Init:000000000000007e .L0 
/var/folders/rt/4gvqv631095f64jvm7jfj_000000gn/T//cc1i8NTO.s:962    .text.Lcd_Init:000000000000008c .L0 
/var/folders/rt/4gvqv631095f64jvm7jfj_000000gn/T//cc1i8NTO.s:965    .text.Lcd_Init:0000000000000094 .L0 
/var/folders/rt/4gvqv631095f64jvm7jfj_000000gn/T//cc1i8NTO.s:971    .text.Lcd_Init:00000000000000a0 .L0 
/var/folders/rt/4gvqv631095f64jvm7jfj_000000gn/T//cc1i8NTO.s:972    .text.Lcd_Init:00000000000000a0 .L0 
/var/folders/rt/4gvqv631095f64jvm7jfj_000000gn/T//cc1i8NTO.s:978    .text.Lcd_Init:00000000000000aa .L0 
/var/folders/rt/4gvqv631095f64jvm7jfj_000000gn/T//cc1i8NTO.s:981    .text.Lcd_Init:00000000000000b2 .L0 
/var/folders/rt/4gvqv631095f64jvm7jfj_000000gn/T//cc1i8NTO.s:987    .text.Lcd_Init:00000000000000be .L0 
/var/folders/rt/4gvqv631095f64jvm7jfj_000000gn/T//cc1i8NTO.s:988    .text.Lcd_Init:00000000000000be .L0 
/var/folders/rt/4gvqv631095f64jvm7jfj_000000gn/T//cc1i8NTO.s:994    .text.Lcd_Init:00000000000000c8 .L0 
/var/folders/rt/4gvqv631095f64jvm7jfj_000000gn/T//cc1i8NTO.s:997    .text.Lcd_Init:00000000000000d0 .L0 
/var/folders/rt/4gvqv631095f64jvm7jfj_000000gn/T//cc1i8NTO.s:1001   .text.Lcd_Init:00000000000000dc .L0 
/var/folders/rt/4gvqv631095f64jvm7jfj_000000gn/T//cc1i8NTO.s:1002   .text.Lcd_Init:00000000000000dc .L0 
/var/folders/rt/4gvqv631095f64jvm7jfj_000000gn/T//cc1i8NTO.s:1006   .text.Lcd_Init:00000000000000e0 .L0 
/var/folders/rt/4gvqv631095f64jvm7jfj_000000gn/T//cc1i8NTO.s:1010   .text.Lcd_Init:00000000000000e4 .L0 
/var/folders/rt/4gvqv631095f64jvm7jfj_000000gn/T//cc1i8NTO.s:1015   .text.Lcd_Init:00000000000000e6 .L0 
/var/folders/rt/4gvqv631095f64jvm7jfj_000000gn/T//cc1i8NTO.s:1016   .text.Lcd_Init:00000000000000e6 .L0 
/var/folders/rt/4gvqv631095f64jvm7jfj_000000gn/T//cc1i8NTO.s:1026   .text.Lcd_Init:00000000000000f2 .L0 
/var/folders/rt/4gvqv631095f64jvm7jfj_000000gn/T//cc1i8NTO.s:1027   .text.Lcd_Init:00000000000000f2 .L0 
/var/folders/rt/4gvqv631095f64jvm7jfj_000000gn/T//cc1i8NTO.s:1035   .text.Lcd_Init:00000000000000fe .L0 
/var/folders/rt/4gvqv631095f64jvm7jfj_000000gn/T//cc1i8NTO.s:1036   .text.Lcd_Init:00000000000000fe .L0 
/var/folders/rt/4gvqv631095f64jvm7jfj_000000gn/T//cc1i8NTO.s:1044   .text.Lcd_Init:000000000000010a .L0 
/var/folders/rt/4gvqv631095f64jvm7jfj_000000gn/T//cc1i8NTO.s:1045   .text.Lcd_Init:000000000000010a .L0 
/var/folders/rt/4gvqv631095f64jvm7jfj_000000gn/T//cc1i8NTO.s:1053   .text.Lcd_Init:0000000000000116 .L0 
/var/folders/rt/4gvqv631095f64jvm7jfj_000000gn/T//cc1i8NTO.s:1054   .text.Lcd_Init:0000000000000116 .L0 
/var/folders/rt/4gvqv631095f64jvm7jfj_000000gn/T//cc1i8NTO.s:1062   .text.Lcd_Init:0000000000000122 .L0 
/var/folders/rt/4gvqv631095f64jvm7jfj_000000gn/T//cc1i8NTO.s:1063   .text.Lcd_Init:0000000000000122 .L0 
/var/folders/rt/4gvqv631095f64jvm7jfj_000000gn/T//cc1i8NTO.s:1071   .text.Lcd_Init:000000000000012e .L0 
/var/folders/rt/4gvqv631095f64jvm7jfj_000000gn/T//cc1i8NTO.s:1072   .text.Lcd_Init:000000000000012e .L0 
/var/folders/rt/4gvqv631095f64jvm7jfj_000000gn/T//cc1i8NTO.s:1080   .text.Lcd_Init:000000000000013a .L0 
/var/folders/rt/4gvqv631095f64jvm7jfj_000000gn/T//cc1i8NTO.s:1081   .text.Lcd_Init:000000000000013a .L0 
/var/folders/rt/4gvqv631095f64jvm7jfj_000000gn/T//cc1i8NTO.s:1089   .text.Lcd_Init:0000000000000146 .L0 
GAS LISTING /var/folders/rt/4gvqv631095f64jvm7jfj_000000gn/T//cc1i8NTO.s 			page 133


/var/folders/rt/4gvqv631095f64jvm7jfj_000000gn/T//cc1i8NTO.s:1090   .text.Lcd_Init:0000000000000146 .L0 
/var/folders/rt/4gvqv631095f64jvm7jfj_000000gn/T//cc1i8NTO.s:1098   .text.Lcd_Init:0000000000000152 .L0 
/var/folders/rt/4gvqv631095f64jvm7jfj_000000gn/T//cc1i8NTO.s:1099   .text.Lcd_Init:0000000000000152 .L0 
/var/folders/rt/4gvqv631095f64jvm7jfj_000000gn/T//cc1i8NTO.s:1107   .text.Lcd_Init:000000000000015e .L0 
/var/folders/rt/4gvqv631095f64jvm7jfj_000000gn/T//cc1i8NTO.s:1108   .text.Lcd_Init:000000000000015e .L0 
/var/folders/rt/4gvqv631095f64jvm7jfj_000000gn/T//cc1i8NTO.s:1116   .text.Lcd_Init:000000000000016a .L0 
/var/folders/rt/4gvqv631095f64jvm7jfj_000000gn/T//cc1i8NTO.s:1117   .text.Lcd_Init:000000000000016a .L0 
/var/folders/rt/4gvqv631095f64jvm7jfj_000000gn/T//cc1i8NTO.s:1125   .text.Lcd_Init:0000000000000176 .L0 
/var/folders/rt/4gvqv631095f64jvm7jfj_000000gn/T//cc1i8NTO.s:1126   .text.Lcd_Init:0000000000000176 .L0 
/var/folders/rt/4gvqv631095f64jvm7jfj_000000gn/T//cc1i8NTO.s:1134   .text.Lcd_Init:0000000000000182 .L0 
/var/folders/rt/4gvqv631095f64jvm7jfj_000000gn/T//cc1i8NTO.s:1135   .text.Lcd_Init:0000000000000182 .L0 
/var/folders/rt/4gvqv631095f64jvm7jfj_000000gn/T//cc1i8NTO.s:1143   .text.Lcd_Init:000000000000018e .L0 
/var/folders/rt/4gvqv631095f64jvm7jfj_000000gn/T//cc1i8NTO.s:1144   .text.Lcd_Init:000000000000018e .L0 
/var/folders/rt/4gvqv631095f64jvm7jfj_000000gn/T//cc1i8NTO.s:1152   .text.Lcd_Init:000000000000019a .L0 
/var/folders/rt/4gvqv631095f64jvm7jfj_000000gn/T//cc1i8NTO.s:1153   .text.Lcd_Init:000000000000019a .L0 
/var/folders/rt/4gvqv631095f64jvm7jfj_000000gn/T//cc1i8NTO.s:1161   .text.Lcd_Init:00000000000001a6 .L0 
/var/folders/rt/4gvqv631095f64jvm7jfj_000000gn/T//cc1i8NTO.s:1162   .text.Lcd_Init:00000000000001a6 .L0 
/var/folders/rt/4gvqv631095f64jvm7jfj_000000gn/T//cc1i8NTO.s:1170   .text.Lcd_Init:00000000000001b2 .L0 
/var/folders/rt/4gvqv631095f64jvm7jfj_000000gn/T//cc1i8NTO.s:1171   .text.Lcd_Init:00000000000001b2 .L0 
/var/folders/rt/4gvqv631095f64jvm7jfj_000000gn/T//cc1i8NTO.s:1179   .text.Lcd_Init:00000000000001be .L0 
/var/folders/rt/4gvqv631095f64jvm7jfj_000000gn/T//cc1i8NTO.s:1180   .text.Lcd_Init:00000000000001be .L0 
/var/folders/rt/4gvqv631095f64jvm7jfj_000000gn/T//cc1i8NTO.s:1188   .text.Lcd_Init:00000000000001ca .L0 
/var/folders/rt/4gvqv631095f64jvm7jfj_000000gn/T//cc1i8NTO.s:1189   .text.Lcd_Init:00000000000001ca .L0 
/var/folders/rt/4gvqv631095f64jvm7jfj_000000gn/T//cc1i8NTO.s:1197   .text.Lcd_Init:00000000000001d6 .L0 
/var/folders/rt/4gvqv631095f64jvm7jfj_000000gn/T//cc1i8NTO.s:1198   .text.Lcd_Init:00000000000001d6 .L0 
/var/folders/rt/4gvqv631095f64jvm7jfj_000000gn/T//cc1i8NTO.s:1206   .text.Lcd_Init:00000000000001e2 .L0 
/var/folders/rt/4gvqv631095f64jvm7jfj_000000gn/T//cc1i8NTO.s:1207   .text.Lcd_Init:00000000000001e2 .L0 
/var/folders/rt/4gvqv631095f64jvm7jfj_000000gn/T//cc1i8NTO.s:1215   .text.Lcd_Init:00000000000001ee .L0 
/var/folders/rt/4gvqv631095f64jvm7jfj_000000gn/T//cc1i8NTO.s:1216   .text.Lcd_Init:00000000000001ee .L0 
/var/folders/rt/4gvqv631095f64jvm7jfj_000000gn/T//cc1i8NTO.s:1224   .text.Lcd_Init:00000000000001fa .L0 
/var/folders/rt/4gvqv631095f64jvm7jfj_000000gn/T//cc1i8NTO.s:1225   .text.Lcd_Init:00000000000001fa .L0 
/var/folders/rt/4gvqv631095f64jvm7jfj_000000gn/T//cc1i8NTO.s:1233   .text.Lcd_Init:0000000000000206 .L0 
/var/folders/rt/4gvqv631095f64jvm7jfj_000000gn/T//cc1i8NTO.s:1234   .text.Lcd_Init:0000000000000206 .L0 
/var/folders/rt/4gvqv631095f64jvm7jfj_000000gn/T//cc1i8NTO.s:1242   .text.Lcd_Init:0000000000000212 .L0 
/var/folders/rt/4gvqv631095f64jvm7jfj_000000gn/T//cc1i8NTO.s:1243   .text.Lcd_Init:0000000000000212 .L0 
/var/folders/rt/4gvqv631095f64jvm7jfj_000000gn/T//cc1i8NTO.s:1251   .text.Lcd_Init:000000000000021e .L0 
/var/folders/rt/4gvqv631095f64jvm7jfj_000000gn/T//cc1i8NTO.s:1252   .text.Lcd_Init:000000000000021e .L0 
/var/folders/rt/4gvqv631095f64jvm7jfj_000000gn/T//cc1i8NTO.s:1260   .text.Lcd_Init:000000000000022a .L0 
/var/folders/rt/4gvqv631095f64jvm7jfj_000000gn/T//cc1i8NTO.s:1261   .text.Lcd_Init:000000000000022a .L0 
/var/folders/rt/4gvqv631095f64jvm7jfj_000000gn/T//cc1i8NTO.s:1269   .text.Lcd_Init:0000000000000236 .L0 
/var/folders/rt/4gvqv631095f64jvm7jfj_000000gn/T//cc1i8NTO.s:1270   .text.Lcd_Init:0000000000000236 .L0 
/var/folders/rt/4gvqv631095f64jvm7jfj_000000gn/T//cc1i8NTO.s:1278   .text.Lcd_Init:0000000000000242 .L0 
/var/folders/rt/4gvqv631095f64jvm7jfj_000000gn/T//cc1i8NTO.s:1279   .text.Lcd_Init:0000000000000242 .L0 
/var/folders/rt/4gvqv631095f64jvm7jfj_000000gn/T//cc1i8NTO.s:1287   .text.Lcd_Init:000000000000024e .L0 
/var/folders/rt/4gvqv631095f64jvm7jfj_000000gn/T//cc1i8NTO.s:1288   .text.Lcd_Init:000000000000024e .L0 
/var/folders/rt/4gvqv631095f64jvm7jfj_000000gn/T//cc1i8NTO.s:1296   .text.Lcd_Init:000000000000025a .L0 
/var/folders/rt/4gvqv631095f64jvm7jfj_000000gn/T//cc1i8NTO.s:1297   .text.Lcd_Init:000000000000025a .L0 
/var/folders/rt/4gvqv631095f64jvm7jfj_000000gn/T//cc1i8NTO.s:1305   .text.Lcd_Init:0000000000000266 .L0 
/var/folders/rt/4gvqv631095f64jvm7jfj_000000gn/T//cc1i8NTO.s:1306   .text.Lcd_Init:0000000000000266 .L0 
/var/folders/rt/4gvqv631095f64jvm7jfj_000000gn/T//cc1i8NTO.s:1314   .text.Lcd_Init:0000000000000272 .L0 
/var/folders/rt/4gvqv631095f64jvm7jfj_000000gn/T//cc1i8NTO.s:1315   .text.Lcd_Init:0000000000000272 .L0 
/var/folders/rt/4gvqv631095f64jvm7jfj_000000gn/T//cc1i8NTO.s:1323   .text.Lcd_Init:000000000000027e .L0 
/var/folders/rt/4gvqv631095f64jvm7jfj_000000gn/T//cc1i8NTO.s:1324   .text.Lcd_Init:000000000000027e .L0 
/var/folders/rt/4gvqv631095f64jvm7jfj_000000gn/T//cc1i8NTO.s:1332   .text.Lcd_Init:000000000000028a .L0 
/var/folders/rt/4gvqv631095f64jvm7jfj_000000gn/T//cc1i8NTO.s:1333   .text.Lcd_Init:000000000000028a .L0 
/var/folders/rt/4gvqv631095f64jvm7jfj_000000gn/T//cc1i8NTO.s:1341   .text.Lcd_Init:0000000000000296 .L0 
/var/folders/rt/4gvqv631095f64jvm7jfj_000000gn/T//cc1i8NTO.s:1342   .text.Lcd_Init:0000000000000296 .L0 
GAS LISTING /var/folders/rt/4gvqv631095f64jvm7jfj_000000gn/T//cc1i8NTO.s 			page 134


/var/folders/rt/4gvqv631095f64jvm7jfj_000000gn/T//cc1i8NTO.s:1350   .text.Lcd_Init:00000000000002a2 .L0 
/var/folders/rt/4gvqv631095f64jvm7jfj_000000gn/T//cc1i8NTO.s:1351   .text.Lcd_Init:00000000000002a2 .L0 
/var/folders/rt/4gvqv631095f64jvm7jfj_000000gn/T//cc1i8NTO.s:1359   .text.Lcd_Init:00000000000002ae .L0 
/var/folders/rt/4gvqv631095f64jvm7jfj_000000gn/T//cc1i8NTO.s:1360   .text.Lcd_Init:00000000000002ae .L0 
/var/folders/rt/4gvqv631095f64jvm7jfj_000000gn/T//cc1i8NTO.s:1368   .text.Lcd_Init:00000000000002ba .L0 
/var/folders/rt/4gvqv631095f64jvm7jfj_000000gn/T//cc1i8NTO.s:1369   .text.Lcd_Init:00000000000002ba .L0 
/var/folders/rt/4gvqv631095f64jvm7jfj_000000gn/T//cc1i8NTO.s:1377   .text.Lcd_Init:00000000000002c6 .L0 
/var/folders/rt/4gvqv631095f64jvm7jfj_000000gn/T//cc1i8NTO.s:1378   .text.Lcd_Init:00000000000002c6 .L0 
/var/folders/rt/4gvqv631095f64jvm7jfj_000000gn/T//cc1i8NTO.s:1386   .text.Lcd_Init:00000000000002d2 .L0 
/var/folders/rt/4gvqv631095f64jvm7jfj_000000gn/T//cc1i8NTO.s:1387   .text.Lcd_Init:00000000000002d2 .L0 
/var/folders/rt/4gvqv631095f64jvm7jfj_000000gn/T//cc1i8NTO.s:1395   .text.Lcd_Init:00000000000002de .L0 
/var/folders/rt/4gvqv631095f64jvm7jfj_000000gn/T//cc1i8NTO.s:1396   .text.Lcd_Init:00000000000002de .L0 
/var/folders/rt/4gvqv631095f64jvm7jfj_000000gn/T//cc1i8NTO.s:1404   .text.Lcd_Init:00000000000002ea .L0 
/var/folders/rt/4gvqv631095f64jvm7jfj_000000gn/T//cc1i8NTO.s:1405   .text.Lcd_Init:00000000000002ea .L0 
/var/folders/rt/4gvqv631095f64jvm7jfj_000000gn/T//cc1i8NTO.s:1413   .text.Lcd_Init:00000000000002f6 .L0 
/var/folders/rt/4gvqv631095f64jvm7jfj_000000gn/T//cc1i8NTO.s:1414   .text.Lcd_Init:00000000000002f6 .L0 
/var/folders/rt/4gvqv631095f64jvm7jfj_000000gn/T//cc1i8NTO.s:1422   .text.Lcd_Init:0000000000000302 .L0 
/var/folders/rt/4gvqv631095f64jvm7jfj_000000gn/T//cc1i8NTO.s:1423   .text.Lcd_Init:0000000000000302 .L0 
/var/folders/rt/4gvqv631095f64jvm7jfj_000000gn/T//cc1i8NTO.s:1431   .text.Lcd_Init:000000000000030e .L0 
/var/folders/rt/4gvqv631095f64jvm7jfj_000000gn/T//cc1i8NTO.s:1432   .text.Lcd_Init:000000000000030e .L0 
/var/folders/rt/4gvqv631095f64jvm7jfj_000000gn/T//cc1i8NTO.s:1440   .text.Lcd_Init:000000000000031a .L0 
/var/folders/rt/4gvqv631095f64jvm7jfj_000000gn/T//cc1i8NTO.s:1441   .text.Lcd_Init:000000000000031a .L0 
/var/folders/rt/4gvqv631095f64jvm7jfj_000000gn/T//cc1i8NTO.s:1449   .text.Lcd_Init:0000000000000326 .L0 
/var/folders/rt/4gvqv631095f64jvm7jfj_000000gn/T//cc1i8NTO.s:1450   .text.Lcd_Init:0000000000000326 .L0 
/var/folders/rt/4gvqv631095f64jvm7jfj_000000gn/T//cc1i8NTO.s:1458   .text.Lcd_Init:0000000000000332 .L0 
/var/folders/rt/4gvqv631095f64jvm7jfj_000000gn/T//cc1i8NTO.s:1459   .text.Lcd_Init:0000000000000332 .L0 
/var/folders/rt/4gvqv631095f64jvm7jfj_000000gn/T//cc1i8NTO.s:1467   .text.Lcd_Init:000000000000033e .L0 
/var/folders/rt/4gvqv631095f64jvm7jfj_000000gn/T//cc1i8NTO.s:1468   .text.Lcd_Init:000000000000033e .L0 
/var/folders/rt/4gvqv631095f64jvm7jfj_000000gn/T//cc1i8NTO.s:1476   .text.Lcd_Init:000000000000034a .L0 
/var/folders/rt/4gvqv631095f64jvm7jfj_000000gn/T//cc1i8NTO.s:1477   .text.Lcd_Init:000000000000034a .L0 
/var/folders/rt/4gvqv631095f64jvm7jfj_000000gn/T//cc1i8NTO.s:1485   .text.Lcd_Init:0000000000000356 .L0 
/var/folders/rt/4gvqv631095f64jvm7jfj_000000gn/T//cc1i8NTO.s:1486   .text.Lcd_Init:0000000000000356 .L0 
/var/folders/rt/4gvqv631095f64jvm7jfj_000000gn/T//cc1i8NTO.s:1494   .text.Lcd_Init:0000000000000362 .L0 
/var/folders/rt/4gvqv631095f64jvm7jfj_000000gn/T//cc1i8NTO.s:1495   .text.Lcd_Init:0000000000000362 .L0 
/var/folders/rt/4gvqv631095f64jvm7jfj_000000gn/T//cc1i8NTO.s:1503   .text.Lcd_Init:000000000000036e .L0 
/var/folders/rt/4gvqv631095f64jvm7jfj_000000gn/T//cc1i8NTO.s:1504   .text.Lcd_Init:000000000000036e .L0 
/var/folders/rt/4gvqv631095f64jvm7jfj_000000gn/T//cc1i8NTO.s:1512   .text.Lcd_Init:000000000000037a .L0 
/var/folders/rt/4gvqv631095f64jvm7jfj_000000gn/T//cc1i8NTO.s:1513   .text.Lcd_Init:000000000000037a .L0 
/var/folders/rt/4gvqv631095f64jvm7jfj_000000gn/T//cc1i8NTO.s:1521   .text.Lcd_Init:0000000000000386 .L0 
/var/folders/rt/4gvqv631095f64jvm7jfj_000000gn/T//cc1i8NTO.s:1522   .text.Lcd_Init:0000000000000386 .L0 
/var/folders/rt/4gvqv631095f64jvm7jfj_000000gn/T//cc1i8NTO.s:1530   .text.Lcd_Init:0000000000000392 .L0 
/var/folders/rt/4gvqv631095f64jvm7jfj_000000gn/T//cc1i8NTO.s:1531   .text.Lcd_Init:0000000000000392 .L0 
/var/folders/rt/4gvqv631095f64jvm7jfj_000000gn/T//cc1i8NTO.s:1539   .text.Lcd_Init:000000000000039e .L0 
/var/folders/rt/4gvqv631095f64jvm7jfj_000000gn/T//cc1i8NTO.s:1540   .text.Lcd_Init:000000000000039e .L0 
/var/folders/rt/4gvqv631095f64jvm7jfj_000000gn/T//cc1i8NTO.s:1548   .text.Lcd_Init:00000000000003aa .L0 
/var/folders/rt/4gvqv631095f64jvm7jfj_000000gn/T//cc1i8NTO.s:1549   .text.Lcd_Init:00000000000003aa .L0 
/var/folders/rt/4gvqv631095f64jvm7jfj_000000gn/T//cc1i8NTO.s:1557   .text.Lcd_Init:00000000000003b6 .L0 
/var/folders/rt/4gvqv631095f64jvm7jfj_000000gn/T//cc1i8NTO.s:1558   .text.Lcd_Init:00000000000003b6 .L0 
/var/folders/rt/4gvqv631095f64jvm7jfj_000000gn/T//cc1i8NTO.s:1566   .text.Lcd_Init:00000000000003c2 .L0 
/var/folders/rt/4gvqv631095f64jvm7jfj_000000gn/T//cc1i8NTO.s:1567   .text.Lcd_Init:00000000000003c2 .L0 
/var/folders/rt/4gvqv631095f64jvm7jfj_000000gn/T//cc1i8NTO.s:1575   .text.Lcd_Init:00000000000003ce .L0 
/var/folders/rt/4gvqv631095f64jvm7jfj_000000gn/T//cc1i8NTO.s:1576   .text.Lcd_Init:00000000000003ce .L0 
/var/folders/rt/4gvqv631095f64jvm7jfj_000000gn/T//cc1i8NTO.s:1584   .text.Lcd_Init:00000000000003da .L0 
/var/folders/rt/4gvqv631095f64jvm7jfj_000000gn/T//cc1i8NTO.s:1585   .text.Lcd_Init:00000000000003da .L0 
/var/folders/rt/4gvqv631095f64jvm7jfj_000000gn/T//cc1i8NTO.s:1593   .text.Lcd_Init:00000000000003e6 .L0 
/var/folders/rt/4gvqv631095f64jvm7jfj_000000gn/T//cc1i8NTO.s:1594   .text.Lcd_Init:00000000000003e6 .L0 
/var/folders/rt/4gvqv631095f64jvm7jfj_000000gn/T//cc1i8NTO.s:1602   .text.Lcd_Init:00000000000003f2 .L0 
GAS LISTING /var/folders/rt/4gvqv631095f64jvm7jfj_000000gn/T//cc1i8NTO.s 			page 135


/var/folders/rt/4gvqv631095f64jvm7jfj_000000gn/T//cc1i8NTO.s:1603   .text.Lcd_Init:00000000000003f2 .L0 
/var/folders/rt/4gvqv631095f64jvm7jfj_000000gn/T//cc1i8NTO.s:1611   .text.Lcd_Init:00000000000003fe .L0 
/var/folders/rt/4gvqv631095f64jvm7jfj_000000gn/T//cc1i8NTO.s:1612   .text.Lcd_Init:00000000000003fe .L0 
/var/folders/rt/4gvqv631095f64jvm7jfj_000000gn/T//cc1i8NTO.s:1620   .text.Lcd_Init:000000000000040a .L0 
/var/folders/rt/4gvqv631095f64jvm7jfj_000000gn/T//cc1i8NTO.s:1621   .text.Lcd_Init:000000000000040a .L0 
/var/folders/rt/4gvqv631095f64jvm7jfj_000000gn/T//cc1i8NTO.s:1629   .text.Lcd_Init:0000000000000416 .L0 
/var/folders/rt/4gvqv631095f64jvm7jfj_000000gn/T//cc1i8NTO.s:1630   .text.Lcd_Init:0000000000000416 .L0 
/var/folders/rt/4gvqv631095f64jvm7jfj_000000gn/T//cc1i8NTO.s:1638   .text.Lcd_Init:0000000000000422 .L0 
/var/folders/rt/4gvqv631095f64jvm7jfj_000000gn/T//cc1i8NTO.s:1639   .text.Lcd_Init:0000000000000422 .L0 
/var/folders/rt/4gvqv631095f64jvm7jfj_000000gn/T//cc1i8NTO.s:1647   .text.Lcd_Init:000000000000042e .L0 
/var/folders/rt/4gvqv631095f64jvm7jfj_000000gn/T//cc1i8NTO.s:1648   .text.Lcd_Init:000000000000042e .L0 
/var/folders/rt/4gvqv631095f64jvm7jfj_000000gn/T//cc1i8NTO.s:1656   .text.Lcd_Init:000000000000043a .L0 
/var/folders/rt/4gvqv631095f64jvm7jfj_000000gn/T//cc1i8NTO.s:1657   .text.Lcd_Init:000000000000043a .L0 
/var/folders/rt/4gvqv631095f64jvm7jfj_000000gn/T//cc1i8NTO.s:1665   .text.Lcd_Init:0000000000000446 .L0 
/var/folders/rt/4gvqv631095f64jvm7jfj_000000gn/T//cc1i8NTO.s:1666   .text.Lcd_Init:0000000000000446 .L0 
/var/folders/rt/4gvqv631095f64jvm7jfj_000000gn/T//cc1i8NTO.s:1674   .text.Lcd_Init:0000000000000452 .L0 
/var/folders/rt/4gvqv631095f64jvm7jfj_000000gn/T//cc1i8NTO.s:1677   .text.Lcd_Init:0000000000000452 .L0 
/var/folders/rt/4gvqv631095f64jvm7jfj_000000gn/T//cc1i8NTO.s:1678   .text.Lcd_Init:0000000000000452 .L0 
/var/folders/rt/4gvqv631095f64jvm7jfj_000000gn/T//cc1i8NTO.s:1679   .text.Lcd_Init:0000000000000454 .L0 
/var/folders/rt/4gvqv631095f64jvm7jfj_000000gn/T//cc1i8NTO.s:1681   .text.Lcd_Init:0000000000000456 .L0 
/var/folders/rt/4gvqv631095f64jvm7jfj_000000gn/T//cc1i8NTO.s:1685   .text.Lcd_Init:0000000000000456 .L0 
/var/folders/rt/4gvqv631095f64jvm7jfj_000000gn/T//cc1i8NTO.s:1689   .text.Lcd_Init:000000000000045a .L0 
/var/folders/rt/4gvqv631095f64jvm7jfj_000000gn/T//cc1i8NTO.s:1691   .text.Lcd_Init:000000000000045c .L0 
/var/folders/rt/4gvqv631095f64jvm7jfj_000000gn/T//cc1i8NTO.s:1695   .text.Lcd_Init:000000000000045c .L0 
/var/folders/rt/4gvqv631095f64jvm7jfj_000000gn/T//cc1i8NTO.s:1699   .text.Lcd_Init:0000000000000464 .L0 
/var/folders/rt/4gvqv631095f64jvm7jfj_000000gn/T//cc1i8NTO.s:1706   .text.LCD_Clear:0000000000000000 LCD_Clear
/var/folders/rt/4gvqv631095f64jvm7jfj_000000gn/T//cc1i8NTO.s:1709   .text.LCD_Clear:0000000000000000 .L0 
/var/folders/rt/4gvqv631095f64jvm7jfj_000000gn/T//cc1i8NTO.s:1711   .text.LCD_Clear:0000000000000000 .L0 
/var/folders/rt/4gvqv631095f64jvm7jfj_000000gn/T//cc1i8NTO.s:1712   .text.LCD_Clear:0000000000000000 .L0 
/var/folders/rt/4gvqv631095f64jvm7jfj_000000gn/T//cc1i8NTO.s:1713   .text.LCD_Clear:0000000000000000 .L0 
/var/folders/rt/4gvqv631095f64jvm7jfj_000000gn/T//cc1i8NTO.s:1714   .text.LCD_Clear:0000000000000000 .L0 
/var/folders/rt/4gvqv631095f64jvm7jfj_000000gn/T//cc1i8NTO.s:1716   .text.LCD_Clear:0000000000000002 .L0 
/var/folders/rt/4gvqv631095f64jvm7jfj_000000gn/T//cc1i8NTO.s:1719   .text.LCD_Clear:0000000000000004 .L0 
/var/folders/rt/4gvqv631095f64jvm7jfj_000000gn/T//cc1i8NTO.s:1720   .text.LCD_Clear:0000000000000008 .L0 
/var/folders/rt/4gvqv631095f64jvm7jfj_000000gn/T//cc1i8NTO.s:1722   .text.LCD_Clear:0000000000000008 .L0 
/var/folders/rt/4gvqv631095f64jvm7jfj_000000gn/T//cc1i8NTO.s:1724   .text.LCD_Clear:000000000000000a .L0 
/var/folders/rt/4gvqv631095f64jvm7jfj_000000gn/T//cc1i8NTO.s:1729   .text.LCD_Clear:0000000000000012 .L0 
/var/folders/rt/4gvqv631095f64jvm7jfj_000000gn/T//cc1i8NTO.s:1732   .text.LCD_Clear:0000000000000018 .L0 
/var/folders/rt/4gvqv631095f64jvm7jfj_000000gn/T//cc1i8NTO.s:1733   .text.LCD_Clear:0000000000000018 .L0 
/var/folders/rt/4gvqv631095f64jvm7jfj_000000gn/T//cc1i8NTO.s:1734   .text.LCD_Clear:0000000000000018 .L0 
/var/folders/rt/4gvqv631095f64jvm7jfj_000000gn/T//cc1i8NTO.s:1736   .text.LCD_Clear:0000000000000018 .L0 
/var/folders/rt/4gvqv631095f64jvm7jfj_000000gn/T//cc1i8NTO.s:1741   .text.LCD_Clear:0000000000000024 .L0 
/var/folders/rt/4gvqv631095f64jvm7jfj_000000gn/T//cc1i8NTO.s:1742   .text.LCD_Clear:0000000000000024 .L0 
/var/folders/rt/4gvqv631095f64jvm7jfj_000000gn/T//cc1i8NTO.s:1746   .text.LCD_Clear:0000000000000028 .L0 
/var/folders/rt/4gvqv631095f64jvm7jfj_000000gn/T//cc1i8NTO.s:1752   .text.LCD_Clear:0000000000000034 .L0 
/var/folders/rt/4gvqv631095f64jvm7jfj_000000gn/T//cc1i8NTO.s:1757   .text.LCD_Clear:0000000000000038 .L0 
/var/folders/rt/4gvqv631095f64jvm7jfj_000000gn/T//cc1i8NTO.s:1759   .text.LCD_Clear:000000000000003a .L0 
/var/folders/rt/4gvqv631095f64jvm7jfj_000000gn/T//cc1i8NTO.s:1760   .text.LCD_Clear:000000000000003c .L0 
/var/folders/rt/4gvqv631095f64jvm7jfj_000000gn/T//cc1i8NTO.s:1762   .text.LCD_Clear:000000000000003e .L0 
/var/folders/rt/4gvqv631095f64jvm7jfj_000000gn/T//cc1i8NTO.s:1764   .text.LCD_Clear:0000000000000040 .L0 
/var/folders/rt/4gvqv631095f64jvm7jfj_000000gn/T//cc1i8NTO.s:1767   .text.LCD_Clear:0000000000000042 .L0 
/var/folders/rt/4gvqv631095f64jvm7jfj_000000gn/T//cc1i8NTO.s:1771   .text.LCD_Clear:0000000000000044 .L0 
/var/folders/rt/4gvqv631095f64jvm7jfj_000000gn/T//cc1i8NTO.s:1773   .text.LCD_Clear:0000000000000046 .L0 
/var/folders/rt/4gvqv631095f64jvm7jfj_000000gn/T//cc1i8NTO.s:1780   .text.LCD_ShowChinese:0000000000000000 LCD_ShowChinese
/var/folders/rt/4gvqv631095f64jvm7jfj_000000gn/T//cc1i8NTO.s:1783   .text.LCD_ShowChinese:0000000000000000 .L0 
/var/folders/rt/4gvqv631095f64jvm7jfj_000000gn/T//cc1i8NTO.s:1785   .text.LCD_ShowChinese:0000000000000000 .L0 
/var/folders/rt/4gvqv631095f64jvm7jfj_000000gn/T//cc1i8NTO.s:1786   .text.LCD_ShowChinese:0000000000000000 .L0 
GAS LISTING /var/folders/rt/4gvqv631095f64jvm7jfj_000000gn/T//cc1i8NTO.s 			page 136


/var/folders/rt/4gvqv631095f64jvm7jfj_000000gn/T//cc1i8NTO.s:1787   .text.LCD_ShowChinese:0000000000000000 .L0 
/var/folders/rt/4gvqv631095f64jvm7jfj_000000gn/T//cc1i8NTO.s:1788   .text.LCD_ShowChinese:0000000000000000 .L0 
/var/folders/rt/4gvqv631095f64jvm7jfj_000000gn/T//cc1i8NTO.s:1789   .text.LCD_ShowChinese:0000000000000000 .L0 
/var/folders/rt/4gvqv631095f64jvm7jfj_000000gn/T//cc1i8NTO.s:1790   .text.LCD_ShowChinese:0000000000000000 .L0 
/var/folders/rt/4gvqv631095f64jvm7jfj_000000gn/T//cc1i8NTO.s:1792   .text.LCD_ShowChinese:0000000000000002 .L0 
/var/folders/rt/4gvqv631095f64jvm7jfj_000000gn/T//cc1i8NTO.s:1800   .text.LCD_ShowChinese:0000000000000010 .L0 
/var/folders/rt/4gvqv631095f64jvm7jfj_000000gn/T//cc1i8NTO.s:1801   .text.LCD_ShowChinese:0000000000000010 .L0 
/var/folders/rt/4gvqv631095f64jvm7jfj_000000gn/T//cc1i8NTO.s:1802   .text.LCD_ShowChinese:0000000000000010 .L0 
/var/folders/rt/4gvqv631095f64jvm7jfj_000000gn/T//cc1i8NTO.s:1803   .text.LCD_ShowChinese:0000000000000010 .L0 
/var/folders/rt/4gvqv631095f64jvm7jfj_000000gn/T//cc1i8NTO.s:1804   .text.LCD_ShowChinese:0000000000000010 .L0 
/var/folders/rt/4gvqv631095f64jvm7jfj_000000gn/T//cc1i8NTO.s:1805   .text.LCD_ShowChinese:0000000000000010 .L0 
/var/folders/rt/4gvqv631095f64jvm7jfj_000000gn/T//cc1i8NTO.s:1806   .text.LCD_ShowChinese:0000000000000010 .L0 
/var/folders/rt/4gvqv631095f64jvm7jfj_000000gn/T//cc1i8NTO.s:1808   .text.LCD_ShowChinese:0000000000000010 .L0 
/var/folders/rt/4gvqv631095f64jvm7jfj_000000gn/T//cc1i8NTO.s:1810   .text.LCD_ShowChinese:0000000000000014 .L0 
/var/folders/rt/4gvqv631095f64jvm7jfj_000000gn/T//cc1i8NTO.s:1814   .text.LCD_ShowChinese:000000000000001a .L0 
/var/folders/rt/4gvqv631095f64jvm7jfj_000000gn/T//cc1i8NTO.s:1816   .text.LCD_ShowChinese:000000000000001e .L0 
/var/folders/rt/4gvqv631095f64jvm7jfj_000000gn/T//cc1i8NTO.s:1821   .text.LCD_ShowChinese:0000000000000026 .L0 
/var/folders/rt/4gvqv631095f64jvm7jfj_000000gn/T//cc1i8NTO.s:1828   .text.LCD_ShowChinese:0000000000000032 .L0 
/var/folders/rt/4gvqv631095f64jvm7jfj_000000gn/T//cc1i8NTO.s:1830   .text.LCD_ShowChinese:0000000000000036 .L0 
/var/folders/rt/4gvqv631095f64jvm7jfj_000000gn/T//cc1i8NTO.s:1833   .text.LCD_ShowChinese:000000000000003e .L0 
                            *COM*:0000000000000004 BACK_COLOR
/var/folders/rt/4gvqv631095f64jvm7jfj_000000gn/T//cc1i8NTO.s:1834   .text.LCD_ShowChinese:000000000000003e .L0 
/var/folders/rt/4gvqv631095f64jvm7jfj_000000gn/T//cc1i8NTO.s:1836   .text.LCD_ShowChinese:0000000000000042 .L0 
/var/folders/rt/4gvqv631095f64jvm7jfj_000000gn/T//cc1i8NTO.s:1838   .text.LCD_ShowChinese:0000000000000044 .L0 
/var/folders/rt/4gvqv631095f64jvm7jfj_000000gn/T//cc1i8NTO.s:1841   .text.LCD_ShowChinese:0000000000000046 .L0 
/var/folders/rt/4gvqv631095f64jvm7jfj_000000gn/T//cc1i8NTO.s:1842   .text.LCD_ShowChinese:0000000000000046 .L0 
/var/folders/rt/4gvqv631095f64jvm7jfj_000000gn/T//cc1i8NTO.s:1846   .text.LCD_ShowChinese:000000000000004e .L0 
/var/folders/rt/4gvqv631095f64jvm7jfj_000000gn/T//cc1i8NTO.s:1849   .text.LCD_ShowChinese:0000000000000050 .L0 
/var/folders/rt/4gvqv631095f64jvm7jfj_000000gn/T//cc1i8NTO.s:1852   .text.LCD_ShowChinese:0000000000000052 .L0 
/var/folders/rt/4gvqv631095f64jvm7jfj_000000gn/T//cc1i8NTO.s:1854   .text.LCD_ShowChinese:0000000000000056 .L0 
/var/folders/rt/4gvqv631095f64jvm7jfj_000000gn/T//cc1i8NTO.s:1855   .text.LCD_ShowChinese:0000000000000058 .L0 
/var/folders/rt/4gvqv631095f64jvm7jfj_000000gn/T//cc1i8NTO.s:1856   .text.LCD_ShowChinese:0000000000000058 .L0 
/var/folders/rt/4gvqv631095f64jvm7jfj_000000gn/T//cc1i8NTO.s:1858   .text.LCD_ShowChinese:000000000000005a .L0 
/var/folders/rt/4gvqv631095f64jvm7jfj_000000gn/T//cc1i8NTO.s:1860   .text.LCD_ShowChinese:000000000000005c .L0 
/var/folders/rt/4gvqv631095f64jvm7jfj_000000gn/T//cc1i8NTO.s:1863   .text.LCD_ShowChinese:000000000000005e .L0 
/var/folders/rt/4gvqv631095f64jvm7jfj_000000gn/T//cc1i8NTO.s:1866   .text.LCD_ShowChinese:0000000000000060 .L0 
/var/folders/rt/4gvqv631095f64jvm7jfj_000000gn/T//cc1i8NTO.s:1868   .text.LCD_ShowChinese:0000000000000062 .L0 
/var/folders/rt/4gvqv631095f64jvm7jfj_000000gn/T//cc1i8NTO.s:1870   .text.LCD_ShowChinese:0000000000000064 .L0 
/var/folders/rt/4gvqv631095f64jvm7jfj_000000gn/T//cc1i8NTO.s:1873   .text.LCD_ShowChinese:0000000000000066 .L0 
/var/folders/rt/4gvqv631095f64jvm7jfj_000000gn/T//cc1i8NTO.s:1878   .text.LCD_ShowChinese:0000000000000068 .L0 
/var/folders/rt/4gvqv631095f64jvm7jfj_000000gn/T//cc1i8NTO.s:1888   .text.LCD_ShowChinese:0000000000000074 .L0 
/var/folders/rt/4gvqv631095f64jvm7jfj_000000gn/T//cc1i8NTO.s:1889   .text.LCD_ShowChinese:0000000000000074 .L0 
/var/folders/rt/4gvqv631095f64jvm7jfj_000000gn/T//cc1i8NTO.s:1891   .text.LCD_ShowChinese:0000000000000078 .L0 
/var/folders/rt/4gvqv631095f64jvm7jfj_000000gn/T//cc1i8NTO.s:1893   .text.LCD_ShowChinese:000000000000007a .L0 
/var/folders/rt/4gvqv631095f64jvm7jfj_000000gn/T//cc1i8NTO.s:1896   .text.LCD_ShowChinese:0000000000000080 .L0 
/var/folders/rt/4gvqv631095f64jvm7jfj_000000gn/T//cc1i8NTO.s:1899   .text.LCD_ShowChinese:0000000000000082 .L0 
/var/folders/rt/4gvqv631095f64jvm7jfj_000000gn/T//cc1i8NTO.s:1907   .text.LCD_ShowChinese:0000000000000090 .L0 
/var/folders/rt/4gvqv631095f64jvm7jfj_000000gn/T//cc1i8NTO.s:1909   .text.LCD_ShowChinese:0000000000000094 .L0 
/var/folders/rt/4gvqv631095f64jvm7jfj_000000gn/T//cc1i8NTO.s:1910   .text.LCD_ShowChinese:0000000000000094 .L0 
/var/folders/rt/4gvqv631095f64jvm7jfj_000000gn/T//cc1i8NTO.s:1913   .text.LCD_ShowChinese:0000000000000098 .L0 
/var/folders/rt/4gvqv631095f64jvm7jfj_000000gn/T//cc1i8NTO.s:1920   .text.LCD_DrawPoint:0000000000000000 LCD_DrawPoint
/var/folders/rt/4gvqv631095f64jvm7jfj_000000gn/T//cc1i8NTO.s:1923   .text.LCD_DrawPoint:0000000000000000 .L0 
/var/folders/rt/4gvqv631095f64jvm7jfj_000000gn/T//cc1i8NTO.s:1925   .text.LCD_DrawPoint:0000000000000000 .L0 
/var/folders/rt/4gvqv631095f64jvm7jfj_000000gn/T//cc1i8NTO.s:1926   .text.LCD_DrawPoint:0000000000000000 .L0 
/var/folders/rt/4gvqv631095f64jvm7jfj_000000gn/T//cc1i8NTO.s:1927   .text.LCD_DrawPoint:0000000000000000 .L0 
/var/folders/rt/4gvqv631095f64jvm7jfj_000000gn/T//cc1i8NTO.s:1929   .text.LCD_DrawPoint:0000000000000002 .L0 
/var/folders/rt/4gvqv631095f64jvm7jfj_000000gn/T//cc1i8NTO.s:1932   .text.LCD_DrawPoint:0000000000000004 .L0 
GAS LISTING /var/folders/rt/4gvqv631095f64jvm7jfj_000000gn/T//cc1i8NTO.s 			page 137


/var/folders/rt/4gvqv631095f64jvm7jfj_000000gn/T//cc1i8NTO.s:1933   .text.LCD_DrawPoint:0000000000000006 .L0 
/var/folders/rt/4gvqv631095f64jvm7jfj_000000gn/T//cc1i8NTO.s:1935   .text.LCD_DrawPoint:0000000000000006 .L0 
/var/folders/rt/4gvqv631095f64jvm7jfj_000000gn/T//cc1i8NTO.s:1937   .text.LCD_DrawPoint:0000000000000008 .L0 
/var/folders/rt/4gvqv631095f64jvm7jfj_000000gn/T//cc1i8NTO.s:1940   .text.LCD_DrawPoint:000000000000000a .L0 
/var/folders/rt/4gvqv631095f64jvm7jfj_000000gn/T//cc1i8NTO.s:1941   .text.LCD_DrawPoint:000000000000000c .L0 
/var/folders/rt/4gvqv631095f64jvm7jfj_000000gn/T//cc1i8NTO.s:1943   .text.LCD_DrawPoint:000000000000000c .L0 
/var/folders/rt/4gvqv631095f64jvm7jfj_000000gn/T//cc1i8NTO.s:1946   .text.LCD_DrawPoint:0000000000000014 .L0 
/var/folders/rt/4gvqv631095f64jvm7jfj_000000gn/T//cc1i8NTO.s:1948   .text.LCD_DrawPoint:0000000000000016 .L0 
/var/folders/rt/4gvqv631095f64jvm7jfj_000000gn/T//cc1i8NTO.s:1949   .text.LCD_DrawPoint:0000000000000018 .L0 
/var/folders/rt/4gvqv631095f64jvm7jfj_000000gn/T//cc1i8NTO.s:1952   .text.LCD_DrawPoint:000000000000001a .L0 
/var/folders/rt/4gvqv631095f64jvm7jfj_000000gn/T//cc1i8NTO.s:1955   .text.LCD_DrawPoint:000000000000001c .L0 
/var/folders/rt/4gvqv631095f64jvm7jfj_000000gn/T//cc1i8NTO.s:1957   .text.LCD_DrawPoint:000000000000001c .L0 
/var/folders/rt/4gvqv631095f64jvm7jfj_000000gn/T//cc1i8NTO.s:1959   .text.LCD_DrawPoint:0000000000000024 .L0 
/var/folders/rt/4gvqv631095f64jvm7jfj_000000gn/T//cc1i8NTO.s:1966   .text.LCD_Fill:0000000000000000 LCD_Fill
/var/folders/rt/4gvqv631095f64jvm7jfj_000000gn/T//cc1i8NTO.s:1969   .text.LCD_Fill:0000000000000000 .L0 
/var/folders/rt/4gvqv631095f64jvm7jfj_000000gn/T//cc1i8NTO.s:1971   .text.LCD_Fill:0000000000000000 .L0 
/var/folders/rt/4gvqv631095f64jvm7jfj_000000gn/T//cc1i8NTO.s:1972   .text.LCD_Fill:0000000000000000 .L0 
/var/folders/rt/4gvqv631095f64jvm7jfj_000000gn/T//cc1i8NTO.s:1973   .text.LCD_Fill:0000000000000000 .L0 
/var/folders/rt/4gvqv631095f64jvm7jfj_000000gn/T//cc1i8NTO.s:1974   .text.LCD_Fill:0000000000000000 .L0 
/var/folders/rt/4gvqv631095f64jvm7jfj_000000gn/T//cc1i8NTO.s:1976   .text.LCD_Fill:0000000000000002 .L0 
/var/folders/rt/4gvqv631095f64jvm7jfj_000000gn/T//cc1i8NTO.s:1984   .text.LCD_Fill:0000000000000010 .L0 
/var/folders/rt/4gvqv631095f64jvm7jfj_000000gn/T//cc1i8NTO.s:1985   .text.LCD_Fill:0000000000000010 .L0 
/var/folders/rt/4gvqv631095f64jvm7jfj_000000gn/T//cc1i8NTO.s:1986   .text.LCD_Fill:0000000000000010 .L0 
/var/folders/rt/4gvqv631095f64jvm7jfj_000000gn/T//cc1i8NTO.s:1987   .text.LCD_Fill:0000000000000010 .L0 
/var/folders/rt/4gvqv631095f64jvm7jfj_000000gn/T//cc1i8NTO.s:1988   .text.LCD_Fill:0000000000000010 .L0 
/var/folders/rt/4gvqv631095f64jvm7jfj_000000gn/T//cc1i8NTO.s:1989   .text.LCD_Fill:0000000000000010 .L0 
/var/folders/rt/4gvqv631095f64jvm7jfj_000000gn/T//cc1i8NTO.s:1990   .text.LCD_Fill:0000000000000010 .L0 
/var/folders/rt/4gvqv631095f64jvm7jfj_000000gn/T//cc1i8NTO.s:1992   .text.LCD_Fill:0000000000000010 .L0 
/var/folders/rt/4gvqv631095f64jvm7jfj_000000gn/T//cc1i8NTO.s:1998   .text.LCD_Fill:000000000000001a .L0 
/var/folders/rt/4gvqv631095f64jvm7jfj_000000gn/T//cc1i8NTO.s:2002   .text.LCD_Fill:0000000000000022 .L0 
/var/folders/rt/4gvqv631095f64jvm7jfj_000000gn/T//cc1i8NTO.s:2003   .text.LCD_Fill:0000000000000022 .L0 
/var/folders/rt/4gvqv631095f64jvm7jfj_000000gn/T//cc1i8NTO.s:2005   .text.LCD_Fill:0000000000000026 .L0 
/var/folders/rt/4gvqv631095f64jvm7jfj_000000gn/T//cc1i8NTO.s:2006   .text.LCD_Fill:0000000000000028 .L0 
/var/folders/rt/4gvqv631095f64jvm7jfj_000000gn/T//cc1i8NTO.s:2007   .text.LCD_Fill:0000000000000028 .L0 
/var/folders/rt/4gvqv631095f64jvm7jfj_000000gn/T//cc1i8NTO.s:2009   .text.LCD_Fill:000000000000002a .L0 
/var/folders/rt/4gvqv631095f64jvm7jfj_000000gn/T//cc1i8NTO.s:2012   .text.LCD_Fill:000000000000002c .L0 
/var/folders/rt/4gvqv631095f64jvm7jfj_000000gn/T//cc1i8NTO.s:2014   .text.LCD_Fill:000000000000002e .L0 
/var/folders/rt/4gvqv631095f64jvm7jfj_000000gn/T//cc1i8NTO.s:2017   .text.LCD_Fill:0000000000000030 .L0 
/var/folders/rt/4gvqv631095f64jvm7jfj_000000gn/T//cc1i8NTO.s:2020   .text.LCD_Fill:0000000000000032 .L0 
/var/folders/rt/4gvqv631095f64jvm7jfj_000000gn/T//cc1i8NTO.s:2023   .text.LCD_Fill:0000000000000034 .L0 
/var/folders/rt/4gvqv631095f64jvm7jfj_000000gn/T//cc1i8NTO.s:2027   .text.LCD_Fill:0000000000000036 .L0 
/var/folders/rt/4gvqv631095f64jvm7jfj_000000gn/T//cc1i8NTO.s:2032   .text.LCD_Fill:0000000000000038 .L0 
/var/folders/rt/4gvqv631095f64jvm7jfj_000000gn/T//cc1i8NTO.s:2034   .text.LCD_Fill:0000000000000038 .L0 
/var/folders/rt/4gvqv631095f64jvm7jfj_000000gn/T//cc1i8NTO.s:2038   .text.LCD_Fill:0000000000000042 .L0 
/var/folders/rt/4gvqv631095f64jvm7jfj_000000gn/T//cc1i8NTO.s:2042   .text.LCD_Fill:0000000000000044 .L0 
/var/folders/rt/4gvqv631095f64jvm7jfj_000000gn/T//cc1i8NTO.s:2044   .text.LCD_Fill:0000000000000048 .L0 
/var/folders/rt/4gvqv631095f64jvm7jfj_000000gn/T//cc1i8NTO.s:2050   .text.LCD_Fill:000000000000004c .L0 
/var/folders/rt/4gvqv631095f64jvm7jfj_000000gn/T//cc1i8NTO.s:2052   .text.LCD_Fill:0000000000000050 .L0 
/var/folders/rt/4gvqv631095f64jvm7jfj_000000gn/T//cc1i8NTO.s:2059   .text.LCD_DrawPoint_big:0000000000000000 LCD_DrawPoint_big
/var/folders/rt/4gvqv631095f64jvm7jfj_000000gn/T//cc1i8NTO.s:2062   .text.LCD_DrawPoint_big:0000000000000000 .L0 
/var/folders/rt/4gvqv631095f64jvm7jfj_000000gn/T//cc1i8NTO.s:2064   .text.LCD_DrawPoint_big:0000000000000000 .L0 
/var/folders/rt/4gvqv631095f64jvm7jfj_000000gn/T//cc1i8NTO.s:2065   .text.LCD_DrawPoint_big:0000000000000000 .L0 
/var/folders/rt/4gvqv631095f64jvm7jfj_000000gn/T//cc1i8NTO.s:2075   .text.LCD_DrawPoint_big:0000000000000016 .L0 
/var/folders/rt/4gvqv631095f64jvm7jfj_000000gn/T//cc1i8NTO.s:2082   .text.LCD_DrawLine:0000000000000000 LCD_DrawLine
/var/folders/rt/4gvqv631095f64jvm7jfj_000000gn/T//cc1i8NTO.s:2085   .text.LCD_DrawLine:0000000000000000 .L0 
/var/folders/rt/4gvqv631095f64jvm7jfj_000000gn/T//cc1i8NTO.s:2087   .text.LCD_DrawLine:0000000000000000 .L0 
/var/folders/rt/4gvqv631095f64jvm7jfj_000000gn/T//cc1i8NTO.s:2088   .text.LCD_DrawLine:0000000000000000 .L0 
GAS LISTING /var/folders/rt/4gvqv631095f64jvm7jfj_000000gn/T//cc1i8NTO.s 			page 138


/var/folders/rt/4gvqv631095f64jvm7jfj_000000gn/T//cc1i8NTO.s:2089   .text.LCD_DrawLine:0000000000000000 .L0 
/var/folders/rt/4gvqv631095f64jvm7jfj_000000gn/T//cc1i8NTO.s:2090   .text.LCD_DrawLine:0000000000000000 .L0 
/var/folders/rt/4gvqv631095f64jvm7jfj_000000gn/T//cc1i8NTO.s:2091   .text.LCD_DrawLine:0000000000000000 .L0 
/var/folders/rt/4gvqv631095f64jvm7jfj_000000gn/T//cc1i8NTO.s:2092   .text.LCD_DrawLine:0000000000000000 .L0 
/var/folders/rt/4gvqv631095f64jvm7jfj_000000gn/T//cc1i8NTO.s:2094   .text.LCD_DrawLine:0000000000000002 .L0 
/var/folders/rt/4gvqv631095f64jvm7jfj_000000gn/T//cc1i8NTO.s:2107   .text.LCD_DrawLine:000000000000001a .L0 
/var/folders/rt/4gvqv631095f64jvm7jfj_000000gn/T//cc1i8NTO.s:2108   .text.LCD_DrawLine:000000000000001a .L0 
/var/folders/rt/4gvqv631095f64jvm7jfj_000000gn/T//cc1i8NTO.s:2109   .text.LCD_DrawLine:000000000000001a .L0 
/var/folders/rt/4gvqv631095f64jvm7jfj_000000gn/T//cc1i8NTO.s:2110   .text.LCD_DrawLine:000000000000001a .L0 
/var/folders/rt/4gvqv631095f64jvm7jfj_000000gn/T//cc1i8NTO.s:2111   .text.LCD_DrawLine:000000000000001a .L0 
/var/folders/rt/4gvqv631095f64jvm7jfj_000000gn/T//cc1i8NTO.s:2112   .text.LCD_DrawLine:000000000000001a .L0 
/var/folders/rt/4gvqv631095f64jvm7jfj_000000gn/T//cc1i8NTO.s:2113   .text.LCD_DrawLine:000000000000001a .L0 
/var/folders/rt/4gvqv631095f64jvm7jfj_000000gn/T//cc1i8NTO.s:2114   .text.LCD_DrawLine:000000000000001a .L0 
/var/folders/rt/4gvqv631095f64jvm7jfj_000000gn/T//cc1i8NTO.s:2115   .text.LCD_DrawLine:000000000000001a .L0 
/var/folders/rt/4gvqv631095f64jvm7jfj_000000gn/T//cc1i8NTO.s:2116   .text.LCD_DrawLine:000000000000001a .L0 
/var/folders/rt/4gvqv631095f64jvm7jfj_000000gn/T//cc1i8NTO.s:2117   .text.LCD_DrawLine:000000000000001a .L0 
/var/folders/rt/4gvqv631095f64jvm7jfj_000000gn/T//cc1i8NTO.s:2118   .text.LCD_DrawLine:000000000000001a .L0 
/var/folders/rt/4gvqv631095f64jvm7jfj_000000gn/T//cc1i8NTO.s:2120   .text.LCD_DrawLine:000000000000001a .L0 
/var/folders/rt/4gvqv631095f64jvm7jfj_000000gn/T//cc1i8NTO.s:2123   .text.LCD_DrawLine:000000000000001e .L0 
/var/folders/rt/4gvqv631095f64jvm7jfj_000000gn/T//cc1i8NTO.s:2124   .text.LCD_DrawLine:000000000000001e .L0 
/var/folders/rt/4gvqv631095f64jvm7jfj_000000gn/T//cc1i8NTO.s:2127   .text.LCD_DrawLine:0000000000000022 .L0 
/var/folders/rt/4gvqv631095f64jvm7jfj_000000gn/T//cc1i8NTO.s:2128   .text.LCD_DrawLine:0000000000000022 .L0 
/var/folders/rt/4gvqv631095f64jvm7jfj_000000gn/T//cc1i8NTO.s:2131   .text.LCD_DrawLine:0000000000000024 .L0 
/var/folders/rt/4gvqv631095f64jvm7jfj_000000gn/T//cc1i8NTO.s:2132   .text.LCD_DrawLine:0000000000000024 .L0 
/var/folders/rt/4gvqv631095f64jvm7jfj_000000gn/T//cc1i8NTO.s:2135   .text.LCD_DrawLine:0000000000000026 .L0 
/var/folders/rt/4gvqv631095f64jvm7jfj_000000gn/T//cc1i8NTO.s:2136   .text.LCD_DrawLine:0000000000000026 .L0 
/var/folders/rt/4gvqv631095f64jvm7jfj_000000gn/T//cc1i8NTO.s:2138   .text.LCD_DrawLine:0000000000000028 .L0 
/var/folders/rt/4gvqv631095f64jvm7jfj_000000gn/T//cc1i8NTO.s:2140   .text.LCD_DrawLine:000000000000002c .L0 
/var/folders/rt/4gvqv631095f64jvm7jfj_000000gn/T//cc1i8NTO.s:2141   .text.LCD_DrawLine:000000000000002c .L0 
/var/folders/rt/4gvqv631095f64jvm7jfj_000000gn/T//cc1i8NTO.s:2143   .text.LCD_DrawLine:000000000000002e .L0 
/var/folders/rt/4gvqv631095f64jvm7jfj_000000gn/T//cc1i8NTO.s:2146   .text.LCD_DrawLine:0000000000000030 .L0 
/var/folders/rt/4gvqv631095f64jvm7jfj_000000gn/T//cc1i8NTO.s:2147   .text.LCD_DrawLine:0000000000000030 .L0 
/var/folders/rt/4gvqv631095f64jvm7jfj_000000gn/T//cc1i8NTO.s:2148   .text.LCD_DrawLine:0000000000000030 .L0 
/var/folders/rt/4gvqv631095f64jvm7jfj_000000gn/T//cc1i8NTO.s:2151   .text.LCD_DrawLine:0000000000000034 .L0 
/var/folders/rt/4gvqv631095f64jvm7jfj_000000gn/T//cc1i8NTO.s:2155   .text.LCD_DrawLine:0000000000000036 .L0 
/var/folders/rt/4gvqv631095f64jvm7jfj_000000gn/T//cc1i8NTO.s:2156   .text.LCD_DrawLine:0000000000000036 .L0 
/var/folders/rt/4gvqv631095f64jvm7jfj_000000gn/T//cc1i8NTO.s:2158   .text.LCD_DrawLine:0000000000000038 .L0 
/var/folders/rt/4gvqv631095f64jvm7jfj_000000gn/T//cc1i8NTO.s:2160   .text.LCD_DrawLine:000000000000003c .L0 
/var/folders/rt/4gvqv631095f64jvm7jfj_000000gn/T//cc1i8NTO.s:2161   .text.LCD_DrawLine:000000000000003c .L0 
/var/folders/rt/4gvqv631095f64jvm7jfj_000000gn/T//cc1i8NTO.s:2163   .text.LCD_DrawLine:000000000000003e .L0 
/var/folders/rt/4gvqv631095f64jvm7jfj_000000gn/T//cc1i8NTO.s:2166   .text.LCD_DrawLine:0000000000000040 .L0 
/var/folders/rt/4gvqv631095f64jvm7jfj_000000gn/T//cc1i8NTO.s:2167   .text.LCD_DrawLine:0000000000000040 .L0 
/var/folders/rt/4gvqv631095f64jvm7jfj_000000gn/T//cc1i8NTO.s:2168   .text.LCD_DrawLine:0000000000000040 .L0 
/var/folders/rt/4gvqv631095f64jvm7jfj_000000gn/T//cc1i8NTO.s:2171   .text.LCD_DrawLine:0000000000000044 .L0 
/var/folders/rt/4gvqv631095f64jvm7jfj_000000gn/T//cc1i8NTO.s:2175   .text.LCD_DrawLine:0000000000000046 .L0 
/var/folders/rt/4gvqv631095f64jvm7jfj_000000gn/T//cc1i8NTO.s:2181   .text.LCD_DrawLine:000000000000004e .L0 
/var/folders/rt/4gvqv631095f64jvm7jfj_000000gn/T//cc1i8NTO.s:2182   .text.LCD_DrawLine:000000000000004e .L0 
/var/folders/rt/4gvqv631095f64jvm7jfj_000000gn/T//cc1i8NTO.s:2184   .text.LCD_DrawLine:0000000000000050 .L0 
/var/folders/rt/4gvqv631095f64jvm7jfj_000000gn/T//cc1i8NTO.s:2186   .text.LCD_DrawLine:0000000000000052 .L0 
/var/folders/rt/4gvqv631095f64jvm7jfj_000000gn/T//cc1i8NTO.s:2188   .text.LCD_DrawLine:0000000000000054 .L0 
/var/folders/rt/4gvqv631095f64jvm7jfj_000000gn/T//cc1i8NTO.s:2192   .text.LCD_DrawLine:0000000000000058 .L0 
/var/folders/rt/4gvqv631095f64jvm7jfj_000000gn/T//cc1i8NTO.s:2197   .text.LCD_DrawLine:0000000000000060 .L0 
/var/folders/rt/4gvqv631095f64jvm7jfj_000000gn/T//cc1i8NTO.s:2200   .text.LCD_DrawLine:0000000000000062 .L0 
/var/folders/rt/4gvqv631095f64jvm7jfj_000000gn/T//cc1i8NTO.s:2203   .text.LCD_DrawLine:000000000000006a .L0 
/var/folders/rt/4gvqv631095f64jvm7jfj_000000gn/T//cc1i8NTO.s:2204   .text.LCD_DrawLine:000000000000006a .L0 
/var/folders/rt/4gvqv631095f64jvm7jfj_000000gn/T//cc1i8NTO.s:2205   .text.LCD_DrawLine:000000000000006a .L0 
/var/folders/rt/4gvqv631095f64jvm7jfj_000000gn/T//cc1i8NTO.s:2208   .text.LCD_DrawLine:000000000000006c .L0 
GAS LISTING /var/folders/rt/4gvqv631095f64jvm7jfj_000000gn/T//cc1i8NTO.s 			page 139


/var/folders/rt/4gvqv631095f64jvm7jfj_000000gn/T//cc1i8NTO.s:2209   .text.LCD_DrawLine:000000000000006c .L0 
/var/folders/rt/4gvqv631095f64jvm7jfj_000000gn/T//cc1i8NTO.s:2212   .text.LCD_DrawLine:0000000000000072 .L0 
/var/folders/rt/4gvqv631095f64jvm7jfj_000000gn/T//cc1i8NTO.s:2213   .text.LCD_DrawLine:0000000000000072 .L0 
/var/folders/rt/4gvqv631095f64jvm7jfj_000000gn/T//cc1i8NTO.s:2216   .text.LCD_DrawLine:0000000000000076 .L0 
/var/folders/rt/4gvqv631095f64jvm7jfj_000000gn/T//cc1i8NTO.s:2217   .text.LCD_DrawLine:0000000000000076 .L0 
/var/folders/rt/4gvqv631095f64jvm7jfj_000000gn/T//cc1i8NTO.s:2221   .text.LCD_DrawLine:0000000000000078 .L0 
/var/folders/rt/4gvqv631095f64jvm7jfj_000000gn/T//cc1i8NTO.s:2222   .text.LCD_DrawLine:0000000000000078 .L0 
/var/folders/rt/4gvqv631095f64jvm7jfj_000000gn/T//cc1i8NTO.s:2224   .text.LCD_DrawLine:000000000000007c .L0 
/var/folders/rt/4gvqv631095f64jvm7jfj_000000gn/T//cc1i8NTO.s:2225   .text.LCD_DrawLine:000000000000007c .L0 
/var/folders/rt/4gvqv631095f64jvm7jfj_000000gn/T//cc1i8NTO.s:2228   .text.LCD_DrawLine:0000000000000080 .L0 
/var/folders/rt/4gvqv631095f64jvm7jfj_000000gn/T//cc1i8NTO.s:2229   .text.LCD_DrawLine:0000000000000080 .L0 
/var/folders/rt/4gvqv631095f64jvm7jfj_000000gn/T//cc1i8NTO.s:2233   .text.LCD_DrawLine:0000000000000082 .L0 
/var/folders/rt/4gvqv631095f64jvm7jfj_000000gn/T//cc1i8NTO.s:2236   .text.LCD_DrawLine:0000000000000084 .L0 
/var/folders/rt/4gvqv631095f64jvm7jfj_000000gn/T//cc1i8NTO.s:2238   .text.LCD_DrawLine:0000000000000088 .L0 
/var/folders/rt/4gvqv631095f64jvm7jfj_000000gn/T//cc1i8NTO.s:2239   .text.LCD_DrawLine:000000000000008a .L0 
/var/folders/rt/4gvqv631095f64jvm7jfj_000000gn/T//cc1i8NTO.s:2241   .text.LCD_DrawLine:000000000000008c .L0 
/var/folders/rt/4gvqv631095f64jvm7jfj_000000gn/T//cc1i8NTO.s:2244   .text.LCD_DrawLine:000000000000008e .L0 
/var/folders/rt/4gvqv631095f64jvm7jfj_000000gn/T//cc1i8NTO.s:2247   .text.LCD_DrawLine:0000000000000090 .L0 
/var/folders/rt/4gvqv631095f64jvm7jfj_000000gn/T//cc1i8NTO.s:2250   .text.LCD_DrawLine:0000000000000092 .L0 
/var/folders/rt/4gvqv631095f64jvm7jfj_000000gn/T//cc1i8NTO.s:2253   .text.LCD_DrawLine:0000000000000094 .L0 
/var/folders/rt/4gvqv631095f64jvm7jfj_000000gn/T//cc1i8NTO.s:2256   .text.LCD_DrawLine:0000000000000096 .L0 
/var/folders/rt/4gvqv631095f64jvm7jfj_000000gn/T//cc1i8NTO.s:2259   .text.LCD_DrawLine:0000000000000098 .L0 
/var/folders/rt/4gvqv631095f64jvm7jfj_000000gn/T//cc1i8NTO.s:2262   .text.LCD_DrawLine:000000000000009a .L0 
/var/folders/rt/4gvqv631095f64jvm7jfj_000000gn/T//cc1i8NTO.s:2265   .text.LCD_DrawLine:000000000000009c .L0 
/var/folders/rt/4gvqv631095f64jvm7jfj_000000gn/T//cc1i8NTO.s:2268   .text.LCD_DrawLine:000000000000009e .L0 
/var/folders/rt/4gvqv631095f64jvm7jfj_000000gn/T//cc1i8NTO.s:2271   .text.LCD_DrawLine:00000000000000a0 .L0 
/var/folders/rt/4gvqv631095f64jvm7jfj_000000gn/T//cc1i8NTO.s:2275   .text.LCD_DrawLine:00000000000000a2 .L0 
/var/folders/rt/4gvqv631095f64jvm7jfj_000000gn/T//cc1i8NTO.s:2277   .text.LCD_DrawLine:00000000000000a4 .L0 
/var/folders/rt/4gvqv631095f64jvm7jfj_000000gn/T//cc1i8NTO.s:2284   .text.LCD_DrawRectangle:0000000000000000 LCD_DrawRectangle
/var/folders/rt/4gvqv631095f64jvm7jfj_000000gn/T//cc1i8NTO.s:2287   .text.LCD_DrawRectangle:0000000000000000 .L0 
/var/folders/rt/4gvqv631095f64jvm7jfj_000000gn/T//cc1i8NTO.s:2289   .text.LCD_DrawRectangle:0000000000000000 .L0 
/var/folders/rt/4gvqv631095f64jvm7jfj_000000gn/T//cc1i8NTO.s:2290   .text.LCD_DrawRectangle:0000000000000000 .L0 
/var/folders/rt/4gvqv631095f64jvm7jfj_000000gn/T//cc1i8NTO.s:2291   .text.LCD_DrawRectangle:0000000000000000 .L0 
/var/folders/rt/4gvqv631095f64jvm7jfj_000000gn/T//cc1i8NTO.s:2293   .text.LCD_DrawRectangle:0000000000000002 .L0 
/var/folders/rt/4gvqv631095f64jvm7jfj_000000gn/T//cc1i8NTO.s:2295   .text.LCD_DrawRectangle:0000000000000004 .L0 
/var/folders/rt/4gvqv631095f64jvm7jfj_000000gn/T//cc1i8NTO.s:2298   .text.LCD_DrawRectangle:0000000000000006 .L0 
/var/folders/rt/4gvqv631095f64jvm7jfj_000000gn/T//cc1i8NTO.s:2301   .text.LCD_DrawRectangle:0000000000000008 .L0 
/var/folders/rt/4gvqv631095f64jvm7jfj_000000gn/T//cc1i8NTO.s:2306   .text.LCD_DrawRectangle:0000000000000012 .L0 
/var/folders/rt/4gvqv631095f64jvm7jfj_000000gn/T//cc1i8NTO.s:2307   .text.LCD_DrawRectangle:0000000000000012 .L0 
/var/folders/rt/4gvqv631095f64jvm7jfj_000000gn/T//cc1i8NTO.s:2308   .text.LCD_DrawRectangle:0000000000000012 .L0 
/var/folders/rt/4gvqv631095f64jvm7jfj_000000gn/T//cc1i8NTO.s:2309   .text.LCD_DrawRectangle:0000000000000012 .L0 
/var/folders/rt/4gvqv631095f64jvm7jfj_000000gn/T//cc1i8NTO.s:2310   .text.LCD_DrawRectangle:0000000000000012 .L0 
/var/folders/rt/4gvqv631095f64jvm7jfj_000000gn/T//cc1i8NTO.s:2312   .text.LCD_DrawRectangle:0000000000000012 .L0 
/var/folders/rt/4gvqv631095f64jvm7jfj_000000gn/T//cc1i8NTO.s:2317   .text.LCD_DrawRectangle:000000000000001a .L0 
/var/folders/rt/4gvqv631095f64jvm7jfj_000000gn/T//cc1i8NTO.s:2320   .text.LCD_DrawRectangle:0000000000000022 .L0 
/var/folders/rt/4gvqv631095f64jvm7jfj_000000gn/T//cc1i8NTO.s:2328   .text.LCD_DrawRectangle:0000000000000034 .L0 
/var/folders/rt/4gvqv631095f64jvm7jfj_000000gn/T//cc1i8NTO.s:2336   .text.LCD_DrawRectangle:0000000000000046 .L0 
/var/folders/rt/4gvqv631095f64jvm7jfj_000000gn/T//cc1i8NTO.s:2338   .text.LCD_DrawRectangle:0000000000000048 .L0 
/var/folders/rt/4gvqv631095f64jvm7jfj_000000gn/T//cc1i8NTO.s:2339   .text.LCD_DrawRectangle:000000000000004a .L0 
/var/folders/rt/4gvqv631095f64jvm7jfj_000000gn/T//cc1i8NTO.s:2342   .text.LCD_DrawRectangle:000000000000004c .L0 
/var/folders/rt/4gvqv631095f64jvm7jfj_000000gn/T//cc1i8NTO.s:2344   .text.LCD_DrawRectangle:000000000000004e .L0 
/var/folders/rt/4gvqv631095f64jvm7jfj_000000gn/T//cc1i8NTO.s:2347   .text.LCD_DrawRectangle:000000000000004e .L0 
/var/folders/rt/4gvqv631095f64jvm7jfj_000000gn/T//cc1i8NTO.s:2350   .text.LCD_DrawRectangle:0000000000000052 .L0 
/var/folders/rt/4gvqv631095f64jvm7jfj_000000gn/T//cc1i8NTO.s:2351   .text.LCD_DrawRectangle:0000000000000054 .L0 
/var/folders/rt/4gvqv631095f64jvm7jfj_000000gn/T//cc1i8NTO.s:2354   .text.LCD_DrawRectangle:0000000000000054 .L0 
/var/folders/rt/4gvqv631095f64jvm7jfj_000000gn/T//cc1i8NTO.s:2357   .text.LCD_DrawRectangle:0000000000000058 .L0 
/var/folders/rt/4gvqv631095f64jvm7jfj_000000gn/T//cc1i8NTO.s:2358   .text.LCD_DrawRectangle:000000000000005a .L0 
GAS LISTING /var/folders/rt/4gvqv631095f64jvm7jfj_000000gn/T//cc1i8NTO.s 			page 140


/var/folders/rt/4gvqv631095f64jvm7jfj_000000gn/T//cc1i8NTO.s:2361   .text.LCD_DrawRectangle:000000000000005c .L0 
/var/folders/rt/4gvqv631095f64jvm7jfj_000000gn/T//cc1i8NTO.s:2365   .text.LCD_DrawRectangle:000000000000005e .L0 
/var/folders/rt/4gvqv631095f64jvm7jfj_000000gn/T//cc1i8NTO.s:2367   .text.LCD_DrawRectangle:000000000000005e .L0 
/var/folders/rt/4gvqv631095f64jvm7jfj_000000gn/T//cc1i8NTO.s:2369   .text.LCD_DrawRectangle:0000000000000066 .L0 
/var/folders/rt/4gvqv631095f64jvm7jfj_000000gn/T//cc1i8NTO.s:2376   .text.Draw_Circle:0000000000000000 Draw_Circle
/var/folders/rt/4gvqv631095f64jvm7jfj_000000gn/T//cc1i8NTO.s:2379   .text.Draw_Circle:0000000000000000 .L0 
/var/folders/rt/4gvqv631095f64jvm7jfj_000000gn/T//cc1i8NTO.s:2381   .text.Draw_Circle:0000000000000000 .L0 
/var/folders/rt/4gvqv631095f64jvm7jfj_000000gn/T//cc1i8NTO.s:2382   .text.Draw_Circle:0000000000000000 .L0 
/var/folders/rt/4gvqv631095f64jvm7jfj_000000gn/T//cc1i8NTO.s:2383   .text.Draw_Circle:0000000000000000 .L0 
/var/folders/rt/4gvqv631095f64jvm7jfj_000000gn/T//cc1i8NTO.s:2384   .text.Draw_Circle:0000000000000000 .L0 
/var/folders/rt/4gvqv631095f64jvm7jfj_000000gn/T//cc1i8NTO.s:2385   .text.Draw_Circle:0000000000000000 .L0 
/var/folders/rt/4gvqv631095f64jvm7jfj_000000gn/T//cc1i8NTO.s:2387   .text.Draw_Circle:0000000000000004 .L0 
/var/folders/rt/4gvqv631095f64jvm7jfj_000000gn/T//cc1i8NTO.s:2389   .text.Draw_Circle:0000000000000006 .L0 
/var/folders/rt/4gvqv631095f64jvm7jfj_000000gn/T//cc1i8NTO.s:2403   .text.Draw_Circle:0000000000000020 .L0 
/var/folders/rt/4gvqv631095f64jvm7jfj_000000gn/T//cc1i8NTO.s:2404   .text.Draw_Circle:0000000000000020 .L0 
/var/folders/rt/4gvqv631095f64jvm7jfj_000000gn/T//cc1i8NTO.s:2405   .text.Draw_Circle:0000000000000020 .L0 
/var/folders/rt/4gvqv631095f64jvm7jfj_000000gn/T//cc1i8NTO.s:2406   .text.Draw_Circle:0000000000000020 .L0 
/var/folders/rt/4gvqv631095f64jvm7jfj_000000gn/T//cc1i8NTO.s:2407   .text.Draw_Circle:0000000000000020 .L0 
/var/folders/rt/4gvqv631095f64jvm7jfj_000000gn/T//cc1i8NTO.s:2408   .text.Draw_Circle:0000000000000020 .L0 
/var/folders/rt/4gvqv631095f64jvm7jfj_000000gn/T//cc1i8NTO.s:2409   .text.Draw_Circle:0000000000000020 .L0 
/var/folders/rt/4gvqv631095f64jvm7jfj_000000gn/T//cc1i8NTO.s:2410   .text.Draw_Circle:0000000000000020 .L0 
/var/folders/rt/4gvqv631095f64jvm7jfj_000000gn/T//cc1i8NTO.s:2411   .text.Draw_Circle:0000000000000020 .L0 
/var/folders/rt/4gvqv631095f64jvm7jfj_000000gn/T//cc1i8NTO.s:2412   .text.Draw_Circle:0000000000000020 .L0 
/var/folders/rt/4gvqv631095f64jvm7jfj_000000gn/T//cc1i8NTO.s:2413   .text.Draw_Circle:0000000000000020 .L0 
/var/folders/rt/4gvqv631095f64jvm7jfj_000000gn/T//cc1i8NTO.s:2414   .text.Draw_Circle:0000000000000020 .L0 
/var/folders/rt/4gvqv631095f64jvm7jfj_000000gn/T//cc1i8NTO.s:2415   .text.Draw_Circle:0000000000000020 .L0 
/var/folders/rt/4gvqv631095f64jvm7jfj_000000gn/T//cc1i8NTO.s:2417   .text.Draw_Circle:0000000000000020 .L0 
/var/folders/rt/4gvqv631095f64jvm7jfj_000000gn/T//cc1i8NTO.s:2421   .text.Draw_Circle:0000000000000026 .L0 
/var/folders/rt/4gvqv631095f64jvm7jfj_000000gn/T//cc1i8NTO.s:2424   .text.Draw_Circle:0000000000000028 .L0 
/var/folders/rt/4gvqv631095f64jvm7jfj_000000gn/T//cc1i8NTO.s:2425   .text.Draw_Circle:0000000000000028 .L0 
/var/folders/rt/4gvqv631095f64jvm7jfj_000000gn/T//cc1i8NTO.s:2430   .text.Draw_Circle:000000000000002e .L0 
/var/folders/rt/4gvqv631095f64jvm7jfj_000000gn/T//cc1i8NTO.s:2437   .text.Draw_Circle:000000000000003a .L0 
/var/folders/rt/4gvqv631095f64jvm7jfj_000000gn/T//cc1i8NTO.s:2438   .text.Draw_Circle:000000000000003a .L0 
/var/folders/rt/4gvqv631095f64jvm7jfj_000000gn/T//cc1i8NTO.s:2440   .text.Draw_Circle:000000000000003e .L0 
/var/folders/rt/4gvqv631095f64jvm7jfj_000000gn/T//cc1i8NTO.s:2443   .text.Draw_Circle:0000000000000046 .L0 
/var/folders/rt/4gvqv631095f64jvm7jfj_000000gn/T//cc1i8NTO.s:2449   .text.Draw_Circle:0000000000000054 .L0 
/var/folders/rt/4gvqv631095f64jvm7jfj_000000gn/T//cc1i8NTO.s:2457   .text.Draw_Circle:000000000000006a .L0 
/var/folders/rt/4gvqv631095f64jvm7jfj_000000gn/T//cc1i8NTO.s:2465   .text.Draw_Circle:0000000000000080 .L0 
/var/folders/rt/4gvqv631095f64jvm7jfj_000000gn/T//cc1i8NTO.s:2472   .text.Draw_Circle:0000000000000090 .L0 
/var/folders/rt/4gvqv631095f64jvm7jfj_000000gn/T//cc1i8NTO.s:2479   .text.Draw_Circle:00000000000000a0 .L0 
/var/folders/rt/4gvqv631095f64jvm7jfj_000000gn/T//cc1i8NTO.s:2485   .text.Draw_Circle:00000000000000ae .L0 
/var/folders/rt/4gvqv631095f64jvm7jfj_000000gn/T//cc1i8NTO.s:2491   .text.Draw_Circle:00000000000000bc .L0 
/var/folders/rt/4gvqv631095f64jvm7jfj_000000gn/T//cc1i8NTO.s:2492   .text.Draw_Circle:00000000000000bc .L0 
/var/folders/rt/4gvqv631095f64jvm7jfj_000000gn/T//cc1i8NTO.s:2495   .text.Draw_Circle:00000000000000be .L0 
/var/folders/rt/4gvqv631095f64jvm7jfj_000000gn/T//cc1i8NTO.s:2496   .text.Draw_Circle:00000000000000be .L0 
/var/folders/rt/4gvqv631095f64jvm7jfj_000000gn/T//cc1i8NTO.s:2498   .text.Draw_Circle:00000000000000c2 .L0 
/var/folders/rt/4gvqv631095f64jvm7jfj_000000gn/T//cc1i8NTO.s:2500   .text.Draw_Circle:00000000000000c4 .L0 
/var/folders/rt/4gvqv631095f64jvm7jfj_000000gn/T//cc1i8NTO.s:2502   .text.Draw_Circle:00000000000000c8 .L0 
/var/folders/rt/4gvqv631095f64jvm7jfj_000000gn/T//cc1i8NTO.s:2504   .text.Draw_Circle:00000000000000ca .L0 
/var/folders/rt/4gvqv631095f64jvm7jfj_000000gn/T//cc1i8NTO.s:2506   .text.Draw_Circle:00000000000000ce .L0 
/var/folders/rt/4gvqv631095f64jvm7jfj_000000gn/T//cc1i8NTO.s:2507   .text.Draw_Circle:00000000000000ce .L0 
/var/folders/rt/4gvqv631095f64jvm7jfj_000000gn/T//cc1i8NTO.s:2511   .text.Draw_Circle:00000000000000d0 .L0 
/var/folders/rt/4gvqv631095f64jvm7jfj_000000gn/T//cc1i8NTO.s:2513   .text.Draw_Circle:00000000000000d4 .L0 
/var/folders/rt/4gvqv631095f64jvm7jfj_000000gn/T//cc1i8NTO.s:2514   .text.Draw_Circle:00000000000000d6 .L0 
/var/folders/rt/4gvqv631095f64jvm7jfj_000000gn/T//cc1i8NTO.s:2516   .text.Draw_Circle:00000000000000d8 .L0 
/var/folders/rt/4gvqv631095f64jvm7jfj_000000gn/T//cc1i8NTO.s:2519   .text.Draw_Circle:00000000000000da .L0 
/var/folders/rt/4gvqv631095f64jvm7jfj_000000gn/T//cc1i8NTO.s:2522   .text.Draw_Circle:00000000000000dc .L0 
GAS LISTING /var/folders/rt/4gvqv631095f64jvm7jfj_000000gn/T//cc1i8NTO.s 			page 141


/var/folders/rt/4gvqv631095f64jvm7jfj_000000gn/T//cc1i8NTO.s:2525   .text.Draw_Circle:00000000000000de .L0 
/var/folders/rt/4gvqv631095f64jvm7jfj_000000gn/T//cc1i8NTO.s:2527   .text.Draw_Circle:00000000000000e0 .L0 
/var/folders/rt/4gvqv631095f64jvm7jfj_000000gn/T//cc1i8NTO.s:2529   .text.Draw_Circle:00000000000000e2 .L0 
/var/folders/rt/4gvqv631095f64jvm7jfj_000000gn/T//cc1i8NTO.s:2531   .text.Draw_Circle:00000000000000e4 .L0 
/var/folders/rt/4gvqv631095f64jvm7jfj_000000gn/T//cc1i8NTO.s:2533   .text.Draw_Circle:00000000000000e6 .L0 
/var/folders/rt/4gvqv631095f64jvm7jfj_000000gn/T//cc1i8NTO.s:2536   .text.Draw_Circle:00000000000000e8 .L0 
/var/folders/rt/4gvqv631095f64jvm7jfj_000000gn/T//cc1i8NTO.s:2539   .text.Draw_Circle:00000000000000ea .L0 
/var/folders/rt/4gvqv631095f64jvm7jfj_000000gn/T//cc1i8NTO.s:2541   .text.Draw_Circle:00000000000000ec .L0 
/var/folders/rt/4gvqv631095f64jvm7jfj_000000gn/T//cc1i8NTO.s:2543   .text.Draw_Circle:00000000000000ee .L0 
/var/folders/rt/4gvqv631095f64jvm7jfj_000000gn/T//cc1i8NTO.s:2546   .text.Draw_Circle:00000000000000f0 .L0 
/var/folders/rt/4gvqv631095f64jvm7jfj_000000gn/T//cc1i8NTO.s:2548   .text.Draw_Circle:00000000000000f2 .L0 
/var/folders/rt/4gvqv631095f64jvm7jfj_000000gn/T//cc1i8NTO.s:2555   .text.LCD_ShowChar:0000000000000000 LCD_ShowChar
/var/folders/rt/4gvqv631095f64jvm7jfj_000000gn/T//cc1i8NTO.s:2558   .text.LCD_ShowChar:0000000000000000 .L0 
/var/folders/rt/4gvqv631095f64jvm7jfj_000000gn/T//cc1i8NTO.s:2560   .text.LCD_ShowChar:0000000000000000 .L0 
/var/folders/rt/4gvqv631095f64jvm7jfj_000000gn/T//cc1i8NTO.s:2561   .text.LCD_ShowChar:0000000000000000 .L0 
/var/folders/rt/4gvqv631095f64jvm7jfj_000000gn/T//cc1i8NTO.s:2562   .text.LCD_ShowChar:0000000000000000 .L0 
/var/folders/rt/4gvqv631095f64jvm7jfj_000000gn/T//cc1i8NTO.s:2563   .text.LCD_ShowChar:0000000000000000 .L0 
/var/folders/rt/4gvqv631095f64jvm7jfj_000000gn/T//cc1i8NTO.s:2564   .text.LCD_ShowChar:0000000000000000 .L0 
/var/folders/rt/4gvqv631095f64jvm7jfj_000000gn/T//cc1i8NTO.s:2565   .text.LCD_ShowChar:0000000000000000 .L0 
/var/folders/rt/4gvqv631095f64jvm7jfj_000000gn/T//cc1i8NTO.s:2568   .text.LCD_ShowChar:0000000000000008 .L0 
/var/folders/rt/4gvqv631095f64jvm7jfj_000000gn/T//cc1i8NTO.s:2570   .text.LCD_ShowChar:000000000000000a .L0 
/var/folders/rt/4gvqv631095f64jvm7jfj_000000gn/T//cc1i8NTO.s:2580   .text.LCD_ShowChar:000000000000001c .L0 
/var/folders/rt/4gvqv631095f64jvm7jfj_000000gn/T//cc1i8NTO.s:2581   .text.LCD_ShowChar:000000000000001c .L0 
/var/folders/rt/4gvqv631095f64jvm7jfj_000000gn/T//cc1i8NTO.s:2582   .text.LCD_ShowChar:000000000000001c .L0 
/var/folders/rt/4gvqv631095f64jvm7jfj_000000gn/T//cc1i8NTO.s:2583   .text.LCD_ShowChar:000000000000001c .L0 
/var/folders/rt/4gvqv631095f64jvm7jfj_000000gn/T//cc1i8NTO.s:2584   .text.LCD_ShowChar:000000000000001c .L0 
/var/folders/rt/4gvqv631095f64jvm7jfj_000000gn/T//cc1i8NTO.s:2585   .text.LCD_ShowChar:000000000000001c .L0 
/var/folders/rt/4gvqv631095f64jvm7jfj_000000gn/T//cc1i8NTO.s:2586   .text.LCD_ShowChar:000000000000001c .L0 
/var/folders/rt/4gvqv631095f64jvm7jfj_000000gn/T//cc1i8NTO.s:2587   .text.LCD_ShowChar:000000000000001c .L0 
/var/folders/rt/4gvqv631095f64jvm7jfj_000000gn/T//cc1i8NTO.s:2588   .text.LCD_ShowChar:000000000000001c .L0 
/var/folders/rt/4gvqv631095f64jvm7jfj_000000gn/T//cc1i8NTO.s:2590   .text.LCD_ShowChar:000000000000001c .L0 
/var/folders/rt/4gvqv631095f64jvm7jfj_000000gn/T//cc1i8NTO.s:2597   .text.LCD_ShowChar:0000000000000028 .L0 
/var/folders/rt/4gvqv631095f64jvm7jfj_000000gn/T//cc1i8NTO.s:2601   .text.LCD_ShowChar:0000000000000030 .L0 
/var/folders/rt/4gvqv631095f64jvm7jfj_000000gn/T//cc1i8NTO.s:2611   .text.LCD_ShowChar:0000000000000044 .L0 
/var/folders/rt/4gvqv631095f64jvm7jfj_000000gn/T//cc1i8NTO.s:2612   .text.LCD_ShowChar:0000000000000044 .L0 
/var/folders/rt/4gvqv631095f64jvm7jfj_000000gn/T//cc1i8NTO.s:2616   .text.LCD_ShowChar:0000000000000050 .L0 
/var/folders/rt/4gvqv631095f64jvm7jfj_000000gn/T//cc1i8NTO.s:2617   .text.LCD_ShowChar:0000000000000050 .L0 
/var/folders/rt/4gvqv631095f64jvm7jfj_000000gn/T//cc1i8NTO.s:2621   .text.LCD_ShowChar:0000000000000056 .L0 
/var/folders/rt/4gvqv631095f64jvm7jfj_000000gn/T//cc1i8NTO.s:2623   .text.LCD_ShowChar:000000000000005a .L0 
/var/folders/rt/4gvqv631095f64jvm7jfj_000000gn/T//cc1i8NTO.s:2627   .text.LCD_ShowChar:000000000000005c .L0 
/var/folders/rt/4gvqv631095f64jvm7jfj_000000gn/T//cc1i8NTO.s:2628   .text.LCD_ShowChar:000000000000005c .L0 
/var/folders/rt/4gvqv631095f64jvm7jfj_000000gn/T//cc1i8NTO.s:2633   .text.LCD_ShowChar:0000000000000066 .L0 
/var/folders/rt/4gvqv631095f64jvm7jfj_000000gn/T//cc1i8NTO.s:2634   .text.LCD_ShowChar:0000000000000066 .L0 
/var/folders/rt/4gvqv631095f64jvm7jfj_000000gn/T//cc1i8NTO.s:2638   .text.LCD_ShowChar:0000000000000068 .L0 
/var/folders/rt/4gvqv631095f64jvm7jfj_000000gn/T//cc1i8NTO.s:2639   .text.LCD_ShowChar:0000000000000068 .L0 
/var/folders/rt/4gvqv631095f64jvm7jfj_000000gn/T//cc1i8NTO.s:2641   .text.LCD_ShowChar:000000000000006c .L0 
/var/folders/rt/4gvqv631095f64jvm7jfj_000000gn/T//cc1i8NTO.s:2643   .text.LCD_ShowChar:000000000000006e .L0 
/var/folders/rt/4gvqv631095f64jvm7jfj_000000gn/T//cc1i8NTO.s:2646   .text.LCD_ShowChar:0000000000000070 .L0 
/var/folders/rt/4gvqv631095f64jvm7jfj_000000gn/T//cc1i8NTO.s:2655   .text.LCD_ShowChar:0000000000000082 .L0 
/var/folders/rt/4gvqv631095f64jvm7jfj_000000gn/T//cc1i8NTO.s:2656   .text.LCD_ShowChar:0000000000000082 .L0 
/var/folders/rt/4gvqv631095f64jvm7jfj_000000gn/T//cc1i8NTO.s:2659   .text.LCD_ShowChar:0000000000000086 .L0 
/var/folders/rt/4gvqv631095f64jvm7jfj_000000gn/T//cc1i8NTO.s:2660   .text.LCD_ShowChar:0000000000000086 .L0 
/var/folders/rt/4gvqv631095f64jvm7jfj_000000gn/T//cc1i8NTO.s:2663   .text.LCD_ShowChar:0000000000000088 .L0 
/var/folders/rt/4gvqv631095f64jvm7jfj_000000gn/T//cc1i8NTO.s:2664   .text.LCD_ShowChar:0000000000000088 .L0 
/var/folders/rt/4gvqv631095f64jvm7jfj_000000gn/T//cc1i8NTO.s:2667   .text.LCD_ShowChar:000000000000008a .L0 
/var/folders/rt/4gvqv631095f64jvm7jfj_000000gn/T//cc1i8NTO.s:2673   .text.LCD_ShowChar:000000000000008e .L0 
/var/folders/rt/4gvqv631095f64jvm7jfj_000000gn/T//cc1i8NTO.s:2674   .text.LCD_ShowChar:0000000000000090 .L0 
GAS LISTING /var/folders/rt/4gvqv631095f64jvm7jfj_000000gn/T//cc1i8NTO.s 			page 142


/var/folders/rt/4gvqv631095f64jvm7jfj_000000gn/T//cc1i8NTO.s:2675   .text.LCD_ShowChar:0000000000000090 .L0 
/var/folders/rt/4gvqv631095f64jvm7jfj_000000gn/T//cc1i8NTO.s:2677   .text.LCD_ShowChar:0000000000000092 .L0 
/var/folders/rt/4gvqv631095f64jvm7jfj_000000gn/T//cc1i8NTO.s:2679   .text.LCD_ShowChar:0000000000000094 .L0 
/var/folders/rt/4gvqv631095f64jvm7jfj_000000gn/T//cc1i8NTO.s:2681   .text.LCD_ShowChar:0000000000000096 .L0 
/var/folders/rt/4gvqv631095f64jvm7jfj_000000gn/T//cc1i8NTO.s:2683   .text.LCD_ShowChar:0000000000000098 .L0 
/var/folders/rt/4gvqv631095f64jvm7jfj_000000gn/T//cc1i8NTO.s:2685   .text.LCD_ShowChar:000000000000009a .L0 
/var/folders/rt/4gvqv631095f64jvm7jfj_000000gn/T//cc1i8NTO.s:2687   .text.LCD_ShowChar:000000000000009c .L0 
/var/folders/rt/4gvqv631095f64jvm7jfj_000000gn/T//cc1i8NTO.s:2689   .text.LCD_ShowChar:000000000000009e .L0 
/var/folders/rt/4gvqv631095f64jvm7jfj_000000gn/T//cc1i8NTO.s:2691   .text.LCD_ShowChar:00000000000000a0 .L0 
/var/folders/rt/4gvqv631095f64jvm7jfj_000000gn/T//cc1i8NTO.s:2694   .text.LCD_ShowChar:00000000000000a2 .L0 
/var/folders/rt/4gvqv631095f64jvm7jfj_000000gn/T//cc1i8NTO.s:2699   .text.LCD_ShowChar:00000000000000a4 .L0 
/var/folders/rt/4gvqv631095f64jvm7jfj_000000gn/T//cc1i8NTO.s:2705   .text.LCD_ShowChar:00000000000000aa .L0 
/var/folders/rt/4gvqv631095f64jvm7jfj_000000gn/T//cc1i8NTO.s:2709   .text.LCD_ShowChar:00000000000000ac .L0 
/var/folders/rt/4gvqv631095f64jvm7jfj_000000gn/T//cc1i8NTO.s:2710   .text.LCD_ShowChar:00000000000000ac .L0 
/var/folders/rt/4gvqv631095f64jvm7jfj_000000gn/T//cc1i8NTO.s:2713   .text.LCD_ShowChar:00000000000000b0 .L0 
/var/folders/rt/4gvqv631095f64jvm7jfj_000000gn/T//cc1i8NTO.s:2714   .text.LCD_ShowChar:00000000000000b0 .L0 
/var/folders/rt/4gvqv631095f64jvm7jfj_000000gn/T//cc1i8NTO.s:2718   .text.LCD_ShowChar:00000000000000b2 .L0 
/var/folders/rt/4gvqv631095f64jvm7jfj_000000gn/T//cc1i8NTO.s:2719   .text.LCD_ShowChar:00000000000000b2 .L0 
/var/folders/rt/4gvqv631095f64jvm7jfj_000000gn/T//cc1i8NTO.s:2722   .text.LCD_ShowChar:00000000000000b8 .L0 
/var/folders/rt/4gvqv631095f64jvm7jfj_000000gn/T//cc1i8NTO.s:2729   .text.LCD_ShowChar:00000000000000c8 .L0 
/var/folders/rt/4gvqv631095f64jvm7jfj_000000gn/T//cc1i8NTO.s:2732   .text.LCD_ShowChar:00000000000000ca .L0 
/var/folders/rt/4gvqv631095f64jvm7jfj_000000gn/T//cc1i8NTO.s:2735   .text.LCD_ShowChar:00000000000000ce .L0 
/var/folders/rt/4gvqv631095f64jvm7jfj_000000gn/T//cc1i8NTO.s:2739   .text.LCD_ShowChar:00000000000000d6 .L0 
/var/folders/rt/4gvqv631095f64jvm7jfj_000000gn/T//cc1i8NTO.s:2744   .text.LCD_ShowChar:00000000000000dc .L0 
/var/folders/rt/4gvqv631095f64jvm7jfj_000000gn/T//cc1i8NTO.s:2745   .text.LCD_ShowChar:00000000000000dc .L0 
/var/folders/rt/4gvqv631095f64jvm7jfj_000000gn/T//cc1i8NTO.s:2746   .text.LCD_ShowChar:00000000000000dc .L0 
/var/folders/rt/4gvqv631095f64jvm7jfj_000000gn/T//cc1i8NTO.s:2747   .text.LCD_ShowChar:00000000000000dc .L0 
/var/folders/rt/4gvqv631095f64jvm7jfj_000000gn/T//cc1i8NTO.s:2748   .text.LCD_ShowChar:00000000000000dc .L0 
/var/folders/rt/4gvqv631095f64jvm7jfj_000000gn/T//cc1i8NTO.s:2749   .text.LCD_ShowChar:00000000000000dc .L0 
/var/folders/rt/4gvqv631095f64jvm7jfj_000000gn/T//cc1i8NTO.s:2750   .text.LCD_ShowChar:00000000000000dc .L0 
/var/folders/rt/4gvqv631095f64jvm7jfj_000000gn/T//cc1i8NTO.s:2751   .text.LCD_ShowChar:00000000000000dc .L0 
/var/folders/rt/4gvqv631095f64jvm7jfj_000000gn/T//cc1i8NTO.s:2752   .text.LCD_ShowChar:00000000000000dc .L0 
/var/folders/rt/4gvqv631095f64jvm7jfj_000000gn/T//cc1i8NTO.s:2753   .text.LCD_ShowChar:00000000000000dc .L0 
/var/folders/rt/4gvqv631095f64jvm7jfj_000000gn/T//cc1i8NTO.s:2757   .text.LCD_ShowChar:00000000000000de .L0 
/var/folders/rt/4gvqv631095f64jvm7jfj_000000gn/T//cc1i8NTO.s:2764   .text.LCD_ShowString:0000000000000000 LCD_ShowString
/var/folders/rt/4gvqv631095f64jvm7jfj_000000gn/T//cc1i8NTO.s:2767   .text.LCD_ShowString:0000000000000000 .L0 
/var/folders/rt/4gvqv631095f64jvm7jfj_000000gn/T//cc1i8NTO.s:2769   .text.LCD_ShowString:0000000000000000 .L0 
/var/folders/rt/4gvqv631095f64jvm7jfj_000000gn/T//cc1i8NTO.s:2770   .text.LCD_ShowString:0000000000000000 .L0 
/var/folders/rt/4gvqv631095f64jvm7jfj_000000gn/T//cc1i8NTO.s:2771   .text.LCD_ShowString:0000000000000000 .L0 
/var/folders/rt/4gvqv631095f64jvm7jfj_000000gn/T//cc1i8NTO.s:2773   .text.LCD_ShowString:0000000000000002 .L0 
/var/folders/rt/4gvqv631095f64jvm7jfj_000000gn/T//cc1i8NTO.s:2775   .text.LCD_ShowString:0000000000000004 .L0 
/var/folders/rt/4gvqv631095f64jvm7jfj_000000gn/T//cc1i8NTO.s:2777   .text.LCD_ShowString:0000000000000004 .L0 
/var/folders/rt/4gvqv631095f64jvm7jfj_000000gn/T//cc1i8NTO.s:2779   .text.LCD_ShowString:0000000000000006 .L0 
/var/folders/rt/4gvqv631095f64jvm7jfj_000000gn/T//cc1i8NTO.s:2786   .text.LCD_ShowString:0000000000000014 .L0 
/var/folders/rt/4gvqv631095f64jvm7jfj_000000gn/T//cc1i8NTO.s:2787   .text.LCD_ShowString:0000000000000014 .L0 
/var/folders/rt/4gvqv631095f64jvm7jfj_000000gn/T//cc1i8NTO.s:2788   .text.LCD_ShowString:0000000000000014 .L0 
/var/folders/rt/4gvqv631095f64jvm7jfj_000000gn/T//cc1i8NTO.s:2789   .text.LCD_ShowString:0000000000000014 .L0 
/var/folders/rt/4gvqv631095f64jvm7jfj_000000gn/T//cc1i8NTO.s:2790   .text.LCD_ShowString:0000000000000014 .L0 
/var/folders/rt/4gvqv631095f64jvm7jfj_000000gn/T//cc1i8NTO.s:2791   .text.LCD_ShowString:0000000000000014 .L0 
/var/folders/rt/4gvqv631095f64jvm7jfj_000000gn/T//cc1i8NTO.s:2792   .text.LCD_ShowString:0000000000000014 .L0 
/var/folders/rt/4gvqv631095f64jvm7jfj_000000gn/T//cc1i8NTO.s:2794   .text.LCD_ShowString:0000000000000014 .L0 
/var/folders/rt/4gvqv631095f64jvm7jfj_000000gn/T//cc1i8NTO.s:2799   .text.LCD_ShowString:000000000000001c .L0 
/var/folders/rt/4gvqv631095f64jvm7jfj_000000gn/T//cc1i8NTO.s:2801   .text.LCD_ShowString:0000000000000020 .L0 
/var/folders/rt/4gvqv631095f64jvm7jfj_000000gn/T//cc1i8NTO.s:2803   .text.LCD_ShowString:0000000000000024 .L0 
/var/folders/rt/4gvqv631095f64jvm7jfj_000000gn/T//cc1i8NTO.s:2807   .text.LCD_ShowString:0000000000000028 .L0 
/var/folders/rt/4gvqv631095f64jvm7jfj_000000gn/T//cc1i8NTO.s:2810   .text.LCD_ShowString:000000000000002e .L0 
/var/folders/rt/4gvqv631095f64jvm7jfj_000000gn/T//cc1i8NTO.s:2811   .text.LCD_ShowString:0000000000000030 .L0 
GAS LISTING /var/folders/rt/4gvqv631095f64jvm7jfj_000000gn/T//cc1i8NTO.s 			page 143


/var/folders/rt/4gvqv631095f64jvm7jfj_000000gn/T//cc1i8NTO.s:2812   .text.LCD_ShowString:0000000000000030 .L0 
/var/folders/rt/4gvqv631095f64jvm7jfj_000000gn/T//cc1i8NTO.s:2814   .text.LCD_ShowString:0000000000000032 .L0 
/var/folders/rt/4gvqv631095f64jvm7jfj_000000gn/T//cc1i8NTO.s:2817   .text.LCD_ShowString:0000000000000034 .L0 
/var/folders/rt/4gvqv631095f64jvm7jfj_000000gn/T//cc1i8NTO.s:2820   .text.LCD_ShowString:0000000000000036 .L0 
/var/folders/rt/4gvqv631095f64jvm7jfj_000000gn/T//cc1i8NTO.s:2823   .text.LCD_ShowString:0000000000000038 .L0 
/var/folders/rt/4gvqv631095f64jvm7jfj_000000gn/T//cc1i8NTO.s:2825   .text.LCD_ShowString:000000000000003a .L0 
/var/folders/rt/4gvqv631095f64jvm7jfj_000000gn/T//cc1i8NTO.s:2828   .text.LCD_ShowString:000000000000003c .L0 
/var/folders/rt/4gvqv631095f64jvm7jfj_000000gn/T//cc1i8NTO.s:2830   .text.LCD_ShowString:000000000000003e .L0 
/var/folders/rt/4gvqv631095f64jvm7jfj_000000gn/T//cc1i8NTO.s:2833   .text.LCD_ShowString:0000000000000040 .L0 
/var/folders/rt/4gvqv631095f64jvm7jfj_000000gn/T//cc1i8NTO.s:2838   .text.LCD_ShowString:0000000000000042 .L0 
/var/folders/rt/4gvqv631095f64jvm7jfj_000000gn/T//cc1i8NTO.s:2840   .text.LCD_ShowString:0000000000000042 .L0 
/var/folders/rt/4gvqv631095f64jvm7jfj_000000gn/T//cc1i8NTO.s:2841   .text.LCD_ShowString:0000000000000042 .L0 
/var/folders/rt/4gvqv631095f64jvm7jfj_000000gn/T//cc1i8NTO.s:2844   .text.LCD_ShowString:0000000000000046 .L0 
/var/folders/rt/4gvqv631095f64jvm7jfj_000000gn/T//cc1i8NTO.s:2845   .text.LCD_ShowString:0000000000000046 .L0 
/var/folders/rt/4gvqv631095f64jvm7jfj_000000gn/T//cc1i8NTO.s:2846   .text.LCD_ShowString:0000000000000046 .L0 
/var/folders/rt/4gvqv631095f64jvm7jfj_000000gn/T//cc1i8NTO.s:2849   .text.LCD_ShowString:0000000000000048 .L0 
/var/folders/rt/4gvqv631095f64jvm7jfj_000000gn/T//cc1i8NTO.s:2853   .text.LCD_ShowString:000000000000004a .L0 
/var/folders/rt/4gvqv631095f64jvm7jfj_000000gn/T//cc1i8NTO.s:2854   .text.LCD_ShowString:000000000000004a .L0 
/var/folders/rt/4gvqv631095f64jvm7jfj_000000gn/T//cc1i8NTO.s:2857   .text.LCD_ShowString:000000000000004e .L0 
/var/folders/rt/4gvqv631095f64jvm7jfj_000000gn/T//cc1i8NTO.s:2858   .text.LCD_ShowString:000000000000004e .L0 
/var/folders/rt/4gvqv631095f64jvm7jfj_000000gn/T//cc1i8NTO.s:2862   .text.LCD_ShowString:0000000000000058 .L0 
/var/folders/rt/4gvqv631095f64jvm7jfj_000000gn/T//cc1i8NTO.s:2864   .text.LCD_ShowString:000000000000005a .L0 
/var/folders/rt/4gvqv631095f64jvm7jfj_000000gn/T//cc1i8NTO.s:2868   .text.LCD_ShowString:000000000000005c .L0 
/var/folders/rt/4gvqv631095f64jvm7jfj_000000gn/T//cc1i8NTO.s:2876   .text.LCD_ShowString:0000000000000070 .L0 
/var/folders/rt/4gvqv631095f64jvm7jfj_000000gn/T//cc1i8NTO.s:2877   .text.LCD_ShowString:0000000000000070 .L0 
/var/folders/rt/4gvqv631095f64jvm7jfj_000000gn/T//cc1i8NTO.s:2880   .text.LCD_ShowString:0000000000000072 .L0 
/var/folders/rt/4gvqv631095f64jvm7jfj_000000gn/T//cc1i8NTO.s:2881   .text.LCD_ShowString:0000000000000072 .L0 
/var/folders/rt/4gvqv631095f64jvm7jfj_000000gn/T//cc1i8NTO.s:2884   .text.LCD_ShowString:0000000000000076 .L0 
/var/folders/rt/4gvqv631095f64jvm7jfj_000000gn/T//cc1i8NTO.s:2891   .text.LCD_ShowStr:0000000000000000 LCD_ShowStr
/var/folders/rt/4gvqv631095f64jvm7jfj_000000gn/T//cc1i8NTO.s:2894   .text.LCD_ShowStr:0000000000000000 .L0 
/var/folders/rt/4gvqv631095f64jvm7jfj_000000gn/T//cc1i8NTO.s:2896   .text.LCD_ShowStr:0000000000000000 .L0 
/var/folders/rt/4gvqv631095f64jvm7jfj_000000gn/T//cc1i8NTO.s:2897   .text.LCD_ShowStr:0000000000000000 .L0 
/var/folders/rt/4gvqv631095f64jvm7jfj_000000gn/T//cc1i8NTO.s:2898   .text.LCD_ShowStr:0000000000000000 .L0 
/var/folders/rt/4gvqv631095f64jvm7jfj_000000gn/T//cc1i8NTO.s:2900   .text.LCD_ShowStr:0000000000000002 .L0 
/var/folders/rt/4gvqv631095f64jvm7jfj_000000gn/T//cc1i8NTO.s:2909   .text.LCD_ShowStr:0000000000000012 .L0 
/var/folders/rt/4gvqv631095f64jvm7jfj_000000gn/T//cc1i8NTO.s:2910   .text.LCD_ShowStr:0000000000000012 .L0 
/var/folders/rt/4gvqv631095f64jvm7jfj_000000gn/T//cc1i8NTO.s:2911   .text.LCD_ShowStr:0000000000000012 .L0 
/var/folders/rt/4gvqv631095f64jvm7jfj_000000gn/T//cc1i8NTO.s:2912   .text.LCD_ShowStr:0000000000000012 .L0 
/var/folders/rt/4gvqv631095f64jvm7jfj_000000gn/T//cc1i8NTO.s:2913   .text.LCD_ShowStr:0000000000000012 .L0 
/var/folders/rt/4gvqv631095f64jvm7jfj_000000gn/T//cc1i8NTO.s:2914   .text.LCD_ShowStr:0000000000000012 .L0 
/var/folders/rt/4gvqv631095f64jvm7jfj_000000gn/T//cc1i8NTO.s:2915   .text.LCD_ShowStr:0000000000000012 .L0 
/var/folders/rt/4gvqv631095f64jvm7jfj_000000gn/T//cc1i8NTO.s:2916   .text.LCD_ShowStr:0000000000000012 .L0 
/var/folders/rt/4gvqv631095f64jvm7jfj_000000gn/T//cc1i8NTO.s:2918   .text.LCD_ShowStr:0000000000000012 .L0 
/var/folders/rt/4gvqv631095f64jvm7jfj_000000gn/T//cc1i8NTO.s:2924   .text.LCD_ShowStr:000000000000001c .L0 
/var/folders/rt/4gvqv631095f64jvm7jfj_000000gn/T//cc1i8NTO.s:2926   .text.LCD_ShowStr:0000000000000020 .L0 
/var/folders/rt/4gvqv631095f64jvm7jfj_000000gn/T//cc1i8NTO.s:2930   .text.LCD_ShowStr:0000000000000024 .L0 
/var/folders/rt/4gvqv631095f64jvm7jfj_000000gn/T//cc1i8NTO.s:2932   .text.LCD_ShowStr:0000000000000028 .L0 
/var/folders/rt/4gvqv631095f64jvm7jfj_000000gn/T//cc1i8NTO.s:2935   .text.LCD_ShowStr:000000000000002a .L0 
/var/folders/rt/4gvqv631095f64jvm7jfj_000000gn/T//cc1i8NTO.s:2936   .text.LCD_ShowStr:000000000000002c .L0 
/var/folders/rt/4gvqv631095f64jvm7jfj_000000gn/T//cc1i8NTO.s:2937   .text.LCD_ShowStr:000000000000002c .L0 
/var/folders/rt/4gvqv631095f64jvm7jfj_000000gn/T//cc1i8NTO.s:2939   .text.LCD_ShowStr:000000000000002e .L0 
/var/folders/rt/4gvqv631095f64jvm7jfj_000000gn/T//cc1i8NTO.s:2942   .text.LCD_ShowStr:0000000000000030 .L0 
/var/folders/rt/4gvqv631095f64jvm7jfj_000000gn/T//cc1i8NTO.s:2945   .text.LCD_ShowStr:0000000000000032 .L0 
/var/folders/rt/4gvqv631095f64jvm7jfj_000000gn/T//cc1i8NTO.s:2948   .text.LCD_ShowStr:0000000000000034 .L0 
/var/folders/rt/4gvqv631095f64jvm7jfj_000000gn/T//cc1i8NTO.s:2951   .text.LCD_ShowStr:0000000000000036 .L0 
/var/folders/rt/4gvqv631095f64jvm7jfj_000000gn/T//cc1i8NTO.s:2953   .text.LCD_ShowStr:0000000000000038 .L0 
/var/folders/rt/4gvqv631095f64jvm7jfj_000000gn/T//cc1i8NTO.s:2955   .text.LCD_ShowStr:000000000000003a .L0 
GAS LISTING /var/folders/rt/4gvqv631095f64jvm7jfj_000000gn/T//cc1i8NTO.s 			page 144


/var/folders/rt/4gvqv631095f64jvm7jfj_000000gn/T//cc1i8NTO.s:2958   .text.LCD_ShowStr:000000000000003c .L0 
/var/folders/rt/4gvqv631095f64jvm7jfj_000000gn/T//cc1i8NTO.s:2963   .text.LCD_ShowStr:000000000000003e .L0 
/var/folders/rt/4gvqv631095f64jvm7jfj_000000gn/T//cc1i8NTO.s:2965   .text.LCD_ShowStr:000000000000003e .L0 
/var/folders/rt/4gvqv631095f64jvm7jfj_000000gn/T//cc1i8NTO.s:2966   .text.LCD_ShowStr:000000000000003e .L0 
/var/folders/rt/4gvqv631095f64jvm7jfj_000000gn/T//cc1i8NTO.s:2969   .text.LCD_ShowStr:0000000000000042 .L0 
/var/folders/rt/4gvqv631095f64jvm7jfj_000000gn/T//cc1i8NTO.s:2970   .text.LCD_ShowStr:0000000000000042 .L0 
/var/folders/rt/4gvqv631095f64jvm7jfj_000000gn/T//cc1i8NTO.s:2971   .text.LCD_ShowStr:0000000000000042 .L0 
/var/folders/rt/4gvqv631095f64jvm7jfj_000000gn/T//cc1i8NTO.s:2974   .text.LCD_ShowStr:0000000000000044 .L0 
/var/folders/rt/4gvqv631095f64jvm7jfj_000000gn/T//cc1i8NTO.s:2978   .text.LCD_ShowStr:0000000000000046 .L0 
/var/folders/rt/4gvqv631095f64jvm7jfj_000000gn/T//cc1i8NTO.s:2979   .text.LCD_ShowStr:0000000000000046 .L0 
/var/folders/rt/4gvqv631095f64jvm7jfj_000000gn/T//cc1i8NTO.s:2981   .text.LCD_ShowStr:000000000000004a .L0 
/var/folders/rt/4gvqv631095f64jvm7jfj_000000gn/T//cc1i8NTO.s:2988   .text.LCD_ShowStr:000000000000005a .L0 
/var/folders/rt/4gvqv631095f64jvm7jfj_000000gn/T//cc1i8NTO.s:2989   .text.LCD_ShowStr:000000000000005a .L0 
/var/folders/rt/4gvqv631095f64jvm7jfj_000000gn/T//cc1i8NTO.s:2992   .text.LCD_ShowStr:000000000000005c .L0 
/var/folders/rt/4gvqv631095f64jvm7jfj_000000gn/T//cc1i8NTO.s:2993   .text.LCD_ShowStr:000000000000005c .L0 
/var/folders/rt/4gvqv631095f64jvm7jfj_000000gn/T//cc1i8NTO.s:2996   .text.LCD_ShowStr:0000000000000060 .L0 
/var/folders/rt/4gvqv631095f64jvm7jfj_000000gn/T//cc1i8NTO.s:3003   .text.mypow:0000000000000000 mypow
/var/folders/rt/4gvqv631095f64jvm7jfj_000000gn/T//cc1i8NTO.s:3006   .text.mypow:0000000000000000 .L0 
/var/folders/rt/4gvqv631095f64jvm7jfj_000000gn/T//cc1i8NTO.s:3008   .text.mypow:0000000000000000 .L0 
/var/folders/rt/4gvqv631095f64jvm7jfj_000000gn/T//cc1i8NTO.s:3009   .text.mypow:0000000000000000 .L0 
/var/folders/rt/4gvqv631095f64jvm7jfj_000000gn/T//cc1i8NTO.s:3010   .text.mypow:0000000000000000 .L0 
/var/folders/rt/4gvqv631095f64jvm7jfj_000000gn/T//cc1i8NTO.s:3011   .text.mypow:0000000000000000 .L0 
/var/folders/rt/4gvqv631095f64jvm7jfj_000000gn/T//cc1i8NTO.s:3013   .text.mypow:0000000000000002 .L0 
/var/folders/rt/4gvqv631095f64jvm7jfj_000000gn/T//cc1i8NTO.s:3017   .text.mypow:0000000000000006 .L0 
/var/folders/rt/4gvqv631095f64jvm7jfj_000000gn/T//cc1i8NTO.s:3022   .text.mypow:000000000000000c .L0 
/var/folders/rt/4gvqv631095f64jvm7jfj_000000gn/T//cc1i8NTO.s:3024   .text.mypow:0000000000000010 .L0 
/var/folders/rt/4gvqv631095f64jvm7jfj_000000gn/T//cc1i8NTO.s:3025   .text.mypow:0000000000000010 .L0 
/var/folders/rt/4gvqv631095f64jvm7jfj_000000gn/T//cc1i8NTO.s:3031   .text.mypow:0000000000000014 .L0 
/var/folders/rt/4gvqv631095f64jvm7jfj_000000gn/T//cc1i8NTO.s:3032   .text.mypow:0000000000000014 .L0 
/var/folders/rt/4gvqv631095f64jvm7jfj_000000gn/T//cc1i8NTO.s:3035   .text.mypow:000000000000001a .L0 
/var/folders/rt/4gvqv631095f64jvm7jfj_000000gn/T//cc1i8NTO.s:3042   .text.LCD_ShowNum:0000000000000000 LCD_ShowNum
/var/folders/rt/4gvqv631095f64jvm7jfj_000000gn/T//cc1i8NTO.s:3045   .text.LCD_ShowNum:0000000000000000 .L0 
/var/folders/rt/4gvqv631095f64jvm7jfj_000000gn/T//cc1i8NTO.s:3047   .text.LCD_ShowNum:0000000000000000 .L0 
/var/folders/rt/4gvqv631095f64jvm7jfj_000000gn/T//cc1i8NTO.s:3048   .text.LCD_ShowNum:0000000000000000 .L0 
/var/folders/rt/4gvqv631095f64jvm7jfj_000000gn/T//cc1i8NTO.s:3049   .text.LCD_ShowNum:0000000000000000 .L0 
/var/folders/rt/4gvqv631095f64jvm7jfj_000000gn/T//cc1i8NTO.s:3050   .text.LCD_ShowNum:0000000000000000 .L0 
/var/folders/rt/4gvqv631095f64jvm7jfj_000000gn/T//cc1i8NTO.s:3051   .text.LCD_ShowNum:0000000000000000 .L0 
/var/folders/rt/4gvqv631095f64jvm7jfj_000000gn/T//cc1i8NTO.s:3053   .text.LCD_ShowNum:0000000000000002 .L0 
/var/folders/rt/4gvqv631095f64jvm7jfj_000000gn/T//cc1i8NTO.s:3055   .text.LCD_ShowNum:0000000000000004 .L0 
/var/folders/rt/4gvqv631095f64jvm7jfj_000000gn/T//cc1i8NTO.s:3067   .text.LCD_ShowNum:000000000000001c .L0 
/var/folders/rt/4gvqv631095f64jvm7jfj_000000gn/T//cc1i8NTO.s:3068   .text.LCD_ShowNum:000000000000001c .L0 
/var/folders/rt/4gvqv631095f64jvm7jfj_000000gn/T//cc1i8NTO.s:3069   .text.LCD_ShowNum:000000000000001c .L0 
/var/folders/rt/4gvqv631095f64jvm7jfj_000000gn/T//cc1i8NTO.s:3070   .text.LCD_ShowNum:000000000000001c .L0 
/var/folders/rt/4gvqv631095f64jvm7jfj_000000gn/T//cc1i8NTO.s:3071   .text.LCD_ShowNum:000000000000001c .L0 
/var/folders/rt/4gvqv631095f64jvm7jfj_000000gn/T//cc1i8NTO.s:3072   .text.LCD_ShowNum:000000000000001c .L0 
/var/folders/rt/4gvqv631095f64jvm7jfj_000000gn/T//cc1i8NTO.s:3073   .text.LCD_ShowNum:000000000000001c .L0 
/var/folders/rt/4gvqv631095f64jvm7jfj_000000gn/T//cc1i8NTO.s:3074   .text.LCD_ShowNum:000000000000001c .L0 
/var/folders/rt/4gvqv631095f64jvm7jfj_000000gn/T//cc1i8NTO.s:3075   .text.LCD_ShowNum:000000000000001c .L0 
/var/folders/rt/4gvqv631095f64jvm7jfj_000000gn/T//cc1i8NTO.s:3076   .text.LCD_ShowNum:000000000000001c .L0 
/var/folders/rt/4gvqv631095f64jvm7jfj_000000gn/T//cc1i8NTO.s:3078   .text.LCD_ShowNum:000000000000001c .L0 
/var/folders/rt/4gvqv631095f64jvm7jfj_000000gn/T//cc1i8NTO.s:3084   .text.LCD_ShowNum:0000000000000028 .L0 
/var/folders/rt/4gvqv631095f64jvm7jfj_000000gn/T//cc1i8NTO.s:3086   .text.LCD_ShowNum:000000000000002a .L0 
/var/folders/rt/4gvqv631095f64jvm7jfj_000000gn/T//cc1i8NTO.s:3088   .text.LCD_ShowNum:000000000000002c .L0 
/var/folders/rt/4gvqv631095f64jvm7jfj_000000gn/T//cc1i8NTO.s:3092   .text.LCD_ShowNum:0000000000000030 .L0 
/var/folders/rt/4gvqv631095f64jvm7jfj_000000gn/T//cc1i8NTO.s:3098   .text.LCD_ShowNum:0000000000000032 .L0 
/var/folders/rt/4gvqv631095f64jvm7jfj_000000gn/T//cc1i8NTO.s:3100   .text.LCD_ShowNum:0000000000000036 .L0 
/var/folders/rt/4gvqv631095f64jvm7jfj_000000gn/T//cc1i8NTO.s:3101   .text.LCD_ShowNum:0000000000000038 .L0 
GAS LISTING /var/folders/rt/4gvqv631095f64jvm7jfj_000000gn/T//cc1i8NTO.s 			page 145


/var/folders/rt/4gvqv631095f64jvm7jfj_000000gn/T//cc1i8NTO.s:3102   .text.LCD_ShowNum:0000000000000038 .L0 
/var/folders/rt/4gvqv631095f64jvm7jfj_000000gn/T//cc1i8NTO.s:3104   .text.LCD_ShowNum:000000000000003a .L0 
/var/folders/rt/4gvqv631095f64jvm7jfj_000000gn/T//cc1i8NTO.s:3106   .text.LCD_ShowNum:000000000000003c .L0 
/var/folders/rt/4gvqv631095f64jvm7jfj_000000gn/T//cc1i8NTO.s:3108   .text.LCD_ShowNum:000000000000003e .L0 
/var/folders/rt/4gvqv631095f64jvm7jfj_000000gn/T//cc1i8NTO.s:3111   .text.LCD_ShowNum:0000000000000040 .L0 
/var/folders/rt/4gvqv631095f64jvm7jfj_000000gn/T//cc1i8NTO.s:3114   .text.LCD_ShowNum:0000000000000042 .L0 
/var/folders/rt/4gvqv631095f64jvm7jfj_000000gn/T//cc1i8NTO.s:3117   .text.LCD_ShowNum:0000000000000044 .L0 
/var/folders/rt/4gvqv631095f64jvm7jfj_000000gn/T//cc1i8NTO.s:3119   .text.LCD_ShowNum:0000000000000046 .L0 
/var/folders/rt/4gvqv631095f64jvm7jfj_000000gn/T//cc1i8NTO.s:3121   .text.LCD_ShowNum:0000000000000048 .L0 
/var/folders/rt/4gvqv631095f64jvm7jfj_000000gn/T//cc1i8NTO.s:3124   .text.LCD_ShowNum:000000000000004a .L0 
/var/folders/rt/4gvqv631095f64jvm7jfj_000000gn/T//cc1i8NTO.s:3127   .text.LCD_ShowNum:000000000000004c .L0 
/var/folders/rt/4gvqv631095f64jvm7jfj_000000gn/T//cc1i8NTO.s:3131   .text.LCD_ShowNum:000000000000004e .L0 
/var/folders/rt/4gvqv631095f64jvm7jfj_000000gn/T//cc1i8NTO.s:3136   .text.LCD_ShowNum:0000000000000050 .L0 
/var/folders/rt/4gvqv631095f64jvm7jfj_000000gn/T//cc1i8NTO.s:3140   .text.LCD_ShowNum:0000000000000050 .L0 
/var/folders/rt/4gvqv631095f64jvm7jfj_000000gn/T//cc1i8NTO.s:3141   .text.LCD_ShowNum:0000000000000050 .L0 
/var/folders/rt/4gvqv631095f64jvm7jfj_000000gn/T//cc1i8NTO.s:3145   .text.LCD_ShowNum:0000000000000054 .L0 
/var/folders/rt/4gvqv631095f64jvm7jfj_000000gn/T//cc1i8NTO.s:3150   .text.LCD_ShowNum:000000000000005a .L0 
/var/folders/rt/4gvqv631095f64jvm7jfj_000000gn/T//cc1i8NTO.s:3153   .text.LCD_ShowNum:000000000000005e .L0 
/var/folders/rt/4gvqv631095f64jvm7jfj_000000gn/T//cc1i8NTO.s:3158   .text.LCD_ShowNum:0000000000000064 .L0 
/var/folders/rt/4gvqv631095f64jvm7jfj_000000gn/T//cc1i8NTO.s:3160   .text.LCD_ShowNum:0000000000000068 .L0 
/var/folders/rt/4gvqv631095f64jvm7jfj_000000gn/T//cc1i8NTO.s:3162   .text.LCD_ShowNum:000000000000006c .L0 
/var/folders/rt/4gvqv631095f64jvm7jfj_000000gn/T//cc1i8NTO.s:3165   .text.LCD_ShowNum:0000000000000070 .L0 
/var/folders/rt/4gvqv631095f64jvm7jfj_000000gn/T//cc1i8NTO.s:3166   .text.LCD_ShowNum:0000000000000070 .L0 
/var/folders/rt/4gvqv631095f64jvm7jfj_000000gn/T//cc1i8NTO.s:3168   .text.LCD_ShowNum:0000000000000074 .L0 
/var/folders/rt/4gvqv631095f64jvm7jfj_000000gn/T//cc1i8NTO.s:3170   .text.LCD_ShowNum:0000000000000078 .L0 
/var/folders/rt/4gvqv631095f64jvm7jfj_000000gn/T//cc1i8NTO.s:3171   .text.LCD_ShowNum:0000000000000078 .L0 
/var/folders/rt/4gvqv631095f64jvm7jfj_000000gn/T//cc1i8NTO.s:3173   .text.LCD_ShowNum:000000000000007a .L0 
/var/folders/rt/4gvqv631095f64jvm7jfj_000000gn/T//cc1i8NTO.s:3179   .text.LCD_ShowNum:0000000000000082 .L0 
/var/folders/rt/4gvqv631095f64jvm7jfj_000000gn/T//cc1i8NTO.s:3193   .text.LCD_ShowNum:0000000000000098 .L0 
/var/folders/rt/4gvqv631095f64jvm7jfj_000000gn/T//cc1i8NTO.s:3203   .text.LCD_ShowNum:000000000000009e .L0 
/var/folders/rt/4gvqv631095f64jvm7jfj_000000gn/T//cc1i8NTO.s:3208   .text.LCD_ShowNum:00000000000000a8 .L0 
/var/folders/rt/4gvqv631095f64jvm7jfj_000000gn/T//cc1i8NTO.s:3217   .text.LCD_ShowNum1:0000000000000000 LCD_ShowNum1
/var/folders/rt/4gvqv631095f64jvm7jfj_000000gn/T//cc1i8NTO.s:3220   .text.LCD_ShowNum1:0000000000000000 .L0 
/var/folders/rt/4gvqv631095f64jvm7jfj_000000gn/T//cc1i8NTO.s:3222   .text.LCD_ShowNum1:0000000000000000 .L0 
/var/folders/rt/4gvqv631095f64jvm7jfj_000000gn/T//cc1i8NTO.s:3223   .text.LCD_ShowNum1:0000000000000000 .L0 
/var/folders/rt/4gvqv631095f64jvm7jfj_000000gn/T//cc1i8NTO.s:3224   .text.LCD_ShowNum1:0000000000000000 .L0 
/var/folders/rt/4gvqv631095f64jvm7jfj_000000gn/T//cc1i8NTO.s:3225   .text.LCD_ShowNum1:0000000000000000 .L0 
/var/folders/rt/4gvqv631095f64jvm7jfj_000000gn/T//cc1i8NTO.s:3226   .text.LCD_ShowNum1:0000000000000000 .L0 
/var/folders/rt/4gvqv631095f64jvm7jfj_000000gn/T//cc1i8NTO.s:3228   .text.LCD_ShowNum1:0000000000000002 .L0 
/var/folders/rt/4gvqv631095f64jvm7jfj_000000gn/T//cc1i8NTO.s:3230   .text.LCD_ShowNum1:0000000000000002 .L0 
/var/folders/rt/4gvqv631095f64jvm7jfj_000000gn/T//cc1i8NTO.s:3232   .text.LCD_ShowNum1:0000000000000006 .L0 
/var/folders/rt/4gvqv631095f64jvm7jfj_000000gn/T//cc1i8NTO.s:3233   .text.LCD_ShowNum1:0000000000000008 .L0 
/var/folders/rt/4gvqv631095f64jvm7jfj_000000gn/T//cc1i8NTO.s:3236   .text.LCD_ShowNum1:000000000000000a .L0 
/var/folders/rt/4gvqv631095f64jvm7jfj_000000gn/T//cc1i8NTO.s:3239   .text.LCD_ShowNum1:000000000000000e .L0 
/var/folders/rt/4gvqv631095f64jvm7jfj_000000gn/T//cc1i8NTO.s:3240   .text.LCD_ShowNum1:0000000000000010 .L0 
/var/folders/rt/4gvqv631095f64jvm7jfj_000000gn/T//cc1i8NTO.s:3243   .text.LCD_ShowNum1:0000000000000012 .L0 
/var/folders/rt/4gvqv631095f64jvm7jfj_000000gn/T//cc1i8NTO.s:3246   .text.LCD_ShowNum1:0000000000000014 .L0 
/var/folders/rt/4gvqv631095f64jvm7jfj_000000gn/T//cc1i8NTO.s:3253   .text.LCD_ShowNum1:0000000000000022 .L0 
/var/folders/rt/4gvqv631095f64jvm7jfj_000000gn/T//cc1i8NTO.s:3254   .text.LCD_ShowNum1:0000000000000022 .L0 
/var/folders/rt/4gvqv631095f64jvm7jfj_000000gn/T//cc1i8NTO.s:3255   .text.LCD_ShowNum1:0000000000000022 .L0 
/var/folders/rt/4gvqv631095f64jvm7jfj_000000gn/T//cc1i8NTO.s:3256   .text.LCD_ShowNum1:0000000000000022 .L0 
/var/folders/rt/4gvqv631095f64jvm7jfj_000000gn/T//cc1i8NTO.s:3257   .text.LCD_ShowNum1:0000000000000022 .L0 
/var/folders/rt/4gvqv631095f64jvm7jfj_000000gn/T//cc1i8NTO.s:3258   .text.LCD_ShowNum1:0000000000000022 .L0 
/var/folders/rt/4gvqv631095f64jvm7jfj_000000gn/T//cc1i8NTO.s:3259   .text.LCD_ShowNum1:0000000000000022 .L0 
/var/folders/rt/4gvqv631095f64jvm7jfj_000000gn/T//cc1i8NTO.s:3263   .text.LCD_ShowNum1:0000000000000028 .L0 
/var/folders/rt/4gvqv631095f64jvm7jfj_000000gn/T//cc1i8NTO.s:3265   .text.LCD_ShowNum1:0000000000000028 .L0 
/var/folders/rt/4gvqv631095f64jvm7jfj_000000gn/T//cc1i8NTO.s:3268   .text.LCD_ShowNum1:0000000000000030 .L0 
GAS LISTING /var/folders/rt/4gvqv631095f64jvm7jfj_000000gn/T//cc1i8NTO.s 			page 146


/var/folders/rt/4gvqv631095f64jvm7jfj_000000gn/T//cc1i8NTO.s:3273   .text.LCD_ShowNum1:000000000000003a .L0 
/var/folders/rt/4gvqv631095f64jvm7jfj_000000gn/T//cc1i8NTO.s:3274   .text.LCD_ShowNum1:000000000000003a .L0 
/var/folders/rt/4gvqv631095f64jvm7jfj_000000gn/T//cc1i8NTO.s:3278   .text.LCD_ShowNum1:000000000000003c .L0 
/var/folders/rt/4gvqv631095f64jvm7jfj_000000gn/T//cc1i8NTO.s:3280   .text.LCD_ShowNum1:0000000000000040 .L0 
/var/folders/rt/4gvqv631095f64jvm7jfj_000000gn/T//cc1i8NTO.s:3286   .text.LCD_ShowNum1:0000000000000042 .L0 
/var/folders/rt/4gvqv631095f64jvm7jfj_000000gn/T//cc1i8NTO.s:3288   .text.LCD_ShowNum1:0000000000000046 .L0 
/var/folders/rt/4gvqv631095f64jvm7jfj_000000gn/T//cc1i8NTO.s:3289   .text.LCD_ShowNum1:0000000000000048 .L0 
/var/folders/rt/4gvqv631095f64jvm7jfj_000000gn/T//cc1i8NTO.s:3290   .text.LCD_ShowNum1:0000000000000048 .L0 
/var/folders/rt/4gvqv631095f64jvm7jfj_000000gn/T//cc1i8NTO.s:3292   .text.LCD_ShowNum1:000000000000004a .L0 
/var/folders/rt/4gvqv631095f64jvm7jfj_000000gn/T//cc1i8NTO.s:3295   .text.LCD_ShowNum1:000000000000004c .L0 
/var/folders/rt/4gvqv631095f64jvm7jfj_000000gn/T//cc1i8NTO.s:3298   .text.LCD_ShowNum1:000000000000004e .L0 
/var/folders/rt/4gvqv631095f64jvm7jfj_000000gn/T//cc1i8NTO.s:3300   .text.LCD_ShowNum1:0000000000000050 .L0 
/var/folders/rt/4gvqv631095f64jvm7jfj_000000gn/T//cc1i8NTO.s:3303   .text.LCD_ShowNum1:0000000000000052 .L0 
/var/folders/rt/4gvqv631095f64jvm7jfj_000000gn/T//cc1i8NTO.s:3306   .text.LCD_ShowNum1:0000000000000054 .L0 
/var/folders/rt/4gvqv631095f64jvm7jfj_000000gn/T//cc1i8NTO.s:3309   .text.LCD_ShowNum1:0000000000000056 .L0 
/var/folders/rt/4gvqv631095f64jvm7jfj_000000gn/T//cc1i8NTO.s:3311   .text.LCD_ShowNum1:0000000000000058 .L0 
/var/folders/rt/4gvqv631095f64jvm7jfj_000000gn/T//cc1i8NTO.s:3314   .text.LCD_ShowNum1:000000000000005a .L0 
/var/folders/rt/4gvqv631095f64jvm7jfj_000000gn/T//cc1i8NTO.s:3317   .text.LCD_ShowNum1:000000000000005c .L0 
/var/folders/rt/4gvqv631095f64jvm7jfj_000000gn/T//cc1i8NTO.s:3322   .text.LCD_ShowNum1:000000000000005e .L0 
/var/folders/rt/4gvqv631095f64jvm7jfj_000000gn/T//cc1i8NTO.s:3324   .text.LCD_ShowNum1:000000000000005e .L0 
/var/folders/rt/4gvqv631095f64jvm7jfj_000000gn/T//cc1i8NTO.s:3325   .text.LCD_ShowNum1:000000000000005e .L0 
/var/folders/rt/4gvqv631095f64jvm7jfj_000000gn/T//cc1i8NTO.s:3332   .text.LCD_ShowNum1:000000000000006a .L0 
/var/folders/rt/4gvqv631095f64jvm7jfj_000000gn/T//cc1i8NTO.s:3333   .text.LCD_ShowNum1:000000000000006a .L0 
/var/folders/rt/4gvqv631095f64jvm7jfj_000000gn/T//cc1i8NTO.s:3334   .text.LCD_ShowNum1:000000000000006a .L0 
/var/folders/rt/4gvqv631095f64jvm7jfj_000000gn/T//cc1i8NTO.s:3338   .text.LCD_ShowNum1:000000000000006c .L0 
/var/folders/rt/4gvqv631095f64jvm7jfj_000000gn/T//cc1i8NTO.s:3343   .text.LCD_ShowNum1:0000000000000072 .L0 
/var/folders/rt/4gvqv631095f64jvm7jfj_000000gn/T//cc1i8NTO.s:3348   .text.LCD_ShowNum1:0000000000000076 .L0 
/var/folders/rt/4gvqv631095f64jvm7jfj_000000gn/T//cc1i8NTO.s:3349   .text.LCD_ShowNum1:0000000000000076 .L0 
/var/folders/rt/4gvqv631095f64jvm7jfj_000000gn/T//cc1i8NTO.s:3351   .text.LCD_ShowNum1:000000000000007a .L0 
/var/folders/rt/4gvqv631095f64jvm7jfj_000000gn/T//cc1i8NTO.s:3353   .text.LCD_ShowNum1:000000000000007e .L0 
/var/folders/rt/4gvqv631095f64jvm7jfj_000000gn/T//cc1i8NTO.s:3356   .text.LCD_ShowNum1:0000000000000082 .L0 
/var/folders/rt/4gvqv631095f64jvm7jfj_000000gn/T//cc1i8NTO.s:3357   .text.LCD_ShowNum1:0000000000000082 .L0 
/var/folders/rt/4gvqv631095f64jvm7jfj_000000gn/T//cc1i8NTO.s:3359   .text.LCD_ShowNum1:0000000000000086 .L0 
/var/folders/rt/4gvqv631095f64jvm7jfj_000000gn/T//cc1i8NTO.s:3363   .text.LCD_ShowNum1:000000000000008c .L0 
/var/folders/rt/4gvqv631095f64jvm7jfj_000000gn/T//cc1i8NTO.s:3369   .text.LCD_ShowNum1:0000000000000098 .L0 
/var/folders/rt/4gvqv631095f64jvm7jfj_000000gn/T//cc1i8NTO.s:3372   .text.LCD_ShowNum1:000000000000009a .L0 
/var/folders/rt/4gvqv631095f64jvm7jfj_000000gn/T//cc1i8NTO.s:3375   .text.LCD_ShowNum1:00000000000000a2 .L0 
/var/folders/rt/4gvqv631095f64jvm7jfj_000000gn/T//cc1i8NTO.s:3376   .text.LCD_ShowNum1:00000000000000a2 .L0 
/var/folders/rt/4gvqv631095f64jvm7jfj_000000gn/T//cc1i8NTO.s:3377   .text.LCD_ShowNum1:00000000000000a2 .L0 
/var/folders/rt/4gvqv631095f64jvm7jfj_000000gn/T//cc1i8NTO.s:3381   .text.LCD_ShowNum1:00000000000000a6 .L0 
/var/folders/rt/4gvqv631095f64jvm7jfj_000000gn/T//cc1i8NTO.s:3382   .text.LCD_ShowNum1:00000000000000a6 .L0 
/var/folders/rt/4gvqv631095f64jvm7jfj_000000gn/T//cc1i8NTO.s:3384   .text.LCD_ShowNum1:00000000000000aa .L0 
/var/folders/rt/4gvqv631095f64jvm7jfj_000000gn/T//cc1i8NTO.s:3390   .text.LCD_ShowNum1:00000000000000b6 .L0 
/var/folders/rt/4gvqv631095f64jvm7jfj_000000gn/T//cc1i8NTO.s:3393   .text.LCD_ShowNum1:00000000000000b8 .L0 
/var/folders/rt/4gvqv631095f64jvm7jfj_000000gn/T//cc1i8NTO.s:3396   .text.LCD_ShowNum1:00000000000000c0 .L0 
/var/folders/rt/4gvqv631095f64jvm7jfj_000000gn/T//cc1i8NTO.s:3404   .text.LCD_ShowNum1:00000000000000c6 .L0 
/var/folders/rt/4gvqv631095f64jvm7jfj_000000gn/T//cc1i8NTO.s:3405   .text.LCD_ShowNum1:00000000000000c6 .L0 
/var/folders/rt/4gvqv631095f64jvm7jfj_000000gn/T//cc1i8NTO.s:3410   .text.LCD_ShowNum1:00000000000000cc .L0 
/var/folders/rt/4gvqv631095f64jvm7jfj_000000gn/T//cc1i8NTO.s:3417   .text.LCD_ShowPicture:0000000000000000 LCD_ShowPicture
/var/folders/rt/4gvqv631095f64jvm7jfj_000000gn/T//cc1i8NTO.s:3420   .text.LCD_ShowPicture:0000000000000000 .L0 
/var/folders/rt/4gvqv631095f64jvm7jfj_000000gn/T//cc1i8NTO.s:3422   .text.LCD_ShowPicture:0000000000000000 .L0 
/var/folders/rt/4gvqv631095f64jvm7jfj_000000gn/T//cc1i8NTO.s:3423   .text.LCD_ShowPicture:0000000000000000 .L0 
/var/folders/rt/4gvqv631095f64jvm7jfj_000000gn/T//cc1i8NTO.s:3424   .text.LCD_ShowPicture:0000000000000000 .L0 
/var/folders/rt/4gvqv631095f64jvm7jfj_000000gn/T//cc1i8NTO.s:3425   .text.LCD_ShowPicture:0000000000000000 .L0 
/var/folders/rt/4gvqv631095f64jvm7jfj_000000gn/T//cc1i8NTO.s:3427   .text.LCD_ShowPicture:0000000000000002 .L0 
/var/folders/rt/4gvqv631095f64jvm7jfj_000000gn/T//cc1i8NTO.s:3430   .text.LCD_ShowPicture:0000000000000004 .L0 
/var/folders/rt/4gvqv631095f64jvm7jfj_000000gn/T//cc1i8NTO.s:3431   .text.LCD_ShowPicture:0000000000000008 .L0 
GAS LISTING /var/folders/rt/4gvqv631095f64jvm7jfj_000000gn/T//cc1i8NTO.s 			page 147


/var/folders/rt/4gvqv631095f64jvm7jfj_000000gn/T//cc1i8NTO.s:3433   .text.LCD_ShowPicture:0000000000000008 .L0 
/var/folders/rt/4gvqv631095f64jvm7jfj_000000gn/T//cc1i8NTO.s:3435   .text.LCD_ShowPicture:000000000000000c .L0 
/var/folders/rt/4gvqv631095f64jvm7jfj_000000gn/T//cc1i8NTO.s:3437   .text.LCD_ShowPicture:000000000000000e .L0 
/var/folders/rt/4gvqv631095f64jvm7jfj_000000gn/T//cc1i8NTO.s:3440   .text.LCD_ShowPicture:0000000000000014 .L0 
/var/folders/rt/4gvqv631095f64jvm7jfj_000000gn/T//cc1i8NTO.s:3443   .text.LCD_ShowPicture:000000000000001a .L0 
/var/folders/rt/4gvqv631095f64jvm7jfj_000000gn/T//cc1i8NTO.s:3444   .text.LCD_ShowPicture:000000000000001a .L0 
/var/folders/rt/4gvqv631095f64jvm7jfj_000000gn/T//cc1i8NTO.s:3445   .text.LCD_ShowPicture:000000000000001a .L0 
/var/folders/rt/4gvqv631095f64jvm7jfj_000000gn/T//cc1i8NTO.s:3447   .text.LCD_ShowPicture:000000000000001a .L0 
/var/folders/rt/4gvqv631095f64jvm7jfj_000000gn/T//cc1i8NTO.s:3449   .text.LCD_ShowPicture:000000000000001c .L0 
/var/folders/rt/4gvqv631095f64jvm7jfj_000000gn/T//cc1i8NTO.s:3451   .text.LCD_ShowPicture:000000000000001e .L0 
/var/folders/rt/4gvqv631095f64jvm7jfj_000000gn/T//cc1i8NTO.s:3454   .text.LCD_ShowPicture:0000000000000026 .L0 
/var/folders/rt/4gvqv631095f64jvm7jfj_000000gn/T//cc1i8NTO.s:3457   .text.LCD_ShowPicture:0000000000000028 .L0 
/var/folders/rt/4gvqv631095f64jvm7jfj_000000gn/T//cc1i8NTO.s:3459   .text.LCD_ShowPicture:0000000000000028 .L0 
/var/folders/rt/4gvqv631095f64jvm7jfj_000000gn/T//cc1i8NTO.s:3460   .text.LCD_ShowPicture:0000000000000028 .L0 
/var/folders/rt/4gvqv631095f64jvm7jfj_000000gn/T//cc1i8NTO.s:3462   .text.LCD_ShowPicture:000000000000002c .L0 
/var/folders/rt/4gvqv631095f64jvm7jfj_000000gn/T//cc1i8NTO.s:3463   .text.LCD_ShowPicture:000000000000002e .L0 
/var/folders/rt/4gvqv631095f64jvm7jfj_000000gn/T//cc1i8NTO.s:3464   .text.LCD_ShowPicture:000000000000002e .L0 
/var/folders/rt/4gvqv631095f64jvm7jfj_000000gn/T//cc1i8NTO.s:3466   .text.LCD_ShowPicture:0000000000000030 .L0 
/var/folders/rt/4gvqv631095f64jvm7jfj_000000gn/T//cc1i8NTO.s:3469   .text.LCD_ShowPicture:0000000000000032 .L0 
/var/folders/rt/4gvqv631095f64jvm7jfj_000000gn/T//cc1i8NTO.s:3472   .text.LCD_ShowPicture:0000000000000034 .L0 
/var/folders/rt/4gvqv631095f64jvm7jfj_000000gn/T//cc1i8NTO.s:3476   .text.LCD_ShowPicture:0000000000000036 .L0 
/var/folders/rt/4gvqv631095f64jvm7jfj_000000gn/T//cc1i8NTO.s:3481   .text.LCD_ShowPicture:0000000000000038 .L0 
/var/folders/rt/4gvqv631095f64jvm7jfj_000000gn/T//cc1i8NTO.s:3483   .text.LCD_ShowPicture:0000000000000038 .L0 
/var/folders/rt/4gvqv631095f64jvm7jfj_000000gn/T//cc1i8NTO.s:3486   .text.LCD_ShowPicture:0000000000000040 .L0 
/var/folders/rt/4gvqv631095f64jvm7jfj_000000gn/T//cc1i8NTO.s:3489   .text.LCD_ShowPicture:0000000000000042 .L0 
/var/folders/rt/4gvqv631095f64jvm7jfj_000000gn/T//cc1i8NTO.s:3492   .text.LCD_ShowPicture:000000000000004c .L0 
/var/folders/rt/4gvqv631095f64jvm7jfj_000000gn/T//cc1i8NTO.s:3508   .bss.queue:0000000000000000 queue
/var/folders/rt/4gvqv631095f64jvm7jfj_000000gn/T//cc1i8NTO.s:5956   .sbss.w:0000000000000000 w
/var/folders/rt/4gvqv631095f64jvm7jfj_000000gn/T//cc1i8NTO.s:5949   .sbss.r:0000000000000000 r
/var/folders/rt/4gvqv631095f64jvm7jfj_000000gn/T//cc1i8NTO.s:5942   .sbss.lcd_conf:0000000000000000 lcd_conf
/var/folders/rt/4gvqv631095f64jvm7jfj_000000gn/T//cc1i8NTO.s:3515   .data.Hzk16:0000000000000000 Hzk16
/var/folders/rt/4gvqv631095f64jvm7jfj_000000gn/T//cc1i8NTO.s:4395   .rodata.asc2_1608:0000000000000000 asc2_1608
/var/folders/rt/4gvqv631095f64jvm7jfj_000000gn/T//cc1i8NTO.s:3745   .data.Hzk32:0000000000000000 Hzk32
/var/folders/rt/4gvqv631095f64jvm7jfj_000000gn/T//cc1i8NTO.s:3505   .bss.queue:0000000000000000 .LANCHOR2
/var/folders/rt/4gvqv631095f64jvm7jfj_000000gn/T//cc1i8NTO.s:3512   .data.Hzk16:0000000000000000 .LANCHOR4
/var/folders/rt/4gvqv631095f64jvm7jfj_000000gn/T//cc1i8NTO.s:3742   .data.Hzk32:0000000000000000 .LANCHOR5
/var/folders/rt/4gvqv631095f64jvm7jfj_000000gn/T//cc1i8NTO.s:4392   .rodata.asc2_1608:0000000000000000 .LANCHOR6
/var/folders/rt/4gvqv631095f64jvm7jfj_000000gn/T//cc1i8NTO.s:5939   .sbss.lcd_conf:0000000000000000 .LANCHOR3
/var/folders/rt/4gvqv631095f64jvm7jfj_000000gn/T//cc1i8NTO.s:5946   .sbss.r:0000000000000000 .LANCHOR0
/var/folders/rt/4gvqv631095f64jvm7jfj_000000gn/T//cc1i8NTO.s:5953   .sbss.w:0000000000000000 .LANCHOR1
/var/folders/rt/4gvqv631095f64jvm7jfj_000000gn/T//cc1i8NTO.s:162    .text.lcd_delay_1ms:00000000000000ce .L0 
/var/folders/rt/4gvqv631095f64jvm7jfj_000000gn/T//cc1i8NTO.s:303    .text.LCD_WR_Queue:00000000000000c2 .L0 
/var/folders/rt/4gvqv631095f64jvm7jfj_000000gn/T//cc1i8NTO.s:352    .text.LCD_Wait_On_Queue:0000000000000030 .L0 
/var/folders/rt/4gvqv631095f64jvm7jfj_000000gn/T//cc1i8NTO.s:373    .text.is_LCD_queue_empy:0000000000000018 .L0 
/var/folders/rt/4gvqv631095f64jvm7jfj_000000gn/T//cc1i8NTO.s:452    .text.LCD_Write_Bus:0000000000000058 .L0 
/var/folders/rt/4gvqv631095f64jvm7jfj_000000gn/T//cc1i8NTO.s:548    .text.LCD_Writ_Bus:0000000000000078 .L0 
/var/folders/rt/4gvqv631095f64jvm7jfj_000000gn/T//cc1i8NTO.s:565    .text.LCD_WR_DATA8:000000000000000c .L0 
/var/folders/rt/4gvqv631095f64jvm7jfj_000000gn/T//cc1i8NTO.s:614    .text.LCD_WR_DATA:000000000000002c .L0 
/var/folders/rt/4gvqv631095f64jvm7jfj_000000gn/T//cc1i8NTO.s:629    .text.LCD_WR_REG:0000000000000008 .L0 
/var/folders/rt/4gvqv631095f64jvm7jfj_000000gn/T//cc1i8NTO.s:761    .text.LCD_Address_Set:0000000000000088 .L0 
/var/folders/rt/4gvqv631095f64jvm7jfj_000000gn/T//cc1i8NTO.s:841    .text.spi_config:000000000000005e .L0 
/var/folders/rt/4gvqv631095f64jvm7jfj_000000gn/T//cc1i8NTO.s:893    .text.Lcd_SetType:0000000000000026 .L0 
/var/folders/rt/4gvqv631095f64jvm7jfj_000000gn/T//cc1i8NTO.s:1702   .text.Lcd_Init:0000000000000464 .L0 
/var/folders/rt/4gvqv631095f64jvm7jfj_000000gn/T//cc1i8NTO.s:1776   .text.LCD_Clear:0000000000000046 .L0 
/var/folders/rt/4gvqv631095f64jvm7jfj_000000gn/T//cc1i8NTO.s:1916   .text.LCD_ShowChinese:0000000000000098 .L0 
/var/folders/rt/4gvqv631095f64jvm7jfj_000000gn/T//cc1i8NTO.s:1962   .text.LCD_DrawPoint:0000000000000024 .L0 
/var/folders/rt/4gvqv631095f64jvm7jfj_000000gn/T//cc1i8NTO.s:2055   .text.LCD_Fill:0000000000000050 .L0 
GAS LISTING /var/folders/rt/4gvqv631095f64jvm7jfj_000000gn/T//cc1i8NTO.s 			page 148


/var/folders/rt/4gvqv631095f64jvm7jfj_000000gn/T//cc1i8NTO.s:2078   .text.LCD_DrawPoint_big:0000000000000016 .L0 
/var/folders/rt/4gvqv631095f64jvm7jfj_000000gn/T//cc1i8NTO.s:2280   .text.LCD_DrawLine:00000000000000a4 .L0 
/var/folders/rt/4gvqv631095f64jvm7jfj_000000gn/T//cc1i8NTO.s:2372   .text.LCD_DrawRectangle:0000000000000066 .L0 
/var/folders/rt/4gvqv631095f64jvm7jfj_000000gn/T//cc1i8NTO.s:2551   .text.Draw_Circle:00000000000000f2 .L0 
/var/folders/rt/4gvqv631095f64jvm7jfj_000000gn/T//cc1i8NTO.s:2760   .text.LCD_ShowChar:00000000000000de .L0 
/var/folders/rt/4gvqv631095f64jvm7jfj_000000gn/T//cc1i8NTO.s:2887   .text.LCD_ShowString:0000000000000076 .L0 
/var/folders/rt/4gvqv631095f64jvm7jfj_000000gn/T//cc1i8NTO.s:2999   .text.LCD_ShowStr:0000000000000060 .L0 
/var/folders/rt/4gvqv631095f64jvm7jfj_000000gn/T//cc1i8NTO.s:3038   .text.mypow:000000000000001a .L0 
/var/folders/rt/4gvqv631095f64jvm7jfj_000000gn/T//cc1i8NTO.s:3213   .text.LCD_ShowNum:00000000000000a8 .L0 
/var/folders/rt/4gvqv631095f64jvm7jfj_000000gn/T//cc1i8NTO.s:3413   .text.LCD_ShowNum1:00000000000000cc .L0 
/var/folders/rt/4gvqv631095f64jvm7jfj_000000gn/T//cc1i8NTO.s:3503   .text.LCD_ShowPicture:000000000000004c .L0 
                     .debug_frame:0000000000000000 .L0 
/var/folders/rt/4gvqv631095f64jvm7jfj_000000gn/T//cc1i8NTO.s:5934   .rodata.lcd_delay_1ms.cst8:0000000000000000 .LC0
/var/folders/rt/4gvqv631095f64jvm7jfj_000000gn/T//cc1i8NTO.s:72     .text.lcd_delay_1ms:000000000000003a .L3
/var/folders/rt/4gvqv631095f64jvm7jfj_000000gn/T//cc1i8NTO.s:60     .text.lcd_delay_1ms:0000000000000026 .L2
/var/folders/rt/4gvqv631095f64jvm7jfj_000000gn/T//cc1i8NTO.s:79     .text.lcd_delay_1ms:000000000000004a .L4
/var/folders/rt/4gvqv631095f64jvm7jfj_000000gn/T//cc1i8NTO.s:277    .text.LCD_WR_Queue:00000000000000ac .L8
/var/folders/rt/4gvqv631095f64jvm7jfj_000000gn/T//cc1i8NTO.s:253    .text.LCD_WR_Queue:0000000000000098 .L7
/var/folders/rt/4gvqv631095f64jvm7jfj_000000gn/T//cc1i8NTO.s:268    .text.LCD_WR_Queue:00000000000000a2 .L10
/var/folders/rt/4gvqv631095f64jvm7jfj_000000gn/T//cc1i8NTO.s:228    .text.LCD_WR_Queue:000000000000006c .L11
/var/folders/rt/4gvqv631095f64jvm7jfj_000000gn/T//cc1i8NTO.s:342    .text.LCD_Wait_On_Queue:0000000000000026 .L18
/var/folders/rt/4gvqv631095f64jvm7jfj_000000gn/T//cc1i8NTO.s:325    .text.LCD_Wait_On_Queue:0000000000000010 .L17
/var/folders/rt/4gvqv631095f64jvm7jfj_000000gn/T//cc1i8NTO.s:440    .text.LCD_Write_Bus:000000000000004a .L23
/var/folders/rt/4gvqv631095f64jvm7jfj_000000gn/T//cc1i8NTO.s:402    .text.LCD_Write_Bus:0000000000000016 .L22
/var/folders/rt/4gvqv631095f64jvm7jfj_000000gn/T//cc1i8NTO.s:490    .text.LCD_Writ_Bus:0000000000000022 .L26
/var/folders/rt/4gvqv631095f64jvm7jfj_000000gn/T//cc1i8NTO.s:510    .text.LCD_Writ_Bus:0000000000000046 .L27
/var/folders/rt/4gvqv631095f64jvm7jfj_000000gn/T//cc1i8NTO.s:871    .text.Lcd_SetType:0000000000000012 .L42
/var/folders/rt/4gvqv631095f64jvm7jfj_000000gn/T//cc1i8NTO.s:866    .text.Lcd_SetType:0000000000000010 .L41
/var/folders/rt/4gvqv631095f64jvm7jfj_000000gn/T//cc1i8NTO.s:861    .text.Lcd_SetType:000000000000000c .L44
/var/folders/rt/4gvqv631095f64jvm7jfj_000000gn/T//cc1i8NTO.s:921    .text.Lcd_Init:000000000000001e .L46
/var/folders/rt/4gvqv631095f64jvm7jfj_000000gn/T//cc1i8NTO.s:1018   .text.Lcd_Init:00000000000000ea .L50
/var/folders/rt/4gvqv631095f64jvm7jfj_000000gn/T//cc1i8NTO.s:1744   .text.LCD_Clear:0000000000000028 .L53
/var/folders/rt/4gvqv631095f64jvm7jfj_000000gn/T//cc1i8NTO.s:1740   .text.LCD_Clear:0000000000000024 .L52
/var/folders/rt/4gvqv631095f64jvm7jfj_000000gn/T//cc1i8NTO.s:1876   .text.LCD_ShowChinese:0000000000000068 .L63
/var/folders/rt/4gvqv631095f64jvm7jfj_000000gn/T//cc1i8NTO.s:1883   .text.LCD_ShowChinese:0000000000000072 .L64
/var/folders/rt/4gvqv631095f64jvm7jfj_000000gn/T//cc1i8NTO.s:1818   .text.LCD_ShowChinese:0000000000000026 .L58
/var/folders/rt/4gvqv631095f64jvm7jfj_000000gn/T//cc1i8NTO.s:1901   .text.LCD_ShowChinese:0000000000000086 .L67
/var/folders/rt/4gvqv631095f64jvm7jfj_000000gn/T//cc1i8NTO.s:1885   .text.LCD_ShowChinese:0000000000000074 .L62
/var/folders/rt/4gvqv631095f64jvm7jfj_000000gn/T//cc1i8NTO.s:1850   .text.LCD_ShowChinese:0000000000000052 .L59
/var/folders/rt/4gvqv631095f64jvm7jfj_000000gn/T//cc1i8NTO.s:2048   .text.LCD_Fill:000000000000004c .L74
/var/folders/rt/4gvqv631095f64jvm7jfj_000000gn/T//cc1i8NTO.s:2030   .text.LCD_Fill:0000000000000038 .L72
/var/folders/rt/4gvqv631095f64jvm7jfj_000000gn/T//cc1i8NTO.s:2001   .text.LCD_Fill:0000000000000022 .L71
/var/folders/rt/4gvqv631095f64jvm7jfj_000000gn/T//cc1i8NTO.s:2040   .text.LCD_Fill:0000000000000044 .L73
/var/folders/rt/4gvqv631095f64jvm7jfj_000000gn/T//cc1i8NTO.s:2153   .text.LCD_DrawLine:0000000000000036 .L78
/var/folders/rt/4gvqv631095f64jvm7jfj_000000gn/T//cc1i8NTO.s:2173   .text.LCD_DrawLine:0000000000000046 .L79
/var/folders/rt/4gvqv631095f64jvm7jfj_000000gn/T//cc1i8NTO.s:2178   .text.LCD_DrawLine:000000000000004e .L80
/var/folders/rt/4gvqv631095f64jvm7jfj_000000gn/T//cc1i8NTO.s:2219   .text.LCD_DrawLine:0000000000000078 .L81
/var/folders/rt/4gvqv631095f64jvm7jfj_000000gn/T//cc1i8NTO.s:2231   .text.LCD_DrawLine:0000000000000082 .L82
/var/folders/rt/4gvqv631095f64jvm7jfj_000000gn/T//cc1i8NTO.s:2190   .text.LCD_DrawLine:0000000000000058 .L83
/var/folders/rt/4gvqv631095f64jvm7jfj_000000gn/T//cc1i8NTO.s:2509   .text.Draw_Circle:00000000000000d0 .L95
/var/folders/rt/4gvqv631095f64jvm7jfj_000000gn/T//cc1i8NTO.s:2427   .text.Draw_Circle:000000000000002a .L96
/var/folders/rt/4gvqv631095f64jvm7jfj_000000gn/T//cc1i8NTO.s:2742   .text.LCD_ShowChar:00000000000000dc .L118
/var/folders/rt/4gvqv631095f64jvm7jfj_000000gn/T//cc1i8NTO.s:2669   .text.LCD_ShowChar:000000000000008e .L99
/var/folders/rt/4gvqv631095f64jvm7jfj_000000gn/T//cc1i8NTO.s:2697   .text.LCD_ShowChar:00000000000000a4 .L102
/var/folders/rt/4gvqv631095f64jvm7jfj_000000gn/T//cc1i8NTO.s:2648   .text.LCD_ShowChar:0000000000000074 .L121
/var/folders/rt/4gvqv631095f64jvm7jfj_000000gn/T//cc1i8NTO.s:2636   .text.LCD_ShowChar:0000000000000068 .L105
/var/folders/rt/4gvqv631095f64jvm7jfj_000000gn/T//cc1i8NTO.s:2625   .text.LCD_ShowChar:000000000000005c .L106
GAS LISTING /var/folders/rt/4gvqv631095f64jvm7jfj_000000gn/T//cc1i8NTO.s 			page 149


/var/folders/rt/4gvqv631095f64jvm7jfj_000000gn/T//cc1i8NTO.s:2727   .text.LCD_ShowChar:00000000000000c8 .L107
/var/folders/rt/4gvqv631095f64jvm7jfj_000000gn/T//cc1i8NTO.s:2716   .text.LCD_ShowChar:00000000000000b2 .L108
/var/folders/rt/4gvqv631095f64jvm7jfj_000000gn/T//cc1i8NTO.s:2707   .text.LCD_ShowChar:00000000000000ac .L109
/var/folders/rt/4gvqv631095f64jvm7jfj_000000gn/T//cc1i8NTO.s:2836   .text.LCD_ShowString:0000000000000042 .L126
/var/folders/rt/4gvqv631095f64jvm7jfj_000000gn/T//cc1i8NTO.s:2851   .text.LCD_ShowString:000000000000004a .L124
/var/folders/rt/4gvqv631095f64jvm7jfj_000000gn/T//cc1i8NTO.s:2866   .text.LCD_ShowString:000000000000005c .L125
/var/folders/rt/4gvqv631095f64jvm7jfj_000000gn/T//cc1i8NTO.s:2805   .text.LCD_ShowString:0000000000000028 .L123
/var/folders/rt/4gvqv631095f64jvm7jfj_000000gn/T//cc1i8NTO.s:2961   .text.LCD_ShowStr:000000000000003e .L132
/var/folders/rt/4gvqv631095f64jvm7jfj_000000gn/T//cc1i8NTO.s:2976   .text.LCD_ShowStr:0000000000000046 .L130
/var/folders/rt/4gvqv631095f64jvm7jfj_000000gn/T//cc1i8NTO.s:2933   .text.LCD_ShowStr:000000000000002a .L128
/var/folders/rt/4gvqv631095f64jvm7jfj_000000gn/T//cc1i8NTO.s:2928   .text.LCD_ShowStr:0000000000000024 .L129
/var/folders/rt/4gvqv631095f64jvm7jfj_000000gn/T//cc1i8NTO.s:3029   .text.mypow:0000000000000014 .L136
/var/folders/rt/4gvqv631095f64jvm7jfj_000000gn/T//cc1i8NTO.s:3015   .text.mypow:0000000000000006 .L135
/var/folders/rt/4gvqv631095f64jvm7jfj_000000gn/T//cc1i8NTO.s:3188   .text.LCD_ShowNum:0000000000000096 .L144
/var/folders/rt/4gvqv631095f64jvm7jfj_000000gn/T//cc1i8NTO.s:3134   .text.LCD_ShowNum:0000000000000050 .L139
/var/folders/rt/4gvqv631095f64jvm7jfj_000000gn/T//cc1i8NTO.s:3201   .text.LCD_ShowNum:000000000000009e .L140
/var/folders/rt/4gvqv631095f64jvm7jfj_000000gn/T//cc1i8NTO.s:3196   .text.LCD_ShowNum:000000000000009c .L143
/var/folders/rt/4gvqv631095f64jvm7jfj_000000gn/T//cc1i8NTO.s:3094   .text.LCD_ShowNum:0000000000000032 .L138
/var/folders/rt/4gvqv631095f64jvm7jfj_000000gn/T//cc1i8NTO.s:3143   .text.LCD_ShowNum:0000000000000054 .L142
/var/folders/rt/4gvqv631095f64jvm7jfj_000000gn/T//cc1i8NTO.s:3177   .text.LCD_ShowNum:0000000000000082 .L146
/var/folders/rt/4gvqv631095f64jvm7jfj_000000gn/T//cc1i8NTO.s:4388   .rodata.LCD_ShowNum1.cst4:0000000000000000 .LC1
/var/folders/rt/4gvqv631095f64jvm7jfj_000000gn/T//cc1i8NTO.s:3320   .text.LCD_ShowNum1:000000000000005e .L152
/var/folders/rt/4gvqv631095f64jvm7jfj_000000gn/T//cc1i8NTO.s:3400   .text.LCD_ShowNum1:00000000000000c6 .L150
/var/folders/rt/4gvqv631095f64jvm7jfj_000000gn/T//cc1i8NTO.s:3379   .text.LCD_ShowNum1:00000000000000a6 .L151
/var/folders/rt/4gvqv631095f64jvm7jfj_000000gn/T//cc1i8NTO.s:3282   .text.LCD_ShowNum1:0000000000000042 .L148
/var/folders/rt/4gvqv631095f64jvm7jfj_000000gn/T//cc1i8NTO.s:3336   .text.LCD_ShowNum1:000000000000006c .L149
/var/folders/rt/4gvqv631095f64jvm7jfj_000000gn/T//cc1i8NTO.s:3479   .text.LCD_ShowPicture:0000000000000038 .L156
/var/folders/rt/4gvqv631095f64jvm7jfj_000000gn/T//cc1i8NTO.s:3458   .text.LCD_ShowPicture:0000000000000028 .L155
/var/folders/rt/4gvqv631095f64jvm7jfj_000000gn/T//cc1i8NTO.s:12203  .debug_abbrev:0000000000000000 .Ldebug_abbrev0
/var/folders/rt/4gvqv631095f64jvm7jfj_000000gn/T//cc1i8NTO.s:17042  .debug_str:000000000000015b .LASF249
/var/folders/rt/4gvqv631095f64jvm7jfj_000000gn/T//cc1i8NTO.s:17472  .debug_str:0000000000000a70 .LASF250
/var/folders/rt/4gvqv631095f64jvm7jfj_000000gn/T//cc1i8NTO.s:17114  .debug_str:0000000000000355 .LASF251
/var/folders/rt/4gvqv631095f64jvm7jfj_000000gn/T//cc1i8NTO.s:16852  .debug_ranges:0000000000000000 .Ldebug_ranges0
/var/folders/rt/4gvqv631095f64jvm7jfj_000000gn/T//cc1i8NTO.s:16970  .debug_line:0000000000000000 .Ldebug_line0
/var/folders/rt/4gvqv631095f64jvm7jfj_000000gn/T//cc1i8NTO.s:17248  .debug_str:0000000000000614 .LASF0
/var/folders/rt/4gvqv631095f64jvm7jfj_000000gn/T//cc1i8NTO.s:17254  .debug_str:0000000000000635 .LASF1
/var/folders/rt/4gvqv631095f64jvm7jfj_000000gn/T//cc1i8NTO.s:17458  .debug_str:0000000000000a17 .LASF2
/var/folders/rt/4gvqv631095f64jvm7jfj_000000gn/T//cc1i8NTO.s:17214  .debug_str:000000000000057b .LASF3
/var/folders/rt/4gvqv631095f64jvm7jfj_000000gn/T//cc1i8NTO.s:17298  .debug_str:0000000000000708 .LASF4
/var/folders/rt/4gvqv631095f64jvm7jfj_000000gn/T//cc1i8NTO.s:17378  .debug_str:00000000000008b5 .LASF6
/var/folders/rt/4gvqv631095f64jvm7jfj_000000gn/T//cc1i8NTO.s:17092  .debug_str:00000000000002d3 .LASF5
/var/folders/rt/4gvqv631095f64jvm7jfj_000000gn/T//cc1i8NTO.s:17056  .debug_str:0000000000000217 .LASF7
/var/folders/rt/4gvqv631095f64jvm7jfj_000000gn/T//cc1i8NTO.s:17102  .debug_str:0000000000000305 .LASF8
/var/folders/rt/4gvqv631095f64jvm7jfj_000000gn/T//cc1i8NTO.s:17394  .debug_str:00000000000008f6 .LASF9
/var/folders/rt/4gvqv631095f64jvm7jfj_000000gn/T//cc1i8NTO.s:17068  .debug_str:0000000000000256 .LASF10
/var/folders/rt/4gvqv631095f64jvm7jfj_000000gn/T//cc1i8NTO.s:17206  .debug_str:0000000000000553 .LASF11
/var/folders/rt/4gvqv631095f64jvm7jfj_000000gn/T//cc1i8NTO.s:17162  .debug_str:0000000000000451 .LASF12
/var/folders/rt/4gvqv631095f64jvm7jfj_000000gn/T//cc1i8NTO.s:17158  .debug_str:0000000000000441 .LASF13
/var/folders/rt/4gvqv631095f64jvm7jfj_000000gn/T//cc1i8NTO.s:17326  .debug_str:000000000000078c .LASF14
/var/folders/rt/4gvqv631095f64jvm7jfj_000000gn/T//cc1i8NTO.s:17454  .debug_str:0000000000000a0b .LASF15
/var/folders/rt/4gvqv631095f64jvm7jfj_000000gn/T//cc1i8NTO.s:17312  .debug_str:0000000000000744 .LASF16
/var/folders/rt/4gvqv631095f64jvm7jfj_000000gn/T//cc1i8NTO.s:16974  .debug_str:0000000000000012 .LASF17
/var/folders/rt/4gvqv631095f64jvm7jfj_000000gn/T//cc1i8NTO.s:17054  .debug_str:0000000000000211 .LASF18
/var/folders/rt/4gvqv631095f64jvm7jfj_000000gn/T//cc1i8NTO.s:17314  .debug_str:000000000000074c .LASF19
/var/folders/rt/4gvqv631095f64jvm7jfj_000000gn/T//cc1i8NTO.s:17290  .debug_str:00000000000006e7 .LASF20
/var/folders/rt/4gvqv631095f64jvm7jfj_000000gn/T//cc1i8NTO.s:16980  .debug_str:000000000000002b .LASF21
/var/folders/rt/4gvqv631095f64jvm7jfj_000000gn/T//cc1i8NTO.s:17366  .debug_str:000000000000087c .LASF22
GAS LISTING /var/folders/rt/4gvqv631095f64jvm7jfj_000000gn/T//cc1i8NTO.s 			page 150


/var/folders/rt/4gvqv631095f64jvm7jfj_000000gn/T//cc1i8NTO.s:17438  .debug_str:00000000000009bb .LASF23
/var/folders/rt/4gvqv631095f64jvm7jfj_000000gn/T//cc1i8NTO.s:17184  .debug_str:00000000000004d8 .LASF24
/var/folders/rt/4gvqv631095f64jvm7jfj_000000gn/T//cc1i8NTO.s:17358  .debug_str:0000000000000850 .LASF25
/var/folders/rt/4gvqv631095f64jvm7jfj_000000gn/T//cc1i8NTO.s:17192  .debug_str:000000000000050d .LASF30
/var/folders/rt/4gvqv631095f64jvm7jfj_000000gn/T//cc1i8NTO.s:17382  .debug_str:00000000000008c2 .LASF26
/var/folders/rt/4gvqv631095f64jvm7jfj_000000gn/T//cc1i8NTO.s:17194  .debug_str:0000000000000515 .LASF27
/var/folders/rt/4gvqv631095f64jvm7jfj_000000gn/T//cc1i8NTO.s:17246  .debug_str:000000000000060e .LASF28
/var/folders/rt/4gvqv631095f64jvm7jfj_000000gn/T//cc1i8NTO.s:17138  .debug_str:00000000000003e4 .LASF29
/var/folders/rt/4gvqv631095f64jvm7jfj_000000gn/T//cc1i8NTO.s:17004  .debug_str:000000000000008d .LASF31
/var/folders/rt/4gvqv631095f64jvm7jfj_000000gn/T//cc1i8NTO.s:17010  .debug_str:00000000000000a9 .LASF32
/var/folders/rt/4gvqv631095f64jvm7jfj_000000gn/T//cc1i8NTO.s:17482  .debug_str:0000000000000aa6 .LASF33
/var/folders/rt/4gvqv631095f64jvm7jfj_000000gn/T//cc1i8NTO.s:17462  .debug_str:0000000000000a2f .LASF34
/var/folders/rt/4gvqv631095f64jvm7jfj_000000gn/T//cc1i8NTO.s:17268  .debug_str:0000000000000681 .LASF35
/var/folders/rt/4gvqv631095f64jvm7jfj_000000gn/T//cc1i8NTO.s:17082  .debug_str:00000000000002a2 .LASF36
/var/folders/rt/4gvqv631095f64jvm7jfj_000000gn/T//cc1i8NTO.s:17408  .debug_str:0000000000000931 .LASF37
/var/folders/rt/4gvqv631095f64jvm7jfj_000000gn/T//cc1i8NTO.s:17294  .debug_str:00000000000006f8 .LASF38
/var/folders/rt/4gvqv631095f64jvm7jfj_000000gn/T//cc1i8NTO.s:17300  .debug_str:0000000000000714 .LASF39
/var/folders/rt/4gvqv631095f64jvm7jfj_000000gn/T//cc1i8NTO.s:17478  .debug_str:0000000000000a90 .LASF40
/var/folders/rt/4gvqv631095f64jvm7jfj_000000gn/T//cc1i8NTO.s:17062  .debug_str:000000000000022e .LASF41
/var/folders/rt/4gvqv631095f64jvm7jfj_000000gn/T//cc1i8NTO.s:17476  .debug_str:0000000000000a88 .LASF42
/var/folders/rt/4gvqv631095f64jvm7jfj_000000gn/T//cc1i8NTO.s:17328  .debug_str:00000000000007a3 .LASF43
/var/folders/rt/4gvqv631095f64jvm7jfj_000000gn/T//cc1i8NTO.s:17406  .debug_str:0000000000000928 .LASF44
/var/folders/rt/4gvqv631095f64jvm7jfj_000000gn/T//cc1i8NTO.s:17430  .debug_str:000000000000099b .LASF45
/var/folders/rt/4gvqv631095f64jvm7jfj_000000gn/T//cc1i8NTO.s:17284  .debug_str:00000000000006c7 .LASF46
/var/folders/rt/4gvqv631095f64jvm7jfj_000000gn/T//cc1i8NTO.s:17426  .debug_str:000000000000098f .LASF47
/var/folders/rt/4gvqv631095f64jvm7jfj_000000gn/T//cc1i8NTO.s:17120  .debug_str:00000000000003a6 .LASF48
/var/folders/rt/4gvqv631095f64jvm7jfj_000000gn/T//cc1i8NTO.s:17428  .debug_str:0000000000000994 .LASF49
/var/folders/rt/4gvqv631095f64jvm7jfj_000000gn/T//cc1i8NTO.s:17340  .debug_str:00000000000007e0 .LASF50
/var/folders/rt/4gvqv631095f64jvm7jfj_000000gn/T//cc1i8NTO.s:17074  .debug_str:0000000000000275 .LASF51
/var/folders/rt/4gvqv631095f64jvm7jfj_000000gn/T//cc1i8NTO.s:17168  .debug_str:0000000000000482 .LASF52
/var/folders/rt/4gvqv631095f64jvm7jfj_000000gn/T//cc1i8NTO.s:17282  .debug_str:00000000000006c0 .LASF53
/var/folders/rt/4gvqv631095f64jvm7jfj_000000gn/T//cc1i8NTO.s:17058  .debug_str:0000000000000221 .LASF54
/var/folders/rt/4gvqv631095f64jvm7jfj_000000gn/T//cc1i8NTO.s:17420  .debug_str:0000000000000976 .LASF55
/var/folders/rt/4gvqv631095f64jvm7jfj_000000gn/T//cc1i8NTO.s:17136  .debug_str:00000000000003dc .LASF56
/var/folders/rt/4gvqv631095f64jvm7jfj_000000gn/T//cc1i8NTO.s:16984  .debug_str:0000000000000038 .LASF57
/var/folders/rt/4gvqv631095f64jvm7jfj_000000gn/T//cc1i8NTO.s:16992  .debug_str:0000000000000055 .LASF58
/var/folders/rt/4gvqv631095f64jvm7jfj_000000gn/T//cc1i8NTO.s:17310  .debug_str:000000000000073e .LASF59
/var/folders/rt/4gvqv631095f64jvm7jfj_000000gn/T//cc1i8NTO.s:17122  .debug_str:00000000000003ab .LASF60
/var/folders/rt/4gvqv631095f64jvm7jfj_000000gn/T//cc1i8NTO.s:17272  .debug_str:0000000000000690 .LASF61
/var/folders/rt/4gvqv631095f64jvm7jfj_000000gn/T//cc1i8NTO.s:17008  .debug_str:00000000000000a3 .LASF62
/var/folders/rt/4gvqv631095f64jvm7jfj_000000gn/T//cc1i8NTO.s:17334  .debug_str:00000000000007bf .LASF63
/var/folders/rt/4gvqv631095f64jvm7jfj_000000gn/T//cc1i8NTO.s:17146  .debug_str:000000000000040b .LASF64
/var/folders/rt/4gvqv631095f64jvm7jfj_000000gn/T//cc1i8NTO.s:17384  .debug_str:00000000000008c8 .LASF65
/var/folders/rt/4gvqv631095f64jvm7jfj_000000gn/T//cc1i8NTO.s:17038  .debug_str:0000000000000140 .LASF66
/var/folders/rt/4gvqv631095f64jvm7jfj_000000gn/T//cc1i8NTO.s:17278  .debug_str:00000000000006ac .LASF67
/var/folders/rt/4gvqv631095f64jvm7jfj_000000gn/T//cc1i8NTO.s:17172  .debug_str:0000000000000495 .LASF68
/var/folders/rt/4gvqv631095f64jvm7jfj_000000gn/T//cc1i8NTO.s:17110  .debug_str:000000000000033b .LASF69
/var/folders/rt/4gvqv631095f64jvm7jfj_000000gn/T//cc1i8NTO.s:17188  .debug_str:00000000000004fa .LASF70
/var/folders/rt/4gvqv631095f64jvm7jfj_000000gn/T//cc1i8NTO.s:17126  .debug_str:00000000000003b7 .LASF71
/var/folders/rt/4gvqv631095f64jvm7jfj_000000gn/T//cc1i8NTO.s:17332  .debug_str:00000000000007b7 .LASF72
/var/folders/rt/4gvqv631095f64jvm7jfj_000000gn/T//cc1i8NTO.s:17274  .debug_str:0000000000000696 .LASF73
/var/folders/rt/4gvqv631095f64jvm7jfj_000000gn/T//cc1i8NTO.s:17424  .debug_str:000000000000098a .LASF74
/var/folders/rt/4gvqv631095f64jvm7jfj_000000gn/T//cc1i8NTO.s:17208  .debug_str:000000000000055e .LASF75
/var/folders/rt/4gvqv631095f64jvm7jfj_000000gn/T//cc1i8NTO.s:17108  .debug_str:0000000000000322 .LASF76
/var/folders/rt/4gvqv631095f64jvm7jfj_000000gn/T//cc1i8NTO.s:17436  .debug_str:00000000000009b3 .LASF77
/var/folders/rt/4gvqv631095f64jvm7jfj_000000gn/T//cc1i8NTO.s:17170  .debug_str:000000000000048a .LASF78
/var/folders/rt/4gvqv631095f64jvm7jfj_000000gn/T//cc1i8NTO.s:17198  .debug_str:0000000000000527 .LASF79
GAS LISTING /var/folders/rt/4gvqv631095f64jvm7jfj_000000gn/T//cc1i8NTO.s 			page 151


/var/folders/rt/4gvqv631095f64jvm7jfj_000000gn/T//cc1i8NTO.s:17446  .debug_str:00000000000009de .LASF80
/var/folders/rt/4gvqv631095f64jvm7jfj_000000gn/T//cc1i8NTO.s:17072  .debug_str:000000000000026b .LASF81
/var/folders/rt/4gvqv631095f64jvm7jfj_000000gn/T//cc1i8NTO.s:17160  .debug_str:000000000000044c .LASF82
/var/folders/rt/4gvqv631095f64jvm7jfj_000000gn/T//cc1i8NTO.s:17238  .debug_str:00000000000005f3 .LASF83
/var/folders/rt/4gvqv631095f64jvm7jfj_000000gn/T//cc1i8NTO.s:16996  .debug_str:0000000000000069 .LASF84
/var/folders/rt/4gvqv631095f64jvm7jfj_000000gn/T//cc1i8NTO.s:17148  .debug_str:0000000000000413 .LASF85
/var/folders/rt/4gvqv631095f64jvm7jfj_000000gn/T//cc1i8NTO.s:17270  .debug_str:000000000000068b .LASF86
/var/folders/rt/4gvqv631095f64jvm7jfj_000000gn/T//cc1i8NTO.s:17200  .debug_str:0000000000000531 .LASF87
/var/folders/rt/4gvqv631095f64jvm7jfj_000000gn/T//cc1i8NTO.s:17140  .debug_str:00000000000003e9 .LASF88
/var/folders/rt/4gvqv631095f64jvm7jfj_000000gn/T//cc1i8NTO.s:17230  .debug_str:00000000000005ce .LASF89
/var/folders/rt/4gvqv631095f64jvm7jfj_000000gn/T//cc1i8NTO.s:16982  .debug_str:0000000000000033 .LASF90
/var/folders/rt/4gvqv631095f64jvm7jfj_000000gn/T//cc1i8NTO.s:17118  .debug_str:00000000000003a1 .LASF91
/var/folders/rt/4gvqv631095f64jvm7jfj_000000gn/T//cc1i8NTO.s:17360  .debug_str:0000000000000859 .LASF92
/var/folders/rt/4gvqv631095f64jvm7jfj_000000gn/T//cc1i8NTO.s:17242  .debug_str:0000000000000603 .LASF93
/var/folders/rt/4gvqv631095f64jvm7jfj_000000gn/T//cc1i8NTO.s:17228  .debug_str:00000000000005c7 .LASF94
/var/folders/rt/4gvqv631095f64jvm7jfj_000000gn/T//cc1i8NTO.s:17240  .debug_str:00000000000005fd .LASF95
/var/folders/rt/4gvqv631095f64jvm7jfj_000000gn/T//cc1i8NTO.s:17330  .debug_str:00000000000007af .LASF96
/var/folders/rt/4gvqv631095f64jvm7jfj_000000gn/T//cc1i8NTO.s:17308  .debug_str:0000000000000738 .LASF97
/var/folders/rt/4gvqv631095f64jvm7jfj_000000gn/T//cc1i8NTO.s:17046  .debug_str:00000000000001e8 .LASF98
/var/folders/rt/4gvqv631095f64jvm7jfj_000000gn/T//cc1i8NTO.s:17456  .debug_str:0000000000000a12 .LASF99
/var/folders/rt/4gvqv631095f64jvm7jfj_000000gn/T//cc1i8NTO.s:17090  .debug_str:00000000000002c6 .LASF100
/var/folders/rt/4gvqv631095f64jvm7jfj_000000gn/T//cc1i8NTO.s:17346  .debug_str:00000000000007fc .LASF101
/var/folders/rt/4gvqv631095f64jvm7jfj_000000gn/T//cc1i8NTO.s:16994  .debug_str:000000000000005c .LASF102
/var/folders/rt/4gvqv631095f64jvm7jfj_000000gn/T//cc1i8NTO.s:17078  .debug_str:0000000000000287 .LASF103
/var/folders/rt/4gvqv631095f64jvm7jfj_000000gn/T//cc1i8NTO.s:17236  .debug_str:00000000000005e4 .LASF104
/var/folders/rt/4gvqv631095f64jvm7jfj_000000gn/T//cc1i8NTO.s:17280  .debug_str:00000000000006b5 .LASF105
/var/folders/rt/4gvqv631095f64jvm7jfj_000000gn/T//cc1i8NTO.s:17368  .debug_str:0000000000000887 .LASF106
/var/folders/rt/4gvqv631095f64jvm7jfj_000000gn/T//cc1i8NTO.s:17392  .debug_str:00000000000008e9 .LASF107
/var/folders/rt/4gvqv631095f64jvm7jfj_000000gn/T//cc1i8NTO.s:17316  .debug_str:0000000000000753 .LASF108
/var/folders/rt/4gvqv631095f64jvm7jfj_000000gn/T//cc1i8NTO.s:17276  .debug_str:000000000000069e .LASF109
/var/folders/rt/4gvqv631095f64jvm7jfj_000000gn/T//cc1i8NTO.s:17020  .debug_str:00000000000000de .LASF110
/var/folders/rt/4gvqv631095f64jvm7jfj_000000gn/T//cc1i8NTO.s:17190  .debug_str:0000000000000501 .LASF111
/var/folders/rt/4gvqv631095f64jvm7jfj_000000gn/T//cc1i8NTO.s:17484  .debug_str:0000000000000aaf .LASF112
/var/folders/rt/4gvqv631095f64jvm7jfj_000000gn/T//cc1i8NTO.s:17066  .debug_str:0000000000000248 .LASF113
/var/folders/rt/4gvqv631095f64jvm7jfj_000000gn/T//cc1i8NTO.s:17352  .debug_str:0000000000000821 .LASF114
/var/folders/rt/4gvqv631095f64jvm7jfj_000000gn/T//cc1i8NTO.s:17464  .debug_str:0000000000000a39 .LASF115
/var/folders/rt/4gvqv631095f64jvm7jfj_000000gn/T//cc1i8NTO.s:17266  .debug_str:0000000000000672 .LASF116
/var/folders/rt/4gvqv631095f64jvm7jfj_000000gn/T//cc1i8NTO.s:17006  .debug_str:0000000000000092 .LASF117
/var/folders/rt/4gvqv631095f64jvm7jfj_000000gn/T//cc1i8NTO.s:17258  .debug_str:000000000000064a .LASF118
/var/folders/rt/4gvqv631095f64jvm7jfj_000000gn/T//cc1i8NTO.s:17434  .debug_str:00000000000009ac .LASF119
/var/folders/rt/4gvqv631095f64jvm7jfj_000000gn/T//cc1i8NTO.s:17232  .debug_str:00000000000005d6 .LASF120
/var/folders/rt/4gvqv631095f64jvm7jfj_000000gn/T//cc1i8NTO.s:17002  .debug_str:0000000000000085 .LASF121
/var/folders/rt/4gvqv631095f64jvm7jfj_000000gn/T//cc1i8NTO.s:16978  .debug_str:0000000000000020 .LASF252
/var/folders/rt/4gvqv631095f64jvm7jfj_000000gn/T//cc1i8NTO.s:17070  .debug_str:000000000000025f .LASF122
/var/folders/rt/4gvqv631095f64jvm7jfj_000000gn/T//cc1i8NTO.s:17112  .debug_str:0000000000000342 .LASF123
/var/folders/rt/4gvqv631095f64jvm7jfj_000000gn/T//cc1i8NTO.s:17404  .debug_str:000000000000091e .LASF124
/var/folders/rt/4gvqv631095f64jvm7jfj_000000gn/T//cc1i8NTO.s:17094  .debug_str:00000000000002df .LASF125
/var/folders/rt/4gvqv631095f64jvm7jfj_000000gn/T//cc1i8NTO.s:17440  .debug_str:00000000000009c3 .LASF126
/var/folders/rt/4gvqv631095f64jvm7jfj_000000gn/T//cc1i8NTO.s:17396  .debug_str:0000000000000900 .LASF127
/var/folders/rt/4gvqv631095f64jvm7jfj_000000gn/T//cc1i8NTO.s:17176  .debug_str:00000000000004af .LASF128
/var/folders/rt/4gvqv631095f64jvm7jfj_000000gn/T//cc1i8NTO.s:17362  .debug_str:0000000000000860 .LASF129
/var/folders/rt/4gvqv631095f64jvm7jfj_000000gn/T//cc1i8NTO.s:17370  .debug_str:000000000000088c .LASF130
/var/folders/rt/4gvqv631095f64jvm7jfj_000000gn/T//cc1i8NTO.s:17372  .debug_str:0000000000000895 .LASF131
/var/folders/rt/4gvqv631095f64jvm7jfj_000000gn/T//cc1i8NTO.s:17256  .debug_str:0000000000000642 .LASF132
/var/folders/rt/4gvqv631095f64jvm7jfj_000000gn/T//cc1i8NTO.s:17432  .debug_str:00000000000009a3 .LASF133
/var/folders/rt/4gvqv631095f64jvm7jfj_000000gn/T//cc1i8NTO.s:17196  .debug_str:000000000000051d .LASF134
/var/folders/rt/4gvqv631095f64jvm7jfj_000000gn/T//cc1i8NTO.s:17014  .debug_str:00000000000000bd .LASF135
GAS LISTING /var/folders/rt/4gvqv631095f64jvm7jfj_000000gn/T//cc1i8NTO.s 			page 152


/var/folders/rt/4gvqv631095f64jvm7jfj_000000gn/T//cc1i8NTO.s:17016  .debug_str:00000000000000c8 .LASF136
/var/folders/rt/4gvqv631095f64jvm7jfj_000000gn/T//cc1i8NTO.s:17018  .debug_str:00000000000000d3 .LASF137
/var/folders/rt/4gvqv631095f64jvm7jfj_000000gn/T//cc1i8NTO.s:17348  .debug_str:0000000000000809 .LASF138
/var/folders/rt/4gvqv631095f64jvm7jfj_000000gn/T//cc1i8NTO.s:17022  .debug_str:00000000000000e8 .LASF139
/var/folders/rt/4gvqv631095f64jvm7jfj_000000gn/T//cc1i8NTO.s:17024  .debug_str:00000000000000f3 .LASF140
/var/folders/rt/4gvqv631095f64jvm7jfj_000000gn/T//cc1i8NTO.s:17286  .debug_str:00000000000006cf .LASF141
/var/folders/rt/4gvqv631095f64jvm7jfj_000000gn/T//cc1i8NTO.s:17086  .debug_str:00000000000002b4 .LASF142
/var/folders/rt/4gvqv631095f64jvm7jfj_000000gn/T//cc1i8NTO.s:17088  .debug_str:00000000000002bd .LASF143
/var/folders/rt/4gvqv631095f64jvm7jfj_000000gn/T//cc1i8NTO.s:17030  .debug_str:0000000000000116 .LASF144
/var/folders/rt/4gvqv631095f64jvm7jfj_000000gn/T//cc1i8NTO.s:17032  .debug_str:0000000000000121 .LASF145
/var/folders/rt/4gvqv631095f64jvm7jfj_000000gn/T//cc1i8NTO.s:16998  .debug_str:0000000000000071 .LASF146
/var/folders/rt/4gvqv631095f64jvm7jfj_000000gn/T//cc1i8NTO.s:17000  .debug_str:000000000000007b .LASF147
/var/folders/rt/4gvqv631095f64jvm7jfj_000000gn/T//cc1i8NTO.s:17442  .debug_str:00000000000009cc .LASF148
/var/folders/rt/4gvqv631095f64jvm7jfj_000000gn/T//cc1i8NTO.s:17444  .debug_str:00000000000009d5 .LASF149
/var/folders/rt/4gvqv631095f64jvm7jfj_000000gn/T//cc1i8NTO.s:17386  .debug_str:00000000000008ce .LASF150
/var/folders/rt/4gvqv631095f64jvm7jfj_000000gn/T//cc1i8NTO.s:17116  .debug_str:0000000000000398 .LASF151
/var/folders/rt/4gvqv631095f64jvm7jfj_000000gn/T//cc1i8NTO.s:17410  .debug_str:000000000000093b .LASF152
/var/folders/rt/4gvqv631095f64jvm7jfj_000000gn/T//cc1i8NTO.s:16988  .debug_str:0000000000000048 .LASF153
/var/folders/rt/4gvqv631095f64jvm7jfj_000000gn/T//cc1i8NTO.s:17096  .debug_str:00000000000002e7 .LASF154
/var/folders/rt/4gvqv631095f64jvm7jfj_000000gn/T//cc1i8NTO.s:17302  .debug_str:000000000000071e .LASF155
/var/folders/rt/4gvqv631095f64jvm7jfj_000000gn/T//cc1i8NTO.s:17182  .debug_str:00000000000004d1 .LASF156
/var/folders/rt/4gvqv631095f64jvm7jfj_000000gn/T//cc1i8NTO.s:17218  .debug_str:0000000000000595 .LASF157
/var/folders/rt/4gvqv631095f64jvm7jfj_000000gn/T//cc1i8NTO.s:17220  .debug_str:000000000000059f .LASF158
/var/folders/rt/4gvqv631095f64jvm7jfj_000000gn/T//cc1i8NTO.s:17222  .debug_str:00000000000005a9 .LASF159
/var/folders/rt/4gvqv631095f64jvm7jfj_000000gn/T//cc1i8NTO.s:17224  .debug_str:00000000000005b3 .LASF160
/var/folders/rt/4gvqv631095f64jvm7jfj_000000gn/T//cc1i8NTO.s:17226  .debug_str:00000000000005bd .LASF161
/var/folders/rt/4gvqv631095f64jvm7jfj_000000gn/T//cc1i8NTO.s:17210  .debug_str:0000000000000569 .LASF162
/var/folders/rt/4gvqv631095f64jvm7jfj_000000gn/T//cc1i8NTO.s:17212  .debug_str:0000000000000572 .LASF163
/var/folders/rt/4gvqv631095f64jvm7jfj_000000gn/T//cc1i8NTO.s:17012  .debug_str:00000000000000b2 .LASF164
/var/folders/rt/4gvqv631095f64jvm7jfj_000000gn/T//cc1i8NTO.s:17084  .debug_str:00000000000002ab .LASF165
/var/folders/rt/4gvqv631095f64jvm7jfj_000000gn/T//cc1i8NTO.s:17028  .debug_str:000000000000010b .LASF166
/var/folders/rt/4gvqv631095f64jvm7jfj_000000gn/T//cc1i8NTO.s:17144  .debug_str:00000000000003ff .LASF167
/var/folders/rt/4gvqv631095f64jvm7jfj_000000gn/T//cc1i8NTO.s:17422  .debug_str:000000000000097f .LASF168
/var/folders/rt/4gvqv631095f64jvm7jfj_000000gn/T//cc1i8NTO.s:17480  .debug_str:0000000000000a9b .LASF169
/var/folders/rt/4gvqv631095f64jvm7jfj_000000gn/T//cc1i8NTO.s:17036  .debug_str:0000000000000139 .LASF170
/var/folders/rt/4gvqv631095f64jvm7jfj_000000gn/T//cc1i8NTO.s:17040  .debug_str:0000000000000146 .LASF171
/var/folders/rt/4gvqv631095f64jvm7jfj_000000gn/T//cc1i8NTO.s:17466  .debug_str:0000000000000a4a .LASF172
/var/folders/rt/4gvqv631095f64jvm7jfj_000000gn/T//cc1i8NTO.s:17356  .debug_str:000000000000083b .LASF173
/var/folders/rt/4gvqv631095f64jvm7jfj_000000gn/T//cc1i8NTO.s:17354  .debug_str:0000000000000830 .LASF174
/var/folders/rt/4gvqv631095f64jvm7jfj_000000gn/T//cc1i8NTO.s:17128  .debug_str:00000000000003be .LASF175
/var/folders/rt/4gvqv631095f64jvm7jfj_000000gn/T//cc1i8NTO.s:17414  .debug_str:0000000000000951 .LASF176
/var/folders/rt/4gvqv631095f64jvm7jfj_000000gn/T//cc1i8NTO.s:17106  .debug_str:000000000000031c .LASF177
/var/folders/rt/4gvqv631095f64jvm7jfj_000000gn/T//cc1i8NTO.s:17050  .debug_str:0000000000000200 .LASF178
/var/folders/rt/4gvqv631095f64jvm7jfj_000000gn/T//cc1i8NTO.s:17156  .debug_str:0000000000000438 .LASF179
/var/folders/rt/4gvqv631095f64jvm7jfj_000000gn/T//cc1i8NTO.s:17178  .debug_str:00000000000004bf .LASF180
/var/folders/rt/4gvqv631095f64jvm7jfj_000000gn/T//cc1i8NTO.s:17180  .debug_str:00000000000004c8 .LASF181
/var/folders/rt/4gvqv631095f64jvm7jfj_000000gn/T//cc1i8NTO.s:17034  .debug_str:000000000000012c .LASF182
/var/folders/rt/4gvqv631095f64jvm7jfj_000000gn/T//cc1i8NTO.s:17150  .debug_str:000000000000041b .LASF183
/var/folders/rt/4gvqv631095f64jvm7jfj_000000gn/T//cc1i8NTO.s:17342  .debug_str:00000000000007e6 .LASF184
/var/folders/rt/4gvqv631095f64jvm7jfj_000000gn/T//cc1i8NTO.s:17418  .debug_str:0000000000000966 .LASF187
/var/folders/rt/4gvqv631095f64jvm7jfj_000000gn/T//cc1i8NTO.s:3418   .text.LCD_ShowPicture:0000000000000000 .LFB29
/var/folders/rt/4gvqv631095f64jvm7jfj_000000gn/T//cc1i8NTO.s:3493   .text.LCD_ShowPicture:000000000000004c .LFE29
/var/folders/rt/4gvqv631095f64jvm7jfj_000000gn/T//cc1i8NTO.s:13577  .debug_loc:0000000000000000 .LLST207
/var/folders/rt/4gvqv631095f64jvm7jfj_000000gn/T//cc1i8NTO.s:13600  .debug_loc:0000000000000038 .LLST208
/var/folders/rt/4gvqv631095f64jvm7jfj_000000gn/T//cc1i8NTO.s:13614  .debug_loc:0000000000000059 .LLST209
/var/folders/rt/4gvqv631095f64jvm7jfj_000000gn/T//cc1i8NTO.s:13628  .debug_loc:000000000000007a .LLST210
/var/folders/rt/4gvqv631095f64jvm7jfj_000000gn/T//cc1i8NTO.s:13642  .debug_loc:000000000000009b .LLST211
GAS LISTING /var/folders/rt/4gvqv631095f64jvm7jfj_000000gn/T//cc1i8NTO.s 			page 153


/var/folders/rt/4gvqv631095f64jvm7jfj_000000gn/T//cc1i8NTO.s:17130  .debug_str:00000000000003c4 .LASF185
/var/folders/rt/4gvqv631095f64jvm7jfj_000000gn/T//cc1i8NTO.s:13656  .debug_loc:00000000000000bc .LLST212
/var/folders/rt/4gvqv631095f64jvm7jfj_000000gn/T//cc1i8NTO.s:13678  .debug_loc:00000000000000f3 .LLST213
/var/folders/rt/4gvqv631095f64jvm7jfj_000000gn/T//cc1i8NTO.s:17324  .debug_str:0000000000000787 .LASF186
/var/folders/rt/4gvqv631095f64jvm7jfj_000000gn/T//cc1i8NTO.s:13699  .debug_loc:0000000000000129 .LLST214
/var/folders/rt/4gvqv631095f64jvm7jfj_000000gn/T//cc1i8NTO.s:3452   .text.LCD_ShowPicture:0000000000000026 .LVL380
/var/folders/rt/4gvqv631095f64jvm7jfj_000000gn/T//cc1i8NTO.s:3490   .text.LCD_ShowPicture:000000000000004a .LVL387
/var/folders/rt/4gvqv631095f64jvm7jfj_000000gn/T//cc1i8NTO.s:17374  .debug_str:000000000000089e .LASF188
/var/folders/rt/4gvqv631095f64jvm7jfj_000000gn/T//cc1i8NTO.s:3218   .text.LCD_ShowNum1:0000000000000000 .LFB28
/var/folders/rt/4gvqv631095f64jvm7jfj_000000gn/T//cc1i8NTO.s:3411   .text.LCD_ShowNum1:00000000000000cc .LFE28
/var/folders/rt/4gvqv631095f64jvm7jfj_000000gn/T//cc1i8NTO.s:13735  .debug_loc:0000000000000167 .LLST195
/var/folders/rt/4gvqv631095f64jvm7jfj_000000gn/T//cc1i8NTO.s:13758  .debug_loc:000000000000019f .LLST196
/var/folders/rt/4gvqv631095f64jvm7jfj_000000gn/T//cc1i8NTO.s:13780  .debug_loc:00000000000001d6 .LLST197
/var/folders/rt/4gvqv631095f64jvm7jfj_000000gn/T//cc1i8NTO.s:13802  .debug_loc:000000000000020d .LLST198
/var/folders/rt/4gvqv631095f64jvm7jfj_000000gn/T//cc1i8NTO.s:13818  .debug_loc:0000000000000230 .LLST199
/var/folders/rt/4gvqv631095f64jvm7jfj_000000gn/T//cc1i8NTO.s:17380  .debug_str:00000000000008bc .LASF189
/var/folders/rt/4gvqv631095f64jvm7jfj_000000gn/T//cc1i8NTO.s:13844  .debug_loc:0000000000000272 .LLST200
/var/folders/rt/4gvqv631095f64jvm7jfj_000000gn/T//cc1i8NTO.s:13866  .debug_loc:00000000000002a9 .LLST201
/var/folders/rt/4gvqv631095f64jvm7jfj_000000gn/T//cc1i8NTO.s:17470  .debug_str:0000000000000a6b .LASF190
/var/folders/rt/4gvqv631095f64jvm7jfj_000000gn/T//cc1i8NTO.s:13896  .debug_loc:00000000000002f6 .LLST202
/var/folders/rt/4gvqv631095f64jvm7jfj_000000gn/T//cc1i8NTO.s:17390  .debug_str:00000000000008e4 .LASF191
/var/folders/rt/4gvqv631095f64jvm7jfj_000000gn/T//cc1i8NTO.s:13903  .debug_loc:0000000000000309 .LLST203
/var/folders/rt/4gvqv631095f64jvm7jfj_000000gn/T//cc1i8NTO.s:3275   .text.LCD_ShowNum1:000000000000003c .LBB362
/var/folders/rt/4gvqv631095f64jvm7jfj_000000gn/T//cc1i8NTO.s:13918  .debug_loc:0000000000000332 .LLST204
/var/folders/rt/4gvqv631095f64jvm7jfj_000000gn/T//cc1i8NTO.s:13933  .debug_loc:000000000000035b .LLST205
/var/folders/rt/4gvqv631095f64jvm7jfj_000000gn/T//cc1i8NTO.s:13946  .debug_loc:000000000000037b .LLST206
/var/folders/rt/4gvqv631095f64jvm7jfj_000000gn/T//cc1i8NTO.s:3373   .text.LCD_ShowNum1:00000000000000a2 .LVL372
/var/folders/rt/4gvqv631095f64jvm7jfj_000000gn/T//cc1i8NTO.s:3394   .text.LCD_ShowNum1:00000000000000c0 .LVL375
/var/folders/rt/4gvqv631095f64jvm7jfj_000000gn/T//cc1i8NTO.s:17080  .debug_str:0000000000000296 .LASF192
/var/folders/rt/4gvqv631095f64jvm7jfj_000000gn/T//cc1i8NTO.s:3043   .text.LCD_ShowNum:0000000000000000 .LFB27
/var/folders/rt/4gvqv631095f64jvm7jfj_000000gn/T//cc1i8NTO.s:3209   .text.LCD_ShowNum:00000000000000a8 .LFE27
/var/folders/rt/4gvqv631095f64jvm7jfj_000000gn/T//cc1i8NTO.s:13962  .debug_loc:00000000000003a5 .LLST184
/var/folders/rt/4gvqv631095f64jvm7jfj_000000gn/T//cc1i8NTO.s:13985  .debug_loc:00000000000003dd .LLST185
/var/folders/rt/4gvqv631095f64jvm7jfj_000000gn/T//cc1i8NTO.s:14007  .debug_loc:0000000000000414 .LLST186
/var/folders/rt/4gvqv631095f64jvm7jfj_000000gn/T//cc1i8NTO.s:14029  .debug_loc:000000000000044b .LLST187
/var/folders/rt/4gvqv631095f64jvm7jfj_000000gn/T//cc1i8NTO.s:14051  .debug_loc:0000000000000482 .LLST188
/var/folders/rt/4gvqv631095f64jvm7jfj_000000gn/T//cc1i8NTO.s:14065  .debug_loc:00000000000004a3 .LLST189
/var/folders/rt/4gvqv631095f64jvm7jfj_000000gn/T//cc1i8NTO.s:14095  .debug_loc:00000000000004f0 .LLST190
/var/folders/rt/4gvqv631095f64jvm7jfj_000000gn/T//cc1i8NTO.s:14121  .debug_loc:0000000000000532 .LLST191
/var/folders/rt/4gvqv631095f64jvm7jfj_000000gn/T//cc1i8NTO.s:17448  .debug_str:00000000000009e6 .LASF193
/var/folders/rt/4gvqv631095f64jvm7jfj_000000gn/T//cc1i8NTO.s:14142  .debug_loc:0000000000000568 .LLST192
/var/folders/rt/4gvqv631095f64jvm7jfj_000000gn/T//cc1i8NTO.s:3089   .text.LCD_ShowNum:0000000000000030 .LBB356
/var/folders/rt/4gvqv631095f64jvm7jfj_000000gn/T//cc1i8NTO.s:14158  .debug_loc:0000000000000592 .LLST193
/var/folders/rt/4gvqv631095f64jvm7jfj_000000gn/T//cc1i8NTO.s:14169  .debug_loc:00000000000005b0 .LLST194
/var/folders/rt/4gvqv631095f64jvm7jfj_000000gn/T//cc1i8NTO.s:3182   .text.LCD_ShowNum:000000000000008e .LVL344
/var/folders/rt/4gvqv631095f64jvm7jfj_000000gn/T//cc1i8NTO.s:17296  .debug_str:0000000000000702 .LASF253
/var/folders/rt/4gvqv631095f64jvm7jfj_000000gn/T//cc1i8NTO.s:17060  .debug_str:0000000000000227 .LASF197
/var/folders/rt/4gvqv631095f64jvm7jfj_000000gn/T//cc1i8NTO.s:17064  .debug_str:000000000000023c .LASF194
/var/folders/rt/4gvqv631095f64jvm7jfj_000000gn/T//cc1i8NTO.s:2892   .text.LCD_ShowStr:0000000000000000 .LFB25
/var/folders/rt/4gvqv631095f64jvm7jfj_000000gn/T//cc1i8NTO.s:2997   .text.LCD_ShowStr:0000000000000060 .LFE25
/var/folders/rt/4gvqv631095f64jvm7jfj_000000gn/T//cc1i8NTO.s:14176  .debug_loc:00000000000005c3 .LLST175
/var/folders/rt/4gvqv631095f64jvm7jfj_000000gn/T//cc1i8NTO.s:14199  .debug_loc:00000000000005fb .LLST176
/var/folders/rt/4gvqv631095f64jvm7jfj_000000gn/T//cc1i8NTO.s:14223  .debug_loc:000000000000063b .LLST177
/var/folders/rt/4gvqv631095f64jvm7jfj_000000gn/T//cc1i8NTO.s:14238  .debug_loc:0000000000000664 .LLST178
/var/folders/rt/4gvqv631095f64jvm7jfj_000000gn/T//cc1i8NTO.s:14253  .debug_loc:000000000000068d .LLST179
/var/folders/rt/4gvqv631095f64jvm7jfj_000000gn/T//cc1i8NTO.s:17398  .debug_str:0000000000000909 .LASF195
/var/folders/rt/4gvqv631095f64jvm7jfj_000000gn/T//cc1i8NTO.s:14275  .debug_loc:00000000000006c4 .LLST180
GAS LISTING /var/folders/rt/4gvqv631095f64jvm7jfj_000000gn/T//cc1i8NTO.s 			page 154


/var/folders/rt/4gvqv631095f64jvm7jfj_000000gn/T//cc1i8NTO.s:2986   .text.LCD_ShowStr:000000000000005a .LVL319
/var/folders/rt/4gvqv631095f64jvm7jfj_000000gn/T//cc1i8NTO.s:17252  .debug_str:0000000000000626 .LASF196
/var/folders/rt/4gvqv631095f64jvm7jfj_000000gn/T//cc1i8NTO.s:2765   .text.LCD_ShowString:0000000000000000 .LFB24
/var/folders/rt/4gvqv631095f64jvm7jfj_000000gn/T//cc1i8NTO.s:2885   .text.LCD_ShowString:0000000000000076 .LFE24
/var/folders/rt/4gvqv631095f64jvm7jfj_000000gn/T//cc1i8NTO.s:14289  .debug_loc:00000000000006e5 .LLST170
/var/folders/rt/4gvqv631095f64jvm7jfj_000000gn/T//cc1i8NTO.s:14312  .debug_loc:000000000000071d .LLST171
/var/folders/rt/4gvqv631095f64jvm7jfj_000000gn/T//cc1i8NTO.s:14345  .debug_loc:0000000000000774 .LLST172
/var/folders/rt/4gvqv631095f64jvm7jfj_000000gn/T//cc1i8NTO.s:14369  .debug_loc:00000000000007b4 .LLST173
/var/folders/rt/4gvqv631095f64jvm7jfj_000000gn/T//cc1i8NTO.s:14384  .debug_loc:00000000000007dd .LLST174
/var/folders/rt/4gvqv631095f64jvm7jfj_000000gn/T//cc1i8NTO.s:2860   .text.LCD_ShowString:0000000000000058 .LVL304
/var/folders/rt/4gvqv631095f64jvm7jfj_000000gn/T//cc1i8NTO.s:2874   .text.LCD_ShowString:0000000000000070 .LVL306
/var/folders/rt/4gvqv631095f64jvm7jfj_000000gn/T//cc1i8NTO.s:17100  .debug_str:00000000000002f8 .LASF223
/var/folders/rt/4gvqv631095f64jvm7jfj_000000gn/T//cc1i8NTO.s:17076  .debug_str:000000000000027b .LASF198
/var/folders/rt/4gvqv631095f64jvm7jfj_000000gn/T//cc1i8NTO.s:2377   .text.Draw_Circle:0000000000000000 .LFB22
/var/folders/rt/4gvqv631095f64jvm7jfj_000000gn/T//cc1i8NTO.s:2549   .text.Draw_Circle:00000000000000f2 .LFE22
/var/folders/rt/4gvqv631095f64jvm7jfj_000000gn/T//cc1i8NTO.s:14406  .debug_loc:0000000000000814 .LLST149
/var/folders/rt/4gvqv631095f64jvm7jfj_000000gn/T//cc1i8NTO.s:14424  .debug_loc:0000000000000841 .LLST150
/var/folders/rt/4gvqv631095f64jvm7jfj_000000gn/T//cc1i8NTO.s:14442  .debug_loc:000000000000086d .LLST151
/var/folders/rt/4gvqv631095f64jvm7jfj_000000gn/T//cc1i8NTO.s:14460  .debug_loc:0000000000000899 .LLST152
/var/folders/rt/4gvqv631095f64jvm7jfj_000000gn/T//cc1i8NTO.s:14474  .debug_loc:00000000000008ba .LLST153
/var/folders/rt/4gvqv631095f64jvm7jfj_000000gn/T//cc1i8NTO.s:14492  .debug_loc:00000000000008e6 .LLST154
/var/folders/rt/4gvqv631095f64jvm7jfj_000000gn/T//cc1i8NTO.s:14504  .debug_loc:0000000000000905 .LLST155
/var/folders/rt/4gvqv631095f64jvm7jfj_000000gn/T//cc1i8NTO.s:2441   .text.Draw_Circle:0000000000000046 .LVL253
/var/folders/rt/4gvqv631095f64jvm7jfj_000000gn/T//cc1i8NTO.s:2447   .text.Draw_Circle:0000000000000054 .LVL254
/var/folders/rt/4gvqv631095f64jvm7jfj_000000gn/T//cc1i8NTO.s:2455   .text.Draw_Circle:000000000000006a .LVL255
/var/folders/rt/4gvqv631095f64jvm7jfj_000000gn/T//cc1i8NTO.s:2463   .text.Draw_Circle:0000000000000080 .LVL256
/var/folders/rt/4gvqv631095f64jvm7jfj_000000gn/T//cc1i8NTO.s:2470   .text.Draw_Circle:0000000000000090 .LVL257
/var/folders/rt/4gvqv631095f64jvm7jfj_000000gn/T//cc1i8NTO.s:2477   .text.Draw_Circle:00000000000000a0 .LVL258
/var/folders/rt/4gvqv631095f64jvm7jfj_000000gn/T//cc1i8NTO.s:2483   .text.Draw_Circle:00000000000000ae .LVL259
/var/folders/rt/4gvqv631095f64jvm7jfj_000000gn/T//cc1i8NTO.s:2489   .text.Draw_Circle:00000000000000bc .LVL260
/var/folders/rt/4gvqv631095f64jvm7jfj_000000gn/T//cc1i8NTO.s:17174  .debug_str:000000000000049d .LASF199
/var/folders/rt/4gvqv631095f64jvm7jfj_000000gn/T//cc1i8NTO.s:2285   .text.LCD_DrawRectangle:0000000000000000 .LFB21
/var/folders/rt/4gvqv631095f64jvm7jfj_000000gn/T//cc1i8NTO.s:2370   .text.LCD_DrawRectangle:0000000000000066 .LFE21
/var/folders/rt/4gvqv631095f64jvm7jfj_000000gn/T//cc1i8NTO.s:14511  .debug_loc:0000000000000918 .LLST143
/var/folders/rt/4gvqv631095f64jvm7jfj_000000gn/T//cc1i8NTO.s:14529  .debug_loc:0000000000000944 .LLST144
/var/folders/rt/4gvqv631095f64jvm7jfj_000000gn/T//cc1i8NTO.s:14547  .debug_loc:0000000000000970 .LLST145
/var/folders/rt/4gvqv631095f64jvm7jfj_000000gn/T//cc1i8NTO.s:14569  .debug_loc:00000000000009a7 .LLST146
/var/folders/rt/4gvqv631095f64jvm7jfj_000000gn/T//cc1i8NTO.s:14591  .debug_loc:00000000000009de .LLST147
/var/folders/rt/4gvqv631095f64jvm7jfj_000000gn/T//cc1i8NTO.s:14613  .debug_loc:0000000000000a15 .LLST148
/var/folders/rt/4gvqv631095f64jvm7jfj_000000gn/T//cc1i8NTO.s:2318   .text.LCD_DrawRectangle:0000000000000022 .LVL240
/var/folders/rt/4gvqv631095f64jvm7jfj_000000gn/T//cc1i8NTO.s:2326   .text.LCD_DrawRectangle:0000000000000034 .LVL241
/var/folders/rt/4gvqv631095f64jvm7jfj_000000gn/T//cc1i8NTO.s:2334   .text.LCD_DrawRectangle:0000000000000046 .LVL242
/var/folders/rt/4gvqv631095f64jvm7jfj_000000gn/T//cc1i8NTO.s:2368   .text.LCD_DrawRectangle:0000000000000066 .LVL248
/var/folders/rt/4gvqv631095f64jvm7jfj_000000gn/T//cc1i8NTO.s:17388  .debug_str:00000000000008d7 .LASF200
/var/folders/rt/4gvqv631095f64jvm7jfj_000000gn/T//cc1i8NTO.s:2083   .text.LCD_DrawLine:0000000000000000 .LFB20
/var/folders/rt/4gvqv631095f64jvm7jfj_000000gn/T//cc1i8NTO.s:2278   .text.LCD_DrawLine:00000000000000a4 .LFE20
/var/folders/rt/4gvqv631095f64jvm7jfj_000000gn/T//cc1i8NTO.s:14635  .debug_loc:0000000000000a4c .LLST127
/var/folders/rt/4gvqv631095f64jvm7jfj_000000gn/T//cc1i8NTO.s:14653  .debug_loc:0000000000000a79 .LLST128
/var/folders/rt/4gvqv631095f64jvm7jfj_000000gn/T//cc1i8NTO.s:14667  .debug_loc:0000000000000a9a .LLST129
/var/folders/rt/4gvqv631095f64jvm7jfj_000000gn/T//cc1i8NTO.s:14681  .debug_loc:0000000000000abb .LLST130
/var/folders/rt/4gvqv631095f64jvm7jfj_000000gn/T//cc1i8NTO.s:14695  .debug_loc:0000000000000adc .LLST131
/var/folders/rt/4gvqv631095f64jvm7jfj_000000gn/T//cc1i8NTO.s:14709  .debug_loc:0000000000000afd .LLST132
/var/folders/rt/4gvqv631095f64jvm7jfj_000000gn/T//cc1i8NTO.s:14723  .debug_loc:0000000000000b1e .LLST133
/var/folders/rt/4gvqv631095f64jvm7jfj_000000gn/T//cc1i8NTO.s:17124  .debug_str:00000000000003b2 .LASF201
/var/folders/rt/4gvqv631095f64jvm7jfj_000000gn/T//cc1i8NTO.s:14735  .debug_loc:0000000000000b3d .LLST134
/var/folders/rt/4gvqv631095f64jvm7jfj_000000gn/T//cc1i8NTO.s:17306  .debug_str:0000000000000733 .LASF202
/var/folders/rt/4gvqv631095f64jvm7jfj_000000gn/T//cc1i8NTO.s:14751  .debug_loc:0000000000000b67 .LLST135
GAS LISTING /var/folders/rt/4gvqv631095f64jvm7jfj_000000gn/T//cc1i8NTO.s 			page 155


/var/folders/rt/4gvqv631095f64jvm7jfj_000000gn/T//cc1i8NTO.s:17400  .debug_str:000000000000090e .LASF203
/var/folders/rt/4gvqv631095f64jvm7jfj_000000gn/T//cc1i8NTO.s:14763  .debug_loc:0000000000000b86 .LLST136
/var/folders/rt/4gvqv631095f64jvm7jfj_000000gn/T//cc1i8NTO.s:17402  .debug_str:0000000000000916 .LASF204
/var/folders/rt/4gvqv631095f64jvm7jfj_000000gn/T//cc1i8NTO.s:14770  .debug_loc:0000000000000b99 .LLST137
/var/folders/rt/4gvqv631095f64jvm7jfj_000000gn/T//cc1i8NTO.s:17450  .debug_str:00000000000009ed .LASF205
/var/folders/rt/4gvqv631095f64jvm7jfj_000000gn/T//cc1i8NTO.s:14777  .debug_loc:0000000000000bac .LLST138
/var/folders/rt/4gvqv631095f64jvm7jfj_000000gn/T//cc1i8NTO.s:17262  .debug_str:0000000000000668 .LASF206
/var/folders/rt/4gvqv631095f64jvm7jfj_000000gn/T//cc1i8NTO.s:14790  .debug_loc:0000000000000bcc .LLST139
/var/folders/rt/4gvqv631095f64jvm7jfj_000000gn/T//cc1i8NTO.s:17264  .debug_str:000000000000066d .LASF207
/var/folders/rt/4gvqv631095f64jvm7jfj_000000gn/T//cc1i8NTO.s:14803  .debug_loc:0000000000000bec .LLST140
/var/folders/rt/4gvqv631095f64jvm7jfj_000000gn/T//cc1i8NTO.s:17460  .debug_str:0000000000000a2a .LASF208
/var/folders/rt/4gvqv631095f64jvm7jfj_000000gn/T//cc1i8NTO.s:14816  .debug_loc:0000000000000c0c .LLST141
/var/folders/rt/4gvqv631095f64jvm7jfj_000000gn/T//cc1i8NTO.s:17318  .debug_str:0000000000000761 .LASF209
/var/folders/rt/4gvqv631095f64jvm7jfj_000000gn/T//cc1i8NTO.s:14827  .debug_loc:0000000000000c2a .LLST142
/var/folders/rt/4gvqv631095f64jvm7jfj_000000gn/T//cc1i8NTO.s:2201   .text.LCD_DrawLine:000000000000006a .LVL220
/var/folders/rt/4gvqv631095f64jvm7jfj_000000gn/T//cc1i8NTO.s:17292  .debug_str:00000000000006ef .LASF210
/var/folders/rt/4gvqv631095f64jvm7jfj_000000gn/T//cc1i8NTO.s:1967   .text.LCD_Fill:0000000000000000 .LFB19
/var/folders/rt/4gvqv631095f64jvm7jfj_000000gn/T//cc1i8NTO.s:2053   .text.LCD_Fill:0000000000000050 .LFE19
/var/folders/rt/4gvqv631095f64jvm7jfj_000000gn/T//cc1i8NTO.s:14838  .debug_loc:0000000000000c48 .LLST116
/var/folders/rt/4gvqv631095f64jvm7jfj_000000gn/T//cc1i8NTO.s:16990  .debug_str:0000000000000050 .LASF211
/var/folders/rt/4gvqv631095f64jvm7jfj_000000gn/T//cc1i8NTO.s:14861  .debug_loc:0000000000000c80 .LLST117
/var/folders/rt/4gvqv631095f64jvm7jfj_000000gn/T//cc1i8NTO.s:17244  .debug_str:0000000000000609 .LASF212
/var/folders/rt/4gvqv631095f64jvm7jfj_000000gn/T//cc1i8NTO.s:14883  .debug_loc:0000000000000cb7 .LLST118
/var/folders/rt/4gvqv631095f64jvm7jfj_000000gn/T//cc1i8NTO.s:16976  .debug_str:000000000000001b .LASF213
/var/folders/rt/4gvqv631095f64jvm7jfj_000000gn/T//cc1i8NTO.s:14901  .debug_loc:0000000000000ce3 .LLST119
/var/folders/rt/4gvqv631095f64jvm7jfj_000000gn/T//cc1i8NTO.s:17234  .debug_str:00000000000005df .LASF214
/var/folders/rt/4gvqv631095f64jvm7jfj_000000gn/T//cc1i8NTO.s:14923  .debug_loc:0000000000000d1a .LLST120
/var/folders/rt/4gvqv631095f64jvm7jfj_000000gn/T//cc1i8NTO.s:14945  .debug_loc:0000000000000d51 .LLST121
/var/folders/rt/4gvqv631095f64jvm7jfj_000000gn/T//cc1i8NTO.s:14967  .debug_loc:0000000000000d88 .LLST122
/var/folders/rt/4gvqv631095f64jvm7jfj_000000gn/T//cc1i8NTO.s:14978  .debug_loc:0000000000000da6 .LLST123
/var/folders/rt/4gvqv631095f64jvm7jfj_000000gn/T//cc1i8NTO.s:1999   .text.LCD_Fill:0000000000000022 .LVL190
/var/folders/rt/4gvqv631095f64jvm7jfj_000000gn/T//cc1i8NTO.s:2036   .text.LCD_Fill:0000000000000042 .LVL197
/var/folders/rt/4gvqv631095f64jvm7jfj_000000gn/T//cc1i8NTO.s:16972  .debug_str:0000000000000000 .LASF215
/var/folders/rt/4gvqv631095f64jvm7jfj_000000gn/T//cc1i8NTO.s:2060   .text.LCD_DrawPoint_big:0000000000000000 .LFB18
/var/folders/rt/4gvqv631095f64jvm7jfj_000000gn/T//cc1i8NTO.s:2076   .text.LCD_DrawPoint_big:0000000000000016 .LFE18
/var/folders/rt/4gvqv631095f64jvm7jfj_000000gn/T//cc1i8NTO.s:14985  .debug_loc:0000000000000db9 .LLST124
/var/folders/rt/4gvqv631095f64jvm7jfj_000000gn/T//cc1i8NTO.s:15005  .debug_loc:0000000000000de7 .LLST125
/var/folders/rt/4gvqv631095f64jvm7jfj_000000gn/T//cc1i8NTO.s:15025  .debug_loc:0000000000000e15 .LLST126
/var/folders/rt/4gvqv631095f64jvm7jfj_000000gn/T//cc1i8NTO.s:2074   .text.LCD_DrawPoint_big:0000000000000016 .LVL205
/var/folders/rt/4gvqv631095f64jvm7jfj_000000gn/T//cc1i8NTO.s:17288  .debug_str:00000000000006d9 .LASF216
/var/folders/rt/4gvqv631095f64jvm7jfj_000000gn/T//cc1i8NTO.s:1921   .text.LCD_DrawPoint:0000000000000000 .LFB17
/var/folders/rt/4gvqv631095f64jvm7jfj_000000gn/T//cc1i8NTO.s:1960   .text.LCD_DrawPoint:0000000000000024 .LFE17
/var/folders/rt/4gvqv631095f64jvm7jfj_000000gn/T//cc1i8NTO.s:15043  .debug_loc:0000000000000e41 .LLST112
/var/folders/rt/4gvqv631095f64jvm7jfj_000000gn/T//cc1i8NTO.s:15061  .debug_loc:0000000000000e6d .LLST113
/var/folders/rt/4gvqv631095f64jvm7jfj_000000gn/T//cc1i8NTO.s:15075  .debug_loc:0000000000000e8e .LLST114
/var/folders/rt/4gvqv631095f64jvm7jfj_000000gn/T//cc1i8NTO.s:15089  .debug_loc:0000000000000eaf .LLST115
/var/folders/rt/4gvqv631095f64jvm7jfj_000000gn/T//cc1i8NTO.s:1944   .text.LCD_DrawPoint:0000000000000014 .LVL186
/var/folders/rt/4gvqv631095f64jvm7jfj_000000gn/T//cc1i8NTO.s:1958   .text.LCD_DrawPoint:0000000000000024 .LVL188
/var/folders/rt/4gvqv631095f64jvm7jfj_000000gn/T//cc1i8NTO.s:17322  .debug_str:0000000000000777 .LASF217
/var/folders/rt/4gvqv631095f64jvm7jfj_000000gn/T//cc1i8NTO.s:1781   .text.LCD_ShowChinese:0000000000000000 .LFB16
/var/folders/rt/4gvqv631095f64jvm7jfj_000000gn/T//cc1i8NTO.s:1914   .text.LCD_ShowChinese:0000000000000098 .LFE16
/var/folders/rt/4gvqv631095f64jvm7jfj_000000gn/T//cc1i8NTO.s:15111  .debug_loc:0000000000000ee6 .LLST102
/var/folders/rt/4gvqv631095f64jvm7jfj_000000gn/T//cc1i8NTO.s:15134  .debug_loc:0000000000000f1e .LLST103
/var/folders/rt/4gvqv631095f64jvm7jfj_000000gn/T//cc1i8NTO.s:15159  .debug_loc:0000000000000f58 .LLST104
/var/folders/rt/4gvqv631095f64jvm7jfj_000000gn/T//cc1i8NTO.s:17152  .debug_str:0000000000000424 .LASF218
/var/folders/rt/4gvqv631095f64jvm7jfj_000000gn/T//cc1i8NTO.s:15184  .debug_loc:0000000000000f92 .LLST105
/var/folders/rt/4gvqv631095f64jvm7jfj_000000gn/T//cc1i8NTO.s:15209  .debug_loc:0000000000000fcc .LLST106
GAS LISTING /var/folders/rt/4gvqv631095f64jvm7jfj_000000gn/T//cc1i8NTO.s 			page 156


/var/folders/rt/4gvqv631095f64jvm7jfj_000000gn/T//cc1i8NTO.s:15234  .debug_loc:0000000000001006 .LLST107
/var/folders/rt/4gvqv631095f64jvm7jfj_000000gn/T//cc1i8NTO.s:15268  .debug_loc:000000000000105e .LLST108
/var/folders/rt/4gvqv631095f64jvm7jfj_000000gn/T//cc1i8NTO.s:15275  .debug_loc:0000000000001071 .LLST109
/var/folders/rt/4gvqv631095f64jvm7jfj_000000gn/T//cc1i8NTO.s:15288  .debug_loc:0000000000001091 .LLST110
/var/folders/rt/4gvqv631095f64jvm7jfj_000000gn/T//cc1i8NTO.s:17132  .debug_str:00000000000003ca .LASF219
/var/folders/rt/4gvqv631095f64jvm7jfj_000000gn/T//cc1i8NTO.s:15311  .debug_loc:00000000000010cf .LLST111
/var/folders/rt/4gvqv631095f64jvm7jfj_000000gn/T//cc1i8NTO.s:1831   .text.LCD_ShowChinese:000000000000003e .LVL170
/var/folders/rt/4gvqv631095f64jvm7jfj_000000gn/T//cc1i8NTO.s:1905   .text.LCD_ShowChinese:0000000000000090 .LVL182
/var/folders/rt/4gvqv631095f64jvm7jfj_000000gn/T//cc1i8NTO.s:16986  .debug_str:000000000000003e .LASF220
/var/folders/rt/4gvqv631095f64jvm7jfj_000000gn/T//cc1i8NTO.s:1707   .text.LCD_Clear:0000000000000000 .LFB15
/var/folders/rt/4gvqv631095f64jvm7jfj_000000gn/T//cc1i8NTO.s:1774   .text.LCD_Clear:0000000000000046 .LFE15
/var/folders/rt/4gvqv631095f64jvm7jfj_000000gn/T//cc1i8NTO.s:15318  .debug_loc:00000000000010e2 .LLST98
/var/folders/rt/4gvqv631095f64jvm7jfj_000000gn/T//cc1i8NTO.s:17338  .debug_str:00000000000007da .LASF221
/var/folders/rt/4gvqv631095f64jvm7jfj_000000gn/T//cc1i8NTO.s:15336  .debug_loc:000000000000110e .LLST99
/var/folders/rt/4gvqv631095f64jvm7jfj_000000gn/T//cc1i8NTO.s:15354  .debug_loc:000000000000113a .LLST100
/var/folders/rt/4gvqv631095f64jvm7jfj_000000gn/T//cc1i8NTO.s:15384  .debug_loc:0000000000001172 .LLST101
/var/folders/rt/4gvqv631095f64jvm7jfj_000000gn/T//cc1i8NTO.s:1738   .text.LCD_Clear:0000000000000024 .LVL158
/var/folders/rt/4gvqv631095f64jvm7jfj_000000gn/T//cc1i8NTO.s:1750   .text.LCD_Clear:0000000000000034 .LVL161
/var/folders/rt/4gvqv631095f64jvm7jfj_000000gn/T//cc1i8NTO.s:17104  .debug_str:0000000000000313 .LASF222
/var/folders/rt/4gvqv631095f64jvm7jfj_000000gn/T//cc1i8NTO.s:898    .text.Lcd_Init:0000000000000000 .LFB14
/var/folders/rt/4gvqv631095f64jvm7jfj_000000gn/T//cc1i8NTO.s:1700   .text.Lcd_Init:0000000000000464 .LFE14
/var/folders/rt/4gvqv631095f64jvm7jfj_000000gn/T//cc1i8NTO.s:15410  .debug_loc:00000000000011a6 .LLST22
/var/folders/rt/4gvqv631095f64jvm7jfj_000000gn/T//cc1i8NTO.s:969    .text.Lcd_Init:00000000000000a0 .LBB192
/var/folders/rt/4gvqv631095f64jvm7jfj_000000gn/T//cc1i8NTO.s:976    .text.Lcd_Init:00000000000000aa .LBE192
/var/folders/rt/4gvqv631095f64jvm7jfj_000000gn/T//cc1i8NTO.s:15428  .debug_loc:00000000000011d2 .LLST23
/var/folders/rt/4gvqv631095f64jvm7jfj_000000gn/T//cc1i8NTO.s:974    .text.Lcd_Init:00000000000000aa .LVL74
/var/folders/rt/4gvqv631095f64jvm7jfj_000000gn/T//cc1i8NTO.s:985    .text.Lcd_Init:00000000000000be .LBB194
/var/folders/rt/4gvqv631095f64jvm7jfj_000000gn/T//cc1i8NTO.s:992    .text.Lcd_Init:00000000000000c8 .LBE194
/var/folders/rt/4gvqv631095f64jvm7jfj_000000gn/T//cc1i8NTO.s:15436  .debug_loc:00000000000011e6 .LLST24
/var/folders/rt/4gvqv631095f64jvm7jfj_000000gn/T//cc1i8NTO.s:990    .text.Lcd_Init:00000000000000c8 .LVL77
/var/folders/rt/4gvqv631095f64jvm7jfj_000000gn/T//cc1i8NTO.s:1003   .text.Lcd_Init:00000000000000e0 .LBB196
/var/folders/rt/4gvqv631095f64jvm7jfj_000000gn/T//cc1i8NTO.s:1008   .text.Lcd_Init:00000000000000e4 .LBE196
/var/folders/rt/4gvqv631095f64jvm7jfj_000000gn/T//cc1i8NTO.s:1013   .text.Lcd_Init:00000000000000e6 .LBB198
/var/folders/rt/4gvqv631095f64jvm7jfj_000000gn/T//cc1i8NTO.s:1022   .text.Lcd_Init:00000000000000f2 .LBE198
/var/folders/rt/4gvqv631095f64jvm7jfj_000000gn/T//cc1i8NTO.s:15444  .debug_loc:00000000000011fa .LLST25
/var/folders/rt/4gvqv631095f64jvm7jfj_000000gn/T//cc1i8NTO.s:1020   .text.Lcd_Init:00000000000000f2 .LVL82
/var/folders/rt/4gvqv631095f64jvm7jfj_000000gn/T//cc1i8NTO.s:1024   .text.Lcd_Init:00000000000000f2 .LBB200
/var/folders/rt/4gvqv631095f64jvm7jfj_000000gn/T//cc1i8NTO.s:1031   .text.Lcd_Init:00000000000000fe .LBE200
/var/folders/rt/4gvqv631095f64jvm7jfj_000000gn/T//cc1i8NTO.s:15453  .debug_loc:000000000000120f .LLST26
/var/folders/rt/4gvqv631095f64jvm7jfj_000000gn/T//cc1i8NTO.s:1029   .text.Lcd_Init:00000000000000fe .LVL83
/var/folders/rt/4gvqv631095f64jvm7jfj_000000gn/T//cc1i8NTO.s:1033   .text.Lcd_Init:00000000000000fe .LBB202
/var/folders/rt/4gvqv631095f64jvm7jfj_000000gn/T//cc1i8NTO.s:1040   .text.Lcd_Init:000000000000010a .LBE202
/var/folders/rt/4gvqv631095f64jvm7jfj_000000gn/T//cc1i8NTO.s:15462  .debug_loc:0000000000001224 .LLST27
/var/folders/rt/4gvqv631095f64jvm7jfj_000000gn/T//cc1i8NTO.s:1038   .text.Lcd_Init:000000000000010a .LVL84
/var/folders/rt/4gvqv631095f64jvm7jfj_000000gn/T//cc1i8NTO.s:1042   .text.Lcd_Init:000000000000010a .LBB204
/var/folders/rt/4gvqv631095f64jvm7jfj_000000gn/T//cc1i8NTO.s:1049   .text.Lcd_Init:0000000000000116 .LBE204
/var/folders/rt/4gvqv631095f64jvm7jfj_000000gn/T//cc1i8NTO.s:15470  .debug_loc:0000000000001238 .LLST28
/var/folders/rt/4gvqv631095f64jvm7jfj_000000gn/T//cc1i8NTO.s:1047   .text.Lcd_Init:0000000000000116 .LVL85
/var/folders/rt/4gvqv631095f64jvm7jfj_000000gn/T//cc1i8NTO.s:1051   .text.Lcd_Init:0000000000000116 .LBB206
/var/folders/rt/4gvqv631095f64jvm7jfj_000000gn/T//cc1i8NTO.s:1058   .text.Lcd_Init:0000000000000122 .LBE206
/var/folders/rt/4gvqv631095f64jvm7jfj_000000gn/T//cc1i8NTO.s:15479  .debug_loc:000000000000124d .LLST29
/var/folders/rt/4gvqv631095f64jvm7jfj_000000gn/T//cc1i8NTO.s:1056   .text.Lcd_Init:0000000000000122 .LVL86
/var/folders/rt/4gvqv631095f64jvm7jfj_000000gn/T//cc1i8NTO.s:1060   .text.Lcd_Init:0000000000000122 .LBB208
/var/folders/rt/4gvqv631095f64jvm7jfj_000000gn/T//cc1i8NTO.s:1067   .text.Lcd_Init:000000000000012e .LBE208
/var/folders/rt/4gvqv631095f64jvm7jfj_000000gn/T//cc1i8NTO.s:15488  .debug_loc:0000000000001262 .LLST30
/var/folders/rt/4gvqv631095f64jvm7jfj_000000gn/T//cc1i8NTO.s:1065   .text.Lcd_Init:000000000000012e .LVL87
/var/folders/rt/4gvqv631095f64jvm7jfj_000000gn/T//cc1i8NTO.s:1069   .text.Lcd_Init:000000000000012e .LBB210
GAS LISTING /var/folders/rt/4gvqv631095f64jvm7jfj_000000gn/T//cc1i8NTO.s 			page 157


/var/folders/rt/4gvqv631095f64jvm7jfj_000000gn/T//cc1i8NTO.s:1076   .text.Lcd_Init:000000000000013a .LBE210
/var/folders/rt/4gvqv631095f64jvm7jfj_000000gn/T//cc1i8NTO.s:15497  .debug_loc:0000000000001277 .LLST31
/var/folders/rt/4gvqv631095f64jvm7jfj_000000gn/T//cc1i8NTO.s:1074   .text.Lcd_Init:000000000000013a .LVL88
/var/folders/rt/4gvqv631095f64jvm7jfj_000000gn/T//cc1i8NTO.s:1078   .text.Lcd_Init:000000000000013a .LBB212
/var/folders/rt/4gvqv631095f64jvm7jfj_000000gn/T//cc1i8NTO.s:1085   .text.Lcd_Init:0000000000000146 .LBE212
/var/folders/rt/4gvqv631095f64jvm7jfj_000000gn/T//cc1i8NTO.s:15505  .debug_loc:000000000000128b .LLST32
/var/folders/rt/4gvqv631095f64jvm7jfj_000000gn/T//cc1i8NTO.s:1083   .text.Lcd_Init:0000000000000146 .LVL89
/var/folders/rt/4gvqv631095f64jvm7jfj_000000gn/T//cc1i8NTO.s:1087   .text.Lcd_Init:0000000000000146 .LBB214
/var/folders/rt/4gvqv631095f64jvm7jfj_000000gn/T//cc1i8NTO.s:1094   .text.Lcd_Init:0000000000000152 .LBE214
/var/folders/rt/4gvqv631095f64jvm7jfj_000000gn/T//cc1i8NTO.s:15514  .debug_loc:00000000000012a0 .LLST33
/var/folders/rt/4gvqv631095f64jvm7jfj_000000gn/T//cc1i8NTO.s:1092   .text.Lcd_Init:0000000000000152 .LVL90
/var/folders/rt/4gvqv631095f64jvm7jfj_000000gn/T//cc1i8NTO.s:1096   .text.Lcd_Init:0000000000000152 .LBB216
/var/folders/rt/4gvqv631095f64jvm7jfj_000000gn/T//cc1i8NTO.s:1103   .text.Lcd_Init:000000000000015e .LBE216
/var/folders/rt/4gvqv631095f64jvm7jfj_000000gn/T//cc1i8NTO.s:15523  .debug_loc:00000000000012b5 .LLST34
/var/folders/rt/4gvqv631095f64jvm7jfj_000000gn/T//cc1i8NTO.s:1101   .text.Lcd_Init:000000000000015e .LVL91
/var/folders/rt/4gvqv631095f64jvm7jfj_000000gn/T//cc1i8NTO.s:1105   .text.Lcd_Init:000000000000015e .LBB218
/var/folders/rt/4gvqv631095f64jvm7jfj_000000gn/T//cc1i8NTO.s:1112   .text.Lcd_Init:000000000000016a .LBE218
/var/folders/rt/4gvqv631095f64jvm7jfj_000000gn/T//cc1i8NTO.s:15532  .debug_loc:00000000000012ca .LLST35
/var/folders/rt/4gvqv631095f64jvm7jfj_000000gn/T//cc1i8NTO.s:1110   .text.Lcd_Init:000000000000016a .LVL92
/var/folders/rt/4gvqv631095f64jvm7jfj_000000gn/T//cc1i8NTO.s:1114   .text.Lcd_Init:000000000000016a .LBB220
/var/folders/rt/4gvqv631095f64jvm7jfj_000000gn/T//cc1i8NTO.s:1121   .text.Lcd_Init:0000000000000176 .LBE220
/var/folders/rt/4gvqv631095f64jvm7jfj_000000gn/T//cc1i8NTO.s:15540  .debug_loc:00000000000012de .LLST36
/var/folders/rt/4gvqv631095f64jvm7jfj_000000gn/T//cc1i8NTO.s:1119   .text.Lcd_Init:0000000000000176 .LVL93
/var/folders/rt/4gvqv631095f64jvm7jfj_000000gn/T//cc1i8NTO.s:1123   .text.Lcd_Init:0000000000000176 .LBB222
/var/folders/rt/4gvqv631095f64jvm7jfj_000000gn/T//cc1i8NTO.s:1130   .text.Lcd_Init:0000000000000182 .LBE222
/var/folders/rt/4gvqv631095f64jvm7jfj_000000gn/T//cc1i8NTO.s:15549  .debug_loc:00000000000012f3 .LLST37
/var/folders/rt/4gvqv631095f64jvm7jfj_000000gn/T//cc1i8NTO.s:1128   .text.Lcd_Init:0000000000000182 .LVL94
/var/folders/rt/4gvqv631095f64jvm7jfj_000000gn/T//cc1i8NTO.s:1132   .text.Lcd_Init:0000000000000182 .LBB224
/var/folders/rt/4gvqv631095f64jvm7jfj_000000gn/T//cc1i8NTO.s:1139   .text.Lcd_Init:000000000000018e .LBE224
/var/folders/rt/4gvqv631095f64jvm7jfj_000000gn/T//cc1i8NTO.s:15558  .debug_loc:0000000000001308 .LLST38
/var/folders/rt/4gvqv631095f64jvm7jfj_000000gn/T//cc1i8NTO.s:1137   .text.Lcd_Init:000000000000018e .LVL95
/var/folders/rt/4gvqv631095f64jvm7jfj_000000gn/T//cc1i8NTO.s:1141   .text.Lcd_Init:000000000000018e .LBB226
/var/folders/rt/4gvqv631095f64jvm7jfj_000000gn/T//cc1i8NTO.s:1148   .text.Lcd_Init:000000000000019a .LBE226
/var/folders/rt/4gvqv631095f64jvm7jfj_000000gn/T//cc1i8NTO.s:15566  .debug_loc:000000000000131c .LLST39
/var/folders/rt/4gvqv631095f64jvm7jfj_000000gn/T//cc1i8NTO.s:1146   .text.Lcd_Init:000000000000019a .LVL96
/var/folders/rt/4gvqv631095f64jvm7jfj_000000gn/T//cc1i8NTO.s:1150   .text.Lcd_Init:000000000000019a .LBB228
/var/folders/rt/4gvqv631095f64jvm7jfj_000000gn/T//cc1i8NTO.s:1157   .text.Lcd_Init:00000000000001a6 .LBE228
/var/folders/rt/4gvqv631095f64jvm7jfj_000000gn/T//cc1i8NTO.s:15575  .debug_loc:0000000000001331 .LLST40
/var/folders/rt/4gvqv631095f64jvm7jfj_000000gn/T//cc1i8NTO.s:1155   .text.Lcd_Init:00000000000001a6 .LVL97
/var/folders/rt/4gvqv631095f64jvm7jfj_000000gn/T//cc1i8NTO.s:1159   .text.Lcd_Init:00000000000001a6 .LBB230
/var/folders/rt/4gvqv631095f64jvm7jfj_000000gn/T//cc1i8NTO.s:1166   .text.Lcd_Init:00000000000001b2 .LBE230
/var/folders/rt/4gvqv631095f64jvm7jfj_000000gn/T//cc1i8NTO.s:15584  .debug_loc:0000000000001346 .LLST41
/var/folders/rt/4gvqv631095f64jvm7jfj_000000gn/T//cc1i8NTO.s:1164   .text.Lcd_Init:00000000000001b2 .LVL98
/var/folders/rt/4gvqv631095f64jvm7jfj_000000gn/T//cc1i8NTO.s:1168   .text.Lcd_Init:00000000000001b2 .LBB232
/var/folders/rt/4gvqv631095f64jvm7jfj_000000gn/T//cc1i8NTO.s:1175   .text.Lcd_Init:00000000000001be .LBE232
/var/folders/rt/4gvqv631095f64jvm7jfj_000000gn/T//cc1i8NTO.s:15593  .debug_loc:000000000000135b .LLST42
/var/folders/rt/4gvqv631095f64jvm7jfj_000000gn/T//cc1i8NTO.s:1173   .text.Lcd_Init:00000000000001be .LVL99
/var/folders/rt/4gvqv631095f64jvm7jfj_000000gn/T//cc1i8NTO.s:1177   .text.Lcd_Init:00000000000001be .LBB234
/var/folders/rt/4gvqv631095f64jvm7jfj_000000gn/T//cc1i8NTO.s:1184   .text.Lcd_Init:00000000000001ca .LBE234
/var/folders/rt/4gvqv631095f64jvm7jfj_000000gn/T//cc1i8NTO.s:15601  .debug_loc:000000000000136f .LLST43
/var/folders/rt/4gvqv631095f64jvm7jfj_000000gn/T//cc1i8NTO.s:1182   .text.Lcd_Init:00000000000001ca .LVL100
/var/folders/rt/4gvqv631095f64jvm7jfj_000000gn/T//cc1i8NTO.s:1186   .text.Lcd_Init:00000000000001ca .LBB236
/var/folders/rt/4gvqv631095f64jvm7jfj_000000gn/T//cc1i8NTO.s:1193   .text.Lcd_Init:00000000000001d6 .LBE236
/var/folders/rt/4gvqv631095f64jvm7jfj_000000gn/T//cc1i8NTO.s:15610  .debug_loc:0000000000001384 .LLST44
/var/folders/rt/4gvqv631095f64jvm7jfj_000000gn/T//cc1i8NTO.s:1191   .text.Lcd_Init:00000000000001d6 .LVL101
/var/folders/rt/4gvqv631095f64jvm7jfj_000000gn/T//cc1i8NTO.s:1195   .text.Lcd_Init:00000000000001d6 .LBB238
/var/folders/rt/4gvqv631095f64jvm7jfj_000000gn/T//cc1i8NTO.s:1202   .text.Lcd_Init:00000000000001e2 .LBE238
GAS LISTING /var/folders/rt/4gvqv631095f64jvm7jfj_000000gn/T//cc1i8NTO.s 			page 158


/var/folders/rt/4gvqv631095f64jvm7jfj_000000gn/T//cc1i8NTO.s:15619  .debug_loc:0000000000001399 .LLST45
/var/folders/rt/4gvqv631095f64jvm7jfj_000000gn/T//cc1i8NTO.s:1200   .text.Lcd_Init:00000000000001e2 .LVL102
/var/folders/rt/4gvqv631095f64jvm7jfj_000000gn/T//cc1i8NTO.s:1204   .text.Lcd_Init:00000000000001e2 .LBB240
/var/folders/rt/4gvqv631095f64jvm7jfj_000000gn/T//cc1i8NTO.s:1211   .text.Lcd_Init:00000000000001ee .LBE240
/var/folders/rt/4gvqv631095f64jvm7jfj_000000gn/T//cc1i8NTO.s:15627  .debug_loc:00000000000013ad .LLST46
/var/folders/rt/4gvqv631095f64jvm7jfj_000000gn/T//cc1i8NTO.s:1209   .text.Lcd_Init:00000000000001ee .LVL103
/var/folders/rt/4gvqv631095f64jvm7jfj_000000gn/T//cc1i8NTO.s:1213   .text.Lcd_Init:00000000000001ee .LBB242
/var/folders/rt/4gvqv631095f64jvm7jfj_000000gn/T//cc1i8NTO.s:1220   .text.Lcd_Init:00000000000001fa .LBE242
/var/folders/rt/4gvqv631095f64jvm7jfj_000000gn/T//cc1i8NTO.s:15635  .debug_loc:00000000000013c1 .LLST47
/var/folders/rt/4gvqv631095f64jvm7jfj_000000gn/T//cc1i8NTO.s:1218   .text.Lcd_Init:00000000000001fa .LVL104
/var/folders/rt/4gvqv631095f64jvm7jfj_000000gn/T//cc1i8NTO.s:1222   .text.Lcd_Init:00000000000001fa .LBB244
/var/folders/rt/4gvqv631095f64jvm7jfj_000000gn/T//cc1i8NTO.s:1229   .text.Lcd_Init:0000000000000206 .LBE244
/var/folders/rt/4gvqv631095f64jvm7jfj_000000gn/T//cc1i8NTO.s:15644  .debug_loc:00000000000013d6 .LLST48
/var/folders/rt/4gvqv631095f64jvm7jfj_000000gn/T//cc1i8NTO.s:1227   .text.Lcd_Init:0000000000000206 .LVL105
/var/folders/rt/4gvqv631095f64jvm7jfj_000000gn/T//cc1i8NTO.s:1231   .text.Lcd_Init:0000000000000206 .LBB246
/var/folders/rt/4gvqv631095f64jvm7jfj_000000gn/T//cc1i8NTO.s:1238   .text.Lcd_Init:0000000000000212 .LBE246
/var/folders/rt/4gvqv631095f64jvm7jfj_000000gn/T//cc1i8NTO.s:15653  .debug_loc:00000000000013eb .LLST49
/var/folders/rt/4gvqv631095f64jvm7jfj_000000gn/T//cc1i8NTO.s:1236   .text.Lcd_Init:0000000000000212 .LVL106
/var/folders/rt/4gvqv631095f64jvm7jfj_000000gn/T//cc1i8NTO.s:1240   .text.Lcd_Init:0000000000000212 .LBB248
/var/folders/rt/4gvqv631095f64jvm7jfj_000000gn/T//cc1i8NTO.s:1247   .text.Lcd_Init:000000000000021e .LBE248
/var/folders/rt/4gvqv631095f64jvm7jfj_000000gn/T//cc1i8NTO.s:15662  .debug_loc:0000000000001400 .LLST50
/var/folders/rt/4gvqv631095f64jvm7jfj_000000gn/T//cc1i8NTO.s:1245   .text.Lcd_Init:000000000000021e .LVL107
/var/folders/rt/4gvqv631095f64jvm7jfj_000000gn/T//cc1i8NTO.s:1249   .text.Lcd_Init:000000000000021e .LBB250
/var/folders/rt/4gvqv631095f64jvm7jfj_000000gn/T//cc1i8NTO.s:1256   .text.Lcd_Init:000000000000022a .LBE250
/var/folders/rt/4gvqv631095f64jvm7jfj_000000gn/T//cc1i8NTO.s:15670  .debug_loc:0000000000001414 .LLST51
/var/folders/rt/4gvqv631095f64jvm7jfj_000000gn/T//cc1i8NTO.s:1254   .text.Lcd_Init:000000000000022a .LVL108
/var/folders/rt/4gvqv631095f64jvm7jfj_000000gn/T//cc1i8NTO.s:1258   .text.Lcd_Init:000000000000022a .LBB252
/var/folders/rt/4gvqv631095f64jvm7jfj_000000gn/T//cc1i8NTO.s:1265   .text.Lcd_Init:0000000000000236 .LBE252
/var/folders/rt/4gvqv631095f64jvm7jfj_000000gn/T//cc1i8NTO.s:15678  .debug_loc:0000000000001428 .LLST52
/var/folders/rt/4gvqv631095f64jvm7jfj_000000gn/T//cc1i8NTO.s:1263   .text.Lcd_Init:0000000000000236 .LVL109
/var/folders/rt/4gvqv631095f64jvm7jfj_000000gn/T//cc1i8NTO.s:1267   .text.Lcd_Init:0000000000000236 .LBB254
/var/folders/rt/4gvqv631095f64jvm7jfj_000000gn/T//cc1i8NTO.s:1274   .text.Lcd_Init:0000000000000242 .LBE254
/var/folders/rt/4gvqv631095f64jvm7jfj_000000gn/T//cc1i8NTO.s:15687  .debug_loc:000000000000143d .LLST53
/var/folders/rt/4gvqv631095f64jvm7jfj_000000gn/T//cc1i8NTO.s:1272   .text.Lcd_Init:0000000000000242 .LVL110
/var/folders/rt/4gvqv631095f64jvm7jfj_000000gn/T//cc1i8NTO.s:1276   .text.Lcd_Init:0000000000000242 .LBB256
/var/folders/rt/4gvqv631095f64jvm7jfj_000000gn/T//cc1i8NTO.s:1283   .text.Lcd_Init:000000000000024e .LBE256
/var/folders/rt/4gvqv631095f64jvm7jfj_000000gn/T//cc1i8NTO.s:15696  .debug_loc:0000000000001452 .LLST54
/var/folders/rt/4gvqv631095f64jvm7jfj_000000gn/T//cc1i8NTO.s:1281   .text.Lcd_Init:000000000000024e .LVL111
/var/folders/rt/4gvqv631095f64jvm7jfj_000000gn/T//cc1i8NTO.s:1285   .text.Lcd_Init:000000000000024e .LBB258
/var/folders/rt/4gvqv631095f64jvm7jfj_000000gn/T//cc1i8NTO.s:1292   .text.Lcd_Init:000000000000025a .LBE258
/var/folders/rt/4gvqv631095f64jvm7jfj_000000gn/T//cc1i8NTO.s:15705  .debug_loc:0000000000001467 .LLST55
/var/folders/rt/4gvqv631095f64jvm7jfj_000000gn/T//cc1i8NTO.s:1290   .text.Lcd_Init:000000000000025a .LVL112
/var/folders/rt/4gvqv631095f64jvm7jfj_000000gn/T//cc1i8NTO.s:1294   .text.Lcd_Init:000000000000025a .LBB260
/var/folders/rt/4gvqv631095f64jvm7jfj_000000gn/T//cc1i8NTO.s:1301   .text.Lcd_Init:0000000000000266 .LBE260
/var/folders/rt/4gvqv631095f64jvm7jfj_000000gn/T//cc1i8NTO.s:15714  .debug_loc:000000000000147c .LLST56
/var/folders/rt/4gvqv631095f64jvm7jfj_000000gn/T//cc1i8NTO.s:1299   .text.Lcd_Init:0000000000000266 .LVL113
/var/folders/rt/4gvqv631095f64jvm7jfj_000000gn/T//cc1i8NTO.s:1303   .text.Lcd_Init:0000000000000266 .LBB262
/var/folders/rt/4gvqv631095f64jvm7jfj_000000gn/T//cc1i8NTO.s:1310   .text.Lcd_Init:0000000000000272 .LBE262
/var/folders/rt/4gvqv631095f64jvm7jfj_000000gn/T//cc1i8NTO.s:15723  .debug_loc:0000000000001491 .LLST57
/var/folders/rt/4gvqv631095f64jvm7jfj_000000gn/T//cc1i8NTO.s:1308   .text.Lcd_Init:0000000000000272 .LVL114
/var/folders/rt/4gvqv631095f64jvm7jfj_000000gn/T//cc1i8NTO.s:1312   .text.Lcd_Init:0000000000000272 .LBB264
/var/folders/rt/4gvqv631095f64jvm7jfj_000000gn/T//cc1i8NTO.s:1319   .text.Lcd_Init:000000000000027e .LBE264
/var/folders/rt/4gvqv631095f64jvm7jfj_000000gn/T//cc1i8NTO.s:15732  .debug_loc:00000000000014a6 .LLST58
/var/folders/rt/4gvqv631095f64jvm7jfj_000000gn/T//cc1i8NTO.s:1317   .text.Lcd_Init:000000000000027e .LVL115
/var/folders/rt/4gvqv631095f64jvm7jfj_000000gn/T//cc1i8NTO.s:1321   .text.Lcd_Init:000000000000027e .LBB266
/var/folders/rt/4gvqv631095f64jvm7jfj_000000gn/T//cc1i8NTO.s:1328   .text.Lcd_Init:000000000000028a .LBE266
/var/folders/rt/4gvqv631095f64jvm7jfj_000000gn/T//cc1i8NTO.s:15741  .debug_loc:00000000000014bb .LLST59
GAS LISTING /var/folders/rt/4gvqv631095f64jvm7jfj_000000gn/T//cc1i8NTO.s 			page 159


/var/folders/rt/4gvqv631095f64jvm7jfj_000000gn/T//cc1i8NTO.s:1326   .text.Lcd_Init:000000000000028a .LVL116
/var/folders/rt/4gvqv631095f64jvm7jfj_000000gn/T//cc1i8NTO.s:1330   .text.Lcd_Init:000000000000028a .LBB268
/var/folders/rt/4gvqv631095f64jvm7jfj_000000gn/T//cc1i8NTO.s:1337   .text.Lcd_Init:0000000000000296 .LBE268
/var/folders/rt/4gvqv631095f64jvm7jfj_000000gn/T//cc1i8NTO.s:15749  .debug_loc:00000000000014cf .LLST60
/var/folders/rt/4gvqv631095f64jvm7jfj_000000gn/T//cc1i8NTO.s:1335   .text.Lcd_Init:0000000000000296 .LVL117
/var/folders/rt/4gvqv631095f64jvm7jfj_000000gn/T//cc1i8NTO.s:1339   .text.Lcd_Init:0000000000000296 .LBB270
/var/folders/rt/4gvqv631095f64jvm7jfj_000000gn/T//cc1i8NTO.s:1346   .text.Lcd_Init:00000000000002a2 .LBE270
/var/folders/rt/4gvqv631095f64jvm7jfj_000000gn/T//cc1i8NTO.s:15758  .debug_loc:00000000000014e4 .LLST61
/var/folders/rt/4gvqv631095f64jvm7jfj_000000gn/T//cc1i8NTO.s:1344   .text.Lcd_Init:00000000000002a2 .LVL118
/var/folders/rt/4gvqv631095f64jvm7jfj_000000gn/T//cc1i8NTO.s:1348   .text.Lcd_Init:00000000000002a2 .LBB272
/var/folders/rt/4gvqv631095f64jvm7jfj_000000gn/T//cc1i8NTO.s:1355   .text.Lcd_Init:00000000000002ae .LBE272
/var/folders/rt/4gvqv631095f64jvm7jfj_000000gn/T//cc1i8NTO.s:15766  .debug_loc:00000000000014f8 .LLST62
/var/folders/rt/4gvqv631095f64jvm7jfj_000000gn/T//cc1i8NTO.s:1353   .text.Lcd_Init:00000000000002ae .LVL119
/var/folders/rt/4gvqv631095f64jvm7jfj_000000gn/T//cc1i8NTO.s:1357   .text.Lcd_Init:00000000000002ae .LBB274
/var/folders/rt/4gvqv631095f64jvm7jfj_000000gn/T//cc1i8NTO.s:1364   .text.Lcd_Init:00000000000002ba .LBE274
/var/folders/rt/4gvqv631095f64jvm7jfj_000000gn/T//cc1i8NTO.s:15774  .debug_loc:000000000000150c .LLST63
/var/folders/rt/4gvqv631095f64jvm7jfj_000000gn/T//cc1i8NTO.s:1362   .text.Lcd_Init:00000000000002ba .LVL120
/var/folders/rt/4gvqv631095f64jvm7jfj_000000gn/T//cc1i8NTO.s:1366   .text.Lcd_Init:00000000000002ba .LBB276
/var/folders/rt/4gvqv631095f64jvm7jfj_000000gn/T//cc1i8NTO.s:1373   .text.Lcd_Init:00000000000002c6 .LBE276
/var/folders/rt/4gvqv631095f64jvm7jfj_000000gn/T//cc1i8NTO.s:15782  .debug_loc:0000000000001520 .LLST64
/var/folders/rt/4gvqv631095f64jvm7jfj_000000gn/T//cc1i8NTO.s:1371   .text.Lcd_Init:00000000000002c6 .LVL121
/var/folders/rt/4gvqv631095f64jvm7jfj_000000gn/T//cc1i8NTO.s:1375   .text.Lcd_Init:00000000000002c6 .LBB278
/var/folders/rt/4gvqv631095f64jvm7jfj_000000gn/T//cc1i8NTO.s:1382   .text.Lcd_Init:00000000000002d2 .LBE278
/var/folders/rt/4gvqv631095f64jvm7jfj_000000gn/T//cc1i8NTO.s:15790  .debug_loc:0000000000001534 .LLST65
/var/folders/rt/4gvqv631095f64jvm7jfj_000000gn/T//cc1i8NTO.s:1380   .text.Lcd_Init:00000000000002d2 .LVL122
/var/folders/rt/4gvqv631095f64jvm7jfj_000000gn/T//cc1i8NTO.s:1384   .text.Lcd_Init:00000000000002d2 .LBB280
/var/folders/rt/4gvqv631095f64jvm7jfj_000000gn/T//cc1i8NTO.s:1391   .text.Lcd_Init:00000000000002de .LBE280
/var/folders/rt/4gvqv631095f64jvm7jfj_000000gn/T//cc1i8NTO.s:15798  .debug_loc:0000000000001548 .LLST66
/var/folders/rt/4gvqv631095f64jvm7jfj_000000gn/T//cc1i8NTO.s:1389   .text.Lcd_Init:00000000000002de .LVL123
/var/folders/rt/4gvqv631095f64jvm7jfj_000000gn/T//cc1i8NTO.s:1393   .text.Lcd_Init:00000000000002de .LBB282
/var/folders/rt/4gvqv631095f64jvm7jfj_000000gn/T//cc1i8NTO.s:1400   .text.Lcd_Init:00000000000002ea .LBE282
/var/folders/rt/4gvqv631095f64jvm7jfj_000000gn/T//cc1i8NTO.s:15806  .debug_loc:000000000000155c .LLST67
/var/folders/rt/4gvqv631095f64jvm7jfj_000000gn/T//cc1i8NTO.s:1398   .text.Lcd_Init:00000000000002ea .LVL124
/var/folders/rt/4gvqv631095f64jvm7jfj_000000gn/T//cc1i8NTO.s:1402   .text.Lcd_Init:00000000000002ea .LBB284
/var/folders/rt/4gvqv631095f64jvm7jfj_000000gn/T//cc1i8NTO.s:1409   .text.Lcd_Init:00000000000002f6 .LBE284
/var/folders/rt/4gvqv631095f64jvm7jfj_000000gn/T//cc1i8NTO.s:15814  .debug_loc:0000000000001570 .LLST68
/var/folders/rt/4gvqv631095f64jvm7jfj_000000gn/T//cc1i8NTO.s:1407   .text.Lcd_Init:00000000000002f6 .LVL125
/var/folders/rt/4gvqv631095f64jvm7jfj_000000gn/T//cc1i8NTO.s:1411   .text.Lcd_Init:00000000000002f6 .LBB286
/var/folders/rt/4gvqv631095f64jvm7jfj_000000gn/T//cc1i8NTO.s:1418   .text.Lcd_Init:0000000000000302 .LBE286
/var/folders/rt/4gvqv631095f64jvm7jfj_000000gn/T//cc1i8NTO.s:15822  .debug_loc:0000000000001584 .LLST69
/var/folders/rt/4gvqv631095f64jvm7jfj_000000gn/T//cc1i8NTO.s:1416   .text.Lcd_Init:0000000000000302 .LVL126
/var/folders/rt/4gvqv631095f64jvm7jfj_000000gn/T//cc1i8NTO.s:1420   .text.Lcd_Init:0000000000000302 .LBB288
/var/folders/rt/4gvqv631095f64jvm7jfj_000000gn/T//cc1i8NTO.s:1427   .text.Lcd_Init:000000000000030e .LBE288
/var/folders/rt/4gvqv631095f64jvm7jfj_000000gn/T//cc1i8NTO.s:15830  .debug_loc:0000000000001598 .LLST70
/var/folders/rt/4gvqv631095f64jvm7jfj_000000gn/T//cc1i8NTO.s:1425   .text.Lcd_Init:000000000000030e .LVL127
/var/folders/rt/4gvqv631095f64jvm7jfj_000000gn/T//cc1i8NTO.s:1429   .text.Lcd_Init:000000000000030e .LBB290
/var/folders/rt/4gvqv631095f64jvm7jfj_000000gn/T//cc1i8NTO.s:1436   .text.Lcd_Init:000000000000031a .LBE290
/var/folders/rt/4gvqv631095f64jvm7jfj_000000gn/T//cc1i8NTO.s:15838  .debug_loc:00000000000015ac .LLST71
/var/folders/rt/4gvqv631095f64jvm7jfj_000000gn/T//cc1i8NTO.s:1434   .text.Lcd_Init:000000000000031a .LVL128
/var/folders/rt/4gvqv631095f64jvm7jfj_000000gn/T//cc1i8NTO.s:1438   .text.Lcd_Init:000000000000031a .LBB292
/var/folders/rt/4gvqv631095f64jvm7jfj_000000gn/T//cc1i8NTO.s:1445   .text.Lcd_Init:0000000000000326 .LBE292
/var/folders/rt/4gvqv631095f64jvm7jfj_000000gn/T//cc1i8NTO.s:15847  .debug_loc:00000000000015c1 .LLST72
/var/folders/rt/4gvqv631095f64jvm7jfj_000000gn/T//cc1i8NTO.s:1443   .text.Lcd_Init:0000000000000326 .LVL129
/var/folders/rt/4gvqv631095f64jvm7jfj_000000gn/T//cc1i8NTO.s:1447   .text.Lcd_Init:0000000000000326 .LBB294
/var/folders/rt/4gvqv631095f64jvm7jfj_000000gn/T//cc1i8NTO.s:1454   .text.Lcd_Init:0000000000000332 .LBE294
/var/folders/rt/4gvqv631095f64jvm7jfj_000000gn/T//cc1i8NTO.s:15856  .debug_loc:00000000000015d6 .LLST73
/var/folders/rt/4gvqv631095f64jvm7jfj_000000gn/T//cc1i8NTO.s:1452   .text.Lcd_Init:0000000000000332 .LVL130
GAS LISTING /var/folders/rt/4gvqv631095f64jvm7jfj_000000gn/T//cc1i8NTO.s 			page 160


/var/folders/rt/4gvqv631095f64jvm7jfj_000000gn/T//cc1i8NTO.s:1456   .text.Lcd_Init:0000000000000332 .LBB296
/var/folders/rt/4gvqv631095f64jvm7jfj_000000gn/T//cc1i8NTO.s:1463   .text.Lcd_Init:000000000000033e .LBE296
/var/folders/rt/4gvqv631095f64jvm7jfj_000000gn/T//cc1i8NTO.s:15864  .debug_loc:00000000000015ea .LLST74
/var/folders/rt/4gvqv631095f64jvm7jfj_000000gn/T//cc1i8NTO.s:1461   .text.Lcd_Init:000000000000033e .LVL131
/var/folders/rt/4gvqv631095f64jvm7jfj_000000gn/T//cc1i8NTO.s:1465   .text.Lcd_Init:000000000000033e .LBB298
/var/folders/rt/4gvqv631095f64jvm7jfj_000000gn/T//cc1i8NTO.s:1472   .text.Lcd_Init:000000000000034a .LBE298
/var/folders/rt/4gvqv631095f64jvm7jfj_000000gn/T//cc1i8NTO.s:15872  .debug_loc:00000000000015fe .LLST75
/var/folders/rt/4gvqv631095f64jvm7jfj_000000gn/T//cc1i8NTO.s:1470   .text.Lcd_Init:000000000000034a .LVL132
/var/folders/rt/4gvqv631095f64jvm7jfj_000000gn/T//cc1i8NTO.s:1474   .text.Lcd_Init:000000000000034a .LBB300
/var/folders/rt/4gvqv631095f64jvm7jfj_000000gn/T//cc1i8NTO.s:1481   .text.Lcd_Init:0000000000000356 .LBE300
/var/folders/rt/4gvqv631095f64jvm7jfj_000000gn/T//cc1i8NTO.s:15880  .debug_loc:0000000000001612 .LLST76
/var/folders/rt/4gvqv631095f64jvm7jfj_000000gn/T//cc1i8NTO.s:1479   .text.Lcd_Init:0000000000000356 .LVL133
/var/folders/rt/4gvqv631095f64jvm7jfj_000000gn/T//cc1i8NTO.s:1483   .text.Lcd_Init:0000000000000356 .LBB302
/var/folders/rt/4gvqv631095f64jvm7jfj_000000gn/T//cc1i8NTO.s:1490   .text.Lcd_Init:0000000000000362 .LBE302
/var/folders/rt/4gvqv631095f64jvm7jfj_000000gn/T//cc1i8NTO.s:15888  .debug_loc:0000000000001626 .LLST77
/var/folders/rt/4gvqv631095f64jvm7jfj_000000gn/T//cc1i8NTO.s:1488   .text.Lcd_Init:0000000000000362 .LVL134
/var/folders/rt/4gvqv631095f64jvm7jfj_000000gn/T//cc1i8NTO.s:1492   .text.Lcd_Init:0000000000000362 .LBB304
/var/folders/rt/4gvqv631095f64jvm7jfj_000000gn/T//cc1i8NTO.s:1499   .text.Lcd_Init:000000000000036e .LBE304
/var/folders/rt/4gvqv631095f64jvm7jfj_000000gn/T//cc1i8NTO.s:15897  .debug_loc:000000000000163b .LLST78
/var/folders/rt/4gvqv631095f64jvm7jfj_000000gn/T//cc1i8NTO.s:1497   .text.Lcd_Init:000000000000036e .LVL135
/var/folders/rt/4gvqv631095f64jvm7jfj_000000gn/T//cc1i8NTO.s:1501   .text.Lcd_Init:000000000000036e .LBB306
/var/folders/rt/4gvqv631095f64jvm7jfj_000000gn/T//cc1i8NTO.s:1508   .text.Lcd_Init:000000000000037a .LBE306
/var/folders/rt/4gvqv631095f64jvm7jfj_000000gn/T//cc1i8NTO.s:15905  .debug_loc:000000000000164f .LLST79
/var/folders/rt/4gvqv631095f64jvm7jfj_000000gn/T//cc1i8NTO.s:1506   .text.Lcd_Init:000000000000037a .LVL136
/var/folders/rt/4gvqv631095f64jvm7jfj_000000gn/T//cc1i8NTO.s:1510   .text.Lcd_Init:000000000000037a .LBB308
/var/folders/rt/4gvqv631095f64jvm7jfj_000000gn/T//cc1i8NTO.s:1517   .text.Lcd_Init:0000000000000386 .LBE308
/var/folders/rt/4gvqv631095f64jvm7jfj_000000gn/T//cc1i8NTO.s:15913  .debug_loc:0000000000001663 .LLST80
/var/folders/rt/4gvqv631095f64jvm7jfj_000000gn/T//cc1i8NTO.s:1515   .text.Lcd_Init:0000000000000386 .LVL137
/var/folders/rt/4gvqv631095f64jvm7jfj_000000gn/T//cc1i8NTO.s:1519   .text.Lcd_Init:0000000000000386 .LBB310
/var/folders/rt/4gvqv631095f64jvm7jfj_000000gn/T//cc1i8NTO.s:1526   .text.Lcd_Init:0000000000000392 .LBE310
/var/folders/rt/4gvqv631095f64jvm7jfj_000000gn/T//cc1i8NTO.s:15921  .debug_loc:0000000000001677 .LLST81
/var/folders/rt/4gvqv631095f64jvm7jfj_000000gn/T//cc1i8NTO.s:1524   .text.Lcd_Init:0000000000000392 .LVL138
/var/folders/rt/4gvqv631095f64jvm7jfj_000000gn/T//cc1i8NTO.s:1528   .text.Lcd_Init:0000000000000392 .LBB312
/var/folders/rt/4gvqv631095f64jvm7jfj_000000gn/T//cc1i8NTO.s:1535   .text.Lcd_Init:000000000000039e .LBE312
/var/folders/rt/4gvqv631095f64jvm7jfj_000000gn/T//cc1i8NTO.s:15929  .debug_loc:000000000000168b .LLST82
/var/folders/rt/4gvqv631095f64jvm7jfj_000000gn/T//cc1i8NTO.s:1533   .text.Lcd_Init:000000000000039e .LVL139
/var/folders/rt/4gvqv631095f64jvm7jfj_000000gn/T//cc1i8NTO.s:1537   .text.Lcd_Init:000000000000039e .LBB314
/var/folders/rt/4gvqv631095f64jvm7jfj_000000gn/T//cc1i8NTO.s:1544   .text.Lcd_Init:00000000000003aa .LBE314
/var/folders/rt/4gvqv631095f64jvm7jfj_000000gn/T//cc1i8NTO.s:15937  .debug_loc:000000000000169f .LLST83
/var/folders/rt/4gvqv631095f64jvm7jfj_000000gn/T//cc1i8NTO.s:1542   .text.Lcd_Init:00000000000003aa .LVL140
/var/folders/rt/4gvqv631095f64jvm7jfj_000000gn/T//cc1i8NTO.s:1546   .text.Lcd_Init:00000000000003aa .LBB316
/var/folders/rt/4gvqv631095f64jvm7jfj_000000gn/T//cc1i8NTO.s:1553   .text.Lcd_Init:00000000000003b6 .LBE316
/var/folders/rt/4gvqv631095f64jvm7jfj_000000gn/T//cc1i8NTO.s:15945  .debug_loc:00000000000016b3 .LLST84
/var/folders/rt/4gvqv631095f64jvm7jfj_000000gn/T//cc1i8NTO.s:1551   .text.Lcd_Init:00000000000003b6 .LVL141
/var/folders/rt/4gvqv631095f64jvm7jfj_000000gn/T//cc1i8NTO.s:1555   .text.Lcd_Init:00000000000003b6 .LBB318
/var/folders/rt/4gvqv631095f64jvm7jfj_000000gn/T//cc1i8NTO.s:1562   .text.Lcd_Init:00000000000003c2 .LBE318
/var/folders/rt/4gvqv631095f64jvm7jfj_000000gn/T//cc1i8NTO.s:15953  .debug_loc:00000000000016c7 .LLST85
/var/folders/rt/4gvqv631095f64jvm7jfj_000000gn/T//cc1i8NTO.s:1560   .text.Lcd_Init:00000000000003c2 .LVL142
/var/folders/rt/4gvqv631095f64jvm7jfj_000000gn/T//cc1i8NTO.s:1564   .text.Lcd_Init:00000000000003c2 .LBB320
/var/folders/rt/4gvqv631095f64jvm7jfj_000000gn/T//cc1i8NTO.s:1571   .text.Lcd_Init:00000000000003ce .LBE320
/var/folders/rt/4gvqv631095f64jvm7jfj_000000gn/T//cc1i8NTO.s:15961  .debug_loc:00000000000016db .LLST86
/var/folders/rt/4gvqv631095f64jvm7jfj_000000gn/T//cc1i8NTO.s:1569   .text.Lcd_Init:00000000000003ce .LVL143
/var/folders/rt/4gvqv631095f64jvm7jfj_000000gn/T//cc1i8NTO.s:1573   .text.Lcd_Init:00000000000003ce .LBB322
/var/folders/rt/4gvqv631095f64jvm7jfj_000000gn/T//cc1i8NTO.s:1580   .text.Lcd_Init:00000000000003da .LBE322
/var/folders/rt/4gvqv631095f64jvm7jfj_000000gn/T//cc1i8NTO.s:15969  .debug_loc:00000000000016ef .LLST87
/var/folders/rt/4gvqv631095f64jvm7jfj_000000gn/T//cc1i8NTO.s:1578   .text.Lcd_Init:00000000000003da .LVL144
/var/folders/rt/4gvqv631095f64jvm7jfj_000000gn/T//cc1i8NTO.s:1582   .text.Lcd_Init:00000000000003da .LBB324
GAS LISTING /var/folders/rt/4gvqv631095f64jvm7jfj_000000gn/T//cc1i8NTO.s 			page 161


/var/folders/rt/4gvqv631095f64jvm7jfj_000000gn/T//cc1i8NTO.s:1589   .text.Lcd_Init:00000000000003e6 .LBE324
/var/folders/rt/4gvqv631095f64jvm7jfj_000000gn/T//cc1i8NTO.s:15977  .debug_loc:0000000000001703 .LLST88
/var/folders/rt/4gvqv631095f64jvm7jfj_000000gn/T//cc1i8NTO.s:1587   .text.Lcd_Init:00000000000003e6 .LVL145
/var/folders/rt/4gvqv631095f64jvm7jfj_000000gn/T//cc1i8NTO.s:1591   .text.Lcd_Init:00000000000003e6 .LBB326
/var/folders/rt/4gvqv631095f64jvm7jfj_000000gn/T//cc1i8NTO.s:1598   .text.Lcd_Init:00000000000003f2 .LBE326
/var/folders/rt/4gvqv631095f64jvm7jfj_000000gn/T//cc1i8NTO.s:15986  .debug_loc:0000000000001718 .LLST89
/var/folders/rt/4gvqv631095f64jvm7jfj_000000gn/T//cc1i8NTO.s:1596   .text.Lcd_Init:00000000000003f2 .LVL146
/var/folders/rt/4gvqv631095f64jvm7jfj_000000gn/T//cc1i8NTO.s:1600   .text.Lcd_Init:00000000000003f2 .LBB328
/var/folders/rt/4gvqv631095f64jvm7jfj_000000gn/T//cc1i8NTO.s:1607   .text.Lcd_Init:00000000000003fe .LBE328
/var/folders/rt/4gvqv631095f64jvm7jfj_000000gn/T//cc1i8NTO.s:15995  .debug_loc:000000000000172d .LLST90
/var/folders/rt/4gvqv631095f64jvm7jfj_000000gn/T//cc1i8NTO.s:1605   .text.Lcd_Init:00000000000003fe .LVL147
/var/folders/rt/4gvqv631095f64jvm7jfj_000000gn/T//cc1i8NTO.s:1609   .text.Lcd_Init:00000000000003fe .LBB330
/var/folders/rt/4gvqv631095f64jvm7jfj_000000gn/T//cc1i8NTO.s:1616   .text.Lcd_Init:000000000000040a .LBE330
/var/folders/rt/4gvqv631095f64jvm7jfj_000000gn/T//cc1i8NTO.s:16003  .debug_loc:0000000000001741 .LLST91
/var/folders/rt/4gvqv631095f64jvm7jfj_000000gn/T//cc1i8NTO.s:1614   .text.Lcd_Init:000000000000040a .LVL148
/var/folders/rt/4gvqv631095f64jvm7jfj_000000gn/T//cc1i8NTO.s:1618   .text.Lcd_Init:000000000000040a .LBB332
/var/folders/rt/4gvqv631095f64jvm7jfj_000000gn/T//cc1i8NTO.s:1625   .text.Lcd_Init:0000000000000416 .LBE332
/var/folders/rt/4gvqv631095f64jvm7jfj_000000gn/T//cc1i8NTO.s:16011  .debug_loc:0000000000001755 .LLST92
/var/folders/rt/4gvqv631095f64jvm7jfj_000000gn/T//cc1i8NTO.s:1623   .text.Lcd_Init:0000000000000416 .LVL149
/var/folders/rt/4gvqv631095f64jvm7jfj_000000gn/T//cc1i8NTO.s:1627   .text.Lcd_Init:0000000000000416 .LBB334
/var/folders/rt/4gvqv631095f64jvm7jfj_000000gn/T//cc1i8NTO.s:1634   .text.Lcd_Init:0000000000000422 .LBE334
/var/folders/rt/4gvqv631095f64jvm7jfj_000000gn/T//cc1i8NTO.s:16019  .debug_loc:0000000000001769 .LLST93
/var/folders/rt/4gvqv631095f64jvm7jfj_000000gn/T//cc1i8NTO.s:1632   .text.Lcd_Init:0000000000000422 .LVL150
/var/folders/rt/4gvqv631095f64jvm7jfj_000000gn/T//cc1i8NTO.s:1636   .text.Lcd_Init:0000000000000422 .LBB336
/var/folders/rt/4gvqv631095f64jvm7jfj_000000gn/T//cc1i8NTO.s:1643   .text.Lcd_Init:000000000000042e .LBE336
/var/folders/rt/4gvqv631095f64jvm7jfj_000000gn/T//cc1i8NTO.s:16027  .debug_loc:000000000000177d .LLST94
/var/folders/rt/4gvqv631095f64jvm7jfj_000000gn/T//cc1i8NTO.s:1641   .text.Lcd_Init:000000000000042e .LVL151
/var/folders/rt/4gvqv631095f64jvm7jfj_000000gn/T//cc1i8NTO.s:1645   .text.Lcd_Init:000000000000042e .LBB338
/var/folders/rt/4gvqv631095f64jvm7jfj_000000gn/T//cc1i8NTO.s:1652   .text.Lcd_Init:000000000000043a .LBE338
/var/folders/rt/4gvqv631095f64jvm7jfj_000000gn/T//cc1i8NTO.s:16036  .debug_loc:0000000000001792 .LLST95
/var/folders/rt/4gvqv631095f64jvm7jfj_000000gn/T//cc1i8NTO.s:1650   .text.Lcd_Init:000000000000043a .LVL152
/var/folders/rt/4gvqv631095f64jvm7jfj_000000gn/T//cc1i8NTO.s:1654   .text.Lcd_Init:000000000000043a .LBB340
/var/folders/rt/4gvqv631095f64jvm7jfj_000000gn/T//cc1i8NTO.s:1661   .text.Lcd_Init:0000000000000446 .LBE340
/var/folders/rt/4gvqv631095f64jvm7jfj_000000gn/T//cc1i8NTO.s:16044  .debug_loc:00000000000017a6 .LLST96
/var/folders/rt/4gvqv631095f64jvm7jfj_000000gn/T//cc1i8NTO.s:1659   .text.Lcd_Init:0000000000000446 .LVL153
/var/folders/rt/4gvqv631095f64jvm7jfj_000000gn/T//cc1i8NTO.s:1663   .text.Lcd_Init:0000000000000446 .LBB342
/var/folders/rt/4gvqv631095f64jvm7jfj_000000gn/T//cc1i8NTO.s:1670   .text.Lcd_Init:0000000000000452 .LBE342
/var/folders/rt/4gvqv631095f64jvm7jfj_000000gn/T//cc1i8NTO.s:16053  .debug_loc:00000000000017bb .LLST97
/var/folders/rt/4gvqv631095f64jvm7jfj_000000gn/T//cc1i8NTO.s:1668   .text.Lcd_Init:0000000000000452 .LVL154
/var/folders/rt/4gvqv631095f64jvm7jfj_000000gn/T//cc1i8NTO.s:1672   .text.Lcd_Init:0000000000000452 .LBB344
/var/folders/rt/4gvqv631095f64jvm7jfj_000000gn/T//cc1i8NTO.s:1696   .text.Lcd_Init:0000000000000464 .LVL155
/var/folders/rt/4gvqv631095f64jvm7jfj_000000gn/T//cc1i8NTO.s:920    .text.Lcd_Init:000000000000001e .LVL63
/var/folders/rt/4gvqv631095f64jvm7jfj_000000gn/T//cc1i8NTO.s:925    .text.Lcd_Init:000000000000002a .LVL64
/var/folders/rt/4gvqv631095f64jvm7jfj_000000gn/T//cc1i8NTO.s:929    .text.Lcd_Init:0000000000000036 .LVL65
/var/folders/rt/4gvqv631095f64jvm7jfj_000000gn/T//cc1i8NTO.s:933    .text.Lcd_Init:0000000000000042 .LVL66
/var/folders/rt/4gvqv631095f64jvm7jfj_000000gn/T//cc1i8NTO.s:937    .text.Lcd_Init:000000000000004e .LVL67
/var/folders/rt/4gvqv631095f64jvm7jfj_000000gn/T//cc1i8NTO.s:945    .text.Lcd_Init:0000000000000064 .LVL68
/var/folders/rt/4gvqv631095f64jvm7jfj_000000gn/T//cc1i8NTO.s:952    .text.Lcd_Init:0000000000000076 .LVL69
/var/folders/rt/4gvqv631095f64jvm7jfj_000000gn/T//cc1i8NTO.s:955    .text.Lcd_Init:000000000000007e .LVL70
/var/folders/rt/4gvqv631095f64jvm7jfj_000000gn/T//cc1i8NTO.s:960    .text.Lcd_Init:000000000000008c .LVL71
/var/folders/rt/4gvqv631095f64jvm7jfj_000000gn/T//cc1i8NTO.s:963    .text.Lcd_Init:0000000000000094 .LVL72
/var/folders/rt/4gvqv631095f64jvm7jfj_000000gn/T//cc1i8NTO.s:967    .text.Lcd_Init:00000000000000a0 .LVL73
/var/folders/rt/4gvqv631095f64jvm7jfj_000000gn/T//cc1i8NTO.s:979    .text.Lcd_Init:00000000000000b2 .LVL75
/var/folders/rt/4gvqv631095f64jvm7jfj_000000gn/T//cc1i8NTO.s:983    .text.Lcd_Init:00000000000000be .LVL76
/var/folders/rt/4gvqv631095f64jvm7jfj_000000gn/T//cc1i8NTO.s:995    .text.Lcd_Init:00000000000000d0 .LVL78
/var/folders/rt/4gvqv631095f64jvm7jfj_000000gn/T//cc1i8NTO.s:999    .text.Lcd_Init:00000000000000dc .LVL79
/var/folders/rt/4gvqv631095f64jvm7jfj_000000gn/T//cc1i8NTO.s:17142  .debug_str:00000000000003f3 .LASF224
GAS LISTING /var/folders/rt/4gvqv631095f64jvm7jfj_000000gn/T//cc1i8NTO.s 			page 162


/var/folders/rt/4gvqv631095f64jvm7jfj_000000gn/T//cc1i8NTO.s:17044  .debug_str:00000000000001e3 .LASF225
/var/folders/rt/4gvqv631095f64jvm7jfj_000000gn/T//cc1i8NTO.s:17416  .debug_str:000000000000095b .LASF226
/var/folders/rt/4gvqv631095f64jvm7jfj_000000gn/T//cc1i8NTO.s:766    .text.spi_config:0000000000000000 .LFB12
/var/folders/rt/4gvqv631095f64jvm7jfj_000000gn/T//cc1i8NTO.s:839    .text.spi_config:000000000000005e .LFE12
/var/folders/rt/4gvqv631095f64jvm7jfj_000000gn/T//cc1i8NTO.s:16062  .debug_loc:00000000000017d0 .LLST21
/var/folders/rt/4gvqv631095f64jvm7jfj_000000gn/T//cc1i8NTO.s:17344  .debug_str:00000000000007ec .LASF227
/var/folders/rt/4gvqv631095f64jvm7jfj_000000gn/T//cc1i8NTO.s:785    .text.spi_config:0000000000000014 .LVL57
/var/folders/rt/4gvqv631095f64jvm7jfj_000000gn/T//cc1i8NTO.s:789    .text.spi_config:000000000000001e .LVL58
/var/folders/rt/4gvqv631095f64jvm7jfj_000000gn/T//cc1i8NTO.s:824    .text.spi_config:000000000000004a .LVL59
/var/folders/rt/4gvqv631095f64jvm7jfj_000000gn/T//cc1i8NTO.s:828    .text.spi_config:0000000000000056 .LVL60
/var/folders/rt/4gvqv631095f64jvm7jfj_000000gn/T//cc1i8NTO.s:17164  .debug_str:0000000000000463 .LASF228
/var/folders/rt/4gvqv631095f64jvm7jfj_000000gn/T//cc1i8NTO.s:634    .text.LCD_Address_Set:0000000000000000 .LFB11
/var/folders/rt/4gvqv631095f64jvm7jfj_000000gn/T//cc1i8NTO.s:759    .text.LCD_Address_Set:0000000000000088 .LFE11
/var/folders/rt/4gvqv631095f64jvm7jfj_000000gn/T//cc1i8NTO.s:16080  .debug_loc:00000000000017fc .LLST14
/var/folders/rt/4gvqv631095f64jvm7jfj_000000gn/T//cc1i8NTO.s:16098  .debug_loc:0000000000001828 .LLST15
/var/folders/rt/4gvqv631095f64jvm7jfj_000000gn/T//cc1i8NTO.s:16116  .debug_loc:0000000000001854 .LLST16
/var/folders/rt/4gvqv631095f64jvm7jfj_000000gn/T//cc1i8NTO.s:16133  .debug_loc:000000000000187f .LLST17
/var/folders/rt/4gvqv631095f64jvm7jfj_000000gn/T//cc1i8NTO.s:16150  .debug_loc:00000000000018aa .LLST18
/var/folders/rt/4gvqv631095f64jvm7jfj_000000gn/T//cc1i8NTO.s:655    .text.LCD_Address_Set:0000000000000012 .LBB172
/var/folders/rt/4gvqv631095f64jvm7jfj_000000gn/T//cc1i8NTO.s:16167  .debug_loc:00000000000018d5 .LLST19
/var/folders/rt/4gvqv631095f64jvm7jfj_000000gn/T//cc1i8NTO.s:683    .text.LCD_Address_Set:000000000000002a .LVL48
/var/folders/rt/4gvqv631095f64jvm7jfj_000000gn/T//cc1i8NTO.s:702    .text.LCD_Address_Set:0000000000000048 .LBB178
/var/folders/rt/4gvqv631095f64jvm7jfj_000000gn/T//cc1i8NTO.s:709    .text.LCD_Address_Set:0000000000000054 .LBE178
/var/folders/rt/4gvqv631095f64jvm7jfj_000000gn/T//cc1i8NTO.s:16176  .debug_loc:00000000000018ea .LLST20
/var/folders/rt/4gvqv631095f64jvm7jfj_000000gn/T//cc1i8NTO.s:707    .text.LCD_Address_Set:0000000000000054 .LVL51
/var/folders/rt/4gvqv631095f64jvm7jfj_000000gn/T//cc1i8NTO.s:727    .text.LCD_Address_Set:0000000000000074 .LBB180
/var/folders/rt/4gvqv631095f64jvm7jfj_000000gn/T//cc1i8NTO.s:755    .text.LCD_Address_Set:0000000000000088 .LVL56
/var/folders/rt/4gvqv631095f64jvm7jfj_000000gn/T//cc1i8NTO.s:692    .text.LCD_Address_Set:0000000000000038 .LVL49
/var/folders/rt/4gvqv631095f64jvm7jfj_000000gn/T//cc1i8NTO.s:700    .text.LCD_Address_Set:0000000000000048 .LVL50
/var/folders/rt/4gvqv631095f64jvm7jfj_000000gn/T//cc1i8NTO.s:717    .text.LCD_Address_Set:0000000000000064 .LVL52
/var/folders/rt/4gvqv631095f64jvm7jfj_000000gn/T//cc1i8NTO.s:725    .text.LCD_Address_Set:0000000000000074 .LVL53
/var/folders/rt/4gvqv631095f64jvm7jfj_000000gn/T//cc1i8NTO.s:17202  .debug_str:000000000000053a .LASF229
/var/folders/rt/4gvqv631095f64jvm7jfj_000000gn/T//cc1i8NTO.s:17250  .debug_str:000000000000061a .LASF230
/var/folders/rt/4gvqv631095f64jvm7jfj_000000gn/T//cc1i8NTO.s:570    .text.LCD_WR_DATA:0000000000000000 .LFB9
/var/folders/rt/4gvqv631095f64jvm7jfj_000000gn/T//cc1i8NTO.s:612    .text.LCD_WR_DATA:000000000000002c .LFE9
/var/folders/rt/4gvqv631095f64jvm7jfj_000000gn/T//cc1i8NTO.s:16185  .debug_loc:00000000000018ff .LLST11
/var/folders/rt/4gvqv631095f64jvm7jfj_000000gn/T//cc1i8NTO.s:16203  .debug_loc:000000000000192b .LLST12
/var/folders/rt/4gvqv631095f64jvm7jfj_000000gn/T//cc1i8NTO.s:592    .text.LCD_WR_DATA:0000000000000016 .LVL40
/var/folders/rt/4gvqv631095f64jvm7jfj_000000gn/T//cc1i8NTO.s:610    .text.LCD_WR_DATA:000000000000002c .LVL42
/var/folders/rt/4gvqv631095f64jvm7jfj_000000gn/T//cc1i8NTO.s:17304  .debug_str:0000000000000726 .LASF231
/var/folders/rt/4gvqv631095f64jvm7jfj_000000gn/T//cc1i8NTO.s:17412  .debug_str:0000000000000944 .LASF232
/var/folders/rt/4gvqv631095f64jvm7jfj_000000gn/T//cc1i8NTO.s:457    .text.LCD_Writ_Bus:0000000000000000 .LFB7
/var/folders/rt/4gvqv631095f64jvm7jfj_000000gn/T//cc1i8NTO.s:546    .text.LCD_Writ_Bus:0000000000000078 .LFE7
/var/folders/rt/4gvqv631095f64jvm7jfj_000000gn/T//cc1i8NTO.s:16221  .debug_loc:0000000000001957 .LLST8
/var/folders/rt/4gvqv631095f64jvm7jfj_000000gn/T//cc1i8NTO.s:16239  .debug_loc:0000000000001983 .LLST9
/var/folders/rt/4gvqv631095f64jvm7jfj_000000gn/T//cc1i8NTO.s:488    .text.LCD_Writ_Bus:0000000000000022 .LVL29
/var/folders/rt/4gvqv631095f64jvm7jfj_000000gn/T//cc1i8NTO.s:496    .text.LCD_Writ_Bus:000000000000002e .LVL30
/var/folders/rt/4gvqv631095f64jvm7jfj_000000gn/T//cc1i8NTO.s:506    .text.LCD_Writ_Bus:0000000000000042 .LVL31
/var/folders/rt/4gvqv631095f64jvm7jfj_000000gn/T//cc1i8NTO.s:516    .text.LCD_Writ_Bus:0000000000000052 .LVL32
/var/folders/rt/4gvqv631095f64jvm7jfj_000000gn/T//cc1i8NTO.s:522    .text.LCD_Writ_Bus:0000000000000060 .LVL33
/var/folders/rt/4gvqv631095f64jvm7jfj_000000gn/T//cc1i8NTO.s:544    .text.LCD_Writ_Bus:0000000000000078 .LVL34
/var/folders/rt/4gvqv631095f64jvm7jfj_000000gn/T//cc1i8NTO.s:17154  .debug_str:000000000000042a .LASF233
/var/folders/rt/4gvqv631095f64jvm7jfj_000000gn/T//cc1i8NTO.s:378    .text.LCD_Write_Bus:0000000000000000 .LFB6
/var/folders/rt/4gvqv631095f64jvm7jfj_000000gn/T//cc1i8NTO.s:450    .text.LCD_Write_Bus:0000000000000058 .LFE6
/var/folders/rt/4gvqv631095f64jvm7jfj_000000gn/T//cc1i8NTO.s:16253  .debug_loc:00000000000019a4 .LLST6
/var/folders/rt/4gvqv631095f64jvm7jfj_000000gn/T//cc1i8NTO.s:16276  .debug_loc:00000000000019dc .LLST7
/var/folders/rt/4gvqv631095f64jvm7jfj_000000gn/T//cc1i8NTO.s:446    .text.LCD_Write_Bus:0000000000000054 .LVL26
GAS LISTING /var/folders/rt/4gvqv631095f64jvm7jfj_000000gn/T//cc1i8NTO.s 			page 163


/var/folders/rt/4gvqv631095f64jvm7jfj_000000gn/T//cc1i8NTO.s:17336  .debug_str:00000000000007c8 .LASF254
/var/folders/rt/4gvqv631095f64jvm7jfj_000000gn/T//cc1i8NTO.s:357    .text.is_LCD_queue_empy:0000000000000000 .LFB5
/var/folders/rt/4gvqv631095f64jvm7jfj_000000gn/T//cc1i8NTO.s:371    .text.is_LCD_queue_empy:0000000000000018 .LFE5
/var/folders/rt/4gvqv631095f64jvm7jfj_000000gn/T//cc1i8NTO.s:17026  .debug_str:00000000000000fe .LASF255
/var/folders/rt/4gvqv631095f64jvm7jfj_000000gn/T//cc1i8NTO.s:17048  .debug_str:00000000000001ee .LASF256
/var/folders/rt/4gvqv631095f64jvm7jfj_000000gn/T//cc1i8NTO.s:308    .text.LCD_Wait_On_Queue:0000000000000000 .LFB3
/var/folders/rt/4gvqv631095f64jvm7jfj_000000gn/T//cc1i8NTO.s:350    .text.LCD_Wait_On_Queue:0000000000000030 .LFE3
/var/folders/rt/4gvqv631095f64jvm7jfj_000000gn/T//cc1i8NTO.s:16290  .debug_loc:00000000000019fd .LLST5
/var/folders/rt/4gvqv631095f64jvm7jfj_000000gn/T//cc1i8NTO.s:347    .text.LCD_Wait_On_Queue:000000000000002e .LVL23
/var/folders/rt/4gvqv631095f64jvm7jfj_000000gn/T//cc1i8NTO.s:17204  .debug_str:0000000000000545 .LASF234
/var/folders/rt/4gvqv631095f64jvm7jfj_000000gn/T//cc1i8NTO.s:19     .text.lcd_delay_1ms:0000000000000000 .LFB2
/var/folders/rt/4gvqv631095f64jvm7jfj_000000gn/T//cc1i8NTO.s:160    .text.lcd_delay_1ms:00000000000000ce .LFE2
/var/folders/rt/4gvqv631095f64jvm7jfj_000000gn/T//cc1i8NTO.s:16313  .debug_loc:0000000000001a35 .LLST0
/var/folders/rt/4gvqv631095f64jvm7jfj_000000gn/T//cc1i8NTO.s:17052  .debug_str:000000000000020b .LASF235
/var/folders/rt/4gvqv631095f64jvm7jfj_000000gn/T//cc1i8NTO.s:16331  .debug_loc:0000000000001a61 .LLST1
/var/folders/rt/4gvqv631095f64jvm7jfj_000000gn/T//cc1i8NTO.s:17134  .debug_str:00000000000003d0 .LASF236
/var/folders/rt/4gvqv631095f64jvm7jfj_000000gn/T//cc1i8NTO.s:16349  .debug_loc:0000000000001a8d .LLST2
/var/folders/rt/4gvqv631095f64jvm7jfj_000000gn/T//cc1i8NTO.s:17216  .debug_str:0000000000000589 .LASF237
/var/folders/rt/4gvqv631095f64jvm7jfj_000000gn/T//cc1i8NTO.s:16361  .debug_loc:0000000000001aa5 .LLST3
/var/folders/rt/4gvqv631095f64jvm7jfj_000000gn/T//cc1i8NTO.s:56     .text.lcd_delay_1ms:0000000000000022 .LVL1
/var/folders/rt/4gvqv631095f64jvm7jfj_000000gn/T//cc1i8NTO.s:65     .text.lcd_delay_1ms:000000000000002e .LVL3
/var/folders/rt/4gvqv631095f64jvm7jfj_000000gn/T//cc1i8NTO.s:84     .text.lcd_delay_1ms:0000000000000052 .LVL6
/var/folders/rt/4gvqv631095f64jvm7jfj_000000gn/T//cc1i8NTO.s:167    .text.LCD_WR_Queue:0000000000000000 .LFB4
/var/folders/rt/4gvqv631095f64jvm7jfj_000000gn/T//cc1i8NTO.s:301    .text.LCD_WR_Queue:00000000000000c2 .LFE4
/var/folders/rt/4gvqv631095f64jvm7jfj_000000gn/T//cc1i8NTO.s:16373  .debug_loc:0000000000001abd .LLST4
/var/folders/rt/4gvqv631095f64jvm7jfj_000000gn/T//cc1i8NTO.s:200    .text.LCD_WR_Queue:0000000000000030 .LBB168
/var/folders/rt/4gvqv631095f64jvm7jfj_000000gn/T//cc1i8NTO.s:206    .text.LCD_WR_Queue:000000000000003e .LVL18
/var/folders/rt/4gvqv631095f64jvm7jfj_000000gn/T//cc1i8NTO.s:227    .text.LCD_WR_Queue:000000000000006c .LVL19
/var/folders/rt/4gvqv631095f64jvm7jfj_000000gn/T//cc1i8NTO.s:246    .text.LCD_WR_Queue:000000000000008c .LVL20
/var/folders/rt/4gvqv631095f64jvm7jfj_000000gn/T//cc1i8NTO.s:275    .text.LCD_WR_Queue:00000000000000aa .LVL21
/var/folders/rt/4gvqv631095f64jvm7jfj_000000gn/T//cc1i8NTO.s:197    .text.LCD_WR_Queue:000000000000002e .LVL17
/var/folders/rt/4gvqv631095f64jvm7jfj_000000gn/T//cc1i8NTO.s:299    .text.LCD_WR_Queue:00000000000000c2 .LVL22
/var/folders/rt/4gvqv631095f64jvm7jfj_000000gn/T//cc1i8NTO.s:553    .text.LCD_WR_DATA8:0000000000000000 .LFB8
/var/folders/rt/4gvqv631095f64jvm7jfj_000000gn/T//cc1i8NTO.s:563    .text.LCD_WR_DATA8:000000000000000c .LFE8
/var/folders/rt/4gvqv631095f64jvm7jfj_000000gn/T//cc1i8NTO.s:16401  .debug_loc:0000000000001b01 .LLST10
/var/folders/rt/4gvqv631095f64jvm7jfj_000000gn/T//cc1i8NTO.s:561    .text.LCD_WR_DATA8:000000000000000c .LVL37
/var/folders/rt/4gvqv631095f64jvm7jfj_000000gn/T//cc1i8NTO.s:619    .text.LCD_WR_REG:0000000000000000 .LFB10
/var/folders/rt/4gvqv631095f64jvm7jfj_000000gn/T//cc1i8NTO.s:627    .text.LCD_WR_REG:0000000000000008 .LFE10
/var/folders/rt/4gvqv631095f64jvm7jfj_000000gn/T//cc1i8NTO.s:16415  .debug_loc:0000000000001b22 .LLST13
/var/folders/rt/4gvqv631095f64jvm7jfj_000000gn/T//cc1i8NTO.s:625    .text.LCD_WR_REG:0000000000000008 .LVL44
/var/folders/rt/4gvqv631095f64jvm7jfj_000000gn/T//cc1i8NTO.s:846    .text.Lcd_SetType:0000000000000000 .LFB13
/var/folders/rt/4gvqv631095f64jvm7jfj_000000gn/T//cc1i8NTO.s:891    .text.Lcd_SetType:0000000000000026 .LFE13
/var/folders/rt/4gvqv631095f64jvm7jfj_000000gn/T//cc1i8NTO.s:862    .text.Lcd_SetType:000000000000000c .LBB188
/var/folders/rt/4gvqv631095f64jvm7jfj_000000gn/T//cc1i8NTO.s:2556   .text.LCD_ShowChar:0000000000000000 .LFB23
/var/folders/rt/4gvqv631095f64jvm7jfj_000000gn/T//cc1i8NTO.s:2758   .text.LCD_ShowChar:00000000000000de .LFE23
/var/folders/rt/4gvqv631095f64jvm7jfj_000000gn/T//cc1i8NTO.s:16429  .debug_loc:0000000000001b43 .LLST156
/var/folders/rt/4gvqv631095f64jvm7jfj_000000gn/T//cc1i8NTO.s:16457  .debug_loc:0000000000001b87 .LLST157
/var/folders/rt/4gvqv631095f64jvm7jfj_000000gn/T//cc1i8NTO.s:16483  .debug_loc:0000000000001bc9 .LLST158
/var/folders/rt/4gvqv631095f64jvm7jfj_000000gn/T//cc1i8NTO.s:16515  .debug_loc:0000000000001c18 .LLST159
/var/folders/rt/4gvqv631095f64jvm7jfj_000000gn/T//cc1i8NTO.s:16533  .debug_loc:0000000000001c44 .LLST160
/var/folders/rt/4gvqv631095f64jvm7jfj_000000gn/T//cc1i8NTO.s:16551  .debug_loc:0000000000001c70 .LLST161
/var/folders/rt/4gvqv631095f64jvm7jfj_000000gn/T//cc1i8NTO.s:16585  .debug_loc:0000000000001cc8 .LLST162
/var/folders/rt/4gvqv631095f64jvm7jfj_000000gn/T//cc1i8NTO.s:2594   .text.LCD_ShowChar:0000000000000028 .LBB352
/var/folders/rt/4gvqv631095f64jvm7jfj_000000gn/T//cc1i8NTO.s:16611  .debug_loc:0000000000001d0a .LLST163
/var/folders/rt/4gvqv631095f64jvm7jfj_000000gn/T//cc1i8NTO.s:16634  .debug_loc:0000000000001d49 .LLST164
/var/folders/rt/4gvqv631095f64jvm7jfj_000000gn/T//cc1i8NTO.s:16645  .debug_loc:0000000000001d67 .LLST165
/var/folders/rt/4gvqv631095f64jvm7jfj_000000gn/T//cc1i8NTO.s:16666  .debug_loc:0000000000001d9d .LLST166
GAS LISTING /var/folders/rt/4gvqv631095f64jvm7jfj_000000gn/T//cc1i8NTO.s 			page 164


/var/folders/rt/4gvqv631095f64jvm7jfj_000000gn/T//cc1i8NTO.s:16695  .debug_loc:0000000000001de2 .LLST167
/var/folders/rt/4gvqv631095f64jvm7jfj_000000gn/T//cc1i8NTO.s:16706  .debug_loc:0000000000001e00 .LLST168
/var/folders/rt/4gvqv631095f64jvm7jfj_000000gn/T//cc1i8NTO.s:16719  .debug_loc:0000000000001e20 .LLST169
/var/folders/rt/4gvqv631095f64jvm7jfj_000000gn/T//cc1i8NTO.s:2614   .text.LCD_ShowChar:0000000000000050 .LVL272
/var/folders/rt/4gvqv631095f64jvm7jfj_000000gn/T//cc1i8NTO.s:2653   .text.LCD_ShowChar:0000000000000082 .LVL280
/var/folders/rt/4gvqv631095f64jvm7jfj_000000gn/T//cc1i8NTO.s:2726   .text.LCD_ShowChar:00000000000000c8 .LVL289
/var/folders/rt/4gvqv631095f64jvm7jfj_000000gn/T//cc1i8NTO.s:3004   .text.mypow:0000000000000000 .LFB26
/var/folders/rt/4gvqv631095f64jvm7jfj_000000gn/T//cc1i8NTO.s:3036   .text.mypow:000000000000001a .LFE26
/var/folders/rt/4gvqv631095f64jvm7jfj_000000gn/T//cc1i8NTO.s:16744  .debug_loc:0000000000001e5a .LLST181
/var/folders/rt/4gvqv631095f64jvm7jfj_000000gn/T//cc1i8NTO.s:16762  .debug_loc:0000000000001e86 .LLST182
/var/folders/rt/4gvqv631095f64jvm7jfj_000000gn/T//cc1i8NTO.s:16773  .debug_loc:0000000000001ea4 .LLST183
/var/folders/rt/4gvqv631095f64jvm7jfj_000000gn/T//cc1i8NTO.s:17468  .debug_str:0000000000000a53 .LASF238
/var/folders/rt/4gvqv631095f64jvm7jfj_000000gn/T//cc1i8NTO.s:17376  .debug_str:00000000000008ab .LASF239
/var/folders/rt/4gvqv631095f64jvm7jfj_000000gn/T//cc1i8NTO.s:17166  .debug_str:0000000000000473 .LASF240
/var/folders/rt/4gvqv631095f64jvm7jfj_000000gn/T//cc1i8NTO.s:17350  .debug_str:0000000000000814 .LASF241
/var/folders/rt/4gvqv631095f64jvm7jfj_000000gn/T//cc1i8NTO.s:17452  .debug_str:00000000000009f6 .LASF242
/var/folders/rt/4gvqv631095f64jvm7jfj_000000gn/T//cc1i8NTO.s:17098  .debug_str:00000000000002ef .LASF243
/var/folders/rt/4gvqv631095f64jvm7jfj_000000gn/T//cc1i8NTO.s:17474  .debug_str:0000000000000a7d .LASF244
/var/folders/rt/4gvqv631095f64jvm7jfj_000000gn/T//cc1i8NTO.s:17320  .debug_str:0000000000000766 .LASF245
/var/folders/rt/4gvqv631095f64jvm7jfj_000000gn/T//cc1i8NTO.s:17364  .debug_str:0000000000000866 .LASF246
/var/folders/rt/4gvqv631095f64jvm7jfj_000000gn/T//cc1i8NTO.s:17260  .debug_str:0000000000000653 .LASF247
/var/folders/rt/4gvqv631095f64jvm7jfj_000000gn/T//cc1i8NTO.s:17186  .debug_str:00000000000004ea .LASF248
/var/folders/rt/4gvqv631095f64jvm7jfj_000000gn/T//cc1i8NTO.s:3426   .text.LCD_ShowPicture:0000000000000002 .LCFI54
/var/folders/rt/4gvqv631095f64jvm7jfj_000000gn/T//cc1i8NTO.s:3475   .text.LCD_ShowPicture:0000000000000036 .LCFI55
/var/folders/rt/4gvqv631095f64jvm7jfj_000000gn/T//cc1i8NTO.s:3480   .text.LCD_ShowPicture:0000000000000038 .LCFI56
/var/folders/rt/4gvqv631095f64jvm7jfj_000000gn/T//cc1i8NTO.s:3421   .text.LCD_ShowPicture:0000000000000000 .LVL379
/var/folders/rt/4gvqv631095f64jvm7jfj_000000gn/T//cc1i8NTO.s:3473   .text.LCD_ShowPicture:0000000000000034 .LVL384
/var/folders/rt/4gvqv631095f64jvm7jfj_000000gn/T//cc1i8NTO.s:3478   .text.LCD_ShowPicture:0000000000000038 .LVL385
/var/folders/rt/4gvqv631095f64jvm7jfj_000000gn/T//cc1i8NTO.s:3455   .text.LCD_ShowPicture:0000000000000028 .LVL381
/var/folders/rt/4gvqv631095f64jvm7jfj_000000gn/T//cc1i8NTO.s:3470   .text.LCD_ShowPicture:0000000000000032 .LVL383
/var/folders/rt/4gvqv631095f64jvm7jfj_000000gn/T//cc1i8NTO.s:3487   .text.LCD_ShowPicture:0000000000000042 .LVL386
/var/folders/rt/4gvqv631095f64jvm7jfj_000000gn/T//cc1i8NTO.s:3467   .text.LCD_ShowPicture:0000000000000030 .LVL382
/var/folders/rt/4gvqv631095f64jvm7jfj_000000gn/T//cc1i8NTO.s:3227   .text.LCD_ShowNum1:0000000000000002 .LCFI51
/var/folders/rt/4gvqv631095f64jvm7jfj_000000gn/T//cc1i8NTO.s:3316   .text.LCD_ShowNum1:000000000000005c .LCFI52
/var/folders/rt/4gvqv631095f64jvm7jfj_000000gn/T//cc1i8NTO.s:3321   .text.LCD_ShowNum1:000000000000005e .LCFI53
/var/folders/rt/4gvqv631095f64jvm7jfj_000000gn/T//cc1i8NTO.s:3221   .text.LCD_ShowNum1:0000000000000000 .LVL350
/var/folders/rt/4gvqv631095f64jvm7jfj_000000gn/T//cc1i8NTO.s:3244   .text.LCD_ShowNum1:0000000000000014 .LVL352
/var/folders/rt/4gvqv631095f64jvm7jfj_000000gn/T//cc1i8NTO.s:3301   .text.LCD_ShowNum1:0000000000000050 .LVL359
/var/folders/rt/4gvqv631095f64jvm7jfj_000000gn/T//cc1i8NTO.s:3319   .text.LCD_ShowNum1:000000000000005e .LVL363
/var/folders/rt/4gvqv631095f64jvm7jfj_000000gn/T//cc1i8NTO.s:3237   .text.LCD_ShowNum1:000000000000000e .LVL351
/var/folders/rt/4gvqv631095f64jvm7jfj_000000gn/T//cc1i8NTO.s:3304   .text.LCD_ShowNum1:0000000000000052 .LVL360
/var/folders/rt/4gvqv631095f64jvm7jfj_000000gn/T//cc1i8NTO.s:3266   .text.LCD_ShowNum1:0000000000000030 .LVL353
/var/folders/rt/4gvqv631095f64jvm7jfj_000000gn/T//cc1i8NTO.s:3281   .text.LCD_ShowNum1:0000000000000042 .LVL356
/var/folders/rt/4gvqv631095f64jvm7jfj_000000gn/T//cc1i8NTO.s:3296   .text.LCD_ShowNum1:000000000000004c .LVL358
/var/folders/rt/4gvqv631095f64jvm7jfj_000000gn/T//cc1i8NTO.s:3370   .text.LCD_ShowNum1:000000000000009a .LVL371
/var/folders/rt/4gvqv631095f64jvm7jfj_000000gn/T//cc1i8NTO.s:3378   .text.LCD_ShowNum1:00000000000000a6 .LVL373
/var/folders/rt/4gvqv631095f64jvm7jfj_000000gn/T//cc1i8NTO.s:3307   .text.LCD_ShowNum1:0000000000000054 .LVL361
/var/folders/rt/4gvqv631095f64jvm7jfj_000000gn/T//cc1i8NTO.s:3271   .text.LCD_ShowNum1:000000000000003a .LVL355
/var/folders/rt/4gvqv631095f64jvm7jfj_000000gn/T//cc1i8NTO.s:3293   .text.LCD_ShowNum1:000000000000004a .LVL357
/var/folders/rt/4gvqv631095f64jvm7jfj_000000gn/T//cc1i8NTO.s:3361   .text.LCD_ShowNum1:000000000000008c .LVL370
/var/folders/rt/4gvqv631095f64jvm7jfj_000000gn/T//cc1i8NTO.s:3391   .text.LCD_ShowNum1:00000000000000b8 .LVL374
/var/folders/rt/4gvqv631095f64jvm7jfj_000000gn/T//cc1i8NTO.s:3397   .text.LCD_ShowNum1:00000000000000c4 .LVL376
/var/folders/rt/4gvqv631095f64jvm7jfj_000000gn/T//cc1i8NTO.s:3354   .text.LCD_ShowNum1:0000000000000082 .LVL369
/var/folders/rt/4gvqv631095f64jvm7jfj_000000gn/T//cc1i8NTO.s:3399   .text.LCD_ShowNum1:00000000000000c6 .LVL377
/var/folders/rt/4gvqv631095f64jvm7jfj_000000gn/T//cc1i8NTO.s:3312   .text.LCD_ShowNum1:0000000000000058 .LVL362
/var/folders/rt/4gvqv631095f64jvm7jfj_000000gn/T//cc1i8NTO.s:3328   .text.LCD_ShowNum1:000000000000006a .LVL364
/var/folders/rt/4gvqv631095f64jvm7jfj_000000gn/T//cc1i8NTO.s:3339   .text.LCD_ShowNum1:000000000000006e .LVL366
GAS LISTING /var/folders/rt/4gvqv631095f64jvm7jfj_000000gn/T//cc1i8NTO.s 			page 165


/var/folders/rt/4gvqv631095f64jvm7jfj_000000gn/T//cc1i8NTO.s:3341   .text.LCD_ShowNum1:0000000000000072 .LVL367
/var/folders/rt/4gvqv631095f64jvm7jfj_000000gn/T//cc1i8NTO.s:3345   .text.LCD_ShowNum1:0000000000000076 .LVL368
/var/folders/rt/4gvqv631095f64jvm7jfj_000000gn/T//cc1i8NTO.s:3335   .text.LCD_ShowNum1:000000000000006c .LVL365
/var/folders/rt/4gvqv631095f64jvm7jfj_000000gn/T//cc1i8NTO.s:3052   .text.LCD_ShowNum:0000000000000002 .LCFI48
/var/folders/rt/4gvqv631095f64jvm7jfj_000000gn/T//cc1i8NTO.s:3130   .text.LCD_ShowNum:000000000000004e .LCFI49
/var/folders/rt/4gvqv631095f64jvm7jfj_000000gn/T//cc1i8NTO.s:3135   .text.LCD_ShowNum:0000000000000050 .LCFI50
/var/folders/rt/4gvqv631095f64jvm7jfj_000000gn/T//cc1i8NTO.s:3046   .text.LCD_ShowNum:0000000000000000 .LVL329
/var/folders/rt/4gvqv631095f64jvm7jfj_000000gn/T//cc1i8NTO.s:3093   .text.LCD_ShowNum:0000000000000032 .LVL330
/var/folders/rt/4gvqv631095f64jvm7jfj_000000gn/T//cc1i8NTO.s:3122   .text.LCD_ShowNum:0000000000000048 .LVL334
/var/folders/rt/4gvqv631095f64jvm7jfj_000000gn/T//cc1i8NTO.s:3133   .text.LCD_ShowNum:0000000000000050 .LVL337
/var/folders/rt/4gvqv631095f64jvm7jfj_000000gn/T//cc1i8NTO.s:3112   .text.LCD_ShowNum:0000000000000040 .LVL332
/var/folders/rt/4gvqv631095f64jvm7jfj_000000gn/T//cc1i8NTO.s:3125   .text.LCD_ShowNum:000000000000004a .LVL335
/var/folders/rt/4gvqv631095f64jvm7jfj_000000gn/T//cc1i8NTO.s:3115   .text.LCD_ShowNum:0000000000000042 .LVL333
/var/folders/rt/4gvqv631095f64jvm7jfj_000000gn/T//cc1i8NTO.s:3176   .text.LCD_ShowNum:0000000000000082 .LVL343
/var/folders/rt/4gvqv631095f64jvm7jfj_000000gn/T//cc1i8NTO.s:3128   .text.LCD_ShowNum:000000000000004c .LVL336
/var/folders/rt/4gvqv631095f64jvm7jfj_000000gn/T//cc1i8NTO.s:3184   .text.LCD_ShowNum:0000000000000090 .LVL345
/var/folders/rt/4gvqv631095f64jvm7jfj_000000gn/T//cc1i8NTO.s:3187   .text.LCD_ShowNum:0000000000000096 .LVL346
/var/folders/rt/4gvqv631095f64jvm7jfj_000000gn/T//cc1i8NTO.s:3163   .text.LCD_ShowNum:0000000000000070 .LVL342
/var/folders/rt/4gvqv631095f64jvm7jfj_000000gn/T//cc1i8NTO.s:3195   .text.LCD_ShowNum:000000000000009c .LVL347
/var/folders/rt/4gvqv631095f64jvm7jfj_000000gn/T//cc1i8NTO.s:3206   .text.LCD_ShowNum:00000000000000a6 .LVL349
/var/folders/rt/4gvqv631095f64jvm7jfj_000000gn/T//cc1i8NTO.s:3109   .text.LCD_ShowNum:000000000000003e .LVL331
/var/folders/rt/4gvqv631095f64jvm7jfj_000000gn/T//cc1i8NTO.s:3146   .text.LCD_ShowNum:0000000000000056 .LVL339
/var/folders/rt/4gvqv631095f64jvm7jfj_000000gn/T//cc1i8NTO.s:3148   .text.LCD_ShowNum:000000000000005a .LVL340
/var/folders/rt/4gvqv631095f64jvm7jfj_000000gn/T//cc1i8NTO.s:3152   .text.LCD_ShowNum:000000000000005e .LVL341
/var/folders/rt/4gvqv631095f64jvm7jfj_000000gn/T//cc1i8NTO.s:2899   .text.LCD_ShowStr:0000000000000002 .LCFI45
/var/folders/rt/4gvqv631095f64jvm7jfj_000000gn/T//cc1i8NTO.s:2957   .text.LCD_ShowStr:000000000000003c .LCFI46
/var/folders/rt/4gvqv631095f64jvm7jfj_000000gn/T//cc1i8NTO.s:2962   .text.LCD_ShowStr:000000000000003e .LCFI47
/var/folders/rt/4gvqv631095f64jvm7jfj_000000gn/T//cc1i8NTO.s:2895   .text.LCD_ShowStr:0000000000000000 .LVL309
/var/folders/rt/4gvqv631095f64jvm7jfj_000000gn/T//cc1i8NTO.s:2927   .text.LCD_ShowStr:0000000000000024 .LVL310
/var/folders/rt/4gvqv631095f64jvm7jfj_000000gn/T//cc1i8NTO.s:2940   .text.LCD_ShowStr:000000000000002e .LVL311
/var/folders/rt/4gvqv631095f64jvm7jfj_000000gn/T//cc1i8NTO.s:2960   .text.LCD_ShowStr:000000000000003e .LVL315
/var/folders/rt/4gvqv631095f64jvm7jfj_000000gn/T//cc1i8NTO.s:2968   .text.LCD_ShowStr:0000000000000042 .LVL316
/var/folders/rt/4gvqv631095f64jvm7jfj_000000gn/T//cc1i8NTO.s:2975   .text.LCD_ShowStr:0000000000000046 .LVL318
/var/folders/rt/4gvqv631095f64jvm7jfj_000000gn/T//cc1i8NTO.s:2943   .text.LCD_ShowStr:0000000000000030 .LVL312
/var/folders/rt/4gvqv631095f64jvm7jfj_000000gn/T//cc1i8NTO.s:2946   .text.LCD_ShowStr:0000000000000032 .LVL313
/var/folders/rt/4gvqv631095f64jvm7jfj_000000gn/T//cc1i8NTO.s:2949   .text.LCD_ShowStr:0000000000000034 .LVL314
/var/folders/rt/4gvqv631095f64jvm7jfj_000000gn/T//cc1i8NTO.s:2772   .text.LCD_ShowString:0000000000000002 .LCFI42
/var/folders/rt/4gvqv631095f64jvm7jfj_000000gn/T//cc1i8NTO.s:2832   .text.LCD_ShowString:0000000000000040 .LCFI43
/var/folders/rt/4gvqv631095f64jvm7jfj_000000gn/T//cc1i8NTO.s:2837   .text.LCD_ShowString:0000000000000042 .LCFI44
/var/folders/rt/4gvqv631095f64jvm7jfj_000000gn/T//cc1i8NTO.s:2768   .text.LCD_ShowString:0000000000000000 .LVL293
/var/folders/rt/4gvqv631095f64jvm7jfj_000000gn/T//cc1i8NTO.s:2804   .text.LCD_ShowString:0000000000000028 .LVL294
/var/folders/rt/4gvqv631095f64jvm7jfj_000000gn/T//cc1i8NTO.s:2815   .text.LCD_ShowString:0000000000000032 .LVL295
/var/folders/rt/4gvqv631095f64jvm7jfj_000000gn/T//cc1i8NTO.s:2835   .text.LCD_ShowString:0000000000000042 .LVL299
/var/folders/rt/4gvqv631095f64jvm7jfj_000000gn/T//cc1i8NTO.s:2843   .text.LCD_ShowString:0000000000000046 .LVL300
/var/folders/rt/4gvqv631095f64jvm7jfj_000000gn/T//cc1i8NTO.s:2850   .text.LCD_ShowString:000000000000004a .LVL302
/var/folders/rt/4gvqv631095f64jvm7jfj_000000gn/T//cc1i8NTO.s:2856   .text.LCD_ShowString:000000000000004e .LVL303
/var/folders/rt/4gvqv631095f64jvm7jfj_000000gn/T//cc1i8NTO.s:2865   .text.LCD_ShowString:000000000000005c .LVL305
/var/folders/rt/4gvqv631095f64jvm7jfj_000000gn/T//cc1i8NTO.s:2818   .text.LCD_ShowString:0000000000000034 .LVL296
/var/folders/rt/4gvqv631095f64jvm7jfj_000000gn/T//cc1i8NTO.s:2821   .text.LCD_ShowString:0000000000000036 .LVL297
/var/folders/rt/4gvqv631095f64jvm7jfj_000000gn/T//cc1i8NTO.s:2826   .text.LCD_ShowString:000000000000003a .LVL298
/var/folders/rt/4gvqv631095f64jvm7jfj_000000gn/T//cc1i8NTO.s:2388   .text.Draw_Circle:0000000000000006 .LCFI36
/var/folders/rt/4gvqv631095f64jvm7jfj_000000gn/T//cc1i8NTO.s:2545   .text.Draw_Circle:00000000000000f0 .LCFI37
/var/folders/rt/4gvqv631095f64jvm7jfj_000000gn/T//cc1i8NTO.s:2380   .text.Draw_Circle:0000000000000000 .LVL249
/var/folders/rt/4gvqv631095f64jvm7jfj_000000gn/T//cc1i8NTO.s:2426   .text.Draw_Circle:000000000000002a .LVL251
/var/folders/rt/4gvqv631095f64jvm7jfj_000000gn/T//cc1i8NTO.s:2534   .text.Draw_Circle:00000000000000e6 .LVL266
/var/folders/rt/4gvqv631095f64jvm7jfj_000000gn/T//cc1i8NTO.s:2537   .text.Draw_Circle:00000000000000e8 .LVL267
/var/folders/rt/4gvqv631095f64jvm7jfj_000000gn/T//cc1i8NTO.s:2523   .text.Draw_Circle:00000000000000dc .LVL265
GAS LISTING /var/folders/rt/4gvqv631095f64jvm7jfj_000000gn/T//cc1i8NTO.s 			page 166


/var/folders/rt/4gvqv631095f64jvm7jfj_000000gn/T//cc1i8NTO.s:2435   .text.Draw_Circle:000000000000003a .LVL252
/var/folders/rt/4gvqv631095f64jvm7jfj_000000gn/T//cc1i8NTO.s:2520   .text.Draw_Circle:00000000000000da .LVL264
/var/folders/rt/4gvqv631095f64jvm7jfj_000000gn/T//cc1i8NTO.s:2422   .text.Draw_Circle:0000000000000028 .LVL250
/var/folders/rt/4gvqv631095f64jvm7jfj_000000gn/T//cc1i8NTO.s:2517   .text.Draw_Circle:00000000000000d8 .LVL263
/var/folders/rt/4gvqv631095f64jvm7jfj_000000gn/T//cc1i8NTO.s:2292   .text.LCD_DrawRectangle:0000000000000002 .LCFI34
/var/folders/rt/4gvqv631095f64jvm7jfj_000000gn/T//cc1i8NTO.s:2364   .text.LCD_DrawRectangle:000000000000005e .LCFI35
/var/folders/rt/4gvqv631095f64jvm7jfj_000000gn/T//cc1i8NTO.s:2288   .text.LCD_DrawRectangle:0000000000000000 .LVL238
/var/folders/rt/4gvqv631095f64jvm7jfj_000000gn/T//cc1i8NTO.s:2345   .text.LCD_DrawRectangle:000000000000004e .LVL244
/var/folders/rt/4gvqv631095f64jvm7jfj_000000gn/T//cc1i8NTO.s:2359   .text.LCD_DrawRectangle:000000000000005a .LVL246
/var/folders/rt/4gvqv631095f64jvm7jfj_000000gn/T//cc1i8NTO.s:2362   .text.LCD_DrawRectangle:000000000000005c .LVL247
/var/folders/rt/4gvqv631095f64jvm7jfj_000000gn/T//cc1i8NTO.s:2299   .text.LCD_DrawRectangle:0000000000000008 .LVL239
/var/folders/rt/4gvqv631095f64jvm7jfj_000000gn/T//cc1i8NTO.s:2340   .text.LCD_DrawRectangle:000000000000004a .LVL243
/var/folders/rt/4gvqv631095f64jvm7jfj_000000gn/T//cc1i8NTO.s:2352   .text.LCD_DrawRectangle:0000000000000054 .LVL245
/var/folders/rt/4gvqv631095f64jvm7jfj_000000gn/T//cc1i8NTO.s:2093   .text.LCD_DrawLine:0000000000000002 .LCFI32
/var/folders/rt/4gvqv631095f64jvm7jfj_000000gn/T//cc1i8NTO.s:2274   .text.LCD_DrawLine:00000000000000a2 .LCFI33
/var/folders/rt/4gvqv631095f64jvm7jfj_000000gn/T//cc1i8NTO.s:2086   .text.LCD_DrawLine:0000000000000000 .LVL206
/var/folders/rt/4gvqv631095f64jvm7jfj_000000gn/T//cc1i8NTO.s:2189   .text.LCD_DrawLine:0000000000000058 .LVL218
/var/folders/rt/4gvqv631095f64jvm7jfj_000000gn/T//cc1i8NTO.s:2179   .text.LCD_DrawLine:000000000000004e .LVL217
/var/folders/rt/4gvqv631095f64jvm7jfj_000000gn/T//cc1i8NTO.s:2263   .text.LCD_DrawLine:000000000000009a .LVL234
/var/folders/rt/4gvqv631095f64jvm7jfj_000000gn/T//cc1i8NTO.s:2198   .text.LCD_DrawLine:0000000000000062 .LVL219
/var/folders/rt/4gvqv631095f64jvm7jfj_000000gn/T//cc1i8NTO.s:2257   .text.LCD_DrawLine:0000000000000096 .LVL232
/var/folders/rt/4gvqv631095f64jvm7jfj_000000gn/T//cc1i8NTO.s:2260   .text.LCD_DrawLine:0000000000000098 .LVL233
/var/folders/rt/4gvqv631095f64jvm7jfj_000000gn/T//cc1i8NTO.s:2121   .text.LCD_DrawLine:000000000000001e .LVL207
/var/folders/rt/4gvqv631095f64jvm7jfj_000000gn/T//cc1i8NTO.s:2242   .text.LCD_DrawLine:000000000000008c .LVL227
/var/folders/rt/4gvqv631095f64jvm7jfj_000000gn/T//cc1i8NTO.s:2125   .text.LCD_DrawLine:0000000000000022 .LVL208
/var/folders/rt/4gvqv631095f64jvm7jfj_000000gn/T//cc1i8NTO.s:2245   .text.LCD_DrawLine:000000000000008e .LVL228
/var/folders/rt/4gvqv631095f64jvm7jfj_000000gn/T//cc1i8NTO.s:2254   .text.LCD_DrawLine:0000000000000094 .LVL231
/var/folders/rt/4gvqv631095f64jvm7jfj_000000gn/T//cc1i8NTO.s:2272   .text.LCD_DrawLine:00000000000000a0 .LVL237
/var/folders/rt/4gvqv631095f64jvm7jfj_000000gn/T//cc1i8NTO.s:2145   .text.LCD_DrawLine:0000000000000030 .LVL211
/var/folders/rt/4gvqv631095f64jvm7jfj_000000gn/T//cc1i8NTO.s:2152   .text.LCD_DrawLine:0000000000000036 .LVL213
/var/folders/rt/4gvqv631095f64jvm7jfj_000000gn/T//cc1i8NTO.s:2266   .text.LCD_DrawLine:000000000000009c .LVL235
/var/folders/rt/4gvqv631095f64jvm7jfj_000000gn/T//cc1i8NTO.s:2165   .text.LCD_DrawLine:0000000000000040 .LVL214
/var/folders/rt/4gvqv631095f64jvm7jfj_000000gn/T//cc1i8NTO.s:2172   .text.LCD_DrawLine:0000000000000046 .LVL216
/var/folders/rt/4gvqv631095f64jvm7jfj_000000gn/T//cc1i8NTO.s:2269   .text.LCD_DrawLine:000000000000009e .LVL236
/var/folders/rt/4gvqv631095f64jvm7jfj_000000gn/T//cc1i8NTO.s:2129   .text.LCD_DrawLine:0000000000000024 .LVL209
/var/folders/rt/4gvqv631095f64jvm7jfj_000000gn/T//cc1i8NTO.s:2248   .text.LCD_DrawLine:0000000000000090 .LVL229
/var/folders/rt/4gvqv631095f64jvm7jfj_000000gn/T//cc1i8NTO.s:2133   .text.LCD_DrawLine:0000000000000026 .LVL210
/var/folders/rt/4gvqv631095f64jvm7jfj_000000gn/T//cc1i8NTO.s:2251   .text.LCD_DrawLine:0000000000000092 .LVL230
/var/folders/rt/4gvqv631095f64jvm7jfj_000000gn/T//cc1i8NTO.s:1975   .text.LCD_Fill:0000000000000002 .LCFI29
/var/folders/rt/4gvqv631095f64jvm7jfj_000000gn/T//cc1i8NTO.s:2026   .text.LCD_Fill:0000000000000036 .LCFI30
/var/folders/rt/4gvqv631095f64jvm7jfj_000000gn/T//cc1i8NTO.s:2031   .text.LCD_Fill:0000000000000038 .LCFI31
/var/folders/rt/4gvqv631095f64jvm7jfj_000000gn/T//cc1i8NTO.s:1970   .text.LCD_Fill:0000000000000000 .LVL189
/var/folders/rt/4gvqv631095f64jvm7jfj_000000gn/T//cc1i8NTO.s:2018   .text.LCD_Fill:0000000000000030 .LVL193
/var/folders/rt/4gvqv631095f64jvm7jfj_000000gn/T//cc1i8NTO.s:2029   .text.LCD_Fill:0000000000000038 .LVL196
/var/folders/rt/4gvqv631095f64jvm7jfj_000000gn/T//cc1i8NTO.s:2021   .text.LCD_Fill:0000000000000032 .LVL194
/var/folders/rt/4gvqv631095f64jvm7jfj_000000gn/T//cc1i8NTO.s:2015   .text.LCD_Fill:000000000000002e .LVL192
/var/folders/rt/4gvqv631095f64jvm7jfj_000000gn/T//cc1i8NTO.s:2024   .text.LCD_Fill:0000000000000034 .LVL195
/var/folders/rt/4gvqv631095f64jvm7jfj_000000gn/T//cc1i8NTO.s:2010   .text.LCD_Fill:000000000000002a .LVL191
/var/folders/rt/4gvqv631095f64jvm7jfj_000000gn/T//cc1i8NTO.s:2047   .text.LCD_Fill:000000000000004c .LVL200
/var/folders/rt/4gvqv631095f64jvm7jfj_000000gn/T//cc1i8NTO.s:2063   .text.LCD_DrawPoint_big:0000000000000000 .LVL201
/var/folders/rt/4gvqv631095f64jvm7jfj_000000gn/T//cc1i8NTO.s:2072   .text.LCD_DrawPoint_big:000000000000000e .LVL204
/var/folders/rt/4gvqv631095f64jvm7jfj_000000gn/T//cc1i8NTO.s:2070   .text.LCD_DrawPoint_big:000000000000000c .LVL203
/var/folders/rt/4gvqv631095f64jvm7jfj_000000gn/T//cc1i8NTO.s:2068   .text.LCD_DrawPoint_big:000000000000000a .LVL202
/var/folders/rt/4gvqv631095f64jvm7jfj_000000gn/T//cc1i8NTO.s:1928   .text.LCD_DrawPoint:0000000000000002 .LCFI27
/var/folders/rt/4gvqv631095f64jvm7jfj_000000gn/T//cc1i8NTO.s:1954   .text.LCD_DrawPoint:000000000000001c .LCFI28
/var/folders/rt/4gvqv631095f64jvm7jfj_000000gn/T//cc1i8NTO.s:1924   .text.LCD_DrawPoint:0000000000000000 .LVL184
/var/folders/rt/4gvqv631095f64jvm7jfj_000000gn/T//cc1i8NTO.s:1938   .text.LCD_DrawPoint:000000000000000a .LVL185
GAS LISTING /var/folders/rt/4gvqv631095f64jvm7jfj_000000gn/T//cc1i8NTO.s 			page 167


/var/folders/rt/4gvqv631095f64jvm7jfj_000000gn/T//cc1i8NTO.s:1950   .text.LCD_DrawPoint:0000000000000018 .LVL187
/var/folders/rt/4gvqv631095f64jvm7jfj_000000gn/T//cc1i8NTO.s:1791   .text.LCD_ShowChinese:0000000000000002 .LCFI24
/var/folders/rt/4gvqv631095f64jvm7jfj_000000gn/T//cc1i8NTO.s:1872   .text.LCD_ShowChinese:0000000000000066 .LCFI25
/var/folders/rt/4gvqv631095f64jvm7jfj_000000gn/T//cc1i8NTO.s:1877   .text.LCD_ShowChinese:0000000000000068 .LCFI26
/var/folders/rt/4gvqv631095f64jvm7jfj_000000gn/T//cc1i8NTO.s:1784   .text.LCD_ShowChinese:0000000000000000 .LVL166
/var/folders/rt/4gvqv631095f64jvm7jfj_000000gn/T//cc1i8NTO.s:1875   .text.LCD_ShowChinese:0000000000000068 .LVL176
/var/folders/rt/4gvqv631095f64jvm7jfj_000000gn/T//cc1i8NTO.s:1882   .text.LCD_ShowChinese:0000000000000072 .LVL177
/var/folders/rt/4gvqv631095f64jvm7jfj_000000gn/T//cc1i8NTO.s:1824   .text.LCD_ShowChinese:000000000000002e .LVL169
/var/folders/rt/4gvqv631095f64jvm7jfj_000000gn/T//cc1i8NTO.s:1822   .text.LCD_ShowChinese:000000000000002a .LVL168
/var/folders/rt/4gvqv631095f64jvm7jfj_000000gn/T//cc1i8NTO.s:1864   .text.LCD_ShowChinese:000000000000005e .LVL175
/var/folders/rt/4gvqv631095f64jvm7jfj_000000gn/T//cc1i8NTO.s:1897   .text.LCD_ShowChinese:0000000000000082 .LVL179
/var/folders/rt/4gvqv631095f64jvm7jfj_000000gn/T//cc1i8NTO.s:1900   .text.LCD_ShowChinese:0000000000000086 .LVL180
/var/folders/rt/4gvqv631095f64jvm7jfj_000000gn/T//cc1i8NTO.s:1886   .text.LCD_ShowChinese:0000000000000074 .LVL178
/var/folders/rt/4gvqv631095f64jvm7jfj_000000gn/T//cc1i8NTO.s:1903   .text.LCD_ShowChinese:0000000000000088 .LVL181
/var/folders/rt/4gvqv631095f64jvm7jfj_000000gn/T//cc1i8NTO.s:1847   .text.LCD_ShowChinese:0000000000000050 .LVL173
/var/folders/rt/4gvqv631095f64jvm7jfj_000000gn/T//cc1i8NTO.s:1819   .text.LCD_ShowChinese:0000000000000026 .LVL167
/var/folders/rt/4gvqv631095f64jvm7jfj_000000gn/T//cc1i8NTO.s:1861   .text.LCD_ShowChinese:000000000000005c .LVL174
/var/folders/rt/4gvqv631095f64jvm7jfj_000000gn/T//cc1i8NTO.s:1839   .text.LCD_ShowChinese:0000000000000046 .LVL171
/var/folders/rt/4gvqv631095f64jvm7jfj_000000gn/T//cc1i8NTO.s:1843   .text.LCD_ShowChinese:000000000000004a .LVL172
/var/folders/rt/4gvqv631095f64jvm7jfj_000000gn/T//cc1i8NTO.s:1715   .text.LCD_Clear:0000000000000002 .LCFI22
/var/folders/rt/4gvqv631095f64jvm7jfj_000000gn/T//cc1i8NTO.s:1770   .text.LCD_Clear:0000000000000044 .LCFI23
/var/folders/rt/4gvqv631095f64jvm7jfj_000000gn/T//cc1i8NTO.s:1710   .text.LCD_Clear:0000000000000000 .LVL156
/var/folders/rt/4gvqv631095f64jvm7jfj_000000gn/T//cc1i8NTO.s:1727   .text.LCD_Clear:0000000000000012 .LVL157
/var/folders/rt/4gvqv631095f64jvm7jfj_000000gn/T//cc1i8NTO.s:1768   .text.LCD_Clear:0000000000000042 .LVL165
/var/folders/rt/4gvqv631095f64jvm7jfj_000000gn/T//cc1i8NTO.s:1753   .text.LCD_Clear:0000000000000036 .LVL162
/var/folders/rt/4gvqv631095f64jvm7jfj_000000gn/T//cc1i8NTO.s:1755   .text.LCD_Clear:0000000000000038 .LVL163
/var/folders/rt/4gvqv631095f64jvm7jfj_000000gn/T//cc1i8NTO.s:1765   .text.LCD_Clear:0000000000000040 .LVL164
/var/folders/rt/4gvqv631095f64jvm7jfj_000000gn/T//cc1i8NTO.s:1743   .text.LCD_Clear:0000000000000028 .LVL159
/var/folders/rt/4gvqv631095f64jvm7jfj_000000gn/T//cc1i8NTO.s:1748   .text.LCD_Clear:000000000000002c .LVL160
/var/folders/rt/4gvqv631095f64jvm7jfj_000000gn/T//cc1i8NTO.s:908    .text.Lcd_Init:000000000000000a .LCFI20
/var/folders/rt/4gvqv631095f64jvm7jfj_000000gn/T//cc1i8NTO.s:1690   .text.Lcd_Init:000000000000045c .LCFI21
/var/folders/rt/4gvqv631095f64jvm7jfj_000000gn/T//cc1i8NTO.s:1012   .text.Lcd_Init:00000000000000e6 .LVL80
/var/folders/rt/4gvqv631095f64jvm7jfj_000000gn/T//cc1i8NTO.s:1017   .text.Lcd_Init:00000000000000ea .LVL81
/var/folders/rt/4gvqv631095f64jvm7jfj_000000gn/T//cc1i8NTO.s:773    .text.spi_config:0000000000000002 .LCFI18
/var/folders/rt/4gvqv631095f64jvm7jfj_000000gn/T//cc1i8NTO.s:835    .text.spi_config:000000000000005c .LCFI19
/var/folders/rt/4gvqv631095f64jvm7jfj_000000gn/T//cc1i8NTO.s:641    .text.LCD_Address_Set:0000000000000002 .LCFI16
/var/folders/rt/4gvqv631095f64jvm7jfj_000000gn/T//cc1i8NTO.s:748    .text.LCD_Address_Set:0000000000000080 .LCFI17
/var/folders/rt/4gvqv631095f64jvm7jfj_000000gn/T//cc1i8NTO.s:637    .text.LCD_Address_Set:0000000000000000 .LVL45
/var/folders/rt/4gvqv631095f64jvm7jfj_000000gn/T//cc1i8NTO.s:659    .text.LCD_Address_Set:0000000000000016 .LVL46
/var/folders/rt/4gvqv631095f64jvm7jfj_000000gn/T//cc1i8NTO.s:739    .text.LCD_Address_Set:000000000000007a .LVL54
/var/folders/rt/4gvqv631095f64jvm7jfj_000000gn/T//cc1i8NTO.s:750    .text.LCD_Address_Set:0000000000000080 .LVL55
/var/folders/rt/4gvqv631095f64jvm7jfj_000000gn/T//cc1i8NTO.s:670    .text.LCD_Address_Set:000000000000001e .LVL47
/var/folders/rt/4gvqv631095f64jvm7jfj_000000gn/T//cc1i8NTO.s:577    .text.LCD_WR_DATA:0000000000000002 .LCFI14
/var/folders/rt/4gvqv631095f64jvm7jfj_000000gn/T//cc1i8NTO.s:606    .text.LCD_WR_DATA:0000000000000024 .LCFI15
/var/folders/rt/4gvqv631095f64jvm7jfj_000000gn/T//cc1i8NTO.s:573    .text.LCD_WR_DATA:0000000000000000 .LVL38
/var/folders/rt/4gvqv631095f64jvm7jfj_000000gn/T//cc1i8NTO.s:584    .text.LCD_WR_DATA:0000000000000008 .LVL39
/var/folders/rt/4gvqv631095f64jvm7jfj_000000gn/T//cc1i8NTO.s:599    .text.LCD_WR_DATA:000000000000001c .LVL41
/var/folders/rt/4gvqv631095f64jvm7jfj_000000gn/T//cc1i8NTO.s:464    .text.LCD_Writ_Bus:0000000000000002 .LCFI12
/var/folders/rt/4gvqv631095f64jvm7jfj_000000gn/T//cc1i8NTO.s:540    .text.LCD_Writ_Bus:0000000000000070 .LCFI13
/var/folders/rt/4gvqv631095f64jvm7jfj_000000gn/T//cc1i8NTO.s:460    .text.LCD_Writ_Bus:0000000000000000 .LVL27
/var/folders/rt/4gvqv631095f64jvm7jfj_000000gn/T//cc1i8NTO.s:478    .text.LCD_Writ_Bus:0000000000000012 .LVL28
/var/folders/rt/4gvqv631095f64jvm7jfj_000000gn/T//cc1i8NTO.s:385    .text.LCD_Write_Bus:0000000000000002 .LCFI9
/var/folders/rt/4gvqv631095f64jvm7jfj_000000gn/T//cc1i8NTO.s:437    .text.LCD_Write_Bus:0000000000000048 .LCFI10
/var/folders/rt/4gvqv631095f64jvm7jfj_000000gn/T//cc1i8NTO.s:441    .text.LCD_Write_Bus:000000000000004a .LCFI11
/var/folders/rt/4gvqv631095f64jvm7jfj_000000gn/T//cc1i8NTO.s:381    .text.LCD_Write_Bus:0000000000000000 .LVL24
/var/folders/rt/4gvqv631095f64jvm7jfj_000000gn/T//cc1i8NTO.s:401    .text.LCD_Write_Bus:0000000000000016 .LVL25
/var/folders/rt/4gvqv631095f64jvm7jfj_000000gn/T//cc1i8NTO.s:314    .text.LCD_Wait_On_Queue:0000000000000002 .LCFI6
GAS LISTING /var/folders/rt/4gvqv631095f64jvm7jfj_000000gn/T//cc1i8NTO.s 			page 168


/var/folders/rt/4gvqv631095f64jvm7jfj_000000gn/T//cc1i8NTO.s:339    .text.LCD_Wait_On_Queue:0000000000000024 .LCFI7
/var/folders/rt/4gvqv631095f64jvm7jfj_000000gn/T//cc1i8NTO.s:343    .text.LCD_Wait_On_Queue:0000000000000026 .LCFI8
/var/folders/rt/4gvqv631095f64jvm7jfj_000000gn/T//cc1i8NTO.s:28     .text.lcd_delay_1ms:0000000000000002 .LCFI0
/var/folders/rt/4gvqv631095f64jvm7jfj_000000gn/T//cc1i8NTO.s:156    .text.lcd_delay_1ms:00000000000000cc .LCFI1
/var/folders/rt/4gvqv631095f64jvm7jfj_000000gn/T//cc1i8NTO.s:23     .text.lcd_delay_1ms:0000000000000000 .LVL0
/var/folders/rt/4gvqv631095f64jvm7jfj_000000gn/T//cc1i8NTO.s:148    .text.lcd_delay_1ms:00000000000000c4 .LVL16
/var/folders/rt/4gvqv631095f64jvm7jfj_000000gn/T//cc1i8NTO.s:68     .text.lcd_delay_1ms:0000000000000032 .LVL4
/var/folders/rt/4gvqv631095f64jvm7jfj_000000gn/T//cc1i8NTO.s:135    .text.lcd_delay_1ms:00000000000000b8 .LVL15
/var/folders/rt/4gvqv631095f64jvm7jfj_000000gn/T//cc1i8NTO.s:59     .text.lcd_delay_1ms:0000000000000026 .LVL2
/var/folders/rt/4gvqv631095f64jvm7jfj_000000gn/T//cc1i8NTO.s:76     .text.lcd_delay_1ms:0000000000000042 .LVL5
/var/folders/rt/4gvqv631095f64jvm7jfj_000000gn/T//cc1i8NTO.s:173    .text.LCD_WR_Queue:0000000000000002 .LCFI2
/var/folders/rt/4gvqv631095f64jvm7jfj_000000gn/T//cc1i8NTO.s:265    .text.LCD_WR_Queue:00000000000000a0 .LCFI3
/var/folders/rt/4gvqv631095f64jvm7jfj_000000gn/T//cc1i8NTO.s:269    .text.LCD_WR_Queue:00000000000000a2 .LCFI4
/var/folders/rt/4gvqv631095f64jvm7jfj_000000gn/T//cc1i8NTO.s:295    .text.LCD_WR_Queue:00000000000000ba .LCFI5
/var/folders/rt/4gvqv631095f64jvm7jfj_000000gn/T//cc1i8NTO.s:556    .text.LCD_WR_DATA8:0000000000000000 .LVL35
/var/folders/rt/4gvqv631095f64jvm7jfj_000000gn/T//cc1i8NTO.s:559    .text.LCD_WR_DATA8:0000000000000004 .LVL36
/var/folders/rt/4gvqv631095f64jvm7jfj_000000gn/T//cc1i8NTO.s:622    .text.LCD_WR_REG:0000000000000000 .LVL43
/var/folders/rt/4gvqv631095f64jvm7jfj_000000gn/T//cc1i8NTO.s:2569   .text.LCD_ShowChar:000000000000000a .LCFI38
/var/folders/rt/4gvqv631095f64jvm7jfj_000000gn/T//cc1i8NTO.s:2693   .text.LCD_ShowChar:00000000000000a2 .LCFI39
/var/folders/rt/4gvqv631095f64jvm7jfj_000000gn/T//cc1i8NTO.s:2698   .text.LCD_ShowChar:00000000000000a4 .LCFI40
/var/folders/rt/4gvqv631095f64jvm7jfj_000000gn/T//cc1i8NTO.s:2743   .text.LCD_ShowChar:00000000000000dc .LCFI41
/var/folders/rt/4gvqv631095f64jvm7jfj_000000gn/T//cc1i8NTO.s:2559   .text.LCD_ShowChar:0000000000000000 .LVL268
/var/folders/rt/4gvqv631095f64jvm7jfj_000000gn/T//cc1i8NTO.s:2619   .text.LCD_ShowChar:0000000000000056 .LVL273
/var/folders/rt/4gvqv631095f64jvm7jfj_000000gn/T//cc1i8NTO.s:2696   .text.LCD_ShowChar:00000000000000a4 .LVL285
/var/folders/rt/4gvqv631095f64jvm7jfj_000000gn/T//cc1i8NTO.s:2741   .text.LCD_ShowChar:00000000000000dc .LVL292
/var/folders/rt/4gvqv631095f64jvm7jfj_000000gn/T//cc1i8NTO.s:2624   .text.LCD_ShowChar:000000000000005c .LVL274
/var/folders/rt/4gvqv631095f64jvm7jfj_000000gn/T//cc1i8NTO.s:2706   .text.LCD_ShowChar:00000000000000ac .LVL286
/var/folders/rt/4gvqv631095f64jvm7jfj_000000gn/T//cc1i8NTO.s:2602   .text.LCD_ShowChar:0000000000000034 .LVL269
/var/folders/rt/4gvqv631095f64jvm7jfj_000000gn/T//cc1i8NTO.s:2604   .text.LCD_ShowChar:0000000000000038 .LVL270
/var/folders/rt/4gvqv631095f64jvm7jfj_000000gn/T//cc1i8NTO.s:2644   .text.LCD_ShowChar:0000000000000070 .LVL277
/var/folders/rt/4gvqv631095f64jvm7jfj_000000gn/T//cc1i8NTO.s:2647   .text.LCD_ShowChar:0000000000000074 .LVL278
/var/folders/rt/4gvqv631095f64jvm7jfj_000000gn/T//cc1i8NTO.s:2668   .text.LCD_ShowChar:000000000000008e .LVL284
/var/folders/rt/4gvqv631095f64jvm7jfj_000000gn/T//cc1i8NTO.s:2609   .text.LCD_ShowChar:0000000000000044 .LVL271
/var/folders/rt/4gvqv631095f64jvm7jfj_000000gn/T//cc1i8NTO.s:2631   .text.LCD_ShowChar:0000000000000066 .LVL275
/var/folders/rt/4gvqv631095f64jvm7jfj_000000gn/T//cc1i8NTO.s:2662   .text.LCD_ShowChar:0000000000000088 .LVL282
/var/folders/rt/4gvqv631095f64jvm7jfj_000000gn/T//cc1i8NTO.s:2711   .text.LCD_ShowChar:00000000000000b0 .LVL287
/var/folders/rt/4gvqv631095f64jvm7jfj_000000gn/T//cc1i8NTO.s:2665   .text.LCD_ShowChar:000000000000008a .LVL283
/var/folders/rt/4gvqv631095f64jvm7jfj_000000gn/T//cc1i8NTO.s:2635   .text.LCD_ShowChar:0000000000000068 .LVL276
/var/folders/rt/4gvqv631095f64jvm7jfj_000000gn/T//cc1i8NTO.s:2650   .text.LCD_ShowChar:0000000000000076 .LVL279
/var/folders/rt/4gvqv631095f64jvm7jfj_000000gn/T//cc1i8NTO.s:2715   .text.LCD_ShowChar:00000000000000b2 .LVL288
/var/folders/rt/4gvqv631095f64jvm7jfj_000000gn/T//cc1i8NTO.s:2730   .text.LCD_ShowChar:00000000000000ca .LVL290
/var/folders/rt/4gvqv631095f64jvm7jfj_000000gn/T//cc1i8NTO.s:3007   .text.mypow:0000000000000000 .LVL322
/var/folders/rt/4gvqv631095f64jvm7jfj_000000gn/T//cc1i8NTO.s:3026   .text.mypow:0000000000000012 .LVL326
/var/folders/rt/4gvqv631095f64jvm7jfj_000000gn/T//cc1i8NTO.s:3028   .text.mypow:0000000000000014 .LVL327
/var/folders/rt/4gvqv631095f64jvm7jfj_000000gn/T//cc1i8NTO.s:3018   .text.mypow:0000000000000008 .LVL324
/var/folders/rt/4gvqv631095f64jvm7jfj_000000gn/T//cc1i8NTO.s:3020   .text.mypow:000000000000000c .LVL325
/var/folders/rt/4gvqv631095f64jvm7jfj_000000gn/T//cc1i8NTO.s:3014   .text.mypow:0000000000000006 .LVL323
/var/folders/rt/4gvqv631095f64jvm7jfj_000000gn/T//cc1i8NTO.s:5976   .debug_info:0000000000000000 .Ldebug_info0
/var/folders/rt/4gvqv631095f64jvm7jfj_000000gn/T//cc1i8NTO.s:255    .text.LCD_WR_Queue:0000000000000098 .LBE168
/var/folders/rt/4gvqv631095f64jvm7jfj_000000gn/T//cc1i8NTO.s:271    .text.LCD_WR_Queue:00000000000000a2 .LBB171
/var/folders/rt/4gvqv631095f64jvm7jfj_000000gn/T//cc1i8NTO.s:279    .text.LCD_WR_Queue:00000000000000ac .LBE171
/var/folders/rt/4gvqv631095f64jvm7jfj_000000gn/T//cc1i8NTO.s:661    .text.LCD_Address_Set:0000000000000016 .LBE172
/var/folders/rt/4gvqv631095f64jvm7jfj_000000gn/T//cc1i8NTO.s:671    .text.LCD_Address_Set:000000000000001e .LBB176
/var/folders/rt/4gvqv631095f64jvm7jfj_000000gn/T//cc1i8NTO.s:675    .text.LCD_Address_Set:000000000000001e .LBE176
/var/folders/rt/4gvqv631095f64jvm7jfj_000000gn/T//cc1i8NTO.s:679    .text.LCD_Address_Set:0000000000000022 .LBB177
/var/folders/rt/4gvqv631095f64jvm7jfj_000000gn/T//cc1i8NTO.s:685    .text.LCD_Address_Set:000000000000002a .LBE177
/var/folders/rt/4gvqv631095f64jvm7jfj_000000gn/T//cc1i8NTO.s:731    .text.LCD_Address_Set:0000000000000074 .LBE180
GAS LISTING /var/folders/rt/4gvqv631095f64jvm7jfj_000000gn/T//cc1i8NTO.s 			page 169


/var/folders/rt/4gvqv631095f64jvm7jfj_000000gn/T//cc1i8NTO.s:740    .text.LCD_Address_Set:000000000000007a .LBB184
/var/folders/rt/4gvqv631095f64jvm7jfj_000000gn/T//cc1i8NTO.s:745    .text.LCD_Address_Set:000000000000007e .LBE184
/var/folders/rt/4gvqv631095f64jvm7jfj_000000gn/T//cc1i8NTO.s:751    .text.LCD_Address_Set:0000000000000080 .LBB185
/var/folders/rt/4gvqv631095f64jvm7jfj_000000gn/T//cc1i8NTO.s:757    .text.LCD_Address_Set:0000000000000088 .LBE185
/var/folders/rt/4gvqv631095f64jvm7jfj_000000gn/T//cc1i8NTO.s:868    .text.Lcd_SetType:0000000000000010 .LBE188
/var/folders/rt/4gvqv631095f64jvm7jfj_000000gn/T//cc1i8NTO.s:877    .text.Lcd_SetType:0000000000000018 .LBB191
/var/folders/rt/4gvqv631095f64jvm7jfj_000000gn/T//cc1i8NTO.s:889    .text.Lcd_SetType:0000000000000026 .LBE191
/var/folders/rt/4gvqv631095f64jvm7jfj_000000gn/T//cc1i8NTO.s:1676   .text.Lcd_Init:0000000000000452 .LBE344
/var/folders/rt/4gvqv631095f64jvm7jfj_000000gn/T//cc1i8NTO.s:1682   .text.Lcd_Init:0000000000000456 .LBB348
/var/folders/rt/4gvqv631095f64jvm7jfj_000000gn/T//cc1i8NTO.s:1687   .text.Lcd_Init:000000000000045a .LBE348
/var/folders/rt/4gvqv631095f64jvm7jfj_000000gn/T//cc1i8NTO.s:1692   .text.Lcd_Init:000000000000045c .LBB349
/var/folders/rt/4gvqv631095f64jvm7jfj_000000gn/T//cc1i8NTO.s:1698   .text.Lcd_Init:0000000000000464 .LBE349
/var/folders/rt/4gvqv631095f64jvm7jfj_000000gn/T//cc1i8NTO.s:2671   .text.LCD_ShowChar:000000000000008e .LBE352
/var/folders/rt/4gvqv631095f64jvm7jfj_000000gn/T//cc1i8NTO.s:2702   .text.LCD_ShowChar:00000000000000aa .LBB355
/var/folders/rt/4gvqv631095f64jvm7jfj_000000gn/T//cc1i8NTO.s:2756   .text.LCD_ShowChar:00000000000000de .LBE355
/var/folders/rt/4gvqv631095f64jvm7jfj_000000gn/T//cc1i8NTO.s:3096   .text.LCD_ShowNum:0000000000000032 .LBE356
/var/folders/rt/4gvqv631095f64jvm7jfj_000000gn/T//cc1i8NTO.s:3137   .text.LCD_ShowNum:0000000000000050 .LBB360
/var/folders/rt/4gvqv631095f64jvm7jfj_000000gn/T//cc1i8NTO.s:3156   .text.LCD_ShowNum:0000000000000064 .LBE360
/var/folders/rt/4gvqv631095f64jvm7jfj_000000gn/T//cc1i8NTO.s:3190   .text.LCD_ShowNum:0000000000000098 .LBB361
/var/folders/rt/4gvqv631095f64jvm7jfj_000000gn/T//cc1i8NTO.s:3198   .text.LCD_ShowNum:000000000000009c .LBE361
/var/folders/rt/4gvqv631095f64jvm7jfj_000000gn/T//cc1i8NTO.s:3284   .text.LCD_ShowNum1:0000000000000042 .LBE362
/var/folders/rt/4gvqv631095f64jvm7jfj_000000gn/T//cc1i8NTO.s:3329   .text.LCD_ShowNum1:000000000000006a .LBB366
/var/folders/rt/4gvqv631095f64jvm7jfj_000000gn/T//cc1i8NTO.s:3347   .text.LCD_ShowNum1:0000000000000076 .LBE366
/var/folders/rt/4gvqv631095f64jvm7jfj_000000gn/T//cc1i8NTO.s:3401   .text.LCD_ShowNum1:00000000000000c6 .LBB367
/var/folders/rt/4gvqv631095f64jvm7jfj_000000gn/T//cc1i8NTO.s:3409   .text.LCD_ShowNum1:00000000000000cc .LBE367

UNDEFINED SYMBOLS
__floatundidf
__floatunsidf
__divdf3
__muldf3
__ltdf2
get_timer_value
SystemCoreClock
spi_i2s_flag_get
gpio_bit_reset
gpio_bit_set
spi_i2s_data_transmit
spi_i2s_data_receive
spi_struct_para_init
spi_init
spi_enable
rcu_periph_clock_enable
gpio_init
__mulsf3
__fixunssfsi
