GAS LISTING /var/folders/rt/4gvqv631095f64jvm7jfj_000000gn/T//ccNJlW0i.s 			page 1


   1              		.file	"main.c"
   2              		.option nopic
   3              		.attribute arch, "rv32i2p0_m2p0_a2p0_c2p0"
   4              		.attribute unaligned_access, 0
   5              		.attribute stack_align, 16
   6              		.text
   7              	.Ltext0:
   8              		.cfi_sections	.debug_frame
   9              		.section	.text.renderAllPlants,"ax",@progbits
  10              		.align	1
  11              		.globl	renderAllPlants
  13              	renderAllPlants:
  14              	.LFB6:
  15              		.file 1 "main.c"
   1:main.c        **** #include "gd32vf103.h"
   2:main.c        **** #include "drivers.h"
   3:main.c        **** #include "adc.h"
   4:main.c        **** #include "lcd.h"
   5:main.c        **** #include "plant.h"
   6:main.c        **** #include "utilities.h"
   7:main.c        **** #include "usart.h"
   8:main.c        **** #include <string.h>
   9:main.c        **** #include <stdio.h>
  10:main.c        **** #define STR_COPY(dest, src) \
  11:main.c        ****   snprintf(dest, sizeof(dest), "%s", src) // AI. STR_COPY Ă¤r en genvĂ¤g fĂ¶r snprintf som i sin tu
  12:main.c        **** 
  13:main.c        **** #define EI 1
  14:main.c        **** #define DI 0
  15:main.c        **** 
  16:main.c        **** void renderAllPlants(Plant allPlants[], int numberOfPlants)
  17:main.c        **** {
  16              		.loc 1 17 1
  17              		.cfi_startproc
  18              	.LVL0:
  18:main.c        ****   for (int i = 0; i < numberOfPlants; i++)
  19              		.loc 1 18 3
  20              	.LBB2:
  21              		.loc 1 18 8
  22              	.LBE2:
  17:main.c        ****   for (int i = 0; i < numberOfPlants; i++)
  23              		.loc 1 17 1 is_stmt 0
  24 0000 7971     		addi	sp,sp,-48
  25              	.LCFI0:
  26              		.cfi_def_cfa_offset 48
  27 0002 26D2     		sw	s1,36(sp)
  28              		.cfi_offset 9, -12
  29              	.LBB3:
  19:main.c        ****   {
  20:main.c        ****     LCD_ShowStr(i * 55, 0, allPlants[i].name, WHITE, TRANSPARENT);
  30              		.loc 1 20 5
  31 0004 C164     		li	s1,65536
  32              	.LBE3:
  17:main.c        ****   for (int i = 0; i < numberOfPlants; i++)
  33              		.loc 1 17 1
  34 0006 22D4     		sw	s0,40(sp)
  35 0008 4ECE     		sw	s3,28(sp)
  36 000a 52CC     		sw	s4,24(sp)
GAS LISTING /var/folders/rt/4gvqv631095f64jvm7jfj_000000gn/T//ccNJlW0i.s 			page 2


  37 000c 5AC8     		sw	s6,16(sp)
  38 000e 5EC6     		sw	s7,12(sp)
  39 0010 06D6     		sw	ra,44(sp)
  40 0012 4AD0     		sw	s2,32(sp)
  41 0014 56CA     		sw	s5,20(sp)
  42              		.cfi_offset 8, -8
  43              		.cfi_offset 19, -20
  44              		.cfi_offset 20, -24
  45              		.cfi_offset 22, -32
  46              		.cfi_offset 23, -36
  47              		.cfi_offset 1, -4
  48              		.cfi_offset 18, -16
  49              		.cfi_offset 21, -28
  17:main.c        ****   for (int i = 0; i < numberOfPlants; i++)
  50              		.loc 1 17 1
  51 0016 2E8B     		mv	s6,a1
  52 0018 2A84     		mv	s0,a0
  53              	.LBB4:
  18:main.c        ****   {
  54              		.loc 1 18 12
  55 001a 8149     		li	s3,0
  56 001c 930B7003 		li	s7,55
  57              		.loc 1 20 5
  58 0020 FD14     		addi	s1,s1,-1
  21:main.c        ****     LCD_ShowNum(i * 55, 20, allPlants[i].moisture[allPlants[i].numberOfMoistureReadings-1].reading,
  22:main.c        ****     LCD_ShowStr(i * 55 + 30, 20, "%", WHITE, TRANSPARENT);
  59              		.loc 1 22 5
  60 0022 370A0000 		lui	s4,%hi(.LC0)
  61              	.LVL1:
  62              	.L2:
  18:main.c        ****   {
  63              		.loc 1 18 3 discriminator 1
  64 0026 63CD6901 		blt	s3,s6,.L3
  65              	.LBE4:
  23:main.c        ****     LCD_ShowNum(i * 55, 40, allPlants[i].sun[allPlants[i].numberOfSunReadings-1].reading, 3, WHITE)
  24:main.c        ****     LCD_ShowStr(i * 55 + 30, 40, "%", WHITE, TRANSPARENT);
  25:main.c        ****     LCD_ShowStr(i * 55, 60, allPlants[i].currentStatus, GBLUE, TRANSPARENT);
  26:main.c        ****   }
  27:main.c        **** }
  66              		.loc 1 27 1
  67 002a B250     		lw	ra,44(sp)
  68              		.cfi_remember_state
  69              		.cfi_restore 1
  70 002c 2254     		lw	s0,40(sp)
  71              		.cfi_restore 8
  72 002e 9254     		lw	s1,36(sp)
  73              		.cfi_restore 9
  74 0030 0259     		lw	s2,32(sp)
  75              		.cfi_restore 18
  76 0032 F249     		lw	s3,28(sp)
  77              		.cfi_restore 19
  78              	.LVL2:
  79 0034 624A     		lw	s4,24(sp)
  80              		.cfi_restore 20
  81 0036 D24A     		lw	s5,20(sp)
  82              		.cfi_restore 21
  83 0038 424B     		lw	s6,16(sp)
GAS LISTING /var/folders/rt/4gvqv631095f64jvm7jfj_000000gn/T//ccNJlW0i.s 			page 3


  84              		.cfi_restore 22
  85              	.LVL3:
  86 003a B24B     		lw	s7,12(sp)
  87              		.cfi_restore 23
  88 003c 4561     		addi	sp,sp,48
  89              	.LCFI1:
  90              		.cfi_def_cfa_offset 0
  91 003e 8280     		jr	ra
  92              	.LVL4:
  93              	.L3:
  94              	.LCFI2:
  95              		.cfi_restore_state
  96              	.LBB5:
  20:main.c        ****     LCD_ShowNum(i * 55, 20, allPlants[i].moisture[allPlants[i].numberOfMoistureReadings-1].reading,
  97              		.loc 1 20 5 is_stmt 1 discriminator 3
  98 0040 33897903 		mul	s2,s3,s7
  99 0044 2286     		mv	a2,s0
 100 0046 0547     		li	a4,1
 101 0048 A686     		mv	a3,s1
 102 004a 8145     		li	a1,0
  18:main.c        ****   {
 103              		.loc 1 18 40 is_stmt 0 discriminator 3
 104 004c 8509     		addi	s3,s3,1
 105              	.LVL5:
  20:main.c        ****     LCD_ShowNum(i * 55, 20, allPlants[i].moisture[allPlants[i].numberOfMoistureReadings-1].reading,
 106              		.loc 1 20 5 discriminator 3
 107 004e 4A85     		mv	a0,s2
 108 0050 97000000 		call	LCD_ShowStr
 108      E7800000 
 109              	.LVL6:
  21:main.c        ****     LCD_ShowStr(i * 55 + 30, 20, "%", WHITE, TRANSPARENT);
 110              		.loc 1 21 5 is_stmt 1 discriminator 3
  21:main.c        ****     LCD_ShowStr(i * 55 + 30, 20, "%", WHITE, TRANSPARENT);
 111              		.loc 1 21 91 is_stmt 0 discriminator 3
 112 0058 83278461 		lw	a5,1560(s0)
  21:main.c        ****     LCD_ShowStr(i * 55 + 30, 20, "%", WHITE, TRANSPARENT);
 113              		.loc 1 21 5 discriminator 3
 114 005c 2687     		mv	a4,s1
 115 005e 8D46     		li	a3,3
  21:main.c        ****     LCD_ShowStr(i * 55 + 30, 20, "%", WHITE, TRANSPARENT);
 116              		.loc 1 21 91 discriminator 3
 117 0060 9207     		slli	a5,a5,4
 118 0062 A297     		add	a5,s0,a5
  21:main.c        ****     LCD_ShowStr(i * 55 + 30, 20, "%", WHITE, TRANSPARENT);
 119              		.loc 1 21 5 discriminator 3
 120 0064 904B     		lw	a2,16(a5)
 121 0066 D145     		li	a1,20
 122 0068 4A85     		mv	a0,s2
 123 006a 97000000 		call	LCD_ShowNum
 123      E7800000 
 124              	.LVL7:
  22:main.c        ****     LCD_ShowNum(i * 55, 40, allPlants[i].sun[allPlants[i].numberOfSunReadings-1].reading, 3, WHITE)
 125              		.loc 1 22 5 is_stmt 1 discriminator 3
 126 0072 930AE901 		addi	s5,s2,30
 127 0076 0547     		li	a4,1
 128 0078 A686     		mv	a3,s1
 129 007a 13060A00 		addi	a2,s4,%lo(.LC0)
GAS LISTING /var/folders/rt/4gvqv631095f64jvm7jfj_000000gn/T//ccNJlW0i.s 			page 4


 130 007e D145     		li	a1,20
 131 0080 5685     		mv	a0,s5
 132 0082 97000000 		call	LCD_ShowStr
 132      E7800000 
 133              	.LVL8:
  23:main.c        ****     LCD_ShowStr(i * 55 + 30, 40, "%", WHITE, TRANSPARENT);
 134              		.loc 1 23 5 discriminator 3
  23:main.c        ****     LCD_ShowStr(i * 55 + 30, 40, "%", WHITE, TRANSPARENT);
 135              		.loc 1 23 81 is_stmt 0 discriminator 3
 136 008a 83274461 		lw	a5,1556(s0)
  23:main.c        ****     LCD_ShowStr(i * 55 + 30, 40, "%", WHITE, TRANSPARENT);
 137              		.loc 1 23 5 discriminator 3
 138 008e 2687     		mv	a4,s1
 139 0090 8D46     		li	a3,3
  23:main.c        ****     LCD_ShowStr(i * 55 + 30, 40, "%", WHITE, TRANSPARENT);
 140              		.loc 1 23 81 discriminator 3
 141 0092 93870703 		addi	a5,a5,48
 142 0096 9207     		slli	a5,a5,4
 143 0098 A297     		add	a5,s0,a5
  23:main.c        ****     LCD_ShowStr(i * 55 + 30, 40, "%", WHITE, TRANSPARENT);
 144              		.loc 1 23 5 discriminator 3
 145 009a 904B     		lw	a2,16(a5)
 146 009c 93058002 		li	a1,40
 147 00a0 4A85     		mv	a0,s2
 148 00a2 97000000 		call	LCD_ShowNum
 148      E7800000 
 149              	.LVL9:
  24:main.c        ****     LCD_ShowStr(i * 55, 60, allPlants[i].currentStatus, GBLUE, TRANSPARENT);
 150              		.loc 1 24 5 is_stmt 1 discriminator 3
 151 00aa 0547     		li	a4,1
 152 00ac A686     		mv	a3,s1
 153 00ae 13060A00 		addi	a2,s4,%lo(.LC0)
 154 00b2 93058002 		li	a1,40
 155 00b6 5685     		mv	a0,s5
 156 00b8 97000000 		call	LCD_ShowStr
 156      E7800000 
 157              	.LVL10:
  25:main.c        ****   }
 158              		.loc 1 25 5 discriminator 3
 159 00c0 1306A400 		addi	a2,s0,10
 160 00c4 0547     		li	a4,1
 161 00c6 9306F07F 		li	a3,2047
 162 00ca 9305C003 		li	a1,60
 163 00ce 4A85     		mv	a0,s2
 164 00d0 97000000 		call	LCD_ShowStr
 164      E7800000 
 165              	.LVL11:
 166 00d8 1304C461 		addi	s0,s0,1564
 167 00dc A9B7     		j	.L2
 168              	.LBE5:
 169              		.cfi_endproc
 170              	.LFE6:
 172              		.section	.text.renderOnePlant,"ax",@progbits
 173              		.align	1
 174              		.globl	renderOnePlant
 176              	renderOnePlant:
 177              	.LFB7:
GAS LISTING /var/folders/rt/4gvqv631095f64jvm7jfj_000000gn/T//ccNJlW0i.s 			page 5


  28:main.c        **** 
  29:main.c        **** void renderOnePlant(Plant allPlants[], int numberOfPlants, char name[])
  30:main.c        **** {
 178              		.loc 1 30 1
 179              		.cfi_startproc
 180              	.LVL12:
  31:main.c        ****   for (int i = 0; i < numberOfPlants; i++)
 181              		.loc 1 31 3
 182              	.LBB6:
 183              		.loc 1 31 8
 184              	.LBE6:
  30:main.c        ****   for (int i = 0; i < numberOfPlants; i++)
 185              		.loc 1 30 1 is_stmt 0
 186 0000 7971     		addi	sp,sp,-48
 187              	.LCFI3:
 188              		.cfi_def_cfa_offset 48
 189 0002 26D2     		sw	s1,36(sp)
 190 0004 4AD0     		sw	s2,32(sp)
 191 0006 4ECE     		sw	s3,28(sp)
 192 0008 06D6     		sw	ra,44(sp)
 193 000a 22D4     		sw	s0,40(sp)
 194              		.cfi_offset 9, -12
 195              		.cfi_offset 18, -16
 196              		.cfi_offset 19, -20
 197              		.cfi_offset 1, -4
 198              		.cfi_offset 8, -8
  30:main.c        ****   for (int i = 0; i < numberOfPlants; i++)
 199              		.loc 1 30 1
 200 000c AE89     		mv	s3,a1
 201 000e AA84     		mv	s1,a0
 202              	.LBB7:
 203              		.loc 1 31 12
 204 0010 0149     		li	s2,0
 205              	.LVL13:
 206              	.L6:
 207              		.loc 1 31 3 discriminator 1
 208 0012 634E3901 		blt	s2,s3,.L8
 209              	.LBE7:
  32:main.c        ****   {
  33:main.c        ****     if (strcmp(allPlants[i].name, name) == 0)
  34:main.c        ****     {
  35:main.c        ****       LCD_ShowStr(0, 0, allPlants[i].name, WHITE, TRANSPARENT);
  36:main.c        ****       LCD_ShowNum(0, 20, allPlants[i].moisture[allPlants[i].numberOfMoistureReadings - 1].reading, 
  37:main.c        ****       LCD_ShowStr(0 + 30, 20, "%", WHITE, TRANSPARENT);
  38:main.c        ****       LCD_ShowStr(50, 20, allPlants[i].moisture[allPlants[i].numberOfMoistureReadings - 1].timeStam
  39:main.c        ****       LCD_ShowNum(0, 40, allPlants[i].sun[allPlants[i].numberOfSunReadings - 1].reading, 3, WHITE);
  40:main.c        ****       LCD_ShowStr(0 + 30, 40, "%", WHITE, TRANSPARENT);
  41:main.c        ****       LCD_Fill(50, 40, 160, 53, BLACK); // Black out old reading before writing new
  42:main.c        ****       LCD_ShowStr(50, 40, allPlants[i].sun[allPlants[i].numberOfSunReadings - 1].timeStamp, WHITE, 
  43:main.c        ****       LCD_ShowStr(0, 60, allPlants[i].currentStatus, GBLUE, TRANSPARENT);
  44:main.c        ****       return;
  45:main.c        ****     }
  46:main.c        ****   }
  47:main.c        ****   LCD_ShowStr(50, 4, "NO SUCH PLANT", RED, TRANSPARENT);
 210              		.loc 1 47 3 is_stmt 1
 211 0016 C166     		li	a3,65536
 212 0018 37060000 		lui	a2,%hi(.LC1)
GAS LISTING /var/folders/rt/4gvqv631095f64jvm7jfj_000000gn/T//ccNJlW0i.s 			page 6


 213              	.LVL14:
 214 001c 0547     		li	a4,1
 215 001e 93860680 		addi	a3,a3,-2048
 216 0022 13060600 		addi	a2,a2,%lo(.LC1)
 217 0026 9145     		li	a1,4
 218 0028 13052003 		li	a0,50
 219 002c 29A2     		j	.L10
 220              	.LVL15:
 221              	.L8:
 222              	.LBB8:
  33:main.c        ****     {
 223              		.loc 1 33 5
  33:main.c        ****     {
 224              		.loc 1 33 9 is_stmt 0
 225 002e B285     		mv	a1,a2
 226 0030 2685     		mv	a0,s1
 227 0032 32C6     		sw	a2,12(sp)
 228 0034 97000000 		call	strcmp
 228      E7800000 
 229              	.LVL16:
  33:main.c        ****     {
 230              		.loc 1 33 25
 231 003c 2684     		mv	s0,s1
  33:main.c        ****     {
 232              		.loc 1 33 8
 233 003e 3246     		lw	a2,12(sp)
 234 0040 9384C461 		addi	s1,s1,1564
 235 0044 63130510 		bne	a0,zero,.L7
 236              	.LVL17:
  35:main.c        ****       LCD_ShowNum(0, 20, allPlants[i].moisture[allPlants[i].numberOfMoistureReadings - 1].reading, 
 237              		.loc 1 35 7 is_stmt 1
 238 0048 C164     		li	s1,65536
 239 004a 0547     		li	a4,1
 240 004c 9386F4FF 		addi	a3,s1,-1
 241 0050 2286     		mv	a2,s0
 242              	.LVL18:
 243 0052 8145     		li	a1,0
 244 0054 97000000 		call	LCD_ShowStr
 244      E7800000 
 245              	.LVL19:
  36:main.c        ****       LCD_ShowStr(0 + 30, 20, "%", WHITE, TRANSPARENT);
 246              		.loc 1 36 7
  36:main.c        ****       LCD_ShowStr(0 + 30, 20, "%", WHITE, TRANSPARENT);
 247              		.loc 1 36 90 is_stmt 0
 248 005c 83278461 		lw	a5,1560(s0)
  36:main.c        ****       LCD_ShowStr(0 + 30, 20, "%", WHITE, TRANSPARENT);
 249              		.loc 1 36 7
 250 0060 1387F4FF 		addi	a4,s1,-1
 251 0064 8D46     		li	a3,3
  36:main.c        ****       LCD_ShowStr(0 + 30, 20, "%", WHITE, TRANSPARENT);
 252              		.loc 1 36 90
 253 0066 9207     		slli	a5,a5,4
 254 0068 A297     		add	a5,s0,a5
  36:main.c        ****       LCD_ShowStr(0 + 30, 20, "%", WHITE, TRANSPARENT);
 255              		.loc 1 36 7
 256 006a 904B     		lw	a2,16(a5)
 257 006c D145     		li	a1,20
GAS LISTING /var/folders/rt/4gvqv631095f64jvm7jfj_000000gn/T//ccNJlW0i.s 			page 7


 258 006e 0145     		li	a0,0
 259 0070 97000000 		call	LCD_ShowNum
 259      E7800000 
 260              	.LVL20:
  37:main.c        ****       LCD_ShowStr(50, 20, allPlants[i].moisture[allPlants[i].numberOfMoistureReadings - 1].timeStam
 261              		.loc 1 37 7 is_stmt 1
 262 0078 37090000 		lui	s2,%hi(.LC0)
 263              	.LVL21:
 264 007c 0547     		li	a4,1
 265 007e 9386F4FF 		addi	a3,s1,-1
 266 0082 13060900 		addi	a2,s2,%lo(.LC0)
 267 0086 D145     		li	a1,20
 268 0088 7945     		li	a0,30
 269 008a 97000000 		call	LCD_ShowStr
 269      E7800000 
 270              	.LVL22:
  38:main.c        ****       LCD_ShowNum(0, 40, allPlants[i].sun[allPlants[i].numberOfSunReadings - 1].reading, 3, WHITE);
 271              		.loc 1 38 7
  38:main.c        ****       LCD_ShowNum(0, 40, allPlants[i].sun[allPlants[i].numberOfSunReadings - 1].reading, 3, WHITE);
 272              		.loc 1 38 91 is_stmt 0
 273 0092 03268461 		lw	a2,1560(s0)
  38:main.c        ****       LCD_ShowNum(0, 40, allPlants[i].sun[allPlants[i].numberOfSunReadings - 1].reading, 3, WHITE);
 274              		.loc 1 38 7
 275 0096 0547     		li	a4,1
 276 0098 9386F4FF 		addi	a3,s1,-1
  38:main.c        ****       LCD_ShowNum(0, 40, allPlants[i].sun[allPlants[i].numberOfSunReadings - 1].reading, 3, WHITE);
 277              		.loc 1 38 91
 278 009c 1206     		slli	a2,a2,4
 279 009e 1106     		addi	a2,a2,4
  38:main.c        ****       LCD_ShowNum(0, 40, allPlants[i].sun[allPlants[i].numberOfSunReadings - 1].reading, 3, WHITE);
 280              		.loc 1 38 7
 281 00a0 2296     		add	a2,s0,a2
 282 00a2 D145     		li	a1,20
 283 00a4 13052003 		li	a0,50
 284 00a8 97000000 		call	LCD_ShowStr
 284      E7800000 
 285              	.LVL23:
  39:main.c        ****       LCD_ShowStr(0 + 30, 40, "%", WHITE, TRANSPARENT);
 286              		.loc 1 39 7 is_stmt 1
  39:main.c        ****       LCD_ShowStr(0 + 30, 40, "%", WHITE, TRANSPARENT);
 287              		.loc 1 39 80 is_stmt 0
 288 00b0 83274461 		lw	a5,1556(s0)
  39:main.c        ****       LCD_ShowStr(0 + 30, 40, "%", WHITE, TRANSPARENT);
 289              		.loc 1 39 7
 290 00b4 1387F4FF 		addi	a4,s1,-1
 291 00b8 8D46     		li	a3,3
  39:main.c        ****       LCD_ShowStr(0 + 30, 40, "%", WHITE, TRANSPARENT);
 292              		.loc 1 39 80
 293 00ba 93870703 		addi	a5,a5,48
 294 00be 9207     		slli	a5,a5,4
 295 00c0 A297     		add	a5,s0,a5
  39:main.c        ****       LCD_ShowStr(0 + 30, 40, "%", WHITE, TRANSPARENT);
 296              		.loc 1 39 7
 297 00c2 904B     		lw	a2,16(a5)
 298 00c4 93058002 		li	a1,40
 299 00c8 0145     		li	a0,0
 300 00ca 97000000 		call	LCD_ShowNum
GAS LISTING /var/folders/rt/4gvqv631095f64jvm7jfj_000000gn/T//ccNJlW0i.s 			page 8


 300      E7800000 
 301              	.LVL24:
  40:main.c        ****       LCD_Fill(50, 40, 160, 53, BLACK); // Black out old reading before writing new
 302              		.loc 1 40 7 is_stmt 1
 303 00d2 0547     		li	a4,1
 304 00d4 9386F4FF 		addi	a3,s1,-1
 305 00d8 13060900 		addi	a2,s2,%lo(.LC0)
 306 00dc 93058002 		li	a1,40
 307 00e0 7945     		li	a0,30
 308 00e2 97000000 		call	LCD_ShowStr
 308      E7800000 
 309              	.LVL25:
  41:main.c        ****       LCD_ShowStr(50, 40, allPlants[i].sun[allPlants[i].numberOfSunReadings - 1].timeStamp, WHITE, 
 310              		.loc 1 41 7
 311 00ea 0147     		li	a4,0
 312 00ec 93065003 		li	a3,53
 313 00f0 1306000A 		li	a2,160
 314 00f4 93058002 		li	a1,40
 315 00f8 13052003 		li	a0,50
 316 00fc 97000000 		call	LCD_Fill
 316      E7800000 
 317              	.LVL26:
  42:main.c        ****       LCD_ShowStr(0, 60, allPlants[i].currentStatus, GBLUE, TRANSPARENT);
 318              		.loc 1 42 7
  42:main.c        ****       LCD_ShowStr(0, 60, allPlants[i].currentStatus, GBLUE, TRANSPARENT);
 319              		.loc 1 42 81 is_stmt 0
 320 0104 03264461 		lw	a2,1556(s0)
  42:main.c        ****       LCD_ShowStr(0, 60, allPlants[i].currentStatus, GBLUE, TRANSPARENT);
 321              		.loc 1 42 7
 322 0108 0547     		li	a4,1
 323 010a 9386F4FF 		addi	a3,s1,-1
  42:main.c        ****       LCD_ShowStr(0, 60, allPlants[i].currentStatus, GBLUE, TRANSPARENT);
 324              		.loc 1 42 81
 325 010e 1206     		slli	a2,a2,4
 326 0110 13064630 		addi	a2,a2,772
  42:main.c        ****       LCD_ShowStr(0, 60, allPlants[i].currentStatus, GBLUE, TRANSPARENT);
 327              		.loc 1 42 7
 328 0114 2296     		add	a2,s0,a2
 329 0116 93058002 		li	a1,40
 330 011a 13052003 		li	a0,50
 331 011e 97000000 		call	LCD_ShowStr
 331      E7800000 
 332              	.LVL27:
  43:main.c        ****       return;
 333              		.loc 1 43 7 is_stmt 1
 334 0126 0547     		li	a4,1
 335 0128 9306F07F 		li	a3,2047
 336 012c 1306A400 		addi	a2,s0,10
 337 0130 9305C003 		li	a1,60
 338 0134 0145     		li	a0,0
 339              	.LVL28:
 340              	.L10:
 341              	.LBE8:
  48:main.c        **** }
 342              		.loc 1 48 1 is_stmt 0
 343 0136 2254     		lw	s0,40(sp)
 344              		.cfi_remember_state
GAS LISTING /var/folders/rt/4gvqv631095f64jvm7jfj_000000gn/T//ccNJlW0i.s 			page 9


 345              		.cfi_restore 8
 346 0138 B250     		lw	ra,44(sp)
 347              		.cfi_restore 1
 348 013a 9254     		lw	s1,36(sp)
 349              		.cfi_restore 9
 350 013c 0259     		lw	s2,32(sp)
 351              		.cfi_restore 18
 352 013e F249     		lw	s3,28(sp)
 353              		.cfi_restore 19
 354              	.LVL29:
 355 0140 4561     		addi	sp,sp,48
 356              	.LCFI4:
 357              		.cfi_def_cfa_offset 0
  47:main.c        **** }
 358              		.loc 1 47 3
 359 0142 17030000 		tail	LCD_ShowStr
 359      67000300 
 360              	.LVL30:
 361              	.L7:
 362              	.LCFI5:
 363              		.cfi_restore_state
 364              	.LBB9:
  31:main.c        ****   {
 365              		.loc 1 31 40 discriminator 2
 366 014a 0509     		addi	s2,s2,1
 367              	.LVL31:
 368 014c D9B5     		j	.L6
 369              	.LBE9:
 370              		.cfi_endproc
 371              	.LFE7:
 373              		.section	.text.updatePlantStatus,"ax",@progbits
 374              		.align	1
 375              		.globl	updatePlantStatus
 377              	updatePlantStatus:
 378              	.LFB8:
  49:main.c        **** 
  50:main.c        **** void updatePlantStatus(Plant plantToUpdate)
  51:main.c        **** {
 379              		.loc 1 51 1 is_stmt 1
 380              		.cfi_startproc
  52:main.c        ****   // WIP : LOOPA IGENOM TIDIGARE READINGS, GĂ–R EN AVERAGE, TA REDA PĂ… STATUS. BEHĂ–VER LJUS? BEHĂ
  53:main.c        **** }
 381              		.loc 1 53 1
 382 0000 8280     		ret
 383              		.cfi_endproc
 384              	.LFE8:
 386              		.section	.text.updatePlantReading,"ax",@progbits
 387              		.align	1
 388              		.globl	updatePlantReading
 390              	updatePlantReading:
 391              	.LFB9:
  54:main.c        **** 
  55:main.c        **** void updatePlantReading(Plant allPlants[], int numberOfPlants, char name[], SensorType type)
  56:main.c        **** {
 392              		.loc 1 56 1
 393              		.cfi_startproc
 394              	.LVL32:
GAS LISTING /var/folders/rt/4gvqv631095f64jvm7jfj_000000gn/T//ccNJlW0i.s 			page 10


  57:main.c        ****   for (int i = 0; i < numberOfPlants; i++)
 395              		.loc 1 57 3
 396              	.LBB10:
 397              		.loc 1 57 8
 398              	.LBE10:
  56:main.c        ****   for (int i = 0; i < numberOfPlants; i++)
 399              		.loc 1 56 1 is_stmt 0
 400 0000 3971     		addi	sp,sp,-64
 401              	.LCFI6:
 402              		.cfi_def_cfa_offset 64
 403 0002 22DC     		sw	s0,56(sp)
 404 0004 26DA     		sw	s1,52(sp)
 405 0006 4AD8     		sw	s2,48(sp)
 406 0008 4ED6     		sw	s3,44(sp)
 407 000a 06DE     		sw	ra,60(sp)
 408              		.cfi_offset 8, -8
 409              		.cfi_offset 9, -12
 410              		.cfi_offset 18, -16
 411              		.cfi_offset 19, -20
 412              		.cfi_offset 1, -4
  56:main.c        ****   for (int i = 0; i < numberOfPlants; i++)
 413              		.loc 1 56 1
 414 000c 2E89     		mv	s2,a1
 415 000e 2A84     		mv	s0,a0
 416              	.LBB13:
 417              		.loc 1 57 12
 418 0010 8144     		li	s1,0
  58:main.c        ****   {
  59:main.c        ****     if (strcmp(allPlants[i].name, name) == 0)
  60:main.c        ****     {
  61:main.c        ****       if (type == SUN)
 419              		.loc 1 61 10
 420 0012 8549     		li	s3,1
 421              	.LVL33:
 422              	.L13:
  57:main.c        ****   {
 423              		.loc 1 57 3 discriminator 1
 424 0014 63C92403 		blt	s1,s2,.L19
 425              	.LBE13:
  62:main.c        ****       {
  63:main.c        ****         char fillWithTimeStamp[9];
  64:main.c        ****         generateTimeStamp(fillWithTimeStamp);
  65:main.c        ****         int currentValue = readSensor(ADC0, ADC_FLAG_EOC);
  66:main.c        ****         if (currentValue < 0)
  67:main.c        ****           currentValue = 0;
  68:main.c        ****         if (allPlants[i].numberOfSunReadings < MAX_SUN_READINGS)
  69:main.c        ****         {
  70:main.c        ****           allPlants[i].sun[allPlants[i].numberOfSunReadings].reading = currentValue;
  71:main.c        ****           STR_COPY(allPlants[i].sun[allPlants[i].numberOfSunReadings].timeStamp, fillWithTimeStamp)
  72:main.c        ****           (allPlants[i].numberOfSunReadings)++;
  73:main.c        ****         }
  74:main.c        ****         else
  75:main.c        ****         {
  76:main.c        ****           LCD_Fill(0, 0, 160, 80, BLACK);
  77:main.c        ****           LCD_ShowStr(0, 10, "SUN READINGS FULL", RED, TRANSPARENT);
  78:main.c        ****         }
  79:main.c        ****         return;
GAS LISTING /var/folders/rt/4gvqv631095f64jvm7jfj_000000gn/T//ccNJlW0i.s 			page 11


  80:main.c        ****       }
  81:main.c        ****     }
  82:main.c        ****   }
  83:main.c        ****   LCD_Fill(0, 0, 160, 80, BLACK);
 426              		.loc 1 83 3 is_stmt 1
 427 0018 0147     		li	a4,0
 428 001a 93060005 		li	a3,80
 429              	.LVL34:
 430 001e 1306000A 		li	a2,160
 431              	.LVL35:
 432 0022 8145     		li	a1,0
 433 0024 0145     		li	a0,0
 434 0026 97000000 		call	LCD_Fill
 434      E7800000 
 435              	.LVL36:
  84:main.c        ****   LCD_ShowStr(50, 4, "NO SUCH PLANT", RED, TRANSPARENT);
 436              		.loc 1 84 3
 437 002e C166     		li	a3,65536
 438 0030 37060000 		lui	a2,%hi(.LC1)
 439 0034 0547     		li	a4,1
 440 0036 93860680 		addi	a3,a3,-2048
 441 003a 13060600 		addi	a2,a2,%lo(.LC1)
 442 003e 9145     		li	a1,4
 443 0040 13052003 		li	a0,50
 444 0044 55A8     		j	.L21
 445              	.LVL37:
 446              	.L19:
 447              	.LBB14:
  59:main.c        ****     {
 448              		.loc 1 59 9 is_stmt 0
 449 0046 B285     		mv	a1,a2
 450 0048 2285     		mv	a0,s0
 451 004a 36C6     		sw	a3,12(sp)
  59:main.c        ****     {
 452              		.loc 1 59 5 is_stmt 1
  59:main.c        ****     {
 453              		.loc 1 59 9 is_stmt 0
 454 004c 32C4     		sw	a2,8(sp)
 455 004e 97000000 		call	strcmp
 455      E7800000 
 456              	.LVL38:
  59:main.c        ****     {
 457              		.loc 1 59 8
 458 0056 2246     		lw	a2,8(sp)
 459 0058 B246     		lw	a3,12(sp)
 460 005a 45E5     		bne	a0,zero,.L14
 461              	.LVL39:
  61:main.c        ****       {
 462              		.loc 1 61 7 is_stmt 1
  61:main.c        ****       {
 463              		.loc 1 61 10 is_stmt 0
 464 005c 6393360B 		bne	a3,s3,.L14
 465              	.LBB11:
  63:main.c        ****         generateTimeStamp(fillWithTimeStamp);
 466              		.loc 1 63 9 is_stmt 1
  64:main.c        ****         int currentValue = readSensor(ADC0, ADC_FLAG_EOC);
 467              		.loc 1 64 9
GAS LISTING /var/folders/rt/4gvqv631095f64jvm7jfj_000000gn/T//ccNJlW0i.s 			page 12


 468 0060 4808     		addi	a0,sp,20
 469 0062 97000000 		call	generateTimeStamp
 469      E7800000 
 470              	.LVL40:
  65:main.c        ****         if (currentValue < 0)
 471              		.loc 1 65 9
  65:main.c        ****         if (currentValue < 0)
 472              		.loc 1 65 28 is_stmt 0
 473 006a 37250140 		li	a0,1073815552
 474 006e 8945     		li	a1,2
 475 0070 13050540 		addi	a0,a0,1024
 476 0074 97000000 		call	readSensor
 476      E7800000 
 477              	.LVL41:
  66:main.c        ****           currentValue = 0;
 478              		.loc 1 66 9 is_stmt 1
  68:main.c        ****         {
 479              		.loc 1 68 9
  68:main.c        ****         {
 480              		.loc 1 68 25 is_stmt 0
 481 007c 83274461 		lw	a5,1556(s0)
  68:main.c        ****         {
 482              		.loc 1 68 12
 483 0080 1307F002 		li	a4,47
 484 0084 6345F704 		bgt	a5,a4,.L15
  70:main.c        ****           STR_COPY(allPlants[i].sun[allPlants[i].numberOfSunReadings].timeStamp, fillWithTimeStamp)
 485              		.loc 1 70 11 is_stmt 1
  70:main.c        ****           STR_COPY(allPlants[i].sun[allPlants[i].numberOfSunReadings].timeStamp, fillWithTimeStamp)
 486              		.loc 1 70 70 is_stmt 0
 487 0088 93871703 		addi	a5,a5,49
 488 008c 13974700 		slli	a4,a5,4
 489 0090 2297     		add	a4,s0,a4
 490 0092 63530500 		bge	a0,zero,.L16
 491 0096 0145     		li	a0,0
 492              	.LVL42:
 493              	.L16:
 494 0098 08CB     		sw	a0,16(a4)
  71:main.c        ****           (allPlants[i].numberOfSunReadings)++;
 495              		.loc 1 71 11 is_stmt 1
 496 009a 13954700 		slli	a0,a5,4
 497 009e 1105     		addi	a0,a0,4
 498 00a0 37060000 		lui	a2,%hi(.LC2)
 499 00a4 5408     		addi	a3,sp,20
 500 00a6 13060600 		addi	a2,a2,%lo(.LC2)
 501 00aa A545     		li	a1,9
 502 00ac 2295     		add	a0,s0,a0
 503 00ae 97000000 		call	snprintf
 503      E7800000 
 504              	.LVL43:
  72:main.c        ****         }
 505              		.loc 1 72 11
  72:main.c        ****         }
 506              		.loc 1 72 45 is_stmt 0
 507 00b6 83274461 		lw	a5,1556(s0)
 508 00ba 8507     		addi	a5,a5,1
 509 00bc 232AF460 		sw	a5,1556(s0)
 510              	.LVL44:
GAS LISTING /var/folders/rt/4gvqv631095f64jvm7jfj_000000gn/T//ccNJlW0i.s 			page 13


 511              	.L12:
 512              	.LBE11:
 513              	.LBE14:
  85:main.c        **** }
 514              		.loc 1 85 1
 515 00c0 F250     		lw	ra,60(sp)
 516              		.cfi_remember_state
 517              		.cfi_restore 1
 518 00c2 6254     		lw	s0,56(sp)
 519              		.cfi_restore 8
 520 00c4 D254     		lw	s1,52(sp)
 521              		.cfi_restore 9
 522              	.LVL45:
 523 00c6 4259     		lw	s2,48(sp)
 524              		.cfi_restore 18
 525              	.LVL46:
 526 00c8 B259     		lw	s3,44(sp)
 527              		.cfi_restore 19
 528 00ca 2161     		addi	sp,sp,64
 529              	.LCFI7:
 530              		.cfi_def_cfa_offset 0
 531 00cc 8280     		jr	ra
 532              	.LVL47:
 533              	.L15:
 534              	.LCFI8:
 535              		.cfi_restore_state
 536              	.LBB15:
 537              	.LBB12:
  76:main.c        ****           LCD_ShowStr(0, 10, "SUN READINGS FULL", RED, TRANSPARENT);
 538              		.loc 1 76 11 is_stmt 1
 539 00ce 0147     		li	a4,0
 540 00d0 93060005 		li	a3,80
 541 00d4 1306000A 		li	a2,160
 542 00d8 8145     		li	a1,0
 543 00da 0145     		li	a0,0
 544              	.LVL48:
 545 00dc 97000000 		call	LCD_Fill
 545      E7800000 
 546              	.LVL49:
  77:main.c        ****         }
 547              		.loc 1 77 11
 548 00e4 C166     		li	a3,65536
 549 00e6 37060000 		lui	a2,%hi(.LC3)
 550 00ea 0547     		li	a4,1
 551 00ec 93860680 		addi	a3,a3,-2048
 552 00f0 13060600 		addi	a2,a2,%lo(.LC3)
 553 00f4 A945     		li	a1,10
 554 00f6 0145     		li	a0,0
 555              	.LVL50:
 556              	.L21:
 557              	.LBE12:
 558              	.LBE15:
  84:main.c        **** }
 559              		.loc 1 84 3 is_stmt 0
 560 00f8 97000000 		call	LCD_ShowStr
 560      E7800000 
 561              	.LVL51:
GAS LISTING /var/folders/rt/4gvqv631095f64jvm7jfj_000000gn/T//ccNJlW0i.s 			page 14


 562 0100 C1B7     		j	.L12
 563              	.LVL52:
 564              	.L14:
 565              	.LBB16:
  57:main.c        ****   {
 566              		.loc 1 57 40 discriminator 2
 567 0102 8504     		addi	s1,s1,1
 568              	.LVL53:
 569 0104 1304C461 		addi	s0,s0,1564
 570 0108 31B7     		j	.L13
 571              	.LBE16:
 572              		.cfi_endproc
 573              	.LFE9:
 575              		.section	.text.receiveCommands,"ax",@progbits
 576              		.align	1
 577              		.globl	receiveCommands
 579              	receiveCommands:
 580              	.LFB10:
  86:main.c        **** 
  87:main.c        **** void receiveCommands(Plant allPlants[], int *numberOfPlants)
  88:main.c        **** {
 581              		.loc 1 88 1 is_stmt 1
 582              		.cfi_startproc
 583              	.LVL54:
  89:main.c        ****   LCD_Clear(BLACK);
 584              		.loc 1 89 3
  88:main.c        ****   LCD_Clear(BLACK);
 585              		.loc 1 88 1 is_stmt 0
 586 0000 0111     		addi	sp,sp,-32
 587              	.LCFI9:
 588              		.cfi_def_cfa_offset 32
 589 0002 26CA     		sw	s1,20(sp)
 590              		.cfi_offset 9, -12
 591 0004 AA84     		mv	s1,a0
 592              		.loc 1 89 3
 593 0006 0145     		li	a0,0
 594              	.LVL55:
  88:main.c        ****   LCD_Clear(BLACK);
 595              		.loc 1 88 1
 596 0008 06CE     		sw	ra,28(sp)
 597 000a 22CC     		sw	s0,24(sp)
 598 000c 4AC8     		sw	s2,16(sp)
 599 000e 4EC6     		sw	s3,12(sp)
 600              		.cfi_offset 1, -4
 601              		.cfi_offset 8, -8
 602              		.cfi_offset 18, -16
 603              		.cfi_offset 19, -20
  88:main.c        ****   LCD_Clear(BLACK);
 604              		.loc 1 88 1
 605 0010 2E89     		mv	s2,a1
 606              		.loc 1 89 3
 607 0012 97000000 		call	LCD_Clear
 607      E7800000 
 608              	.LVL56:
  90:main.c        ****   LCD_ShowStr(0, 0, "in receive commands", WHITE, TRANSPARENT);
 609              		.loc 1 90 3 is_stmt 1
 610 001a C166     		li	a3,65536
GAS LISTING /var/folders/rt/4gvqv631095f64jvm7jfj_000000gn/T//ccNJlW0i.s 			page 15


 611 001c 37060000 		lui	a2,%hi(.LC4)
 612 0020 0547     		li	a4,1
 613 0022 13060600 		addi	a2,a2,%lo(.LC4)
 614 0026 8145     		li	a1,0
 615 0028 FD16     		addi	a3,a3,-1
 616 002a 0145     		li	a0,0
 617 002c 97000000 		call	LCD_ShowStr
 617      E7800000 
 618              	.LVL57:
  91:main.c        ****   for (int j = 0; j < commandBufferIndex; j++)
 619              		.loc 1 91 3
 620              	.LBB17:
 621              		.loc 1 91 8
 622              		.loc 1 91 21 is_stmt 0
 623 0034 37070000 		lui	a4,%hi(commandBufferIndex)
  92:main.c        ****   {
  93:main.c        ****     if (commandBuffer[j] == '\n')
 624              		.loc 1 93 22
 625 0038 37040000 		lui	s0,%hi(commandBuffer)
  91:main.c        ****   for (int j = 0; j < commandBufferIndex; j++)
 626              		.loc 1 91 12
 627 003c 8147     		li	a5,0
 628 003e BA89     		mv	s3,a4
 629              		.loc 1 93 22
 630 0040 13060400 		addi	a2,s0,%lo(commandBuffer)
 631              		.loc 1 93 8
 632 0044 A945     		li	a1,10
 633              	.LVL58:
 634              	.L23:
  91:main.c        ****   for (int j = 0; j < commandBufferIndex; j++)
 635              		.loc 1 91 21 discriminator 1
 636 0046 83260700 		lw	a3,%lo(commandBufferIndex)(a4)
  91:main.c        ****   for (int j = 0; j < commandBufferIndex; j++)
 637              		.loc 1 91 3 discriminator 1
 638 004a 63D2D704 		ble	a3,a5,.L22
 639              		.loc 1 93 5 is_stmt 1
 640              		.loc 1 93 22 is_stmt 0
 641 004e B306F600 		add	a3,a2,a5
 642 0052 03C50600 		lbu	a0,0(a3)
 643              		.loc 1 93 8
 644 0056 6397A50C 		bne	a1,a0,.L24
  94:main.c        ****     {
  95:main.c        ****       commandBuffer[j] = '\0';
 645              		.loc 1 95 7 is_stmt 1
  96:main.c        ****       if (!strcmp((char *)commandBuffer, "getAllPlants"))
 646              		.loc 1 96 12 is_stmt 0
 647 005a B7050000 		lui	a1,%hi(.LC5)
 648 005e 93850500 		addi	a1,a1,%lo(.LC5)
 649 0062 13050400 		addi	a0,s0,%lo(commandBuffer)
  95:main.c        ****       if (!strcmp((char *)commandBuffer, "getAllPlants"))
 650              		.loc 1 95 24
 651 0066 23800600 		sb	zero,0(a3)
 652              		.loc 1 96 7 is_stmt 1
 653              		.loc 1 96 12 is_stmt 0
 654 006a 97000000 		call	strcmp
 654      E7800000 
 655              	.LVL59:
GAS LISTING /var/folders/rt/4gvqv631095f64jvm7jfj_000000gn/T//ccNJlW0i.s 			page 16


 656              		.loc 1 96 10
 657 0072 0DE5     		bne	a0,zero,.L25
  97:main.c        ****       {
  98:main.c        ****         LCD_Clear(BLACK);
 658              		.loc 1 98 9 is_stmt 1
 659 0074 97000000 		call	LCD_Clear
 659      E7800000 
 660              	.LVL60:
  99:main.c        ****         renderAllPlants(allPlants, *numberOfPlants);
 661              		.loc 1 99 9
 662 007c 83250900 		lw	a1,0(s2)
 663 0080 2685     		mv	a0,s1
 664 0082 97000000 		call	renderAllPlants
 664      E7800000 
 665              	.LVL61:
 666              	.L26:
 100:main.c        ****       } else if (!strcmp((char *)commandBuffer, "returnMessage")){
 101:main.c        ****         LCD_Clear(BLACK);
 102:main.c        ****         LCD_ShowStr(0, 0, "transmit in session", WHITE, TRANSPARENT);
 103:main.c        ****         putstr("i helvete\n");
 104:main.c        ****       } 
 105:main.c        ****       else {
 106:main.c        ****         LCD_Clear(BLACK);
 107:main.c        ****         LCD_ShowStr(0, 0, "BAD COMMAND:", WHITE, TRANSPARENT);
 108:main.c        ****         LCD_ShowStr(0, 13, (char *)commandBuffer, WHITE, TRANSPARENT);
 109:main.c        ****       }
 110:main.c        ****       commandBufferIndex = 0;
 667              		.loc 1 110 7
 668              		.loc 1 110 26 is_stmt 0
 669 008a 23A00900 		sw	zero,%lo(commandBufferIndex)(s3)
 111:main.c        ****       break;
 670              		.loc 1 111 7 is_stmt 1
 671              	.L22:
 672              	.LBE17:
 112:main.c        ****     }
 113:main.c        ****   }
 114:main.c        **** }
 673              		.loc 1 114 1 is_stmt 0
 674 008e F240     		lw	ra,28(sp)
 675              		.cfi_remember_state
 676              		.cfi_restore 1
 677 0090 6244     		lw	s0,24(sp)
 678              		.cfi_restore 8
 679 0092 D244     		lw	s1,20(sp)
 680              		.cfi_restore 9
 681 0094 4249     		lw	s2,16(sp)
 682              		.cfi_restore 18
 683              	.LVL62:
 684 0096 B249     		lw	s3,12(sp)
 685              		.cfi_restore 19
 686 0098 0561     		addi	sp,sp,32
 687              	.LCFI10:
 688              		.cfi_def_cfa_offset 0
 689 009a 8280     		jr	ra
 690              	.LVL63:
 691              	.L25:
 692              	.LCFI11:
GAS LISTING /var/folders/rt/4gvqv631095f64jvm7jfj_000000gn/T//ccNJlW0i.s 			page 17


 693              		.cfi_restore_state
 694              	.LBB18:
 100:main.c        ****         LCD_Clear(BLACK);
 695              		.loc 1 100 14 is_stmt 1
 100:main.c        ****         LCD_Clear(BLACK);
 696              		.loc 1 100 19 is_stmt 0
 697 009c B7050000 		lui	a1,%hi(.LC6)
 698 00a0 93850500 		addi	a1,a1,%lo(.LC6)
 699 00a4 13050400 		addi	a0,s0,%lo(commandBuffer)
 700 00a8 97000000 		call	strcmp
 700      E7800000 
 701              	.LVL64:
 100:main.c        ****         LCD_Clear(BLACK);
 702              		.loc 1 100 17
 703 00b0 1DE9     		bne	a0,zero,.L27
 101:main.c        ****         LCD_ShowStr(0, 0, "transmit in session", WHITE, TRANSPARENT);
 704              		.loc 1 101 9 is_stmt 1
 705 00b2 97000000 		call	LCD_Clear
 705      E7800000 
 706              	.LVL65:
 102:main.c        ****         putstr("i helvete\n");
 707              		.loc 1 102 9
 708 00ba C166     		li	a3,65536
 709 00bc 37060000 		lui	a2,%hi(.LC7)
 710 00c0 0547     		li	a4,1
 711 00c2 FD16     		addi	a3,a3,-1
 712 00c4 13060600 		addi	a2,a2,%lo(.LC7)
 713 00c8 8145     		li	a1,0
 714 00ca 0145     		li	a0,0
 715 00cc 97000000 		call	LCD_ShowStr
 715      E7800000 
 716              	.LVL66:
 103:main.c        ****       } 
 717              		.loc 1 103 9
 718 00d4 37050000 		lui	a0,%hi(.LC8)
 719 00d8 13050500 		addi	a0,a0,%lo(.LC8)
 720 00dc 97000000 		call	putstr
 720      E7800000 
 721              	.LVL67:
 722 00e4 5DB7     		j	.L26
 723              	.L27:
 106:main.c        ****         LCD_ShowStr(0, 0, "BAD COMMAND:", WHITE, TRANSPARENT);
 724              		.loc 1 106 9
 725 00e6 0145     		li	a0,0
 726 00e8 97000000 		call	LCD_Clear
 726      E7800000 
 727              	.LVL68:
 107:main.c        ****         LCD_ShowStr(0, 13, (char *)commandBuffer, WHITE, TRANSPARENT);
 728              		.loc 1 107 9
 729 00f0 C164     		li	s1,65536
 730              	.LVL69:
 731 00f2 37060000 		lui	a2,%hi(.LC9)
 732 00f6 9386F4FF 		addi	a3,s1,-1
 733 00fa 0547     		li	a4,1
 734 00fc 13060600 		addi	a2,a2,%lo(.LC9)
 735 0100 8145     		li	a1,0
 736 0102 0145     		li	a0,0
GAS LISTING /var/folders/rt/4gvqv631095f64jvm7jfj_000000gn/T//ccNJlW0i.s 			page 18


 737 0104 97000000 		call	LCD_ShowStr
 737      E7800000 
 738              	.LVL70:
 108:main.c        ****       }
 739              		.loc 1 108 9
 740 010c 0547     		li	a4,1
 741 010e 9386F4FF 		addi	a3,s1,-1
 742 0112 13060400 		addi	a2,s0,%lo(commandBuffer)
 743 0116 B545     		li	a1,13
 744 0118 0145     		li	a0,0
 745 011a 97000000 		call	LCD_ShowStr
 745      E7800000 
 746              	.LVL71:
 747 0122 A5B7     		j	.L26
 748              	.LVL72:
 749              	.L24:
  91:main.c        ****   {
 750              		.loc 1 91 44 is_stmt 0 discriminator 2
 751 0124 8507     		addi	a5,a5,1
 752              	.LVL73:
 753 0126 05B7     		j	.L23
 754              	.LBE18:
 755              		.cfi_endproc
 756              	.LFE10:
 758              		.section	.text.startup.main,"ax",@progbits
 759              		.align	1
 760              		.globl	main
 762              	main:
 763              	.LFB11:
 115:main.c        **** 
 116:main.c        **** int main(void)
 117:main.c        **** {
 764              		.loc 1 117 1 is_stmt 1
 765              		.cfi_startproc
 118:main.c        ****   int ms = 0, s = 0, idle = 0;
 766              		.loc 1 118 3
 767              	.LVL74:
 119:main.c        **** 
 120:main.c        ****   Plant allPlants[3];
 768              		.loc 1 120 3
 121:main.c        ****   int numberOfPlants = 0;
 769              		.loc 1 121 3
 122:main.c        ****   initPlant("Gurka", &numberOfPlants, allPlants);
 770              		.loc 1 122 3 is_stmt 0
 771 0000 0567     		li	a4,4096
 117:main.c        ****   int ms = 0, s = 0, idle = 0;
 772              		.loc 1 117 1
 773 0002 7D73     		li	t1,-4096
 774 0004 130101D8 		addi	sp,sp,-640
 775              	.LCFI12:
 776              		.cfi_def_cfa_offset 640
 777 0008 232E1126 		sw	ra,636(sp)
 778              		.loc 1 122 3
 779 000c 93070726 		addi	a5,a4,608
 117:main.c        ****   int ms = 0, s = 0, idle = 0;
 780              		.loc 1 117 1
 781 0010 232C8126 		sw	s0,632(sp)
GAS LISTING /var/folders/rt/4gvqv631095f64jvm7jfj_000000gn/T//ccNJlW0i.s 			page 19


 782 0014 232A9126 		sw	s1,628(sp)
 783 0018 23282127 		sw	s2,624(sp)
 784 001c 23263127 		sw	s3,620(sp)
 785 0020 23244127 		sw	s4,616(sp)
 786 0024 23225127 		sw	s5,612(sp)
 787              		.cfi_offset 1, -4
 788              		.cfi_offset 8, -8
 789              		.cfi_offset 9, -12
 790              		.cfi_offset 18, -16
 791              		.cfi_offset 19, -20
 792              		.cfi_offset 20, -24
 793              		.cfi_offset 21, -28
 121:main.c        ****   int numberOfPlants = 0;
 794              		.loc 1 121 7
 795 0028 7D74     		li	s0,-4096
 117:main.c        ****   int ms = 0, s = 0, idle = 0;
 796              		.loc 1 117 1
 797 002a 1A91     		add	sp,sp,t1
 798              	.LCFI13:
 799              		.cfi_def_cfa_offset 4736
 800              		.loc 1 122 3
 801 002c 9304C4DA 		addi	s1,s0,-596
 802 0030 8A97     		add	a5,a5,sp
 803 0032 BE94     		add	s1,a5,s1
 804 0034 93070726 		addi	a5,a4,608
 805 0038 8A97     		add	a5,a5,sp
 806 003a 130484DA 		addi	s0,s0,-600
 807 003e 3E94     		add	s0,a5,s0
 808 0040 37050000 		lui	a0,%hi(.LC10)
 809 0044 2686     		mv	a2,s1
 810 0046 A285     		mv	a1,s0
 811 0048 13050500 		addi	a0,a0,%lo(.LC10)
 121:main.c        ****   int numberOfPlants = 0;
 812              		.loc 1 121 7
 813 004c 02C4     		sw	zero,8(sp)
 814              		.loc 1 122 3 is_stmt 1
 815 004e 97000000 		call	initPlant
 815      E7800000 
 816              	.LVL75:
 123:main.c        ****   initPlant("Tomat", &numberOfPlants, allPlants);
 817              		.loc 1 123 3
 818 0056 37050000 		lui	a0,%hi(.LC11)
 819 005a 2686     		mv	a2,s1
 820 005c A285     		mv	a1,s0
 821 005e 13050500 		addi	a0,a0,%lo(.LC11)
 822 0062 97000000 		call	initPlant
 822      E7800000 
 823              	.LVL76:
 124:main.c        ****   initPlant("Chili", &numberOfPlants, allPlants);
 824              		.loc 1 124 3
 825 006a 37050000 		lui	a0,%hi(.LC12)
 826 006e 2686     		mv	a2,s1
 827 0070 A285     		mv	a1,s0
 828 0072 13050500 		addi	a0,a0,%lo(.LC12)
 829 0076 97000000 		call	initPlant
 829      E7800000 
 830              	.LVL77:
GAS LISTING /var/folders/rt/4gvqv631095f64jvm7jfj_000000gn/T//ccNJlW0i.s 			page 20


 125:main.c        **** 
 126:main.c        ****   t5omsi(); // Initialize timer5 1kHz
 831              		.loc 1 126 3
 832 007e 97000000 		call	t5omsi
 832      E7800000 
 833              	.LVL78:
 127:main.c        ****   colinit();
 834              		.loc 1 127 3
 835 0086 97000000 		call	colinit
 835      E7800000 
 836              	.LVL79:
 128:main.c        ****   l88init();
 837              		.loc 1 128 3
 838 008e 97000000 		call	l88init
 838      E7800000 
 839              	.LVL80:
 129:main.c        ****   // keyinit();          // Initialize keyboard toolbox
 130:main.c        ****   rtcInit();
 840              		.loc 1 130 3
 841 0096 97000000 		call	rtcInit
 841      E7800000 
 842              	.LVL81:
 131:main.c        ****   rtc_counter_set(0);
 843              		.loc 1 131 3
 844 009e 0145     		li	a0,0
 845 00a0 97000000 		call	rtc_counter_set
 845      E7800000 
 846              	.LVL82:
 132:main.c        ****   u0init(EI); // Init WiFi Ă¶ver UART
 847              		.loc 1 132 3
 848 00a8 0545     		li	a0,1
 849 00aa 97000000 		call	u0init
 849      E7800000 
 850              	.LVL83:
 133:main.c        ****   eclic_global_interrupt_enable();
 851              		.loc 1 133 3
 852 00b2 97000000 		call	eclic_global_interrupt_enable
 852      E7800000 
 853              	.LVL84:
 134:main.c        ****   ADC3powerUpInit(0); // Initialize ADC0, Ch3
 854              		.loc 1 134 3
 855 00ba 0145     		li	a0,0
 856 00bc 97000000 		call	ADC3powerUpInit
 856      E7800000 
 857              	.LVL85:
 135:main.c        **** 
 136:main.c        ****   Lcd_SetType(LCD_INVERTED);
 858              		.loc 1 136 3
 859 00c4 0545     		li	a0,1
 860 00c6 97000000 		call	Lcd_SetType
 860      E7800000 
 861              	.LVL86:
 137:main.c        ****   Lcd_Init();
 862              		.loc 1 137 3
 863 00ce 97000000 		call	Lcd_Init
 863      E7800000 
 864              	.LVL87:
GAS LISTING /var/folders/rt/4gvqv631095f64jvm7jfj_000000gn/T//ccNJlW0i.s 			page 21


 138:main.c        ****   LCD_Fill(0, 0, 160, 80, BLACK);
 865              		.loc 1 138 3
 866 00d6 0147     		li	a4,0
 867 00d8 93060005 		li	a3,80
 868 00dc 1306000A 		li	a2,160
 869 00e0 8145     		li	a1,0
 870 00e2 0145     		li	a0,0
 871 00e4 97000000 		call	LCD_Fill
 871      E7800000 
 872              	.LVL88:
 118:main.c        **** 
 873              		.loc 1 118 22 is_stmt 0
 874 00ec 0149     		li	s2,0
 118:main.c        **** 
 875              		.loc 1 118 7
 876 00ee 8149     		li	s3,0
 139:main.c        **** 
 140:main.c        ****   
 141:main.c        **** 
 142:main.c        ****   while (1)
 143:main.c        ****   {
 144:main.c        ****     idle++;
 145:main.c        ****     if (commandBufferIndex > 0)
 877              		.loc 1 145 28
 878 00f0 370A0000 		lui	s4,%hi(commandBufferIndex)
 146:main.c        ****       receiveCommands(allPlants, &numberOfPlants);
 147:main.c        **** 
 148:main.c        ****     if (t5expq())
 149:main.c        ****     {
 150:main.c        ****       l88row(colset());
 151:main.c        ****       ms++;
 152:main.c        ****       if (ms == 1000)
 879              		.loc 1 152 10
 880 00f4 930A803E 		li	s5,1000
 881              	.LVL89:
 882              	.L32:
 142:main.c        ****   {
 883              		.loc 1 142 3 is_stmt 1
 144:main.c        ****     if (commandBufferIndex > 0)
 884              		.loc 1 144 5
 145:main.c        ****       receiveCommands(allPlants, &numberOfPlants);
 885              		.loc 1 145 28 is_stmt 0
 886 00f8 83270A00 		lw	a5,%lo(commandBufferIndex)(s4)
 144:main.c        ****     if (commandBufferIndex > 0)
 887              		.loc 1 144 9
 888 00fc 0509     		addi	s2,s2,1
 889              	.LVL90:
 145:main.c        ****       receiveCommands(allPlants, &numberOfPlants);
 890              		.loc 1 145 5 is_stmt 1
 145:main.c        ****       receiveCommands(allPlants, &numberOfPlants);
 891              		.loc 1 145 8 is_stmt 0
 892 00fe 6358F000 		ble	a5,zero,.L33
 146:main.c        **** 
 893              		.loc 1 146 7 is_stmt 1
 894 0102 A285     		mv	a1,s0
 895 0104 2685     		mv	a0,s1
 896 0106 97000000 		call	receiveCommands
GAS LISTING /var/folders/rt/4gvqv631095f64jvm7jfj_000000gn/T//ccNJlW0i.s 			page 22


 896      E7800000 
 897              	.LVL91:
 898              	.L33:
 148:main.c        ****     {
 899              		.loc 1 148 5
 148:main.c        ****     {
 900              		.loc 1 148 9 is_stmt 0
 901 010e 97000000 		call	t5expq
 901      E7800000 
 902              	.LVL92:
 148:main.c        ****     {
 903              		.loc 1 148 8
 904 0116 6DD1     		beq	a0,zero,.L32
 905 0118 8509     		addi	s3,s3,1
 906              	.LVL93:
 150:main.c        ****       ms++;
 907              		.loc 1 150 7 is_stmt 1
 908 011a 97000000 		call	colset
 908      E7800000 
 909              	.LVL94:
 910 0122 97000000 		call	l88row
 910      E7800000 
 911              	.LVL95:
 151:main.c        ****       if (ms == 1000)
 912              		.loc 1 151 7
 913              		.loc 1 152 7
 914              		.loc 1 152 10 is_stmt 0
 915 012a E39759FD 		bne	s3,s5,.L32
 153:main.c        ****       {
 154:main.c        ****         // updatePlantReading(allPlants, numberOfPlants, "Tomat", SUN);
 155:main.c        ****         //  renderAllPlants(allPlants, numberOfPlants);
 156:main.c        ****         // renderOnePlant(allPlants, numberOfPlants, "Tomat");
 157:main.c        **** 
 158:main.c        ****         l88mem(0, idle >> 8); // ...Performance monitor
 916              		.loc 1 158 9 is_stmt 1
 917 012e 93558940 		srai	a1,s2,8
 918 0132 0145     		li	a0,0
 919 0134 97000000 		call	l88mem
 919      E7800000 
 920              	.LVL96:
 159:main.c        ****         l88mem(1, idle);
 921              		.loc 1 159 9
 922 013c CA85     		mv	a1,s2
 923 013e 0545     		li	a0,1
 924 0140 97000000 		call	l88mem
 924      E7800000 
 925              	.LVL97:
 160:main.c        ****         idle = 0;
 926              		.loc 1 160 9
 927              		.loc 1 160 14 is_stmt 0
 928 0148 0149     		li	s2,0
 929 014a 7DB7     		j	.L32
 930              		.cfi_endproc
 931              	.LFE11:
 933              		.section	.rodata.main.str1.4,"aMS",@progbits,1
 934              		.align	2
 935              	.LC10:
GAS LISTING /var/folders/rt/4gvqv631095f64jvm7jfj_000000gn/T//ccNJlW0i.s 			page 23


 936 0000 4775726B 		.string	"Gurka"
 936      6100
 937 0006 0000     		.zero	2
 938              	.LC11:
 939 0008 546F6D61 		.string	"Tomat"
 939      7400
 940 000e 0000     		.zero	2
 941              	.LC12:
 942 0010 4368696C 		.string	"Chili"
 942      6900
 943              		.section	.rodata.receiveCommands.str1.4,"aMS",@progbits,1
 944              		.align	2
 945              	.LC4:
 946 0000 696E2072 		.string	"in receive commands"
 946      65636569 
 946      76652063 
 946      6F6D6D61 
 946      6E647300 
 947              	.LC5:
 948 0014 67657441 		.string	"getAllPlants"
 948      6C6C506C 
 948      616E7473 
 948      00
 949 0021 000000   		.zero	3
 950              	.LC6:
 951 0024 72657475 		.string	"returnMessage"
 951      726E4D65 
 951      73736167 
 951      6500
 952 0032 0000     		.zero	2
 953              	.LC7:
 954 0034 7472616E 		.string	"transmit in session"
 954      736D6974 
 954      20696E20 
 954      73657373 
 954      696F6E00 
 955              	.LC8:
 956 0048 69206865 		.string	"i helvete\n"
 956      6C766574 
 956      650A00
 957 0053 00       		.zero	1
 958              	.LC9:
 959 0054 42414420 		.string	"BAD COMMAND:"
 959      434F4D4D 
 959      414E443A 
 959      00
 960              		.section	.rodata.renderAllPlants.str1.4,"aMS",@progbits,1
 961              		.align	2
 962              	.LC0:
 963 0000 2500     		.string	"%"
 964              		.section	.rodata.renderOnePlant.str1.4,"aMS",@progbits,1
 965              		.align	2
 966              	.LC1:
 967 0000 4E4F2053 		.string	"NO SUCH PLANT"
 967      55434820 
 967      504C414E 
 967      5400
GAS LISTING /var/folders/rt/4gvqv631095f64jvm7jfj_000000gn/T//ccNJlW0i.s 			page 24


 968              		.section	.rodata.updatePlantReading.str1.4,"aMS",@progbits,1
 969              		.align	2
 970              	.LC2:
 971 0000 257300   		.string	"%s"
 972 0003 00       		.zero	1
 973              	.LC3:
 974 0004 53554E20 		.string	"SUN READINGS FULL"
 974      52454144 
 974      494E4753 
 974      2046554C 
 974      4C00
 975              		.text
 976              	.Letext0:
 977              		.file 2 "/Users/alexstrae/toolchain-gd32v-v202-osx/compiler/riscv64-unknown-elf/include/machine/_d
 978              		.file 3 "/Users/alexstrae/toolchain-gd32v-v202-osx/compiler/riscv64-unknown-elf/include/sys/_stdin
 979              		.file 4 "/Users/alexstrae/toolchain-gd32v-v202-osx/compiler/lib/gcc/riscv64-unknown-elf/8.3.0/incl
 980              		.file 5 "/Users/alexstrae/toolchain-gd32v-v202-osx/compiler/riscv64-unknown-elf/include/sys/_types
 981              		.file 6 "/Users/alexstrae/toolchain-gd32v-v202-osx/compiler/riscv64-unknown-elf/include/sys/reent.
 982              		.file 7 "/Users/alexstrae/toolchain-gd32v-v202-osx/compiler/riscv64-unknown-elf/include/sys/lock.h
 983              		.file 8 "../../firmware/GD32VF103_standard_peripheral/system_gd32vf103.h"
 984              		.file 9 "/Users/alexstrae/toolchain-gd32v-v202-osx/compiler/riscv64-unknown-elf/include/stdlib.h"
 985              		.file 10 "lcd.h"
 986              		.file 11 "plant.h"
 987              		.file 12 "usart.h"
 988              		.file 13 "drivers.h"
 989              		.file 14 "utilities.h"
 990              		.file 15 "../../firmware/GD32VF103_standard_peripheral/Include/gd32vf103_rtc.h"
 991              		.file 16 "../../firmware/GD32VF103_standard_peripheral/Include/gd32vf103_eclic.h"
 992              		.file 17 "adc.h"
 993              		.file 18 "/Users/alexstrae/toolchain-gd32v-v202-osx/compiler/riscv64-unknown-elf/include/string.h"
 994              		.file 19 "/Users/alexstrae/toolchain-gd32v-v202-osx/compiler/riscv64-unknown-elf/include/stdio.h"
GAS LISTING /var/folders/rt/4gvqv631095f64jvm7jfj_000000gn/T//ccNJlW0i.s 			page 25


DEFINED SYMBOLS
                            *ABS*:0000000000000000 main.c
/var/folders/rt/4gvqv631095f64jvm7jfj_000000gn/T//ccNJlW0i.s:13     .text.renderAllPlants:0000000000000000 renderAllPlants
/var/folders/rt/4gvqv631095f64jvm7jfj_000000gn/T//ccNJlW0i.s:17     .text.renderAllPlants:0000000000000000 .L0 
/var/folders/rt/4gvqv631095f64jvm7jfj_000000gn/T//ccNJlW0i.s:19     .text.renderAllPlants:0000000000000000 .L0 
/var/folders/rt/4gvqv631095f64jvm7jfj_000000gn/T//ccNJlW0i.s:21     .text.renderAllPlants:0000000000000000 .L0 
/var/folders/rt/4gvqv631095f64jvm7jfj_000000gn/T//ccNJlW0i.s:23     .text.renderAllPlants:0000000000000000 .L0 
/var/folders/rt/4gvqv631095f64jvm7jfj_000000gn/T//ccNJlW0i.s:24     .text.renderAllPlants:0000000000000000 .L0 
/var/folders/rt/4gvqv631095f64jvm7jfj_000000gn/T//ccNJlW0i.s:26     .text.renderAllPlants:0000000000000002 .L0 
/var/folders/rt/4gvqv631095f64jvm7jfj_000000gn/T//ccNJlW0i.s:28     .text.renderAllPlants:0000000000000004 .L0 
/var/folders/rt/4gvqv631095f64jvm7jfj_000000gn/T//ccNJlW0i.s:31     .text.renderAllPlants:0000000000000004 .L0 
/var/folders/rt/4gvqv631095f64jvm7jfj_000000gn/T//ccNJlW0i.s:34     .text.renderAllPlants:0000000000000006 .L0 
/var/folders/rt/4gvqv631095f64jvm7jfj_000000gn/T//ccNJlW0i.s:42     .text.renderAllPlants:0000000000000016 .L0 
/var/folders/rt/4gvqv631095f64jvm7jfj_000000gn/T//ccNJlW0i.s:43     .text.renderAllPlants:0000000000000016 .L0 
/var/folders/rt/4gvqv631095f64jvm7jfj_000000gn/T//ccNJlW0i.s:44     .text.renderAllPlants:0000000000000016 .L0 
/var/folders/rt/4gvqv631095f64jvm7jfj_000000gn/T//ccNJlW0i.s:45     .text.renderAllPlants:0000000000000016 .L0 
/var/folders/rt/4gvqv631095f64jvm7jfj_000000gn/T//ccNJlW0i.s:46     .text.renderAllPlants:0000000000000016 .L0 
/var/folders/rt/4gvqv631095f64jvm7jfj_000000gn/T//ccNJlW0i.s:47     .text.renderAllPlants:0000000000000016 .L0 
/var/folders/rt/4gvqv631095f64jvm7jfj_000000gn/T//ccNJlW0i.s:48     .text.renderAllPlants:0000000000000016 .L0 
/var/folders/rt/4gvqv631095f64jvm7jfj_000000gn/T//ccNJlW0i.s:49     .text.renderAllPlants:0000000000000016 .L0 
/var/folders/rt/4gvqv631095f64jvm7jfj_000000gn/T//ccNJlW0i.s:51     .text.renderAllPlants:0000000000000016 .L0 
/var/folders/rt/4gvqv631095f64jvm7jfj_000000gn/T//ccNJlW0i.s:55     .text.renderAllPlants:000000000000001a .L0 
/var/folders/rt/4gvqv631095f64jvm7jfj_000000gn/T//ccNJlW0i.s:58     .text.renderAllPlants:0000000000000020 .L0 
/var/folders/rt/4gvqv631095f64jvm7jfj_000000gn/T//ccNJlW0i.s:60     .text.renderAllPlants:0000000000000022 .L0 
/var/folders/rt/4gvqv631095f64jvm7jfj_000000gn/T//ccNJlW0i.s:64     .text.renderAllPlants:0000000000000026 .L0 
/var/folders/rt/4gvqv631095f64jvm7jfj_000000gn/T//ccNJlW0i.s:67     .text.renderAllPlants:000000000000002a .L0 
/var/folders/rt/4gvqv631095f64jvm7jfj_000000gn/T//ccNJlW0i.s:68     .text.renderAllPlants:000000000000002c .L0 
/var/folders/rt/4gvqv631095f64jvm7jfj_000000gn/T//ccNJlW0i.s:69     .text.renderAllPlants:000000000000002c .L0 
/var/folders/rt/4gvqv631095f64jvm7jfj_000000gn/T//ccNJlW0i.s:71     .text.renderAllPlants:000000000000002e .L0 
/var/folders/rt/4gvqv631095f64jvm7jfj_000000gn/T//ccNJlW0i.s:73     .text.renderAllPlants:0000000000000030 .L0 
/var/folders/rt/4gvqv631095f64jvm7jfj_000000gn/T//ccNJlW0i.s:75     .text.renderAllPlants:0000000000000032 .L0 
/var/folders/rt/4gvqv631095f64jvm7jfj_000000gn/T//ccNJlW0i.s:77     .text.renderAllPlants:0000000000000034 .L0 
/var/folders/rt/4gvqv631095f64jvm7jfj_000000gn/T//ccNJlW0i.s:80     .text.renderAllPlants:0000000000000036 .L0 
/var/folders/rt/4gvqv631095f64jvm7jfj_000000gn/T//ccNJlW0i.s:82     .text.renderAllPlants:0000000000000038 .L0 
/var/folders/rt/4gvqv631095f64jvm7jfj_000000gn/T//ccNJlW0i.s:84     .text.renderAllPlants:000000000000003a .L0 
/var/folders/rt/4gvqv631095f64jvm7jfj_000000gn/T//ccNJlW0i.s:87     .text.renderAllPlants:000000000000003c .L0 
/var/folders/rt/4gvqv631095f64jvm7jfj_000000gn/T//ccNJlW0i.s:90     .text.renderAllPlants:000000000000003e .L0 
/var/folders/rt/4gvqv631095f64jvm7jfj_000000gn/T//ccNJlW0i.s:95     .text.renderAllPlants:0000000000000040 .L0 
/var/folders/rt/4gvqv631095f64jvm7jfj_000000gn/T//ccNJlW0i.s:98     .text.renderAllPlants:0000000000000040 .L0 
/var/folders/rt/4gvqv631095f64jvm7jfj_000000gn/T//ccNJlW0i.s:104    .text.renderAllPlants:000000000000004c .L0 
/var/folders/rt/4gvqv631095f64jvm7jfj_000000gn/T//ccNJlW0i.s:107    .text.renderAllPlants:000000000000004e .L0 
/var/folders/rt/4gvqv631095f64jvm7jfj_000000gn/T//ccNJlW0i.s:111    .text.renderAllPlants:0000000000000058 .L0 
/var/folders/rt/4gvqv631095f64jvm7jfj_000000gn/T//ccNJlW0i.s:112    .text.renderAllPlants:0000000000000058 .L0 
/var/folders/rt/4gvqv631095f64jvm7jfj_000000gn/T//ccNJlW0i.s:114    .text.renderAllPlants:000000000000005c .L0 
/var/folders/rt/4gvqv631095f64jvm7jfj_000000gn/T//ccNJlW0i.s:117    .text.renderAllPlants:0000000000000060 .L0 
/var/folders/rt/4gvqv631095f64jvm7jfj_000000gn/T//ccNJlW0i.s:120    .text.renderAllPlants:0000000000000064 .L0 
/var/folders/rt/4gvqv631095f64jvm7jfj_000000gn/T//ccNJlW0i.s:126    .text.renderAllPlants:0000000000000072 .L0 
/var/folders/rt/4gvqv631095f64jvm7jfj_000000gn/T//ccNJlW0i.s:135    .text.renderAllPlants:000000000000008a .L0 
/var/folders/rt/4gvqv631095f64jvm7jfj_000000gn/T//ccNJlW0i.s:136    .text.renderAllPlants:000000000000008a .L0 
/var/folders/rt/4gvqv631095f64jvm7jfj_000000gn/T//ccNJlW0i.s:138    .text.renderAllPlants:000000000000008e .L0 
/var/folders/rt/4gvqv631095f64jvm7jfj_000000gn/T//ccNJlW0i.s:141    .text.renderAllPlants:0000000000000092 .L0 
/var/folders/rt/4gvqv631095f64jvm7jfj_000000gn/T//ccNJlW0i.s:145    .text.renderAllPlants:000000000000009a .L0 
/var/folders/rt/4gvqv631095f64jvm7jfj_000000gn/T//ccNJlW0i.s:151    .text.renderAllPlants:00000000000000aa .L0 
/var/folders/rt/4gvqv631095f64jvm7jfj_000000gn/T//ccNJlW0i.s:159    .text.renderAllPlants:00000000000000c0 .L0 
/var/folders/rt/4gvqv631095f64jvm7jfj_000000gn/T//ccNJlW0i.s:169    .text.renderAllPlants:00000000000000de .L0 
/var/folders/rt/4gvqv631095f64jvm7jfj_000000gn/T//ccNJlW0i.s:176    .text.renderOnePlant:0000000000000000 renderOnePlant
/var/folders/rt/4gvqv631095f64jvm7jfj_000000gn/T//ccNJlW0i.s:179    .text.renderOnePlant:0000000000000000 .L0 
GAS LISTING /var/folders/rt/4gvqv631095f64jvm7jfj_000000gn/T//ccNJlW0i.s 			page 26


/var/folders/rt/4gvqv631095f64jvm7jfj_000000gn/T//ccNJlW0i.s:181    .text.renderOnePlant:0000000000000000 .L0 
/var/folders/rt/4gvqv631095f64jvm7jfj_000000gn/T//ccNJlW0i.s:183    .text.renderOnePlant:0000000000000000 .L0 
/var/folders/rt/4gvqv631095f64jvm7jfj_000000gn/T//ccNJlW0i.s:185    .text.renderOnePlant:0000000000000000 .L0 
/var/folders/rt/4gvqv631095f64jvm7jfj_000000gn/T//ccNJlW0i.s:186    .text.renderOnePlant:0000000000000000 .L0 
/var/folders/rt/4gvqv631095f64jvm7jfj_000000gn/T//ccNJlW0i.s:188    .text.renderOnePlant:0000000000000002 .L0 
/var/folders/rt/4gvqv631095f64jvm7jfj_000000gn/T//ccNJlW0i.s:194    .text.renderOnePlant:000000000000000c .L0 
/var/folders/rt/4gvqv631095f64jvm7jfj_000000gn/T//ccNJlW0i.s:195    .text.renderOnePlant:000000000000000c .L0 
/var/folders/rt/4gvqv631095f64jvm7jfj_000000gn/T//ccNJlW0i.s:196    .text.renderOnePlant:000000000000000c .L0 
/var/folders/rt/4gvqv631095f64jvm7jfj_000000gn/T//ccNJlW0i.s:197    .text.renderOnePlant:000000000000000c .L0 
/var/folders/rt/4gvqv631095f64jvm7jfj_000000gn/T//ccNJlW0i.s:198    .text.renderOnePlant:000000000000000c .L0 
/var/folders/rt/4gvqv631095f64jvm7jfj_000000gn/T//ccNJlW0i.s:200    .text.renderOnePlant:000000000000000c .L0 
/var/folders/rt/4gvqv631095f64jvm7jfj_000000gn/T//ccNJlW0i.s:204    .text.renderOnePlant:0000000000000010 .L0 
/var/folders/rt/4gvqv631095f64jvm7jfj_000000gn/T//ccNJlW0i.s:208    .text.renderOnePlant:0000000000000012 .L0 
/var/folders/rt/4gvqv631095f64jvm7jfj_000000gn/T//ccNJlW0i.s:211    .text.renderOnePlant:0000000000000016 .L0 
/var/folders/rt/4gvqv631095f64jvm7jfj_000000gn/T//ccNJlW0i.s:224    .text.renderOnePlant:000000000000002e .L0 
/var/folders/rt/4gvqv631095f64jvm7jfj_000000gn/T//ccNJlW0i.s:225    .text.renderOnePlant:000000000000002e .L0 
/var/folders/rt/4gvqv631095f64jvm7jfj_000000gn/T//ccNJlW0i.s:231    .text.renderOnePlant:000000000000003c .L0 
/var/folders/rt/4gvqv631095f64jvm7jfj_000000gn/T//ccNJlW0i.s:233    .text.renderOnePlant:000000000000003e .L0 
/var/folders/rt/4gvqv631095f64jvm7jfj_000000gn/T//ccNJlW0i.s:238    .text.renderOnePlant:0000000000000048 .L0 
/var/folders/rt/4gvqv631095f64jvm7jfj_000000gn/T//ccNJlW0i.s:247    .text.renderOnePlant:000000000000005c .L0 
/var/folders/rt/4gvqv631095f64jvm7jfj_000000gn/T//ccNJlW0i.s:248    .text.renderOnePlant:000000000000005c .L0 
/var/folders/rt/4gvqv631095f64jvm7jfj_000000gn/T//ccNJlW0i.s:250    .text.renderOnePlant:0000000000000060 .L0 
/var/folders/rt/4gvqv631095f64jvm7jfj_000000gn/T//ccNJlW0i.s:253    .text.renderOnePlant:0000000000000066 .L0 
/var/folders/rt/4gvqv631095f64jvm7jfj_000000gn/T//ccNJlW0i.s:256    .text.renderOnePlant:000000000000006a .L0 
/var/folders/rt/4gvqv631095f64jvm7jfj_000000gn/T//ccNJlW0i.s:262    .text.renderOnePlant:0000000000000078 .L0 
/var/folders/rt/4gvqv631095f64jvm7jfj_000000gn/T//ccNJlW0i.s:272    .text.renderOnePlant:0000000000000092 .L0 
/var/folders/rt/4gvqv631095f64jvm7jfj_000000gn/T//ccNJlW0i.s:273    .text.renderOnePlant:0000000000000092 .L0 
/var/folders/rt/4gvqv631095f64jvm7jfj_000000gn/T//ccNJlW0i.s:275    .text.renderOnePlant:0000000000000096 .L0 
/var/folders/rt/4gvqv631095f64jvm7jfj_000000gn/T//ccNJlW0i.s:278    .text.renderOnePlant:000000000000009c .L0 
/var/folders/rt/4gvqv631095f64jvm7jfj_000000gn/T//ccNJlW0i.s:281    .text.renderOnePlant:00000000000000a0 .L0 
/var/folders/rt/4gvqv631095f64jvm7jfj_000000gn/T//ccNJlW0i.s:287    .text.renderOnePlant:00000000000000b0 .L0 
/var/folders/rt/4gvqv631095f64jvm7jfj_000000gn/T//ccNJlW0i.s:288    .text.renderOnePlant:00000000000000b0 .L0 
/var/folders/rt/4gvqv631095f64jvm7jfj_000000gn/T//ccNJlW0i.s:290    .text.renderOnePlant:00000000000000b4 .L0 
/var/folders/rt/4gvqv631095f64jvm7jfj_000000gn/T//ccNJlW0i.s:293    .text.renderOnePlant:00000000000000ba .L0 
/var/folders/rt/4gvqv631095f64jvm7jfj_000000gn/T//ccNJlW0i.s:297    .text.renderOnePlant:00000000000000c2 .L0 
/var/folders/rt/4gvqv631095f64jvm7jfj_000000gn/T//ccNJlW0i.s:303    .text.renderOnePlant:00000000000000d2 .L0 
/var/folders/rt/4gvqv631095f64jvm7jfj_000000gn/T//ccNJlW0i.s:311    .text.renderOnePlant:00000000000000ea .L0 
/var/folders/rt/4gvqv631095f64jvm7jfj_000000gn/T//ccNJlW0i.s:319    .text.renderOnePlant:0000000000000104 .L0 
/var/folders/rt/4gvqv631095f64jvm7jfj_000000gn/T//ccNJlW0i.s:320    .text.renderOnePlant:0000000000000104 .L0 
/var/folders/rt/4gvqv631095f64jvm7jfj_000000gn/T//ccNJlW0i.s:322    .text.renderOnePlant:0000000000000108 .L0 
/var/folders/rt/4gvqv631095f64jvm7jfj_000000gn/T//ccNJlW0i.s:325    .text.renderOnePlant:000000000000010e .L0 
/var/folders/rt/4gvqv631095f64jvm7jfj_000000gn/T//ccNJlW0i.s:328    .text.renderOnePlant:0000000000000114 .L0 
/var/folders/rt/4gvqv631095f64jvm7jfj_000000gn/T//ccNJlW0i.s:334    .text.renderOnePlant:0000000000000126 .L0 
/var/folders/rt/4gvqv631095f64jvm7jfj_000000gn/T//ccNJlW0i.s:343    .text.renderOnePlant:0000000000000136 .L0 
/var/folders/rt/4gvqv631095f64jvm7jfj_000000gn/T//ccNJlW0i.s:344    .text.renderOnePlant:0000000000000138 .L0 
/var/folders/rt/4gvqv631095f64jvm7jfj_000000gn/T//ccNJlW0i.s:345    .text.renderOnePlant:0000000000000138 .L0 
/var/folders/rt/4gvqv631095f64jvm7jfj_000000gn/T//ccNJlW0i.s:347    .text.renderOnePlant:000000000000013a .L0 
/var/folders/rt/4gvqv631095f64jvm7jfj_000000gn/T//ccNJlW0i.s:349    .text.renderOnePlant:000000000000013c .L0 
/var/folders/rt/4gvqv631095f64jvm7jfj_000000gn/T//ccNJlW0i.s:351    .text.renderOnePlant:000000000000013e .L0 
/var/folders/rt/4gvqv631095f64jvm7jfj_000000gn/T//ccNJlW0i.s:353    .text.renderOnePlant:0000000000000140 .L0 
/var/folders/rt/4gvqv631095f64jvm7jfj_000000gn/T//ccNJlW0i.s:357    .text.renderOnePlant:0000000000000142 .L0 
/var/folders/rt/4gvqv631095f64jvm7jfj_000000gn/T//ccNJlW0i.s:359    .text.renderOnePlant:0000000000000142 .L0 
/var/folders/rt/4gvqv631095f64jvm7jfj_000000gn/T//ccNJlW0i.s:363    .text.renderOnePlant:000000000000014a .L0 
/var/folders/rt/4gvqv631095f64jvm7jfj_000000gn/T//ccNJlW0i.s:366    .text.renderOnePlant:000000000000014a .L0 
/var/folders/rt/4gvqv631095f64jvm7jfj_000000gn/T//ccNJlW0i.s:370    .text.renderOnePlant:000000000000014e .L0 
/var/folders/rt/4gvqv631095f64jvm7jfj_000000gn/T//ccNJlW0i.s:377    .text.updatePlantStatus:0000000000000000 updatePlantStatus
/var/folders/rt/4gvqv631095f64jvm7jfj_000000gn/T//ccNJlW0i.s:380    .text.updatePlantStatus:0000000000000000 .L0 
GAS LISTING /var/folders/rt/4gvqv631095f64jvm7jfj_000000gn/T//ccNJlW0i.s 			page 27


/var/folders/rt/4gvqv631095f64jvm7jfj_000000gn/T//ccNJlW0i.s:381    .text.updatePlantStatus:0000000000000000 .L0 
/var/folders/rt/4gvqv631095f64jvm7jfj_000000gn/T//ccNJlW0i.s:382    .text.updatePlantStatus:0000000000000000 .L0 
/var/folders/rt/4gvqv631095f64jvm7jfj_000000gn/T//ccNJlW0i.s:383    .text.updatePlantStatus:0000000000000002 .L0 
/var/folders/rt/4gvqv631095f64jvm7jfj_000000gn/T//ccNJlW0i.s:390    .text.updatePlantReading:0000000000000000 updatePlantReading
/var/folders/rt/4gvqv631095f64jvm7jfj_000000gn/T//ccNJlW0i.s:393    .text.updatePlantReading:0000000000000000 .L0 
/var/folders/rt/4gvqv631095f64jvm7jfj_000000gn/T//ccNJlW0i.s:395    .text.updatePlantReading:0000000000000000 .L0 
/var/folders/rt/4gvqv631095f64jvm7jfj_000000gn/T//ccNJlW0i.s:397    .text.updatePlantReading:0000000000000000 .L0 
/var/folders/rt/4gvqv631095f64jvm7jfj_000000gn/T//ccNJlW0i.s:399    .text.updatePlantReading:0000000000000000 .L0 
/var/folders/rt/4gvqv631095f64jvm7jfj_000000gn/T//ccNJlW0i.s:400    .text.updatePlantReading:0000000000000000 .L0 
/var/folders/rt/4gvqv631095f64jvm7jfj_000000gn/T//ccNJlW0i.s:402    .text.updatePlantReading:0000000000000002 .L0 
/var/folders/rt/4gvqv631095f64jvm7jfj_000000gn/T//ccNJlW0i.s:408    .text.updatePlantReading:000000000000000c .L0 
/var/folders/rt/4gvqv631095f64jvm7jfj_000000gn/T//ccNJlW0i.s:409    .text.updatePlantReading:000000000000000c .L0 
/var/folders/rt/4gvqv631095f64jvm7jfj_000000gn/T//ccNJlW0i.s:410    .text.updatePlantReading:000000000000000c .L0 
/var/folders/rt/4gvqv631095f64jvm7jfj_000000gn/T//ccNJlW0i.s:411    .text.updatePlantReading:000000000000000c .L0 
/var/folders/rt/4gvqv631095f64jvm7jfj_000000gn/T//ccNJlW0i.s:412    .text.updatePlantReading:000000000000000c .L0 
/var/folders/rt/4gvqv631095f64jvm7jfj_000000gn/T//ccNJlW0i.s:414    .text.updatePlantReading:000000000000000c .L0 
/var/folders/rt/4gvqv631095f64jvm7jfj_000000gn/T//ccNJlW0i.s:418    .text.updatePlantReading:0000000000000010 .L0 
/var/folders/rt/4gvqv631095f64jvm7jfj_000000gn/T//ccNJlW0i.s:420    .text.updatePlantReading:0000000000000012 .L0 
/var/folders/rt/4gvqv631095f64jvm7jfj_000000gn/T//ccNJlW0i.s:424    .text.updatePlantReading:0000000000000014 .L0 
/var/folders/rt/4gvqv631095f64jvm7jfj_000000gn/T//ccNJlW0i.s:427    .text.updatePlantReading:0000000000000018 .L0 
/var/folders/rt/4gvqv631095f64jvm7jfj_000000gn/T//ccNJlW0i.s:437    .text.updatePlantReading:000000000000002e .L0 
/var/folders/rt/4gvqv631095f64jvm7jfj_000000gn/T//ccNJlW0i.s:449    .text.updatePlantReading:0000000000000046 .L0 
/var/folders/rt/4gvqv631095f64jvm7jfj_000000gn/T//ccNJlW0i.s:453    .text.updatePlantReading:000000000000004c .L0 
/var/folders/rt/4gvqv631095f64jvm7jfj_000000gn/T//ccNJlW0i.s:454    .text.updatePlantReading:000000000000004c .L0 
/var/folders/rt/4gvqv631095f64jvm7jfj_000000gn/T//ccNJlW0i.s:458    .text.updatePlantReading:0000000000000056 .L0 
/var/folders/rt/4gvqv631095f64jvm7jfj_000000gn/T//ccNJlW0i.s:463    .text.updatePlantReading:000000000000005c .L0 
/var/folders/rt/4gvqv631095f64jvm7jfj_000000gn/T//ccNJlW0i.s:464    .text.updatePlantReading:000000000000005c .L0 
/var/folders/rt/4gvqv631095f64jvm7jfj_000000gn/T//ccNJlW0i.s:467    .text.updatePlantReading:0000000000000060 .L0 
/var/folders/rt/4gvqv631095f64jvm7jfj_000000gn/T//ccNJlW0i.s:468    .text.updatePlantReading:0000000000000060 .L0 
/var/folders/rt/4gvqv631095f64jvm7jfj_000000gn/T//ccNJlW0i.s:472    .text.updatePlantReading:000000000000006a .L0 
/var/folders/rt/4gvqv631095f64jvm7jfj_000000gn/T//ccNJlW0i.s:473    .text.updatePlantReading:000000000000006a .L0 
/var/folders/rt/4gvqv631095f64jvm7jfj_000000gn/T//ccNJlW0i.s:479    .text.updatePlantReading:000000000000007c .L0 
/var/folders/rt/4gvqv631095f64jvm7jfj_000000gn/T//ccNJlW0i.s:480    .text.updatePlantReading:000000000000007c .L0 
/var/folders/rt/4gvqv631095f64jvm7jfj_000000gn/T//ccNJlW0i.s:481    .text.updatePlantReading:000000000000007c .L0 
/var/folders/rt/4gvqv631095f64jvm7jfj_000000gn/T//ccNJlW0i.s:483    .text.updatePlantReading:0000000000000080 .L0 
/var/folders/rt/4gvqv631095f64jvm7jfj_000000gn/T//ccNJlW0i.s:486    .text.updatePlantReading:0000000000000088 .L0 
/var/folders/rt/4gvqv631095f64jvm7jfj_000000gn/T//ccNJlW0i.s:487    .text.updatePlantReading:0000000000000088 .L0 
/var/folders/rt/4gvqv631095f64jvm7jfj_000000gn/T//ccNJlW0i.s:496    .text.updatePlantReading:000000000000009a .L0 
/var/folders/rt/4gvqv631095f64jvm7jfj_000000gn/T//ccNJlW0i.s:506    .text.updatePlantReading:00000000000000b6 .L0 
/var/folders/rt/4gvqv631095f64jvm7jfj_000000gn/T//ccNJlW0i.s:507    .text.updatePlantReading:00000000000000b6 .L0 
/var/folders/rt/4gvqv631095f64jvm7jfj_000000gn/T//ccNJlW0i.s:515    .text.updatePlantReading:00000000000000c0 .L0 
/var/folders/rt/4gvqv631095f64jvm7jfj_000000gn/T//ccNJlW0i.s:516    .text.updatePlantReading:00000000000000c2 .L0 
/var/folders/rt/4gvqv631095f64jvm7jfj_000000gn/T//ccNJlW0i.s:517    .text.updatePlantReading:00000000000000c2 .L0 
/var/folders/rt/4gvqv631095f64jvm7jfj_000000gn/T//ccNJlW0i.s:519    .text.updatePlantReading:00000000000000c4 .L0 
/var/folders/rt/4gvqv631095f64jvm7jfj_000000gn/T//ccNJlW0i.s:521    .text.updatePlantReading:00000000000000c6 .L0 
/var/folders/rt/4gvqv631095f64jvm7jfj_000000gn/T//ccNJlW0i.s:524    .text.updatePlantReading:00000000000000c8 .L0 
/var/folders/rt/4gvqv631095f64jvm7jfj_000000gn/T//ccNJlW0i.s:527    .text.updatePlantReading:00000000000000ca .L0 
/var/folders/rt/4gvqv631095f64jvm7jfj_000000gn/T//ccNJlW0i.s:530    .text.updatePlantReading:00000000000000cc .L0 
/var/folders/rt/4gvqv631095f64jvm7jfj_000000gn/T//ccNJlW0i.s:535    .text.updatePlantReading:00000000000000ce .L0 
/var/folders/rt/4gvqv631095f64jvm7jfj_000000gn/T//ccNJlW0i.s:539    .text.updatePlantReading:00000000000000ce .L0 
/var/folders/rt/4gvqv631095f64jvm7jfj_000000gn/T//ccNJlW0i.s:548    .text.updatePlantReading:00000000000000e4 .L0 
/var/folders/rt/4gvqv631095f64jvm7jfj_000000gn/T//ccNJlW0i.s:560    .text.updatePlantReading:00000000000000f8 .L0 
/var/folders/rt/4gvqv631095f64jvm7jfj_000000gn/T//ccNJlW0i.s:567    .text.updatePlantReading:0000000000000102 .L0 
/var/folders/rt/4gvqv631095f64jvm7jfj_000000gn/T//ccNJlW0i.s:572    .text.updatePlantReading:000000000000010a .L0 
/var/folders/rt/4gvqv631095f64jvm7jfj_000000gn/T//ccNJlW0i.s:579    .text.receiveCommands:0000000000000000 receiveCommands
/var/folders/rt/4gvqv631095f64jvm7jfj_000000gn/T//ccNJlW0i.s:582    .text.receiveCommands:0000000000000000 .L0 
/var/folders/rt/4gvqv631095f64jvm7jfj_000000gn/T//ccNJlW0i.s:584    .text.receiveCommands:0000000000000000 .L0 
GAS LISTING /var/folders/rt/4gvqv631095f64jvm7jfj_000000gn/T//ccNJlW0i.s 			page 28


/var/folders/rt/4gvqv631095f64jvm7jfj_000000gn/T//ccNJlW0i.s:585    .text.receiveCommands:0000000000000000 .L0 
/var/folders/rt/4gvqv631095f64jvm7jfj_000000gn/T//ccNJlW0i.s:586    .text.receiveCommands:0000000000000000 .L0 
/var/folders/rt/4gvqv631095f64jvm7jfj_000000gn/T//ccNJlW0i.s:588    .text.receiveCommands:0000000000000002 .L0 
/var/folders/rt/4gvqv631095f64jvm7jfj_000000gn/T//ccNJlW0i.s:590    .text.receiveCommands:0000000000000004 .L0 
/var/folders/rt/4gvqv631095f64jvm7jfj_000000gn/T//ccNJlW0i.s:593    .text.receiveCommands:0000000000000006 .L0 
/var/folders/rt/4gvqv631095f64jvm7jfj_000000gn/T//ccNJlW0i.s:596    .text.receiveCommands:0000000000000008 .L0 
/var/folders/rt/4gvqv631095f64jvm7jfj_000000gn/T//ccNJlW0i.s:600    .text.receiveCommands:0000000000000010 .L0 
/var/folders/rt/4gvqv631095f64jvm7jfj_000000gn/T//ccNJlW0i.s:601    .text.receiveCommands:0000000000000010 .L0 
/var/folders/rt/4gvqv631095f64jvm7jfj_000000gn/T//ccNJlW0i.s:602    .text.receiveCommands:0000000000000010 .L0 
/var/folders/rt/4gvqv631095f64jvm7jfj_000000gn/T//ccNJlW0i.s:603    .text.receiveCommands:0000000000000010 .L0 
/var/folders/rt/4gvqv631095f64jvm7jfj_000000gn/T//ccNJlW0i.s:605    .text.receiveCommands:0000000000000010 .L0 
/var/folders/rt/4gvqv631095f64jvm7jfj_000000gn/T//ccNJlW0i.s:607    .text.receiveCommands:0000000000000012 .L0 
/var/folders/rt/4gvqv631095f64jvm7jfj_000000gn/T//ccNJlW0i.s:610    .text.receiveCommands:000000000000001a .L0 
/var/folders/rt/4gvqv631095f64jvm7jfj_000000gn/T//ccNJlW0i.s:621    .text.receiveCommands:0000000000000034 .L0 
/var/folders/rt/4gvqv631095f64jvm7jfj_000000gn/T//ccNJlW0i.s:622    .text.receiveCommands:0000000000000034 .L0 
/var/folders/rt/4gvqv631095f64jvm7jfj_000000gn/T//ccNJlW0i.s:623    .text.receiveCommands:0000000000000034 .L0 
/var/folders/rt/4gvqv631095f64jvm7jfj_000000gn/T//ccNJlW0i.s:625    .text.receiveCommands:0000000000000038 .L0 
/var/folders/rt/4gvqv631095f64jvm7jfj_000000gn/T//ccNJlW0i.s:627    .text.receiveCommands:000000000000003c .L0 
/var/folders/rt/4gvqv631095f64jvm7jfj_000000gn/T//ccNJlW0i.s:630    .text.receiveCommands:0000000000000040 .L0 
/var/folders/rt/4gvqv631095f64jvm7jfj_000000gn/T//ccNJlW0i.s:632    .text.receiveCommands:0000000000000044 .L0 
/var/folders/rt/4gvqv631095f64jvm7jfj_000000gn/T//ccNJlW0i.s:636    .text.receiveCommands:0000000000000046 .L0 
/var/folders/rt/4gvqv631095f64jvm7jfj_000000gn/T//ccNJlW0i.s:638    .text.receiveCommands:000000000000004a .L0 
/var/folders/rt/4gvqv631095f64jvm7jfj_000000gn/T//ccNJlW0i.s:640    .text.receiveCommands:000000000000004e .L0 
/var/folders/rt/4gvqv631095f64jvm7jfj_000000gn/T//ccNJlW0i.s:641    .text.receiveCommands:000000000000004e .L0 
/var/folders/rt/4gvqv631095f64jvm7jfj_000000gn/T//ccNJlW0i.s:644    .text.receiveCommands:0000000000000056 .L0 
/var/folders/rt/4gvqv631095f64jvm7jfj_000000gn/T//ccNJlW0i.s:646    .text.receiveCommands:000000000000005a .L0 
/var/folders/rt/4gvqv631095f64jvm7jfj_000000gn/T//ccNJlW0i.s:647    .text.receiveCommands:000000000000005a .L0 
/var/folders/rt/4gvqv631095f64jvm7jfj_000000gn/T//ccNJlW0i.s:651    .text.receiveCommands:0000000000000066 .L0 
/var/folders/rt/4gvqv631095f64jvm7jfj_000000gn/T//ccNJlW0i.s:653    .text.receiveCommands:000000000000006a .L0 
/var/folders/rt/4gvqv631095f64jvm7jfj_000000gn/T//ccNJlW0i.s:654    .text.receiveCommands:000000000000006a .L0 
/var/folders/rt/4gvqv631095f64jvm7jfj_000000gn/T//ccNJlW0i.s:657    .text.receiveCommands:0000000000000072 .L0 
/var/folders/rt/4gvqv631095f64jvm7jfj_000000gn/T//ccNJlW0i.s:659    .text.receiveCommands:0000000000000074 .L0 
/var/folders/rt/4gvqv631095f64jvm7jfj_000000gn/T//ccNJlW0i.s:662    .text.receiveCommands:000000000000007c .L0 
/var/folders/rt/4gvqv631095f64jvm7jfj_000000gn/T//ccNJlW0i.s:668    .text.receiveCommands:000000000000008a .L0 
/var/folders/rt/4gvqv631095f64jvm7jfj_000000gn/T//ccNJlW0i.s:669    .text.receiveCommands:000000000000008a .L0 
/var/folders/rt/4gvqv631095f64jvm7jfj_000000gn/T//ccNJlW0i.s:673    .text.receiveCommands:000000000000008e .L0 
/var/folders/rt/4gvqv631095f64jvm7jfj_000000gn/T//ccNJlW0i.s:674    .text.receiveCommands:000000000000008e .L0 
/var/folders/rt/4gvqv631095f64jvm7jfj_000000gn/T//ccNJlW0i.s:675    .text.receiveCommands:0000000000000090 .L0 
/var/folders/rt/4gvqv631095f64jvm7jfj_000000gn/T//ccNJlW0i.s:676    .text.receiveCommands:0000000000000090 .L0 
/var/folders/rt/4gvqv631095f64jvm7jfj_000000gn/T//ccNJlW0i.s:678    .text.receiveCommands:0000000000000092 .L0 
/var/folders/rt/4gvqv631095f64jvm7jfj_000000gn/T//ccNJlW0i.s:680    .text.receiveCommands:0000000000000094 .L0 
/var/folders/rt/4gvqv631095f64jvm7jfj_000000gn/T//ccNJlW0i.s:682    .text.receiveCommands:0000000000000096 .L0 
/var/folders/rt/4gvqv631095f64jvm7jfj_000000gn/T//ccNJlW0i.s:685    .text.receiveCommands:0000000000000098 .L0 
/var/folders/rt/4gvqv631095f64jvm7jfj_000000gn/T//ccNJlW0i.s:688    .text.receiveCommands:000000000000009a .L0 
/var/folders/rt/4gvqv631095f64jvm7jfj_000000gn/T//ccNJlW0i.s:693    .text.receiveCommands:000000000000009c .L0 
/var/folders/rt/4gvqv631095f64jvm7jfj_000000gn/T//ccNJlW0i.s:696    .text.receiveCommands:000000000000009c .L0 
/var/folders/rt/4gvqv631095f64jvm7jfj_000000gn/T//ccNJlW0i.s:697    .text.receiveCommands:000000000000009c .L0 
/var/folders/rt/4gvqv631095f64jvm7jfj_000000gn/T//ccNJlW0i.s:703    .text.receiveCommands:00000000000000b0 .L0 
/var/folders/rt/4gvqv631095f64jvm7jfj_000000gn/T//ccNJlW0i.s:705    .text.receiveCommands:00000000000000b2 .L0 
/var/folders/rt/4gvqv631095f64jvm7jfj_000000gn/T//ccNJlW0i.s:708    .text.receiveCommands:00000000000000ba .L0 
/var/folders/rt/4gvqv631095f64jvm7jfj_000000gn/T//ccNJlW0i.s:718    .text.receiveCommands:00000000000000d4 .L0 
/var/folders/rt/4gvqv631095f64jvm7jfj_000000gn/T//ccNJlW0i.s:725    .text.receiveCommands:00000000000000e6 .L0 
/var/folders/rt/4gvqv631095f64jvm7jfj_000000gn/T//ccNJlW0i.s:729    .text.receiveCommands:00000000000000f0 .L0 
/var/folders/rt/4gvqv631095f64jvm7jfj_000000gn/T//ccNJlW0i.s:740    .text.receiveCommands:000000000000010c .L0 
/var/folders/rt/4gvqv631095f64jvm7jfj_000000gn/T//ccNJlW0i.s:751    .text.receiveCommands:0000000000000124 .L0 
/var/folders/rt/4gvqv631095f64jvm7jfj_000000gn/T//ccNJlW0i.s:755    .text.receiveCommands:0000000000000128 .L0 
/var/folders/rt/4gvqv631095f64jvm7jfj_000000gn/T//ccNJlW0i.s:762    .text.startup.main:0000000000000000 main
GAS LISTING /var/folders/rt/4gvqv631095f64jvm7jfj_000000gn/T//ccNJlW0i.s 			page 29


/var/folders/rt/4gvqv631095f64jvm7jfj_000000gn/T//ccNJlW0i.s:765    .text.startup.main:0000000000000000 .L0 
/var/folders/rt/4gvqv631095f64jvm7jfj_000000gn/T//ccNJlW0i.s:766    .text.startup.main:0000000000000000 .L0 
/var/folders/rt/4gvqv631095f64jvm7jfj_000000gn/T//ccNJlW0i.s:768    .text.startup.main:0000000000000000 .L0 
/var/folders/rt/4gvqv631095f64jvm7jfj_000000gn/T//ccNJlW0i.s:769    .text.startup.main:0000000000000000 .L0 
/var/folders/rt/4gvqv631095f64jvm7jfj_000000gn/T//ccNJlW0i.s:770    .text.startup.main:0000000000000000 .L0 
/var/folders/rt/4gvqv631095f64jvm7jfj_000000gn/T//ccNJlW0i.s:771    .text.startup.main:0000000000000000 .L0 
/var/folders/rt/4gvqv631095f64jvm7jfj_000000gn/T//ccNJlW0i.s:773    .text.startup.main:0000000000000002 .L0 
/var/folders/rt/4gvqv631095f64jvm7jfj_000000gn/T//ccNJlW0i.s:776    .text.startup.main:0000000000000008 .L0 
/var/folders/rt/4gvqv631095f64jvm7jfj_000000gn/T//ccNJlW0i.s:779    .text.startup.main:000000000000000c .L0 
/var/folders/rt/4gvqv631095f64jvm7jfj_000000gn/T//ccNJlW0i.s:781    .text.startup.main:0000000000000010 .L0 
/var/folders/rt/4gvqv631095f64jvm7jfj_000000gn/T//ccNJlW0i.s:787    .text.startup.main:0000000000000028 .L0 
/var/folders/rt/4gvqv631095f64jvm7jfj_000000gn/T//ccNJlW0i.s:788    .text.startup.main:0000000000000028 .L0 
/var/folders/rt/4gvqv631095f64jvm7jfj_000000gn/T//ccNJlW0i.s:789    .text.startup.main:0000000000000028 .L0 
/var/folders/rt/4gvqv631095f64jvm7jfj_000000gn/T//ccNJlW0i.s:790    .text.startup.main:0000000000000028 .L0 
/var/folders/rt/4gvqv631095f64jvm7jfj_000000gn/T//ccNJlW0i.s:791    .text.startup.main:0000000000000028 .L0 
/var/folders/rt/4gvqv631095f64jvm7jfj_000000gn/T//ccNJlW0i.s:792    .text.startup.main:0000000000000028 .L0 
/var/folders/rt/4gvqv631095f64jvm7jfj_000000gn/T//ccNJlW0i.s:793    .text.startup.main:0000000000000028 .L0 
/var/folders/rt/4gvqv631095f64jvm7jfj_000000gn/T//ccNJlW0i.s:795    .text.startup.main:0000000000000028 .L0 
/var/folders/rt/4gvqv631095f64jvm7jfj_000000gn/T//ccNJlW0i.s:797    .text.startup.main:000000000000002a .L0 
/var/folders/rt/4gvqv631095f64jvm7jfj_000000gn/T//ccNJlW0i.s:799    .text.startup.main:000000000000002c .L0 
/var/folders/rt/4gvqv631095f64jvm7jfj_000000gn/T//ccNJlW0i.s:801    .text.startup.main:000000000000002c .L0 
/var/folders/rt/4gvqv631095f64jvm7jfj_000000gn/T//ccNJlW0i.s:813    .text.startup.main:000000000000004c .L0 
/var/folders/rt/4gvqv631095f64jvm7jfj_000000gn/T//ccNJlW0i.s:815    .text.startup.main:000000000000004e .L0 
/var/folders/rt/4gvqv631095f64jvm7jfj_000000gn/T//ccNJlW0i.s:818    .text.startup.main:0000000000000056 .L0 
/var/folders/rt/4gvqv631095f64jvm7jfj_000000gn/T//ccNJlW0i.s:825    .text.startup.main:000000000000006a .L0 
/var/folders/rt/4gvqv631095f64jvm7jfj_000000gn/T//ccNJlW0i.s:832    .text.startup.main:000000000000007e .L0 
/var/folders/rt/4gvqv631095f64jvm7jfj_000000gn/T//ccNJlW0i.s:835    .text.startup.main:0000000000000086 .L0 
/var/folders/rt/4gvqv631095f64jvm7jfj_000000gn/T//ccNJlW0i.s:838    .text.startup.main:000000000000008e .L0 
/var/folders/rt/4gvqv631095f64jvm7jfj_000000gn/T//ccNJlW0i.s:841    .text.startup.main:0000000000000096 .L0 
/var/folders/rt/4gvqv631095f64jvm7jfj_000000gn/T//ccNJlW0i.s:844    .text.startup.main:000000000000009e .L0 
/var/folders/rt/4gvqv631095f64jvm7jfj_000000gn/T//ccNJlW0i.s:848    .text.startup.main:00000000000000a8 .L0 
/var/folders/rt/4gvqv631095f64jvm7jfj_000000gn/T//ccNJlW0i.s:852    .text.startup.main:00000000000000b2 .L0 
/var/folders/rt/4gvqv631095f64jvm7jfj_000000gn/T//ccNJlW0i.s:855    .text.startup.main:00000000000000ba .L0 
/var/folders/rt/4gvqv631095f64jvm7jfj_000000gn/T//ccNJlW0i.s:859    .text.startup.main:00000000000000c4 .L0 
/var/folders/rt/4gvqv631095f64jvm7jfj_000000gn/T//ccNJlW0i.s:863    .text.startup.main:00000000000000ce .L0 
/var/folders/rt/4gvqv631095f64jvm7jfj_000000gn/T//ccNJlW0i.s:866    .text.startup.main:00000000000000d6 .L0 
/var/folders/rt/4gvqv631095f64jvm7jfj_000000gn/T//ccNJlW0i.s:874    .text.startup.main:00000000000000ec .L0 
/var/folders/rt/4gvqv631095f64jvm7jfj_000000gn/T//ccNJlW0i.s:876    .text.startup.main:00000000000000ee .L0 
/var/folders/rt/4gvqv631095f64jvm7jfj_000000gn/T//ccNJlW0i.s:878    .text.startup.main:00000000000000f0 .L0 
/var/folders/rt/4gvqv631095f64jvm7jfj_000000gn/T//ccNJlW0i.s:880    .text.startup.main:00000000000000f4 .L0 
/var/folders/rt/4gvqv631095f64jvm7jfj_000000gn/T//ccNJlW0i.s:884    .text.startup.main:00000000000000f8 .L0 
/var/folders/rt/4gvqv631095f64jvm7jfj_000000gn/T//ccNJlW0i.s:885    .text.startup.main:00000000000000f8 .L0 
/var/folders/rt/4gvqv631095f64jvm7jfj_000000gn/T//ccNJlW0i.s:886    .text.startup.main:00000000000000f8 .L0 
/var/folders/rt/4gvqv631095f64jvm7jfj_000000gn/T//ccNJlW0i.s:888    .text.startup.main:00000000000000fc .L0 
/var/folders/rt/4gvqv631095f64jvm7jfj_000000gn/T//ccNJlW0i.s:891    .text.startup.main:00000000000000fe .L0 
/var/folders/rt/4gvqv631095f64jvm7jfj_000000gn/T//ccNJlW0i.s:892    .text.startup.main:00000000000000fe .L0 
/var/folders/rt/4gvqv631095f64jvm7jfj_000000gn/T//ccNJlW0i.s:894    .text.startup.main:0000000000000102 .L0 
/var/folders/rt/4gvqv631095f64jvm7jfj_000000gn/T//ccNJlW0i.s:900    .text.startup.main:000000000000010e .L0 
/var/folders/rt/4gvqv631095f64jvm7jfj_000000gn/T//ccNJlW0i.s:901    .text.startup.main:000000000000010e .L0 
/var/folders/rt/4gvqv631095f64jvm7jfj_000000gn/T//ccNJlW0i.s:904    .text.startup.main:0000000000000116 .L0 
/var/folders/rt/4gvqv631095f64jvm7jfj_000000gn/T//ccNJlW0i.s:908    .text.startup.main:000000000000011a .L0 
/var/folders/rt/4gvqv631095f64jvm7jfj_000000gn/T//ccNJlW0i.s:913    .text.startup.main:000000000000012a .L0 
/var/folders/rt/4gvqv631095f64jvm7jfj_000000gn/T//ccNJlW0i.s:914    .text.startup.main:000000000000012a .L0 
/var/folders/rt/4gvqv631095f64jvm7jfj_000000gn/T//ccNJlW0i.s:915    .text.startup.main:000000000000012a .L0 
/var/folders/rt/4gvqv631095f64jvm7jfj_000000gn/T//ccNJlW0i.s:917    .text.startup.main:000000000000012e .L0 
/var/folders/rt/4gvqv631095f64jvm7jfj_000000gn/T//ccNJlW0i.s:922    .text.startup.main:000000000000013c .L0 
/var/folders/rt/4gvqv631095f64jvm7jfj_000000gn/T//ccNJlW0i.s:927    .text.startup.main:0000000000000148 .L0 
GAS LISTING /var/folders/rt/4gvqv631095f64jvm7jfj_000000gn/T//ccNJlW0i.s 			page 30


/var/folders/rt/4gvqv631095f64jvm7jfj_000000gn/T//ccNJlW0i.s:928    .text.startup.main:0000000000000148 .L0 
/var/folders/rt/4gvqv631095f64jvm7jfj_000000gn/T//ccNJlW0i.s:930    .text.startup.main:000000000000014c .L0 
/var/folders/rt/4gvqv631095f64jvm7jfj_000000gn/T//ccNJlW0i.s:172    .text.renderAllPlants:00000000000000de .L0 
/var/folders/rt/4gvqv631095f64jvm7jfj_000000gn/T//ccNJlW0i.s:373    .text.renderOnePlant:000000000000014e .L0 
/var/folders/rt/4gvqv631095f64jvm7jfj_000000gn/T//ccNJlW0i.s:386    .text.updatePlantStatus:0000000000000002 .L0 
/var/folders/rt/4gvqv631095f64jvm7jfj_000000gn/T//ccNJlW0i.s:575    .text.updatePlantReading:000000000000010a .L0 
/var/folders/rt/4gvqv631095f64jvm7jfj_000000gn/T//ccNJlW0i.s:758    .text.receiveCommands:0000000000000128 .L0 
/var/folders/rt/4gvqv631095f64jvm7jfj_000000gn/T//ccNJlW0i.s:933    .text.startup.main:000000000000014c .L0 
                     .debug_frame:0000000000000000 .L0 
/var/folders/rt/4gvqv631095f64jvm7jfj_000000gn/T//ccNJlW0i.s:962    .rodata.renderAllPlants.str1.4:0000000000000000 .LC0
/var/folders/rt/4gvqv631095f64jvm7jfj_000000gn/T//ccNJlW0i.s:93     .text.renderAllPlants:0000000000000040 .L3
/var/folders/rt/4gvqv631095f64jvm7jfj_000000gn/T//ccNJlW0i.s:62     .text.renderAllPlants:0000000000000026 .L2
/var/folders/rt/4gvqv631095f64jvm7jfj_000000gn/T//ccNJlW0i.s:966    .rodata.renderOnePlant.str1.4:0000000000000000 .LC1
/var/folders/rt/4gvqv631095f64jvm7jfj_000000gn/T//ccNJlW0i.s:221    .text.renderOnePlant:000000000000002e .L8
/var/folders/rt/4gvqv631095f64jvm7jfj_000000gn/T//ccNJlW0i.s:340    .text.renderOnePlant:0000000000000136 .L10
/var/folders/rt/4gvqv631095f64jvm7jfj_000000gn/T//ccNJlW0i.s:361    .text.renderOnePlant:000000000000014a .L7
/var/folders/rt/4gvqv631095f64jvm7jfj_000000gn/T//ccNJlW0i.s:206    .text.renderOnePlant:0000000000000012 .L6
/var/folders/rt/4gvqv631095f64jvm7jfj_000000gn/T//ccNJlW0i.s:970    .rodata.updatePlantReading.str1.4:0000000000000000 .LC2
/var/folders/rt/4gvqv631095f64jvm7jfj_000000gn/T//ccNJlW0i.s:973    .rodata.updatePlantReading.str1.4:0000000000000004 .LC3
/var/folders/rt/4gvqv631095f64jvm7jfj_000000gn/T//ccNJlW0i.s:446    .text.updatePlantReading:0000000000000046 .L19
/var/folders/rt/4gvqv631095f64jvm7jfj_000000gn/T//ccNJlW0i.s:556    .text.updatePlantReading:00000000000000f8 .L21
/var/folders/rt/4gvqv631095f64jvm7jfj_000000gn/T//ccNJlW0i.s:564    .text.updatePlantReading:0000000000000102 .L14
/var/folders/rt/4gvqv631095f64jvm7jfj_000000gn/T//ccNJlW0i.s:533    .text.updatePlantReading:00000000000000ce .L15
/var/folders/rt/4gvqv631095f64jvm7jfj_000000gn/T//ccNJlW0i.s:493    .text.updatePlantReading:0000000000000098 .L16
/var/folders/rt/4gvqv631095f64jvm7jfj_000000gn/T//ccNJlW0i.s:511    .text.updatePlantReading:00000000000000c0 .L12
/var/folders/rt/4gvqv631095f64jvm7jfj_000000gn/T//ccNJlW0i.s:422    .text.updatePlantReading:0000000000000014 .L13
/var/folders/rt/4gvqv631095f64jvm7jfj_000000gn/T//ccNJlW0i.s:945    .rodata.receiveCommands.str1.4:0000000000000000 .LC4
/var/folders/rt/4gvqv631095f64jvm7jfj_000000gn/T//ccNJlW0i.s:947    .rodata.receiveCommands.str1.4:0000000000000014 .LC5
/var/folders/rt/4gvqv631095f64jvm7jfj_000000gn/T//ccNJlW0i.s:950    .rodata.receiveCommands.str1.4:0000000000000024 .LC6
/var/folders/rt/4gvqv631095f64jvm7jfj_000000gn/T//ccNJlW0i.s:953    .rodata.receiveCommands.str1.4:0000000000000034 .LC7
/var/folders/rt/4gvqv631095f64jvm7jfj_000000gn/T//ccNJlW0i.s:955    .rodata.receiveCommands.str1.4:0000000000000048 .LC8
/var/folders/rt/4gvqv631095f64jvm7jfj_000000gn/T//ccNJlW0i.s:958    .rodata.receiveCommands.str1.4:0000000000000054 .LC9
/var/folders/rt/4gvqv631095f64jvm7jfj_000000gn/T//ccNJlW0i.s:671    .text.receiveCommands:000000000000008e .L22
/var/folders/rt/4gvqv631095f64jvm7jfj_000000gn/T//ccNJlW0i.s:749    .text.receiveCommands:0000000000000124 .L24
/var/folders/rt/4gvqv631095f64jvm7jfj_000000gn/T//ccNJlW0i.s:691    .text.receiveCommands:000000000000009c .L25
/var/folders/rt/4gvqv631095f64jvm7jfj_000000gn/T//ccNJlW0i.s:723    .text.receiveCommands:00000000000000e6 .L27
/var/folders/rt/4gvqv631095f64jvm7jfj_000000gn/T//ccNJlW0i.s:666    .text.receiveCommands:000000000000008a .L26
/var/folders/rt/4gvqv631095f64jvm7jfj_000000gn/T//ccNJlW0i.s:634    .text.receiveCommands:0000000000000046 .L23
/var/folders/rt/4gvqv631095f64jvm7jfj_000000gn/T//ccNJlW0i.s:935    .rodata.main.str1.4:0000000000000000 .LC10
/var/folders/rt/4gvqv631095f64jvm7jfj_000000gn/T//ccNJlW0i.s:938    .rodata.main.str1.4:0000000000000008 .LC11
/var/folders/rt/4gvqv631095f64jvm7jfj_000000gn/T//ccNJlW0i.s:941    .rodata.main.str1.4:0000000000000010 .LC12
/var/folders/rt/4gvqv631095f64jvm7jfj_000000gn/T//ccNJlW0i.s:898    .text.startup.main:000000000000010e .L33
/var/folders/rt/4gvqv631095f64jvm7jfj_000000gn/T//ccNJlW0i.s:882    .text.startup.main:00000000000000f8 .L32
/var/folders/rt/4gvqv631095f64jvm7jfj_000000gn/T//ccNJlW0i.s:4052   .debug_abbrev:0000000000000000 .Ldebug_abbrev0
/var/folders/rt/4gvqv631095f64jvm7jfj_000000gn/T//ccNJlW0i.s:5765   .debug_str:000000000000058e .LASF174
/var/folders/rt/4gvqv631095f64jvm7jfj_000000gn/T//ccNJlW0i.s:5623   .debug_str:00000000000002d6 .LASF175
/var/folders/rt/4gvqv631095f64jvm7jfj_000000gn/T//ccNJlW0i.s:5769   .debug_str:000000000000061f .LASF176
/var/folders/rt/4gvqv631095f64jvm7jfj_000000gn/T//ccNJlW0i.s:5419   .debug_ranges:0000000000000000 .Ldebug_ranges0
/var/folders/rt/4gvqv631095f64jvm7jfj_000000gn/T//ccNJlW0i.s:5479   .debug_line:0000000000000000 .Ldebug_line0
/var/folders/rt/4gvqv631095f64jvm7jfj_000000gn/T//ccNJlW0i.s:5751   .debug_str:0000000000000545 .LASF0
/var/folders/rt/4gvqv631095f64jvm7jfj_000000gn/T//ccNJlW0i.s:5525   .debug_str:00000000000000e7 .LASF1
/var/folders/rt/4gvqv631095f64jvm7jfj_000000gn/T//ccNJlW0i.s:5681   .debug_str:000000000000040b .LASF2
/var/folders/rt/4gvqv631095f64jvm7jfj_000000gn/T//ccNJlW0i.s:5483   .debug_str:000000000000000c .LASF3
/var/folders/rt/4gvqv631095f64jvm7jfj_000000gn/T//ccNJlW0i.s:5773   .debug_str:0000000000000674 .LASF4
/var/folders/rt/4gvqv631095f64jvm7jfj_000000gn/T//ccNJlW0i.s:5499   .debug_str:000000000000004e .LASF5
/var/folders/rt/4gvqv631095f64jvm7jfj_000000gn/T//ccNJlW0i.s:5573   .debug_str:00000000000001de .LASF9
/var/folders/rt/4gvqv631095f64jvm7jfj_000000gn/T//ccNJlW0i.s:5597   .debug_str:0000000000000248 .LASF6
GAS LISTING /var/folders/rt/4gvqv631095f64jvm7jfj_000000gn/T//ccNJlW0i.s 			page 31


/var/folders/rt/4gvqv631095f64jvm7jfj_000000gn/T//ccNJlW0i.s:5559   .debug_str:000000000000018e .LASF7
/var/folders/rt/4gvqv631095f64jvm7jfj_000000gn/T//ccNJlW0i.s:5507   .debug_str:0000000000000082 .LASF8
/var/folders/rt/4gvqv631095f64jvm7jfj_000000gn/T//ccNJlW0i.s:5787   .debug_str:00000000000006c4 .LASF10
/var/folders/rt/4gvqv631095f64jvm7jfj_000000gn/T//ccNJlW0i.s:5591   .debug_str:0000000000000228 .LASF120
/var/folders/rt/4gvqv631095f64jvm7jfj_000000gn/T//ccNJlW0i.s:5741   .debug_str:000000000000051e .LASF11
/var/folders/rt/4gvqv631095f64jvm7jfj_000000gn/T//ccNJlW0i.s:5729   .debug_str:00000000000004ef .LASF12
/var/folders/rt/4gvqv631095f64jvm7jfj_000000gn/T//ccNJlW0i.s:5521   .debug_str:00000000000000d9 .LASF13
/var/folders/rt/4gvqv631095f64jvm7jfj_000000gn/T//ccNJlW0i.s:5739   .debug_str:0000000000000516 .LASF14
/var/folders/rt/4gvqv631095f64jvm7jfj_000000gn/T//ccNJlW0i.s:5799   .debug_str:0000000000000707 .LASF15
/var/folders/rt/4gvqv631095f64jvm7jfj_000000gn/T//ccNJlW0i.s:5621   .debug_str:00000000000002d0 .LASF16
/var/folders/rt/4gvqv631095f64jvm7jfj_000000gn/T//ccNJlW0i.s:5589   .debug_str:0000000000000221 .LASF17
/var/folders/rt/4gvqv631095f64jvm7jfj_000000gn/T//ccNJlW0i.s:5731   .debug_str:00000000000004f6 .LASF18
/var/folders/rt/4gvqv631095f64jvm7jfj_000000gn/T//ccNJlW0i.s:5733   .debug_str:00000000000004fe .LASF19
/var/folders/rt/4gvqv631095f64jvm7jfj_000000gn/T//ccNJlW0i.s:5673   .debug_str:00000000000003e0 .LASF20
/var/folders/rt/4gvqv631095f64jvm7jfj_000000gn/T//ccNJlW0i.s:5779   .debug_str:0000000000000693 .LASF21
/var/folders/rt/4gvqv631095f64jvm7jfj_000000gn/T//ccNJlW0i.s:5677   .debug_str:00000000000003f1 .LASF22
/var/folders/rt/4gvqv631095f64jvm7jfj_000000gn/T//ccNJlW0i.s:5687   .debug_str:0000000000000428 .LASF23
/var/folders/rt/4gvqv631095f64jvm7jfj_000000gn/T//ccNJlW0i.s:5581   .debug_str:0000000000000203 .LASF28
/var/folders/rt/4gvqv631095f64jvm7jfj_000000gn/T//ccNJlW0i.s:5761   .debug_str:000000000000057b .LASF24
/var/folders/rt/4gvqv631095f64jvm7jfj_000000gn/T//ccNJlW0i.s:5723   .debug_str:00000000000004da .LASF25
/var/folders/rt/4gvqv631095f64jvm7jfj_000000gn/T//ccNJlW0i.s:5575   .debug_str:00000000000001e9 .LASF26
/var/folders/rt/4gvqv631095f64jvm7jfj_000000gn/T//ccNJlW0i.s:5793   .debug_str:00000000000006ea .LASF27
/var/folders/rt/4gvqv631095f64jvm7jfj_000000gn/T//ccNJlW0i.s:5587   .debug_str:000000000000021c .LASF29
/var/folders/rt/4gvqv631095f64jvm7jfj_000000gn/T//ccNJlW0i.s:5517   .debug_str:00000000000000c9 .LASF30
/var/folders/rt/4gvqv631095f64jvm7jfj_000000gn/T//ccNJlW0i.s:5817   .debug_str:0000000000000761 .LASF31
/var/folders/rt/4gvqv631095f64jvm7jfj_000000gn/T//ccNJlW0i.s:5533   .debug_str:0000000000000108 .LASF32
/var/folders/rt/4gvqv631095f64jvm7jfj_000000gn/T//ccNJlW0i.s:5835   .debug_str:00000000000007c2 .LASF33
/var/folders/rt/4gvqv631095f64jvm7jfj_000000gn/T//ccNJlW0i.s:5651   .debug_str:0000000000000368 .LASF34
/var/folders/rt/4gvqv631095f64jvm7jfj_000000gn/T//ccNJlW0i.s:5639   .debug_str:000000000000031d .LASF35
/var/folders/rt/4gvqv631095f64jvm7jfj_000000gn/T//ccNJlW0i.s:5737   .debug_str:000000000000050c .LASF36
/var/folders/rt/4gvqv631095f64jvm7jfj_000000gn/T//ccNJlW0i.s:5689   .debug_str:0000000000000431 .LASF37
/var/folders/rt/4gvqv631095f64jvm7jfj_000000gn/T//ccNJlW0i.s:5813   .debug_str:0000000000000747 .LASF38
/var/folders/rt/4gvqv631095f64jvm7jfj_000000gn/T//ccNJlW0i.s:5537   .debug_str:0000000000000117 .LASF39
/var/folders/rt/4gvqv631095f64jvm7jfj_000000gn/T//ccNJlW0i.s:5487   .debug_str:000000000000001d .LASF40
/var/folders/rt/4gvqv631095f64jvm7jfj_000000gn/T//ccNJlW0i.s:5481   .debug_str:0000000000000000 .LASF41
/var/folders/rt/4gvqv631095f64jvm7jfj_000000gn/T//ccNJlW0i.s:5767   .debug_str:0000000000000616 .LASF42
/var/folders/rt/4gvqv631095f64jvm7jfj_000000gn/T//ccNJlW0i.s:5551   .debug_str:0000000000000162 .LASF43
/var/folders/rt/4gvqv631095f64jvm7jfj_000000gn/T//ccNJlW0i.s:5653   .debug_str:0000000000000371 .LASF44
/var/folders/rt/4gvqv631095f64jvm7jfj_000000gn/T//ccNJlW0i.s:5713   .debug_str:00000000000004a0 .LASF45
/var/folders/rt/4gvqv631095f64jvm7jfj_000000gn/T//ccNJlW0i.s:5571   .debug_str:00000000000001d9 .LASF46
/var/folders/rt/4gvqv631095f64jvm7jfj_000000gn/T//ccNJlW0i.s:5691   .debug_str:000000000000043b .LASF47
/var/folders/rt/4gvqv631095f64jvm7jfj_000000gn/T//ccNJlW0i.s:5531   .debug_str:0000000000000102 .LASF48
/var/folders/rt/4gvqv631095f64jvm7jfj_000000gn/T//ccNJlW0i.s:5749   .debug_str:000000000000053f .LASF49
/var/folders/rt/4gvqv631095f64jvm7jfj_000000gn/T//ccNJlW0i.s:5699   .debug_str:0000000000000458 .LASF50
/var/folders/rt/4gvqv631095f64jvm7jfj_000000gn/T//ccNJlW0i.s:5549   .debug_str:000000000000015b .LASF51
/var/folders/rt/4gvqv631095f64jvm7jfj_000000gn/T//ccNJlW0i.s:5599   .debug_str:000000000000025a .LASF52
/var/folders/rt/4gvqv631095f64jvm7jfj_000000gn/T//ccNJlW0i.s:5831   .debug_str:00000000000007ad .LASF53
/var/folders/rt/4gvqv631095f64jvm7jfj_000000gn/T//ccNJlW0i.s:5541   .debug_str:000000000000012d .LASF54
/var/folders/rt/4gvqv631095f64jvm7jfj_000000gn/T//ccNJlW0i.s:5585   .debug_str:0000000000000216 .LASF55
/var/folders/rt/4gvqv631095f64jvm7jfj_000000gn/T//ccNJlW0i.s:5637   .debug_str:0000000000000316 .LASF56
/var/folders/rt/4gvqv631095f64jvm7jfj_000000gn/T//ccNJlW0i.s:5735   .debug_str:0000000000000506 .LASF57
/var/folders/rt/4gvqv631095f64jvm7jfj_000000gn/T//ccNJlW0i.s:5523   .debug_str:00000000000000e0 .LASF58
/var/folders/rt/4gvqv631095f64jvm7jfj_000000gn/T//ccNJlW0i.s:5529   .debug_str:00000000000000fc .LASF59
/var/folders/rt/4gvqv631095f64jvm7jfj_000000gn/T//ccNJlW0i.s:5807   .debug_str:000000000000072e .LASF60
/var/folders/rt/4gvqv631095f64jvm7jfj_000000gn/T//ccNJlW0i.s:5747   .debug_str:0000000000000536 .LASF61
/var/folders/rt/4gvqv631095f64jvm7jfj_000000gn/T//ccNJlW0i.s:5563   .debug_str:00000000000001a4 .LASF62
/var/folders/rt/4gvqv631095f64jvm7jfj_000000gn/T//ccNJlW0i.s:5605   .debug_str:000000000000026c .LASF63
GAS LISTING /var/folders/rt/4gvqv631095f64jvm7jfj_000000gn/T//ccNJlW0i.s 			page 32


/var/folders/rt/4gvqv631095f64jvm7jfj_000000gn/T//ccNJlW0i.s:5627   .debug_str:00000000000002e2 .LASF64
/var/folders/rt/4gvqv631095f64jvm7jfj_000000gn/T//ccNJlW0i.s:5701   .debug_str:0000000000000460 .LASF65
/var/folders/rt/4gvqv631095f64jvm7jfj_000000gn/T//ccNJlW0i.s:5693   .debug_str:0000000000000442 .LASF66
/var/folders/rt/4gvqv631095f64jvm7jfj_000000gn/T//ccNJlW0i.s:5725   .debug_str:00000000000004e2 .LASF67
/var/folders/rt/4gvqv631095f64jvm7jfj_000000gn/T//ccNJlW0i.s:5743   .debug_str:000000000000052a .LASF68
/var/folders/rt/4gvqv631095f64jvm7jfj_000000gn/T//ccNJlW0i.s:5553   .debug_str:000000000000016a .LASF69
/var/folders/rt/4gvqv631095f64jvm7jfj_000000gn/T//ccNJlW0i.s:5593   .debug_str:0000000000000238 .LASF70
/var/folders/rt/4gvqv631095f64jvm7jfj_000000gn/T//ccNJlW0i.s:5579   .debug_str:00000000000001fb .LASF71
/var/folders/rt/4gvqv631095f64jvm7jfj_000000gn/T//ccNJlW0i.s:5711   .debug_str:000000000000049b .LASF72
/var/folders/rt/4gvqv631095f64jvm7jfj_000000gn/T//ccNJlW0i.s:5491   .debug_str:000000000000002d .LASF73
/var/folders/rt/4gvqv631095f64jvm7jfj_000000gn/T//ccNJlW0i.s:5721   .debug_str:00000000000004c1 .LASF74
/var/folders/rt/4gvqv631095f64jvm7jfj_000000gn/T//ccNJlW0i.s:5717   .debug_str:00000000000004af .LASF75
/var/folders/rt/4gvqv631095f64jvm7jfj_000000gn/T//ccNJlW0i.s:5659   .debug_str:0000000000000390 .LASF76
/var/folders/rt/4gvqv631095f64jvm7jfj_000000gn/T//ccNJlW0i.s:5719   .debug_str:00000000000004b7 .LASF77
/var/folders/rt/4gvqv631095f64jvm7jfj_000000gn/T//ccNJlW0i.s:5619   .debug_str:00000000000002c8 .LASF78
/var/folders/rt/4gvqv631095f64jvm7jfj_000000gn/T//ccNJlW0i.s:5557   .debug_str:0000000000000184 .LASF79
/var/folders/rt/4gvqv631095f64jvm7jfj_000000gn/T//ccNJlW0i.s:5827   .debug_str:00000000000007a3 .LASF80
/var/folders/rt/4gvqv631095f64jvm7jfj_000000gn/T//ccNJlW0i.s:5671   .debug_str:00000000000003d6 .LASF81
/var/folders/rt/4gvqv631095f64jvm7jfj_000000gn/T//ccNJlW0i.s:5595   .debug_str:0000000000000240 .LASF82
/var/folders/rt/4gvqv631095f64jvm7jfj_000000gn/T//ccNJlW0i.s:5561   .debug_str:000000000000019c .LASF83
/var/folders/rt/4gvqv631095f64jvm7jfj_000000gn/T//ccNJlW0i.s:5625   .debug_str:00000000000002dd .LASF84
/var/folders/rt/4gvqv631095f64jvm7jfj_000000gn/T//ccNJlW0i.s:5495   .debug_str:0000000000000040 .LASF85
/var/folders/rt/4gvqv631095f64jvm7jfj_000000gn/T//ccNJlW0i.s:5803   .debug_str:000000000000071a .LASF86
/var/folders/rt/4gvqv631095f64jvm7jfj_000000gn/T//ccNJlW0i.s:5543   .debug_str:0000000000000135 .LASF87
/var/folders/rt/4gvqv631095f64jvm7jfj_000000gn/T//ccNJlW0i.s:5535   .debug_str:0000000000000112 .LASF88
/var/folders/rt/4gvqv631095f64jvm7jfj_000000gn/T//ccNJlW0i.s:5745   .debug_str:0000000000000531 .LASF89
/var/folders/rt/4gvqv631095f64jvm7jfj_000000gn/T//ccNJlW0i.s:5697   .debug_str:0000000000000451 .LASF90
/var/folders/rt/4gvqv631095f64jvm7jfj_000000gn/T//ccNJlW0i.s:5795   .debug_str:00000000000006ef .LASF91
/var/folders/rt/4gvqv631095f64jvm7jfj_000000gn/T//ccNJlW0i.s:5607   .debug_str:0000000000000272 .LASF92
/var/folders/rt/4gvqv631095f64jvm7jfj_000000gn/T//ccNJlW0i.s:5683   .debug_str:0000000000000419 .LASF93
/var/folders/rt/4gvqv631095f64jvm7jfj_000000gn/T//ccNJlW0i.s:5489   .debug_str:0000000000000025 .LASF94
/var/folders/rt/4gvqv631095f64jvm7jfj_000000gn/T//ccNJlW0i.s:5727   .debug_str:00000000000004e9 .LASF95
/var/folders/rt/4gvqv631095f64jvm7jfj_000000gn/T//ccNJlW0i.s:5629   .debug_str:00000000000002e8 .LASF96
/var/folders/rt/4gvqv631095f64jvm7jfj_000000gn/T//ccNJlW0i.s:5775   .debug_str:0000000000000687 .LASF97
/var/folders/rt/4gvqv631095f64jvm7jfj_000000gn/T//ccNJlW0i.s:5789   .debug_str:00000000000006cd .LASF98
/var/folders/rt/4gvqv631095f64jvm7jfj_000000gn/T//ccNJlW0i.s:5763   .debug_str:0000000000000581 .LASF99
/var/folders/rt/4gvqv631095f64jvm7jfj_000000gn/T//ccNJlW0i.s:5617   .debug_str:00000000000002bb .LASF100
/var/folders/rt/4gvqv631095f64jvm7jfj_000000gn/T//ccNJlW0i.s:5815   .debug_str:0000000000000752 .LASF101
/var/folders/rt/4gvqv631095f64jvm7jfj_000000gn/T//ccNJlW0i.s:5661   .debug_str:000000000000039b .LASF102
/var/folders/rt/4gvqv631095f64jvm7jfj_000000gn/T//ccNJlW0i.s:5613   .debug_str:00000000000002a4 .LASF103
/var/folders/rt/4gvqv631095f64jvm7jfj_000000gn/T//ccNJlW0i.s:5647   .debug_str:000000000000034a .LASF104
/var/folders/rt/4gvqv631095f64jvm7jfj_000000gn/T//ccNJlW0i.s:5657   .debug_str:0000000000000383 .LASF105
/var/folders/rt/4gvqv631095f64jvm7jfj_000000gn/T//ccNJlW0i.s:5825   .debug_str:0000000000000795 .LASF106
/var/folders/rt/4gvqv631095f64jvm7jfj_000000gn/T//ccNJlW0i.s:5515   .debug_str:00000000000000bb .LASF107
/var/folders/rt/4gvqv631095f64jvm7jfj_000000gn/T//ccNJlW0i.s:5801   .debug_str:0000000000000710 .LASF108
/var/folders/rt/4gvqv631095f64jvm7jfj_000000gn/T//ccNJlW0i.s:5615   .debug_str:00000000000002af .LASF109
/var/folders/rt/4gvqv631095f64jvm7jfj_000000gn/T//ccNJlW0i.s:5781   .debug_str:000000000000069b .LASF110
/var/folders/rt/4gvqv631095f64jvm7jfj_000000gn/T//ccNJlW0i.s:5569   .debug_str:00000000000001cb .LASF111
/var/folders/rt/4gvqv631095f64jvm7jfj_000000gn/T//ccNJlW0i.s:5513   .debug_str:00000000000000ac .LASF112
/var/folders/rt/4gvqv631095f64jvm7jfj_000000gn/T//ccNJlW0i.s:5567   .debug_str:00000000000001ba .LASF113
/var/folders/rt/4gvqv631095f64jvm7jfj_000000gn/T//ccNJlW0i.s:5501   .debug_str:0000000000000057 .LASF114
/var/folders/rt/4gvqv631095f64jvm7jfj_000000gn/T//ccNJlW0i.s:5503   .debug_str:0000000000000066 .LASF115
/var/folders/rt/4gvqv631095f64jvm7jfj_000000gn/T//ccNJlW0i.s:5685   .debug_str:000000000000041f .LASF116
/var/folders/rt/4gvqv631095f64jvm7jfj_000000gn/T//ccNJlW0i.s:5645   .debug_str:0000000000000343 .LASF117
/var/folders/rt/4gvqv631095f64jvm7jfj_000000gn/T//ccNJlW0i.s:5641   .debug_str:0000000000000327 .LASF118
/var/folders/rt/4gvqv631095f64jvm7jfj_000000gn/T//ccNJlW0i.s:5809   .debug_str:0000000000000734 .LASF119
/var/folders/rt/4gvqv631095f64jvm7jfj_000000gn/T//ccNJlW0i.s:5511   .debug_str:00000000000000a1 .LASF177
GAS LISTING /var/folders/rt/4gvqv631095f64jvm7jfj_000000gn/T//ccNJlW0i.s 			page 33


/var/folders/rt/4gvqv631095f64jvm7jfj_000000gn/T//ccNJlW0i.s:5577   .debug_str:00000000000001ef .LASF121
/var/folders/rt/4gvqv631095f64jvm7jfj_000000gn/T//ccNJlW0i.s:5785   .debug_str:00000000000006b1 .LASF122
/var/folders/rt/4gvqv631095f64jvm7jfj_000000gn/T//ccNJlW0i.s:5655   .debug_str:0000000000000379 .LASF123
/var/folders/rt/4gvqv631095f64jvm7jfj_000000gn/T//ccNJlW0i.s:5505   .debug_str:0000000000000077 .LASF124
/var/folders/rt/4gvqv631095f64jvm7jfj_000000gn/T//ccNJlW0i.s:5715   .debug_str:00000000000004a5 .LASF125
/var/folders/rt/4gvqv631095f64jvm7jfj_000000gn/T//ccNJlW0i.s:5509   .debug_str:0000000000000099 .LASF126
/var/folders/rt/4gvqv631095f64jvm7jfj_000000gn/T//ccNJlW0i.s:5707   .debug_str:0000000000000481 .LASF127
/var/folders/rt/4gvqv631095f64jvm7jfj_000000gn/T//ccNJlW0i.s:5603   .debug_str:0000000000000267 .LASF128
/var/folders/rt/4gvqv631095f64jvm7jfj_000000gn/T//ccNJlW0i.s:5565   .debug_str:00000000000001ac .LASF129
/var/folders/rt/4gvqv631095f64jvm7jfj_000000gn/T//ccNJlW0i.s:5527   .debug_str:00000000000000f3 .LASF130
/var/folders/rt/4gvqv631095f64jvm7jfj_000000gn/T//ccNJlW0i.s:5547   .debug_str:0000000000000147 .LASF131
/var/folders/rt/4gvqv631095f64jvm7jfj_000000gn/T//ccNJlW0i.s:5649   .debug_str:000000000000034f .LASF132
/var/folders/rt/4gvqv631095f64jvm7jfj_000000gn/T//ccNJlW0i.s:5675   .debug_str:00000000000003eb .LASF133
/var/folders/rt/4gvqv631095f64jvm7jfj_000000gn/T//ccNJlW0i.s:5703   .debug_str:0000000000000469 .LASF134
/var/folders/rt/4gvqv631095f64jvm7jfj_000000gn/T//ccNJlW0i.s:5583   .debug_str:000000000000020b .LASF135
/var/folders/rt/4gvqv631095f64jvm7jfj_000000gn/T//ccNJlW0i.s:5665   .debug_str:00000000000003b3 .LASF136
/var/folders/rt/4gvqv631095f64jvm7jfj_000000gn/T//ccNJlW0i.s:5643   .debug_str:0000000000000330 .LASF137
/var/folders/rt/4gvqv631095f64jvm7jfj_000000gn/T//ccNJlW0i.s:5829   .debug_str:00000000000007a8 .LASF178
/var/folders/rt/4gvqv631095f64jvm7jfj_000000gn/T//ccNJlW0i.s:763    .text.startup.main:0000000000000000 .LFB11
/var/folders/rt/4gvqv631095f64jvm7jfj_000000gn/T//ccNJlW0i.s:931    .text.startup.main:000000000000014c .LFE11
/var/folders/rt/4gvqv631095f64jvm7jfj_000000gn/T//ccNJlW0i.s:4822   .debug_loc:0000000000000000 .LLST20
/var/folders/rt/4gvqv631095f64jvm7jfj_000000gn/T//ccNJlW0i.s:4840   .debug_loc:000000000000002e .LLST21
/var/folders/rt/4gvqv631095f64jvm7jfj_000000gn/T//ccNJlW0i.s:5667   .debug_str:00000000000003c1 .LASF138
/var/folders/rt/4gvqv631095f64jvm7jfj_000000gn/T//ccNJlW0i.s:4864   .debug_loc:0000000000000067 .LLST22
/var/folders/rt/4gvqv631095f64jvm7jfj_000000gn/T//ccNJlW0i.s:5635   .debug_str:000000000000030c .LASF139
/var/folders/rt/4gvqv631095f64jvm7jfj_000000gn/T//ccNJlW0i.s:5705   .debug_str:0000000000000472 .LASF140
/var/folders/rt/4gvqv631095f64jvm7jfj_000000gn/T//ccNJlW0i.s:816    .text.startup.main:0000000000000056 .LVL75
/var/folders/rt/4gvqv631095f64jvm7jfj_000000gn/T//ccNJlW0i.s:823    .text.startup.main:000000000000006a .LVL76
/var/folders/rt/4gvqv631095f64jvm7jfj_000000gn/T//ccNJlW0i.s:830    .text.startup.main:000000000000007e .LVL77
/var/folders/rt/4gvqv631095f64jvm7jfj_000000gn/T//ccNJlW0i.s:833    .text.startup.main:0000000000000086 .LVL78
/var/folders/rt/4gvqv631095f64jvm7jfj_000000gn/T//ccNJlW0i.s:836    .text.startup.main:000000000000008e .LVL79
/var/folders/rt/4gvqv631095f64jvm7jfj_000000gn/T//ccNJlW0i.s:839    .text.startup.main:0000000000000096 .LVL80
/var/folders/rt/4gvqv631095f64jvm7jfj_000000gn/T//ccNJlW0i.s:842    .text.startup.main:000000000000009e .LVL81
/var/folders/rt/4gvqv631095f64jvm7jfj_000000gn/T//ccNJlW0i.s:846    .text.startup.main:00000000000000a8 .LVL82
/var/folders/rt/4gvqv631095f64jvm7jfj_000000gn/T//ccNJlW0i.s:850    .text.startup.main:00000000000000b2 .LVL83
/var/folders/rt/4gvqv631095f64jvm7jfj_000000gn/T//ccNJlW0i.s:853    .text.startup.main:00000000000000ba .LVL84
/var/folders/rt/4gvqv631095f64jvm7jfj_000000gn/T//ccNJlW0i.s:857    .text.startup.main:00000000000000c4 .LVL85
/var/folders/rt/4gvqv631095f64jvm7jfj_000000gn/T//ccNJlW0i.s:861    .text.startup.main:00000000000000ce .LVL86
/var/folders/rt/4gvqv631095f64jvm7jfj_000000gn/T//ccNJlW0i.s:864    .text.startup.main:00000000000000d6 .LVL87
/var/folders/rt/4gvqv631095f64jvm7jfj_000000gn/T//ccNJlW0i.s:872    .text.startup.main:00000000000000ec .LVL88
/var/folders/rt/4gvqv631095f64jvm7jfj_000000gn/T//ccNJlW0i.s:897    .text.startup.main:000000000000010e .LVL91
/var/folders/rt/4gvqv631095f64jvm7jfj_000000gn/T//ccNJlW0i.s:902    .text.startup.main:0000000000000116 .LVL92
/var/folders/rt/4gvqv631095f64jvm7jfj_000000gn/T//ccNJlW0i.s:909    .text.startup.main:0000000000000122 .LVL94
/var/folders/rt/4gvqv631095f64jvm7jfj_000000gn/T//ccNJlW0i.s:911    .text.startup.main:000000000000012a .LVL95
/var/folders/rt/4gvqv631095f64jvm7jfj_000000gn/T//ccNJlW0i.s:920    .text.startup.main:000000000000013c .LVL96
/var/folders/rt/4gvqv631095f64jvm7jfj_000000gn/T//ccNJlW0i.s:925    .text.startup.main:0000000000000148 .LVL97
/var/folders/rt/4gvqv631095f64jvm7jfj_000000gn/T//ccNJlW0i.s:5669   .debug_str:00000000000003c6 .LASF141
/var/folders/rt/4gvqv631095f64jvm7jfj_000000gn/T//ccNJlW0i.s:580    .text.receiveCommands:0000000000000000 .LFB10
/var/folders/rt/4gvqv631095f64jvm7jfj_000000gn/T//ccNJlW0i.s:756    .text.receiveCommands:0000000000000128 .LFE10
/var/folders/rt/4gvqv631095f64jvm7jfj_000000gn/T//ccNJlW0i.s:4881   .debug_loc:0000000000000092 .LLST16
/var/folders/rt/4gvqv631095f64jvm7jfj_000000gn/T//ccNJlW0i.s:4904   .debug_loc:00000000000000ca .LLST17
/var/folders/rt/4gvqv631095f64jvm7jfj_000000gn/T//ccNJlW0i.s:4937   .debug_loc:000000000000011a .LLST18
/var/folders/rt/4gvqv631095f64jvm7jfj_000000gn/T//ccNJlW0i.s:4959   .debug_loc:0000000000000151 .LLST19
/var/folders/rt/4gvqv631095f64jvm7jfj_000000gn/T//ccNJlW0i.s:655    .text.receiveCommands:0000000000000072 .LVL59
/var/folders/rt/4gvqv631095f64jvm7jfj_000000gn/T//ccNJlW0i.s:660    .text.receiveCommands:000000000000007c .LVL60
/var/folders/rt/4gvqv631095f64jvm7jfj_000000gn/T//ccNJlW0i.s:665    .text.receiveCommands:000000000000008a .LVL61
/var/folders/rt/4gvqv631095f64jvm7jfj_000000gn/T//ccNJlW0i.s:701    .text.receiveCommands:00000000000000b0 .LVL64
GAS LISTING /var/folders/rt/4gvqv631095f64jvm7jfj_000000gn/T//ccNJlW0i.s 			page 34


/var/folders/rt/4gvqv631095f64jvm7jfj_000000gn/T//ccNJlW0i.s:706    .text.receiveCommands:00000000000000ba .LVL65
/var/folders/rt/4gvqv631095f64jvm7jfj_000000gn/T//ccNJlW0i.s:716    .text.receiveCommands:00000000000000d4 .LVL66
/var/folders/rt/4gvqv631095f64jvm7jfj_000000gn/T//ccNJlW0i.s:721    .text.receiveCommands:00000000000000e4 .LVL67
/var/folders/rt/4gvqv631095f64jvm7jfj_000000gn/T//ccNJlW0i.s:727    .text.receiveCommands:00000000000000f0 .LVL68
/var/folders/rt/4gvqv631095f64jvm7jfj_000000gn/T//ccNJlW0i.s:738    .text.receiveCommands:000000000000010c .LVL70
/var/folders/rt/4gvqv631095f64jvm7jfj_000000gn/T//ccNJlW0i.s:746    .text.receiveCommands:0000000000000122 .LVL71
/var/folders/rt/4gvqv631095f64jvm7jfj_000000gn/T//ccNJlW0i.s:608    .text.receiveCommands:000000000000001a .LVL56
/var/folders/rt/4gvqv631095f64jvm7jfj_000000gn/T//ccNJlW0i.s:618    .text.receiveCommands:0000000000000034 .LVL57
/var/folders/rt/4gvqv631095f64jvm7jfj_000000gn/T//ccNJlW0i.s:5555   .debug_str:0000000000000171 .LASF142
/var/folders/rt/4gvqv631095f64jvm7jfj_000000gn/T//ccNJlW0i.s:391    .text.updatePlantReading:0000000000000000 .LFB9
/var/folders/rt/4gvqv631095f64jvm7jfj_000000gn/T//ccNJlW0i.s:573    .text.updatePlantReading:000000000000010a .LFE9
/var/folders/rt/4gvqv631095f64jvm7jfj_000000gn/T//ccNJlW0i.s:4975   .debug_loc:000000000000017b .LLST9
/var/folders/rt/4gvqv631095f64jvm7jfj_000000gn/T//ccNJlW0i.s:4998   .debug_loc:00000000000001b5 .LLST10
/var/folders/rt/4gvqv631095f64jvm7jfj_000000gn/T//ccNJlW0i.s:5012   .debug_loc:00000000000001d6 .LLST11
/var/folders/rt/4gvqv631095f64jvm7jfj_000000gn/T//ccNJlW0i.s:5034   .debug_loc:000000000000020d .LLST12
/var/folders/rt/4gvqv631095f64jvm7jfj_000000gn/T//ccNJlW0i.s:5497   .debug_str:0000000000000049 .LASF143
/var/folders/rt/4gvqv631095f64jvm7jfj_000000gn/T//ccNJlW0i.s:5089   .debug_loc:000000000000028f .LLST13
/var/folders/rt/4gvqv631095f64jvm7jfj_000000gn/T//ccNJlW0i.s:5144   .debug_loc:0000000000000311 .LLST14
/var/folders/rt/4gvqv631095f64jvm7jfj_000000gn/T//ccNJlW0i.s:5797   .debug_str:00000000000006f5 .LASF144
/var/folders/rt/4gvqv631095f64jvm7jfj_000000gn/T//ccNJlW0i.s:5609   .debug_str:0000000000000279 .LASF145
/var/folders/rt/4gvqv631095f64jvm7jfj_000000gn/T//ccNJlW0i.s:5160   .debug_loc:000000000000033b .LLST15
/var/folders/rt/4gvqv631095f64jvm7jfj_000000gn/T//ccNJlW0i.s:470    .text.updatePlantReading:000000000000006a .LVL40
/var/folders/rt/4gvqv631095f64jvm7jfj_000000gn/T//ccNJlW0i.s:477    .text.updatePlantReading:000000000000007c .LVL41
/var/folders/rt/4gvqv631095f64jvm7jfj_000000gn/T//ccNJlW0i.s:504    .text.updatePlantReading:00000000000000b6 .LVL43
/var/folders/rt/4gvqv631095f64jvm7jfj_000000gn/T//ccNJlW0i.s:546    .text.updatePlantReading:00000000000000e4 .LVL49
/var/folders/rt/4gvqv631095f64jvm7jfj_000000gn/T//ccNJlW0i.s:456    .text.updatePlantReading:0000000000000056 .LVL38
/var/folders/rt/4gvqv631095f64jvm7jfj_000000gn/T//ccNJlW0i.s:435    .text.updatePlantReading:000000000000002e .LVL36
/var/folders/rt/4gvqv631095f64jvm7jfj_000000gn/T//ccNJlW0i.s:561    .text.updatePlantReading:0000000000000100 .LVL51
/var/folders/rt/4gvqv631095f64jvm7jfj_000000gn/T//ccNJlW0i.s:5819   .debug_str:000000000000076a .LASF146
/var/folders/rt/4gvqv631095f64jvm7jfj_000000gn/T//ccNJlW0i.s:378    .text.updatePlantStatus:0000000000000000 .LFB8
/var/folders/rt/4gvqv631095f64jvm7jfj_000000gn/T//ccNJlW0i.s:384    .text.updatePlantStatus:0000000000000002 .LFE8
/var/folders/rt/4gvqv631095f64jvm7jfj_000000gn/T//ccNJlW0i.s:5631   .debug_str:00000000000002ee .LASF147
/var/folders/rt/4gvqv631095f64jvm7jfj_000000gn/T//ccNJlW0i.s:5759   .debug_str:000000000000056c .LASF148
/var/folders/rt/4gvqv631095f64jvm7jfj_000000gn/T//ccNJlW0i.s:177    .text.renderOnePlant:0000000000000000 .LFB7
/var/folders/rt/4gvqv631095f64jvm7jfj_000000gn/T//ccNJlW0i.s:371    .text.renderOnePlant:000000000000014e .LFE7
/var/folders/rt/4gvqv631095f64jvm7jfj_000000gn/T//ccNJlW0i.s:5193   .debug_loc:0000000000000371 .LLST4
/var/folders/rt/4gvqv631095f64jvm7jfj_000000gn/T//ccNJlW0i.s:5216   .debug_loc:00000000000003a9 .LLST5
/var/folders/rt/4gvqv631095f64jvm7jfj_000000gn/T//ccNJlW0i.s:5230   .debug_loc:00000000000003ca .LLST6
/var/folders/rt/4gvqv631095f64jvm7jfj_000000gn/T//ccNJlW0i.s:5252   .debug_loc:0000000000000401 .LLST7
/var/folders/rt/4gvqv631095f64jvm7jfj_000000gn/T//ccNJlW0i.s:5295   .debug_loc:0000000000000469 .LLST8
/var/folders/rt/4gvqv631095f64jvm7jfj_000000gn/T//ccNJlW0i.s:229    .text.renderOnePlant:000000000000003c .LVL16
/var/folders/rt/4gvqv631095f64jvm7jfj_000000gn/T//ccNJlW0i.s:245    .text.renderOnePlant:000000000000005c .LVL19
/var/folders/rt/4gvqv631095f64jvm7jfj_000000gn/T//ccNJlW0i.s:260    .text.renderOnePlant:0000000000000078 .LVL20
/var/folders/rt/4gvqv631095f64jvm7jfj_000000gn/T//ccNJlW0i.s:270    .text.renderOnePlant:0000000000000092 .LVL22
/var/folders/rt/4gvqv631095f64jvm7jfj_000000gn/T//ccNJlW0i.s:285    .text.renderOnePlant:00000000000000b0 .LVL23
/var/folders/rt/4gvqv631095f64jvm7jfj_000000gn/T//ccNJlW0i.s:301    .text.renderOnePlant:00000000000000d2 .LVL24
/var/folders/rt/4gvqv631095f64jvm7jfj_000000gn/T//ccNJlW0i.s:309    .text.renderOnePlant:00000000000000ea .LVL25
/var/folders/rt/4gvqv631095f64jvm7jfj_000000gn/T//ccNJlW0i.s:317    .text.renderOnePlant:0000000000000104 .LVL26
/var/folders/rt/4gvqv631095f64jvm7jfj_000000gn/T//ccNJlW0i.s:332    .text.renderOnePlant:0000000000000126 .LVL27
/var/folders/rt/4gvqv631095f64jvm7jfj_000000gn/T//ccNJlW0i.s:360    .text.renderOnePlant:000000000000014a .LVL30
/var/folders/rt/4gvqv631095f64jvm7jfj_000000gn/T//ccNJlW0i.s:5633   .debug_str:00000000000002fc .LASF149
/var/folders/rt/4gvqv631095f64jvm7jfj_000000gn/T//ccNJlW0i.s:14     .text.renderAllPlants:0000000000000000 .LFB6
/var/folders/rt/4gvqv631095f64jvm7jfj_000000gn/T//ccNJlW0i.s:170    .text.renderAllPlants:00000000000000de .LFE6
/var/folders/rt/4gvqv631095f64jvm7jfj_000000gn/T//ccNJlW0i.s:5311   .debug_loc:0000000000000493 .LLST0
/var/folders/rt/4gvqv631095f64jvm7jfj_000000gn/T//ccNJlW0i.s:5334   .debug_loc:00000000000004cb .LLST1
/var/folders/rt/4gvqv631095f64jvm7jfj_000000gn/T//ccNJlW0i.s:5348   .debug_loc:00000000000004ec .LLST2
/var/folders/rt/4gvqv631095f64jvm7jfj_000000gn/T//ccNJlW0i.s:5370   .debug_loc:0000000000000523 .LLST3
GAS LISTING /var/folders/rt/4gvqv631095f64jvm7jfj_000000gn/T//ccNJlW0i.s 			page 35


/var/folders/rt/4gvqv631095f64jvm7jfj_000000gn/T//ccNJlW0i.s:109    .text.renderAllPlants:0000000000000058 .LVL6
/var/folders/rt/4gvqv631095f64jvm7jfj_000000gn/T//ccNJlW0i.s:124    .text.renderAllPlants:0000000000000072 .LVL7
/var/folders/rt/4gvqv631095f64jvm7jfj_000000gn/T//ccNJlW0i.s:133    .text.renderAllPlants:000000000000008a .LVL8
/var/folders/rt/4gvqv631095f64jvm7jfj_000000gn/T//ccNJlW0i.s:149    .text.renderAllPlants:00000000000000aa .LVL9
/var/folders/rt/4gvqv631095f64jvm7jfj_000000gn/T//ccNJlW0i.s:157    .text.renderAllPlants:00000000000000c0 .LVL10
/var/folders/rt/4gvqv631095f64jvm7jfj_000000gn/T//ccNJlW0i.s:165    .text.renderAllPlants:00000000000000d8 .LVL11
/var/folders/rt/4gvqv631095f64jvm7jfj_000000gn/T//ccNJlW0i.s:5805   .debug_str:0000000000000724 .LASF150
/var/folders/rt/4gvqv631095f64jvm7jfj_000000gn/T//ccNJlW0i.s:5777   .debug_str:000000000000068c .LASF151
/var/folders/rt/4gvqv631095f64jvm7jfj_000000gn/T//ccNJlW0i.s:5539   .debug_str:0000000000000125 .LASF152
/var/folders/rt/4gvqv631095f64jvm7jfj_000000gn/T//ccNJlW0i.s:5679   .debug_str:0000000000000403 .LASF153
/var/folders/rt/4gvqv631095f64jvm7jfj_000000gn/T//ccNJlW0i.s:5493   .debug_str:0000000000000038 .LASF154
/var/folders/rt/4gvqv631095f64jvm7jfj_000000gn/T//ccNJlW0i.s:5821   .debug_str:000000000000077c .LASF155
/var/folders/rt/4gvqv631095f64jvm7jfj_000000gn/T//ccNJlW0i.s:5837   .debug_str:00000000000007cc .LASF156
/var/folders/rt/4gvqv631095f64jvm7jfj_000000gn/T//ccNJlW0i.s:5611   .debug_str:0000000000000286 .LASF157
/var/folders/rt/4gvqv631095f64jvm7jfj_000000gn/T//ccNJlW0i.s:5791   .debug_str:00000000000006da .LASF158
/var/folders/rt/4gvqv631095f64jvm7jfj_000000gn/T//ccNJlW0i.s:5709   .debug_str:000000000000048f .LASF159
/var/folders/rt/4gvqv631095f64jvm7jfj_000000gn/T//ccNJlW0i.s:5823   .debug_str:000000000000078c .LASF160
/var/folders/rt/4gvqv631095f64jvm7jfj_000000gn/T//ccNJlW0i.s:5663   .debug_str:00000000000003aa .LASF161
/var/folders/rt/4gvqv631095f64jvm7jfj_000000gn/T//ccNJlW0i.s:5695   .debug_str:000000000000044a .LASF162
/var/folders/rt/4gvqv631095f64jvm7jfj_000000gn/T//ccNJlW0i.s:5519   .debug_str:00000000000000d2 .LASF163
/var/folders/rt/4gvqv631095f64jvm7jfj_000000gn/T//ccNJlW0i.s:5753   .debug_str:0000000000000552 .LASF164
/var/folders/rt/4gvqv631095f64jvm7jfj_000000gn/T//ccNJlW0i.s:5601   .debug_str:0000000000000260 .LASF165
/var/folders/rt/4gvqv631095f64jvm7jfj_000000gn/T//ccNJlW0i.s:5485   .debug_str:0000000000000016 .LASF166
/var/folders/rt/4gvqv631095f64jvm7jfj_000000gn/T//ccNJlW0i.s:5545   .debug_str:000000000000013d .LASF167
/var/folders/rt/4gvqv631095f64jvm7jfj_000000gn/T//ccNJlW0i.s:5757   .debug_str:0000000000000560 .LASF168
/var/folders/rt/4gvqv631095f64jvm7jfj_000000gn/T//ccNJlW0i.s:5755   .debug_str:0000000000000559 .LASF169
/var/folders/rt/4gvqv631095f64jvm7jfj_000000gn/T//ccNJlW0i.s:5771   .debug_str:0000000000000662 .LASF170
/var/folders/rt/4gvqv631095f64jvm7jfj_000000gn/T//ccNJlW0i.s:5811   .debug_str:000000000000073c .LASF171
/var/folders/rt/4gvqv631095f64jvm7jfj_000000gn/T//ccNJlW0i.s:5783   .debug_str:00000000000006a8 .LASF172
/var/folders/rt/4gvqv631095f64jvm7jfj_000000gn/T//ccNJlW0i.s:5833   .debug_str:00000000000007b6 .LASF173
/var/folders/rt/4gvqv631095f64jvm7jfj_000000gn/T//ccNJlW0i.s:775    .text.startup.main:0000000000000008 .LCFI12
/var/folders/rt/4gvqv631095f64jvm7jfj_000000gn/T//ccNJlW0i.s:798    .text.startup.main:000000000000002c .LCFI13
/var/folders/rt/4gvqv631095f64jvm7jfj_000000gn/T//ccNJlW0i.s:767    .text.startup.main:0000000000000000 .LVL74
/var/folders/rt/4gvqv631095f64jvm7jfj_000000gn/T//ccNJlW0i.s:881    .text.startup.main:00000000000000f8 .LVL89
/var/folders/rt/4gvqv631095f64jvm7jfj_000000gn/T//ccNJlW0i.s:906    .text.startup.main:000000000000011a .LVL93
/var/folders/rt/4gvqv631095f64jvm7jfj_000000gn/T//ccNJlW0i.s:587    .text.receiveCommands:0000000000000002 .LCFI9
/var/folders/rt/4gvqv631095f64jvm7jfj_000000gn/T//ccNJlW0i.s:687    .text.receiveCommands:000000000000009a .LCFI10
/var/folders/rt/4gvqv631095f64jvm7jfj_000000gn/T//ccNJlW0i.s:692    .text.receiveCommands:000000000000009c .LCFI11
/var/folders/rt/4gvqv631095f64jvm7jfj_000000gn/T//ccNJlW0i.s:583    .text.receiveCommands:0000000000000000 .LVL54
/var/folders/rt/4gvqv631095f64jvm7jfj_000000gn/T//ccNJlW0i.s:594    .text.receiveCommands:0000000000000008 .LVL55
/var/folders/rt/4gvqv631095f64jvm7jfj_000000gn/T//ccNJlW0i.s:690    .text.receiveCommands:000000000000009c .LVL63
/var/folders/rt/4gvqv631095f64jvm7jfj_000000gn/T//ccNJlW0i.s:730    .text.receiveCommands:00000000000000f2 .LVL69
/var/folders/rt/4gvqv631095f64jvm7jfj_000000gn/T//ccNJlW0i.s:748    .text.receiveCommands:0000000000000124 .LVL72
/var/folders/rt/4gvqv631095f64jvm7jfj_000000gn/T//ccNJlW0i.s:683    .text.receiveCommands:0000000000000096 .LVL62
/var/folders/rt/4gvqv631095f64jvm7jfj_000000gn/T//ccNJlW0i.s:633    .text.receiveCommands:0000000000000046 .LVL58
/var/folders/rt/4gvqv631095f64jvm7jfj_000000gn/T//ccNJlW0i.s:401    .text.updatePlantReading:0000000000000002 .LCFI6
/var/folders/rt/4gvqv631095f64jvm7jfj_000000gn/T//ccNJlW0i.s:529    .text.updatePlantReading:00000000000000cc .LCFI7
/var/folders/rt/4gvqv631095f64jvm7jfj_000000gn/T//ccNJlW0i.s:534    .text.updatePlantReading:00000000000000ce .LCFI8
/var/folders/rt/4gvqv631095f64jvm7jfj_000000gn/T//ccNJlW0i.s:394    .text.updatePlantReading:0000000000000000 .LVL32
/var/folders/rt/4gvqv631095f64jvm7jfj_000000gn/T//ccNJlW0i.s:421    .text.updatePlantReading:0000000000000014 .LVL33
/var/folders/rt/4gvqv631095f64jvm7jfj_000000gn/T//ccNJlW0i.s:525    .text.updatePlantReading:00000000000000c8 .LVL46
/var/folders/rt/4gvqv631095f64jvm7jfj_000000gn/T//ccNJlW0i.s:532    .text.updatePlantReading:00000000000000ce .LVL47
/var/folders/rt/4gvqv631095f64jvm7jfj_000000gn/T//ccNJlW0i.s:431    .text.updatePlantReading:0000000000000022 .LVL35
/var/folders/rt/4gvqv631095f64jvm7jfj_000000gn/T//ccNJlW0i.s:445    .text.updatePlantReading:0000000000000046 .LVL37
/var/folders/rt/4gvqv631095f64jvm7jfj_000000gn/T//ccNJlW0i.s:461    .text.updatePlantReading:000000000000005c .LVL39
/var/folders/rt/4gvqv631095f64jvm7jfj_000000gn/T//ccNJlW0i.s:510    .text.updatePlantReading:00000000000000c0 .LVL44
/var/folders/rt/4gvqv631095f64jvm7jfj_000000gn/T//ccNJlW0i.s:555    .text.updatePlantReading:00000000000000f8 .LVL50
GAS LISTING /var/folders/rt/4gvqv631095f64jvm7jfj_000000gn/T//ccNJlW0i.s 			page 36


/var/folders/rt/4gvqv631095f64jvm7jfj_000000gn/T//ccNJlW0i.s:563    .text.updatePlantReading:0000000000000102 .LVL52
/var/folders/rt/4gvqv631095f64jvm7jfj_000000gn/T//ccNJlW0i.s:429    .text.updatePlantReading:000000000000001e .LVL34
/var/folders/rt/4gvqv631095f64jvm7jfj_000000gn/T//ccNJlW0i.s:522    .text.updatePlantReading:00000000000000c6 .LVL45
/var/folders/rt/4gvqv631095f64jvm7jfj_000000gn/T//ccNJlW0i.s:492    .text.updatePlantReading:0000000000000098 .LVL42
/var/folders/rt/4gvqv631095f64jvm7jfj_000000gn/T//ccNJlW0i.s:544    .text.updatePlantReading:00000000000000dc .LVL48
/var/folders/rt/4gvqv631095f64jvm7jfj_000000gn/T//ccNJlW0i.s:187    .text.renderOnePlant:0000000000000002 .LCFI3
/var/folders/rt/4gvqv631095f64jvm7jfj_000000gn/T//ccNJlW0i.s:356    .text.renderOnePlant:0000000000000142 .LCFI4
/var/folders/rt/4gvqv631095f64jvm7jfj_000000gn/T//ccNJlW0i.s:362    .text.renderOnePlant:000000000000014a .LCFI5
/var/folders/rt/4gvqv631095f64jvm7jfj_000000gn/T//ccNJlW0i.s:180    .text.renderOnePlant:0000000000000000 .LVL12
/var/folders/rt/4gvqv631095f64jvm7jfj_000000gn/T//ccNJlW0i.s:205    .text.renderOnePlant:0000000000000012 .LVL13
/var/folders/rt/4gvqv631095f64jvm7jfj_000000gn/T//ccNJlW0i.s:354    .text.renderOnePlant:0000000000000140 .LVL29
/var/folders/rt/4gvqv631095f64jvm7jfj_000000gn/T//ccNJlW0i.s:213    .text.renderOnePlant:000000000000001c .LVL14
/var/folders/rt/4gvqv631095f64jvm7jfj_000000gn/T//ccNJlW0i.s:220    .text.renderOnePlant:000000000000002e .LVL15
/var/folders/rt/4gvqv631095f64jvm7jfj_000000gn/T//ccNJlW0i.s:236    .text.renderOnePlant:0000000000000048 .LVL17
/var/folders/rt/4gvqv631095f64jvm7jfj_000000gn/T//ccNJlW0i.s:242    .text.renderOnePlant:0000000000000052 .LVL18
/var/folders/rt/4gvqv631095f64jvm7jfj_000000gn/T//ccNJlW0i.s:339    .text.renderOnePlant:0000000000000136 .LVL28
/var/folders/rt/4gvqv631095f64jvm7jfj_000000gn/T//ccNJlW0i.s:263    .text.renderOnePlant:000000000000007c .LVL21
/var/folders/rt/4gvqv631095f64jvm7jfj_000000gn/T//ccNJlW0i.s:25     .text.renderAllPlants:0000000000000002 .LCFI0
/var/folders/rt/4gvqv631095f64jvm7jfj_000000gn/T//ccNJlW0i.s:89     .text.renderAllPlants:000000000000003e .LCFI1
/var/folders/rt/4gvqv631095f64jvm7jfj_000000gn/T//ccNJlW0i.s:94     .text.renderAllPlants:0000000000000040 .LCFI2
/var/folders/rt/4gvqv631095f64jvm7jfj_000000gn/T//ccNJlW0i.s:18     .text.renderAllPlants:0000000000000000 .LVL0
/var/folders/rt/4gvqv631095f64jvm7jfj_000000gn/T//ccNJlW0i.s:61     .text.renderAllPlants:0000000000000026 .LVL1
/var/folders/rt/4gvqv631095f64jvm7jfj_000000gn/T//ccNJlW0i.s:85     .text.renderAllPlants:000000000000003a .LVL3
/var/folders/rt/4gvqv631095f64jvm7jfj_000000gn/T//ccNJlW0i.s:92     .text.renderAllPlants:0000000000000040 .LVL4
/var/folders/rt/4gvqv631095f64jvm7jfj_000000gn/T//ccNJlW0i.s:78     .text.renderAllPlants:0000000000000034 .LVL2
/var/folders/rt/4gvqv631095f64jvm7jfj_000000gn/T//ccNJlW0i.s:105    .text.renderAllPlants:000000000000004e .LVL5
/var/folders/rt/4gvqv631095f64jvm7jfj_000000gn/T//ccNJlW0i.s:996    .debug_info:0000000000000000 .Ldebug_info0
/var/folders/rt/4gvqv631095f64jvm7jfj_000000gn/T//ccNJlW0i.s:20     .text.renderAllPlants:0000000000000000 .LBB2
/var/folders/rt/4gvqv631095f64jvm7jfj_000000gn/T//ccNJlW0i.s:22     .text.renderAllPlants:0000000000000000 .LBE2
/var/folders/rt/4gvqv631095f64jvm7jfj_000000gn/T//ccNJlW0i.s:29     .text.renderAllPlants:0000000000000004 .LBB3
/var/folders/rt/4gvqv631095f64jvm7jfj_000000gn/T//ccNJlW0i.s:32     .text.renderAllPlants:0000000000000006 .LBE3
/var/folders/rt/4gvqv631095f64jvm7jfj_000000gn/T//ccNJlW0i.s:53     .text.renderAllPlants:000000000000001a .LBB4
/var/folders/rt/4gvqv631095f64jvm7jfj_000000gn/T//ccNJlW0i.s:65     .text.renderAllPlants:000000000000002a .LBE4
/var/folders/rt/4gvqv631095f64jvm7jfj_000000gn/T//ccNJlW0i.s:96     .text.renderAllPlants:0000000000000040 .LBB5
/var/folders/rt/4gvqv631095f64jvm7jfj_000000gn/T//ccNJlW0i.s:168    .text.renderAllPlants:00000000000000de .LBE5
/var/folders/rt/4gvqv631095f64jvm7jfj_000000gn/T//ccNJlW0i.s:182    .text.renderOnePlant:0000000000000000 .LBB6
/var/folders/rt/4gvqv631095f64jvm7jfj_000000gn/T//ccNJlW0i.s:184    .text.renderOnePlant:0000000000000000 .LBE6
/var/folders/rt/4gvqv631095f64jvm7jfj_000000gn/T//ccNJlW0i.s:202    .text.renderOnePlant:0000000000000010 .LBB7
/var/folders/rt/4gvqv631095f64jvm7jfj_000000gn/T//ccNJlW0i.s:209    .text.renderOnePlant:0000000000000016 .LBE7
/var/folders/rt/4gvqv631095f64jvm7jfj_000000gn/T//ccNJlW0i.s:222    .text.renderOnePlant:000000000000002e .LBB8
/var/folders/rt/4gvqv631095f64jvm7jfj_000000gn/T//ccNJlW0i.s:341    .text.renderOnePlant:0000000000000136 .LBE8
/var/folders/rt/4gvqv631095f64jvm7jfj_000000gn/T//ccNJlW0i.s:364    .text.renderOnePlant:000000000000014a .LBB9
/var/folders/rt/4gvqv631095f64jvm7jfj_000000gn/T//ccNJlW0i.s:369    .text.renderOnePlant:000000000000014e .LBE9
/var/folders/rt/4gvqv631095f64jvm7jfj_000000gn/T//ccNJlW0i.s:396    .text.updatePlantReading:0000000000000000 .LBB10
/var/folders/rt/4gvqv631095f64jvm7jfj_000000gn/T//ccNJlW0i.s:398    .text.updatePlantReading:0000000000000000 .LBE10
/var/folders/rt/4gvqv631095f64jvm7jfj_000000gn/T//ccNJlW0i.s:416    .text.updatePlantReading:0000000000000010 .LBB13
/var/folders/rt/4gvqv631095f64jvm7jfj_000000gn/T//ccNJlW0i.s:425    .text.updatePlantReading:0000000000000018 .LBE13
/var/folders/rt/4gvqv631095f64jvm7jfj_000000gn/T//ccNJlW0i.s:447    .text.updatePlantReading:0000000000000046 .LBB14
/var/folders/rt/4gvqv631095f64jvm7jfj_000000gn/T//ccNJlW0i.s:513    .text.updatePlantReading:00000000000000c0 .LBE14
/var/folders/rt/4gvqv631095f64jvm7jfj_000000gn/T//ccNJlW0i.s:536    .text.updatePlantReading:00000000000000ce .LBB15
/var/folders/rt/4gvqv631095f64jvm7jfj_000000gn/T//ccNJlW0i.s:558    .text.updatePlantReading:00000000000000f8 .LBE15
/var/folders/rt/4gvqv631095f64jvm7jfj_000000gn/T//ccNJlW0i.s:565    .text.updatePlantReading:0000000000000102 .LBB16
/var/folders/rt/4gvqv631095f64jvm7jfj_000000gn/T//ccNJlW0i.s:571    .text.updatePlantReading:000000000000010a .LBE16
/var/folders/rt/4gvqv631095f64jvm7jfj_000000gn/T//ccNJlW0i.s:465    .text.updatePlantReading:0000000000000060 .LBB11
/var/folders/rt/4gvqv631095f64jvm7jfj_000000gn/T//ccNJlW0i.s:512    .text.updatePlantReading:00000000000000c0 .LBE11
/var/folders/rt/4gvqv631095f64jvm7jfj_000000gn/T//ccNJlW0i.s:537    .text.updatePlantReading:00000000000000ce .LBB12
/var/folders/rt/4gvqv631095f64jvm7jfj_000000gn/T//ccNJlW0i.s:557    .text.updatePlantReading:00000000000000f8 .LBE12
GAS LISTING /var/folders/rt/4gvqv631095f64jvm7jfj_000000gn/T//ccNJlW0i.s 			page 37


/var/folders/rt/4gvqv631095f64jvm7jfj_000000gn/T//ccNJlW0i.s:620    .text.receiveCommands:0000000000000034 .LBB17
/var/folders/rt/4gvqv631095f64jvm7jfj_000000gn/T//ccNJlW0i.s:672    .text.receiveCommands:000000000000008e .LBE17
/var/folders/rt/4gvqv631095f64jvm7jfj_000000gn/T//ccNJlW0i.s:694    .text.receiveCommands:000000000000009c .LBB18
/var/folders/rt/4gvqv631095f64jvm7jfj_000000gn/T//ccNJlW0i.s:754    .text.receiveCommands:0000000000000128 .LBE18

UNDEFINED SYMBOLS
LCD_ShowStr
LCD_ShowNum
strcmp
LCD_Fill
generateTimeStamp
readSensor
snprintf
LCD_Clear
commandBufferIndex
commandBuffer
putstr
initPlant
t5omsi
colinit
l88init
rtcInit
rtc_counter_set
u0init
eclic_global_interrupt_enable
ADC3powerUpInit
Lcd_SetType
Lcd_Init
t5expq
colset
l88row
l88mem
