GAS LISTING /var/folders/rt/4gvqv631095f64jvm7jfj_000000gn/T//ccWY8Zlo.s 			page 1


   1              		.file	"main.c"
   2              		.option nopic
   3              		.attribute arch, "rv32i2p0_m2p0_a2p0_c2p0"
   4              		.attribute unaligned_access, 0
   5              		.attribute stack_align, 16
   6              		.text
   7              	.Ltext0:
   8              		.cfi_sections	.debug_frame
   9              		.section	.text.renderAllPlants,"ax",@progbits
  10              		.align	1
  11              		.globl	renderAllPlants
  13              	renderAllPlants:
  14              	.LFB6:
  15              		.file 1 "main.c"
   1:main.c        **** #include "gd32vf103.h"
   2:main.c        **** #include "drivers.h"
   3:main.c        **** #include "adc.h"
   4:main.c        **** #include "lcd.h"
   5:main.c        **** #include "plant.h"
   6:main.c        **** #include "utilities.h"
   7:main.c        **** #include "usart.h"
   8:main.c        **** #include <string.h>
   9:main.c        **** #include <stdio.h>
  10:main.c        **** #define STR_COPY(dest, src) \
  11:main.c        ****   snprintf(dest, sizeof(dest), "%s", src) // AI. STR_COPY Ă¤r en genvĂ¤g fĂ¶r snprintf som i sin tu
  12:main.c        **** 
  13:main.c        **** #define EI 1
  14:main.c        **** #define DI 0
  15:main.c        **** 
  16:main.c        **** void renderAllPlants(Plant allPlants[], int numberOfPlants)
  17:main.c        **** {
  16              		.loc 1 17 1
  17              		.cfi_startproc
  18              	.LVL0:
  18:main.c        ****   for (int i = 0; i < numberOfPlants; i++)
  19              		.loc 1 18 3
  20              	.LBB2:
  21              		.loc 1 18 8
  22              	.LBE2:
  17:main.c        ****   for (int i = 0; i < numberOfPlants; i++)
  23              		.loc 1 17 1 is_stmt 0
  24 0000 7971     		addi	sp,sp,-48
  25              	.LCFI0:
  26              		.cfi_def_cfa_offset 48
  27 0002 26D2     		sw	s1,36(sp)
  28              		.cfi_offset 9, -12
  29              	.LBB3:
  19:main.c        ****   {
  20:main.c        ****     LCD_ShowStr(i * 55, 0, allPlants[i].name, WHITE, TRANSPARENT);
  30              		.loc 1 20 5
  31 0004 C164     		li	s1,65536
  32              	.LBE3:
  17:main.c        ****   for (int i = 0; i < numberOfPlants; i++)
  33              		.loc 1 17 1
  34 0006 22D4     		sw	s0,40(sp)
  35 0008 4ECE     		sw	s3,28(sp)
  36 000a 52CC     		sw	s4,24(sp)
GAS LISTING /var/folders/rt/4gvqv631095f64jvm7jfj_000000gn/T//ccWY8Zlo.s 			page 2


  37 000c 5AC8     		sw	s6,16(sp)
  38 000e 5EC6     		sw	s7,12(sp)
  39 0010 06D6     		sw	ra,44(sp)
  40 0012 4AD0     		sw	s2,32(sp)
  41 0014 56CA     		sw	s5,20(sp)
  42              		.cfi_offset 8, -8
  43              		.cfi_offset 19, -20
  44              		.cfi_offset 20, -24
  45              		.cfi_offset 22, -32
  46              		.cfi_offset 23, -36
  47              		.cfi_offset 1, -4
  48              		.cfi_offset 18, -16
  49              		.cfi_offset 21, -28
  17:main.c        ****   for (int i = 0; i < numberOfPlants; i++)
  50              		.loc 1 17 1
  51 0016 2E8B     		mv	s6,a1
  52 0018 2A84     		mv	s0,a0
  53              	.LBB4:
  18:main.c        ****   {
  54              		.loc 1 18 12
  55 001a 014A     		li	s4,0
  56 001c 930B7003 		li	s7,55
  57              		.loc 1 20 5
  58 0020 FD14     		addi	s1,s1,-1
  21:main.c        ****     LCD_ShowNum(i * 55, 20, allPlants[i].moisture[allPlants[i].numberOfMoistureReadings].reading, 3
  22:main.c        ****     LCD_ShowStr(i * 55 + 30, 20, "%", WHITE, TRANSPARENT);
  59              		.loc 1 22 5
  60 0022 B7090000 		lui	s3,%hi(.LC0)
  61              	.LVL1:
  62              	.L2:
  18:main.c        ****   {
  63              		.loc 1 18 3 discriminator 1
  64 0026 634D6A01 		blt	s4,s6,.L3
  65              	.LBE4:
  23:main.c        ****     LCD_ShowNum(i * 55, 40, allPlants[i].sun[allPlants[i].numberOfSunReadings].reading, 3, WHITE);
  24:main.c        ****     LCD_ShowStr(i * 55 + 30, 40, "%", WHITE, TRANSPARENT);
  25:main.c        ****     LCD_ShowStr(i * 55, 60, allPlants[i].currentStatus, GBLUE, TRANSPARENT);
  26:main.c        ****   }
  27:main.c        **** }
  66              		.loc 1 27 1
  67 002a B250     		lw	ra,44(sp)
  68              		.cfi_remember_state
  69              		.cfi_restore 1
  70 002c 2254     		lw	s0,40(sp)
  71              		.cfi_restore 8
  72 002e 9254     		lw	s1,36(sp)
  73              		.cfi_restore 9
  74 0030 0259     		lw	s2,32(sp)
  75              		.cfi_restore 18
  76 0032 F249     		lw	s3,28(sp)
  77              		.cfi_restore 19
  78 0034 624A     		lw	s4,24(sp)
  79              		.cfi_restore 20
  80              	.LVL2:
  81 0036 D24A     		lw	s5,20(sp)
  82              		.cfi_restore 21
  83 0038 424B     		lw	s6,16(sp)
GAS LISTING /var/folders/rt/4gvqv631095f64jvm7jfj_000000gn/T//ccWY8Zlo.s 			page 3


  84              		.cfi_restore 22
  85              	.LVL3:
  86 003a B24B     		lw	s7,12(sp)
  87              		.cfi_restore 23
  88 003c 4561     		addi	sp,sp,48
  89              	.LCFI1:
  90              		.cfi_def_cfa_offset 0
  91 003e 8280     		jr	ra
  92              	.LVL4:
  93              	.L3:
  94              	.LCFI2:
  95              		.cfi_restore_state
  96              	.LBB5:
  20:main.c        ****     LCD_ShowNum(i * 55, 20, allPlants[i].moisture[allPlants[i].numberOfMoistureReadings].reading, 3
  97              		.loc 1 20 5 is_stmt 1 discriminator 3
  98 0040 33097A03 		mul	s2,s4,s7
  99 0044 2286     		mv	a2,s0
 100 0046 0547     		li	a4,1
 101 0048 A686     		mv	a3,s1
 102 004a 8145     		li	a1,0
  18:main.c        ****   {
 103              		.loc 1 18 40 is_stmt 0 discriminator 3
 104 004c 050A     		addi	s4,s4,1
 105              	.LVL5:
  20:main.c        ****     LCD_ShowNum(i * 55, 20, allPlants[i].moisture[allPlants[i].numberOfMoistureReadings].reading, 3
 106              		.loc 1 20 5 discriminator 3
 107 004e 4A85     		mv	a0,s2
 108 0050 97000000 		call	LCD_ShowStr
 108      E7800000 
 109              	.LVL6:
  21:main.c        ****     LCD_ShowStr(i * 55 + 30, 20, "%", WHITE, TRANSPARENT);
 110              		.loc 1 21 5 is_stmt 1 discriminator 3
  21:main.c        ****     LCD_ShowStr(i * 55 + 30, 20, "%", WHITE, TRANSPARENT);
 111              		.loc 1 21 89 is_stmt 0 discriminator 3
 112 0058 83278461 		lw	a5,1560(s0)
  21:main.c        ****     LCD_ShowStr(i * 55 + 30, 20, "%", WHITE, TRANSPARENT);
 113              		.loc 1 21 5 discriminator 3
 114 005c 2687     		mv	a4,s1
 115 005e 8D46     		li	a3,3
  21:main.c        ****     LCD_ShowStr(i * 55 + 30, 20, "%", WHITE, TRANSPARENT);
 116              		.loc 1 21 89 discriminator 3
 117 0060 8507     		addi	a5,a5,1
 118 0062 9207     		slli	a5,a5,4
 119 0064 A297     		add	a5,s0,a5
  21:main.c        ****     LCD_ShowStr(i * 55 + 30, 20, "%", WHITE, TRANSPARENT);
 120              		.loc 1 21 5 discriminator 3
 121 0066 904B     		lw	a2,16(a5)
 122 0068 D145     		li	a1,20
 123 006a 4A85     		mv	a0,s2
 124 006c 97000000 		call	LCD_ShowNum
 124      E7800000 
 125              	.LVL7:
  22:main.c        ****     LCD_ShowNum(i * 55, 40, allPlants[i].sun[allPlants[i].numberOfSunReadings].reading, 3, WHITE);
 126              		.loc 1 22 5 is_stmt 1 discriminator 3
 127 0074 930AE901 		addi	s5,s2,30
 128 0078 0547     		li	a4,1
 129 007a A686     		mv	a3,s1
GAS LISTING /var/folders/rt/4gvqv631095f64jvm7jfj_000000gn/T//ccWY8Zlo.s 			page 4


 130 007c 13860900 		addi	a2,s3,%lo(.LC0)
 131 0080 D145     		li	a1,20
 132 0082 5685     		mv	a0,s5
 133 0084 97000000 		call	LCD_ShowStr
 133      E7800000 
 134              	.LVL8:
  23:main.c        ****     LCD_ShowStr(i * 55 + 30, 40, "%", WHITE, TRANSPARENT);
 135              		.loc 1 23 5 discriminator 3
  23:main.c        ****     LCD_ShowStr(i * 55 + 30, 40, "%", WHITE, TRANSPARENT);
 136              		.loc 1 23 79 is_stmt 0 discriminator 3
 137 008c 83274461 		lw	a5,1556(s0)
  23:main.c        ****     LCD_ShowStr(i * 55 + 30, 40, "%", WHITE, TRANSPARENT);
 138              		.loc 1 23 5 discriminator 3
 139 0090 2687     		mv	a4,s1
 140 0092 8D46     		li	a3,3
  23:main.c        ****     LCD_ShowStr(i * 55 + 30, 40, "%", WHITE, TRANSPARENT);
 141              		.loc 1 23 79 discriminator 3
 142 0094 93871703 		addi	a5,a5,49
 143 0098 9207     		slli	a5,a5,4
 144 009a A297     		add	a5,s0,a5
  23:main.c        ****     LCD_ShowStr(i * 55 + 30, 40, "%", WHITE, TRANSPARENT);
 145              		.loc 1 23 5 discriminator 3
 146 009c 904B     		lw	a2,16(a5)
 147 009e 93058002 		li	a1,40
 148 00a2 4A85     		mv	a0,s2
 149 00a4 97000000 		call	LCD_ShowNum
 149      E7800000 
 150              	.LVL9:
  24:main.c        ****     LCD_ShowStr(i * 55, 60, allPlants[i].currentStatus, GBLUE, TRANSPARENT);
 151              		.loc 1 24 5 is_stmt 1 discriminator 3
 152 00ac 0547     		li	a4,1
 153 00ae A686     		mv	a3,s1
 154 00b0 13860900 		addi	a2,s3,%lo(.LC0)
 155 00b4 93058002 		li	a1,40
 156 00b8 5685     		mv	a0,s5
 157 00ba 97000000 		call	LCD_ShowStr
 157      E7800000 
 158              	.LVL10:
  25:main.c        ****   }
 159              		.loc 1 25 5 discriminator 3
 160 00c2 1306A400 		addi	a2,s0,10
 161 00c6 0547     		li	a4,1
 162 00c8 9306F07F 		li	a3,2047
 163 00cc 9305C003 		li	a1,60
 164 00d0 4A85     		mv	a0,s2
 165 00d2 97000000 		call	LCD_ShowStr
 165      E7800000 
 166              	.LVL11:
 167 00da 1304C461 		addi	s0,s0,1564
 168 00de A1B7     		j	.L2
 169              	.LBE5:
 170              		.cfi_endproc
 171              	.LFE6:
 173              		.section	.text.renderOnePlant,"ax",@progbits
 174              		.align	1
 175              		.globl	renderOnePlant
 177              	renderOnePlant:
GAS LISTING /var/folders/rt/4gvqv631095f64jvm7jfj_000000gn/T//ccWY8Zlo.s 			page 5


 178              	.LFB7:
  28:main.c        **** 
  29:main.c        **** void renderOnePlant(Plant allPlants[], int numberOfPlants, char name[])
  30:main.c        **** {
 179              		.loc 1 30 1
 180              		.cfi_startproc
 181              	.LVL12:
  31:main.c        ****   for (int i = 0; i < numberOfPlants; i++)
 182              		.loc 1 31 3
 183              	.LBB6:
 184              		.loc 1 31 8
 185              	.LBE6:
  30:main.c        ****   for (int i = 0; i < numberOfPlants; i++)
 186              		.loc 1 30 1 is_stmt 0
 187 0000 7971     		addi	sp,sp,-48
 188              	.LCFI3:
 189              		.cfi_def_cfa_offset 48
 190 0002 26D2     		sw	s1,36(sp)
 191 0004 4AD0     		sw	s2,32(sp)
 192 0006 4ECE     		sw	s3,28(sp)
 193 0008 06D6     		sw	ra,44(sp)
 194 000a 22D4     		sw	s0,40(sp)
 195              		.cfi_offset 9, -12
 196              		.cfi_offset 18, -16
 197              		.cfi_offset 19, -20
 198              		.cfi_offset 1, -4
 199              		.cfi_offset 8, -8
  30:main.c        ****   for (int i = 0; i < numberOfPlants; i++)
 200              		.loc 1 30 1
 201 000c AE89     		mv	s3,a1
 202 000e AA84     		mv	s1,a0
 203              	.LBB7:
 204              		.loc 1 31 12
 205 0010 0149     		li	s2,0
 206              	.LVL13:
 207              	.L6:
 208              		.loc 1 31 3 discriminator 1
 209 0012 634E3901 		blt	s2,s3,.L8
 210              	.LBE7:
  32:main.c        ****   {
  33:main.c        ****     if (strcmp(allPlants[i].name, name) == 0)
  34:main.c        ****     {
  35:main.c        ****       LCD_ShowStr(0, 0, allPlants[i].name, WHITE, TRANSPARENT);
  36:main.c        ****       LCD_ShowNum(0, 20, allPlants[i].moisture[allPlants[i].numberOfMoistureReadings - 1].reading, 
  37:main.c        ****       LCD_ShowStr(0 + 30, 20, "%", WHITE, TRANSPARENT);
  38:main.c        ****       LCD_ShowStr(50, 20, allPlants[i].moisture[allPlants[i].numberOfMoistureReadings - 1].timeStam
  39:main.c        ****       LCD_ShowNum(0, 40, allPlants[i].sun[allPlants[i].numberOfSunReadings - 1].reading, 3, WHITE);
  40:main.c        ****       LCD_ShowStr(0 + 30, 40, "%", WHITE, TRANSPARENT);
  41:main.c        ****       LCD_Fill(50, 40, 160, 53, BLACK); // Black out old reading before writing new
  42:main.c        ****       LCD_ShowStr(50, 40, allPlants[i].sun[allPlants[i].numberOfSunReadings - 1].timeStamp, WHITE, 
  43:main.c        ****       LCD_ShowStr(0, 60, allPlants[i].currentStatus, GBLUE, TRANSPARENT);
  44:main.c        ****       return;
  45:main.c        ****     }
  46:main.c        ****   }
  47:main.c        ****   LCD_ShowStr(50, 4, "NO SUCH PLANT", RED, TRANSPARENT);
 211              		.loc 1 47 3 is_stmt 1
 212 0016 C166     		li	a3,65536
GAS LISTING /var/folders/rt/4gvqv631095f64jvm7jfj_000000gn/T//ccWY8Zlo.s 			page 6


 213 0018 37060000 		lui	a2,%hi(.LC1)
 214              	.LVL14:
 215 001c 0547     		li	a4,1
 216 001e 93860680 		addi	a3,a3,-2048
 217 0022 13060600 		addi	a2,a2,%lo(.LC1)
 218 0026 9145     		li	a1,4
 219 0028 13052003 		li	a0,50
 220 002c 29A2     		j	.L10
 221              	.LVL15:
 222              	.L8:
 223              	.LBB8:
  33:main.c        ****     {
 224              		.loc 1 33 5
  33:main.c        ****     {
 225              		.loc 1 33 9 is_stmt 0
 226 002e B285     		mv	a1,a2
 227 0030 2685     		mv	a0,s1
 228 0032 32C6     		sw	a2,12(sp)
 229 0034 97000000 		call	strcmp
 229      E7800000 
 230              	.LVL16:
  33:main.c        ****     {
 231              		.loc 1 33 25
 232 003c 2684     		mv	s0,s1
  33:main.c        ****     {
 233              		.loc 1 33 8
 234 003e 3246     		lw	a2,12(sp)
 235 0040 9384C461 		addi	s1,s1,1564
 236 0044 63130510 		bne	a0,zero,.L7
 237              	.LVL17:
  35:main.c        ****       LCD_ShowNum(0, 20, allPlants[i].moisture[allPlants[i].numberOfMoistureReadings - 1].reading, 
 238              		.loc 1 35 7 is_stmt 1
 239 0048 C164     		li	s1,65536
 240 004a 0547     		li	a4,1
 241 004c 9386F4FF 		addi	a3,s1,-1
 242 0050 2286     		mv	a2,s0
 243              	.LVL18:
 244 0052 8145     		li	a1,0
 245 0054 97000000 		call	LCD_ShowStr
 245      E7800000 
 246              	.LVL19:
  36:main.c        ****       LCD_ShowStr(0 + 30, 20, "%", WHITE, TRANSPARENT);
 247              		.loc 1 36 7
  36:main.c        ****       LCD_ShowStr(0 + 30, 20, "%", WHITE, TRANSPARENT);
 248              		.loc 1 36 90 is_stmt 0
 249 005c 83278461 		lw	a5,1560(s0)
  36:main.c        ****       LCD_ShowStr(0 + 30, 20, "%", WHITE, TRANSPARENT);
 250              		.loc 1 36 7
 251 0060 1387F4FF 		addi	a4,s1,-1
 252 0064 8D46     		li	a3,3
  36:main.c        ****       LCD_ShowStr(0 + 30, 20, "%", WHITE, TRANSPARENT);
 253              		.loc 1 36 90
 254 0066 9207     		slli	a5,a5,4
 255 0068 A297     		add	a5,s0,a5
  36:main.c        ****       LCD_ShowStr(0 + 30, 20, "%", WHITE, TRANSPARENT);
 256              		.loc 1 36 7
 257 006a 904B     		lw	a2,16(a5)
GAS LISTING /var/folders/rt/4gvqv631095f64jvm7jfj_000000gn/T//ccWY8Zlo.s 			page 7


 258 006c D145     		li	a1,20
 259 006e 0145     		li	a0,0
 260 0070 97000000 		call	LCD_ShowNum
 260      E7800000 
 261              	.LVL20:
  37:main.c        ****       LCD_ShowStr(50, 20, allPlants[i].moisture[allPlants[i].numberOfMoistureReadings - 1].timeStam
 262              		.loc 1 37 7 is_stmt 1
 263 0078 37090000 		lui	s2,%hi(.LC0)
 264              	.LVL21:
 265 007c 0547     		li	a4,1
 266 007e 9386F4FF 		addi	a3,s1,-1
 267 0082 13060900 		addi	a2,s2,%lo(.LC0)
 268 0086 D145     		li	a1,20
 269 0088 7945     		li	a0,30
 270 008a 97000000 		call	LCD_ShowStr
 270      E7800000 
 271              	.LVL22:
  38:main.c        ****       LCD_ShowNum(0, 40, allPlants[i].sun[allPlants[i].numberOfSunReadings - 1].reading, 3, WHITE);
 272              		.loc 1 38 7
  38:main.c        ****       LCD_ShowNum(0, 40, allPlants[i].sun[allPlants[i].numberOfSunReadings - 1].reading, 3, WHITE);
 273              		.loc 1 38 91 is_stmt 0
 274 0092 03268461 		lw	a2,1560(s0)
  38:main.c        ****       LCD_ShowNum(0, 40, allPlants[i].sun[allPlants[i].numberOfSunReadings - 1].reading, 3, WHITE);
 275              		.loc 1 38 7
 276 0096 0547     		li	a4,1
 277 0098 9386F4FF 		addi	a3,s1,-1
  38:main.c        ****       LCD_ShowNum(0, 40, allPlants[i].sun[allPlants[i].numberOfSunReadings - 1].reading, 3, WHITE);
 278              		.loc 1 38 91
 279 009c 1206     		slli	a2,a2,4
 280 009e 1106     		addi	a2,a2,4
  38:main.c        ****       LCD_ShowNum(0, 40, allPlants[i].sun[allPlants[i].numberOfSunReadings - 1].reading, 3, WHITE);
 281              		.loc 1 38 7
 282 00a0 2296     		add	a2,s0,a2
 283 00a2 D145     		li	a1,20
 284 00a4 13052003 		li	a0,50
 285 00a8 97000000 		call	LCD_ShowStr
 285      E7800000 
 286              	.LVL23:
  39:main.c        ****       LCD_ShowStr(0 + 30, 40, "%", WHITE, TRANSPARENT);
 287              		.loc 1 39 7 is_stmt 1
  39:main.c        ****       LCD_ShowStr(0 + 30, 40, "%", WHITE, TRANSPARENT);
 288              		.loc 1 39 80 is_stmt 0
 289 00b0 83274461 		lw	a5,1556(s0)
  39:main.c        ****       LCD_ShowStr(0 + 30, 40, "%", WHITE, TRANSPARENT);
 290              		.loc 1 39 7
 291 00b4 1387F4FF 		addi	a4,s1,-1
 292 00b8 8D46     		li	a3,3
  39:main.c        ****       LCD_ShowStr(0 + 30, 40, "%", WHITE, TRANSPARENT);
 293              		.loc 1 39 80
 294 00ba 93870703 		addi	a5,a5,48
 295 00be 9207     		slli	a5,a5,4
 296 00c0 A297     		add	a5,s0,a5
  39:main.c        ****       LCD_ShowStr(0 + 30, 40, "%", WHITE, TRANSPARENT);
 297              		.loc 1 39 7
 298 00c2 904B     		lw	a2,16(a5)
 299 00c4 93058002 		li	a1,40
 300 00c8 0145     		li	a0,0
GAS LISTING /var/folders/rt/4gvqv631095f64jvm7jfj_000000gn/T//ccWY8Zlo.s 			page 8


 301 00ca 97000000 		call	LCD_ShowNum
 301      E7800000 
 302              	.LVL24:
  40:main.c        ****       LCD_Fill(50, 40, 160, 53, BLACK); // Black out old reading before writing new
 303              		.loc 1 40 7 is_stmt 1
 304 00d2 0547     		li	a4,1
 305 00d4 9386F4FF 		addi	a3,s1,-1
 306 00d8 13060900 		addi	a2,s2,%lo(.LC0)
 307 00dc 93058002 		li	a1,40
 308 00e0 7945     		li	a0,30
 309 00e2 97000000 		call	LCD_ShowStr
 309      E7800000 
 310              	.LVL25:
  41:main.c        ****       LCD_ShowStr(50, 40, allPlants[i].sun[allPlants[i].numberOfSunReadings - 1].timeStamp, WHITE, 
 311              		.loc 1 41 7
 312 00ea 0147     		li	a4,0
 313 00ec 93065003 		li	a3,53
 314 00f0 1306000A 		li	a2,160
 315 00f4 93058002 		li	a1,40
 316 00f8 13052003 		li	a0,50
 317 00fc 97000000 		call	LCD_Fill
 317      E7800000 
 318              	.LVL26:
  42:main.c        ****       LCD_ShowStr(0, 60, allPlants[i].currentStatus, GBLUE, TRANSPARENT);
 319              		.loc 1 42 7
  42:main.c        ****       LCD_ShowStr(0, 60, allPlants[i].currentStatus, GBLUE, TRANSPARENT);
 320              		.loc 1 42 81 is_stmt 0
 321 0104 03264461 		lw	a2,1556(s0)
  42:main.c        ****       LCD_ShowStr(0, 60, allPlants[i].currentStatus, GBLUE, TRANSPARENT);
 322              		.loc 1 42 7
 323 0108 0547     		li	a4,1
 324 010a 9386F4FF 		addi	a3,s1,-1
  42:main.c        ****       LCD_ShowStr(0, 60, allPlants[i].currentStatus, GBLUE, TRANSPARENT);
 325              		.loc 1 42 81
 326 010e 1206     		slli	a2,a2,4
 327 0110 13064630 		addi	a2,a2,772
  42:main.c        ****       LCD_ShowStr(0, 60, allPlants[i].currentStatus, GBLUE, TRANSPARENT);
 328              		.loc 1 42 7
 329 0114 2296     		add	a2,s0,a2
 330 0116 93058002 		li	a1,40
 331 011a 13052003 		li	a0,50
 332 011e 97000000 		call	LCD_ShowStr
 332      E7800000 
 333              	.LVL27:
  43:main.c        ****       return;
 334              		.loc 1 43 7 is_stmt 1
 335 0126 0547     		li	a4,1
 336 0128 9306F07F 		li	a3,2047
 337 012c 1306A400 		addi	a2,s0,10
 338 0130 9305C003 		li	a1,60
 339 0134 0145     		li	a0,0
 340              	.LVL28:
 341              	.L10:
 342              	.LBE8:
  48:main.c        **** }
 343              		.loc 1 48 1 is_stmt 0
 344 0136 2254     		lw	s0,40(sp)
GAS LISTING /var/folders/rt/4gvqv631095f64jvm7jfj_000000gn/T//ccWY8Zlo.s 			page 9


 345              		.cfi_remember_state
 346              		.cfi_restore 8
 347 0138 B250     		lw	ra,44(sp)
 348              		.cfi_restore 1
 349 013a 9254     		lw	s1,36(sp)
 350              		.cfi_restore 9
 351 013c 0259     		lw	s2,32(sp)
 352              		.cfi_restore 18
 353 013e F249     		lw	s3,28(sp)
 354              		.cfi_restore 19
 355              	.LVL29:
 356 0140 4561     		addi	sp,sp,48
 357              	.LCFI4:
 358              		.cfi_def_cfa_offset 0
  47:main.c        **** }
 359              		.loc 1 47 3
 360 0142 17030000 		tail	LCD_ShowStr
 360      67000300 
 361              	.LVL30:
 362              	.L7:
 363              	.LCFI5:
 364              		.cfi_restore_state
 365              	.LBB9:
  31:main.c        ****   {
 366              		.loc 1 31 40 discriminator 2
 367 014a 0509     		addi	s2,s2,1
 368              	.LVL31:
 369 014c D9B5     		j	.L6
 370              	.LBE9:
 371              		.cfi_endproc
 372              	.LFE7:
 374              		.section	.text.updatePlantStatus,"ax",@progbits
 375              		.align	1
 376              		.globl	updatePlantStatus
 378              	updatePlantStatus:
 379              	.LFB8:
  49:main.c        **** 
  50:main.c        **** void updatePlantStatus(Plant plantToUpdate)
  51:main.c        **** {
 380              		.loc 1 51 1 is_stmt 1
 381              		.cfi_startproc
  52:main.c        ****   // WIP : LOOPA IGENOM TIDIGARE READINGS, GĂ–R EN AVERAGE, TA REDA PĂ… STATUS. BEHĂ–VER LJUS? BEHĂ
  53:main.c        **** }
 382              		.loc 1 53 1
 383 0000 8280     		ret
 384              		.cfi_endproc
 385              	.LFE8:
 387              		.section	.text.updatePlantReading,"ax",@progbits
 388              		.align	1
 389              		.globl	updatePlantReading
 391              	updatePlantReading:
 392              	.LFB9:
  54:main.c        **** 
  55:main.c        **** void updatePlantReading(Plant allPlants[], int numberOfPlants, char name[], SensorType type)
  56:main.c        **** {
 393              		.loc 1 56 1
 394              		.cfi_startproc
GAS LISTING /var/folders/rt/4gvqv631095f64jvm7jfj_000000gn/T//ccWY8Zlo.s 			page 10


 395              	.LVL32:
  57:main.c        ****   for (int i = 0; i < numberOfPlants; i++)
 396              		.loc 1 57 3
 397              	.LBB10:
 398              		.loc 1 57 8
 399              	.LBE10:
  56:main.c        ****   for (int i = 0; i < numberOfPlants; i++)
 400              		.loc 1 56 1 is_stmt 0
 401 0000 3971     		addi	sp,sp,-64
 402              	.LCFI6:
 403              		.cfi_def_cfa_offset 64
 404 0002 22DC     		sw	s0,56(sp)
 405 0004 26DA     		sw	s1,52(sp)
 406 0006 4AD8     		sw	s2,48(sp)
 407 0008 4ED6     		sw	s3,44(sp)
 408 000a 06DE     		sw	ra,60(sp)
 409              		.cfi_offset 8, -8
 410              		.cfi_offset 9, -12
 411              		.cfi_offset 18, -16
 412              		.cfi_offset 19, -20
 413              		.cfi_offset 1, -4
  56:main.c        ****   for (int i = 0; i < numberOfPlants; i++)
 414              		.loc 1 56 1
 415 000c 2E89     		mv	s2,a1
 416 000e 2A84     		mv	s0,a0
 417              	.LBB13:
 418              		.loc 1 57 12
 419 0010 8144     		li	s1,0
  58:main.c        ****   {
  59:main.c        ****     if (strcmp(allPlants[i].name, name) == 0)
  60:main.c        ****     {
  61:main.c        ****       if (type == SUN)
 420              		.loc 1 61 10
 421 0012 8549     		li	s3,1
 422              	.LVL33:
 423              	.L13:
  57:main.c        ****   {
 424              		.loc 1 57 3 discriminator 1
 425 0014 63C92403 		blt	s1,s2,.L19
 426              	.LBE13:
  62:main.c        ****       {
  63:main.c        ****         char fillWithTimeStamp[9];
  64:main.c        ****         generateTimeStamp(fillWithTimeStamp);
  65:main.c        ****         int currentValue = readSensor(ADC0, ADC_FLAG_EOC);
  66:main.c        ****         if (currentValue < 0)
  67:main.c        ****           currentValue = 0;
  68:main.c        ****         if (allPlants[i].numberOfSunReadings < MAX_SUN_READINGS)
  69:main.c        ****         {
  70:main.c        ****           allPlants[i].sun[allPlants[i].numberOfSunReadings].reading = currentValue;
  71:main.c        ****           STR_COPY(allPlants[i].sun[allPlants[i].numberOfSunReadings].timeStamp, fillWithTimeStamp)
  72:main.c        ****           (allPlants[i].numberOfSunReadings)++;
  73:main.c        ****         }
  74:main.c        ****         else
  75:main.c        ****         {
  76:main.c        ****           LCD_Fill(0, 0, 160, 80, BLACK);
  77:main.c        ****           LCD_ShowStr(0, 10, "SUN READINGS FULL", RED, TRANSPARENT);
  78:main.c        ****         }
GAS LISTING /var/folders/rt/4gvqv631095f64jvm7jfj_000000gn/T//ccWY8Zlo.s 			page 11


  79:main.c        ****         return;
  80:main.c        ****       }
  81:main.c        ****     }
  82:main.c        ****   }
  83:main.c        ****   LCD_Fill(0, 0, 160, 80, BLACK);
 427              		.loc 1 83 3 is_stmt 1
 428 0018 0147     		li	a4,0
 429 001a 93060005 		li	a3,80
 430              	.LVL34:
 431 001e 1306000A 		li	a2,160
 432              	.LVL35:
 433 0022 8145     		li	a1,0
 434 0024 0145     		li	a0,0
 435 0026 97000000 		call	LCD_Fill
 435      E7800000 
 436              	.LVL36:
  84:main.c        ****   LCD_ShowStr(50, 4, "NO SUCH PLANT", RED, TRANSPARENT);
 437              		.loc 1 84 3
 438 002e C166     		li	a3,65536
 439 0030 37060000 		lui	a2,%hi(.LC1)
 440 0034 0547     		li	a4,1
 441 0036 93860680 		addi	a3,a3,-2048
 442 003a 13060600 		addi	a2,a2,%lo(.LC1)
 443 003e 9145     		li	a1,4
 444 0040 13052003 		li	a0,50
 445 0044 55A8     		j	.L21
 446              	.LVL37:
 447              	.L19:
 448              	.LBB14:
  59:main.c        ****     {
 449              		.loc 1 59 9 is_stmt 0
 450 0046 B285     		mv	a1,a2
 451 0048 2285     		mv	a0,s0
 452 004a 36C6     		sw	a3,12(sp)
  59:main.c        ****     {
 453              		.loc 1 59 5 is_stmt 1
  59:main.c        ****     {
 454              		.loc 1 59 9 is_stmt 0
 455 004c 32C4     		sw	a2,8(sp)
 456 004e 97000000 		call	strcmp
 456      E7800000 
 457              	.LVL38:
  59:main.c        ****     {
 458              		.loc 1 59 8
 459 0056 2246     		lw	a2,8(sp)
 460 0058 B246     		lw	a3,12(sp)
 461 005a 45E5     		bne	a0,zero,.L14
 462              	.LVL39:
  61:main.c        ****       {
 463              		.loc 1 61 7 is_stmt 1
  61:main.c        ****       {
 464              		.loc 1 61 10 is_stmt 0
 465 005c 6393360B 		bne	a3,s3,.L14
 466              	.LBB11:
  63:main.c        ****         generateTimeStamp(fillWithTimeStamp);
 467              		.loc 1 63 9 is_stmt 1
  64:main.c        ****         int currentValue = readSensor(ADC0, ADC_FLAG_EOC);
GAS LISTING /var/folders/rt/4gvqv631095f64jvm7jfj_000000gn/T//ccWY8Zlo.s 			page 12


 468              		.loc 1 64 9
 469 0060 4808     		addi	a0,sp,20
 470 0062 97000000 		call	generateTimeStamp
 470      E7800000 
 471              	.LVL40:
  65:main.c        ****         if (currentValue < 0)
 472              		.loc 1 65 9
  65:main.c        ****         if (currentValue < 0)
 473              		.loc 1 65 28 is_stmt 0
 474 006a 37250140 		li	a0,1073815552
 475 006e 8945     		li	a1,2
 476 0070 13050540 		addi	a0,a0,1024
 477 0074 97000000 		call	readSensor
 477      E7800000 
 478              	.LVL41:
  66:main.c        ****           currentValue = 0;
 479              		.loc 1 66 9 is_stmt 1
  68:main.c        ****         {
 480              		.loc 1 68 9
  68:main.c        ****         {
 481              		.loc 1 68 25 is_stmt 0
 482 007c 83274461 		lw	a5,1556(s0)
  68:main.c        ****         {
 483              		.loc 1 68 12
 484 0080 1307F002 		li	a4,47
 485 0084 6345F704 		bgt	a5,a4,.L15
  70:main.c        ****           STR_COPY(allPlants[i].sun[allPlants[i].numberOfSunReadings].timeStamp, fillWithTimeStamp)
 486              		.loc 1 70 11 is_stmt 1
  70:main.c        ****           STR_COPY(allPlants[i].sun[allPlants[i].numberOfSunReadings].timeStamp, fillWithTimeStamp)
 487              		.loc 1 70 70 is_stmt 0
 488 0088 93871703 		addi	a5,a5,49
 489 008c 13974700 		slli	a4,a5,4
 490 0090 2297     		add	a4,s0,a4
 491 0092 63530500 		bge	a0,zero,.L16
 492 0096 0145     		li	a0,0
 493              	.LVL42:
 494              	.L16:
 495 0098 08CB     		sw	a0,16(a4)
  71:main.c        ****           (allPlants[i].numberOfSunReadings)++;
 496              		.loc 1 71 11 is_stmt 1
 497 009a 13954700 		slli	a0,a5,4
 498 009e 1105     		addi	a0,a0,4
 499 00a0 37060000 		lui	a2,%hi(.LC2)
 500 00a4 5408     		addi	a3,sp,20
 501 00a6 13060600 		addi	a2,a2,%lo(.LC2)
 502 00aa A545     		li	a1,9
 503 00ac 2295     		add	a0,s0,a0
 504 00ae 97000000 		call	snprintf
 504      E7800000 
 505              	.LVL43:
  72:main.c        ****         }
 506              		.loc 1 72 11
  72:main.c        ****         }
 507              		.loc 1 72 45 is_stmt 0
 508 00b6 83274461 		lw	a5,1556(s0)
 509 00ba 8507     		addi	a5,a5,1
 510 00bc 232AF460 		sw	a5,1556(s0)
GAS LISTING /var/folders/rt/4gvqv631095f64jvm7jfj_000000gn/T//ccWY8Zlo.s 			page 13


 511              	.LVL44:
 512              	.L12:
 513              	.LBE11:
 514              	.LBE14:
  85:main.c        **** }
 515              		.loc 1 85 1
 516 00c0 F250     		lw	ra,60(sp)
 517              		.cfi_remember_state
 518              		.cfi_restore 1
 519 00c2 6254     		lw	s0,56(sp)
 520              		.cfi_restore 8
 521 00c4 D254     		lw	s1,52(sp)
 522              		.cfi_restore 9
 523              	.LVL45:
 524 00c6 4259     		lw	s2,48(sp)
 525              		.cfi_restore 18
 526              	.LVL46:
 527 00c8 B259     		lw	s3,44(sp)
 528              		.cfi_restore 19
 529 00ca 2161     		addi	sp,sp,64
 530              	.LCFI7:
 531              		.cfi_def_cfa_offset 0
 532 00cc 8280     		jr	ra
 533              	.LVL47:
 534              	.L15:
 535              	.LCFI8:
 536              		.cfi_restore_state
 537              	.LBB15:
 538              	.LBB12:
  76:main.c        ****           LCD_ShowStr(0, 10, "SUN READINGS FULL", RED, TRANSPARENT);
 539              		.loc 1 76 11 is_stmt 1
 540 00ce 0147     		li	a4,0
 541 00d0 93060005 		li	a3,80
 542 00d4 1306000A 		li	a2,160
 543 00d8 8145     		li	a1,0
 544 00da 0145     		li	a0,0
 545              	.LVL48:
 546 00dc 97000000 		call	LCD_Fill
 546      E7800000 
 547              	.LVL49:
  77:main.c        ****         }
 548              		.loc 1 77 11
 549 00e4 C166     		li	a3,65536
 550 00e6 37060000 		lui	a2,%hi(.LC3)
 551 00ea 0547     		li	a4,1
 552 00ec 93860680 		addi	a3,a3,-2048
 553 00f0 13060600 		addi	a2,a2,%lo(.LC3)
 554 00f4 A945     		li	a1,10
 555 00f6 0145     		li	a0,0
 556              	.LVL50:
 557              	.L21:
 558              	.LBE12:
 559              	.LBE15:
  84:main.c        **** }
 560              		.loc 1 84 3 is_stmt 0
 561 00f8 97000000 		call	LCD_ShowStr
 561      E7800000 
GAS LISTING /var/folders/rt/4gvqv631095f64jvm7jfj_000000gn/T//ccWY8Zlo.s 			page 14


 562              	.LVL51:
 563 0100 C1B7     		j	.L12
 564              	.LVL52:
 565              	.L14:
 566              	.LBB16:
  57:main.c        ****   {
 567              		.loc 1 57 40 discriminator 2
 568 0102 8504     		addi	s1,s1,1
 569              	.LVL53:
 570 0104 1304C461 		addi	s0,s0,1564
 571 0108 31B7     		j	.L13
 572              	.LBE16:
 573              		.cfi_endproc
 574              	.LFE9:
 576              		.section	.text.startup.main,"ax",@progbits
 577              		.align	1
 578              		.globl	main
 580              	main:
 581              	.LFB10:
  86:main.c        **** 
  87:main.c        **** int main(void)
  88:main.c        **** {
 582              		.loc 1 88 1 is_stmt 1
 583              		.cfi_startproc
  89:main.c        ****   int ms = 0, s = 0, idle = 0;
 584              		.loc 1 89 3
 585              	.LVL54:
  90:main.c        **** 
  91:main.c        ****   t5omsi(); // Initialize timer5 1kHz
 586              		.loc 1 91 3
  88:main.c        ****   int ms = 0, s = 0, idle = 0;
 587              		.loc 1 88 1 is_stmt 0
 588 0000 7D73     		li	t1,-4096
 589 0002 130101D9 		addi	sp,sp,-624
 590              	.LCFI9:
 591              		.cfi_def_cfa_offset 624
 592 0006 23261126 		sw	ra,620(sp)
 593 000a 23248126 		sw	s0,616(sp)
 594 000e 23229126 		sw	s1,612(sp)
 595 0012 23202127 		sw	s2,608(sp)
 596 0016 1A91     		add	sp,sp,t1
 597              	.LCFI10:
 598              		.cfi_def_cfa_offset 4720
 599              		.cfi_offset 1, -4
 600              		.cfi_offset 8, -8
 601              		.cfi_offset 9, -12
 602              		.cfi_offset 18, -16
 603              		.loc 1 91 3
 604 0018 97000000 		call	t5omsi
 604      E7800000 
 605              	.LVL55:
  92:main.c        ****   colinit();
 606              		.loc 1 92 3 is_stmt 1
 607 0020 97000000 		call	colinit
 607      E7800000 
 608              	.LVL56:
  93:main.c        ****   l88init();
GAS LISTING /var/folders/rt/4gvqv631095f64jvm7jfj_000000gn/T//ccWY8Zlo.s 			page 15


 609              		.loc 1 93 3
 610 0028 97000000 		call	l88init
 610      E7800000 
 611              	.LVL57:
  94:main.c        ****   // keyinit();          // Initialize keyboard toolbox
  95:main.c        ****   rtcInit();
 612              		.loc 1 95 3
 613 0030 97000000 		call	rtcInit
 613      E7800000 
 614              	.LVL58:
  96:main.c        ****   rtc_counter_set(0);
 615              		.loc 1 96 3
 616 0038 0145     		li	a0,0
 617 003a 97000000 		call	rtc_counter_set
 617      E7800000 
 618              	.LVL59:
  97:main.c        ****   u0init(EI);           // Init WiFi Ă¶ver UART
 619              		.loc 1 97 3
 620 0042 0545     		li	a0,1
 621 0044 97000000 		call	u0init
 621      E7800000 
 622              	.LVL60:
  98:main.c        ****   eclic_global_interrupt_enable();
 623              		.loc 1 98 3
 624 004c 97000000 		call	eclic_global_interrupt_enable
 624      E7800000 
 625              	.LVL61:
  99:main.c        ****   ADC3powerUpInit(0); // Initialize ADC0, Ch3
 626              		.loc 1 99 3
 627 0054 0145     		li	a0,0
 628 0056 97000000 		call	ADC3powerUpInit
 628      E7800000 
 629              	.LVL62:
 100:main.c        **** 
 101:main.c        ****   Lcd_SetType(LCD_INVERTED);
 630              		.loc 1 101 3
 631 005e 0545     		li	a0,1
 632 0060 97000000 		call	Lcd_SetType
 632      E7800000 
 633              	.LVL63:
 102:main.c        ****   Lcd_Init();
 634              		.loc 1 102 3
 635 0068 97000000 		call	Lcd_Init
 635      E7800000 
 636              	.LVL64:
 103:main.c        ****   LCD_Fill(0, 0, 160, 80, BLACK);
 637              		.loc 1 103 3
 638 0070 93060005 		li	a3,80
 639 0074 0147     		li	a4,0
 640 0076 1306000A 		li	a2,160
 641 007a 8145     		li	a1,0
 642 007c 0145     		li	a0,0
 643 007e 97000000 		call	LCD_Fill
 643      E7800000 
 644              	.LVL65:
 104:main.c        **** 
 105:main.c        ****   Plant allPlants[3];
GAS LISTING /var/folders/rt/4gvqv631095f64jvm7jfj_000000gn/T//ccWY8Zlo.s 			page 16


 645              		.loc 1 105 3
 106:main.c        ****   int numberOfPlants = 0;
 646              		.loc 1 106 3
 107:main.c        ****   initPlant("Gurka", &numberOfPlants, allPlants);
 647              		.loc 1 107 3 is_stmt 0
 648 0086 0567     		li	a4,4096
 649 0088 93070726 		addi	a5,a4,608
 106:main.c        ****   int numberOfPlants = 0;
 650              		.loc 1 106 7
 651 008c 7D74     		li	s0,-4096
 652              		.loc 1 107 3
 653 008e 9304C4DA 		addi	s1,s0,-596
 654 0092 8A97     		add	a5,a5,sp
 655 0094 BE94     		add	s1,a5,s1
 656 0096 93070726 		addi	a5,a4,608
 657 009a 8A97     		add	a5,a5,sp
 658 009c 130484DA 		addi	s0,s0,-600
 659 00a0 3E94     		add	s0,a5,s0
 660 00a2 37050000 		lui	a0,%hi(.LC4)
 661 00a6 2686     		mv	a2,s1
 662 00a8 A285     		mv	a1,s0
 663 00aa 13050500 		addi	a0,a0,%lo(.LC4)
 106:main.c        ****   int numberOfPlants = 0;
 664              		.loc 1 106 7
 665 00ae 02C4     		sw	zero,8(sp)
 666              		.loc 1 107 3 is_stmt 1
 667 00b0 97000000 		call	initPlant
 667      E7800000 
 668              	.LVL66:
 108:main.c        ****   initPlant("Tomat", &numberOfPlants, allPlants);
 669              		.loc 1 108 3
 670 00b8 37050000 		lui	a0,%hi(.LC5)
 671 00bc 2686     		mv	a2,s1
 672 00be A285     		mv	a1,s0
 673 00c0 13050500 		addi	a0,a0,%lo(.LC5)
 674 00c4 97000000 		call	initPlant
 674      E7800000 
 675              	.LVL67:
 109:main.c        ****   initPlant("Chili", &numberOfPlants, allPlants);
 676              		.loc 1 109 3
 677 00cc 37050000 		lui	a0,%hi(.LC6)
 678 00d0 2686     		mv	a2,s1
 679 00d2 A285     		mv	a1,s0
 680 00d4 13050500 		addi	a0,a0,%lo(.LC6)
 681 00d8 97000000 		call	initPlant
 681      E7800000 
 682              	.LVL68:
  89:main.c        **** 
 683              		.loc 1 89 22 is_stmt 0
 684 00e0 0144     		li	s0,0
  89:main.c        **** 
 685              		.loc 1 89 7
 686 00e2 8144     		li	s1,0
 110:main.c        **** 
 111:main.c        ****   //char buf[100];
 112:main.c        ****   //int i = 0;
 113:main.c        **** 
GAS LISTING /var/folders/rt/4gvqv631095f64jvm7jfj_000000gn/T//ccWY8Zlo.s 			page 17


 114:main.c        ****   while (1)
 115:main.c        ****   {
 116:main.c        ****     idle++;
 117:main.c        ****     if (t5expq())
 118:main.c        ****     {
 119:main.c        ****       l88row(colset());
 120:main.c        ****       ms++;
 121:main.c        ****       if (ms == 1000)
 687              		.loc 1 121 10
 688 00e4 1309803E 		li	s2,1000
 689              	.LVL69:
 690              	.L23:
 114:main.c        ****   {
 691              		.loc 1 114 3 is_stmt 1
 116:main.c        ****     if (t5expq())
 692              		.loc 1 116 5
 116:main.c        ****     if (t5expq())
 693              		.loc 1 116 9 is_stmt 0
 694 00e8 0504     		addi	s0,s0,1
 695              	.LVL70:
 117:main.c        ****     {
 696              		.loc 1 117 5 is_stmt 1
 117:main.c        ****     {
 697              		.loc 1 117 9 is_stmt 0
 698 00ea 97000000 		call	t5expq
 698      E7800000 
 699              	.LVL71:
 117:main.c        ****     {
 700              		.loc 1 117 8
 701 00f2 7DD9     		beq	a0,zero,.L23
 702 00f4 8504     		addi	s1,s1,1
 703              	.LVL72:
 119:main.c        ****       ms++;
 704              		.loc 1 119 7 is_stmt 1
 705 00f6 97000000 		call	colset
 705      E7800000 
 706              	.LVL73:
 707 00fe 97000000 		call	l88row
 707      E7800000 
 708              	.LVL74:
 120:main.c        ****       if (ms == 1000)
 709              		.loc 1 120 7
 710              		.loc 1 121 7
 711              		.loc 1 121 10 is_stmt 0
 712 0106 E39124FF 		bne	s1,s2,.L23
 122:main.c        ****       {
 123:main.c        ****         // updatePlantReading(allPlants, numberOfPlants, "Tomat", SUN);
 124:main.c        ****         //  renderAllPlants(allPlants, numberOfPlants);
 125:main.c        ****         // renderOnePlant(allPlants, numberOfPlants, "Tomat");
 126:main.c        ****        
 127:main.c        ****         l88mem(0, idle >> 8); // ...Performance monitor
 713              		.loc 1 127 9 is_stmt 1
 714 010a 93558440 		srai	a1,s0,8
 715 010e 0145     		li	a0,0
 716 0110 97000000 		call	l88mem
 716      E7800000 
 717              	.LVL75:
GAS LISTING /var/folders/rt/4gvqv631095f64jvm7jfj_000000gn/T//ccWY8Zlo.s 			page 18


 128:main.c        ****         l88mem(1, idle);
 718              		.loc 1 128 9
 719 0118 A285     		mv	a1,s0
 720 011a 0545     		li	a0,1
 721 011c 97000000 		call	l88mem
 721      E7800000 
 722              	.LVL76:
 129:main.c        ****         idle = 0;
 723              		.loc 1 129 9
 724              		.loc 1 129 14 is_stmt 0
 725 0124 0144     		li	s0,0
 726 0126 C9B7     		j	.L23
 727              		.cfi_endproc
 728              	.LFE10:
 730              		.section	.rodata.main.str1.4,"aMS",@progbits,1
 731              		.align	2
 732              	.LC4:
 733 0000 4775726B 		.string	"Gurka"
 733      6100
 734 0006 0000     		.zero	2
 735              	.LC5:
 736 0008 546F6D61 		.string	"Tomat"
 736      7400
 737 000e 0000     		.zero	2
 738              	.LC6:
 739 0010 4368696C 		.string	"Chili"
 739      6900
 740              		.section	.rodata.renderAllPlants.str1.4,"aMS",@progbits,1
 741              		.align	2
 742              	.LC0:
 743 0000 2500     		.string	"%"
 744              		.section	.rodata.renderOnePlant.str1.4,"aMS",@progbits,1
 745              		.align	2
 746              	.LC1:
 747 0000 4E4F2053 		.string	"NO SUCH PLANT"
 747      55434820 
 747      504C414E 
 747      5400
 748              		.section	.rodata.updatePlantReading.str1.4,"aMS",@progbits,1
 749              		.align	2
 750              	.LC2:
 751 0000 257300   		.string	"%s"
 752 0003 00       		.zero	1
 753              	.LC3:
 754 0004 53554E20 		.string	"SUN READINGS FULL"
 754      52454144 
 754      494E4753 
 754      2046554C 
 754      4C00
 755              		.text
 756              	.Letext0:
 757              		.file 2 "/Users/alexstrae/toolchain-gd32v-v202-osx/compiler/riscv64-unknown-elf/include/machine/_d
 758              		.file 3 "/Users/alexstrae/toolchain-gd32v-v202-osx/compiler/riscv64-unknown-elf/include/sys/_stdin
 759              		.file 4 "/Users/alexstrae/toolchain-gd32v-v202-osx/compiler/lib/gcc/riscv64-unknown-elf/8.3.0/incl
 760              		.file 5 "/Users/alexstrae/toolchain-gd32v-v202-osx/compiler/riscv64-unknown-elf/include/sys/_types
 761              		.file 6 "/Users/alexstrae/toolchain-gd32v-v202-osx/compiler/riscv64-unknown-elf/include/sys/reent.
 762              		.file 7 "/Users/alexstrae/toolchain-gd32v-v202-osx/compiler/riscv64-unknown-elf/include/sys/lock.h
GAS LISTING /var/folders/rt/4gvqv631095f64jvm7jfj_000000gn/T//ccWY8Zlo.s 			page 19


 763              		.file 8 "../../firmware/GD32VF103_standard_peripheral/system_gd32vf103.h"
 764              		.file 9 "/Users/alexstrae/toolchain-gd32v-v202-osx/compiler/riscv64-unknown-elf/include/stdlib.h"
 765              		.file 10 "lcd.h"
 766              		.file 11 "plant.h"
 767              		.file 12 "drivers.h"
 768              		.file 13 "utilities.h"
 769              		.file 14 "../../firmware/GD32VF103_standard_peripheral/Include/gd32vf103_rtc.h"
 770              		.file 15 "usart.h"
 771              		.file 16 "../../firmware/GD32VF103_standard_peripheral/Include/gd32vf103_eclic.h"
 772              		.file 17 "adc.h"
 773              		.file 18 "/Users/alexstrae/toolchain-gd32v-v202-osx/compiler/riscv64-unknown-elf/include/stdio.h"
 774              		.file 19 "/Users/alexstrae/toolchain-gd32v-v202-osx/compiler/riscv64-unknown-elf/include/string.h"
GAS LISTING /var/folders/rt/4gvqv631095f64jvm7jfj_000000gn/T//ccWY8Zlo.s 			page 20


DEFINED SYMBOLS
                            *ABS*:0000000000000000 main.c
/var/folders/rt/4gvqv631095f64jvm7jfj_000000gn/T//ccWY8Zlo.s:13     .text.renderAllPlants:0000000000000000 renderAllPlants
/var/folders/rt/4gvqv631095f64jvm7jfj_000000gn/T//ccWY8Zlo.s:17     .text.renderAllPlants:0000000000000000 .L0 
/var/folders/rt/4gvqv631095f64jvm7jfj_000000gn/T//ccWY8Zlo.s:19     .text.renderAllPlants:0000000000000000 .L0 
/var/folders/rt/4gvqv631095f64jvm7jfj_000000gn/T//ccWY8Zlo.s:21     .text.renderAllPlants:0000000000000000 .L0 
/var/folders/rt/4gvqv631095f64jvm7jfj_000000gn/T//ccWY8Zlo.s:23     .text.renderAllPlants:0000000000000000 .L0 
/var/folders/rt/4gvqv631095f64jvm7jfj_000000gn/T//ccWY8Zlo.s:24     .text.renderAllPlants:0000000000000000 .L0 
/var/folders/rt/4gvqv631095f64jvm7jfj_000000gn/T//ccWY8Zlo.s:26     .text.renderAllPlants:0000000000000002 .L0 
/var/folders/rt/4gvqv631095f64jvm7jfj_000000gn/T//ccWY8Zlo.s:28     .text.renderAllPlants:0000000000000004 .L0 
/var/folders/rt/4gvqv631095f64jvm7jfj_000000gn/T//ccWY8Zlo.s:31     .text.renderAllPlants:0000000000000004 .L0 
/var/folders/rt/4gvqv631095f64jvm7jfj_000000gn/T//ccWY8Zlo.s:34     .text.renderAllPlants:0000000000000006 .L0 
/var/folders/rt/4gvqv631095f64jvm7jfj_000000gn/T//ccWY8Zlo.s:42     .text.renderAllPlants:0000000000000016 .L0 
/var/folders/rt/4gvqv631095f64jvm7jfj_000000gn/T//ccWY8Zlo.s:43     .text.renderAllPlants:0000000000000016 .L0 
/var/folders/rt/4gvqv631095f64jvm7jfj_000000gn/T//ccWY8Zlo.s:44     .text.renderAllPlants:0000000000000016 .L0 
/var/folders/rt/4gvqv631095f64jvm7jfj_000000gn/T//ccWY8Zlo.s:45     .text.renderAllPlants:0000000000000016 .L0 
/var/folders/rt/4gvqv631095f64jvm7jfj_000000gn/T//ccWY8Zlo.s:46     .text.renderAllPlants:0000000000000016 .L0 
/var/folders/rt/4gvqv631095f64jvm7jfj_000000gn/T//ccWY8Zlo.s:47     .text.renderAllPlants:0000000000000016 .L0 
/var/folders/rt/4gvqv631095f64jvm7jfj_000000gn/T//ccWY8Zlo.s:48     .text.renderAllPlants:0000000000000016 .L0 
/var/folders/rt/4gvqv631095f64jvm7jfj_000000gn/T//ccWY8Zlo.s:49     .text.renderAllPlants:0000000000000016 .L0 
/var/folders/rt/4gvqv631095f64jvm7jfj_000000gn/T//ccWY8Zlo.s:51     .text.renderAllPlants:0000000000000016 .L0 
/var/folders/rt/4gvqv631095f64jvm7jfj_000000gn/T//ccWY8Zlo.s:55     .text.renderAllPlants:000000000000001a .L0 
/var/folders/rt/4gvqv631095f64jvm7jfj_000000gn/T//ccWY8Zlo.s:58     .text.renderAllPlants:0000000000000020 .L0 
/var/folders/rt/4gvqv631095f64jvm7jfj_000000gn/T//ccWY8Zlo.s:60     .text.renderAllPlants:0000000000000022 .L0 
/var/folders/rt/4gvqv631095f64jvm7jfj_000000gn/T//ccWY8Zlo.s:64     .text.renderAllPlants:0000000000000026 .L0 
/var/folders/rt/4gvqv631095f64jvm7jfj_000000gn/T//ccWY8Zlo.s:67     .text.renderAllPlants:000000000000002a .L0 
/var/folders/rt/4gvqv631095f64jvm7jfj_000000gn/T//ccWY8Zlo.s:68     .text.renderAllPlants:000000000000002c .L0 
/var/folders/rt/4gvqv631095f64jvm7jfj_000000gn/T//ccWY8Zlo.s:69     .text.renderAllPlants:000000000000002c .L0 
/var/folders/rt/4gvqv631095f64jvm7jfj_000000gn/T//ccWY8Zlo.s:71     .text.renderAllPlants:000000000000002e .L0 
/var/folders/rt/4gvqv631095f64jvm7jfj_000000gn/T//ccWY8Zlo.s:73     .text.renderAllPlants:0000000000000030 .L0 
/var/folders/rt/4gvqv631095f64jvm7jfj_000000gn/T//ccWY8Zlo.s:75     .text.renderAllPlants:0000000000000032 .L0 
/var/folders/rt/4gvqv631095f64jvm7jfj_000000gn/T//ccWY8Zlo.s:77     .text.renderAllPlants:0000000000000034 .L0 
/var/folders/rt/4gvqv631095f64jvm7jfj_000000gn/T//ccWY8Zlo.s:79     .text.renderAllPlants:0000000000000036 .L0 
/var/folders/rt/4gvqv631095f64jvm7jfj_000000gn/T//ccWY8Zlo.s:82     .text.renderAllPlants:0000000000000038 .L0 
/var/folders/rt/4gvqv631095f64jvm7jfj_000000gn/T//ccWY8Zlo.s:84     .text.renderAllPlants:000000000000003a .L0 
/var/folders/rt/4gvqv631095f64jvm7jfj_000000gn/T//ccWY8Zlo.s:87     .text.renderAllPlants:000000000000003c .L0 
/var/folders/rt/4gvqv631095f64jvm7jfj_000000gn/T//ccWY8Zlo.s:90     .text.renderAllPlants:000000000000003e .L0 
/var/folders/rt/4gvqv631095f64jvm7jfj_000000gn/T//ccWY8Zlo.s:95     .text.renderAllPlants:0000000000000040 .L0 
/var/folders/rt/4gvqv631095f64jvm7jfj_000000gn/T//ccWY8Zlo.s:98     .text.renderAllPlants:0000000000000040 .L0 
/var/folders/rt/4gvqv631095f64jvm7jfj_000000gn/T//ccWY8Zlo.s:104    .text.renderAllPlants:000000000000004c .L0 
/var/folders/rt/4gvqv631095f64jvm7jfj_000000gn/T//ccWY8Zlo.s:107    .text.renderAllPlants:000000000000004e .L0 
/var/folders/rt/4gvqv631095f64jvm7jfj_000000gn/T//ccWY8Zlo.s:111    .text.renderAllPlants:0000000000000058 .L0 
/var/folders/rt/4gvqv631095f64jvm7jfj_000000gn/T//ccWY8Zlo.s:112    .text.renderAllPlants:0000000000000058 .L0 
/var/folders/rt/4gvqv631095f64jvm7jfj_000000gn/T//ccWY8Zlo.s:114    .text.renderAllPlants:000000000000005c .L0 
/var/folders/rt/4gvqv631095f64jvm7jfj_000000gn/T//ccWY8Zlo.s:117    .text.renderAllPlants:0000000000000060 .L0 
/var/folders/rt/4gvqv631095f64jvm7jfj_000000gn/T//ccWY8Zlo.s:121    .text.renderAllPlants:0000000000000066 .L0 
/var/folders/rt/4gvqv631095f64jvm7jfj_000000gn/T//ccWY8Zlo.s:127    .text.renderAllPlants:0000000000000074 .L0 
/var/folders/rt/4gvqv631095f64jvm7jfj_000000gn/T//ccWY8Zlo.s:136    .text.renderAllPlants:000000000000008c .L0 
/var/folders/rt/4gvqv631095f64jvm7jfj_000000gn/T//ccWY8Zlo.s:137    .text.renderAllPlants:000000000000008c .L0 
/var/folders/rt/4gvqv631095f64jvm7jfj_000000gn/T//ccWY8Zlo.s:139    .text.renderAllPlants:0000000000000090 .L0 
/var/folders/rt/4gvqv631095f64jvm7jfj_000000gn/T//ccWY8Zlo.s:142    .text.renderAllPlants:0000000000000094 .L0 
/var/folders/rt/4gvqv631095f64jvm7jfj_000000gn/T//ccWY8Zlo.s:146    .text.renderAllPlants:000000000000009c .L0 
/var/folders/rt/4gvqv631095f64jvm7jfj_000000gn/T//ccWY8Zlo.s:152    .text.renderAllPlants:00000000000000ac .L0 
/var/folders/rt/4gvqv631095f64jvm7jfj_000000gn/T//ccWY8Zlo.s:160    .text.renderAllPlants:00000000000000c2 .L0 
/var/folders/rt/4gvqv631095f64jvm7jfj_000000gn/T//ccWY8Zlo.s:170    .text.renderAllPlants:00000000000000e0 .L0 
/var/folders/rt/4gvqv631095f64jvm7jfj_000000gn/T//ccWY8Zlo.s:177    .text.renderOnePlant:0000000000000000 renderOnePlant
/var/folders/rt/4gvqv631095f64jvm7jfj_000000gn/T//ccWY8Zlo.s:180    .text.renderOnePlant:0000000000000000 .L0 
GAS LISTING /var/folders/rt/4gvqv631095f64jvm7jfj_000000gn/T//ccWY8Zlo.s 			page 21


/var/folders/rt/4gvqv631095f64jvm7jfj_000000gn/T//ccWY8Zlo.s:182    .text.renderOnePlant:0000000000000000 .L0 
/var/folders/rt/4gvqv631095f64jvm7jfj_000000gn/T//ccWY8Zlo.s:184    .text.renderOnePlant:0000000000000000 .L0 
/var/folders/rt/4gvqv631095f64jvm7jfj_000000gn/T//ccWY8Zlo.s:186    .text.renderOnePlant:0000000000000000 .L0 
/var/folders/rt/4gvqv631095f64jvm7jfj_000000gn/T//ccWY8Zlo.s:187    .text.renderOnePlant:0000000000000000 .L0 
/var/folders/rt/4gvqv631095f64jvm7jfj_000000gn/T//ccWY8Zlo.s:189    .text.renderOnePlant:0000000000000002 .L0 
/var/folders/rt/4gvqv631095f64jvm7jfj_000000gn/T//ccWY8Zlo.s:195    .text.renderOnePlant:000000000000000c .L0 
/var/folders/rt/4gvqv631095f64jvm7jfj_000000gn/T//ccWY8Zlo.s:196    .text.renderOnePlant:000000000000000c .L0 
/var/folders/rt/4gvqv631095f64jvm7jfj_000000gn/T//ccWY8Zlo.s:197    .text.renderOnePlant:000000000000000c .L0 
/var/folders/rt/4gvqv631095f64jvm7jfj_000000gn/T//ccWY8Zlo.s:198    .text.renderOnePlant:000000000000000c .L0 
/var/folders/rt/4gvqv631095f64jvm7jfj_000000gn/T//ccWY8Zlo.s:199    .text.renderOnePlant:000000000000000c .L0 
/var/folders/rt/4gvqv631095f64jvm7jfj_000000gn/T//ccWY8Zlo.s:201    .text.renderOnePlant:000000000000000c .L0 
/var/folders/rt/4gvqv631095f64jvm7jfj_000000gn/T//ccWY8Zlo.s:205    .text.renderOnePlant:0000000000000010 .L0 
/var/folders/rt/4gvqv631095f64jvm7jfj_000000gn/T//ccWY8Zlo.s:209    .text.renderOnePlant:0000000000000012 .L0 
/var/folders/rt/4gvqv631095f64jvm7jfj_000000gn/T//ccWY8Zlo.s:212    .text.renderOnePlant:0000000000000016 .L0 
/var/folders/rt/4gvqv631095f64jvm7jfj_000000gn/T//ccWY8Zlo.s:225    .text.renderOnePlant:000000000000002e .L0 
/var/folders/rt/4gvqv631095f64jvm7jfj_000000gn/T//ccWY8Zlo.s:226    .text.renderOnePlant:000000000000002e .L0 
/var/folders/rt/4gvqv631095f64jvm7jfj_000000gn/T//ccWY8Zlo.s:232    .text.renderOnePlant:000000000000003c .L0 
/var/folders/rt/4gvqv631095f64jvm7jfj_000000gn/T//ccWY8Zlo.s:234    .text.renderOnePlant:000000000000003e .L0 
/var/folders/rt/4gvqv631095f64jvm7jfj_000000gn/T//ccWY8Zlo.s:239    .text.renderOnePlant:0000000000000048 .L0 
/var/folders/rt/4gvqv631095f64jvm7jfj_000000gn/T//ccWY8Zlo.s:248    .text.renderOnePlant:000000000000005c .L0 
/var/folders/rt/4gvqv631095f64jvm7jfj_000000gn/T//ccWY8Zlo.s:249    .text.renderOnePlant:000000000000005c .L0 
/var/folders/rt/4gvqv631095f64jvm7jfj_000000gn/T//ccWY8Zlo.s:251    .text.renderOnePlant:0000000000000060 .L0 
/var/folders/rt/4gvqv631095f64jvm7jfj_000000gn/T//ccWY8Zlo.s:254    .text.renderOnePlant:0000000000000066 .L0 
/var/folders/rt/4gvqv631095f64jvm7jfj_000000gn/T//ccWY8Zlo.s:257    .text.renderOnePlant:000000000000006a .L0 
/var/folders/rt/4gvqv631095f64jvm7jfj_000000gn/T//ccWY8Zlo.s:263    .text.renderOnePlant:0000000000000078 .L0 
/var/folders/rt/4gvqv631095f64jvm7jfj_000000gn/T//ccWY8Zlo.s:273    .text.renderOnePlant:0000000000000092 .L0 
/var/folders/rt/4gvqv631095f64jvm7jfj_000000gn/T//ccWY8Zlo.s:274    .text.renderOnePlant:0000000000000092 .L0 
/var/folders/rt/4gvqv631095f64jvm7jfj_000000gn/T//ccWY8Zlo.s:276    .text.renderOnePlant:0000000000000096 .L0 
/var/folders/rt/4gvqv631095f64jvm7jfj_000000gn/T//ccWY8Zlo.s:279    .text.renderOnePlant:000000000000009c .L0 
/var/folders/rt/4gvqv631095f64jvm7jfj_000000gn/T//ccWY8Zlo.s:282    .text.renderOnePlant:00000000000000a0 .L0 
/var/folders/rt/4gvqv631095f64jvm7jfj_000000gn/T//ccWY8Zlo.s:288    .text.renderOnePlant:00000000000000b0 .L0 
/var/folders/rt/4gvqv631095f64jvm7jfj_000000gn/T//ccWY8Zlo.s:289    .text.renderOnePlant:00000000000000b0 .L0 
/var/folders/rt/4gvqv631095f64jvm7jfj_000000gn/T//ccWY8Zlo.s:291    .text.renderOnePlant:00000000000000b4 .L0 
/var/folders/rt/4gvqv631095f64jvm7jfj_000000gn/T//ccWY8Zlo.s:294    .text.renderOnePlant:00000000000000ba .L0 
/var/folders/rt/4gvqv631095f64jvm7jfj_000000gn/T//ccWY8Zlo.s:298    .text.renderOnePlant:00000000000000c2 .L0 
/var/folders/rt/4gvqv631095f64jvm7jfj_000000gn/T//ccWY8Zlo.s:304    .text.renderOnePlant:00000000000000d2 .L0 
/var/folders/rt/4gvqv631095f64jvm7jfj_000000gn/T//ccWY8Zlo.s:312    .text.renderOnePlant:00000000000000ea .L0 
/var/folders/rt/4gvqv631095f64jvm7jfj_000000gn/T//ccWY8Zlo.s:320    .text.renderOnePlant:0000000000000104 .L0 
/var/folders/rt/4gvqv631095f64jvm7jfj_000000gn/T//ccWY8Zlo.s:321    .text.renderOnePlant:0000000000000104 .L0 
/var/folders/rt/4gvqv631095f64jvm7jfj_000000gn/T//ccWY8Zlo.s:323    .text.renderOnePlant:0000000000000108 .L0 
/var/folders/rt/4gvqv631095f64jvm7jfj_000000gn/T//ccWY8Zlo.s:326    .text.renderOnePlant:000000000000010e .L0 
/var/folders/rt/4gvqv631095f64jvm7jfj_000000gn/T//ccWY8Zlo.s:329    .text.renderOnePlant:0000000000000114 .L0 
/var/folders/rt/4gvqv631095f64jvm7jfj_000000gn/T//ccWY8Zlo.s:335    .text.renderOnePlant:0000000000000126 .L0 
/var/folders/rt/4gvqv631095f64jvm7jfj_000000gn/T//ccWY8Zlo.s:344    .text.renderOnePlant:0000000000000136 .L0 
/var/folders/rt/4gvqv631095f64jvm7jfj_000000gn/T//ccWY8Zlo.s:345    .text.renderOnePlant:0000000000000138 .L0 
/var/folders/rt/4gvqv631095f64jvm7jfj_000000gn/T//ccWY8Zlo.s:346    .text.renderOnePlant:0000000000000138 .L0 
/var/folders/rt/4gvqv631095f64jvm7jfj_000000gn/T//ccWY8Zlo.s:348    .text.renderOnePlant:000000000000013a .L0 
/var/folders/rt/4gvqv631095f64jvm7jfj_000000gn/T//ccWY8Zlo.s:350    .text.renderOnePlant:000000000000013c .L0 
/var/folders/rt/4gvqv631095f64jvm7jfj_000000gn/T//ccWY8Zlo.s:352    .text.renderOnePlant:000000000000013e .L0 
/var/folders/rt/4gvqv631095f64jvm7jfj_000000gn/T//ccWY8Zlo.s:354    .text.renderOnePlant:0000000000000140 .L0 
/var/folders/rt/4gvqv631095f64jvm7jfj_000000gn/T//ccWY8Zlo.s:358    .text.renderOnePlant:0000000000000142 .L0 
/var/folders/rt/4gvqv631095f64jvm7jfj_000000gn/T//ccWY8Zlo.s:360    .text.renderOnePlant:0000000000000142 .L0 
/var/folders/rt/4gvqv631095f64jvm7jfj_000000gn/T//ccWY8Zlo.s:364    .text.renderOnePlant:000000000000014a .L0 
/var/folders/rt/4gvqv631095f64jvm7jfj_000000gn/T//ccWY8Zlo.s:367    .text.renderOnePlant:000000000000014a .L0 
/var/folders/rt/4gvqv631095f64jvm7jfj_000000gn/T//ccWY8Zlo.s:371    .text.renderOnePlant:000000000000014e .L0 
/var/folders/rt/4gvqv631095f64jvm7jfj_000000gn/T//ccWY8Zlo.s:378    .text.updatePlantStatus:0000000000000000 updatePlantStatus
/var/folders/rt/4gvqv631095f64jvm7jfj_000000gn/T//ccWY8Zlo.s:381    .text.updatePlantStatus:0000000000000000 .L0 
GAS LISTING /var/folders/rt/4gvqv631095f64jvm7jfj_000000gn/T//ccWY8Zlo.s 			page 22


/var/folders/rt/4gvqv631095f64jvm7jfj_000000gn/T//ccWY8Zlo.s:382    .text.updatePlantStatus:0000000000000000 .L0 
/var/folders/rt/4gvqv631095f64jvm7jfj_000000gn/T//ccWY8Zlo.s:383    .text.updatePlantStatus:0000000000000000 .L0 
/var/folders/rt/4gvqv631095f64jvm7jfj_000000gn/T//ccWY8Zlo.s:384    .text.updatePlantStatus:0000000000000002 .L0 
/var/folders/rt/4gvqv631095f64jvm7jfj_000000gn/T//ccWY8Zlo.s:391    .text.updatePlantReading:0000000000000000 updatePlantReading
/var/folders/rt/4gvqv631095f64jvm7jfj_000000gn/T//ccWY8Zlo.s:394    .text.updatePlantReading:0000000000000000 .L0 
/var/folders/rt/4gvqv631095f64jvm7jfj_000000gn/T//ccWY8Zlo.s:396    .text.updatePlantReading:0000000000000000 .L0 
/var/folders/rt/4gvqv631095f64jvm7jfj_000000gn/T//ccWY8Zlo.s:398    .text.updatePlantReading:0000000000000000 .L0 
/var/folders/rt/4gvqv631095f64jvm7jfj_000000gn/T//ccWY8Zlo.s:400    .text.updatePlantReading:0000000000000000 .L0 
/var/folders/rt/4gvqv631095f64jvm7jfj_000000gn/T//ccWY8Zlo.s:401    .text.updatePlantReading:0000000000000000 .L0 
/var/folders/rt/4gvqv631095f64jvm7jfj_000000gn/T//ccWY8Zlo.s:403    .text.updatePlantReading:0000000000000002 .L0 
/var/folders/rt/4gvqv631095f64jvm7jfj_000000gn/T//ccWY8Zlo.s:409    .text.updatePlantReading:000000000000000c .L0 
/var/folders/rt/4gvqv631095f64jvm7jfj_000000gn/T//ccWY8Zlo.s:410    .text.updatePlantReading:000000000000000c .L0 
/var/folders/rt/4gvqv631095f64jvm7jfj_000000gn/T//ccWY8Zlo.s:411    .text.updatePlantReading:000000000000000c .L0 
/var/folders/rt/4gvqv631095f64jvm7jfj_000000gn/T//ccWY8Zlo.s:412    .text.updatePlantReading:000000000000000c .L0 
/var/folders/rt/4gvqv631095f64jvm7jfj_000000gn/T//ccWY8Zlo.s:413    .text.updatePlantReading:000000000000000c .L0 
/var/folders/rt/4gvqv631095f64jvm7jfj_000000gn/T//ccWY8Zlo.s:415    .text.updatePlantReading:000000000000000c .L0 
/var/folders/rt/4gvqv631095f64jvm7jfj_000000gn/T//ccWY8Zlo.s:419    .text.updatePlantReading:0000000000000010 .L0 
/var/folders/rt/4gvqv631095f64jvm7jfj_000000gn/T//ccWY8Zlo.s:421    .text.updatePlantReading:0000000000000012 .L0 
/var/folders/rt/4gvqv631095f64jvm7jfj_000000gn/T//ccWY8Zlo.s:425    .text.updatePlantReading:0000000000000014 .L0 
/var/folders/rt/4gvqv631095f64jvm7jfj_000000gn/T//ccWY8Zlo.s:428    .text.updatePlantReading:0000000000000018 .L0 
/var/folders/rt/4gvqv631095f64jvm7jfj_000000gn/T//ccWY8Zlo.s:438    .text.updatePlantReading:000000000000002e .L0 
/var/folders/rt/4gvqv631095f64jvm7jfj_000000gn/T//ccWY8Zlo.s:450    .text.updatePlantReading:0000000000000046 .L0 
/var/folders/rt/4gvqv631095f64jvm7jfj_000000gn/T//ccWY8Zlo.s:454    .text.updatePlantReading:000000000000004c .L0 
/var/folders/rt/4gvqv631095f64jvm7jfj_000000gn/T//ccWY8Zlo.s:455    .text.updatePlantReading:000000000000004c .L0 
/var/folders/rt/4gvqv631095f64jvm7jfj_000000gn/T//ccWY8Zlo.s:459    .text.updatePlantReading:0000000000000056 .L0 
/var/folders/rt/4gvqv631095f64jvm7jfj_000000gn/T//ccWY8Zlo.s:464    .text.updatePlantReading:000000000000005c .L0 
/var/folders/rt/4gvqv631095f64jvm7jfj_000000gn/T//ccWY8Zlo.s:465    .text.updatePlantReading:000000000000005c .L0 
/var/folders/rt/4gvqv631095f64jvm7jfj_000000gn/T//ccWY8Zlo.s:468    .text.updatePlantReading:0000000000000060 .L0 
/var/folders/rt/4gvqv631095f64jvm7jfj_000000gn/T//ccWY8Zlo.s:469    .text.updatePlantReading:0000000000000060 .L0 
/var/folders/rt/4gvqv631095f64jvm7jfj_000000gn/T//ccWY8Zlo.s:473    .text.updatePlantReading:000000000000006a .L0 
/var/folders/rt/4gvqv631095f64jvm7jfj_000000gn/T//ccWY8Zlo.s:474    .text.updatePlantReading:000000000000006a .L0 
/var/folders/rt/4gvqv631095f64jvm7jfj_000000gn/T//ccWY8Zlo.s:480    .text.updatePlantReading:000000000000007c .L0 
/var/folders/rt/4gvqv631095f64jvm7jfj_000000gn/T//ccWY8Zlo.s:481    .text.updatePlantReading:000000000000007c .L0 
/var/folders/rt/4gvqv631095f64jvm7jfj_000000gn/T//ccWY8Zlo.s:482    .text.updatePlantReading:000000000000007c .L0 
/var/folders/rt/4gvqv631095f64jvm7jfj_000000gn/T//ccWY8Zlo.s:484    .text.updatePlantReading:0000000000000080 .L0 
/var/folders/rt/4gvqv631095f64jvm7jfj_000000gn/T//ccWY8Zlo.s:487    .text.updatePlantReading:0000000000000088 .L0 
/var/folders/rt/4gvqv631095f64jvm7jfj_000000gn/T//ccWY8Zlo.s:488    .text.updatePlantReading:0000000000000088 .L0 
/var/folders/rt/4gvqv631095f64jvm7jfj_000000gn/T//ccWY8Zlo.s:497    .text.updatePlantReading:000000000000009a .L0 
/var/folders/rt/4gvqv631095f64jvm7jfj_000000gn/T//ccWY8Zlo.s:507    .text.updatePlantReading:00000000000000b6 .L0 
/var/folders/rt/4gvqv631095f64jvm7jfj_000000gn/T//ccWY8Zlo.s:508    .text.updatePlantReading:00000000000000b6 .L0 
/var/folders/rt/4gvqv631095f64jvm7jfj_000000gn/T//ccWY8Zlo.s:516    .text.updatePlantReading:00000000000000c0 .L0 
/var/folders/rt/4gvqv631095f64jvm7jfj_000000gn/T//ccWY8Zlo.s:517    .text.updatePlantReading:00000000000000c2 .L0 
/var/folders/rt/4gvqv631095f64jvm7jfj_000000gn/T//ccWY8Zlo.s:518    .text.updatePlantReading:00000000000000c2 .L0 
/var/folders/rt/4gvqv631095f64jvm7jfj_000000gn/T//ccWY8Zlo.s:520    .text.updatePlantReading:00000000000000c4 .L0 
/var/folders/rt/4gvqv631095f64jvm7jfj_000000gn/T//ccWY8Zlo.s:522    .text.updatePlantReading:00000000000000c6 .L0 
/var/folders/rt/4gvqv631095f64jvm7jfj_000000gn/T//ccWY8Zlo.s:525    .text.updatePlantReading:00000000000000c8 .L0 
/var/folders/rt/4gvqv631095f64jvm7jfj_000000gn/T//ccWY8Zlo.s:528    .text.updatePlantReading:00000000000000ca .L0 
/var/folders/rt/4gvqv631095f64jvm7jfj_000000gn/T//ccWY8Zlo.s:531    .text.updatePlantReading:00000000000000cc .L0 
/var/folders/rt/4gvqv631095f64jvm7jfj_000000gn/T//ccWY8Zlo.s:536    .text.updatePlantReading:00000000000000ce .L0 
/var/folders/rt/4gvqv631095f64jvm7jfj_000000gn/T//ccWY8Zlo.s:540    .text.updatePlantReading:00000000000000ce .L0 
/var/folders/rt/4gvqv631095f64jvm7jfj_000000gn/T//ccWY8Zlo.s:549    .text.updatePlantReading:00000000000000e4 .L0 
/var/folders/rt/4gvqv631095f64jvm7jfj_000000gn/T//ccWY8Zlo.s:561    .text.updatePlantReading:00000000000000f8 .L0 
/var/folders/rt/4gvqv631095f64jvm7jfj_000000gn/T//ccWY8Zlo.s:568    .text.updatePlantReading:0000000000000102 .L0 
/var/folders/rt/4gvqv631095f64jvm7jfj_000000gn/T//ccWY8Zlo.s:573    .text.updatePlantReading:000000000000010a .L0 
/var/folders/rt/4gvqv631095f64jvm7jfj_000000gn/T//ccWY8Zlo.s:580    .text.startup.main:0000000000000000 main
/var/folders/rt/4gvqv631095f64jvm7jfj_000000gn/T//ccWY8Zlo.s:583    .text.startup.main:0000000000000000 .L0 
/var/folders/rt/4gvqv631095f64jvm7jfj_000000gn/T//ccWY8Zlo.s:584    .text.startup.main:0000000000000000 .L0 
GAS LISTING /var/folders/rt/4gvqv631095f64jvm7jfj_000000gn/T//ccWY8Zlo.s 			page 23


/var/folders/rt/4gvqv631095f64jvm7jfj_000000gn/T//ccWY8Zlo.s:586    .text.startup.main:0000000000000000 .L0 
/var/folders/rt/4gvqv631095f64jvm7jfj_000000gn/T//ccWY8Zlo.s:587    .text.startup.main:0000000000000000 .L0 
/var/folders/rt/4gvqv631095f64jvm7jfj_000000gn/T//ccWY8Zlo.s:588    .text.startup.main:0000000000000000 .L0 
/var/folders/rt/4gvqv631095f64jvm7jfj_000000gn/T//ccWY8Zlo.s:591    .text.startup.main:0000000000000006 .L0 
/var/folders/rt/4gvqv631095f64jvm7jfj_000000gn/T//ccWY8Zlo.s:598    .text.startup.main:0000000000000018 .L0 
/var/folders/rt/4gvqv631095f64jvm7jfj_000000gn/T//ccWY8Zlo.s:599    .text.startup.main:0000000000000018 .L0 
/var/folders/rt/4gvqv631095f64jvm7jfj_000000gn/T//ccWY8Zlo.s:600    .text.startup.main:0000000000000018 .L0 
/var/folders/rt/4gvqv631095f64jvm7jfj_000000gn/T//ccWY8Zlo.s:601    .text.startup.main:0000000000000018 .L0 
/var/folders/rt/4gvqv631095f64jvm7jfj_000000gn/T//ccWY8Zlo.s:602    .text.startup.main:0000000000000018 .L0 
/var/folders/rt/4gvqv631095f64jvm7jfj_000000gn/T//ccWY8Zlo.s:604    .text.startup.main:0000000000000018 .L0 
/var/folders/rt/4gvqv631095f64jvm7jfj_000000gn/T//ccWY8Zlo.s:607    .text.startup.main:0000000000000020 .L0 
/var/folders/rt/4gvqv631095f64jvm7jfj_000000gn/T//ccWY8Zlo.s:610    .text.startup.main:0000000000000028 .L0 
/var/folders/rt/4gvqv631095f64jvm7jfj_000000gn/T//ccWY8Zlo.s:613    .text.startup.main:0000000000000030 .L0 
/var/folders/rt/4gvqv631095f64jvm7jfj_000000gn/T//ccWY8Zlo.s:616    .text.startup.main:0000000000000038 .L0 
/var/folders/rt/4gvqv631095f64jvm7jfj_000000gn/T//ccWY8Zlo.s:620    .text.startup.main:0000000000000042 .L0 
/var/folders/rt/4gvqv631095f64jvm7jfj_000000gn/T//ccWY8Zlo.s:624    .text.startup.main:000000000000004c .L0 
/var/folders/rt/4gvqv631095f64jvm7jfj_000000gn/T//ccWY8Zlo.s:627    .text.startup.main:0000000000000054 .L0 
/var/folders/rt/4gvqv631095f64jvm7jfj_000000gn/T//ccWY8Zlo.s:631    .text.startup.main:000000000000005e .L0 
/var/folders/rt/4gvqv631095f64jvm7jfj_000000gn/T//ccWY8Zlo.s:635    .text.startup.main:0000000000000068 .L0 
/var/folders/rt/4gvqv631095f64jvm7jfj_000000gn/T//ccWY8Zlo.s:638    .text.startup.main:0000000000000070 .L0 
/var/folders/rt/4gvqv631095f64jvm7jfj_000000gn/T//ccWY8Zlo.s:646    .text.startup.main:0000000000000086 .L0 
/var/folders/rt/4gvqv631095f64jvm7jfj_000000gn/T//ccWY8Zlo.s:647    .text.startup.main:0000000000000086 .L0 
/var/folders/rt/4gvqv631095f64jvm7jfj_000000gn/T//ccWY8Zlo.s:648    .text.startup.main:0000000000000086 .L0 
/var/folders/rt/4gvqv631095f64jvm7jfj_000000gn/T//ccWY8Zlo.s:651    .text.startup.main:000000000000008c .L0 
/var/folders/rt/4gvqv631095f64jvm7jfj_000000gn/T//ccWY8Zlo.s:653    .text.startup.main:000000000000008e .L0 
/var/folders/rt/4gvqv631095f64jvm7jfj_000000gn/T//ccWY8Zlo.s:665    .text.startup.main:00000000000000ae .L0 
/var/folders/rt/4gvqv631095f64jvm7jfj_000000gn/T//ccWY8Zlo.s:667    .text.startup.main:00000000000000b0 .L0 
/var/folders/rt/4gvqv631095f64jvm7jfj_000000gn/T//ccWY8Zlo.s:670    .text.startup.main:00000000000000b8 .L0 
/var/folders/rt/4gvqv631095f64jvm7jfj_000000gn/T//ccWY8Zlo.s:677    .text.startup.main:00000000000000cc .L0 
/var/folders/rt/4gvqv631095f64jvm7jfj_000000gn/T//ccWY8Zlo.s:684    .text.startup.main:00000000000000e0 .L0 
/var/folders/rt/4gvqv631095f64jvm7jfj_000000gn/T//ccWY8Zlo.s:686    .text.startup.main:00000000000000e2 .L0 
/var/folders/rt/4gvqv631095f64jvm7jfj_000000gn/T//ccWY8Zlo.s:688    .text.startup.main:00000000000000e4 .L0 
/var/folders/rt/4gvqv631095f64jvm7jfj_000000gn/T//ccWY8Zlo.s:692    .text.startup.main:00000000000000e8 .L0 
/var/folders/rt/4gvqv631095f64jvm7jfj_000000gn/T//ccWY8Zlo.s:693    .text.startup.main:00000000000000e8 .L0 
/var/folders/rt/4gvqv631095f64jvm7jfj_000000gn/T//ccWY8Zlo.s:694    .text.startup.main:00000000000000e8 .L0 
/var/folders/rt/4gvqv631095f64jvm7jfj_000000gn/T//ccWY8Zlo.s:697    .text.startup.main:00000000000000ea .L0 
/var/folders/rt/4gvqv631095f64jvm7jfj_000000gn/T//ccWY8Zlo.s:698    .text.startup.main:00000000000000ea .L0 
/var/folders/rt/4gvqv631095f64jvm7jfj_000000gn/T//ccWY8Zlo.s:701    .text.startup.main:00000000000000f2 .L0 
/var/folders/rt/4gvqv631095f64jvm7jfj_000000gn/T//ccWY8Zlo.s:705    .text.startup.main:00000000000000f6 .L0 
/var/folders/rt/4gvqv631095f64jvm7jfj_000000gn/T//ccWY8Zlo.s:710    .text.startup.main:0000000000000106 .L0 
/var/folders/rt/4gvqv631095f64jvm7jfj_000000gn/T//ccWY8Zlo.s:711    .text.startup.main:0000000000000106 .L0 
/var/folders/rt/4gvqv631095f64jvm7jfj_000000gn/T//ccWY8Zlo.s:712    .text.startup.main:0000000000000106 .L0 
/var/folders/rt/4gvqv631095f64jvm7jfj_000000gn/T//ccWY8Zlo.s:714    .text.startup.main:000000000000010a .L0 
/var/folders/rt/4gvqv631095f64jvm7jfj_000000gn/T//ccWY8Zlo.s:719    .text.startup.main:0000000000000118 .L0 
/var/folders/rt/4gvqv631095f64jvm7jfj_000000gn/T//ccWY8Zlo.s:724    .text.startup.main:0000000000000124 .L0 
/var/folders/rt/4gvqv631095f64jvm7jfj_000000gn/T//ccWY8Zlo.s:725    .text.startup.main:0000000000000124 .L0 
/var/folders/rt/4gvqv631095f64jvm7jfj_000000gn/T//ccWY8Zlo.s:727    .text.startup.main:0000000000000128 .L0 
/var/folders/rt/4gvqv631095f64jvm7jfj_000000gn/T//ccWY8Zlo.s:173    .text.renderAllPlants:00000000000000e0 .L0 
/var/folders/rt/4gvqv631095f64jvm7jfj_000000gn/T//ccWY8Zlo.s:374    .text.renderOnePlant:000000000000014e .L0 
/var/folders/rt/4gvqv631095f64jvm7jfj_000000gn/T//ccWY8Zlo.s:387    .text.updatePlantStatus:0000000000000002 .L0 
/var/folders/rt/4gvqv631095f64jvm7jfj_000000gn/T//ccWY8Zlo.s:576    .text.updatePlantReading:000000000000010a .L0 
/var/folders/rt/4gvqv631095f64jvm7jfj_000000gn/T//ccWY8Zlo.s:730    .text.startup.main:0000000000000128 .L0 
                     .debug_frame:0000000000000000 .L0 
/var/folders/rt/4gvqv631095f64jvm7jfj_000000gn/T//ccWY8Zlo.s:742    .rodata.renderAllPlants.str1.4:0000000000000000 .LC0
/var/folders/rt/4gvqv631095f64jvm7jfj_000000gn/T//ccWY8Zlo.s:93     .text.renderAllPlants:0000000000000040 .L3
/var/folders/rt/4gvqv631095f64jvm7jfj_000000gn/T//ccWY8Zlo.s:62     .text.renderAllPlants:0000000000000026 .L2
/var/folders/rt/4gvqv631095f64jvm7jfj_000000gn/T//ccWY8Zlo.s:746    .rodata.renderOnePlant.str1.4:0000000000000000 .LC1
GAS LISTING /var/folders/rt/4gvqv631095f64jvm7jfj_000000gn/T//ccWY8Zlo.s 			page 24


/var/folders/rt/4gvqv631095f64jvm7jfj_000000gn/T//ccWY8Zlo.s:222    .text.renderOnePlant:000000000000002e .L8
/var/folders/rt/4gvqv631095f64jvm7jfj_000000gn/T//ccWY8Zlo.s:341    .text.renderOnePlant:0000000000000136 .L10
/var/folders/rt/4gvqv631095f64jvm7jfj_000000gn/T//ccWY8Zlo.s:362    .text.renderOnePlant:000000000000014a .L7
/var/folders/rt/4gvqv631095f64jvm7jfj_000000gn/T//ccWY8Zlo.s:207    .text.renderOnePlant:0000000000000012 .L6
/var/folders/rt/4gvqv631095f64jvm7jfj_000000gn/T//ccWY8Zlo.s:750    .rodata.updatePlantReading.str1.4:0000000000000000 .LC2
/var/folders/rt/4gvqv631095f64jvm7jfj_000000gn/T//ccWY8Zlo.s:753    .rodata.updatePlantReading.str1.4:0000000000000004 .LC3
/var/folders/rt/4gvqv631095f64jvm7jfj_000000gn/T//ccWY8Zlo.s:447    .text.updatePlantReading:0000000000000046 .L19
/var/folders/rt/4gvqv631095f64jvm7jfj_000000gn/T//ccWY8Zlo.s:557    .text.updatePlantReading:00000000000000f8 .L21
/var/folders/rt/4gvqv631095f64jvm7jfj_000000gn/T//ccWY8Zlo.s:565    .text.updatePlantReading:0000000000000102 .L14
/var/folders/rt/4gvqv631095f64jvm7jfj_000000gn/T//ccWY8Zlo.s:534    .text.updatePlantReading:00000000000000ce .L15
/var/folders/rt/4gvqv631095f64jvm7jfj_000000gn/T//ccWY8Zlo.s:494    .text.updatePlantReading:0000000000000098 .L16
/var/folders/rt/4gvqv631095f64jvm7jfj_000000gn/T//ccWY8Zlo.s:512    .text.updatePlantReading:00000000000000c0 .L12
/var/folders/rt/4gvqv631095f64jvm7jfj_000000gn/T//ccWY8Zlo.s:423    .text.updatePlantReading:0000000000000014 .L13
/var/folders/rt/4gvqv631095f64jvm7jfj_000000gn/T//ccWY8Zlo.s:732    .rodata.main.str1.4:0000000000000000 .LC4
/var/folders/rt/4gvqv631095f64jvm7jfj_000000gn/T//ccWY8Zlo.s:735    .rodata.main.str1.4:0000000000000008 .LC5
/var/folders/rt/4gvqv631095f64jvm7jfj_000000gn/T//ccWY8Zlo.s:738    .rodata.main.str1.4:0000000000000010 .LC6
/var/folders/rt/4gvqv631095f64jvm7jfj_000000gn/T//ccWY8Zlo.s:690    .text.startup.main:00000000000000e8 .L23
/var/folders/rt/4gvqv631095f64jvm7jfj_000000gn/T//ccWY8Zlo.s:3539   .debug_abbrev:0000000000000000 .Ldebug_abbrev0
/var/folders/rt/4gvqv631095f64jvm7jfj_000000gn/T//ccWY8Zlo.s:5131   .debug_str:000000000000054c .LASF169
/var/folders/rt/4gvqv631095f64jvm7jfj_000000gn/T//ccWY8Zlo.s:4997   .debug_str:00000000000002cc .LASF170
/var/folders/rt/4gvqv631095f64jvm7jfj_000000gn/T//ccWY8Zlo.s:5135   .debug_str:00000000000005dd .LASF171
/var/folders/rt/4gvqv631095f64jvm7jfj_000000gn/T//ccWY8Zlo.s:4803   .debug_ranges:0000000000000000 .Ldebug_ranges0
/var/folders/rt/4gvqv631095f64jvm7jfj_000000gn/T//ccWY8Zlo.s:4855   .debug_line:0000000000000000 .Ldebug_line0
/var/folders/rt/4gvqv631095f64jvm7jfj_000000gn/T//ccWY8Zlo.s:5119   .debug_str:000000000000050a .LASF0
/var/folders/rt/4gvqv631095f64jvm7jfj_000000gn/T//ccWY8Zlo.s:4899   .debug_str:00000000000000de .LASF1
/var/folders/rt/4gvqv631095f64jvm7jfj_000000gn/T//ccWY8Zlo.s:5051   .debug_str:00000000000003d7 .LASF2
/var/folders/rt/4gvqv631095f64jvm7jfj_000000gn/T//ccWY8Zlo.s:4859   .debug_str:000000000000000c .LASF3
/var/folders/rt/4gvqv631095f64jvm7jfj_000000gn/T//ccWY8Zlo.s:5139   .debug_str:0000000000000632 .LASF4
/var/folders/rt/4gvqv631095f64jvm7jfj_000000gn/T//ccWY8Zlo.s:4919   .debug_str:0000000000000134 .LASF5
/var/folders/rt/4gvqv631095f64jvm7jfj_000000gn/T//ccWY8Zlo.s:4947   .debug_str:00000000000001d4 .LASF9
/var/folders/rt/4gvqv631095f64jvm7jfj_000000gn/T//ccWY8Zlo.s:4971   .debug_str:000000000000023e .LASF6
/var/folders/rt/4gvqv631095f64jvm7jfj_000000gn/T//ccWY8Zlo.s:4933   .debug_str:0000000000000184 .LASF7
/var/folders/rt/4gvqv631095f64jvm7jfj_000000gn/T//ccWY8Zlo.s:4881   .debug_str:0000000000000079 .LASF8
/var/folders/rt/4gvqv631095f64jvm7jfj_000000gn/T//ccWY8Zlo.s:5153   .debug_str:0000000000000682 .LASF10
/var/folders/rt/4gvqv631095f64jvm7jfj_000000gn/T//ccWY8Zlo.s:4965   .debug_str:000000000000021e .LASF120
/var/folders/rt/4gvqv631095f64jvm7jfj_000000gn/T//ccWY8Zlo.s:5109   .debug_str:00000000000004e3 .LASF11
/var/folders/rt/4gvqv631095f64jvm7jfj_000000gn/T//ccWY8Zlo.s:5037   .debug_str:0000000000000396 .LASF12
/var/folders/rt/4gvqv631095f64jvm7jfj_000000gn/T//ccWY8Zlo.s:4895   .debug_str:00000000000000d0 .LASF13
/var/folders/rt/4gvqv631095f64jvm7jfj_000000gn/T//ccWY8Zlo.s:5107   .debug_str:00000000000004db .LASF14
/var/folders/rt/4gvqv631095f64jvm7jfj_000000gn/T//ccWY8Zlo.s:5165   .debug_str:00000000000006c5 .LASF15
/var/folders/rt/4gvqv631095f64jvm7jfj_000000gn/T//ccWY8Zlo.s:4995   .debug_str:00000000000002c6 .LASF16
/var/folders/rt/4gvqv631095f64jvm7jfj_000000gn/T//ccWY8Zlo.s:4963   .debug_str:0000000000000217 .LASF17
/var/folders/rt/4gvqv631095f64jvm7jfj_000000gn/T//ccWY8Zlo.s:5099   .debug_str:00000000000004bb .LASF18
/var/folders/rt/4gvqv631095f64jvm7jfj_000000gn/T//ccWY8Zlo.s:5101   .debug_str:00000000000004c3 .LASF19
/var/folders/rt/4gvqv631095f64jvm7jfj_000000gn/T//ccWY8Zlo.s:5043   .debug_str:00000000000003ac .LASF20
/var/folders/rt/4gvqv631095f64jvm7jfj_000000gn/T//ccWY8Zlo.s:5145   .debug_str:0000000000000651 .LASF21
/var/folders/rt/4gvqv631095f64jvm7jfj_000000gn/T//ccWY8Zlo.s:5047   .debug_str:00000000000003bd .LASF22
/var/folders/rt/4gvqv631095f64jvm7jfj_000000gn/T//ccWY8Zlo.s:5057   .debug_str:00000000000003f4 .LASF23
/var/folders/rt/4gvqv631095f64jvm7jfj_000000gn/T//ccWY8Zlo.s:4955   .debug_str:00000000000001f9 .LASF28
/var/folders/rt/4gvqv631095f64jvm7jfj_000000gn/T//ccWY8Zlo.s:5127   .debug_str:0000000000000539 .LASF24
/var/folders/rt/4gvqv631095f64jvm7jfj_000000gn/T//ccWY8Zlo.s:5093   .debug_str:00000000000004a6 .LASF25
/var/folders/rt/4gvqv631095f64jvm7jfj_000000gn/T//ccWY8Zlo.s:4949   .debug_str:00000000000001df .LASF26
/var/folders/rt/4gvqv631095f64jvm7jfj_000000gn/T//ccWY8Zlo.s:5159   .debug_str:00000000000006a8 .LASF27
/var/folders/rt/4gvqv631095f64jvm7jfj_000000gn/T//ccWY8Zlo.s:4961   .debug_str:0000000000000212 .LASF29
/var/folders/rt/4gvqv631095f64jvm7jfj_000000gn/T//ccWY8Zlo.s:4891   .debug_str:00000000000000c0 .LASF30
/var/folders/rt/4gvqv631095f64jvm7jfj_000000gn/T//ccWY8Zlo.s:5183   .debug_str:000000000000071f .LASF31
/var/folders/rt/4gvqv631095f64jvm7jfj_000000gn/T//ccWY8Zlo.s:4907   .debug_str:00000000000000ff .LASF32
GAS LISTING /var/folders/rt/4gvqv631095f64jvm7jfj_000000gn/T//ccWY8Zlo.s 			page 25


/var/folders/rt/4gvqv631095f64jvm7jfj_000000gn/T//ccWY8Zlo.s:5201   .debug_str:0000000000000780 .LASF33
/var/folders/rt/4gvqv631095f64jvm7jfj_000000gn/T//ccWY8Zlo.s:5023   .debug_str:000000000000034b .LASF34
/var/folders/rt/4gvqv631095f64jvm7jfj_000000gn/T//ccWY8Zlo.s:5013   .debug_str:0000000000000313 .LASF35
/var/folders/rt/4gvqv631095f64jvm7jfj_000000gn/T//ccWY8Zlo.s:5105   .debug_str:00000000000004d1 .LASF36
/var/folders/rt/4gvqv631095f64jvm7jfj_000000gn/T//ccWY8Zlo.s:5059   .debug_str:00000000000003fd .LASF37
/var/folders/rt/4gvqv631095f64jvm7jfj_000000gn/T//ccWY8Zlo.s:5179   .debug_str:0000000000000705 .LASF38
/var/folders/rt/4gvqv631095f64jvm7jfj_000000gn/T//ccWY8Zlo.s:4911   .debug_str:000000000000010e .LASF39
/var/folders/rt/4gvqv631095f64jvm7jfj_000000gn/T//ccWY8Zlo.s:4863   .debug_str:000000000000001d .LASF40
/var/folders/rt/4gvqv631095f64jvm7jfj_000000gn/T//ccWY8Zlo.s:4857   .debug_str:0000000000000000 .LASF41
/var/folders/rt/4gvqv631095f64jvm7jfj_000000gn/T//ccWY8Zlo.s:5133   .debug_str:00000000000005d4 .LASF42
/var/folders/rt/4gvqv631095f64jvm7jfj_000000gn/T//ccWY8Zlo.s:4925   .debug_str:0000000000000158 .LASF43
/var/folders/rt/4gvqv631095f64jvm7jfj_000000gn/T//ccWY8Zlo.s:5025   .debug_str:0000000000000354 .LASF44
/var/folders/rt/4gvqv631095f64jvm7jfj_000000gn/T//ccWY8Zlo.s:5083   .debug_str:000000000000046c .LASF45
/var/folders/rt/4gvqv631095f64jvm7jfj_000000gn/T//ccWY8Zlo.s:4945   .debug_str:00000000000001cf .LASF46
/var/folders/rt/4gvqv631095f64jvm7jfj_000000gn/T//ccWY8Zlo.s:5061   .debug_str:0000000000000407 .LASF47
/var/folders/rt/4gvqv631095f64jvm7jfj_000000gn/T//ccWY8Zlo.s:4905   .debug_str:00000000000000f9 .LASF48
/var/folders/rt/4gvqv631095f64jvm7jfj_000000gn/T//ccWY8Zlo.s:5117   .debug_str:0000000000000504 .LASF49
/var/folders/rt/4gvqv631095f64jvm7jfj_000000gn/T//ccWY8Zlo.s:5069   .debug_str:0000000000000424 .LASF50
/var/folders/rt/4gvqv631095f64jvm7jfj_000000gn/T//ccWY8Zlo.s:4923   .debug_str:0000000000000151 .LASF51
/var/folders/rt/4gvqv631095f64jvm7jfj_000000gn/T//ccWY8Zlo.s:4973   .debug_str:0000000000000250 .LASF52
/var/folders/rt/4gvqv631095f64jvm7jfj_000000gn/T//ccWY8Zlo.s:5197   .debug_str:000000000000076b .LASF53
/var/folders/rt/4gvqv631095f64jvm7jfj_000000gn/T//ccWY8Zlo.s:4915   .debug_str:0000000000000124 .LASF54
/var/folders/rt/4gvqv631095f64jvm7jfj_000000gn/T//ccWY8Zlo.s:4959   .debug_str:000000000000020c .LASF55
/var/folders/rt/4gvqv631095f64jvm7jfj_000000gn/T//ccWY8Zlo.s:5011   .debug_str:000000000000030c .LASF56
/var/folders/rt/4gvqv631095f64jvm7jfj_000000gn/T//ccWY8Zlo.s:5103   .debug_str:00000000000004cb .LASF57
/var/folders/rt/4gvqv631095f64jvm7jfj_000000gn/T//ccWY8Zlo.s:4897   .debug_str:00000000000000d7 .LASF58
/var/folders/rt/4gvqv631095f64jvm7jfj_000000gn/T//ccWY8Zlo.s:4903   .debug_str:00000000000000f3 .LASF59
/var/folders/rt/4gvqv631095f64jvm7jfj_000000gn/T//ccWY8Zlo.s:5173   .debug_str:00000000000006ec .LASF60
/var/folders/rt/4gvqv631095f64jvm7jfj_000000gn/T//ccWY8Zlo.s:5115   .debug_str:00000000000004fb .LASF61
/var/folders/rt/4gvqv631095f64jvm7jfj_000000gn/T//ccWY8Zlo.s:4937   .debug_str:000000000000019a .LASF62
/var/folders/rt/4gvqv631095f64jvm7jfj_000000gn/T//ccWY8Zlo.s:4979   .debug_str:0000000000000262 .LASF63
/var/folders/rt/4gvqv631095f64jvm7jfj_000000gn/T//ccWY8Zlo.s:5001   .debug_str:00000000000002d8 .LASF64
/var/folders/rt/4gvqv631095f64jvm7jfj_000000gn/T//ccWY8Zlo.s:5071   .debug_str:000000000000042c .LASF65
/var/folders/rt/4gvqv631095f64jvm7jfj_000000gn/T//ccWY8Zlo.s:5063   .debug_str:000000000000040e .LASF66
/var/folders/rt/4gvqv631095f64jvm7jfj_000000gn/T//ccWY8Zlo.s:5095   .debug_str:00000000000004ae .LASF67
/var/folders/rt/4gvqv631095f64jvm7jfj_000000gn/T//ccWY8Zlo.s:5111   .debug_str:00000000000004ef .LASF68
/var/folders/rt/4gvqv631095f64jvm7jfj_000000gn/T//ccWY8Zlo.s:4927   .debug_str:0000000000000160 .LASF69
/var/folders/rt/4gvqv631095f64jvm7jfj_000000gn/T//ccWY8Zlo.s:4967   .debug_str:000000000000022e .LASF70
/var/folders/rt/4gvqv631095f64jvm7jfj_000000gn/T//ccWY8Zlo.s:4953   .debug_str:00000000000001f1 .LASF71
/var/folders/rt/4gvqv631095f64jvm7jfj_000000gn/T//ccWY8Zlo.s:5081   .debug_str:0000000000000467 .LASF72
/var/folders/rt/4gvqv631095f64jvm7jfj_000000gn/T//ccWY8Zlo.s:4867   .debug_str:000000000000002d .LASF73
/var/folders/rt/4gvqv631095f64jvm7jfj_000000gn/T//ccWY8Zlo.s:5091   .debug_str:000000000000048d .LASF74
/var/folders/rt/4gvqv631095f64jvm7jfj_000000gn/T//ccWY8Zlo.s:5087   .debug_str:000000000000047b .LASF75
/var/folders/rt/4gvqv631095f64jvm7jfj_000000gn/T//ccWY8Zlo.s:5031   .debug_str:0000000000000373 .LASF76
/var/folders/rt/4gvqv631095f64jvm7jfj_000000gn/T//ccWY8Zlo.s:5089   .debug_str:0000000000000483 .LASF77
/var/folders/rt/4gvqv631095f64jvm7jfj_000000gn/T//ccWY8Zlo.s:4993   .debug_str:00000000000002be .LASF78
/var/folders/rt/4gvqv631095f64jvm7jfj_000000gn/T//ccWY8Zlo.s:4931   .debug_str:000000000000017a .LASF79
/var/folders/rt/4gvqv631095f64jvm7jfj_000000gn/T//ccWY8Zlo.s:5193   .debug_str:0000000000000761 .LASF80
/var/folders/rt/4gvqv631095f64jvm7jfj_000000gn/T//ccWY8Zlo.s:5041   .debug_str:00000000000003a2 .LASF81
/var/folders/rt/4gvqv631095f64jvm7jfj_000000gn/T//ccWY8Zlo.s:4969   .debug_str:0000000000000236 .LASF82
/var/folders/rt/4gvqv631095f64jvm7jfj_000000gn/T//ccWY8Zlo.s:4935   .debug_str:0000000000000192 .LASF83
/var/folders/rt/4gvqv631095f64jvm7jfj_000000gn/T//ccWY8Zlo.s:4999   .debug_str:00000000000002d3 .LASF84
/var/folders/rt/4gvqv631095f64jvm7jfj_000000gn/T//ccWY8Zlo.s:4871   .debug_str:0000000000000040 .LASF85
/var/folders/rt/4gvqv631095f64jvm7jfj_000000gn/T//ccWY8Zlo.s:5169   .debug_str:00000000000006d8 .LASF86
/var/folders/rt/4gvqv631095f64jvm7jfj_000000gn/T//ccWY8Zlo.s:4917   .debug_str:000000000000012c .LASF87
/var/folders/rt/4gvqv631095f64jvm7jfj_000000gn/T//ccWY8Zlo.s:4909   .debug_str:0000000000000109 .LASF88
/var/folders/rt/4gvqv631095f64jvm7jfj_000000gn/T//ccWY8Zlo.s:5113   .debug_str:00000000000004f6 .LASF89
GAS LISTING /var/folders/rt/4gvqv631095f64jvm7jfj_000000gn/T//ccWY8Zlo.s 			page 26


/var/folders/rt/4gvqv631095f64jvm7jfj_000000gn/T//ccWY8Zlo.s:5067   .debug_str:000000000000041d .LASF90
/var/folders/rt/4gvqv631095f64jvm7jfj_000000gn/T//ccWY8Zlo.s:5161   .debug_str:00000000000006ad .LASF91
/var/folders/rt/4gvqv631095f64jvm7jfj_000000gn/T//ccWY8Zlo.s:4981   .debug_str:0000000000000268 .LASF92
/var/folders/rt/4gvqv631095f64jvm7jfj_000000gn/T//ccWY8Zlo.s:5053   .debug_str:00000000000003e5 .LASF93
/var/folders/rt/4gvqv631095f64jvm7jfj_000000gn/T//ccWY8Zlo.s:4865   .debug_str:0000000000000025 .LASF94
/var/folders/rt/4gvqv631095f64jvm7jfj_000000gn/T//ccWY8Zlo.s:5097   .debug_str:00000000000004b5 .LASF95
/var/folders/rt/4gvqv631095f64jvm7jfj_000000gn/T//ccWY8Zlo.s:5003   .debug_str:00000000000002de .LASF96
/var/folders/rt/4gvqv631095f64jvm7jfj_000000gn/T//ccWY8Zlo.s:5141   .debug_str:0000000000000645 .LASF97
/var/folders/rt/4gvqv631095f64jvm7jfj_000000gn/T//ccWY8Zlo.s:5155   .debug_str:000000000000068b .LASF98
/var/folders/rt/4gvqv631095f64jvm7jfj_000000gn/T//ccWY8Zlo.s:5129   .debug_str:000000000000053f .LASF99
/var/folders/rt/4gvqv631095f64jvm7jfj_000000gn/T//ccWY8Zlo.s:4991   .debug_str:00000000000002b1 .LASF100
/var/folders/rt/4gvqv631095f64jvm7jfj_000000gn/T//ccWY8Zlo.s:5181   .debug_str:0000000000000710 .LASF101
/var/folders/rt/4gvqv631095f64jvm7jfj_000000gn/T//ccWY8Zlo.s:5033   .debug_str:000000000000037e .LASF102
/var/folders/rt/4gvqv631095f64jvm7jfj_000000gn/T//ccWY8Zlo.s:4987   .debug_str:000000000000029a .LASF103
/var/folders/rt/4gvqv631095f64jvm7jfj_000000gn/T//ccWY8Zlo.s:5019   .debug_str:000000000000032d .LASF104
/var/folders/rt/4gvqv631095f64jvm7jfj_000000gn/T//ccWY8Zlo.s:5029   .debug_str:0000000000000366 .LASF105
/var/folders/rt/4gvqv631095f64jvm7jfj_000000gn/T//ccWY8Zlo.s:5191   .debug_str:0000000000000753 .LASF106
/var/folders/rt/4gvqv631095f64jvm7jfj_000000gn/T//ccWY8Zlo.s:4889   .debug_str:00000000000000b2 .LASF107
/var/folders/rt/4gvqv631095f64jvm7jfj_000000gn/T//ccWY8Zlo.s:5167   .debug_str:00000000000006ce .LASF108
/var/folders/rt/4gvqv631095f64jvm7jfj_000000gn/T//ccWY8Zlo.s:4989   .debug_str:00000000000002a5 .LASF109
/var/folders/rt/4gvqv631095f64jvm7jfj_000000gn/T//ccWY8Zlo.s:5147   .debug_str:0000000000000659 .LASF110
/var/folders/rt/4gvqv631095f64jvm7jfj_000000gn/T//ccWY8Zlo.s:4943   .debug_str:00000000000001c1 .LASF111
/var/folders/rt/4gvqv631095f64jvm7jfj_000000gn/T//ccWY8Zlo.s:4887   .debug_str:00000000000000a3 .LASF112
/var/folders/rt/4gvqv631095f64jvm7jfj_000000gn/T//ccWY8Zlo.s:4941   .debug_str:00000000000001b0 .LASF113
/var/folders/rt/4gvqv631095f64jvm7jfj_000000gn/T//ccWY8Zlo.s:4875   .debug_str:000000000000004e .LASF114
/var/folders/rt/4gvqv631095f64jvm7jfj_000000gn/T//ccWY8Zlo.s:4877   .debug_str:000000000000005d .LASF115
/var/folders/rt/4gvqv631095f64jvm7jfj_000000gn/T//ccWY8Zlo.s:5055   .debug_str:00000000000003eb .LASF116
/var/folders/rt/4gvqv631095f64jvm7jfj_000000gn/T//ccWY8Zlo.s:5017   .debug_str:0000000000000326 .LASF117
/var/folders/rt/4gvqv631095f64jvm7jfj_000000gn/T//ccWY8Zlo.s:5015   .debug_str:000000000000031d .LASF118
/var/folders/rt/4gvqv631095f64jvm7jfj_000000gn/T//ccWY8Zlo.s:5175   .debug_str:00000000000006f2 .LASF119
/var/folders/rt/4gvqv631095f64jvm7jfj_000000gn/T//ccWY8Zlo.s:4885   .debug_str:0000000000000098 .LASF172
/var/folders/rt/4gvqv631095f64jvm7jfj_000000gn/T//ccWY8Zlo.s:4951   .debug_str:00000000000001e5 .LASF121
/var/folders/rt/4gvqv631095f64jvm7jfj_000000gn/T//ccWY8Zlo.s:5151   .debug_str:000000000000066f .LASF122
/var/folders/rt/4gvqv631095f64jvm7jfj_000000gn/T//ccWY8Zlo.s:5027   .debug_str:000000000000035c .LASF123
/var/folders/rt/4gvqv631095f64jvm7jfj_000000gn/T//ccWY8Zlo.s:4879   .debug_str:000000000000006e .LASF124
/var/folders/rt/4gvqv631095f64jvm7jfj_000000gn/T//ccWY8Zlo.s:5085   .debug_str:0000000000000471 .LASF125
/var/folders/rt/4gvqv631095f64jvm7jfj_000000gn/T//ccWY8Zlo.s:4883   .debug_str:0000000000000090 .LASF126
/var/folders/rt/4gvqv631095f64jvm7jfj_000000gn/T//ccWY8Zlo.s:5077   .debug_str:000000000000044d .LASF127
/var/folders/rt/4gvqv631095f64jvm7jfj_000000gn/T//ccWY8Zlo.s:4977   .debug_str:000000000000025d .LASF128
/var/folders/rt/4gvqv631095f64jvm7jfj_000000gn/T//ccWY8Zlo.s:4939   .debug_str:00000000000001a2 .LASF129
/var/folders/rt/4gvqv631095f64jvm7jfj_000000gn/T//ccWY8Zlo.s:4901   .debug_str:00000000000000ea .LASF130
/var/folders/rt/4gvqv631095f64jvm7jfj_000000gn/T//ccWY8Zlo.s:4921   .debug_str:000000000000013d .LASF131
/var/folders/rt/4gvqv631095f64jvm7jfj_000000gn/T//ccWY8Zlo.s:5021   .debug_str:0000000000000332 .LASF132
/var/folders/rt/4gvqv631095f64jvm7jfj_000000gn/T//ccWY8Zlo.s:5045   .debug_str:00000000000003b7 .LASF133
/var/folders/rt/4gvqv631095f64jvm7jfj_000000gn/T//ccWY8Zlo.s:5073   .debug_str:0000000000000435 .LASF134
/var/folders/rt/4gvqv631095f64jvm7jfj_000000gn/T//ccWY8Zlo.s:4957   .debug_str:0000000000000201 .LASF135
/var/folders/rt/4gvqv631095f64jvm7jfj_000000gn/T//ccWY8Zlo.s:5195   .debug_str:0000000000000766 .LASF173
/var/folders/rt/4gvqv631095f64jvm7jfj_000000gn/T//ccWY8Zlo.s:581    .text.startup.main:0000000000000000 .LFB10
/var/folders/rt/4gvqv631095f64jvm7jfj_000000gn/T//ccWY8Zlo.s:728    .text.startup.main:0000000000000128 .LFE10
/var/folders/rt/4gvqv631095f64jvm7jfj_000000gn/T//ccWY8Zlo.s:4302   .debug_loc:0000000000000000 .LLST16
/var/folders/rt/4gvqv631095f64jvm7jfj_000000gn/T//ccWY8Zlo.s:4320   .debug_loc:000000000000002e .LLST17
/var/folders/rt/4gvqv631095f64jvm7jfj_000000gn/T//ccWY8Zlo.s:5039   .debug_str:000000000000039d .LASF136
/var/folders/rt/4gvqv631095f64jvm7jfj_000000gn/T//ccWY8Zlo.s:4344   .debug_loc:0000000000000067 .LLST18
/var/folders/rt/4gvqv631095f64jvm7jfj_000000gn/T//ccWY8Zlo.s:5009   .debug_str:0000000000000302 .LASF137
/var/folders/rt/4gvqv631095f64jvm7jfj_000000gn/T//ccWY8Zlo.s:5075   .debug_str:000000000000043e .LASF138
/var/folders/rt/4gvqv631095f64jvm7jfj_000000gn/T//ccWY8Zlo.s:605    .text.startup.main:0000000000000020 .LVL55
/var/folders/rt/4gvqv631095f64jvm7jfj_000000gn/T//ccWY8Zlo.s:608    .text.startup.main:0000000000000028 .LVL56
GAS LISTING /var/folders/rt/4gvqv631095f64jvm7jfj_000000gn/T//ccWY8Zlo.s 			page 27


/var/folders/rt/4gvqv631095f64jvm7jfj_000000gn/T//ccWY8Zlo.s:611    .text.startup.main:0000000000000030 .LVL57
/var/folders/rt/4gvqv631095f64jvm7jfj_000000gn/T//ccWY8Zlo.s:614    .text.startup.main:0000000000000038 .LVL58
/var/folders/rt/4gvqv631095f64jvm7jfj_000000gn/T//ccWY8Zlo.s:618    .text.startup.main:0000000000000042 .LVL59
/var/folders/rt/4gvqv631095f64jvm7jfj_000000gn/T//ccWY8Zlo.s:622    .text.startup.main:000000000000004c .LVL60
/var/folders/rt/4gvqv631095f64jvm7jfj_000000gn/T//ccWY8Zlo.s:625    .text.startup.main:0000000000000054 .LVL61
/var/folders/rt/4gvqv631095f64jvm7jfj_000000gn/T//ccWY8Zlo.s:629    .text.startup.main:000000000000005e .LVL62
/var/folders/rt/4gvqv631095f64jvm7jfj_000000gn/T//ccWY8Zlo.s:633    .text.startup.main:0000000000000068 .LVL63
/var/folders/rt/4gvqv631095f64jvm7jfj_000000gn/T//ccWY8Zlo.s:636    .text.startup.main:0000000000000070 .LVL64
/var/folders/rt/4gvqv631095f64jvm7jfj_000000gn/T//ccWY8Zlo.s:644    .text.startup.main:0000000000000086 .LVL65
/var/folders/rt/4gvqv631095f64jvm7jfj_000000gn/T//ccWY8Zlo.s:668    .text.startup.main:00000000000000b8 .LVL66
/var/folders/rt/4gvqv631095f64jvm7jfj_000000gn/T//ccWY8Zlo.s:675    .text.startup.main:00000000000000cc .LVL67
/var/folders/rt/4gvqv631095f64jvm7jfj_000000gn/T//ccWY8Zlo.s:682    .text.startup.main:00000000000000e0 .LVL68
/var/folders/rt/4gvqv631095f64jvm7jfj_000000gn/T//ccWY8Zlo.s:699    .text.startup.main:00000000000000f2 .LVL71
/var/folders/rt/4gvqv631095f64jvm7jfj_000000gn/T//ccWY8Zlo.s:706    .text.startup.main:00000000000000fe .LVL73
/var/folders/rt/4gvqv631095f64jvm7jfj_000000gn/T//ccWY8Zlo.s:708    .text.startup.main:0000000000000106 .LVL74
/var/folders/rt/4gvqv631095f64jvm7jfj_000000gn/T//ccWY8Zlo.s:717    .text.startup.main:0000000000000118 .LVL75
/var/folders/rt/4gvqv631095f64jvm7jfj_000000gn/T//ccWY8Zlo.s:722    .text.startup.main:0000000000000124 .LVL76
/var/folders/rt/4gvqv631095f64jvm7jfj_000000gn/T//ccWY8Zlo.s:4929   .debug_str:0000000000000167 .LASF142
/var/folders/rt/4gvqv631095f64jvm7jfj_000000gn/T//ccWY8Zlo.s:392    .text.updatePlantReading:0000000000000000 .LFB9
/var/folders/rt/4gvqv631095f64jvm7jfj_000000gn/T//ccWY8Zlo.s:574    .text.updatePlantReading:000000000000010a .LFE9
/var/folders/rt/4gvqv631095f64jvm7jfj_000000gn/T//ccWY8Zlo.s:4361   .debug_loc:0000000000000092 .LLST9
/var/folders/rt/4gvqv631095f64jvm7jfj_000000gn/T//ccWY8Zlo.s:4384   .debug_loc:00000000000000cc .LLST10
/var/folders/rt/4gvqv631095f64jvm7jfj_000000gn/T//ccWY8Zlo.s:4398   .debug_loc:00000000000000ed .LLST11
/var/folders/rt/4gvqv631095f64jvm7jfj_000000gn/T//ccWY8Zlo.s:4420   .debug_loc:0000000000000124 .LLST12
/var/folders/rt/4gvqv631095f64jvm7jfj_000000gn/T//ccWY8Zlo.s:4873   .debug_str:0000000000000049 .LASF139
/var/folders/rt/4gvqv631095f64jvm7jfj_000000gn/T//ccWY8Zlo.s:4475   .debug_loc:00000000000001a6 .LLST13
/var/folders/rt/4gvqv631095f64jvm7jfj_000000gn/T//ccWY8Zlo.s:4530   .debug_loc:0000000000000228 .LLST14
/var/folders/rt/4gvqv631095f64jvm7jfj_000000gn/T//ccWY8Zlo.s:5163   .debug_str:00000000000006b3 .LASF140
/var/folders/rt/4gvqv631095f64jvm7jfj_000000gn/T//ccWY8Zlo.s:4983   .debug_str:000000000000026f .LASF141
/var/folders/rt/4gvqv631095f64jvm7jfj_000000gn/T//ccWY8Zlo.s:4546   .debug_loc:0000000000000252 .LLST15
/var/folders/rt/4gvqv631095f64jvm7jfj_000000gn/T//ccWY8Zlo.s:471    .text.updatePlantReading:000000000000006a .LVL40
/var/folders/rt/4gvqv631095f64jvm7jfj_000000gn/T//ccWY8Zlo.s:478    .text.updatePlantReading:000000000000007c .LVL41
/var/folders/rt/4gvqv631095f64jvm7jfj_000000gn/T//ccWY8Zlo.s:505    .text.updatePlantReading:00000000000000b6 .LVL43
/var/folders/rt/4gvqv631095f64jvm7jfj_000000gn/T//ccWY8Zlo.s:547    .text.updatePlantReading:00000000000000e4 .LVL49
/var/folders/rt/4gvqv631095f64jvm7jfj_000000gn/T//ccWY8Zlo.s:457    .text.updatePlantReading:0000000000000056 .LVL38
/var/folders/rt/4gvqv631095f64jvm7jfj_000000gn/T//ccWY8Zlo.s:436    .text.updatePlantReading:000000000000002e .LVL36
/var/folders/rt/4gvqv631095f64jvm7jfj_000000gn/T//ccWY8Zlo.s:562    .text.updatePlantReading:0000000000000100 .LVL51
/var/folders/rt/4gvqv631095f64jvm7jfj_000000gn/T//ccWY8Zlo.s:5185   .debug_str:0000000000000728 .LASF143
/var/folders/rt/4gvqv631095f64jvm7jfj_000000gn/T//ccWY8Zlo.s:379    .text.updatePlantStatus:0000000000000000 .LFB8
/var/folders/rt/4gvqv631095f64jvm7jfj_000000gn/T//ccWY8Zlo.s:385    .text.updatePlantStatus:0000000000000002 .LFE8
/var/folders/rt/4gvqv631095f64jvm7jfj_000000gn/T//ccWY8Zlo.s:5005   .debug_str:00000000000002e4 .LASF144
/var/folders/rt/4gvqv631095f64jvm7jfj_000000gn/T//ccWY8Zlo.s:5125   .debug_str:000000000000052a .LASF145
/var/folders/rt/4gvqv631095f64jvm7jfj_000000gn/T//ccWY8Zlo.s:178    .text.renderOnePlant:0000000000000000 .LFB7
/var/folders/rt/4gvqv631095f64jvm7jfj_000000gn/T//ccWY8Zlo.s:372    .text.renderOnePlant:000000000000014e .LFE7
/var/folders/rt/4gvqv631095f64jvm7jfj_000000gn/T//ccWY8Zlo.s:4579   .debug_loc:0000000000000288 .LLST4
/var/folders/rt/4gvqv631095f64jvm7jfj_000000gn/T//ccWY8Zlo.s:4602   .debug_loc:00000000000002c0 .LLST5
/var/folders/rt/4gvqv631095f64jvm7jfj_000000gn/T//ccWY8Zlo.s:4616   .debug_loc:00000000000002e1 .LLST6
/var/folders/rt/4gvqv631095f64jvm7jfj_000000gn/T//ccWY8Zlo.s:4638   .debug_loc:0000000000000318 .LLST7
/var/folders/rt/4gvqv631095f64jvm7jfj_000000gn/T//ccWY8Zlo.s:4681   .debug_loc:0000000000000380 .LLST8
/var/folders/rt/4gvqv631095f64jvm7jfj_000000gn/T//ccWY8Zlo.s:230    .text.renderOnePlant:000000000000003c .LVL16
/var/folders/rt/4gvqv631095f64jvm7jfj_000000gn/T//ccWY8Zlo.s:246    .text.renderOnePlant:000000000000005c .LVL19
/var/folders/rt/4gvqv631095f64jvm7jfj_000000gn/T//ccWY8Zlo.s:261    .text.renderOnePlant:0000000000000078 .LVL20
/var/folders/rt/4gvqv631095f64jvm7jfj_000000gn/T//ccWY8Zlo.s:271    .text.renderOnePlant:0000000000000092 .LVL22
/var/folders/rt/4gvqv631095f64jvm7jfj_000000gn/T//ccWY8Zlo.s:286    .text.renderOnePlant:00000000000000b0 .LVL23
/var/folders/rt/4gvqv631095f64jvm7jfj_000000gn/T//ccWY8Zlo.s:302    .text.renderOnePlant:00000000000000d2 .LVL24
/var/folders/rt/4gvqv631095f64jvm7jfj_000000gn/T//ccWY8Zlo.s:310    .text.renderOnePlant:00000000000000ea .LVL25
/var/folders/rt/4gvqv631095f64jvm7jfj_000000gn/T//ccWY8Zlo.s:318    .text.renderOnePlant:0000000000000104 .LVL26
GAS LISTING /var/folders/rt/4gvqv631095f64jvm7jfj_000000gn/T//ccWY8Zlo.s 			page 28


/var/folders/rt/4gvqv631095f64jvm7jfj_000000gn/T//ccWY8Zlo.s:333    .text.renderOnePlant:0000000000000126 .LVL27
/var/folders/rt/4gvqv631095f64jvm7jfj_000000gn/T//ccWY8Zlo.s:361    .text.renderOnePlant:000000000000014a .LVL30
/var/folders/rt/4gvqv631095f64jvm7jfj_000000gn/T//ccWY8Zlo.s:5007   .debug_str:00000000000002f2 .LASF146
/var/folders/rt/4gvqv631095f64jvm7jfj_000000gn/T//ccWY8Zlo.s:14     .text.renderAllPlants:0000000000000000 .LFB6
/var/folders/rt/4gvqv631095f64jvm7jfj_000000gn/T//ccWY8Zlo.s:171    .text.renderAllPlants:00000000000000e0 .LFE6
/var/folders/rt/4gvqv631095f64jvm7jfj_000000gn/T//ccWY8Zlo.s:4697   .debug_loc:00000000000003aa .LLST0
/var/folders/rt/4gvqv631095f64jvm7jfj_000000gn/T//ccWY8Zlo.s:4720   .debug_loc:00000000000003e2 .LLST1
/var/folders/rt/4gvqv631095f64jvm7jfj_000000gn/T//ccWY8Zlo.s:4734   .debug_loc:0000000000000403 .LLST2
/var/folders/rt/4gvqv631095f64jvm7jfj_000000gn/T//ccWY8Zlo.s:4756   .debug_loc:000000000000043a .LLST3
/var/folders/rt/4gvqv631095f64jvm7jfj_000000gn/T//ccWY8Zlo.s:109    .text.renderAllPlants:0000000000000058 .LVL6
/var/folders/rt/4gvqv631095f64jvm7jfj_000000gn/T//ccWY8Zlo.s:125    .text.renderAllPlants:0000000000000074 .LVL7
/var/folders/rt/4gvqv631095f64jvm7jfj_000000gn/T//ccWY8Zlo.s:134    .text.renderAllPlants:000000000000008c .LVL8
/var/folders/rt/4gvqv631095f64jvm7jfj_000000gn/T//ccWY8Zlo.s:150    .text.renderAllPlants:00000000000000ac .LVL9
/var/folders/rt/4gvqv631095f64jvm7jfj_000000gn/T//ccWY8Zlo.s:158    .text.renderAllPlants:00000000000000c2 .LVL10
/var/folders/rt/4gvqv631095f64jvm7jfj_000000gn/T//ccWY8Zlo.s:166    .text.renderAllPlants:00000000000000da .LVL11
/var/folders/rt/4gvqv631095f64jvm7jfj_000000gn/T//ccWY8Zlo.s:5143   .debug_str:000000000000064a .LASF147
/var/folders/rt/4gvqv631095f64jvm7jfj_000000gn/T//ccWY8Zlo.s:4913   .debug_str:000000000000011c .LASF148
/var/folders/rt/4gvqv631095f64jvm7jfj_000000gn/T//ccWY8Zlo.s:5049   .debug_str:00000000000003cf .LASF149
/var/folders/rt/4gvqv631095f64jvm7jfj_000000gn/T//ccWY8Zlo.s:4869   .debug_str:0000000000000038 .LASF150
/var/folders/rt/4gvqv631095f64jvm7jfj_000000gn/T//ccWY8Zlo.s:5187   .debug_str:000000000000073a .LASF151
/var/folders/rt/4gvqv631095f64jvm7jfj_000000gn/T//ccWY8Zlo.s:5203   .debug_str:000000000000078a .LASF152
/var/folders/rt/4gvqv631095f64jvm7jfj_000000gn/T//ccWY8Zlo.s:4985   .debug_str:000000000000027c .LASF153
/var/folders/rt/4gvqv631095f64jvm7jfj_000000gn/T//ccWY8Zlo.s:5157   .debug_str:0000000000000698 .LASF154
/var/folders/rt/4gvqv631095f64jvm7jfj_000000gn/T//ccWY8Zlo.s:5079   .debug_str:000000000000045b .LASF155
/var/folders/rt/4gvqv631095f64jvm7jfj_000000gn/T//ccWY8Zlo.s:5189   .debug_str:000000000000074a .LASF156
/var/folders/rt/4gvqv631095f64jvm7jfj_000000gn/T//ccWY8Zlo.s:5035   .debug_str:000000000000038d .LASF157
/var/folders/rt/4gvqv631095f64jvm7jfj_000000gn/T//ccWY8Zlo.s:5171   .debug_str:00000000000006e2 .LASF158
/var/folders/rt/4gvqv631095f64jvm7jfj_000000gn/T//ccWY8Zlo.s:5065   .debug_str:0000000000000416 .LASF159
/var/folders/rt/4gvqv631095f64jvm7jfj_000000gn/T//ccWY8Zlo.s:4893   .debug_str:00000000000000c9 .LASF160
/var/folders/rt/4gvqv631095f64jvm7jfj_000000gn/T//ccWY8Zlo.s:5121   .debug_str:0000000000000517 .LASF161
/var/folders/rt/4gvqv631095f64jvm7jfj_000000gn/T//ccWY8Zlo.s:4975   .debug_str:0000000000000256 .LASF162
/var/folders/rt/4gvqv631095f64jvm7jfj_000000gn/T//ccWY8Zlo.s:5137   .debug_str:0000000000000620 .LASF163
/var/folders/rt/4gvqv631095f64jvm7jfj_000000gn/T//ccWY8Zlo.s:5177   .debug_str:00000000000006fa .LASF164
/var/folders/rt/4gvqv631095f64jvm7jfj_000000gn/T//ccWY8Zlo.s:5149   .debug_str:0000000000000666 .LASF165
/var/folders/rt/4gvqv631095f64jvm7jfj_000000gn/T//ccWY8Zlo.s:4861   .debug_str:0000000000000016 .LASF166
/var/folders/rt/4gvqv631095f64jvm7jfj_000000gn/T//ccWY8Zlo.s:5123   .debug_str:000000000000051e .LASF167
/var/folders/rt/4gvqv631095f64jvm7jfj_000000gn/T//ccWY8Zlo.s:5199   .debug_str:0000000000000774 .LASF168
/var/folders/rt/4gvqv631095f64jvm7jfj_000000gn/T//ccWY8Zlo.s:590    .text.startup.main:0000000000000006 .LCFI9
/var/folders/rt/4gvqv631095f64jvm7jfj_000000gn/T//ccWY8Zlo.s:597    .text.startup.main:0000000000000018 .LCFI10
/var/folders/rt/4gvqv631095f64jvm7jfj_000000gn/T//ccWY8Zlo.s:585    .text.startup.main:0000000000000000 .LVL54
/var/folders/rt/4gvqv631095f64jvm7jfj_000000gn/T//ccWY8Zlo.s:689    .text.startup.main:00000000000000e8 .LVL69
/var/folders/rt/4gvqv631095f64jvm7jfj_000000gn/T//ccWY8Zlo.s:703    .text.startup.main:00000000000000f6 .LVL72
/var/folders/rt/4gvqv631095f64jvm7jfj_000000gn/T//ccWY8Zlo.s:402    .text.updatePlantReading:0000000000000002 .LCFI6
/var/folders/rt/4gvqv631095f64jvm7jfj_000000gn/T//ccWY8Zlo.s:530    .text.updatePlantReading:00000000000000cc .LCFI7
/var/folders/rt/4gvqv631095f64jvm7jfj_000000gn/T//ccWY8Zlo.s:535    .text.updatePlantReading:00000000000000ce .LCFI8
/var/folders/rt/4gvqv631095f64jvm7jfj_000000gn/T//ccWY8Zlo.s:395    .text.updatePlantReading:0000000000000000 .LVL32
/var/folders/rt/4gvqv631095f64jvm7jfj_000000gn/T//ccWY8Zlo.s:422    .text.updatePlantReading:0000000000000014 .LVL33
/var/folders/rt/4gvqv631095f64jvm7jfj_000000gn/T//ccWY8Zlo.s:526    .text.updatePlantReading:00000000000000c8 .LVL46
/var/folders/rt/4gvqv631095f64jvm7jfj_000000gn/T//ccWY8Zlo.s:533    .text.updatePlantReading:00000000000000ce .LVL47
/var/folders/rt/4gvqv631095f64jvm7jfj_000000gn/T//ccWY8Zlo.s:432    .text.updatePlantReading:0000000000000022 .LVL35
/var/folders/rt/4gvqv631095f64jvm7jfj_000000gn/T//ccWY8Zlo.s:446    .text.updatePlantReading:0000000000000046 .LVL37
/var/folders/rt/4gvqv631095f64jvm7jfj_000000gn/T//ccWY8Zlo.s:462    .text.updatePlantReading:000000000000005c .LVL39
/var/folders/rt/4gvqv631095f64jvm7jfj_000000gn/T//ccWY8Zlo.s:511    .text.updatePlantReading:00000000000000c0 .LVL44
/var/folders/rt/4gvqv631095f64jvm7jfj_000000gn/T//ccWY8Zlo.s:556    .text.updatePlantReading:00000000000000f8 .LVL50
/var/folders/rt/4gvqv631095f64jvm7jfj_000000gn/T//ccWY8Zlo.s:564    .text.updatePlantReading:0000000000000102 .LVL52
/var/folders/rt/4gvqv631095f64jvm7jfj_000000gn/T//ccWY8Zlo.s:430    .text.updatePlantReading:000000000000001e .LVL34
/var/folders/rt/4gvqv631095f64jvm7jfj_000000gn/T//ccWY8Zlo.s:523    .text.updatePlantReading:00000000000000c6 .LVL45
GAS LISTING /var/folders/rt/4gvqv631095f64jvm7jfj_000000gn/T//ccWY8Zlo.s 			page 29


/var/folders/rt/4gvqv631095f64jvm7jfj_000000gn/T//ccWY8Zlo.s:493    .text.updatePlantReading:0000000000000098 .LVL42
/var/folders/rt/4gvqv631095f64jvm7jfj_000000gn/T//ccWY8Zlo.s:545    .text.updatePlantReading:00000000000000dc .LVL48
/var/folders/rt/4gvqv631095f64jvm7jfj_000000gn/T//ccWY8Zlo.s:188    .text.renderOnePlant:0000000000000002 .LCFI3
/var/folders/rt/4gvqv631095f64jvm7jfj_000000gn/T//ccWY8Zlo.s:357    .text.renderOnePlant:0000000000000142 .LCFI4
/var/folders/rt/4gvqv631095f64jvm7jfj_000000gn/T//ccWY8Zlo.s:363    .text.renderOnePlant:000000000000014a .LCFI5
/var/folders/rt/4gvqv631095f64jvm7jfj_000000gn/T//ccWY8Zlo.s:181    .text.renderOnePlant:0000000000000000 .LVL12
/var/folders/rt/4gvqv631095f64jvm7jfj_000000gn/T//ccWY8Zlo.s:206    .text.renderOnePlant:0000000000000012 .LVL13
/var/folders/rt/4gvqv631095f64jvm7jfj_000000gn/T//ccWY8Zlo.s:355    .text.renderOnePlant:0000000000000140 .LVL29
/var/folders/rt/4gvqv631095f64jvm7jfj_000000gn/T//ccWY8Zlo.s:214    .text.renderOnePlant:000000000000001c .LVL14
/var/folders/rt/4gvqv631095f64jvm7jfj_000000gn/T//ccWY8Zlo.s:221    .text.renderOnePlant:000000000000002e .LVL15
/var/folders/rt/4gvqv631095f64jvm7jfj_000000gn/T//ccWY8Zlo.s:237    .text.renderOnePlant:0000000000000048 .LVL17
/var/folders/rt/4gvqv631095f64jvm7jfj_000000gn/T//ccWY8Zlo.s:243    .text.renderOnePlant:0000000000000052 .LVL18
/var/folders/rt/4gvqv631095f64jvm7jfj_000000gn/T//ccWY8Zlo.s:340    .text.renderOnePlant:0000000000000136 .LVL28
/var/folders/rt/4gvqv631095f64jvm7jfj_000000gn/T//ccWY8Zlo.s:264    .text.renderOnePlant:000000000000007c .LVL21
/var/folders/rt/4gvqv631095f64jvm7jfj_000000gn/T//ccWY8Zlo.s:25     .text.renderAllPlants:0000000000000002 .LCFI0
/var/folders/rt/4gvqv631095f64jvm7jfj_000000gn/T//ccWY8Zlo.s:89     .text.renderAllPlants:000000000000003e .LCFI1
/var/folders/rt/4gvqv631095f64jvm7jfj_000000gn/T//ccWY8Zlo.s:94     .text.renderAllPlants:0000000000000040 .LCFI2
/var/folders/rt/4gvqv631095f64jvm7jfj_000000gn/T//ccWY8Zlo.s:18     .text.renderAllPlants:0000000000000000 .LVL0
/var/folders/rt/4gvqv631095f64jvm7jfj_000000gn/T//ccWY8Zlo.s:61     .text.renderAllPlants:0000000000000026 .LVL1
/var/folders/rt/4gvqv631095f64jvm7jfj_000000gn/T//ccWY8Zlo.s:85     .text.renderAllPlants:000000000000003a .LVL3
/var/folders/rt/4gvqv631095f64jvm7jfj_000000gn/T//ccWY8Zlo.s:92     .text.renderAllPlants:0000000000000040 .LVL4
/var/folders/rt/4gvqv631095f64jvm7jfj_000000gn/T//ccWY8Zlo.s:80     .text.renderAllPlants:0000000000000036 .LVL2
/var/folders/rt/4gvqv631095f64jvm7jfj_000000gn/T//ccWY8Zlo.s:105    .text.renderAllPlants:000000000000004e .LVL5
/var/folders/rt/4gvqv631095f64jvm7jfj_000000gn/T//ccWY8Zlo.s:776    .debug_info:0000000000000000 .Ldebug_info0
/var/folders/rt/4gvqv631095f64jvm7jfj_000000gn/T//ccWY8Zlo.s:20     .text.renderAllPlants:0000000000000000 .LBB2
/var/folders/rt/4gvqv631095f64jvm7jfj_000000gn/T//ccWY8Zlo.s:22     .text.renderAllPlants:0000000000000000 .LBE2
/var/folders/rt/4gvqv631095f64jvm7jfj_000000gn/T//ccWY8Zlo.s:29     .text.renderAllPlants:0000000000000004 .LBB3
/var/folders/rt/4gvqv631095f64jvm7jfj_000000gn/T//ccWY8Zlo.s:32     .text.renderAllPlants:0000000000000006 .LBE3
/var/folders/rt/4gvqv631095f64jvm7jfj_000000gn/T//ccWY8Zlo.s:53     .text.renderAllPlants:000000000000001a .LBB4
/var/folders/rt/4gvqv631095f64jvm7jfj_000000gn/T//ccWY8Zlo.s:65     .text.renderAllPlants:000000000000002a .LBE4
/var/folders/rt/4gvqv631095f64jvm7jfj_000000gn/T//ccWY8Zlo.s:96     .text.renderAllPlants:0000000000000040 .LBB5
/var/folders/rt/4gvqv631095f64jvm7jfj_000000gn/T//ccWY8Zlo.s:169    .text.renderAllPlants:00000000000000e0 .LBE5
/var/folders/rt/4gvqv631095f64jvm7jfj_000000gn/T//ccWY8Zlo.s:183    .text.renderOnePlant:0000000000000000 .LBB6
/var/folders/rt/4gvqv631095f64jvm7jfj_000000gn/T//ccWY8Zlo.s:185    .text.renderOnePlant:0000000000000000 .LBE6
/var/folders/rt/4gvqv631095f64jvm7jfj_000000gn/T//ccWY8Zlo.s:203    .text.renderOnePlant:0000000000000010 .LBB7
/var/folders/rt/4gvqv631095f64jvm7jfj_000000gn/T//ccWY8Zlo.s:210    .text.renderOnePlant:0000000000000016 .LBE7
/var/folders/rt/4gvqv631095f64jvm7jfj_000000gn/T//ccWY8Zlo.s:223    .text.renderOnePlant:000000000000002e .LBB8
/var/folders/rt/4gvqv631095f64jvm7jfj_000000gn/T//ccWY8Zlo.s:342    .text.renderOnePlant:0000000000000136 .LBE8
/var/folders/rt/4gvqv631095f64jvm7jfj_000000gn/T//ccWY8Zlo.s:365    .text.renderOnePlant:000000000000014a .LBB9
/var/folders/rt/4gvqv631095f64jvm7jfj_000000gn/T//ccWY8Zlo.s:370    .text.renderOnePlant:000000000000014e .LBE9
/var/folders/rt/4gvqv631095f64jvm7jfj_000000gn/T//ccWY8Zlo.s:397    .text.updatePlantReading:0000000000000000 .LBB10
/var/folders/rt/4gvqv631095f64jvm7jfj_000000gn/T//ccWY8Zlo.s:399    .text.updatePlantReading:0000000000000000 .LBE10
/var/folders/rt/4gvqv631095f64jvm7jfj_000000gn/T//ccWY8Zlo.s:417    .text.updatePlantReading:0000000000000010 .LBB13
/var/folders/rt/4gvqv631095f64jvm7jfj_000000gn/T//ccWY8Zlo.s:426    .text.updatePlantReading:0000000000000018 .LBE13
/var/folders/rt/4gvqv631095f64jvm7jfj_000000gn/T//ccWY8Zlo.s:448    .text.updatePlantReading:0000000000000046 .LBB14
/var/folders/rt/4gvqv631095f64jvm7jfj_000000gn/T//ccWY8Zlo.s:514    .text.updatePlantReading:00000000000000c0 .LBE14
/var/folders/rt/4gvqv631095f64jvm7jfj_000000gn/T//ccWY8Zlo.s:537    .text.updatePlantReading:00000000000000ce .LBB15
/var/folders/rt/4gvqv631095f64jvm7jfj_000000gn/T//ccWY8Zlo.s:559    .text.updatePlantReading:00000000000000f8 .LBE15
/var/folders/rt/4gvqv631095f64jvm7jfj_000000gn/T//ccWY8Zlo.s:566    .text.updatePlantReading:0000000000000102 .LBB16
/var/folders/rt/4gvqv631095f64jvm7jfj_000000gn/T//ccWY8Zlo.s:572    .text.updatePlantReading:000000000000010a .LBE16
/var/folders/rt/4gvqv631095f64jvm7jfj_000000gn/T//ccWY8Zlo.s:466    .text.updatePlantReading:0000000000000060 .LBB11
/var/folders/rt/4gvqv631095f64jvm7jfj_000000gn/T//ccWY8Zlo.s:513    .text.updatePlantReading:00000000000000c0 .LBE11
/var/folders/rt/4gvqv631095f64jvm7jfj_000000gn/T//ccWY8Zlo.s:538    .text.updatePlantReading:00000000000000ce .LBB12
/var/folders/rt/4gvqv631095f64jvm7jfj_000000gn/T//ccWY8Zlo.s:558    .text.updatePlantReading:00000000000000f8 .LBE12

UNDEFINED SYMBOLS
LCD_ShowStr
GAS LISTING /var/folders/rt/4gvqv631095f64jvm7jfj_000000gn/T//ccWY8Zlo.s 			page 30


LCD_ShowNum
strcmp
LCD_Fill
generateTimeStamp
readSensor
snprintf
t5omsi
colinit
l88init
rtcInit
rtc_counter_set
u0init
eclic_global_interrupt_enable
ADC3powerUpInit
Lcd_SetType
Lcd_Init
initPlant
t5expq
colset
l88row
l88mem
