GAS LISTING /var/folders/rt/4gvqv631095f64jvm7jfj_000000gn/T//ccewYGLi.s 			page 1


   1              		.file	"main.c"
   2              		.option nopic
   3              		.attribute arch, "rv32i2p0_m2p0_a2p0_c2p0"
   4              		.attribute unaligned_access, 0
   5              		.attribute stack_align, 16
   6              		.text
   7              	.Ltext0:
   8              		.cfi_sections	.debug_frame
   9              		.section	.text.startup.main,"ax",@progbits
  10              		.align	1
  11              		.globl	main
  13              	main:
  14              	.LFB6:
  15              		.file 1 "main.c"
   1:main.c        **** #include "gd32vf103.h"
   2:main.c        **** #include "drivers.h"
   3:main.c        **** #include "adc.h"
   4:main.c        **** #include "lcd.h"
   5:main.c        **** #include "plant.h"
   6:main.c        **** #include "utilities.h"
   7:main.c        **** #include "usart.h"
   8:main.c        **** #include <string.h>
   9:main.c        **** #include <stdio.h>
  10:main.c        **** #include "renderPlants.h"
  11:main.c        **** #include "wifiServices.h"
  12:main.c        **** 
  13:main.c        **** #define MAXIMUM_NUMBER_OF_PLANTS 3
  14:main.c        **** #define STR_COPY(dest, src) \
  15:main.c        ****   snprintf(dest, sizeof(dest), "%s", src) // AI. STR_COPY är en genväg för snprintf som i sin tu
  16:main.c        **** 
  17:main.c        **** int main(void)
  18:main.c        **** {
  16              		.loc 1 18 1
  17              		.cfi_startproc
  19:main.c        ****   int ms = 0, s = 0, idle = 0;
  18              		.loc 1 19 3
  19              	.LVL0:
  20:main.c        ****   int currentMin = 0;
  20              		.loc 1 20 3
  18:main.c        ****   int ms = 0, s = 0, idle = 0;
  21              		.loc 1 18 1 is_stmt 0
  22 0000 13010181 		addi	sp,sp,-2032
  23              	.LCFI0:
  24              		.cfi_def_cfa_offset 2032
  25 0004 2326117E 		sw	ra,2028(sp)
  26 0008 2324817E 		sw	s0,2024(sp)
  27 000c 2322917E 		sw	s1,2020(sp)
  28 0010 2320217F 		sw	s2,2016(sp)
  29 0014 232E317D 		sw	s3,2012(sp)
  30 0018 232C417D 		sw	s4,2008(sp)
  31 001c 232A517D 		sw	s5,2004(sp)
  32 0020 2328617D 		sw	s6,2000(sp)
  33              		.cfi_offset 1, -4
  34              		.cfi_offset 8, -8
  35              		.cfi_offset 9, -12
  36              		.cfi_offset 18, -16
  37              		.cfi_offset 19, -20
GAS LISTING /var/folders/rt/4gvqv631095f64jvm7jfj_000000gn/T//ccewYGLi.s 			page 2


  38              		.cfi_offset 20, -24
  39              		.cfi_offset 21, -28
  40              		.cfi_offset 22, -32
  41              		.loc 1 20 7
  42 0024 8569     		li	s3,4096
  18:main.c        ****   int ms = 0, s = 0, idle = 0;
  43              		.loc 1 18 1
  44 0026 13010194 		addi	sp,sp,-1728
  45              	.LCFI1:
  46              		.cfi_def_cfa_offset 3760
  47              		.loc 1 20 7
  48 002a 1408     		addi	a3,sp,16
  49 002c 138709E8 		addi	a4,s3,-384
  50 0030 3697     		add	a4,a4,a3
  51 0032 FD77     		li	a5,-4096
  52 0034 BA97     		add	a5,a4,a5
  53 0036 3EC6     		sw	a5,12(sp)
  54 0038 23A40718 		sw	zero,392(a5)
  21:main.c        ****   Plant allPlants[MAXIMUM_NUMBER_OF_PLANTS];
  55              		.loc 1 21 3 is_stmt 1
  22:main.c        ****   int numberOfPlants = 0;
  56              		.loc 1 22 3
  57              		.loc 1 22 7 is_stmt 0
  58 003c 23A60718 		sw	zero,396(a5)
  23:main.c        **** 
  24:main.c        ****   // INITIERINGAR. RTCINIT OCH ADC3powerup har några förändringar vs original
  25:main.c        ****   t5omsi(); // Initialize timer5 1kHz
  59              		.loc 1 25 3 is_stmt 1
  60 0040 97000000 		call	t5omsi
  60      E7800000 
  61              	.LVL1:
  26:main.c        ****   colinit();
  62              		.loc 1 26 3
  63 0048 97000000 		call	colinit
  63      E7800000 
  64              	.LVL2:
  27:main.c        ****   l88init();
  65              		.loc 1 27 3
  66 0050 97000000 		call	l88init
  66      E7800000 
  67              	.LVL3:
  28:main.c        ****   rtcInit();
  68              		.loc 1 28 3
  69 0058 97000000 		call	rtcInit
  69      E7800000 
  70              	.LVL4:
  29:main.c        ****   rtc_counter_set(0);
  71              		.loc 1 29 3
  72 0060 0145     		li	a0,0
  73 0062 97000000 		call	rtc_counter_set
  73      E7800000 
  74              	.LVL5:
  30:main.c        ****   Lcd_SetType(LCD_INVERTED);
  75              		.loc 1 30 3
  76 006a 0545     		li	a0,1
  77 006c 97000000 		call	Lcd_SetType
  77      E7800000 
GAS LISTING /var/folders/rt/4gvqv631095f64jvm7jfj_000000gn/T//ccewYGLi.s 			page 3


  78              	.LVL6:
  31:main.c        ****   Lcd_Init();
  79              		.loc 1 31 3
  80 0074 97000000 		call	Lcd_Init
  80      E7800000 
  81              	.LVL7:
  32:main.c        ****   LCD_Fill(0, 0, 160, 80, BLACK);
  82              		.loc 1 32 3
  83 007c 0147     		li	a4,0
  84 007e 93060005 		li	a3,80
  85 0082 1306000A 		li	a2,160
  86 0086 8145     		li	a1,0
  87 0088 0145     		li	a0,0
  88 008a 97000000 		call	LCD_Fill
  88      E7800000 
  89              	.LVL8:
  33:main.c        ****   // keyinit();          // Initialize keyboard toolbox
  34:main.c        ****   MAX31865_Init();    // Init Jocke temp-sensor
  90              		.loc 1 34 3
  91 0092 97000000 		call	MAX31865_Init
  91      E7800000 
  92              	.LVL9:
  35:main.c        ****   ADC3powerUpInit(0); // Initialize ADC0, Ch3
  93              		.loc 1 35 3
  94 009a 0145     		li	a0,0
  95 009c 97000000 		call	ADC3powerUpInit
  95      E7800000 
  96              	.LVL10:
  36:main.c        ****   u0init(1);         // Init WiFi över UART
  97              		.loc 1 36 3
  98 00a4 0545     		li	a0,1
  99 00a6 97000000 		call	u0init
  99      E7800000 
 100              	.LVL11:
  37:main.c        ****   eclic_global_interrupt_enable();
 101              		.loc 1 37 3
 102 00ae 97000000 		call	eclic_global_interrupt_enable
 102      E7800000 
 103              	.LVL12:
  38:main.c        **** 
  39:main.c        ****   LCD_Clear(BLACK);
 104              		.loc 1 39 3
 105 00b6 0145     		li	a0,0
 106 00b8 97000000 		call	LCD_Clear
 106      E7800000 
 107              	.LVL13:
  40:main.c        ****   LCD_ShowStr(0, 0, "STANDBY", GREEN, TRANSPARENT);
 108              		.loc 1 40 3
 109 00c0 37060000 		lui	a2,%hi(.LC0)
 110 00c4 0547     		li	a4,1
 111 00c6 9306007E 		li	a3,2016
 112 00ca 13060600 		addi	a2,a2,%lo(.LC0)
 113 00ce 8145     		li	a1,0
 114 00d0 0145     		li	a0,0
 115 00d2 97000000 		call	LCD_ShowStr
 115      E7800000 
 116              	.LVL14:
GAS LISTING /var/folders/rt/4gvqv631095f64jvm7jfj_000000gn/T//ccewYGLi.s 			page 4


  41:main.c        ****   putstr("System online");
 117              		.loc 1 41 3
 118 00da 37050000 		lui	a0,%hi(.LC1)
 119 00de 13050500 		addi	a0,a0,%lo(.LC1)
 120 00e2 97000000 		call	putstr
 120      E7800000 
 121              	.LVL15:
  42:main.c        **** 
  43:main.c        ****   while (1)
  44:main.c        ****   {
  45:main.c        ****     idle++;
  46:main.c        ****     // DENNA AKTIVERAR RX WIFI
  47:main.c        ****     if (commandBufferIndex > 0) 
  48:main.c        ****       receiveCommands(allPlants, &numberOfPlants);
 122              		.loc 1 48 7 is_stmt 0
 123 00ea 7D79     		li	s2,-4096
 124 00ec 1408     		addi	a3,sp,16
 125 00ee 138709E8 		addi	a4,s3,-384
 126 00f2 CE87     		mv	a5,s3
 127 00f4 3697     		add	a4,a4,a3
 128 00f6 130AC918 		addi	s4,s2,396
 129 00fa 3A9A     		add	s4,a4,s4
 130 00fc 138707E8 		addi	a4,a5,-384
  49:main.c        **** 
  50:main.c        ****     if (t5expq())
  51:main.c        ****     {
  52:main.c        ****       l88row(colset());
  53:main.c        ****       ms++;
  54:main.c        ****       if (ms == 1000)
  55:main.c        ****       {
  56:main.c        ****         ms = 0;
  57:main.c        ****         // DENNA KÖR CHECK AV SENSORER
  58:main.c        ****         if (oneMinuteHasPassed(&currentMin) && numberOfPlants)
 131              		.loc 1 58 13
 132 0100 938707E8 		addi	a5,a5,-384
  48:main.c        **** 
 133              		.loc 1 48 7
 134 0104 93090919 		addi	s3,s2,400
 135 0108 3697     		add	a4,a4,a3
 136              		.loc 1 58 13
 137 010a 930A8918 		addi	s5,s2,392
 138 010e B697     		add	a5,a5,a3
  19:main.c        ****   int currentMin = 0;
 139              		.loc 1 19 22
 140 0110 0144     		li	s0,0
  19:main.c        ****   int currentMin = 0;
 141              		.loc 1 19 7
 142 0112 8144     		li	s1,0
  47:main.c        ****       receiveCommands(allPlants, &numberOfPlants);
 143              		.loc 1 47 28
 144 0114 370B0000 		lui	s6,%hi(commandBufferIndex)
  48:main.c        **** 
 145              		.loc 1 48 7
 146 0118 BA99     		add	s3,a4,s3
 147              		.loc 1 58 13
 148 011a BE9A     		add	s5,a5,s5
 149              	.LVL16:
GAS LISTING /var/folders/rt/4gvqv631095f64jvm7jfj_000000gn/T//ccewYGLi.s 			page 5


 150              	.L2:
  43:main.c        ****   {
 151              		.loc 1 43 3 is_stmt 1
  45:main.c        ****     // DENNA AKTIVERAR RX WIFI
 152              		.loc 1 45 5
  47:main.c        ****       receiveCommands(allPlants, &numberOfPlants);
 153              		.loc 1 47 28 is_stmt 0
 154 011c 83270B00 		lw	a5,%lo(commandBufferIndex)(s6)
  45:main.c        ****     // DENNA AKTIVERAR RX WIFI
 155              		.loc 1 45 9
 156 0120 0504     		addi	s0,s0,1
 157              	.LVL17:
  47:main.c        ****       receiveCommands(allPlants, &numberOfPlants);
 158              		.loc 1 47 5 is_stmt 1
  47:main.c        ****       receiveCommands(allPlants, &numberOfPlants);
 159              		.loc 1 47 8 is_stmt 0
 160 0122 6358F000 		ble	a5,zero,.L3
  48:main.c        **** 
 161              		.loc 1 48 7 is_stmt 1
 162 0126 D285     		mv	a1,s4
 163 0128 4E85     		mv	a0,s3
 164 012a 97000000 		call	receiveCommands
 164      E7800000 
 165              	.LVL18:
 166              	.L3:
  50:main.c        ****     {
 167              		.loc 1 50 5
  50:main.c        ****     {
 168              		.loc 1 50 9 is_stmt 0
 169 0132 97000000 		call	t5expq
 169      E7800000 
 170              	.LVL19:
  50:main.c        ****     {
 171              		.loc 1 50 8
 172 013a 6DD1     		beq	a0,zero,.L2
  52:main.c        ****       ms++;
 173              		.loc 1 52 7
 174 013c 97000000 		call	colset
 174      E7800000 
 175              	.LVL20:
 176 0144 97000000 		call	l88row
 176      E7800000 
 177              	.LVL21:
 178 014c 8504     		addi	s1,s1,1
 179              	.LVL22:
  52:main.c        ****       ms++;
 180              		.loc 1 52 7 is_stmt 1
  53:main.c        ****       if (ms == 1000)
 181              		.loc 1 53 7
  54:main.c        ****       {
 182              		.loc 1 54 7
  54:main.c        ****       {
 183              		.loc 1 54 10 is_stmt 0
 184 014e 9307803E 		li	a5,1000
 185 0152 E395F4FC 		bne	s1,a5,.L2
  56:main.c        ****         // DENNA KÖR CHECK AV SENSORER
 186              		.loc 1 56 9 is_stmt 1
GAS LISTING /var/folders/rt/4gvqv631095f64jvm7jfj_000000gn/T//ccewYGLi.s 			page 6


 187              	.LVL23:
 188              		.loc 1 58 9
 189              		.loc 1 58 13 is_stmt 0
 190 0156 5685     		mv	a0,s5
 191 0158 97000000 		call	oneMinuteHasPassed
 191      E7800000 
 192              	.LVL24:
 193              		.loc 1 58 12
 194 0160 1DC5     		beq	a0,zero,.L6
 195              		.loc 1 58 45 discriminator 1
 196 0162 F247     		lw	a5,28(sp)
 197 0164 8DC7     		beq	a5,zero,.L6
  59:main.c        ****         {
  60:main.c        ****           LCD_Clear(BLACK); // JUST DENNA RAD EJ NÖDVÄNDIG
 198              		.loc 1 60 11 is_stmt 1
 199 0166 0145     		li	a0,0
 200 0168 97000000 		call	LCD_Clear
 200      E7800000 
 201              	.LVL25:
  61:main.c        **** 
  62:main.c        ****           if (applyGreenFingers(allPlants, numberOfPlants))
 202              		.loc 1 62 11
 203              		.loc 1 62 15 is_stmt 0
 204 0170 F245     		lw	a1,28(sp)
 205 0172 4E85     		mv	a0,s3
 206 0174 97000000 		call	applyGreenFingers
 206      E7800000 
 207              	.LVL26:
 208              		.loc 1 62 14
 209 017c 09C9     		beq	a0,zero,.L6
  63:main.c        ****             putstr("Green fingers working");
 210              		.loc 1 63 13 is_stmt 1
 211 017e 37050000 		lui	a0,%hi(.LC2)
 212 0182 13050500 		addi	a0,a0,%lo(.LC2)
 213 0186 97000000 		call	putstr
 213      E7800000 
 214              	.LVL27:
 215              	.L6:
  64:main.c        ****         }
  65:main.c        **** 
  66:main.c        ****         l88mem(0, idle >> 8); // ...Performance monitor
 216              		.loc 1 66 9
 217 018e 93558440 		srai	a1,s0,8
 218 0192 0145     		li	a0,0
 219 0194 97000000 		call	l88mem
 219      E7800000 
 220              	.LVL28:
  67:main.c        ****         l88mem(1, idle);
 221              		.loc 1 67 9
 222 019c A285     		mv	a1,s0
 223 019e 0545     		li	a0,1
 224 01a0 97000000 		call	l88mem
 224      E7800000 
 225              	.LVL29:
  68:main.c        ****         idle = 0;
 226              		.loc 1 68 9
 227              		.loc 1 68 14 is_stmt 0
GAS LISTING /var/folders/rt/4gvqv631095f64jvm7jfj_000000gn/T//ccewYGLi.s 			page 7


 228 01a8 0144     		li	s0,0
  56:main.c        ****         // DENNA KÖR CHECK AV SENSORER
 229              		.loc 1 56 12
 230 01aa 8144     		li	s1,0
 231 01ac 85BF     		j	.L2
 232              		.cfi_endproc
 233              	.LFE6:
 235              		.section	.rodata.main.str1.4,"aMS",@progbits,1
 236              		.align	2
 237              	.LC0:
 238 0000 5354414E 		.string	"STANDBY"
 238      44425900 
 239              	.LC1:
 240 0008 53797374 		.string	"System online"
 240      656D206F 
 240      6E6C696E 
 240      6500
 241 0016 0000     		.zero	2
 242              	.LC2:
 243 0018 47726565 		.string	"Green fingers working"
 243      6E206669 
 243      6E676572 
 243      7320776F 
 243      726B696E 
 244              		.text
 245              	.Letext0:
 246              		.file 2 "/Users/alexstrae/toolchain-gd32v-v202-osx/compiler/riscv64-unknown-elf/include/machine/_d
 247              		.file 3 "/Users/alexstrae/toolchain-gd32v-v202-osx/compiler/riscv64-unknown-elf/include/sys/_stdin
 248              		.file 4 "/Users/alexstrae/toolchain-gd32v-v202-osx/compiler/lib/gcc/riscv64-unknown-elf/8.3.0/incl
 249              		.file 5 "/Users/alexstrae/toolchain-gd32v-v202-osx/compiler/riscv64-unknown-elf/include/sys/_types
 250              		.file 6 "/Users/alexstrae/toolchain-gd32v-v202-osx/compiler/riscv64-unknown-elf/include/sys/reent.
 251              		.file 7 "/Users/alexstrae/toolchain-gd32v-v202-osx/compiler/riscv64-unknown-elf/include/sys/lock.h
 252              		.file 8 "../../firmware/GD32VF103_standard_peripheral/system_gd32vf103.h"
 253              		.file 9 "/Users/alexstrae/toolchain-gd32v-v202-osx/compiler/riscv64-unknown-elf/include/stdlib.h"
 254              		.file 10 "lcd.h"
 255              		.file 11 "plant.h"
 256              		.file 12 "usart.h"
 257              		.file 13 "drivers.h"
 258              		.file 14 "utilities.h"
 259              		.file 15 "../../firmware/GD32VF103_standard_peripheral/Include/gd32vf103_rtc.h"
 260              		.file 16 "adc.h"
 261              		.file 17 "../../firmware/GD32VF103_standard_peripheral/Include/gd32vf103_eclic.h"
 262              		.file 18 "wifiServices.h"
GAS LISTING /var/folders/rt/4gvqv631095f64jvm7jfj_000000gn/T//ccewYGLi.s 			page 8


DEFINED SYMBOLS
                            *ABS*:0000000000000000 main.c
/var/folders/rt/4gvqv631095f64jvm7jfj_000000gn/T//ccewYGLi.s:13     .text.startup.main:0000000000000000 main
/var/folders/rt/4gvqv631095f64jvm7jfj_000000gn/T//ccewYGLi.s:17     .text.startup.main:0000000000000000 .L0 
/var/folders/rt/4gvqv631095f64jvm7jfj_000000gn/T//ccewYGLi.s:18     .text.startup.main:0000000000000000 .L0 
/var/folders/rt/4gvqv631095f64jvm7jfj_000000gn/T//ccewYGLi.s:20     .text.startup.main:0000000000000000 .L0 
/var/folders/rt/4gvqv631095f64jvm7jfj_000000gn/T//ccewYGLi.s:21     .text.startup.main:0000000000000000 .L0 
/var/folders/rt/4gvqv631095f64jvm7jfj_000000gn/T//ccewYGLi.s:22     .text.startup.main:0000000000000000 .L0 
/var/folders/rt/4gvqv631095f64jvm7jfj_000000gn/T//ccewYGLi.s:24     .text.startup.main:0000000000000004 .L0 
/var/folders/rt/4gvqv631095f64jvm7jfj_000000gn/T//ccewYGLi.s:33     .text.startup.main:0000000000000024 .L0 
/var/folders/rt/4gvqv631095f64jvm7jfj_000000gn/T//ccewYGLi.s:34     .text.startup.main:0000000000000024 .L0 
/var/folders/rt/4gvqv631095f64jvm7jfj_000000gn/T//ccewYGLi.s:35     .text.startup.main:0000000000000024 .L0 
/var/folders/rt/4gvqv631095f64jvm7jfj_000000gn/T//ccewYGLi.s:36     .text.startup.main:0000000000000024 .L0 
/var/folders/rt/4gvqv631095f64jvm7jfj_000000gn/T//ccewYGLi.s:37     .text.startup.main:0000000000000024 .L0 
/var/folders/rt/4gvqv631095f64jvm7jfj_000000gn/T//ccewYGLi.s:38     .text.startup.main:0000000000000024 .L0 
/var/folders/rt/4gvqv631095f64jvm7jfj_000000gn/T//ccewYGLi.s:39     .text.startup.main:0000000000000024 .L0 
/var/folders/rt/4gvqv631095f64jvm7jfj_000000gn/T//ccewYGLi.s:40     .text.startup.main:0000000000000024 .L0 
/var/folders/rt/4gvqv631095f64jvm7jfj_000000gn/T//ccewYGLi.s:42     .text.startup.main:0000000000000024 .L0 
/var/folders/rt/4gvqv631095f64jvm7jfj_000000gn/T//ccewYGLi.s:44     .text.startup.main:0000000000000026 .L0 
/var/folders/rt/4gvqv631095f64jvm7jfj_000000gn/T//ccewYGLi.s:46     .text.startup.main:000000000000002a .L0 
/var/folders/rt/4gvqv631095f64jvm7jfj_000000gn/T//ccewYGLi.s:48     .text.startup.main:000000000000002a .L0 
/var/folders/rt/4gvqv631095f64jvm7jfj_000000gn/T//ccewYGLi.s:56     .text.startup.main:000000000000003c .L0 
/var/folders/rt/4gvqv631095f64jvm7jfj_000000gn/T//ccewYGLi.s:57     .text.startup.main:000000000000003c .L0 
/var/folders/rt/4gvqv631095f64jvm7jfj_000000gn/T//ccewYGLi.s:58     .text.startup.main:000000000000003c .L0 
/var/folders/rt/4gvqv631095f64jvm7jfj_000000gn/T//ccewYGLi.s:60     .text.startup.main:0000000000000040 .L0 
/var/folders/rt/4gvqv631095f64jvm7jfj_000000gn/T//ccewYGLi.s:63     .text.startup.main:0000000000000048 .L0 
/var/folders/rt/4gvqv631095f64jvm7jfj_000000gn/T//ccewYGLi.s:66     .text.startup.main:0000000000000050 .L0 
/var/folders/rt/4gvqv631095f64jvm7jfj_000000gn/T//ccewYGLi.s:69     .text.startup.main:0000000000000058 .L0 
/var/folders/rt/4gvqv631095f64jvm7jfj_000000gn/T//ccewYGLi.s:72     .text.startup.main:0000000000000060 .L0 
/var/folders/rt/4gvqv631095f64jvm7jfj_000000gn/T//ccewYGLi.s:76     .text.startup.main:000000000000006a .L0 
/var/folders/rt/4gvqv631095f64jvm7jfj_000000gn/T//ccewYGLi.s:80     .text.startup.main:0000000000000074 .L0 
/var/folders/rt/4gvqv631095f64jvm7jfj_000000gn/T//ccewYGLi.s:83     .text.startup.main:000000000000007c .L0 
/var/folders/rt/4gvqv631095f64jvm7jfj_000000gn/T//ccewYGLi.s:91     .text.startup.main:0000000000000092 .L0 
/var/folders/rt/4gvqv631095f64jvm7jfj_000000gn/T//ccewYGLi.s:94     .text.startup.main:000000000000009a .L0 
/var/folders/rt/4gvqv631095f64jvm7jfj_000000gn/T//ccewYGLi.s:98     .text.startup.main:00000000000000a4 .L0 
/var/folders/rt/4gvqv631095f64jvm7jfj_000000gn/T//ccewYGLi.s:102    .text.startup.main:00000000000000ae .L0 
/var/folders/rt/4gvqv631095f64jvm7jfj_000000gn/T//ccewYGLi.s:105    .text.startup.main:00000000000000b6 .L0 
/var/folders/rt/4gvqv631095f64jvm7jfj_000000gn/T//ccewYGLi.s:109    .text.startup.main:00000000000000c0 .L0 
/var/folders/rt/4gvqv631095f64jvm7jfj_000000gn/T//ccewYGLi.s:118    .text.startup.main:00000000000000da .L0 
/var/folders/rt/4gvqv631095f64jvm7jfj_000000gn/T//ccewYGLi.s:123    .text.startup.main:00000000000000ea .L0 
/var/folders/rt/4gvqv631095f64jvm7jfj_000000gn/T//ccewYGLi.s:132    .text.startup.main:0000000000000100 .L0 
/var/folders/rt/4gvqv631095f64jvm7jfj_000000gn/T//ccewYGLi.s:134    .text.startup.main:0000000000000104 .L0 
/var/folders/rt/4gvqv631095f64jvm7jfj_000000gn/T//ccewYGLi.s:137    .text.startup.main:000000000000010a .L0 
/var/folders/rt/4gvqv631095f64jvm7jfj_000000gn/T//ccewYGLi.s:140    .text.startup.main:0000000000000110 .L0 
/var/folders/rt/4gvqv631095f64jvm7jfj_000000gn/T//ccewYGLi.s:142    .text.startup.main:0000000000000112 .L0 
/var/folders/rt/4gvqv631095f64jvm7jfj_000000gn/T//ccewYGLi.s:144    .text.startup.main:0000000000000114 .L0 
/var/folders/rt/4gvqv631095f64jvm7jfj_000000gn/T//ccewYGLi.s:146    .text.startup.main:0000000000000118 .L0 
/var/folders/rt/4gvqv631095f64jvm7jfj_000000gn/T//ccewYGLi.s:148    .text.startup.main:000000000000011a .L0 
/var/folders/rt/4gvqv631095f64jvm7jfj_000000gn/T//ccewYGLi.s:152    .text.startup.main:000000000000011c .L0 
/var/folders/rt/4gvqv631095f64jvm7jfj_000000gn/T//ccewYGLi.s:153    .text.startup.main:000000000000011c .L0 
/var/folders/rt/4gvqv631095f64jvm7jfj_000000gn/T//ccewYGLi.s:154    .text.startup.main:000000000000011c .L0 
/var/folders/rt/4gvqv631095f64jvm7jfj_000000gn/T//ccewYGLi.s:156    .text.startup.main:0000000000000120 .L0 
/var/folders/rt/4gvqv631095f64jvm7jfj_000000gn/T//ccewYGLi.s:159    .text.startup.main:0000000000000122 .L0 
/var/folders/rt/4gvqv631095f64jvm7jfj_000000gn/T//ccewYGLi.s:160    .text.startup.main:0000000000000122 .L0 
/var/folders/rt/4gvqv631095f64jvm7jfj_000000gn/T//ccewYGLi.s:162    .text.startup.main:0000000000000126 .L0 
/var/folders/rt/4gvqv631095f64jvm7jfj_000000gn/T//ccewYGLi.s:168    .text.startup.main:0000000000000132 .L0 
/var/folders/rt/4gvqv631095f64jvm7jfj_000000gn/T//ccewYGLi.s:169    .text.startup.main:0000000000000132 .L0 
GAS LISTING /var/folders/rt/4gvqv631095f64jvm7jfj_000000gn/T//ccewYGLi.s 			page 9


/var/folders/rt/4gvqv631095f64jvm7jfj_000000gn/T//ccewYGLi.s:172    .text.startup.main:000000000000013a .L0 
/var/folders/rt/4gvqv631095f64jvm7jfj_000000gn/T//ccewYGLi.s:174    .text.startup.main:000000000000013c .L0 
/var/folders/rt/4gvqv631095f64jvm7jfj_000000gn/T//ccewYGLi.s:181    .text.startup.main:000000000000014e .L0 
/var/folders/rt/4gvqv631095f64jvm7jfj_000000gn/T//ccewYGLi.s:182    .text.startup.main:000000000000014e .L0 
/var/folders/rt/4gvqv631095f64jvm7jfj_000000gn/T//ccewYGLi.s:183    .text.startup.main:000000000000014e .L0 
/var/folders/rt/4gvqv631095f64jvm7jfj_000000gn/T//ccewYGLi.s:184    .text.startup.main:000000000000014e .L0 
/var/folders/rt/4gvqv631095f64jvm7jfj_000000gn/T//ccewYGLi.s:188    .text.startup.main:0000000000000156 .L0 
/var/folders/rt/4gvqv631095f64jvm7jfj_000000gn/T//ccewYGLi.s:189    .text.startup.main:0000000000000156 .L0 
/var/folders/rt/4gvqv631095f64jvm7jfj_000000gn/T//ccewYGLi.s:190    .text.startup.main:0000000000000156 .L0 
/var/folders/rt/4gvqv631095f64jvm7jfj_000000gn/T//ccewYGLi.s:194    .text.startup.main:0000000000000160 .L0 
/var/folders/rt/4gvqv631095f64jvm7jfj_000000gn/T//ccewYGLi.s:196    .text.startup.main:0000000000000162 .L0 
/var/folders/rt/4gvqv631095f64jvm7jfj_000000gn/T//ccewYGLi.s:199    .text.startup.main:0000000000000166 .L0 
/var/folders/rt/4gvqv631095f64jvm7jfj_000000gn/T//ccewYGLi.s:203    .text.startup.main:0000000000000170 .L0 
/var/folders/rt/4gvqv631095f64jvm7jfj_000000gn/T//ccewYGLi.s:204    .text.startup.main:0000000000000170 .L0 
/var/folders/rt/4gvqv631095f64jvm7jfj_000000gn/T//ccewYGLi.s:209    .text.startup.main:000000000000017c .L0 
/var/folders/rt/4gvqv631095f64jvm7jfj_000000gn/T//ccewYGLi.s:211    .text.startup.main:000000000000017e .L0 
/var/folders/rt/4gvqv631095f64jvm7jfj_000000gn/T//ccewYGLi.s:217    .text.startup.main:000000000000018e .L0 
/var/folders/rt/4gvqv631095f64jvm7jfj_000000gn/T//ccewYGLi.s:222    .text.startup.main:000000000000019c .L0 
/var/folders/rt/4gvqv631095f64jvm7jfj_000000gn/T//ccewYGLi.s:227    .text.startup.main:00000000000001a8 .L0 
/var/folders/rt/4gvqv631095f64jvm7jfj_000000gn/T//ccewYGLi.s:228    .text.startup.main:00000000000001a8 .L0 
/var/folders/rt/4gvqv631095f64jvm7jfj_000000gn/T//ccewYGLi.s:230    .text.startup.main:00000000000001aa .L0 
/var/folders/rt/4gvqv631095f64jvm7jfj_000000gn/T//ccewYGLi.s:232    .text.startup.main:00000000000001ae .L0 
/var/folders/rt/4gvqv631095f64jvm7jfj_000000gn/T//ccewYGLi.s:235    .text.startup.main:00000000000001ae .L0 
                     .debug_frame:0000000000000000 .L0 
/var/folders/rt/4gvqv631095f64jvm7jfj_000000gn/T//ccewYGLi.s:237    .rodata.main.str1.4:0000000000000000 .LC0
/var/folders/rt/4gvqv631095f64jvm7jfj_000000gn/T//ccewYGLi.s:239    .rodata.main.str1.4:0000000000000008 .LC1
/var/folders/rt/4gvqv631095f64jvm7jfj_000000gn/T//ccewYGLi.s:242    .rodata.main.str1.4:0000000000000018 .LC2
/var/folders/rt/4gvqv631095f64jvm7jfj_000000gn/T//ccewYGLi.s:166    .text.startup.main:0000000000000132 .L3
/var/folders/rt/4gvqv631095f64jvm7jfj_000000gn/T//ccewYGLi.s:150    .text.startup.main:000000000000011c .L2
/var/folders/rt/4gvqv631095f64jvm7jfj_000000gn/T//ccewYGLi.s:215    .text.startup.main:000000000000018e .L6
/var/folders/rt/4gvqv631095f64jvm7jfj_000000gn/T//ccewYGLi.s:2522   .debug_abbrev:0000000000000000 .Ldebug_abbrev0
/var/folders/rt/4gvqv631095f64jvm7jfj_000000gn/T//ccewYGLi.s:3498   .debug_str:00000000000005f2 .LASF182
/var/folders/rt/4gvqv631095f64jvm7jfj_000000gn/T//ccewYGLi.s:3350   .debug_str:000000000000030c .LASF183
/var/folders/rt/4gvqv631095f64jvm7jfj_000000gn/T//ccewYGLi.s:3502   .debug_str:0000000000000683 .LASF184
/var/folders/rt/4gvqv631095f64jvm7jfj_000000gn/T//ccewYGLi.s:3192   .debug_ranges:0000000000000000 .Ldebug_ranges0
/var/folders/rt/4gvqv631095f64jvm7jfj_000000gn/T//ccewYGLi.s:3198   .debug_line:0000000000000000 .Ldebug_line0
/var/folders/rt/4gvqv631095f64jvm7jfj_000000gn/T//ccewYGLi.s:3484   .debug_str:00000000000005b5 .LASF0
/var/folders/rt/4gvqv631095f64jvm7jfj_000000gn/T//ccewYGLi.s:3248   .debug_str:000000000000010e .LASF1
/var/folders/rt/4gvqv631095f64jvm7jfj_000000gn/T//ccewYGLi.s:3412   .debug_str:0000000000000465 .LASF2
/var/folders/rt/4gvqv631095f64jvm7jfj_000000gn/T//ccewYGLi.s:3202   .debug_str:000000000000000c .LASF3
/var/folders/rt/4gvqv631095f64jvm7jfj_000000gn/T//ccewYGLi.s:3504   .debug_str:00000000000006c6 .LASF4
/var/folders/rt/4gvqv631095f64jvm7jfj_000000gn/T//ccewYGLi.s:3218   .debug_str:0000000000000056 .LASF5
/var/folders/rt/4gvqv631095f64jvm7jfj_000000gn/T//ccewYGLi.s:3298   .debug_str:000000000000020b .LASF9
/var/folders/rt/4gvqv631095f64jvm7jfj_000000gn/T//ccewYGLi.s:3322   .debug_str:000000000000026f .LASF6
/var/folders/rt/4gvqv631095f64jvm7jfj_000000gn/T//ccewYGLi.s:3282   .debug_str:00000000000001ae .LASF7
/var/folders/rt/4gvqv631095f64jvm7jfj_000000gn/T//ccewYGLi.s:3226   .debug_str:000000000000008a .LASF8
/var/folders/rt/4gvqv631095f64jvm7jfj_000000gn/T//ccewYGLi.s:3524   .debug_str:0000000000000743 .LASF10
/var/folders/rt/4gvqv631095f64jvm7jfj_000000gn/T//ccewYGLi.s:3316   .debug_str:000000000000024f .LASF120
/var/folders/rt/4gvqv631095f64jvm7jfj_000000gn/T//ccewYGLi.s:3474   .debug_str:000000000000058e .LASF11
/var/folders/rt/4gvqv631095f64jvm7jfj_000000gn/T//ccewYGLi.s:3462   .debug_str:000000000000055f .LASF12
/var/folders/rt/4gvqv631095f64jvm7jfj_000000gn/T//ccewYGLi.s:3244   .debug_str:0000000000000100 .LASF13
/var/folders/rt/4gvqv631095f64jvm7jfj_000000gn/T//ccewYGLi.s:3472   .debug_str:0000000000000586 .LASF14
/var/folders/rt/4gvqv631095f64jvm7jfj_000000gn/T//ccewYGLi.s:3536   .debug_str:0000000000000782 .LASF15
/var/folders/rt/4gvqv631095f64jvm7jfj_000000gn/T//ccewYGLi.s:3346   .debug_str:00000000000002ff .LASF16
/var/folders/rt/4gvqv631095f64jvm7jfj_000000gn/T//ccewYGLi.s:3314   .debug_str:0000000000000248 .LASF17
/var/folders/rt/4gvqv631095f64jvm7jfj_000000gn/T//ccewYGLi.s:3464   .debug_str:0000000000000566 .LASF18
/var/folders/rt/4gvqv631095f64jvm7jfj_000000gn/T//ccewYGLi.s:3466   .debug_str:000000000000056e .LASF19
GAS LISTING /var/folders/rt/4gvqv631095f64jvm7jfj_000000gn/T//ccewYGLi.s 			page 10


/var/folders/rt/4gvqv631095f64jvm7jfj_000000gn/T//ccewYGLi.s:3430   .debug_str:00000000000004b2 .LASF20
/var/folders/rt/4gvqv631095f64jvm7jfj_000000gn/T//ccewYGLi.s:3514   .debug_str:00000000000006ff .LASF21
/var/folders/rt/4gvqv631095f64jvm7jfj_000000gn/T//ccewYGLi.s:3404   .debug_str:0000000000000436 .LASF22
/var/folders/rt/4gvqv631095f64jvm7jfj_000000gn/T//ccewYGLi.s:3418   .debug_str:0000000000000482 .LASF23
/var/folders/rt/4gvqv631095f64jvm7jfj_000000gn/T//ccewYGLi.s:3306   .debug_str:0000000000000230 .LASF28
/var/folders/rt/4gvqv631095f64jvm7jfj_000000gn/T//ccewYGLi.s:3494   .debug_str:00000000000005e5 .LASF24
/var/folders/rt/4gvqv631095f64jvm7jfj_000000gn/T//ccewYGLi.s:3456   .debug_str:000000000000054a .LASF25
/var/folders/rt/4gvqv631095f64jvm7jfj_000000gn/T//ccewYGLi.s:3300   .debug_str:0000000000000216 .LASF26
/var/folders/rt/4gvqv631095f64jvm7jfj_000000gn/T//ccewYGLi.s:3376   .debug_str:0000000000000391 .LASF27
/var/folders/rt/4gvqv631095f64jvm7jfj_000000gn/T//ccewYGLi.s:3312   .debug_str:0000000000000243 .LASF29
/var/folders/rt/4gvqv631095f64jvm7jfj_000000gn/T//ccewYGLi.s:3240   .debug_str:00000000000000f0 .LASF30
/var/folders/rt/4gvqv631095f64jvm7jfj_000000gn/T//ccewYGLi.s:3552   .debug_str:00000000000007d2 .LASF31
/var/folders/rt/4gvqv631095f64jvm7jfj_000000gn/T//ccewYGLi.s:3258   .debug_str:000000000000013b .LASF32
/var/folders/rt/4gvqv631095f64jvm7jfj_000000gn/T//ccewYGLi.s:3570   .debug_str:0000000000000828 .LASF33
/var/folders/rt/4gvqv631095f64jvm7jfj_000000gn/T//ccewYGLi.s:3380   .debug_str:00000000000003af .LASF34
/var/folders/rt/4gvqv631095f64jvm7jfj_000000gn/T//ccewYGLi.s:3366   .debug_str:0000000000000357 .LASF35
/var/folders/rt/4gvqv631095f64jvm7jfj_000000gn/T//ccewYGLi.s:3470   .debug_str:000000000000057c .LASF36
/var/folders/rt/4gvqv631095f64jvm7jfj_000000gn/T//ccewYGLi.s:3420   .debug_str:000000000000048b .LASF37
/var/folders/rt/4gvqv631095f64jvm7jfj_000000gn/T//ccewYGLi.s:3548   .debug_str:00000000000007b8 .LASF38
/var/folders/rt/4gvqv631095f64jvm7jfj_000000gn/T//ccewYGLi.s:3262   .debug_str:000000000000014a .LASF39
/var/folders/rt/4gvqv631095f64jvm7jfj_000000gn/T//ccewYGLi.s:3204   .debug_str:0000000000000016 .LASF40
/var/folders/rt/4gvqv631095f64jvm7jfj_000000gn/T//ccewYGLi.s:3200   .debug_str:0000000000000000 .LASF41
/var/folders/rt/4gvqv631095f64jvm7jfj_000000gn/T//ccewYGLi.s:3500   .debug_str:000000000000067a .LASF42
/var/folders/rt/4gvqv631095f64jvm7jfj_000000gn/T//ccewYGLi.s:3276   .debug_str:0000000000000195 .LASF43
/var/folders/rt/4gvqv631095f64jvm7jfj_000000gn/T//ccewYGLi.s:3382   .debug_str:00000000000003b8 .LASF44
/var/folders/rt/4gvqv631095f64jvm7jfj_000000gn/T//ccewYGLi.s:3444   .debug_str:00000000000004fc .LASF45
/var/folders/rt/4gvqv631095f64jvm7jfj_000000gn/T//ccewYGLi.s:3296   .debug_str:0000000000000206 .LASF46
/var/folders/rt/4gvqv631095f64jvm7jfj_000000gn/T//ccewYGLi.s:3422   .debug_str:0000000000000495 .LASF47
/var/folders/rt/4gvqv631095f64jvm7jfj_000000gn/T//ccewYGLi.s:3256   .debug_str:0000000000000135 .LASF48
/var/folders/rt/4gvqv631095f64jvm7jfj_000000gn/T//ccewYGLi.s:3482   .debug_str:00000000000005af .LASF49
/var/folders/rt/4gvqv631095f64jvm7jfj_000000gn/T//ccewYGLi.s:3432   .debug_str:00000000000004bd .LASF50
/var/folders/rt/4gvqv631095f64jvm7jfj_000000gn/T//ccewYGLi.s:3274   .debug_str:000000000000018e .LASF51
/var/folders/rt/4gvqv631095f64jvm7jfj_000000gn/T//ccewYGLi.s:3324   .debug_str:0000000000000281 .LASF52
/var/folders/rt/4gvqv631095f64jvm7jfj_000000gn/T//ccewYGLi.s:3566   .debug_str:0000000000000811 .LASF53
/var/folders/rt/4gvqv631095f64jvm7jfj_000000gn/T//ccewYGLi.s:3266   .debug_str:0000000000000160 .LASF54
/var/folders/rt/4gvqv631095f64jvm7jfj_000000gn/T//ccewYGLi.s:3308   .debug_str:0000000000000238 .LASF55
/var/folders/rt/4gvqv631095f64jvm7jfj_000000gn/T//ccewYGLi.s:3364   .debug_str:0000000000000350 .LASF56
/var/folders/rt/4gvqv631095f64jvm7jfj_000000gn/T//ccewYGLi.s:3468   .debug_str:0000000000000576 .LASF57
/var/folders/rt/4gvqv631095f64jvm7jfj_000000gn/T//ccewYGLi.s:3246   .debug_str:0000000000000107 .LASF58
/var/folders/rt/4gvqv631095f64jvm7jfj_000000gn/T//ccewYGLi.s:3254   .debug_str:000000000000012f .LASF59
/var/folders/rt/4gvqv631095f64jvm7jfj_000000gn/T//ccewYGLi.s:3544   .debug_str:00000000000007aa .LASF60
/var/folders/rt/4gvqv631095f64jvm7jfj_000000gn/T//ccewYGLi.s:3480   .debug_str:00000000000005a6 .LASF61
/var/folders/rt/4gvqv631095f64jvm7jfj_000000gn/T//ccewYGLi.s:3286   .debug_str:00000000000001c4 .LASF62
/var/folders/rt/4gvqv631095f64jvm7jfj_000000gn/T//ccewYGLi.s:3332   .debug_str:00000000000002a8 .LASF63
/var/folders/rt/4gvqv631095f64jvm7jfj_000000gn/T//ccewYGLi.s:3354   .debug_str:0000000000000318 .LASF64
/var/folders/rt/4gvqv631095f64jvm7jfj_000000gn/T//ccewYGLi.s:3434   .debug_str:00000000000004c5 .LASF65
/var/folders/rt/4gvqv631095f64jvm7jfj_000000gn/T//ccewYGLi.s:3424   .debug_str:000000000000049c .LASF66
/var/folders/rt/4gvqv631095f64jvm7jfj_000000gn/T//ccewYGLi.s:3458   .debug_str:0000000000000552 .LASF67
/var/folders/rt/4gvqv631095f64jvm7jfj_000000gn/T//ccewYGLi.s:3476   .debug_str:000000000000059a .LASF68
/var/folders/rt/4gvqv631095f64jvm7jfj_000000gn/T//ccewYGLi.s:3278   .debug_str:000000000000019d .LASF69
/var/folders/rt/4gvqv631095f64jvm7jfj_000000gn/T//ccewYGLi.s:3318   .debug_str:000000000000025f .LASF70
/var/folders/rt/4gvqv631095f64jvm7jfj_000000gn/T//ccewYGLi.s:3304   .debug_str:0000000000000228 .LASF71
/var/folders/rt/4gvqv631095f64jvm7jfj_000000gn/T//ccewYGLi.s:3442   .debug_str:00000000000004f7 .LASF72
/var/folders/rt/4gvqv631095f64jvm7jfj_000000gn/T//ccewYGLi.s:3208   .debug_str:0000000000000026 .LASF73
/var/folders/rt/4gvqv631095f64jvm7jfj_000000gn/T//ccewYGLi.s:3452   .debug_str:000000000000051d .LASF74
/var/folders/rt/4gvqv631095f64jvm7jfj_000000gn/T//ccewYGLi.s:3448   .debug_str:000000000000050b .LASF75
/var/folders/rt/4gvqv631095f64jvm7jfj_000000gn/T//ccewYGLi.s:3388   .debug_str:00000000000003e0 .LASF76
GAS LISTING /var/folders/rt/4gvqv631095f64jvm7jfj_000000gn/T//ccewYGLi.s 			page 11


/var/folders/rt/4gvqv631095f64jvm7jfj_000000gn/T//ccewYGLi.s:3450   .debug_str:0000000000000513 .LASF77
/var/folders/rt/4gvqv631095f64jvm7jfj_000000gn/T//ccewYGLi.s:3344   .debug_str:00000000000002f7 .LASF78
/var/folders/rt/4gvqv631095f64jvm7jfj_000000gn/T//ccewYGLi.s:3280   .debug_str:00000000000001a4 .LASF79
/var/folders/rt/4gvqv631095f64jvm7jfj_000000gn/T//ccewYGLi.s:3562   .debug_str:0000000000000807 .LASF80
/var/folders/rt/4gvqv631095f64jvm7jfj_000000gn/T//ccewYGLi.s:3400   .debug_str:0000000000000426 .LASF81
/var/folders/rt/4gvqv631095f64jvm7jfj_000000gn/T//ccewYGLi.s:3320   .debug_str:0000000000000267 .LASF82
/var/folders/rt/4gvqv631095f64jvm7jfj_000000gn/T//ccewYGLi.s:3284   .debug_str:00000000000001bc .LASF83
/var/folders/rt/4gvqv631095f64jvm7jfj_000000gn/T//ccewYGLi.s:3352   .debug_str:0000000000000313 .LASF84
/var/folders/rt/4gvqv631095f64jvm7jfj_000000gn/T//ccewYGLi.s:3216   .debug_str:000000000000004d .LASF85
/var/folders/rt/4gvqv631095f64jvm7jfj_000000gn/T//ccewYGLi.s:3542   .debug_str:00000000000007a0 .LASF86
/var/folders/rt/4gvqv631095f64jvm7jfj_000000gn/T//ccewYGLi.s:3268   .debug_str:0000000000000168 .LASF87
/var/folders/rt/4gvqv631095f64jvm7jfj_000000gn/T//ccewYGLi.s:3260   .debug_str:0000000000000145 .LASF88
/var/folders/rt/4gvqv631095f64jvm7jfj_000000gn/T//ccewYGLi.s:3478   .debug_str:00000000000005a1 .LASF89
/var/folders/rt/4gvqv631095f64jvm7jfj_000000gn/T//ccewYGLi.s:3428   .debug_str:00000000000004ab .LASF90
/var/folders/rt/4gvqv631095f64jvm7jfj_000000gn/T//ccewYGLi.s:3534   .debug_str:000000000000077c .LASF91
/var/folders/rt/4gvqv631095f64jvm7jfj_000000gn/T//ccewYGLi.s:3334   .debug_str:00000000000002ae .LASF92
/var/folders/rt/4gvqv631095f64jvm7jfj_000000gn/T//ccewYGLi.s:3414   .debug_str:0000000000000473 .LASF93
/var/folders/rt/4gvqv631095f64jvm7jfj_000000gn/T//ccewYGLi.s:3206   .debug_str:000000000000001e .LASF94
/var/folders/rt/4gvqv631095f64jvm7jfj_000000gn/T//ccewYGLi.s:3460   .debug_str:0000000000000559 .LASF95
/var/folders/rt/4gvqv631095f64jvm7jfj_000000gn/T//ccewYGLi.s:3358   .debug_str:0000000000000328 .LASF96
/var/folders/rt/4gvqv631095f64jvm7jfj_000000gn/T//ccewYGLi.s:3510   .debug_str:00000000000006f3 .LASF97
/var/folders/rt/4gvqv631095f64jvm7jfj_000000gn/T//ccewYGLi.s:3526   .debug_str:000000000000074c .LASF98
/var/folders/rt/4gvqv631095f64jvm7jfj_000000gn/T//ccewYGLi.s:3292   .debug_str:00000000000001eb .LASF99
/var/folders/rt/4gvqv631095f64jvm7jfj_000000gn/T//ccewYGLi.s:3342   .debug_str:00000000000002ea .LASF100
/var/folders/rt/4gvqv631095f64jvm7jfj_000000gn/T//ccewYGLi.s:3550   .debug_str:00000000000007c3 .LASF101
/var/folders/rt/4gvqv631095f64jvm7jfj_000000gn/T//ccewYGLi.s:3390   .debug_str:00000000000003eb .LASF102
/var/folders/rt/4gvqv631095f64jvm7jfj_000000gn/T//ccewYGLi.s:3338   .debug_str:00000000000002d3 .LASF103
/var/folders/rt/4gvqv631095f64jvm7jfj_000000gn/T//ccewYGLi.s:3554   .debug_str:00000000000007db .LASF104
/var/folders/rt/4gvqv631095f64jvm7jfj_000000gn/T//ccewYGLi.s:3386   .debug_str:00000000000003d3 .LASF105
/var/folders/rt/4gvqv631095f64jvm7jfj_000000gn/T//ccewYGLi.s:3560   .debug_str:00000000000007f9 .LASF106
/var/folders/rt/4gvqv631095f64jvm7jfj_000000gn/T//ccewYGLi.s:3238   .debug_str:00000000000000e2 .LASF107
/var/folders/rt/4gvqv631095f64jvm7jfj_000000gn/T//ccewYGLi.s:3538   .debug_str:000000000000078b .LASF108
/var/folders/rt/4gvqv631095f64jvm7jfj_000000gn/T//ccewYGLi.s:3340   .debug_str:00000000000002de .LASF109
/var/folders/rt/4gvqv631095f64jvm7jfj_000000gn/T//ccewYGLi.s:3516   .debug_str:0000000000000707 .LASF110
/var/folders/rt/4gvqv631095f64jvm7jfj_000000gn/T//ccewYGLi.s:3294   .debug_str:00000000000001f8 .LASF111
/var/folders/rt/4gvqv631095f64jvm7jfj_000000gn/T//ccewYGLi.s:3518   .debug_str:0000000000000714 .LASF112
/var/folders/rt/4gvqv631095f64jvm7jfj_000000gn/T//ccewYGLi.s:3290   .debug_str:00000000000001da .LASF113
/var/folders/rt/4gvqv631095f64jvm7jfj_000000gn/T//ccewYGLi.s:3220   .debug_str:000000000000005f .LASF114
/var/folders/rt/4gvqv631095f64jvm7jfj_000000gn/T//ccewYGLi.s:3222   .debug_str:000000000000006e .LASF115
/var/folders/rt/4gvqv631095f64jvm7jfj_000000gn/T//ccewYGLi.s:3416   .debug_str:0000000000000479 .LASF116
/var/folders/rt/4gvqv631095f64jvm7jfj_000000gn/T//ccewYGLi.s:3348   .debug_str:0000000000000305 .LASF117
/var/folders/rt/4gvqv631095f64jvm7jfj_000000gn/T//ccewYGLi.s:3370   .debug_str:0000000000000369 .LASF118
/var/folders/rt/4gvqv631095f64jvm7jfj_000000gn/T//ccewYGLi.s:3546   .debug_str:00000000000007b0 .LASF119
/var/folders/rt/4gvqv631095f64jvm7jfj_000000gn/T//ccewYGLi.s:3230   .debug_str:00000000000000a9 .LASF185
/var/folders/rt/4gvqv631095f64jvm7jfj_000000gn/T//ccewYGLi.s:3302   .debug_str:000000000000021c .LASF121
/var/folders/rt/4gvqv631095f64jvm7jfj_000000gn/T//ccewYGLi.s:3522   .debug_str:0000000000000730 .LASF122
/var/folders/rt/4gvqv631095f64jvm7jfj_000000gn/T//ccewYGLi.s:3356   .debug_str:000000000000031e .LASF123
/var/folders/rt/4gvqv631095f64jvm7jfj_000000gn/T//ccewYGLi.s:3224   .debug_str:000000000000007f .LASF124
/var/folders/rt/4gvqv631095f64jvm7jfj_000000gn/T//ccewYGLi.s:3446   .debug_str:0000000000000501 .LASF125
/var/folders/rt/4gvqv631095f64jvm7jfj_000000gn/T//ccewYGLi.s:3228   .debug_str:00000000000000a1 .LASF126
/var/folders/rt/4gvqv631095f64jvm7jfj_000000gn/T//ccewYGLi.s:3438   .debug_str:00000000000004dd .LASF127
/var/folders/rt/4gvqv631095f64jvm7jfj_000000gn/T//ccewYGLi.s:3330   .debug_str:00000000000002a3 .LASF128
/var/folders/rt/4gvqv631095f64jvm7jfj_000000gn/T//ccewYGLi.s:3288   .debug_str:00000000000001cc .LASF129
/var/folders/rt/4gvqv631095f64jvm7jfj_000000gn/T//ccewYGLi.s:3252   .debug_str:0000000000000126 .LASF130
/var/folders/rt/4gvqv631095f64jvm7jfj_000000gn/T//ccewYGLi.s:3310   .debug_str:000000000000023e .LASF131
/var/folders/rt/4gvqv631095f64jvm7jfj_000000gn/T//ccewYGLi.s:3378   .debug_str:0000000000000396 .LASF132
/var/folders/rt/4gvqv631095f64jvm7jfj_000000gn/T//ccewYGLi.s:3272   .debug_str:000000000000017a .LASF133
GAS LISTING /var/folders/rt/4gvqv631095f64jvm7jfj_000000gn/T//ccewYGLi.s 			page 12


/var/folders/rt/4gvqv631095f64jvm7jfj_000000gn/T//ccewYGLi.s:3328   .debug_str:000000000000028e .LASF134
/var/folders/rt/4gvqv631095f64jvm7jfj_000000gn/T//ccewYGLi.s:3520   .debug_str:0000000000000723 .LASF135
/var/folders/rt/4gvqv631095f64jvm7jfj_000000gn/T//ccewYGLi.s:3214   .debug_str:0000000000000042 .LASF136
/var/folders/rt/4gvqv631095f64jvm7jfj_000000gn/T//ccewYGLi.s:3250   .debug_str:000000000000011a .LASF137
/var/folders/rt/4gvqv631095f64jvm7jfj_000000gn/T//ccewYGLi.s:3360   .debug_str:000000000000032e .LASF138
/var/folders/rt/4gvqv631095f64jvm7jfj_000000gn/T//ccewYGLi.s:3236   .debug_str:00000000000000cf .LASF139
/var/folders/rt/4gvqv631095f64jvm7jfj_000000gn/T//ccewYGLi.s:3454   .debug_str:0000000000000536 .LASF140
/var/folders/rt/4gvqv631095f64jvm7jfj_000000gn/T//ccewYGLi.s:3568   .debug_str:000000000000081a .LASF141
/var/folders/rt/4gvqv631095f64jvm7jfj_000000gn/T//ccewYGLi.s:3372   .debug_str:0000000000000372 .LASF142
/var/folders/rt/4gvqv631095f64jvm7jfj_000000gn/T//ccewYGLi.s:3234   .debug_str:00000000000000c2 .LASF143
/var/folders/rt/4gvqv631095f64jvm7jfj_000000gn/T//ccewYGLi.s:3540   .debug_str:0000000000000795 .LASF144
/var/folders/rt/4gvqv631095f64jvm7jfj_000000gn/T//ccewYGLi.s:3532   .debug_str:0000000000000773 .LASF145
/var/folders/rt/4gvqv631095f64jvm7jfj_000000gn/T//ccewYGLi.s:3530   .debug_str:0000000000000769 .LASF146
/var/folders/rt/4gvqv631095f64jvm7jfj_000000gn/T//ccewYGLi.s:3486   .debug_str:00000000000005c2 .LASF147
/var/folders/rt/4gvqv631095f64jvm7jfj_000000gn/T//ccewYGLi.s:3496   .debug_str:00000000000005eb .LASF148
/var/folders/rt/4gvqv631095f64jvm7jfj_000000gn/T//ccewYGLi.s:3368   .debug_str:0000000000000361 .LASF149
/var/folders/rt/4gvqv631095f64jvm7jfj_000000gn/T//ccewYGLi.s:3408   .debug_str:0000000000000453 .LASF150
/var/folders/rt/4gvqv631095f64jvm7jfj_000000gn/T//ccewYGLi.s:3508   .debug_str:00000000000006eb .LASF151
/var/folders/rt/4gvqv631095f64jvm7jfj_000000gn/T//ccewYGLi.s:3210   .debug_str:0000000000000031 .LASF152
/var/folders/rt/4gvqv631095f64jvm7jfj_000000gn/T//ccewYGLi.s:3402   .debug_str:0000000000000430 .LASF153
/var/folders/rt/4gvqv631095f64jvm7jfj_000000gn/T//ccewYGLi.s:3394   .debug_str:0000000000000403 .LASF154
/var/folders/rt/4gvqv631095f64jvm7jfj_000000gn/T//ccewYGLi.s:3374   .debug_str:000000000000037e .LASF155
/var/folders/rt/4gvqv631095f64jvm7jfj_000000gn/T//ccewYGLi.s:3564   .debug_str:000000000000080c .LASF186
/var/folders/rt/4gvqv631095f64jvm7jfj_000000gn/T//ccewYGLi.s:14     .text.startup.main:0000000000000000 .LFB6
/var/folders/rt/4gvqv631095f64jvm7jfj_000000gn/T//ccewYGLi.s:233    .text.startup.main:00000000000001ae .LFE6
/var/folders/rt/4gvqv631095f64jvm7jfj_000000gn/T//ccewYGLi.s:3121   .debug_loc:0000000000000000 .LLST0
/var/folders/rt/4gvqv631095f64jvm7jfj_000000gn/T//ccewYGLi.s:3139   .debug_loc:000000000000002e .LLST1
/var/folders/rt/4gvqv631095f64jvm7jfj_000000gn/T//ccewYGLi.s:3396   .debug_str:0000000000000411 .LASF156
/var/folders/rt/4gvqv631095f64jvm7jfj_000000gn/T//ccewYGLi.s:3162   .debug_loc:0000000000000066 .LLST2
/var/folders/rt/4gvqv631095f64jvm7jfj_000000gn/T//ccewYGLi.s:3406   .debug_str:0000000000000448 .LASF157
/var/folders/rt/4gvqv631095f64jvm7jfj_000000gn/T//ccewYGLi.s:3362   .debug_str:0000000000000346 .LASF158
/var/folders/rt/4gvqv631095f64jvm7jfj_000000gn/T//ccewYGLi.s:3436   .debug_str:00000000000004ce .LASF159
/var/folders/rt/4gvqv631095f64jvm7jfj_000000gn/T//ccewYGLi.s:61     .text.startup.main:0000000000000048 .LVL1
/var/folders/rt/4gvqv631095f64jvm7jfj_000000gn/T//ccewYGLi.s:64     .text.startup.main:0000000000000050 .LVL2
/var/folders/rt/4gvqv631095f64jvm7jfj_000000gn/T//ccewYGLi.s:67     .text.startup.main:0000000000000058 .LVL3
/var/folders/rt/4gvqv631095f64jvm7jfj_000000gn/T//ccewYGLi.s:70     .text.startup.main:0000000000000060 .LVL4
/var/folders/rt/4gvqv631095f64jvm7jfj_000000gn/T//ccewYGLi.s:74     .text.startup.main:000000000000006a .LVL5
/var/folders/rt/4gvqv631095f64jvm7jfj_000000gn/T//ccewYGLi.s:78     .text.startup.main:0000000000000074 .LVL6
/var/folders/rt/4gvqv631095f64jvm7jfj_000000gn/T//ccewYGLi.s:81     .text.startup.main:000000000000007c .LVL7
/var/folders/rt/4gvqv631095f64jvm7jfj_000000gn/T//ccewYGLi.s:89     .text.startup.main:0000000000000092 .LVL8
/var/folders/rt/4gvqv631095f64jvm7jfj_000000gn/T//ccewYGLi.s:92     .text.startup.main:000000000000009a .LVL9
/var/folders/rt/4gvqv631095f64jvm7jfj_000000gn/T//ccewYGLi.s:96     .text.startup.main:00000000000000a4 .LVL10
/var/folders/rt/4gvqv631095f64jvm7jfj_000000gn/T//ccewYGLi.s:100    .text.startup.main:00000000000000ae .LVL11
/var/folders/rt/4gvqv631095f64jvm7jfj_000000gn/T//ccewYGLi.s:103    .text.startup.main:00000000000000b6 .LVL12
/var/folders/rt/4gvqv631095f64jvm7jfj_000000gn/T//ccewYGLi.s:107    .text.startup.main:00000000000000c0 .LVL13
/var/folders/rt/4gvqv631095f64jvm7jfj_000000gn/T//ccewYGLi.s:116    .text.startup.main:00000000000000da .LVL14
/var/folders/rt/4gvqv631095f64jvm7jfj_000000gn/T//ccewYGLi.s:121    .text.startup.main:00000000000000ea .LVL15
/var/folders/rt/4gvqv631095f64jvm7jfj_000000gn/T//ccewYGLi.s:165    .text.startup.main:0000000000000132 .LVL18
/var/folders/rt/4gvqv631095f64jvm7jfj_000000gn/T//ccewYGLi.s:170    .text.startup.main:000000000000013a .LVL19
/var/folders/rt/4gvqv631095f64jvm7jfj_000000gn/T//ccewYGLi.s:175    .text.startup.main:0000000000000144 .LVL20
/var/folders/rt/4gvqv631095f64jvm7jfj_000000gn/T//ccewYGLi.s:177    .text.startup.main:000000000000014c .LVL21
/var/folders/rt/4gvqv631095f64jvm7jfj_000000gn/T//ccewYGLi.s:192    .text.startup.main:0000000000000160 .LVL24
/var/folders/rt/4gvqv631095f64jvm7jfj_000000gn/T//ccewYGLi.s:201    .text.startup.main:0000000000000170 .LVL25
/var/folders/rt/4gvqv631095f64jvm7jfj_000000gn/T//ccewYGLi.s:207    .text.startup.main:000000000000017c .LVL26
/var/folders/rt/4gvqv631095f64jvm7jfj_000000gn/T//ccewYGLi.s:214    .text.startup.main:000000000000018e .LVL27
/var/folders/rt/4gvqv631095f64jvm7jfj_000000gn/T//ccewYGLi.s:220    .text.startup.main:000000000000019c .LVL28
/var/folders/rt/4gvqv631095f64jvm7jfj_000000gn/T//ccewYGLi.s:225    .text.startup.main:00000000000001a8 .LVL29
GAS LISTING /var/folders/rt/4gvqv631095f64jvm7jfj_000000gn/T//ccewYGLi.s 			page 13


/var/folders/rt/4gvqv631095f64jvm7jfj_000000gn/T//ccewYGLi.s:3512   .debug_str:00000000000006f8 .LASF160
/var/folders/rt/4gvqv631095f64jvm7jfj_000000gn/T//ccewYGLi.s:3264   .debug_str:0000000000000158 .LASF161
/var/folders/rt/4gvqv631095f64jvm7jfj_000000gn/T//ccewYGLi.s:3410   .debug_str:000000000000045d .LASF162
/var/folders/rt/4gvqv631095f64jvm7jfj_000000gn/T//ccewYGLi.s:3212   .debug_str:000000000000003a .LASF163
/var/folders/rt/4gvqv631095f64jvm7jfj_000000gn/T//ccewYGLi.s:3556   .debug_str:00000000000007e0 .LASF164
/var/folders/rt/4gvqv631095f64jvm7jfj_000000gn/T//ccewYGLi.s:3440   .debug_str:00000000000004eb .LASF165
/var/folders/rt/4gvqv631095f64jvm7jfj_000000gn/T//ccewYGLi.s:3558   .debug_str:00000000000007f0 .LASF166
/var/folders/rt/4gvqv631095f64jvm7jfj_000000gn/T//ccewYGLi.s:3392   .debug_str:00000000000003fa .LASF167
/var/folders/rt/4gvqv631095f64jvm7jfj_000000gn/T//ccewYGLi.s:3232   .debug_str:00000000000000b4 .LASF168
/var/folders/rt/4gvqv631095f64jvm7jfj_000000gn/T//ccewYGLi.s:3528   .debug_str:0000000000000759 .LASF169
/var/folders/rt/4gvqv631095f64jvm7jfj_000000gn/T//ccewYGLi.s:3572   .debug_str:0000000000000832 .LASF170
/var/folders/rt/4gvqv631095f64jvm7jfj_000000gn/T//ccewYGLi.s:3336   .debug_str:00000000000002b5 .LASF171
/var/folders/rt/4gvqv631095f64jvm7jfj_000000gn/T//ccewYGLi.s:3270   .debug_str:0000000000000170 .LASF172
/var/folders/rt/4gvqv631095f64jvm7jfj_000000gn/T//ccewYGLi.s:3492   .debug_str:00000000000005d9 .LASF173
/var/folders/rt/4gvqv631095f64jvm7jfj_000000gn/T//ccewYGLi.s:3490   .debug_str:00000000000005d2 .LASF174
/var/folders/rt/4gvqv631095f64jvm7jfj_000000gn/T//ccewYGLi.s:3398   .debug_str:0000000000000416 .LASF175
/var/folders/rt/4gvqv631095f64jvm7jfj_000000gn/T//ccewYGLi.s:3426   .debug_str:00000000000004a4 .LASF176
/var/folders/rt/4gvqv631095f64jvm7jfj_000000gn/T//ccewYGLi.s:3242   .debug_str:00000000000000f9 .LASF177
/var/folders/rt/4gvqv631095f64jvm7jfj_000000gn/T//ccewYGLi.s:3488   .debug_str:00000000000005cb .LASF178
/var/folders/rt/4gvqv631095f64jvm7jfj_000000gn/T//ccewYGLi.s:3384   .debug_str:00000000000003c0 .LASF179
/var/folders/rt/4gvqv631095f64jvm7jfj_000000gn/T//ccewYGLi.s:3506   .debug_str:00000000000006d9 .LASF180
/var/folders/rt/4gvqv631095f64jvm7jfj_000000gn/T//ccewYGLi.s:3326   .debug_str:0000000000000287 .LASF181
/var/folders/rt/4gvqv631095f64jvm7jfj_000000gn/T//ccewYGLi.s:23     .text.startup.main:0000000000000004 .LCFI0
/var/folders/rt/4gvqv631095f64jvm7jfj_000000gn/T//ccewYGLi.s:45     .text.startup.main:000000000000002a .LCFI1
/var/folders/rt/4gvqv631095f64jvm7jfj_000000gn/T//ccewYGLi.s:19     .text.startup.main:0000000000000000 .LVL0
/var/folders/rt/4gvqv631095f64jvm7jfj_000000gn/T//ccewYGLi.s:149    .text.startup.main:000000000000011c .LVL16
/var/folders/rt/4gvqv631095f64jvm7jfj_000000gn/T//ccewYGLi.s:179    .text.startup.main:000000000000014e .LVL22
/var/folders/rt/4gvqv631095f64jvm7jfj_000000gn/T//ccewYGLi.s:187    .text.startup.main:0000000000000156 .LVL23
/var/folders/rt/4gvqv631095f64jvm7jfj_000000gn/T//ccewYGLi.s:264    .debug_info:0000000000000000 .Ldebug_info0

UNDEFINED SYMBOLS
t5omsi
colinit
l88init
rtcInit
rtc_counter_set
Lcd_SetType
Lcd_Init
LCD_Fill
MAX31865_Init
ADC3powerUpInit
u0init
eclic_global_interrupt_enable
LCD_Clear
LCD_ShowStr
putstr
commandBufferIndex
receiveCommands
t5expq
colset
l88row
oneMinuteHasPassed
applyGreenFingers
l88mem
