GAS LISTING /var/folders/rt/4gvqv631095f64jvm7jfj_000000gn/T//ccWH204O.s 			page 1


   1              		.file	"main.c"
   2              		.option nopic
   3              		.attribute arch, "rv32i2p0_m2p0_a2p0_c2p0"
   4              		.attribute unaligned_access, 0
   5              		.attribute stack_align, 16
   6              		.text
   7              	.Ltext0:
   8              		.cfi_sections	.debug_frame
   9              		.section	.text.startup.main,"ax",@progbits
  10              		.align	1
  11              		.globl	main
  13              	main:
  14              	.LFB6:
  15              		.file 1 "main.c"
   1:main.c        **** #include "gd32vf103.h"
   2:main.c        **** #include "drivers.h"
   3:main.c        **** #include "adc.h"
   4:main.c        **** #include "lcd.h"
   5:main.c        **** #include "menu.h"
   6:main.c        **** #include "plant.h"
   7:main.c        **** #include "utilities.h"
   8:main.c        **** #include "usart.h"
   9:main.c        **** #include <string.h>
  10:main.c        **** #include <stdio.h>
  11:main.c        **** #include "renderPlants.h"
  12:main.c        **** #include "wifiServices.h"
  13:main.c        **** 
  14:main.c        **** #define TIMEOUT_mins 1
  15:main.c        **** #define TIMOUT_ms (TIMEOUT_mins * 60000)
  16:main.c        **** 
  17:main.c        **** #define MAXIMUM_NUMBER_OF_PLANTS 3
  18:main.c        **** #define STR_COPY(dest, src) \
  19:main.c        ****   snprintf(dest, sizeof(dest), "%s", src) // AI. STR_COPY är en genväg för snprintf som i sin tu
  20:main.c        **** 
  21:main.c        **** int main(void)
  22:main.c        **** {
  16              		.loc 1 22 1
  17              		.cfi_startproc
  23:main.c        ****   int ms = 0, s = 0, key, pKey = -1, c = 0, idle = 0, rtc, hh, mm, ss;
  18              		.loc 1 23 3
  19              	.LVL0:
  24:main.c        ****   int lookUpTbl[16] = {1, 4, 7, 14, 2, 5, 8, 0, 3, 6, 9, 15, 10, 11, 12, 13};
  20              		.loc 1 24 3
  22:main.c        ****   int ms = 0, s = 0, key, pKey = -1, c = 0, idle = 0, rtc, hh, mm, ss;
  21              		.loc 1 22 1 is_stmt 0
  22 0000 13010181 		addi	sp,sp,-2032
  23              	.LCFI0:
  24              		.cfi_def_cfa_offset 2032
  25 0004 2326117E 		sw	ra,2028(sp)
  26 0008 2324817E 		sw	s0,2024(sp)
  27 000c 2322917E 		sw	s1,2020(sp)
  28 0010 2320217F 		sw	s2,2016(sp)
  29 0014 232E317D 		sw	s3,2012(sp)
  30              		.cfi_offset 1, -4
  31              		.cfi_offset 8, -8
  32              		.cfi_offset 9, -12
  33              		.cfi_offset 18, -16
GAS LISTING /var/folders/rt/4gvqv631095f64jvm7jfj_000000gn/T//ccWH204O.s 			page 2


  34              		.cfi_offset 19, -20
  35              		.loc 1 24 7
  36 0018 0569     		li	s2,4096
  22:main.c        ****   int ms = 0, s = 0, key, pKey = -1, c = 0, idle = 0, rtc, hh, mm, ss;
  37              		.loc 1 22 1
  38 001a 232C417D 		sw	s4,2008(sp)
  39 001e 232A517D 		sw	s5,2004(sp)
  40 0022 1301018F 		addi	sp,sp,-1808
  41              	.LCFI1:
  42              		.cfi_def_cfa_offset 3840
  43              		.cfi_offset 20, -24
  44              		.cfi_offset 21, -28
  45              		.loc 1 24 7
  46 0026 1408     		addi	a3,sp,16
  47 0028 130709ED 		addi	a4,s2,-304
  48 002c 3697     		add	a4,a4,a3
  49 002e FD77     		li	a5,-4096
  50 0030 BA97     		add	a5,a4,a5
  51 0032 B7050000 		lui	a1,%hi(.LANCHOR0)
  52 0036 13060004 		li	a2,64
  53 003a 93850500 		addi	a1,a1,%lo(.LANCHOR0)
  54 003e 13850715 		addi	a0,a5,336
  55 0042 3EC6     		sw	a5,12(sp)
  56 0044 97000000 		call	memcpy
  56      E7800000 
  57              	.LVL1:
  25:main.c        ****   int akey = 0;
  58              		.loc 1 25 3 is_stmt 1
  26:main.c        ****   int page = HOME;
  59              		.loc 1 26 3
  60              		.loc 1 26 7 is_stmt 0
  61 004c B247     		lw	a5,12(sp)
  27:main.c        ****   int nopress = 0;
  28:main.c        ****   int pointer = 13;
  62              		.loc 1 28 7
  63 004e 3247     		lw	a4,12(sp)
  29:main.c        **** 
  30:main.c        ****   int currentMin = 0;
  31:main.c        ****   Plant allPlants[MAXIMUM_NUMBER_OF_PLANTS];
  32:main.c        ****   int numberOfPlants = 0;
  33:main.c        **** 
  34:main.c        ****   // INITIERINGAR. RTCINIT OCH ADC3powerup har några förändringar vs original
  35:main.c        ****   t5omsi(); // Initialize timer5 1kHz
  36:main.c        ****   colinit();
  37:main.c        ****   l88init();
  38:main.c        ****   keyinit();
  39:main.c        ****   rtcInit();
  40:main.c        ****   rtc_counter_set(0);
  41:main.c        **** 
  42:main.c        ****   Lcd_SetType(LCD_INVERTED);
  43:main.c        ****   Lcd_Init();
  44:main.c        ****   LCD_Clear(BLACK);
  45:main.c        ****   LCD_ShowStr(10, 10, "Bullshit sir", WHITE, TRANSPARENT);
  46:main.c        **** 
  47:main.c        ****   MAX31865_Init();    // Init Jocke temp-sensor
  48:main.c        ****   ADC3powerUpInit(0); // Initialize ADC0, Ch3
  49:main.c        ****   u0init(1);          // Init WiFi över UART
GAS LISTING /var/folders/rt/4gvqv631095f64jvm7jfj_000000gn/T//ccWH204O.s 			page 3


  50:main.c        ****   eclic_global_interrupt_enable();
  51:main.c        **** 
  52:main.c        ****   putstr("System online");
  53:main.c        **** 
  54:main.c        ****   while (1)
  55:main.c        ****   {
  56:main.c        ****     idle++;
  57:main.c        ****     LCD_WR_Queue();   
  58:main.c        ****     // DENNA AKTIVERAR RX WIFI
  59:main.c        ****     if (commandBufferIndex > 0)
  60:main.c        ****       receiveCommands(allPlants, &numberOfPlants);
  64              		.loc 1 60 7
  65 0050 7D74     		li	s0,-4096
  26:main.c        ****   int nopress = 0;
  66              		.loc 1 26 7
  67 0052 23AE0712 		sw	zero,316(a5)
  27:main.c        ****   int nopress = 0;
  68              		.loc 1 27 3 is_stmt 1
  27:main.c        ****   int nopress = 0;
  69              		.loc 1 27 7 is_stmt 0
  70 0056 23A00714 		sw	zero,320(a5)
  28:main.c        **** 
  71              		.loc 1 28 3 is_stmt 1
  28:main.c        **** 
  72              		.loc 1 28 7 is_stmt 0
  73 005a B547     		li	a5,13
  74 005c 2322F714 		sw	a5,324(a4)
  30:main.c        ****   Plant allPlants[MAXIMUM_NUMBER_OF_PLANTS];
  75              		.loc 1 30 3 is_stmt 1
  30:main.c        ****   Plant allPlants[MAXIMUM_NUMBER_OF_PLANTS];
  76              		.loc 1 30 7 is_stmt 0
  77 0060 23240714 		sw	zero,328(a4)
  31:main.c        ****   int numberOfPlants = 0;
  78              		.loc 1 31 3 is_stmt 1
  32:main.c        **** 
  79              		.loc 1 32 3
  32:main.c        **** 
  80              		.loc 1 32 7 is_stmt 0
  81 0064 23260714 		sw	zero,332(a4)
  35:main.c        ****   colinit();
  82              		.loc 1 35 3 is_stmt 1
  83 0068 97000000 		call	t5omsi
  83      E7800000 
  84              	.LVL2:
  36:main.c        ****   l88init();
  85              		.loc 1 36 3
  86 0070 97000000 		call	colinit
  86      E7800000 
  87              	.LVL3:
  37:main.c        ****   keyinit();
  88              		.loc 1 37 3
  89 0078 97000000 		call	l88init
  89      E7800000 
  90              	.LVL4:
  38:main.c        ****   rtcInit();
  91              		.loc 1 38 3
  92 0080 97000000 		call	keyinit
GAS LISTING /var/folders/rt/4gvqv631095f64jvm7jfj_000000gn/T//ccWH204O.s 			page 4


  92      E7800000 
  93              	.LVL5:
  39:main.c        ****   rtc_counter_set(0);
  94              		.loc 1 39 3
  95 0088 97000000 		call	rtcInit
  95      E7800000 
  96              	.LVL6:
  40:main.c        **** 
  97              		.loc 1 40 3
  98 0090 0145     		li	a0,0
  99 0092 97000000 		call	rtc_counter_set
  99      E7800000 
 100              	.LVL7:
  42:main.c        ****   Lcd_Init();
 101              		.loc 1 42 3
 102 009a 0545     		li	a0,1
 103 009c 97000000 		call	Lcd_SetType
 103      E7800000 
 104              	.LVL8:
  43:main.c        ****   LCD_Clear(BLACK);
 105              		.loc 1 43 3
 106 00a4 97000000 		call	Lcd_Init
 106      E7800000 
 107              	.LVL9:
  44:main.c        ****   LCD_ShowStr(10, 10, "Bullshit sir", WHITE, TRANSPARENT);
 108              		.loc 1 44 3
 109 00ac 0145     		li	a0,0
 110 00ae 97000000 		call	LCD_Clear
 110      E7800000 
 111              	.LVL10:
  45:main.c        **** 
 112              		.loc 1 45 3
 113 00b6 C166     		li	a3,65536
 114 00b8 37060000 		lui	a2,%hi(.LC1)
 115 00bc 0547     		li	a4,1
 116 00be FD16     		addi	a3,a3,-1
 117 00c0 13060600 		addi	a2,a2,%lo(.LC1)
 118 00c4 A945     		li	a1,10
 119 00c6 2945     		li	a0,10
 120 00c8 97000000 		call	LCD_ShowStr
 120      E7800000 
 121              	.LVL11:
  47:main.c        ****   ADC3powerUpInit(0); // Initialize ADC0, Ch3
 122              		.loc 1 47 3
 123 00d0 97000000 		call	MAX31865_Init
 123      E7800000 
 124              	.LVL12:
  48:main.c        ****   u0init(1);          // Init WiFi över UART
 125              		.loc 1 48 3
 126 00d8 0145     		li	a0,0
 127 00da 97000000 		call	ADC3powerUpInit
 127      E7800000 
 128              	.LVL13:
  49:main.c        ****   eclic_global_interrupt_enable();
 129              		.loc 1 49 3
 130 00e2 0545     		li	a0,1
 131 00e4 97000000 		call	u0init
GAS LISTING /var/folders/rt/4gvqv631095f64jvm7jfj_000000gn/T//ccWH204O.s 			page 5


 131      E7800000 
 132              	.LVL14:
  50:main.c        **** 
 133              		.loc 1 50 3
 134 00ec 97000000 		call	eclic_global_interrupt_enable
 134      E7800000 
 135              	.LVL15:
  52:main.c        **** 
 136              		.loc 1 52 3
 137 00f4 37050000 		lui	a0,%hi(.LC2)
 138 00f8 13050500 		addi	a0,a0,%lo(.LC2)
 139 00fc 97000000 		call	putstr
 139      E7800000 
 140              	.LVL16:
 141              		.loc 1 60 7 is_stmt 0
 142 0104 CA87     		mv	a5,s2
 143 0106 130709ED 		addi	a4,s2,-304
 144 010a 1408     		addi	a3,sp,16
 145 010c 938707ED 		addi	a5,a5,-304
 146 0110 130AC414 		addi	s4,s0,332
 147 0114 3697     		add	a4,a4,a3
 148 0116 13090419 		addi	s2,s0,400
 149 011a B697     		add	a5,a5,a3
  23:main.c        ****   int lookUpTbl[16] = {1, 4, 7, 14, 2, 5, 8, 0, 3, 6, 9, 15, 10, 11, 12, 13};
 150              		.loc 1 23 45
 151 011c 8144     		li	s1,0
  23:main.c        ****   int lookUpTbl[16] = {1, 4, 7, 14, 2, 5, 8, 0, 3, 6, 9, 15, 10, 11, 12, 13};
 152              		.loc 1 23 7
 153 011e 8149     		li	s3,0
  59:main.c        ****       receiveCommands(allPlants, &numberOfPlants);
 154              		.loc 1 59 28
 155 0120 B70A0000 		lui	s5,%hi(commandBufferIndex)
 156              		.loc 1 60 7
 157 0124 3A9A     		add	s4,a4,s4
 158 0126 3E99     		add	s2,a5,s2
 159              	.LVL17:
 160              	.L4:
  54:main.c        ****   {
 161              		.loc 1 54 3 is_stmt 1
  56:main.c        ****     LCD_WR_Queue();   
 162              		.loc 1 56 5
  57:main.c        ****     // DENNA AKTIVERAR RX WIFI
 163              		.loc 1 57 5 is_stmt 0
 164 0128 97000000 		call	LCD_WR_Queue
 164      E7800000 
 165              	.LVL18:
  59:main.c        ****       receiveCommands(allPlants, &numberOfPlants);
 166              		.loc 1 59 28
 167 0130 83A70A00 		lw	a5,%lo(commandBufferIndex)(s5)
  56:main.c        ****     LCD_WR_Queue();   
 168              		.loc 1 56 9
 169 0134 8504     		addi	s1,s1,1
 170              	.LVL19:
  57:main.c        ****     // DENNA AKTIVERAR RX WIFI
 171              		.loc 1 57 5 is_stmt 1
  59:main.c        ****       receiveCommands(allPlants, &numberOfPlants);
 172              		.loc 1 59 5
GAS LISTING /var/folders/rt/4gvqv631095f64jvm7jfj_000000gn/T//ccWH204O.s 			page 6


  59:main.c        ****       receiveCommands(allPlants, &numberOfPlants);
 173              		.loc 1 59 8 is_stmt 0
 174 0136 6358F000 		ble	a5,zero,.L3
 175              		.loc 1 60 7 is_stmt 1
 176 013a D285     		mv	a1,s4
 177 013c 4A85     		mv	a0,s2
 178 013e 97000000 		call	receiveCommands
 178      E7800000 
 179              	.LVL20:
 180              	.L3:
  61:main.c        **** 
  62:main.c        ****     if (t5expq())
 181              		.loc 1 62 5
 182              		.loc 1 62 9 is_stmt 0
 183 0146 97000000 		call	t5expq
 183      E7800000 
 184              	.LVL21:
 185              		.loc 1 62 8
 186 014e 69DD     		beq	a0,zero,.L4
  63:main.c        ****     {
  64:main.c        ****       l88row(colset());
 187              		.loc 1 64 7 is_stmt 1
 188 0150 97000000 		call	colset
 188      E7800000 
 189              	.LVL22:
 190 0158 97000000 		call	l88row
 190      E7800000 
 191              	.LVL23:
  65:main.c        ****       ms++;
 192              		.loc 1 65 7
 193              		.loc 1 65 9 is_stmt 0
 194 0160 8509     		addi	s3,s3,1
 195              	.LVL24:
  66:main.c        ****       if (ms == 1000)
 196              		.loc 1 66 7 is_stmt 1
 197              		.loc 1 66 10 is_stmt 0
 198 0162 9307803E 		li	a5,1000
 199 0166 639EF904 		bne	s3,a5,.L5
  67:main.c        ****       {
  68:main.c        ****         ms = 0;
 200              		.loc 1 68 9 is_stmt 1
 201              	.LVL25:
  69:main.c        ****         // DENNA KÖR CHECK AV SENSORER
  70:main.c        ****         if (oneMinuteHasPassed(&currentMin) && numberOfPlants)
 202              		.loc 1 70 9
 203              		.loc 1 70 13 is_stmt 0
 204 016a 8567     		li	a5,4096
 205 016c 938707ED 		addi	a5,a5,-304
 206 0170 1808     		addi	a4,sp,16
 207 0172 13058414 		addi	a0,s0,328
 208 0176 BA97     		add	a5,a5,a4
 209 0178 3E95     		add	a0,a5,a0
 210 017a 97000000 		call	oneMinuteHasPassed
 210      E7800000 
 211              	.LVL26:
 212              		.loc 1 70 12
 213 0182 0DC1     		beq	a0,zero,.L7
GAS LISTING /var/folders/rt/4gvqv631095f64jvm7jfj_000000gn/T//ccWH204O.s 			page 7


 214              		.loc 1 70 45 discriminator 1
 215 0184 B255     		lw	a1,44(sp)
 216 0186 99CD     		beq	a1,zero,.L7
  71:main.c        ****         {
  72:main.c        **** 
  73:main.c        ****           if (applyGreenFingers(allPlants, numberOfPlants))
 217              		.loc 1 73 11 is_stmt 1
 218              		.loc 1 73 15 is_stmt 0
 219 0188 4A85     		mv	a0,s2
 220 018a 97000000 		call	applyGreenFingers
 220      E7800000 
 221              	.LVL27:
 222              		.loc 1 73 14
 223 0192 09C9     		beq	a0,zero,.L7
  74:main.c        ****             putstr("Green fingers working");
 224              		.loc 1 74 13 is_stmt 1
 225 0194 37050000 		lui	a0,%hi(.LC3)
 226 0198 13050500 		addi	a0,a0,%lo(.LC3)
 227 019c 97000000 		call	putstr
 227      E7800000 
 228              	.LVL28:
 229              	.L7:
  75:main.c        ****         }
  76:main.c        **** 
  77:main.c        ****         l88mem(0, idle >> 8); // ...Performance monitor
 230              		.loc 1 77 9
 231 01a4 93D58440 		srai	a1,s1,8
 232 01a8 0145     		li	a0,0
 233 01aa 97000000 		call	l88mem
 233      E7800000 
 234              	.LVL29:
  78:main.c        ****         l88mem(1, idle);
 235              		.loc 1 78 9
 236 01b2 A685     		mv	a1,s1
 237 01b4 0545     		li	a0,1
 238 01b6 97000000 		call	l88mem
 238      E7800000 
 239              	.LVL30:
  79:main.c        ****         idle = 0;
 240              		.loc 1 79 9
 241              		.loc 1 79 14 is_stmt 0
 242 01be 8144     		li	s1,0
  68:main.c        ****         // DENNA KÖR CHECK AV SENSORER
 243              		.loc 1 68 12
 244 01c0 8149     		li	s3,0
 245              	.LVL31:
 246              	.L5:
  80:main.c        ****       }
  81:main.c        **** 
  82:main.c        ****        if ((key=keyscan())>=0) {  
 247              		.loc 1 82 8 is_stmt 1
 248              		.loc 1 82 17 is_stmt 0
 249 01c2 97000000 		call	keyscan
 249      E7800000 
 250              	.LVL32:
 251              		.loc 1 82 11
 252 01ca 63400504 		blt	a0,zero,.L9
GAS LISTING /var/folders/rt/4gvqv631095f64jvm7jfj_000000gn/T//ccWH204O.s 			page 8


  83:main.c        ****                 nopress=0;                  ///for a time out (no button pressed after x mins retur
 253              		.loc 1 83 17 is_stmt 1
  84:main.c        ****               //if (pKey==key) c++; else {c=0; pKey=key;}             
  85:main.c        ****               akey = lookUpTbl[key];
  86:main.c        ****               Buttonpressed(&page,akey,numberOfPlants,allPlants, &pointer);             
 254              		.loc 1 86 15 is_stmt 0
 255 01ce 0568     		li	a6,4096
  85:main.c        ****               Buttonpressed(&page,akey,numberOfPlants,allPlants, &pointer);             
 256              		.loc 1 85 20
 257 01d0 0A05     		slli	a0,a0,2
 258              	.LVL33:
 259 01d2 930701EE 		addi	a5,sp,-288
 260 01d6 AA97     		add	a5,a5,a0
 261              		.loc 1 86 15
 262 01d8 1008     		addi	a2,sp,16
 263 01da 930608ED 		addi	a3,a6,-304
 264 01de B296     		add	a3,a3,a2
 265 01e0 83A50715 		lw	a1,336(a5)
 266 01e4 3256     		lw	a2,44(sp)
 267 01e6 930708ED 		addi	a5,a6,-304
 268 01ea 13080101 		addi	a6,sp,16
 269 01ee 13074414 		addi	a4,s0,324
 270 01f2 1305C413 		addi	a0,s0,316
 271 01f6 C297     		add	a5,a5,a6
 272 01f8 3697     		add	a4,a3,a4
 273 01fa 3E95     		add	a0,a5,a0
 274 01fc CA86     		mv	a3,s2
  83:main.c        ****                 nopress=0;                  ///for a time out (no button pressed after x mins retur
 275              		.loc 1 83 24
 276 01fe 02D0     		sw	zero,32(sp)
  85:main.c        ****               Buttonpressed(&page,akey,numberOfPlants,allPlants, &pointer);             
 277              		.loc 1 85 15 is_stmt 1
 278              		.loc 1 86 15
 279 0200 97000000 		call	Buttonpressed
 279      E7800000 
 280              	.LVL34:
 281 0208 05B7     		j	.L4
 282              	.LVL35:
 283              	.L9:
  87:main.c        ****             }
  88:main.c        ****            else {
  89:main.c        ****             no_button_press(&page, &nopress);  
 284              		.loc 1 89 13
 285 020a 0567     		li	a4,4096
 286 020c 1408     		addi	a3,sp,16
 287 020e 930707ED 		addi	a5,a4,-304
 288 0212 B697     		add	a5,a5,a3
 289 0214 93050414 		addi	a1,s0,320
 290 0218 BE95     		add	a1,a5,a1
 291 021a 930707ED 		addi	a5,a4,-304
 292 021e 1305C413 		addi	a0,s0,316
 293              	.LVL36:
 294 0222 B697     		add	a5,a5,a3
 295 0224 3E95     		add	a0,a5,a0
 296 0226 97000000 		call	no_button_press
 296      E7800000 
 297              	.LVL37:
GAS LISTING /var/folders/rt/4gvqv631095f64jvm7jfj_000000gn/T//ccWH204O.s 			page 9


 298 022e EDBD     		j	.L4
 299              		.cfi_endproc
 300              	.LFE6:
 302              		.section	.rodata
 303              		.align	2
 304              		.set	.LANCHOR0,. + 0
 305              	.LC0:
 306 0000 01000000 		.word	1
 307 0004 04000000 		.word	4
 308 0008 07000000 		.word	7
 309 000c 0E000000 		.word	14
 310 0010 02000000 		.word	2
 311 0014 05000000 		.word	5
 312 0018 08000000 		.word	8
 313 001c 00000000 		.word	0
 314 0020 03000000 		.word	3
 315 0024 06000000 		.word	6
 316 0028 09000000 		.word	9
 317 002c 0F000000 		.word	15
 318 0030 0A000000 		.word	10
 319 0034 0B000000 		.word	11
 320 0038 0C000000 		.word	12
 321 003c 0D000000 		.word	13
 322              		.section	.rodata.main.str1.4,"aMS",@progbits,1
 323              		.align	2
 324              	.LC1:
 325 0000 42756C6C 		.string	"Bullshit sir"
 325      73686974 
 325      20736972 
 325      00
 326 000d 000000   		.zero	3
 327              	.LC2:
 328 0010 53797374 		.string	"System online"
 328      656D206F 
 328      6E6C696E 
 328      6500
 329 001e 0000     		.zero	2
 330              	.LC3:
 331 0020 47726565 		.string	"Green fingers working"
 331      6E206669 
 331      6E676572 
 331      7320776F 
 331      726B696E 
 332              		.text
 333              	.Letext0:
 334              		.file 2 "/Users/alexstrae/toolchain-gd32v-v202-osx/compiler/riscv64-unknown-elf/include/machine/_d
 335              		.file 3 "/Users/alexstrae/toolchain-gd32v-v202-osx/compiler/riscv64-unknown-elf/include/sys/_stdin
 336              		.file 4 "/Users/alexstrae/toolchain-gd32v-v202-osx/compiler/lib/gcc/riscv64-unknown-elf/8.3.0/incl
 337              		.file 5 "/Users/alexstrae/toolchain-gd32v-v202-osx/compiler/riscv64-unknown-elf/include/sys/_types
 338              		.file 6 "/Users/alexstrae/toolchain-gd32v-v202-osx/compiler/riscv64-unknown-elf/include/sys/reent.
 339              		.file 7 "/Users/alexstrae/toolchain-gd32v-v202-osx/compiler/riscv64-unknown-elf/include/sys/lock.h
 340              		.file 8 "../../firmware/GD32VF103_standard_peripheral/system_gd32vf103.h"
 341              		.file 9 "/Users/alexstrae/toolchain-gd32v-v202-osx/compiler/riscv64-unknown-elf/include/stdlib.h"
 342              		.file 10 "lcd.h"
 343              		.file 11 "plant.h"
 344              		.file 12 "usart.h"
 345              		.file 13 "drivers.h"
GAS LISTING /var/folders/rt/4gvqv631095f64jvm7jfj_000000gn/T//ccWH204O.s 			page 10


 346              		.file 14 "utilities.h"
 347              		.file 15 "../../firmware/GD32VF103_standard_peripheral/Include/gd32vf103_rtc.h"
 348              		.file 16 "adc.h"
 349              		.file 17 "../../firmware/GD32VF103_standard_peripheral/Include/gd32vf103_eclic.h"
 350              		.file 18 "wifiServices.h"
 351              		.file 19 "menu.h"
 352              		.file 20 "<built-in>"
GAS LISTING /var/folders/rt/4gvqv631095f64jvm7jfj_000000gn/T//ccWH204O.s 			page 11

