GAS LISTING /var/folders/rt/4gvqv631095f64jvm7jfj_000000gn/T//ccOmY9YB.s 			page 1


   1              		.file	"main.c"
   2              		.option nopic
   3              		.attribute arch, "rv32i2p0_m2p0_a2p0_c2p0"
   4              		.attribute unaligned_access, 0
   5              		.attribute stack_align, 16
   6              		.text
   7              	.Ltext0:
   8              		.cfi_sections	.debug_frame
   9              		.section	.text.renderAllPlants,"ax",@progbits
  10              		.align	1
  11              		.globl	renderAllPlants
  13              	renderAllPlants:
  14              	.LFB6:
  15              		.file 1 "main.c"
   1:main.c        **** #include "gd32vf103.h"
   2:main.c        **** #include "drivers.h"
   3:main.c        **** #include "adc.h"
   4:main.c        **** #include "lcd.h"
   5:main.c        **** #include "plant.h"
   6:main.c        **** #include "utilities.h"
   7:main.c        **** #include <string.h>
   8:main.c        **** #include <stdio.h>
   9:main.c        **** #define STR_COPY(dest, src) \
  10:main.c        ****   snprintf(dest, sizeof(dest), "%s", src) // AI. STR_COPY är en genväg för snprintf som i sin tu
  11:main.c        **** 
  12:main.c        **** #define EI 1
  13:main.c        **** #define DI 0
  14:main.c        **** 
  15:main.c        **** void renderAllPlants(Plant allPlants[], int numberOfPlants)
  16:main.c        **** {
  16              		.loc 1 16 1
  17              		.cfi_startproc
  18              	.LVL0:
  17:main.c        ****   for (int i = 0; i < numberOfPlants; i++)
  19              		.loc 1 17 3
  20              	.LBB2:
  21              		.loc 1 17 8
  22              	.LBE2:
  16:main.c        ****   for (int i = 0; i < numberOfPlants; i++)
  23              		.loc 1 16 1 is_stmt 0
  24 0000 7971     		addi	sp,sp,-48
  25              	.LCFI0:
  26              		.cfi_def_cfa_offset 48
  27 0002 26D2     		sw	s1,36(sp)
  28              		.cfi_offset 9, -12
  29              	.LBB3:
  18:main.c        ****   {
  19:main.c        ****     LCD_ShowStr(i * 55, 0, allPlants[i].name, WHITE, TRANSPARENT);
  30              		.loc 1 19 5
  31 0004 C164     		li	s1,65536
  32              	.LBE3:
  16:main.c        ****   for (int i = 0; i < numberOfPlants; i++)
  33              		.loc 1 16 1
  34 0006 22D4     		sw	s0,40(sp)
  35 0008 4ECE     		sw	s3,28(sp)
  36 000a 52CC     		sw	s4,24(sp)
  37 000c 5AC8     		sw	s6,16(sp)
GAS LISTING /var/folders/rt/4gvqv631095f64jvm7jfj_000000gn/T//ccOmY9YB.s 			page 2


  38 000e 5EC6     		sw	s7,12(sp)
  39 0010 06D6     		sw	ra,44(sp)
  40 0012 4AD0     		sw	s2,32(sp)
  41 0014 56CA     		sw	s5,20(sp)
  42              		.cfi_offset 8, -8
  43              		.cfi_offset 19, -20
  44              		.cfi_offset 20, -24
  45              		.cfi_offset 22, -32
  46              		.cfi_offset 23, -36
  47              		.cfi_offset 1, -4
  48              		.cfi_offset 18, -16
  49              		.cfi_offset 21, -28
  16:main.c        ****   for (int i = 0; i < numberOfPlants; i++)
  50              		.loc 1 16 1
  51 0016 2E8B     		mv	s6,a1
  52 0018 2A84     		mv	s0,a0
  53              	.LBB4:
  17:main.c        ****   {
  54              		.loc 1 17 12
  55 001a 014A     		li	s4,0
  56 001c 930B7003 		li	s7,55
  57              		.loc 1 19 5
  58 0020 FD14     		addi	s1,s1,-1
  20:main.c        ****     LCD_ShowNum(i * 55, 20, allPlants[i].moisture[allPlants[i].numberOfMoistureReadings].reading, 3
  21:main.c        ****     LCD_ShowStr(i * 55 + 30, 20, "%", WHITE, TRANSPARENT);
  59              		.loc 1 21 5
  60 0022 B7090000 		lui	s3,%hi(.LC0)
  61              	.LVL1:
  62              	.L2:
  17:main.c        ****   {
  63              		.loc 1 17 3 discriminator 1
  64 0026 634D6A01 		blt	s4,s6,.L3
  65              	.LBE4:
  22:main.c        ****     LCD_ShowNum(i * 55, 40, allPlants[i].sun[allPlants[i].numberOfSunReadings].reading, 3, WHITE);
  23:main.c        ****     LCD_ShowStr(i * 55 + 30, 40, "%", WHITE, TRANSPARENT);
  24:main.c        ****     LCD_ShowStr(i * 55, 60, allPlants[i].currentStatus, GBLUE, TRANSPARENT);
  25:main.c        ****   }
  26:main.c        **** }
  66              		.loc 1 26 1
  67 002a B250     		lw	ra,44(sp)
  68              		.cfi_remember_state
  69              		.cfi_restore 1
  70 002c 2254     		lw	s0,40(sp)
  71              		.cfi_restore 8
  72 002e 9254     		lw	s1,36(sp)
  73              		.cfi_restore 9
  74 0030 0259     		lw	s2,32(sp)
  75              		.cfi_restore 18
  76 0032 F249     		lw	s3,28(sp)
  77              		.cfi_restore 19
  78 0034 624A     		lw	s4,24(sp)
  79              		.cfi_restore 20
  80              	.LVL2:
  81 0036 D24A     		lw	s5,20(sp)
  82              		.cfi_restore 21
  83 0038 424B     		lw	s6,16(sp)
  84              		.cfi_restore 22
GAS LISTING /var/folders/rt/4gvqv631095f64jvm7jfj_000000gn/T//ccOmY9YB.s 			page 3


  85              	.LVL3:
  86 003a B24B     		lw	s7,12(sp)
  87              		.cfi_restore 23
  88 003c 4561     		addi	sp,sp,48
  89              	.LCFI1:
  90              		.cfi_def_cfa_offset 0
  91 003e 8280     		jr	ra
  92              	.LVL4:
  93              	.L3:
  94              	.LCFI2:
  95              		.cfi_restore_state
  96              	.LBB5:
  19:main.c        ****     LCD_ShowNum(i * 55, 20, allPlants[i].moisture[allPlants[i].numberOfMoistureReadings].reading, 3
  97              		.loc 1 19 5 is_stmt 1 discriminator 3
  98 0040 33097A03 		mul	s2,s4,s7
  99 0044 2286     		mv	a2,s0
 100 0046 0547     		li	a4,1
 101 0048 A686     		mv	a3,s1
 102 004a 8145     		li	a1,0
  17:main.c        ****   {
 103              		.loc 1 17 40 is_stmt 0 discriminator 3
 104 004c 050A     		addi	s4,s4,1
 105              	.LVL5:
  19:main.c        ****     LCD_ShowNum(i * 55, 20, allPlants[i].moisture[allPlants[i].numberOfMoistureReadings].reading, 3
 106              		.loc 1 19 5 discriminator 3
 107 004e 4A85     		mv	a0,s2
 108 0050 97000000 		call	LCD_ShowStr
 108      E7800000 
 109              	.LVL6:
  20:main.c        ****     LCD_ShowStr(i * 55 + 30, 20, "%", WHITE, TRANSPARENT);
 110              		.loc 1 20 5 is_stmt 1 discriminator 3
  20:main.c        ****     LCD_ShowStr(i * 55 + 30, 20, "%", WHITE, TRANSPARENT);
 111              		.loc 1 20 89 is_stmt 0 discriminator 3
 112 0058 83278461 		lw	a5,1560(s0)
  20:main.c        ****     LCD_ShowStr(i * 55 + 30, 20, "%", WHITE, TRANSPARENT);
 113              		.loc 1 20 5 discriminator 3
 114 005c 2687     		mv	a4,s1
 115 005e 8D46     		li	a3,3
  20:main.c        ****     LCD_ShowStr(i * 55 + 30, 20, "%", WHITE, TRANSPARENT);
 116              		.loc 1 20 89 discriminator 3
 117 0060 8507     		addi	a5,a5,1
 118 0062 9207     		slli	a5,a5,4
 119 0064 A297     		add	a5,s0,a5
  20:main.c        ****     LCD_ShowStr(i * 55 + 30, 20, "%", WHITE, TRANSPARENT);
 120              		.loc 1 20 5 discriminator 3
 121 0066 904B     		lw	a2,16(a5)
 122 0068 D145     		li	a1,20
 123 006a 4A85     		mv	a0,s2
 124 006c 97000000 		call	LCD_ShowNum
 124      E7800000 
 125              	.LVL7:
  21:main.c        ****     LCD_ShowNum(i * 55, 40, allPlants[i].sun[allPlants[i].numberOfSunReadings].reading, 3, WHITE);
 126              		.loc 1 21 5 is_stmt 1 discriminator 3
 127 0074 930AE901 		addi	s5,s2,30
 128 0078 0547     		li	a4,1
 129 007a A686     		mv	a3,s1
 130 007c 13860900 		addi	a2,s3,%lo(.LC0)
GAS LISTING /var/folders/rt/4gvqv631095f64jvm7jfj_000000gn/T//ccOmY9YB.s 			page 4


 131 0080 D145     		li	a1,20
 132 0082 5685     		mv	a0,s5
 133 0084 97000000 		call	LCD_ShowStr
 133      E7800000 
 134              	.LVL8:
  22:main.c        ****     LCD_ShowStr(i * 55 + 30, 40, "%", WHITE, TRANSPARENT);
 135              		.loc 1 22 5 discriminator 3
  22:main.c        ****     LCD_ShowStr(i * 55 + 30, 40, "%", WHITE, TRANSPARENT);
 136              		.loc 1 22 79 is_stmt 0 discriminator 3
 137 008c 83274461 		lw	a5,1556(s0)
  22:main.c        ****     LCD_ShowStr(i * 55 + 30, 40, "%", WHITE, TRANSPARENT);
 138              		.loc 1 22 5 discriminator 3
 139 0090 2687     		mv	a4,s1
 140 0092 8D46     		li	a3,3
  22:main.c        ****     LCD_ShowStr(i * 55 + 30, 40, "%", WHITE, TRANSPARENT);
 141              		.loc 1 22 79 discriminator 3
 142 0094 93871703 		addi	a5,a5,49
 143 0098 9207     		slli	a5,a5,4
 144 009a A297     		add	a5,s0,a5
  22:main.c        ****     LCD_ShowStr(i * 55 + 30, 40, "%", WHITE, TRANSPARENT);
 145              		.loc 1 22 5 discriminator 3
 146 009c 904B     		lw	a2,16(a5)
 147 009e 93058002 		li	a1,40
 148 00a2 4A85     		mv	a0,s2
 149 00a4 97000000 		call	LCD_ShowNum
 149      E7800000 
 150              	.LVL9:
  23:main.c        ****     LCD_ShowStr(i * 55, 60, allPlants[i].currentStatus, GBLUE, TRANSPARENT);
 151              		.loc 1 23 5 is_stmt 1 discriminator 3
 152 00ac 0547     		li	a4,1
 153 00ae A686     		mv	a3,s1
 154 00b0 13860900 		addi	a2,s3,%lo(.LC0)
 155 00b4 93058002 		li	a1,40
 156 00b8 5685     		mv	a0,s5
 157 00ba 97000000 		call	LCD_ShowStr
 157      E7800000 
 158              	.LVL10:
  24:main.c        ****   }
 159              		.loc 1 24 5 discriminator 3
 160 00c2 1306A400 		addi	a2,s0,10
 161 00c6 0547     		li	a4,1
 162 00c8 9306F07F 		li	a3,2047
 163 00cc 9305C003 		li	a1,60
 164 00d0 4A85     		mv	a0,s2
 165 00d2 97000000 		call	LCD_ShowStr
 165      E7800000 
 166              	.LVL11:
 167 00da 1304C461 		addi	s0,s0,1564
 168 00de A1B7     		j	.L2
 169              	.LBE5:
 170              		.cfi_endproc
 171              	.LFE6:
 173              		.section	.text.renderOnePlant,"ax",@progbits
 174              		.align	1
 175              		.globl	renderOnePlant
 177              	renderOnePlant:
 178              	.LFB7:
GAS LISTING /var/folders/rt/4gvqv631095f64jvm7jfj_000000gn/T//ccOmY9YB.s 			page 5


  27:main.c        **** 
  28:main.c        **** void renderOnePlant(Plant allPlants[], int numberOfPlants, char name[])
  29:main.c        **** {
 179              		.loc 1 29 1
 180              		.cfi_startproc
 181              	.LVL12:
  30:main.c        ****   for (int i = 0; i < numberOfPlants; i++)
 182              		.loc 1 30 3
 183              	.LBB6:
 184              		.loc 1 30 8
 185              	.LBE6:
  29:main.c        ****   for (int i = 0; i < numberOfPlants; i++)
 186              		.loc 1 29 1 is_stmt 0
 187 0000 7971     		addi	sp,sp,-48
 188              	.LCFI3:
 189              		.cfi_def_cfa_offset 48
 190 0002 26D2     		sw	s1,36(sp)
 191 0004 4AD0     		sw	s2,32(sp)
 192 0006 4ECE     		sw	s3,28(sp)
 193 0008 06D6     		sw	ra,44(sp)
 194 000a 22D4     		sw	s0,40(sp)
 195              		.cfi_offset 9, -12
 196              		.cfi_offset 18, -16
 197              		.cfi_offset 19, -20
 198              		.cfi_offset 1, -4
 199              		.cfi_offset 8, -8
  29:main.c        ****   for (int i = 0; i < numberOfPlants; i++)
 200              		.loc 1 29 1
 201 000c AE89     		mv	s3,a1
 202 000e AA84     		mv	s1,a0
 203              	.LBB7:
 204              		.loc 1 30 12
 205 0010 0149     		li	s2,0
 206              	.LVL13:
 207              	.L6:
 208              		.loc 1 30 3 discriminator 1
 209 0012 634E3901 		blt	s2,s3,.L8
 210              	.LBE7:
  31:main.c        ****   {
  32:main.c        ****     if (strcmp(allPlants[i].name, name) == 0)
  33:main.c        ****     {
  34:main.c        ****       LCD_ShowStr(0, 0, allPlants[i].name, WHITE, TRANSPARENT);
  35:main.c        ****       LCD_ShowNum(0, 20, allPlants[i].moisture[allPlants[i].numberOfMoistureReadings-1].reading, 3,
  36:main.c        ****       LCD_ShowStr(0 + 30, 20, "%", WHITE, TRANSPARENT);
  37:main.c        ****       LCD_ShowStr(50, 20, allPlants[i].moisture[allPlants[i].numberOfMoistureReadings-1].timeStamp,
  38:main.c        ****       LCD_ShowNum(0, 40, allPlants[i].sun[allPlants[i].numberOfSunReadings-1].reading, 3, WHITE);
  39:main.c        ****       LCD_ShowStr(0 + 30, 40, "%", WHITE, TRANSPARENT);
  40:main.c        ****       LCD_Fill(50, 40, 160, 53, BLACK); // Black out old reading before writing new
  41:main.c        ****       LCD_ShowStr(50, 40, allPlants[i].sun[allPlants[i].numberOfSunReadings-1].timeStamp, WHITE, TR
  42:main.c        ****       LCD_ShowStr(0, 60, allPlants[i].currentStatus, GBLUE, TRANSPARENT);
  43:main.c        ****       return;
  44:main.c        ****     }
  45:main.c        ****   }
  46:main.c        ****   LCD_ShowStr(50, 4, "NO SUCH PLANT", RED, TRANSPARENT);
 211              		.loc 1 46 3 is_stmt 1
 212 0016 C166     		li	a3,65536
 213 0018 37060000 		lui	a2,%hi(.LC1)
GAS LISTING /var/folders/rt/4gvqv631095f64jvm7jfj_000000gn/T//ccOmY9YB.s 			page 6


 214              	.LVL14:
 215 001c 0547     		li	a4,1
 216 001e 93860680 		addi	a3,a3,-2048
 217 0022 13060600 		addi	a2,a2,%lo(.LC1)
 218 0026 9145     		li	a1,4
 219 0028 13052003 		li	a0,50
 220 002c 29A2     		j	.L10
 221              	.LVL15:
 222              	.L8:
 223              	.LBB8:
  32:main.c        ****     {
 224              		.loc 1 32 5
  32:main.c        ****     {
 225              		.loc 1 32 9 is_stmt 0
 226 002e B285     		mv	a1,a2
 227 0030 2685     		mv	a0,s1
 228 0032 32C6     		sw	a2,12(sp)
 229 0034 97000000 		call	strcmp
 229      E7800000 
 230              	.LVL16:
  32:main.c        ****     {
 231              		.loc 1 32 25
 232 003c 2684     		mv	s0,s1
  32:main.c        ****     {
 233              		.loc 1 32 8
 234 003e 3246     		lw	a2,12(sp)
 235 0040 9384C461 		addi	s1,s1,1564
 236 0044 63130510 		bne	a0,zero,.L7
 237              	.LVL17:
  34:main.c        ****       LCD_ShowNum(0, 20, allPlants[i].moisture[allPlants[i].numberOfMoistureReadings-1].reading, 3,
 238              		.loc 1 34 7 is_stmt 1
 239 0048 C164     		li	s1,65536
 240 004a 0547     		li	a4,1
 241 004c 9386F4FF 		addi	a3,s1,-1
 242 0050 2286     		mv	a2,s0
 243              	.LVL18:
 244 0052 8145     		li	a1,0
 245 0054 97000000 		call	LCD_ShowStr
 245      E7800000 
 246              	.LVL19:
  35:main.c        ****       LCD_ShowStr(0 + 30, 20, "%", WHITE, TRANSPARENT);
 247              		.loc 1 35 7
  35:main.c        ****       LCD_ShowStr(0 + 30, 20, "%", WHITE, TRANSPARENT);
 248              		.loc 1 35 88 is_stmt 0
 249 005c 83278461 		lw	a5,1560(s0)
  35:main.c        ****       LCD_ShowStr(0 + 30, 20, "%", WHITE, TRANSPARENT);
 250              		.loc 1 35 7
 251 0060 1387F4FF 		addi	a4,s1,-1
 252 0064 8D46     		li	a3,3
  35:main.c        ****       LCD_ShowStr(0 + 30, 20, "%", WHITE, TRANSPARENT);
 253              		.loc 1 35 88
 254 0066 9207     		slli	a5,a5,4
 255 0068 A297     		add	a5,s0,a5
  35:main.c        ****       LCD_ShowStr(0 + 30, 20, "%", WHITE, TRANSPARENT);
 256              		.loc 1 35 7
 257 006a 904B     		lw	a2,16(a5)
 258 006c D145     		li	a1,20
GAS LISTING /var/folders/rt/4gvqv631095f64jvm7jfj_000000gn/T//ccOmY9YB.s 			page 7


 259 006e 0145     		li	a0,0
 260 0070 97000000 		call	LCD_ShowNum
 260      E7800000 
 261              	.LVL20:
  36:main.c        ****       LCD_ShowStr(50, 20, allPlants[i].moisture[allPlants[i].numberOfMoistureReadings-1].timeStamp,
 262              		.loc 1 36 7 is_stmt 1
 263 0078 37090000 		lui	s2,%hi(.LC0)
 264              	.LVL21:
 265 007c 0547     		li	a4,1
 266 007e 9386F4FF 		addi	a3,s1,-1
 267 0082 13060900 		addi	a2,s2,%lo(.LC0)
 268 0086 D145     		li	a1,20
 269 0088 7945     		li	a0,30
 270 008a 97000000 		call	LCD_ShowStr
 270      E7800000 
 271              	.LVL22:
  37:main.c        ****       LCD_ShowNum(0, 40, allPlants[i].sun[allPlants[i].numberOfSunReadings-1].reading, 3, WHITE);
 272              		.loc 1 37 7
  37:main.c        ****       LCD_ShowNum(0, 40, allPlants[i].sun[allPlants[i].numberOfSunReadings-1].reading, 3, WHITE);
 273              		.loc 1 37 89 is_stmt 0
 274 0092 03268461 		lw	a2,1560(s0)
  37:main.c        ****       LCD_ShowNum(0, 40, allPlants[i].sun[allPlants[i].numberOfSunReadings-1].reading, 3, WHITE);
 275              		.loc 1 37 7
 276 0096 0547     		li	a4,1
 277 0098 9386F4FF 		addi	a3,s1,-1
  37:main.c        ****       LCD_ShowNum(0, 40, allPlants[i].sun[allPlants[i].numberOfSunReadings-1].reading, 3, WHITE);
 278              		.loc 1 37 89
 279 009c 1206     		slli	a2,a2,4
 280 009e 1106     		addi	a2,a2,4
  37:main.c        ****       LCD_ShowNum(0, 40, allPlants[i].sun[allPlants[i].numberOfSunReadings-1].reading, 3, WHITE);
 281              		.loc 1 37 7
 282 00a0 2296     		add	a2,s0,a2
 283 00a2 D145     		li	a1,20
 284 00a4 13052003 		li	a0,50
 285 00a8 97000000 		call	LCD_ShowStr
 285      E7800000 
 286              	.LVL23:
  38:main.c        ****       LCD_ShowStr(0 + 30, 40, "%", WHITE, TRANSPARENT);
 287              		.loc 1 38 7 is_stmt 1
  38:main.c        ****       LCD_ShowStr(0 + 30, 40, "%", WHITE, TRANSPARENT);
 288              		.loc 1 38 78 is_stmt 0
 289 00b0 83274461 		lw	a5,1556(s0)
  38:main.c        ****       LCD_ShowStr(0 + 30, 40, "%", WHITE, TRANSPARENT);
 290              		.loc 1 38 7
 291 00b4 1387F4FF 		addi	a4,s1,-1
 292 00b8 8D46     		li	a3,3
  38:main.c        ****       LCD_ShowStr(0 + 30, 40, "%", WHITE, TRANSPARENT);
 293              		.loc 1 38 78
 294 00ba 93870703 		addi	a5,a5,48
 295 00be 9207     		slli	a5,a5,4
 296 00c0 A297     		add	a5,s0,a5
  38:main.c        ****       LCD_ShowStr(0 + 30, 40, "%", WHITE, TRANSPARENT);
 297              		.loc 1 38 7
 298 00c2 904B     		lw	a2,16(a5)
 299 00c4 93058002 		li	a1,40
 300 00c8 0145     		li	a0,0
 301 00ca 97000000 		call	LCD_ShowNum
GAS LISTING /var/folders/rt/4gvqv631095f64jvm7jfj_000000gn/T//ccOmY9YB.s 			page 8


 301      E7800000 
 302              	.LVL24:
  39:main.c        ****       LCD_Fill(50, 40, 160, 53, BLACK); // Black out old reading before writing new
 303              		.loc 1 39 7 is_stmt 1
 304 00d2 0547     		li	a4,1
 305 00d4 9386F4FF 		addi	a3,s1,-1
 306 00d8 13060900 		addi	a2,s2,%lo(.LC0)
 307 00dc 93058002 		li	a1,40
 308 00e0 7945     		li	a0,30
 309 00e2 97000000 		call	LCD_ShowStr
 309      E7800000 
 310              	.LVL25:
  40:main.c        ****       LCD_ShowStr(50, 40, allPlants[i].sun[allPlants[i].numberOfSunReadings-1].timeStamp, WHITE, TR
 311              		.loc 1 40 7
 312 00ea 0147     		li	a4,0
 313 00ec 93065003 		li	a3,53
 314 00f0 1306000A 		li	a2,160
 315 00f4 93058002 		li	a1,40
 316 00f8 13052003 		li	a0,50
 317 00fc 97000000 		call	LCD_Fill
 317      E7800000 
 318              	.LVL26:
  41:main.c        ****       LCD_ShowStr(0, 60, allPlants[i].currentStatus, GBLUE, TRANSPARENT);
 319              		.loc 1 41 7
  41:main.c        ****       LCD_ShowStr(0, 60, allPlants[i].currentStatus, GBLUE, TRANSPARENT);
 320              		.loc 1 41 79 is_stmt 0
 321 0104 03264461 		lw	a2,1556(s0)
  41:main.c        ****       LCD_ShowStr(0, 60, allPlants[i].currentStatus, GBLUE, TRANSPARENT);
 322              		.loc 1 41 7
 323 0108 0547     		li	a4,1
 324 010a 9386F4FF 		addi	a3,s1,-1
  41:main.c        ****       LCD_ShowStr(0, 60, allPlants[i].currentStatus, GBLUE, TRANSPARENT);
 325              		.loc 1 41 79
 326 010e 1206     		slli	a2,a2,4
 327 0110 13064630 		addi	a2,a2,772
  41:main.c        ****       LCD_ShowStr(0, 60, allPlants[i].currentStatus, GBLUE, TRANSPARENT);
 328              		.loc 1 41 7
 329 0114 2296     		add	a2,s0,a2
 330 0116 93058002 		li	a1,40
 331 011a 13052003 		li	a0,50
 332 011e 97000000 		call	LCD_ShowStr
 332      E7800000 
 333              	.LVL27:
  42:main.c        ****       return;
 334              		.loc 1 42 7 is_stmt 1
 335 0126 0547     		li	a4,1
 336 0128 9306F07F 		li	a3,2047
 337 012c 1306A400 		addi	a2,s0,10
 338 0130 9305C003 		li	a1,60
 339 0134 0145     		li	a0,0
 340              	.LVL28:
 341              	.L10:
 342              	.LBE8:
  47:main.c        **** }
 343              		.loc 1 47 1 is_stmt 0
 344 0136 2254     		lw	s0,40(sp)
 345              		.cfi_remember_state
GAS LISTING /var/folders/rt/4gvqv631095f64jvm7jfj_000000gn/T//ccOmY9YB.s 			page 9


 346              		.cfi_restore 8
 347 0138 B250     		lw	ra,44(sp)
 348              		.cfi_restore 1
 349 013a 9254     		lw	s1,36(sp)
 350              		.cfi_restore 9
 351 013c 0259     		lw	s2,32(sp)
 352              		.cfi_restore 18
 353 013e F249     		lw	s3,28(sp)
 354              		.cfi_restore 19
 355              	.LVL29:
 356 0140 4561     		addi	sp,sp,48
 357              	.LCFI4:
 358              		.cfi_def_cfa_offset 0
  46:main.c        **** }
 359              		.loc 1 46 3
 360 0142 17030000 		tail	LCD_ShowStr
 360      67000300 
 361              	.LVL30:
 362              	.L7:
 363              	.LCFI5:
 364              		.cfi_restore_state
 365              	.LBB9:
  30:main.c        ****   {
 366              		.loc 1 30 40 discriminator 2
 367 014a 0509     		addi	s2,s2,1
 368              	.LVL31:
 369 014c D9B5     		j	.L6
 370              	.LBE9:
 371              		.cfi_endproc
 372              	.LFE7:
 374              		.section	.text.updatePlantStatus,"ax",@progbits
 375              		.align	1
 376              		.globl	updatePlantStatus
 378              	updatePlantStatus:
 379              	.LFB8:
  48:main.c        **** 
  49:main.c        **** void updatePlantStatus(Plant plantToUpdate) {
 380              		.loc 1 49 45 is_stmt 1
 381              		.cfi_startproc
  50:main.c        ****  // WIP : LOOPA IGENOM TIDIGARE READINGS, GÖR EN AVERAGE, TA REDA PÅ STATUS. BEHÖVER LJUS? BEHÖ
  51:main.c        **** }
 382              		.loc 1 51 1
 383 0000 8280     		ret
 384              		.cfi_endproc
 385              	.LFE8:
 387              		.section	.text.updatePlantReading,"ax",@progbits
 388              		.align	1
 389              		.globl	updatePlantReading
 391              	updatePlantReading:
 392              	.LFB9:
  52:main.c        **** 
  53:main.c        **** void updatePlantReading(Plant allPlants[], int numberOfPlants, char name[], SensorType type)
  54:main.c        **** {
 393              		.loc 1 54 1
 394              		.cfi_startproc
 395              	.LVL32:
  55:main.c        ****   for (int i = 0; i < numberOfPlants; i++)
GAS LISTING /var/folders/rt/4gvqv631095f64jvm7jfj_000000gn/T//ccOmY9YB.s 			page 10


 396              		.loc 1 55 3
 397              	.LBB10:
 398              		.loc 1 55 8
 399              	.LBE10:
  54:main.c        ****   for (int i = 0; i < numberOfPlants; i++)
 400              		.loc 1 54 1 is_stmt 0
 401 0000 3971     		addi	sp,sp,-64
 402              	.LCFI6:
 403              		.cfi_def_cfa_offset 64
 404 0002 22DC     		sw	s0,56(sp)
 405 0004 26DA     		sw	s1,52(sp)
 406 0006 4AD8     		sw	s2,48(sp)
 407 0008 4ED6     		sw	s3,44(sp)
 408 000a 06DE     		sw	ra,60(sp)
 409              		.cfi_offset 8, -8
 410              		.cfi_offset 9, -12
 411              		.cfi_offset 18, -16
 412              		.cfi_offset 19, -20
 413              		.cfi_offset 1, -4
  54:main.c        ****   for (int i = 0; i < numberOfPlants; i++)
 414              		.loc 1 54 1
 415 000c 2E89     		mv	s2,a1
 416 000e 2A84     		mv	s0,a0
 417              	.LBB13:
 418              		.loc 1 55 12
 419 0010 8144     		li	s1,0
  56:main.c        ****   {
  57:main.c        ****     if (strcmp(allPlants[i].name, name) == 0)
  58:main.c        ****     {
  59:main.c        ****       if (type == SUN)
 420              		.loc 1 59 10
 421 0012 8549     		li	s3,1
 422              	.LVL33:
 423              	.L13:
  55:main.c        ****   {
 424              		.loc 1 55 3 discriminator 1
 425 0014 63C92403 		blt	s1,s2,.L19
 426              	.LBE13:
  60:main.c        ****       {
  61:main.c        ****         char fillWithTimeStamp[9];
  62:main.c        ****         generateTimeStamp(fillWithTimeStamp);
  63:main.c        ****         int currentValue = readSensor(ADC0, ADC_FLAG_EOC);
  64:main.c        ****         if (currentValue < 0) currentValue = 0;
  65:main.c        ****         if (allPlants[i].numberOfSunReadings < MAX_SUN_READINGS) {
  66:main.c        ****         allPlants[i].sun[allPlants[i].numberOfSunReadings].reading = currentValue;
  67:main.c        ****         STR_COPY(allPlants[i].sun[allPlants[i].numberOfSunReadings].timeStamp, fillWithTimeStamp);
  68:main.c        ****         (allPlants[i].numberOfSunReadings)++;
  69:main.c        ****         } else {
  70:main.c        ****           LCD_Fill(0, 0, 160, 80, BLACK);
  71:main.c        ****           LCD_ShowStr(0, 10, "SUN READINGS FULL", RED, TRANSPARENT);
  72:main.c        ****         }
  73:main.c        ****         return;
  74:main.c        ****       }
  75:main.c        ****     }
  76:main.c        ****   }
  77:main.c        ****   LCD_Fill(0, 0, 160, 80, BLACK);
 427              		.loc 1 77 3 is_stmt 1
GAS LISTING /var/folders/rt/4gvqv631095f64jvm7jfj_000000gn/T//ccOmY9YB.s 			page 11


 428 0018 0147     		li	a4,0
 429 001a 93060005 		li	a3,80
 430              	.LVL34:
 431 001e 1306000A 		li	a2,160
 432              	.LVL35:
 433 0022 8145     		li	a1,0
 434 0024 0145     		li	a0,0
 435 0026 97000000 		call	LCD_Fill
 435      E7800000 
 436              	.LVL36:
  78:main.c        ****   LCD_ShowStr(50, 4, "NO SUCH PLANT", RED, TRANSPARENT);
 437              		.loc 1 78 3
 438 002e C166     		li	a3,65536
 439 0030 37060000 		lui	a2,%hi(.LC1)
 440 0034 0547     		li	a4,1
 441 0036 93860680 		addi	a3,a3,-2048
 442 003a 13060600 		addi	a2,a2,%lo(.LC1)
 443 003e 9145     		li	a1,4
 444 0040 13052003 		li	a0,50
 445 0044 55A8     		j	.L21
 446              	.LVL37:
 447              	.L19:
 448              	.LBB14:
  57:main.c        ****     {
 449              		.loc 1 57 9 is_stmt 0
 450 0046 B285     		mv	a1,a2
 451 0048 2285     		mv	a0,s0
 452 004a 36C6     		sw	a3,12(sp)
  57:main.c        ****     {
 453              		.loc 1 57 5 is_stmt 1
  57:main.c        ****     {
 454              		.loc 1 57 9 is_stmt 0
 455 004c 32C4     		sw	a2,8(sp)
 456 004e 97000000 		call	strcmp
 456      E7800000 
 457              	.LVL38:
  57:main.c        ****     {
 458              		.loc 1 57 8
 459 0056 2246     		lw	a2,8(sp)
 460 0058 B246     		lw	a3,12(sp)
 461 005a 45E5     		bne	a0,zero,.L14
 462              	.LVL39:
  59:main.c        ****       {
 463              		.loc 1 59 7 is_stmt 1
  59:main.c        ****       {
 464              		.loc 1 59 10 is_stmt 0
 465 005c 6393360B 		bne	a3,s3,.L14
 466              	.LBB11:
  61:main.c        ****         generateTimeStamp(fillWithTimeStamp);
 467              		.loc 1 61 9 is_stmt 1
  62:main.c        ****         int currentValue = readSensor(ADC0, ADC_FLAG_EOC);
 468              		.loc 1 62 9
 469 0060 4808     		addi	a0,sp,20
 470 0062 97000000 		call	generateTimeStamp
 470      E7800000 
 471              	.LVL40:
  63:main.c        ****         if (currentValue < 0) currentValue = 0;
GAS LISTING /var/folders/rt/4gvqv631095f64jvm7jfj_000000gn/T//ccOmY9YB.s 			page 12


 472              		.loc 1 63 9
  63:main.c        ****         if (currentValue < 0) currentValue = 0;
 473              		.loc 1 63 28 is_stmt 0
 474 006a 37250140 		li	a0,1073815552
 475 006e 8945     		li	a1,2
 476 0070 13050540 		addi	a0,a0,1024
 477 0074 97000000 		call	readSensor
 477      E7800000 
 478              	.LVL41:
  64:main.c        ****         if (allPlants[i].numberOfSunReadings < MAX_SUN_READINGS) {
 479              		.loc 1 64 9 is_stmt 1
  65:main.c        ****         allPlants[i].sun[allPlants[i].numberOfSunReadings].reading = currentValue;
 480              		.loc 1 65 9
  65:main.c        ****         allPlants[i].sun[allPlants[i].numberOfSunReadings].reading = currentValue;
 481              		.loc 1 65 25 is_stmt 0
 482 007c 83274461 		lw	a5,1556(s0)
  65:main.c        ****         allPlants[i].sun[allPlants[i].numberOfSunReadings].reading = currentValue;
 483              		.loc 1 65 12
 484 0080 1307F002 		li	a4,47
 485 0084 6345F704 		bgt	a5,a4,.L15
  66:main.c        ****         STR_COPY(allPlants[i].sun[allPlants[i].numberOfSunReadings].timeStamp, fillWithTimeStamp);
 486              		.loc 1 66 9 is_stmt 1
  66:main.c        ****         STR_COPY(allPlants[i].sun[allPlants[i].numberOfSunReadings].timeStamp, fillWithTimeStamp);
 487              		.loc 1 66 68 is_stmt 0
 488 0088 93871703 		addi	a5,a5,49
 489 008c 13974700 		slli	a4,a5,4
 490 0090 2297     		add	a4,s0,a4
 491 0092 63530500 		bge	a0,zero,.L16
 492 0096 0145     		li	a0,0
 493              	.LVL42:
 494              	.L16:
 495 0098 08CB     		sw	a0,16(a4)
  67:main.c        ****         (allPlants[i].numberOfSunReadings)++;
 496              		.loc 1 67 9 is_stmt 1
 497 009a 13954700 		slli	a0,a5,4
 498 009e 1105     		addi	a0,a0,4
 499 00a0 37060000 		lui	a2,%hi(.LC2)
 500 00a4 5408     		addi	a3,sp,20
 501 00a6 13060600 		addi	a2,a2,%lo(.LC2)
 502 00aa A545     		li	a1,9
 503 00ac 2295     		add	a0,s0,a0
 504 00ae 97000000 		call	snprintf
 504      E7800000 
 505              	.LVL43:
  68:main.c        ****         } else {
 506              		.loc 1 68 9
  68:main.c        ****         } else {
 507              		.loc 1 68 43 is_stmt 0
 508 00b6 83274461 		lw	a5,1556(s0)
 509 00ba 8507     		addi	a5,a5,1
 510 00bc 232AF460 		sw	a5,1556(s0)
 511              	.LVL44:
 512              	.L12:
 513              	.LBE11:
 514              	.LBE14:
  79:main.c        **** }
 515              		.loc 1 79 1
GAS LISTING /var/folders/rt/4gvqv631095f64jvm7jfj_000000gn/T//ccOmY9YB.s 			page 13


 516 00c0 F250     		lw	ra,60(sp)
 517              		.cfi_remember_state
 518              		.cfi_restore 1
 519 00c2 6254     		lw	s0,56(sp)
 520              		.cfi_restore 8
 521 00c4 D254     		lw	s1,52(sp)
 522              		.cfi_restore 9
 523              	.LVL45:
 524 00c6 4259     		lw	s2,48(sp)
 525              		.cfi_restore 18
 526              	.LVL46:
 527 00c8 B259     		lw	s3,44(sp)
 528              		.cfi_restore 19
 529 00ca 2161     		addi	sp,sp,64
 530              	.LCFI7:
 531              		.cfi_def_cfa_offset 0
 532 00cc 8280     		jr	ra
 533              	.LVL47:
 534              	.L15:
 535              	.LCFI8:
 536              		.cfi_restore_state
 537              	.LBB15:
 538              	.LBB12:
  70:main.c        ****           LCD_ShowStr(0, 10, "SUN READINGS FULL", RED, TRANSPARENT);
 539              		.loc 1 70 11 is_stmt 1
 540 00ce 0147     		li	a4,0
 541 00d0 93060005 		li	a3,80
 542 00d4 1306000A 		li	a2,160
 543 00d8 8145     		li	a1,0
 544 00da 0145     		li	a0,0
 545              	.LVL48:
 546 00dc 97000000 		call	LCD_Fill
 546      E7800000 
 547              	.LVL49:
  71:main.c        ****         }
 548              		.loc 1 71 11
 549 00e4 C166     		li	a3,65536
 550 00e6 37060000 		lui	a2,%hi(.LC3)
 551 00ea 0547     		li	a4,1
 552 00ec 93860680 		addi	a3,a3,-2048
 553 00f0 13060600 		addi	a2,a2,%lo(.LC3)
 554 00f4 A945     		li	a1,10
 555 00f6 0145     		li	a0,0
 556              	.LVL50:
 557              	.L21:
 558              	.LBE12:
 559              	.LBE15:
  78:main.c        **** }
 560              		.loc 1 78 3 is_stmt 0
 561 00f8 97000000 		call	LCD_ShowStr
 561      E7800000 
 562              	.LVL51:
 563 0100 C1B7     		j	.L12
 564              	.LVL52:
 565              	.L14:
 566              	.LBB16:
  55:main.c        ****   {
GAS LISTING /var/folders/rt/4gvqv631095f64jvm7jfj_000000gn/T//ccOmY9YB.s 			page 14


 567              		.loc 1 55 40 discriminator 2
 568 0102 8504     		addi	s1,s1,1
 569              	.LVL53:
 570 0104 1304C461 		addi	s0,s0,1564
 571 0108 31B7     		j	.L13
 572              	.LBE16:
 573              		.cfi_endproc
 574              	.LFE9:
 576              		.section	.text.startup.main,"ax",@progbits
 577              		.align	1
 578              		.globl	main
 580              	main:
 581              	.LFB10:
  80:main.c        **** 
  81:main.c        **** int main(void)
  82:main.c        **** {
 582              		.loc 1 82 1 is_stmt 1
 583              		.cfi_startproc
  83:main.c        ****   int ms = 0, s = 0, idle = 0;
 584              		.loc 1 83 3
 585              	.LVL54:
  84:main.c        ****   // int lookUpTbl[16] = {1, 4, 7, 14, 2, 5, 8, 0, 3, 6, 9, 15, 10, 11, 12, 13};
  85:main.c        **** 
  86:main.c        ****   t5omsi();  // Initialize timer5 1kHz
 586              		.loc 1 86 3
  82:main.c        ****   int ms = 0, s = 0, idle = 0;
 587              		.loc 1 82 1 is_stmt 0
 588 0000 7D73     		li	t1,-4096
 589 0002 130101D8 		addi	sp,sp,-640
 590              	.LCFI9:
 591              		.cfi_def_cfa_offset 640
 592 0006 232E1126 		sw	ra,636(sp)
 593 000a 232C8126 		sw	s0,632(sp)
 594 000e 232A9126 		sw	s1,628(sp)
 595 0012 23282127 		sw	s2,624(sp)
 596 0016 23263127 		sw	s3,620(sp)
 597 001a 23244127 		sw	s4,616(sp)
 598 001e 23225127 		sw	s5,612(sp)
 599 0022 1A91     		add	sp,sp,t1
 600              	.LCFI10:
 601              		.cfi_def_cfa_offset 4736
 602              		.cfi_offset 1, -4
 603              		.cfi_offset 8, -8
 604              		.cfi_offset 9, -12
 605              		.cfi_offset 18, -16
 606              		.cfi_offset 19, -20
 607              		.cfi_offset 20, -24
 608              		.cfi_offset 21, -28
 609              		.loc 1 86 3
 610 0024 97000000 		call	t5omsi
 610      E7800000 
 611              	.LVL55:
  87:main.c        ****   colinit(); 
 612              		.loc 1 87 3 is_stmt 1
 613 002c 97000000 		call	colinit
 613      E7800000 
 614              	.LVL56:
GAS LISTING /var/folders/rt/4gvqv631095f64jvm7jfj_000000gn/T//ccOmY9YB.s 			page 15


  88:main.c        ****   l88init(); 
 615              		.loc 1 88 3
 616 0034 97000000 		call	l88init
 616      E7800000 
 617              	.LVL57:
  89:main.c        ****   // keyinit();          // Initialize keyboard toolbox
  90:main.c        ****   rtcInit(); 
 618              		.loc 1 90 3
 619 003c 97000000 		call	rtcInit
 619      E7800000 
 620              	.LVL58:
  91:main.c        ****   rtc_counter_set(0);
 621              		.loc 1 91 3
 622 0044 0145     		li	a0,0
 623 0046 97000000 		call	rtc_counter_set
 623      E7800000 
 624              	.LVL59:
  92:main.c        ****   // eclic_global_interrupt_enable();
  93:main.c        ****   ADC3powerUpInit(0); // Initialize ADC0, Ch3
 625              		.loc 1 93 3
 626 004e 0145     		li	a0,0
 627 0050 97000000 		call	ADC3powerUpInit
 627      E7800000 
 628              	.LVL60:
  94:main.c        **** 
  95:main.c        ****   Lcd_SetType(LCD_INVERTED);
 629              		.loc 1 95 3
 630 0058 0545     		li	a0,1
 631 005a 97000000 		call	Lcd_SetType
 631      E7800000 
 632              	.LVL61:
  96:main.c        ****   Lcd_Init();
 633              		.loc 1 96 3
 634 0062 97000000 		call	Lcd_Init
 634      E7800000 
 635              	.LVL62:
  97:main.c        ****   LCD_Fill(0, 0, 160, 80, BLACK);
 636              		.loc 1 97 3
 637 006a 93060005 		li	a3,80
 638 006e 0147     		li	a4,0
 639 0070 1306000A 		li	a2,160
 640 0074 8145     		li	a1,0
 641 0076 0145     		li	a0,0
 642 0078 97000000 		call	LCD_Fill
 642      E7800000 
 643              	.LVL63:
  98:main.c        **** 
  99:main.c        ****   Plant allPlants[3];
 644              		.loc 1 99 3
 100:main.c        ****   int numberOfPlants = 0;
 645              		.loc 1 100 3
 646              		.loc 1 100 7 is_stmt 0
 647 0080 8567     		li	a5,4096
 648 0082 13870726 		addi	a4,a5,608
 649 0086 FD74     		li	s1,-4096
 650 0088 0A97     		add	a4,a4,sp
 651 008a B3099700 		add	s3,a4,s1
GAS LISTING /var/folders/rt/4gvqv631095f64jvm7jfj_000000gn/T//ccOmY9YB.s 			page 16


 101:main.c        ****   initPlant("Gurka", &numberOfPlants, allPlants);
 652              		.loc 1 101 3
 653 008e 13870726 		addi	a4,a5,608
 654 0092 0A97     		add	a4,a4,sp
 655 0094 1384C4DA 		addi	s0,s1,-596
 656 0098 938484DA 		addi	s1,s1,-600
 657 009c BA94     		add	s1,a4,s1
 658 009e 3A94     		add	s0,a4,s0
 659 00a0 37050000 		lui	a0,%hi(.LC4)
 660 00a4 A685     		mv	a1,s1
 661 00a6 2286     		mv	a2,s0
 662 00a8 13050500 		addi	a0,a0,%lo(.LC4)
 102:main.c        ****   initPlant("Tomat", &numberOfPlants, allPlants);
 663              		.loc 1 102 3
 664 00ac 37090000 		lui	s2,%hi(.LC5)
 100:main.c        ****   int numberOfPlants = 0;
 665              		.loc 1 100 7
 666 00b0 23A409DA 		sw	zero,-600(s3)
 101:main.c        ****   initPlant("Gurka", &numberOfPlants, allPlants);
 667              		.loc 1 101 3 is_stmt 1
 668 00b4 97000000 		call	initPlant
 668      E7800000 
 669              	.LVL64:
 670              		.loc 1 102 3
 671 00bc A685     		mv	a1,s1
 672 00be 13050900 		addi	a0,s2,%lo(.LC5)
 673 00c2 2286     		mv	a2,s0
 674 00c4 97000000 		call	initPlant
 674      E7800000 
 675              	.LVL65:
 103:main.c        ****   initPlant("Chili", &numberOfPlants, allPlants);
 676              		.loc 1 103 3
 677 00cc 37050000 		lui	a0,%hi(.LC6)
 678 00d0 A685     		mv	a1,s1
 679 00d2 2286     		mv	a2,s0
 680 00d4 13050500 		addi	a0,a0,%lo(.LC6)
 681 00d8 CA84     		mv	s1,s2
 682 00da 97000000 		call	initPlant
 682      E7800000 
 683              	.LVL66:
  83:main.c        ****   // int lookUpTbl[16] = {1, 4, 7, 14, 2, 5, 8, 0, 3, 6, 9, 15, 10, 11, 12, 13};
 684              		.loc 1 83 7 is_stmt 0
 685 00e2 014A     		li	s4,0
 104:main.c        **** 
 105:main.c        ****   while (1)
 106:main.c        ****   {
 107:main.c        ****     idle++; 
 108:main.c        **** 
 109:main.c        ****     if (t5expq())
 110:main.c        ****     {                   
 111:main.c        ****       l88row(colset()); 
 112:main.c        ****       ms++;             
 113:main.c        ****       if (ms == 1000)
 686              		.loc 1 113 10
 687 00e4 930A803E 		li	s5,1000
 114:main.c        ****       {
 115:main.c        ****         updatePlantReading(allPlants, numberOfPlants, "Tomat", SUN);
GAS LISTING /var/folders/rt/4gvqv631095f64jvm7jfj_000000gn/T//ccOmY9YB.s 			page 17


 688              		.loc 1 115 9
 689 00e8 4E89     		mv	s2,s3
 690              	.LVL67:
 691              	.L25:
  83:main.c        ****   // int lookUpTbl[16] = {1, 4, 7, 14, 2, 5, 8, 0, 3, 6, 9, 15, 10, 11, 12, 13};
 692              		.loc 1 83 7
 693 00ea 8149     		li	s3,0
 694              	.LVL68:
 695              	.L23:
 105:main.c        ****   {
 696              		.loc 1 105 3 is_stmt 1
 107:main.c        **** 
 697              		.loc 1 107 5
 107:main.c        **** 
 698              		.loc 1 107 9 is_stmt 0
 699 00ec 8509     		addi	s3,s3,1
 700              	.LVL69:
 109:main.c        ****     {                   
 701              		.loc 1 109 5 is_stmt 1
 109:main.c        ****     {                   
 702              		.loc 1 109 9 is_stmt 0
 703 00ee 97000000 		call	t5expq
 703      E7800000 
 704              	.LVL70:
 109:main.c        ****     {                   
 705              		.loc 1 109 8
 706 00f6 7DD9     		beq	a0,zero,.L23
 111:main.c        ****       ms++;             
 707              		.loc 1 111 7 is_stmt 1
 708 00f8 97000000 		call	colset
 708      E7800000 
 709              	.LVL71:
 112:main.c        ****       if (ms == 1000)
 710              		.loc 1 112 9 is_stmt 0
 711 0100 050A     		addi	s4,s4,1
 712              	.LVL72:
 111:main.c        ****       ms++;             
 713              		.loc 1 111 7
 714 0102 97000000 		call	l88row
 714      E7800000 
 715              	.LVL73:
 112:main.c        ****       if (ms == 1000)
 716              		.loc 1 112 7 is_stmt 1
 113:main.c        ****       {
 717              		.loc 1 113 7
 113:main.c        ****       {
 718              		.loc 1 113 10 is_stmt 0
 719 010a 63165A03 		bne	s4,s5,.L24
 720              		.loc 1 115 9 is_stmt 1
 721 010e 832589DA 		lw	a1,-600(s2)
 722 0112 8546     		li	a3,1
 723 0114 13860400 		addi	a2,s1,%lo(.LC5)
 724 0118 2285     		mv	a0,s0
 725 011a 97000000 		call	updatePlantReading
 725      E7800000 
 726              	.LVL74:
 116:main.c        ****         // renderAllPlants(allPlants, numberOfPlants);
GAS LISTING /var/folders/rt/4gvqv631095f64jvm7jfj_000000gn/T//ccOmY9YB.s 			page 18


 117:main.c        ****         renderOnePlant(allPlants, numberOfPlants, "Tomat");
 727              		.loc 1 117 9
 728 0122 832589DA 		lw	a1,-600(s2)
 729 0126 13860400 		addi	a2,s1,%lo(.LC5)
 730 012a 2285     		mv	a0,s0
 731 012c 97000000 		call	renderOnePlant
 731      E7800000 
 732              	.LVL75:
 118:main.c        ****         ms = 0;
 733              		.loc 1 118 9
 734              		.loc 1 118 12 is_stmt 0
 735 0134 014A     		li	s4,0
 736              	.LVL76:
 737              	.L24:
 119:main.c        ****       }
 120:main.c        ****       l88mem(0, idle >> 8); // ...Performance monitor
 738              		.loc 1 120 7 is_stmt 1
 739 0136 93D58940 		srai	a1,s3,8
 740 013a 0145     		li	a0,0
 741 013c 97000000 		call	l88mem
 741      E7800000 
 742              	.LVL77:
 121:main.c        ****       l88mem(1, idle);
 743              		.loc 1 121 7
 744 0144 CE85     		mv	a1,s3
 745 0146 0545     		li	a0,1
 746 0148 97000000 		call	l88mem
 746      E7800000 
 747              	.LVL78:
 122:main.c        ****       idle = 0;
 748              		.loc 1 122 7
 749 0150 69BF     		j	.L25
 750              		.cfi_endproc
 751              	.LFE10:
 753              		.section	.rodata.main.str1.4,"aMS",@progbits,1
 754              		.align	2
 755              	.LC4:
 756 0000 4775726B 		.string	"Gurka"
 756      6100
 757 0006 0000     		.zero	2
 758              	.LC5:
 759 0008 546F6D61 		.string	"Tomat"
 759      7400
 760 000e 0000     		.zero	2
 761              	.LC6:
 762 0010 4368696C 		.string	"Chili"
 762      6900
 763              		.section	.rodata.renderAllPlants.str1.4,"aMS",@progbits,1
 764              		.align	2
 765              	.LC0:
 766 0000 2500     		.string	"%"
 767              		.section	.rodata.renderOnePlant.str1.4,"aMS",@progbits,1
 768              		.align	2
 769              	.LC1:
 770 0000 4E4F2053 		.string	"NO SUCH PLANT"
 770      55434820 
 770      504C414E 
GAS LISTING /var/folders/rt/4gvqv631095f64jvm7jfj_000000gn/T//ccOmY9YB.s 			page 19


 770      5400
 771              		.section	.rodata.updatePlantReading.str1.4,"aMS",@progbits,1
 772              		.align	2
 773              	.LC2:
 774 0000 257300   		.string	"%s"
 775 0003 00       		.zero	1
 776              	.LC3:
 777 0004 53554E20 		.string	"SUN READINGS FULL"
 777      52454144 
 777      494E4753 
 777      2046554C 
 777      4C00
 778              		.text
 779              	.Letext0:
 780              		.file 2 "/Users/alexstrae/toolchain-gd32v-v202-osx/compiler/riscv64-unknown-elf/include/machine/_d
 781              		.file 3 "/Users/alexstrae/toolchain-gd32v-v202-osx/compiler/riscv64-unknown-elf/include/sys/_stdin
 782              		.file 4 "/Users/alexstrae/toolchain-gd32v-v202-osx/compiler/lib/gcc/riscv64-unknown-elf/8.3.0/incl
 783              		.file 5 "/Users/alexstrae/toolchain-gd32v-v202-osx/compiler/riscv64-unknown-elf/include/sys/_types
 784              		.file 6 "/Users/alexstrae/toolchain-gd32v-v202-osx/compiler/riscv64-unknown-elf/include/sys/reent.
 785              		.file 7 "/Users/alexstrae/toolchain-gd32v-v202-osx/compiler/riscv64-unknown-elf/include/sys/lock.h
 786              		.file 8 "../../firmware/GD32VF103_standard_peripheral/system_gd32vf103.h"
 787              		.file 9 "/Users/alexstrae/toolchain-gd32v-v202-osx/compiler/riscv64-unknown-elf/include/stdlib.h"
 788              		.file 10 "lcd.h"
 789              		.file 11 "plant.h"
 790              		.file 12 "drivers.h"
 791              		.file 13 "utilities.h"
 792              		.file 14 "../../firmware/GD32VF103_standard_peripheral/Include/gd32vf103_rtc.h"
 793              		.file 15 "adc.h"
 794              		.file 16 "/Users/alexstrae/toolchain-gd32v-v202-osx/compiler/riscv64-unknown-elf/include/stdio.h"
 795              		.file 17 "/Users/alexstrae/toolchain-gd32v-v202-osx/compiler/riscv64-unknown-elf/include/string.h"
GAS LISTING /var/folders/rt/4gvqv631095f64jvm7jfj_000000gn/T//ccOmY9YB.s 			page 20


DEFINED SYMBOLS
                            *ABS*:0000000000000000 main.c
/var/folders/rt/4gvqv631095f64jvm7jfj_000000gn/T//ccOmY9YB.s:13     .text.renderAllPlants:0000000000000000 renderAllPlants
/var/folders/rt/4gvqv631095f64jvm7jfj_000000gn/T//ccOmY9YB.s:17     .text.renderAllPlants:0000000000000000 .L0 
/var/folders/rt/4gvqv631095f64jvm7jfj_000000gn/T//ccOmY9YB.s:19     .text.renderAllPlants:0000000000000000 .L0 
/var/folders/rt/4gvqv631095f64jvm7jfj_000000gn/T//ccOmY9YB.s:21     .text.renderAllPlants:0000000000000000 .L0 
/var/folders/rt/4gvqv631095f64jvm7jfj_000000gn/T//ccOmY9YB.s:23     .text.renderAllPlants:0000000000000000 .L0 
/var/folders/rt/4gvqv631095f64jvm7jfj_000000gn/T//ccOmY9YB.s:24     .text.renderAllPlants:0000000000000000 .L0 
/var/folders/rt/4gvqv631095f64jvm7jfj_000000gn/T//ccOmY9YB.s:26     .text.renderAllPlants:0000000000000002 .L0 
/var/folders/rt/4gvqv631095f64jvm7jfj_000000gn/T//ccOmY9YB.s:28     .text.renderAllPlants:0000000000000004 .L0 
/var/folders/rt/4gvqv631095f64jvm7jfj_000000gn/T//ccOmY9YB.s:31     .text.renderAllPlants:0000000000000004 .L0 
/var/folders/rt/4gvqv631095f64jvm7jfj_000000gn/T//ccOmY9YB.s:34     .text.renderAllPlants:0000000000000006 .L0 
/var/folders/rt/4gvqv631095f64jvm7jfj_000000gn/T//ccOmY9YB.s:42     .text.renderAllPlants:0000000000000016 .L0 
/var/folders/rt/4gvqv631095f64jvm7jfj_000000gn/T//ccOmY9YB.s:43     .text.renderAllPlants:0000000000000016 .L0 
/var/folders/rt/4gvqv631095f64jvm7jfj_000000gn/T//ccOmY9YB.s:44     .text.renderAllPlants:0000000000000016 .L0 
/var/folders/rt/4gvqv631095f64jvm7jfj_000000gn/T//ccOmY9YB.s:45     .text.renderAllPlants:0000000000000016 .L0 
/var/folders/rt/4gvqv631095f64jvm7jfj_000000gn/T//ccOmY9YB.s:46     .text.renderAllPlants:0000000000000016 .L0 
/var/folders/rt/4gvqv631095f64jvm7jfj_000000gn/T//ccOmY9YB.s:47     .text.renderAllPlants:0000000000000016 .L0 
/var/folders/rt/4gvqv631095f64jvm7jfj_000000gn/T//ccOmY9YB.s:48     .text.renderAllPlants:0000000000000016 .L0 
/var/folders/rt/4gvqv631095f64jvm7jfj_000000gn/T//ccOmY9YB.s:49     .text.renderAllPlants:0000000000000016 .L0 
/var/folders/rt/4gvqv631095f64jvm7jfj_000000gn/T//ccOmY9YB.s:51     .text.renderAllPlants:0000000000000016 .L0 
/var/folders/rt/4gvqv631095f64jvm7jfj_000000gn/T//ccOmY9YB.s:55     .text.renderAllPlants:000000000000001a .L0 
/var/folders/rt/4gvqv631095f64jvm7jfj_000000gn/T//ccOmY9YB.s:58     .text.renderAllPlants:0000000000000020 .L0 
/var/folders/rt/4gvqv631095f64jvm7jfj_000000gn/T//ccOmY9YB.s:60     .text.renderAllPlants:0000000000000022 .L0 
/var/folders/rt/4gvqv631095f64jvm7jfj_000000gn/T//ccOmY9YB.s:64     .text.renderAllPlants:0000000000000026 .L0 
/var/folders/rt/4gvqv631095f64jvm7jfj_000000gn/T//ccOmY9YB.s:67     .text.renderAllPlants:000000000000002a .L0 
/var/folders/rt/4gvqv631095f64jvm7jfj_000000gn/T//ccOmY9YB.s:68     .text.renderAllPlants:000000000000002c .L0 
/var/folders/rt/4gvqv631095f64jvm7jfj_000000gn/T//ccOmY9YB.s:69     .text.renderAllPlants:000000000000002c .L0 
/var/folders/rt/4gvqv631095f64jvm7jfj_000000gn/T//ccOmY9YB.s:71     .text.renderAllPlants:000000000000002e .L0 
/var/folders/rt/4gvqv631095f64jvm7jfj_000000gn/T//ccOmY9YB.s:73     .text.renderAllPlants:0000000000000030 .L0 
/var/folders/rt/4gvqv631095f64jvm7jfj_000000gn/T//ccOmY9YB.s:75     .text.renderAllPlants:0000000000000032 .L0 
/var/folders/rt/4gvqv631095f64jvm7jfj_000000gn/T//ccOmY9YB.s:77     .text.renderAllPlants:0000000000000034 .L0 
/var/folders/rt/4gvqv631095f64jvm7jfj_000000gn/T//ccOmY9YB.s:79     .text.renderAllPlants:0000000000000036 .L0 
/var/folders/rt/4gvqv631095f64jvm7jfj_000000gn/T//ccOmY9YB.s:82     .text.renderAllPlants:0000000000000038 .L0 
/var/folders/rt/4gvqv631095f64jvm7jfj_000000gn/T//ccOmY9YB.s:84     .text.renderAllPlants:000000000000003a .L0 
/var/folders/rt/4gvqv631095f64jvm7jfj_000000gn/T//ccOmY9YB.s:87     .text.renderAllPlants:000000000000003c .L0 
/var/folders/rt/4gvqv631095f64jvm7jfj_000000gn/T//ccOmY9YB.s:90     .text.renderAllPlants:000000000000003e .L0 
/var/folders/rt/4gvqv631095f64jvm7jfj_000000gn/T//ccOmY9YB.s:95     .text.renderAllPlants:0000000000000040 .L0 
/var/folders/rt/4gvqv631095f64jvm7jfj_000000gn/T//ccOmY9YB.s:98     .text.renderAllPlants:0000000000000040 .L0 
/var/folders/rt/4gvqv631095f64jvm7jfj_000000gn/T//ccOmY9YB.s:104    .text.renderAllPlants:000000000000004c .L0 
/var/folders/rt/4gvqv631095f64jvm7jfj_000000gn/T//ccOmY9YB.s:107    .text.renderAllPlants:000000000000004e .L0 
/var/folders/rt/4gvqv631095f64jvm7jfj_000000gn/T//ccOmY9YB.s:111    .text.renderAllPlants:0000000000000058 .L0 
/var/folders/rt/4gvqv631095f64jvm7jfj_000000gn/T//ccOmY9YB.s:112    .text.renderAllPlants:0000000000000058 .L0 
/var/folders/rt/4gvqv631095f64jvm7jfj_000000gn/T//ccOmY9YB.s:114    .text.renderAllPlants:000000000000005c .L0 
/var/folders/rt/4gvqv631095f64jvm7jfj_000000gn/T//ccOmY9YB.s:117    .text.renderAllPlants:0000000000000060 .L0 
/var/folders/rt/4gvqv631095f64jvm7jfj_000000gn/T//ccOmY9YB.s:121    .text.renderAllPlants:0000000000000066 .L0 
/var/folders/rt/4gvqv631095f64jvm7jfj_000000gn/T//ccOmY9YB.s:127    .text.renderAllPlants:0000000000000074 .L0 
/var/folders/rt/4gvqv631095f64jvm7jfj_000000gn/T//ccOmY9YB.s:136    .text.renderAllPlants:000000000000008c .L0 
/var/folders/rt/4gvqv631095f64jvm7jfj_000000gn/T//ccOmY9YB.s:137    .text.renderAllPlants:000000000000008c .L0 
/var/folders/rt/4gvqv631095f64jvm7jfj_000000gn/T//ccOmY9YB.s:139    .text.renderAllPlants:0000000000000090 .L0 
/var/folders/rt/4gvqv631095f64jvm7jfj_000000gn/T//ccOmY9YB.s:142    .text.renderAllPlants:0000000000000094 .L0 
/var/folders/rt/4gvqv631095f64jvm7jfj_000000gn/T//ccOmY9YB.s:146    .text.renderAllPlants:000000000000009c .L0 
/var/folders/rt/4gvqv631095f64jvm7jfj_000000gn/T//ccOmY9YB.s:152    .text.renderAllPlants:00000000000000ac .L0 
/var/folders/rt/4gvqv631095f64jvm7jfj_000000gn/T//ccOmY9YB.s:160    .text.renderAllPlants:00000000000000c2 .L0 
/var/folders/rt/4gvqv631095f64jvm7jfj_000000gn/T//ccOmY9YB.s:170    .text.renderAllPlants:00000000000000e0 .L0 
/var/folders/rt/4gvqv631095f64jvm7jfj_000000gn/T//ccOmY9YB.s:177    .text.renderOnePlant:0000000000000000 renderOnePlant
/var/folders/rt/4gvqv631095f64jvm7jfj_000000gn/T//ccOmY9YB.s:180    .text.renderOnePlant:0000000000000000 .L0 
GAS LISTING /var/folders/rt/4gvqv631095f64jvm7jfj_000000gn/T//ccOmY9YB.s 			page 21


/var/folders/rt/4gvqv631095f64jvm7jfj_000000gn/T//ccOmY9YB.s:182    .text.renderOnePlant:0000000000000000 .L0 
/var/folders/rt/4gvqv631095f64jvm7jfj_000000gn/T//ccOmY9YB.s:184    .text.renderOnePlant:0000000000000000 .L0 
/var/folders/rt/4gvqv631095f64jvm7jfj_000000gn/T//ccOmY9YB.s:186    .text.renderOnePlant:0000000000000000 .L0 
/var/folders/rt/4gvqv631095f64jvm7jfj_000000gn/T//ccOmY9YB.s:187    .text.renderOnePlant:0000000000000000 .L0 
/var/folders/rt/4gvqv631095f64jvm7jfj_000000gn/T//ccOmY9YB.s:189    .text.renderOnePlant:0000000000000002 .L0 
/var/folders/rt/4gvqv631095f64jvm7jfj_000000gn/T//ccOmY9YB.s:195    .text.renderOnePlant:000000000000000c .L0 
/var/folders/rt/4gvqv631095f64jvm7jfj_000000gn/T//ccOmY9YB.s:196    .text.renderOnePlant:000000000000000c .L0 
/var/folders/rt/4gvqv631095f64jvm7jfj_000000gn/T//ccOmY9YB.s:197    .text.renderOnePlant:000000000000000c .L0 
/var/folders/rt/4gvqv631095f64jvm7jfj_000000gn/T//ccOmY9YB.s:198    .text.renderOnePlant:000000000000000c .L0 
/var/folders/rt/4gvqv631095f64jvm7jfj_000000gn/T//ccOmY9YB.s:199    .text.renderOnePlant:000000000000000c .L0 
/var/folders/rt/4gvqv631095f64jvm7jfj_000000gn/T//ccOmY9YB.s:201    .text.renderOnePlant:000000000000000c .L0 
/var/folders/rt/4gvqv631095f64jvm7jfj_000000gn/T//ccOmY9YB.s:205    .text.renderOnePlant:0000000000000010 .L0 
/var/folders/rt/4gvqv631095f64jvm7jfj_000000gn/T//ccOmY9YB.s:209    .text.renderOnePlant:0000000000000012 .L0 
/var/folders/rt/4gvqv631095f64jvm7jfj_000000gn/T//ccOmY9YB.s:212    .text.renderOnePlant:0000000000000016 .L0 
/var/folders/rt/4gvqv631095f64jvm7jfj_000000gn/T//ccOmY9YB.s:225    .text.renderOnePlant:000000000000002e .L0 
/var/folders/rt/4gvqv631095f64jvm7jfj_000000gn/T//ccOmY9YB.s:226    .text.renderOnePlant:000000000000002e .L0 
/var/folders/rt/4gvqv631095f64jvm7jfj_000000gn/T//ccOmY9YB.s:232    .text.renderOnePlant:000000000000003c .L0 
/var/folders/rt/4gvqv631095f64jvm7jfj_000000gn/T//ccOmY9YB.s:234    .text.renderOnePlant:000000000000003e .L0 
/var/folders/rt/4gvqv631095f64jvm7jfj_000000gn/T//ccOmY9YB.s:239    .text.renderOnePlant:0000000000000048 .L0 
/var/folders/rt/4gvqv631095f64jvm7jfj_000000gn/T//ccOmY9YB.s:248    .text.renderOnePlant:000000000000005c .L0 
/var/folders/rt/4gvqv631095f64jvm7jfj_000000gn/T//ccOmY9YB.s:249    .text.renderOnePlant:000000000000005c .L0 
/var/folders/rt/4gvqv631095f64jvm7jfj_000000gn/T//ccOmY9YB.s:251    .text.renderOnePlant:0000000000000060 .L0 
/var/folders/rt/4gvqv631095f64jvm7jfj_000000gn/T//ccOmY9YB.s:254    .text.renderOnePlant:0000000000000066 .L0 
/var/folders/rt/4gvqv631095f64jvm7jfj_000000gn/T//ccOmY9YB.s:257    .text.renderOnePlant:000000000000006a .L0 
/var/folders/rt/4gvqv631095f64jvm7jfj_000000gn/T//ccOmY9YB.s:263    .text.renderOnePlant:0000000000000078 .L0 
/var/folders/rt/4gvqv631095f64jvm7jfj_000000gn/T//ccOmY9YB.s:273    .text.renderOnePlant:0000000000000092 .L0 
/var/folders/rt/4gvqv631095f64jvm7jfj_000000gn/T//ccOmY9YB.s:274    .text.renderOnePlant:0000000000000092 .L0 
/var/folders/rt/4gvqv631095f64jvm7jfj_000000gn/T//ccOmY9YB.s:276    .text.renderOnePlant:0000000000000096 .L0 
/var/folders/rt/4gvqv631095f64jvm7jfj_000000gn/T//ccOmY9YB.s:279    .text.renderOnePlant:000000000000009c .L0 
/var/folders/rt/4gvqv631095f64jvm7jfj_000000gn/T//ccOmY9YB.s:282    .text.renderOnePlant:00000000000000a0 .L0 
/var/folders/rt/4gvqv631095f64jvm7jfj_000000gn/T//ccOmY9YB.s:288    .text.renderOnePlant:00000000000000b0 .L0 
/var/folders/rt/4gvqv631095f64jvm7jfj_000000gn/T//ccOmY9YB.s:289    .text.renderOnePlant:00000000000000b0 .L0 
/var/folders/rt/4gvqv631095f64jvm7jfj_000000gn/T//ccOmY9YB.s:291    .text.renderOnePlant:00000000000000b4 .L0 
/var/folders/rt/4gvqv631095f64jvm7jfj_000000gn/T//ccOmY9YB.s:294    .text.renderOnePlant:00000000000000ba .L0 
/var/folders/rt/4gvqv631095f64jvm7jfj_000000gn/T//ccOmY9YB.s:298    .text.renderOnePlant:00000000000000c2 .L0 
/var/folders/rt/4gvqv631095f64jvm7jfj_000000gn/T//ccOmY9YB.s:304    .text.renderOnePlant:00000000000000d2 .L0 
/var/folders/rt/4gvqv631095f64jvm7jfj_000000gn/T//ccOmY9YB.s:312    .text.renderOnePlant:00000000000000ea .L0 
/var/folders/rt/4gvqv631095f64jvm7jfj_000000gn/T//ccOmY9YB.s:320    .text.renderOnePlant:0000000000000104 .L0 
/var/folders/rt/4gvqv631095f64jvm7jfj_000000gn/T//ccOmY9YB.s:321    .text.renderOnePlant:0000000000000104 .L0 
/var/folders/rt/4gvqv631095f64jvm7jfj_000000gn/T//ccOmY9YB.s:323    .text.renderOnePlant:0000000000000108 .L0 
/var/folders/rt/4gvqv631095f64jvm7jfj_000000gn/T//ccOmY9YB.s:326    .text.renderOnePlant:000000000000010e .L0 
/var/folders/rt/4gvqv631095f64jvm7jfj_000000gn/T//ccOmY9YB.s:329    .text.renderOnePlant:0000000000000114 .L0 
/var/folders/rt/4gvqv631095f64jvm7jfj_000000gn/T//ccOmY9YB.s:335    .text.renderOnePlant:0000000000000126 .L0 
/var/folders/rt/4gvqv631095f64jvm7jfj_000000gn/T//ccOmY9YB.s:344    .text.renderOnePlant:0000000000000136 .L0 
/var/folders/rt/4gvqv631095f64jvm7jfj_000000gn/T//ccOmY9YB.s:345    .text.renderOnePlant:0000000000000138 .L0 
/var/folders/rt/4gvqv631095f64jvm7jfj_000000gn/T//ccOmY9YB.s:346    .text.renderOnePlant:0000000000000138 .L0 
/var/folders/rt/4gvqv631095f64jvm7jfj_000000gn/T//ccOmY9YB.s:348    .text.renderOnePlant:000000000000013a .L0 
/var/folders/rt/4gvqv631095f64jvm7jfj_000000gn/T//ccOmY9YB.s:350    .text.renderOnePlant:000000000000013c .L0 
/var/folders/rt/4gvqv631095f64jvm7jfj_000000gn/T//ccOmY9YB.s:352    .text.renderOnePlant:000000000000013e .L0 
/var/folders/rt/4gvqv631095f64jvm7jfj_000000gn/T//ccOmY9YB.s:354    .text.renderOnePlant:0000000000000140 .L0 
/var/folders/rt/4gvqv631095f64jvm7jfj_000000gn/T//ccOmY9YB.s:358    .text.renderOnePlant:0000000000000142 .L0 
/var/folders/rt/4gvqv631095f64jvm7jfj_000000gn/T//ccOmY9YB.s:360    .text.renderOnePlant:0000000000000142 .L0 
/var/folders/rt/4gvqv631095f64jvm7jfj_000000gn/T//ccOmY9YB.s:364    .text.renderOnePlant:000000000000014a .L0 
/var/folders/rt/4gvqv631095f64jvm7jfj_000000gn/T//ccOmY9YB.s:367    .text.renderOnePlant:000000000000014a .L0 
/var/folders/rt/4gvqv631095f64jvm7jfj_000000gn/T//ccOmY9YB.s:371    .text.renderOnePlant:000000000000014e .L0 
/var/folders/rt/4gvqv631095f64jvm7jfj_000000gn/T//ccOmY9YB.s:378    .text.updatePlantStatus:0000000000000000 updatePlantStatus
/var/folders/rt/4gvqv631095f64jvm7jfj_000000gn/T//ccOmY9YB.s:381    .text.updatePlantStatus:0000000000000000 .L0 
GAS LISTING /var/folders/rt/4gvqv631095f64jvm7jfj_000000gn/T//ccOmY9YB.s 			page 22


/var/folders/rt/4gvqv631095f64jvm7jfj_000000gn/T//ccOmY9YB.s:382    .text.updatePlantStatus:0000000000000000 .L0 
/var/folders/rt/4gvqv631095f64jvm7jfj_000000gn/T//ccOmY9YB.s:383    .text.updatePlantStatus:0000000000000000 .L0 
/var/folders/rt/4gvqv631095f64jvm7jfj_000000gn/T//ccOmY9YB.s:384    .text.updatePlantStatus:0000000000000002 .L0 
/var/folders/rt/4gvqv631095f64jvm7jfj_000000gn/T//ccOmY9YB.s:391    .text.updatePlantReading:0000000000000000 updatePlantReading
/var/folders/rt/4gvqv631095f64jvm7jfj_000000gn/T//ccOmY9YB.s:394    .text.updatePlantReading:0000000000000000 .L0 
/var/folders/rt/4gvqv631095f64jvm7jfj_000000gn/T//ccOmY9YB.s:396    .text.updatePlantReading:0000000000000000 .L0 
/var/folders/rt/4gvqv631095f64jvm7jfj_000000gn/T//ccOmY9YB.s:398    .text.updatePlantReading:0000000000000000 .L0 
/var/folders/rt/4gvqv631095f64jvm7jfj_000000gn/T//ccOmY9YB.s:400    .text.updatePlantReading:0000000000000000 .L0 
/var/folders/rt/4gvqv631095f64jvm7jfj_000000gn/T//ccOmY9YB.s:401    .text.updatePlantReading:0000000000000000 .L0 
/var/folders/rt/4gvqv631095f64jvm7jfj_000000gn/T//ccOmY9YB.s:403    .text.updatePlantReading:0000000000000002 .L0 
/var/folders/rt/4gvqv631095f64jvm7jfj_000000gn/T//ccOmY9YB.s:409    .text.updatePlantReading:000000000000000c .L0 
/var/folders/rt/4gvqv631095f64jvm7jfj_000000gn/T//ccOmY9YB.s:410    .text.updatePlantReading:000000000000000c .L0 
/var/folders/rt/4gvqv631095f64jvm7jfj_000000gn/T//ccOmY9YB.s:411    .text.updatePlantReading:000000000000000c .L0 
/var/folders/rt/4gvqv631095f64jvm7jfj_000000gn/T//ccOmY9YB.s:412    .text.updatePlantReading:000000000000000c .L0 
/var/folders/rt/4gvqv631095f64jvm7jfj_000000gn/T//ccOmY9YB.s:413    .text.updatePlantReading:000000000000000c .L0 
/var/folders/rt/4gvqv631095f64jvm7jfj_000000gn/T//ccOmY9YB.s:415    .text.updatePlantReading:000000000000000c .L0 
/var/folders/rt/4gvqv631095f64jvm7jfj_000000gn/T//ccOmY9YB.s:419    .text.updatePlantReading:0000000000000010 .L0 
/var/folders/rt/4gvqv631095f64jvm7jfj_000000gn/T//ccOmY9YB.s:421    .text.updatePlantReading:0000000000000012 .L0 
/var/folders/rt/4gvqv631095f64jvm7jfj_000000gn/T//ccOmY9YB.s:425    .text.updatePlantReading:0000000000000014 .L0 
/var/folders/rt/4gvqv631095f64jvm7jfj_000000gn/T//ccOmY9YB.s:428    .text.updatePlantReading:0000000000000018 .L0 
/var/folders/rt/4gvqv631095f64jvm7jfj_000000gn/T//ccOmY9YB.s:438    .text.updatePlantReading:000000000000002e .L0 
/var/folders/rt/4gvqv631095f64jvm7jfj_000000gn/T//ccOmY9YB.s:450    .text.updatePlantReading:0000000000000046 .L0 
/var/folders/rt/4gvqv631095f64jvm7jfj_000000gn/T//ccOmY9YB.s:454    .text.updatePlantReading:000000000000004c .L0 
/var/folders/rt/4gvqv631095f64jvm7jfj_000000gn/T//ccOmY9YB.s:455    .text.updatePlantReading:000000000000004c .L0 
/var/folders/rt/4gvqv631095f64jvm7jfj_000000gn/T//ccOmY9YB.s:459    .text.updatePlantReading:0000000000000056 .L0 
/var/folders/rt/4gvqv631095f64jvm7jfj_000000gn/T//ccOmY9YB.s:464    .text.updatePlantReading:000000000000005c .L0 
/var/folders/rt/4gvqv631095f64jvm7jfj_000000gn/T//ccOmY9YB.s:465    .text.updatePlantReading:000000000000005c .L0 
/var/folders/rt/4gvqv631095f64jvm7jfj_000000gn/T//ccOmY9YB.s:468    .text.updatePlantReading:0000000000000060 .L0 
/var/folders/rt/4gvqv631095f64jvm7jfj_000000gn/T//ccOmY9YB.s:469    .text.updatePlantReading:0000000000000060 .L0 
/var/folders/rt/4gvqv631095f64jvm7jfj_000000gn/T//ccOmY9YB.s:473    .text.updatePlantReading:000000000000006a .L0 
/var/folders/rt/4gvqv631095f64jvm7jfj_000000gn/T//ccOmY9YB.s:474    .text.updatePlantReading:000000000000006a .L0 
/var/folders/rt/4gvqv631095f64jvm7jfj_000000gn/T//ccOmY9YB.s:480    .text.updatePlantReading:000000000000007c .L0 
/var/folders/rt/4gvqv631095f64jvm7jfj_000000gn/T//ccOmY9YB.s:481    .text.updatePlantReading:000000000000007c .L0 
/var/folders/rt/4gvqv631095f64jvm7jfj_000000gn/T//ccOmY9YB.s:482    .text.updatePlantReading:000000000000007c .L0 
/var/folders/rt/4gvqv631095f64jvm7jfj_000000gn/T//ccOmY9YB.s:484    .text.updatePlantReading:0000000000000080 .L0 
/var/folders/rt/4gvqv631095f64jvm7jfj_000000gn/T//ccOmY9YB.s:487    .text.updatePlantReading:0000000000000088 .L0 
/var/folders/rt/4gvqv631095f64jvm7jfj_000000gn/T//ccOmY9YB.s:488    .text.updatePlantReading:0000000000000088 .L0 
/var/folders/rt/4gvqv631095f64jvm7jfj_000000gn/T//ccOmY9YB.s:497    .text.updatePlantReading:000000000000009a .L0 
/var/folders/rt/4gvqv631095f64jvm7jfj_000000gn/T//ccOmY9YB.s:507    .text.updatePlantReading:00000000000000b6 .L0 
/var/folders/rt/4gvqv631095f64jvm7jfj_000000gn/T//ccOmY9YB.s:508    .text.updatePlantReading:00000000000000b6 .L0 
/var/folders/rt/4gvqv631095f64jvm7jfj_000000gn/T//ccOmY9YB.s:516    .text.updatePlantReading:00000000000000c0 .L0 
/var/folders/rt/4gvqv631095f64jvm7jfj_000000gn/T//ccOmY9YB.s:517    .text.updatePlantReading:00000000000000c2 .L0 
/var/folders/rt/4gvqv631095f64jvm7jfj_000000gn/T//ccOmY9YB.s:518    .text.updatePlantReading:00000000000000c2 .L0 
/var/folders/rt/4gvqv631095f64jvm7jfj_000000gn/T//ccOmY9YB.s:520    .text.updatePlantReading:00000000000000c4 .L0 
/var/folders/rt/4gvqv631095f64jvm7jfj_000000gn/T//ccOmY9YB.s:522    .text.updatePlantReading:00000000000000c6 .L0 
/var/folders/rt/4gvqv631095f64jvm7jfj_000000gn/T//ccOmY9YB.s:525    .text.updatePlantReading:00000000000000c8 .L0 
/var/folders/rt/4gvqv631095f64jvm7jfj_000000gn/T//ccOmY9YB.s:528    .text.updatePlantReading:00000000000000ca .L0 
/var/folders/rt/4gvqv631095f64jvm7jfj_000000gn/T//ccOmY9YB.s:531    .text.updatePlantReading:00000000000000cc .L0 
/var/folders/rt/4gvqv631095f64jvm7jfj_000000gn/T//ccOmY9YB.s:536    .text.updatePlantReading:00000000000000ce .L0 
/var/folders/rt/4gvqv631095f64jvm7jfj_000000gn/T//ccOmY9YB.s:540    .text.updatePlantReading:00000000000000ce .L0 
/var/folders/rt/4gvqv631095f64jvm7jfj_000000gn/T//ccOmY9YB.s:549    .text.updatePlantReading:00000000000000e4 .L0 
/var/folders/rt/4gvqv631095f64jvm7jfj_000000gn/T//ccOmY9YB.s:561    .text.updatePlantReading:00000000000000f8 .L0 
/var/folders/rt/4gvqv631095f64jvm7jfj_000000gn/T//ccOmY9YB.s:568    .text.updatePlantReading:0000000000000102 .L0 
/var/folders/rt/4gvqv631095f64jvm7jfj_000000gn/T//ccOmY9YB.s:573    .text.updatePlantReading:000000000000010a .L0 
/var/folders/rt/4gvqv631095f64jvm7jfj_000000gn/T//ccOmY9YB.s:580    .text.startup.main:0000000000000000 main
/var/folders/rt/4gvqv631095f64jvm7jfj_000000gn/T//ccOmY9YB.s:583    .text.startup.main:0000000000000000 .L0 
/var/folders/rt/4gvqv631095f64jvm7jfj_000000gn/T//ccOmY9YB.s:584    .text.startup.main:0000000000000000 .L0 
GAS LISTING /var/folders/rt/4gvqv631095f64jvm7jfj_000000gn/T//ccOmY9YB.s 			page 23


/var/folders/rt/4gvqv631095f64jvm7jfj_000000gn/T//ccOmY9YB.s:586    .text.startup.main:0000000000000000 .L0 
/var/folders/rt/4gvqv631095f64jvm7jfj_000000gn/T//ccOmY9YB.s:587    .text.startup.main:0000000000000000 .L0 
/var/folders/rt/4gvqv631095f64jvm7jfj_000000gn/T//ccOmY9YB.s:588    .text.startup.main:0000000000000000 .L0 
/var/folders/rt/4gvqv631095f64jvm7jfj_000000gn/T//ccOmY9YB.s:591    .text.startup.main:0000000000000006 .L0 
/var/folders/rt/4gvqv631095f64jvm7jfj_000000gn/T//ccOmY9YB.s:601    .text.startup.main:0000000000000024 .L0 
/var/folders/rt/4gvqv631095f64jvm7jfj_000000gn/T//ccOmY9YB.s:602    .text.startup.main:0000000000000024 .L0 
/var/folders/rt/4gvqv631095f64jvm7jfj_000000gn/T//ccOmY9YB.s:603    .text.startup.main:0000000000000024 .L0 
/var/folders/rt/4gvqv631095f64jvm7jfj_000000gn/T//ccOmY9YB.s:604    .text.startup.main:0000000000000024 .L0 
/var/folders/rt/4gvqv631095f64jvm7jfj_000000gn/T//ccOmY9YB.s:605    .text.startup.main:0000000000000024 .L0 
/var/folders/rt/4gvqv631095f64jvm7jfj_000000gn/T//ccOmY9YB.s:606    .text.startup.main:0000000000000024 .L0 
/var/folders/rt/4gvqv631095f64jvm7jfj_000000gn/T//ccOmY9YB.s:607    .text.startup.main:0000000000000024 .L0 
/var/folders/rt/4gvqv631095f64jvm7jfj_000000gn/T//ccOmY9YB.s:608    .text.startup.main:0000000000000024 .L0 
/var/folders/rt/4gvqv631095f64jvm7jfj_000000gn/T//ccOmY9YB.s:610    .text.startup.main:0000000000000024 .L0 
/var/folders/rt/4gvqv631095f64jvm7jfj_000000gn/T//ccOmY9YB.s:613    .text.startup.main:000000000000002c .L0 
/var/folders/rt/4gvqv631095f64jvm7jfj_000000gn/T//ccOmY9YB.s:616    .text.startup.main:0000000000000034 .L0 
/var/folders/rt/4gvqv631095f64jvm7jfj_000000gn/T//ccOmY9YB.s:619    .text.startup.main:000000000000003c .L0 
/var/folders/rt/4gvqv631095f64jvm7jfj_000000gn/T//ccOmY9YB.s:622    .text.startup.main:0000000000000044 .L0 
/var/folders/rt/4gvqv631095f64jvm7jfj_000000gn/T//ccOmY9YB.s:626    .text.startup.main:000000000000004e .L0 
/var/folders/rt/4gvqv631095f64jvm7jfj_000000gn/T//ccOmY9YB.s:630    .text.startup.main:0000000000000058 .L0 
/var/folders/rt/4gvqv631095f64jvm7jfj_000000gn/T//ccOmY9YB.s:634    .text.startup.main:0000000000000062 .L0 
/var/folders/rt/4gvqv631095f64jvm7jfj_000000gn/T//ccOmY9YB.s:637    .text.startup.main:000000000000006a .L0 
/var/folders/rt/4gvqv631095f64jvm7jfj_000000gn/T//ccOmY9YB.s:645    .text.startup.main:0000000000000080 .L0 
/var/folders/rt/4gvqv631095f64jvm7jfj_000000gn/T//ccOmY9YB.s:646    .text.startup.main:0000000000000080 .L0 
/var/folders/rt/4gvqv631095f64jvm7jfj_000000gn/T//ccOmY9YB.s:647    .text.startup.main:0000000000000080 .L0 
/var/folders/rt/4gvqv631095f64jvm7jfj_000000gn/T//ccOmY9YB.s:653    .text.startup.main:000000000000008e .L0 
/var/folders/rt/4gvqv631095f64jvm7jfj_000000gn/T//ccOmY9YB.s:664    .text.startup.main:00000000000000ac .L0 
/var/folders/rt/4gvqv631095f64jvm7jfj_000000gn/T//ccOmY9YB.s:666    .text.startup.main:00000000000000b0 .L0 
/var/folders/rt/4gvqv631095f64jvm7jfj_000000gn/T//ccOmY9YB.s:668    .text.startup.main:00000000000000b4 .L0 
/var/folders/rt/4gvqv631095f64jvm7jfj_000000gn/T//ccOmY9YB.s:671    .text.startup.main:00000000000000bc .L0 
/var/folders/rt/4gvqv631095f64jvm7jfj_000000gn/T//ccOmY9YB.s:677    .text.startup.main:00000000000000cc .L0 
/var/folders/rt/4gvqv631095f64jvm7jfj_000000gn/T//ccOmY9YB.s:685    .text.startup.main:00000000000000e2 .L0 
/var/folders/rt/4gvqv631095f64jvm7jfj_000000gn/T//ccOmY9YB.s:687    .text.startup.main:00000000000000e4 .L0 
/var/folders/rt/4gvqv631095f64jvm7jfj_000000gn/T//ccOmY9YB.s:689    .text.startup.main:00000000000000e8 .L0 
/var/folders/rt/4gvqv631095f64jvm7jfj_000000gn/T//ccOmY9YB.s:693    .text.startup.main:00000000000000ea .L0 
/var/folders/rt/4gvqv631095f64jvm7jfj_000000gn/T//ccOmY9YB.s:697    .text.startup.main:00000000000000ec .L0 
/var/folders/rt/4gvqv631095f64jvm7jfj_000000gn/T//ccOmY9YB.s:698    .text.startup.main:00000000000000ec .L0 
/var/folders/rt/4gvqv631095f64jvm7jfj_000000gn/T//ccOmY9YB.s:699    .text.startup.main:00000000000000ec .L0 
/var/folders/rt/4gvqv631095f64jvm7jfj_000000gn/T//ccOmY9YB.s:702    .text.startup.main:00000000000000ee .L0 
/var/folders/rt/4gvqv631095f64jvm7jfj_000000gn/T//ccOmY9YB.s:703    .text.startup.main:00000000000000ee .L0 
/var/folders/rt/4gvqv631095f64jvm7jfj_000000gn/T//ccOmY9YB.s:706    .text.startup.main:00000000000000f6 .L0 
/var/folders/rt/4gvqv631095f64jvm7jfj_000000gn/T//ccOmY9YB.s:708    .text.startup.main:00000000000000f8 .L0 
/var/folders/rt/4gvqv631095f64jvm7jfj_000000gn/T//ccOmY9YB.s:711    .text.startup.main:0000000000000100 .L0 
/var/folders/rt/4gvqv631095f64jvm7jfj_000000gn/T//ccOmY9YB.s:714    .text.startup.main:0000000000000102 .L0 
/var/folders/rt/4gvqv631095f64jvm7jfj_000000gn/T//ccOmY9YB.s:717    .text.startup.main:000000000000010a .L0 
/var/folders/rt/4gvqv631095f64jvm7jfj_000000gn/T//ccOmY9YB.s:718    .text.startup.main:000000000000010a .L0 
/var/folders/rt/4gvqv631095f64jvm7jfj_000000gn/T//ccOmY9YB.s:719    .text.startup.main:000000000000010a .L0 
/var/folders/rt/4gvqv631095f64jvm7jfj_000000gn/T//ccOmY9YB.s:721    .text.startup.main:000000000000010e .L0 
/var/folders/rt/4gvqv631095f64jvm7jfj_000000gn/T//ccOmY9YB.s:728    .text.startup.main:0000000000000122 .L0 
/var/folders/rt/4gvqv631095f64jvm7jfj_000000gn/T//ccOmY9YB.s:734    .text.startup.main:0000000000000134 .L0 
/var/folders/rt/4gvqv631095f64jvm7jfj_000000gn/T//ccOmY9YB.s:735    .text.startup.main:0000000000000134 .L0 
/var/folders/rt/4gvqv631095f64jvm7jfj_000000gn/T//ccOmY9YB.s:739    .text.startup.main:0000000000000136 .L0 
/var/folders/rt/4gvqv631095f64jvm7jfj_000000gn/T//ccOmY9YB.s:744    .text.startup.main:0000000000000144 .L0 
/var/folders/rt/4gvqv631095f64jvm7jfj_000000gn/T//ccOmY9YB.s:749    .text.startup.main:0000000000000150 .L0 
/var/folders/rt/4gvqv631095f64jvm7jfj_000000gn/T//ccOmY9YB.s:750    .text.startup.main:0000000000000152 .L0 
/var/folders/rt/4gvqv631095f64jvm7jfj_000000gn/T//ccOmY9YB.s:173    .text.renderAllPlants:00000000000000e0 .L0 
/var/folders/rt/4gvqv631095f64jvm7jfj_000000gn/T//ccOmY9YB.s:374    .text.renderOnePlant:000000000000014e .L0 
/var/folders/rt/4gvqv631095f64jvm7jfj_000000gn/T//ccOmY9YB.s:387    .text.updatePlantStatus:0000000000000002 .L0 
GAS LISTING /var/folders/rt/4gvqv631095f64jvm7jfj_000000gn/T//ccOmY9YB.s 			page 24


/var/folders/rt/4gvqv631095f64jvm7jfj_000000gn/T//ccOmY9YB.s:576    .text.updatePlantReading:000000000000010a .L0 
/var/folders/rt/4gvqv631095f64jvm7jfj_000000gn/T//ccOmY9YB.s:753    .text.startup.main:0000000000000152 .L0 
                     .debug_frame:0000000000000000 .L0 
/var/folders/rt/4gvqv631095f64jvm7jfj_000000gn/T//ccOmY9YB.s:765    .rodata.renderAllPlants.str1.4:0000000000000000 .LC0
/var/folders/rt/4gvqv631095f64jvm7jfj_000000gn/T//ccOmY9YB.s:93     .text.renderAllPlants:0000000000000040 .L3
/var/folders/rt/4gvqv631095f64jvm7jfj_000000gn/T//ccOmY9YB.s:62     .text.renderAllPlants:0000000000000026 .L2
/var/folders/rt/4gvqv631095f64jvm7jfj_000000gn/T//ccOmY9YB.s:769    .rodata.renderOnePlant.str1.4:0000000000000000 .LC1
/var/folders/rt/4gvqv631095f64jvm7jfj_000000gn/T//ccOmY9YB.s:222    .text.renderOnePlant:000000000000002e .L8
/var/folders/rt/4gvqv631095f64jvm7jfj_000000gn/T//ccOmY9YB.s:341    .text.renderOnePlant:0000000000000136 .L10
/var/folders/rt/4gvqv631095f64jvm7jfj_000000gn/T//ccOmY9YB.s:362    .text.renderOnePlant:000000000000014a .L7
/var/folders/rt/4gvqv631095f64jvm7jfj_000000gn/T//ccOmY9YB.s:207    .text.renderOnePlant:0000000000000012 .L6
/var/folders/rt/4gvqv631095f64jvm7jfj_000000gn/T//ccOmY9YB.s:773    .rodata.updatePlantReading.str1.4:0000000000000000 .LC2
/var/folders/rt/4gvqv631095f64jvm7jfj_000000gn/T//ccOmY9YB.s:776    .rodata.updatePlantReading.str1.4:0000000000000004 .LC3
/var/folders/rt/4gvqv631095f64jvm7jfj_000000gn/T//ccOmY9YB.s:447    .text.updatePlantReading:0000000000000046 .L19
/var/folders/rt/4gvqv631095f64jvm7jfj_000000gn/T//ccOmY9YB.s:557    .text.updatePlantReading:00000000000000f8 .L21
/var/folders/rt/4gvqv631095f64jvm7jfj_000000gn/T//ccOmY9YB.s:565    .text.updatePlantReading:0000000000000102 .L14
/var/folders/rt/4gvqv631095f64jvm7jfj_000000gn/T//ccOmY9YB.s:534    .text.updatePlantReading:00000000000000ce .L15
/var/folders/rt/4gvqv631095f64jvm7jfj_000000gn/T//ccOmY9YB.s:494    .text.updatePlantReading:0000000000000098 .L16
/var/folders/rt/4gvqv631095f64jvm7jfj_000000gn/T//ccOmY9YB.s:512    .text.updatePlantReading:00000000000000c0 .L12
/var/folders/rt/4gvqv631095f64jvm7jfj_000000gn/T//ccOmY9YB.s:423    .text.updatePlantReading:0000000000000014 .L13
/var/folders/rt/4gvqv631095f64jvm7jfj_000000gn/T//ccOmY9YB.s:755    .rodata.main.str1.4:0000000000000000 .LC4
/var/folders/rt/4gvqv631095f64jvm7jfj_000000gn/T//ccOmY9YB.s:758    .rodata.main.str1.4:0000000000000008 .LC5
/var/folders/rt/4gvqv631095f64jvm7jfj_000000gn/T//ccOmY9YB.s:761    .rodata.main.str1.4:0000000000000010 .LC6
/var/folders/rt/4gvqv631095f64jvm7jfj_000000gn/T//ccOmY9YB.s:695    .text.startup.main:00000000000000ec .L23
/var/folders/rt/4gvqv631095f64jvm7jfj_000000gn/T//ccOmY9YB.s:737    .text.startup.main:0000000000000136 .L24
/var/folders/rt/4gvqv631095f64jvm7jfj_000000gn/T//ccOmY9YB.s:691    .text.startup.main:00000000000000ea .L25
/var/folders/rt/4gvqv631095f64jvm7jfj_000000gn/T//ccOmY9YB.s:3570   .debug_abbrev:0000000000000000 .Ldebug_abbrev0
/var/folders/rt/4gvqv631095f64jvm7jfj_000000gn/T//ccOmY9YB.s:5167   .debug_str:000000000000052e .LASF167
/var/folders/rt/4gvqv631095f64jvm7jfj_000000gn/T//ccOmY9YB.s:5033   .debug_str:00000000000002ae .LASF168
/var/folders/rt/4gvqv631095f64jvm7jfj_000000gn/T//ccOmY9YB.s:5171   .debug_str:00000000000005bf .LASF169
/var/folders/rt/4gvqv631095f64jvm7jfj_000000gn/T//ccOmY9YB.s:4841   .debug_ranges:0000000000000000 .Ldebug_ranges0
/var/folders/rt/4gvqv631095f64jvm7jfj_000000gn/T//ccOmY9YB.s:4893   .debug_line:0000000000000000 .Ldebug_line0
/var/folders/rt/4gvqv631095f64jvm7jfj_000000gn/T//ccOmY9YB.s:5155   .debug_str:00000000000004ec .LASF0
/var/folders/rt/4gvqv631095f64jvm7jfj_000000gn/T//ccOmY9YB.s:4937   .debug_str:00000000000000de .LASF1
/var/folders/rt/4gvqv631095f64jvm7jfj_000000gn/T//ccOmY9YB.s:5087   .debug_str:00000000000003b9 .LASF2
/var/folders/rt/4gvqv631095f64jvm7jfj_000000gn/T//ccOmY9YB.s:4897   .debug_str:000000000000000c .LASF3
/var/folders/rt/4gvqv631095f64jvm7jfj_000000gn/T//ccOmY9YB.s:5175   .debug_str:0000000000000614 .LASF4
/var/folders/rt/4gvqv631095f64jvm7jfj_000000gn/T//ccOmY9YB.s:4957   .debug_str:0000000000000134 .LASF5
/var/folders/rt/4gvqv631095f64jvm7jfj_000000gn/T//ccOmY9YB.s:4985   .debug_str:00000000000001d4 .LASF9
/var/folders/rt/4gvqv631095f64jvm7jfj_000000gn/T//ccOmY9YB.s:5009   .debug_str:000000000000023e .LASF6
/var/folders/rt/4gvqv631095f64jvm7jfj_000000gn/T//ccOmY9YB.s:4971   .debug_str:0000000000000184 .LASF7
/var/folders/rt/4gvqv631095f64jvm7jfj_000000gn/T//ccOmY9YB.s:4919   .debug_str:0000000000000079 .LASF8
/var/folders/rt/4gvqv631095f64jvm7jfj_000000gn/T//ccOmY9YB.s:5189   .debug_str:0000000000000664 .LASF10
/var/folders/rt/4gvqv631095f64jvm7jfj_000000gn/T//ccOmY9YB.s:5003   .debug_str:000000000000021e .LASF120
/var/folders/rt/4gvqv631095f64jvm7jfj_000000gn/T//ccOmY9YB.s:5145   .debug_str:00000000000004c5 .LASF11
/var/folders/rt/4gvqv631095f64jvm7jfj_000000gn/T//ccOmY9YB.s:5073   .debug_str:0000000000000378 .LASF12
/var/folders/rt/4gvqv631095f64jvm7jfj_000000gn/T//ccOmY9YB.s:4933   .debug_str:00000000000000d0 .LASF13
/var/folders/rt/4gvqv631095f64jvm7jfj_000000gn/T//ccOmY9YB.s:5143   .debug_str:00000000000004bd .LASF14
/var/folders/rt/4gvqv631095f64jvm7jfj_000000gn/T//ccOmY9YB.s:5201   .debug_str:00000000000006a7 .LASF15
/var/folders/rt/4gvqv631095f64jvm7jfj_000000gn/T//ccOmY9YB.s:5031   .debug_str:00000000000002a8 .LASF16
/var/folders/rt/4gvqv631095f64jvm7jfj_000000gn/T//ccOmY9YB.s:5001   .debug_str:0000000000000217 .LASF17
/var/folders/rt/4gvqv631095f64jvm7jfj_000000gn/T//ccOmY9YB.s:5135   .debug_str:000000000000049d .LASF18
/var/folders/rt/4gvqv631095f64jvm7jfj_000000gn/T//ccOmY9YB.s:5137   .debug_str:00000000000004a5 .LASF19
/var/folders/rt/4gvqv631095f64jvm7jfj_000000gn/T//ccOmY9YB.s:5079   .debug_str:000000000000038e .LASF20
/var/folders/rt/4gvqv631095f64jvm7jfj_000000gn/T//ccOmY9YB.s:5181   .debug_str:0000000000000633 .LASF21
/var/folders/rt/4gvqv631095f64jvm7jfj_000000gn/T//ccOmY9YB.s:5083   .debug_str:000000000000039f .LASF22
/var/folders/rt/4gvqv631095f64jvm7jfj_000000gn/T//ccOmY9YB.s:5093   .debug_str:00000000000003d6 .LASF23
GAS LISTING /var/folders/rt/4gvqv631095f64jvm7jfj_000000gn/T//ccOmY9YB.s 			page 25


/var/folders/rt/4gvqv631095f64jvm7jfj_000000gn/T//ccOmY9YB.s:4993   .debug_str:00000000000001f9 .LASF28
/var/folders/rt/4gvqv631095f64jvm7jfj_000000gn/T//ccOmY9YB.s:5163   .debug_str:000000000000051b .LASF24
/var/folders/rt/4gvqv631095f64jvm7jfj_000000gn/T//ccOmY9YB.s:5129   .debug_str:0000000000000488 .LASF25
/var/folders/rt/4gvqv631095f64jvm7jfj_000000gn/T//ccOmY9YB.s:4987   .debug_str:00000000000001df .LASF26
/var/folders/rt/4gvqv631095f64jvm7jfj_000000gn/T//ccOmY9YB.s:5195   .debug_str:000000000000068a .LASF27
/var/folders/rt/4gvqv631095f64jvm7jfj_000000gn/T//ccOmY9YB.s:4999   .debug_str:0000000000000212 .LASF29
/var/folders/rt/4gvqv631095f64jvm7jfj_000000gn/T//ccOmY9YB.s:4929   .debug_str:00000000000000c0 .LASF30
/var/folders/rt/4gvqv631095f64jvm7jfj_000000gn/T//ccOmY9YB.s:5219   .debug_str:0000000000000701 .LASF31
/var/folders/rt/4gvqv631095f64jvm7jfj_000000gn/T//ccOmY9YB.s:4945   .debug_str:00000000000000ff .LASF32
/var/folders/rt/4gvqv631095f64jvm7jfj_000000gn/T//ccOmY9YB.s:5237   .debug_str:0000000000000762 .LASF33
/var/folders/rt/4gvqv631095f64jvm7jfj_000000gn/T//ccOmY9YB.s:5059   .debug_str:000000000000032d .LASF34
/var/folders/rt/4gvqv631095f64jvm7jfj_000000gn/T//ccOmY9YB.s:5049   .debug_str:00000000000002f5 .LASF35
/var/folders/rt/4gvqv631095f64jvm7jfj_000000gn/T//ccOmY9YB.s:5141   .debug_str:00000000000004b3 .LASF36
/var/folders/rt/4gvqv631095f64jvm7jfj_000000gn/T//ccOmY9YB.s:5095   .debug_str:00000000000003df .LASF37
/var/folders/rt/4gvqv631095f64jvm7jfj_000000gn/T//ccOmY9YB.s:5215   .debug_str:00000000000006e7 .LASF38
/var/folders/rt/4gvqv631095f64jvm7jfj_000000gn/T//ccOmY9YB.s:4949   .debug_str:000000000000010e .LASF39
/var/folders/rt/4gvqv631095f64jvm7jfj_000000gn/T//ccOmY9YB.s:4901   .debug_str:000000000000001d .LASF40
/var/folders/rt/4gvqv631095f64jvm7jfj_000000gn/T//ccOmY9YB.s:4895   .debug_str:0000000000000000 .LASF41
/var/folders/rt/4gvqv631095f64jvm7jfj_000000gn/T//ccOmY9YB.s:5169   .debug_str:00000000000005b6 .LASF42
/var/folders/rt/4gvqv631095f64jvm7jfj_000000gn/T//ccOmY9YB.s:4963   .debug_str:0000000000000158 .LASF43
/var/folders/rt/4gvqv631095f64jvm7jfj_000000gn/T//ccOmY9YB.s:5061   .debug_str:0000000000000336 .LASF44
/var/folders/rt/4gvqv631095f64jvm7jfj_000000gn/T//ccOmY9YB.s:5119   .debug_str:000000000000044e .LASF45
/var/folders/rt/4gvqv631095f64jvm7jfj_000000gn/T//ccOmY9YB.s:4983   .debug_str:00000000000001cf .LASF46
/var/folders/rt/4gvqv631095f64jvm7jfj_000000gn/T//ccOmY9YB.s:5097   .debug_str:00000000000003e9 .LASF47
/var/folders/rt/4gvqv631095f64jvm7jfj_000000gn/T//ccOmY9YB.s:4943   .debug_str:00000000000000f9 .LASF48
/var/folders/rt/4gvqv631095f64jvm7jfj_000000gn/T//ccOmY9YB.s:5153   .debug_str:00000000000004e6 .LASF49
/var/folders/rt/4gvqv631095f64jvm7jfj_000000gn/T//ccOmY9YB.s:5105   .debug_str:0000000000000406 .LASF50
/var/folders/rt/4gvqv631095f64jvm7jfj_000000gn/T//ccOmY9YB.s:4961   .debug_str:0000000000000151 .LASF51
/var/folders/rt/4gvqv631095f64jvm7jfj_000000gn/T//ccOmY9YB.s:5011   .debug_str:0000000000000250 .LASF52
/var/folders/rt/4gvqv631095f64jvm7jfj_000000gn/T//ccOmY9YB.s:5233   .debug_str:000000000000074d .LASF53
/var/folders/rt/4gvqv631095f64jvm7jfj_000000gn/T//ccOmY9YB.s:4953   .debug_str:0000000000000124 .LASF54
/var/folders/rt/4gvqv631095f64jvm7jfj_000000gn/T//ccOmY9YB.s:4997   .debug_str:000000000000020c .LASF55
/var/folders/rt/4gvqv631095f64jvm7jfj_000000gn/T//ccOmY9YB.s:5047   .debug_str:00000000000002ee .LASF56
/var/folders/rt/4gvqv631095f64jvm7jfj_000000gn/T//ccOmY9YB.s:5139   .debug_str:00000000000004ad .LASF57
/var/folders/rt/4gvqv631095f64jvm7jfj_000000gn/T//ccOmY9YB.s:4935   .debug_str:00000000000000d7 .LASF58
/var/folders/rt/4gvqv631095f64jvm7jfj_000000gn/T//ccOmY9YB.s:4941   .debug_str:00000000000000f3 .LASF59
/var/folders/rt/4gvqv631095f64jvm7jfj_000000gn/T//ccOmY9YB.s:5209   .debug_str:00000000000006ce .LASF60
/var/folders/rt/4gvqv631095f64jvm7jfj_000000gn/T//ccOmY9YB.s:5151   .debug_str:00000000000004dd .LASF61
/var/folders/rt/4gvqv631095f64jvm7jfj_000000gn/T//ccOmY9YB.s:4975   .debug_str:000000000000019a .LASF62
/var/folders/rt/4gvqv631095f64jvm7jfj_000000gn/T//ccOmY9YB.s:5017   .debug_str:0000000000000262 .LASF63
/var/folders/rt/4gvqv631095f64jvm7jfj_000000gn/T//ccOmY9YB.s:5037   .debug_str:00000000000002ba .LASF64
/var/folders/rt/4gvqv631095f64jvm7jfj_000000gn/T//ccOmY9YB.s:5107   .debug_str:000000000000040e .LASF65
/var/folders/rt/4gvqv631095f64jvm7jfj_000000gn/T//ccOmY9YB.s:5099   .debug_str:00000000000003f0 .LASF66
/var/folders/rt/4gvqv631095f64jvm7jfj_000000gn/T//ccOmY9YB.s:5131   .debug_str:0000000000000490 .LASF67
/var/folders/rt/4gvqv631095f64jvm7jfj_000000gn/T//ccOmY9YB.s:5147   .debug_str:00000000000004d1 .LASF68
/var/folders/rt/4gvqv631095f64jvm7jfj_000000gn/T//ccOmY9YB.s:4965   .debug_str:0000000000000160 .LASF69
/var/folders/rt/4gvqv631095f64jvm7jfj_000000gn/T//ccOmY9YB.s:5005   .debug_str:000000000000022e .LASF70
/var/folders/rt/4gvqv631095f64jvm7jfj_000000gn/T//ccOmY9YB.s:4991   .debug_str:00000000000001f1 .LASF71
/var/folders/rt/4gvqv631095f64jvm7jfj_000000gn/T//ccOmY9YB.s:5117   .debug_str:0000000000000449 .LASF72
/var/folders/rt/4gvqv631095f64jvm7jfj_000000gn/T//ccOmY9YB.s:4905   .debug_str:000000000000002d .LASF73
/var/folders/rt/4gvqv631095f64jvm7jfj_000000gn/T//ccOmY9YB.s:5127   .debug_str:000000000000046f .LASF74
/var/folders/rt/4gvqv631095f64jvm7jfj_000000gn/T//ccOmY9YB.s:5123   .debug_str:000000000000045d .LASF75
/var/folders/rt/4gvqv631095f64jvm7jfj_000000gn/T//ccOmY9YB.s:5067   .debug_str:0000000000000355 .LASF76
/var/folders/rt/4gvqv631095f64jvm7jfj_000000gn/T//ccOmY9YB.s:5125   .debug_str:0000000000000465 .LASF77
/var/folders/rt/4gvqv631095f64jvm7jfj_000000gn/T//ccOmY9YB.s:5029   .debug_str:00000000000002a0 .LASF78
/var/folders/rt/4gvqv631095f64jvm7jfj_000000gn/T//ccOmY9YB.s:4969   .debug_str:000000000000017a .LASF79
/var/folders/rt/4gvqv631095f64jvm7jfj_000000gn/T//ccOmY9YB.s:5229   .debug_str:0000000000000743 .LASF80
GAS LISTING /var/folders/rt/4gvqv631095f64jvm7jfj_000000gn/T//ccOmY9YB.s 			page 26


/var/folders/rt/4gvqv631095f64jvm7jfj_000000gn/T//ccOmY9YB.s:5077   .debug_str:0000000000000384 .LASF81
/var/folders/rt/4gvqv631095f64jvm7jfj_000000gn/T//ccOmY9YB.s:5007   .debug_str:0000000000000236 .LASF82
/var/folders/rt/4gvqv631095f64jvm7jfj_000000gn/T//ccOmY9YB.s:4973   .debug_str:0000000000000192 .LASF83
/var/folders/rt/4gvqv631095f64jvm7jfj_000000gn/T//ccOmY9YB.s:5035   .debug_str:00000000000002b5 .LASF84
/var/folders/rt/4gvqv631095f64jvm7jfj_000000gn/T//ccOmY9YB.s:4909   .debug_str:0000000000000040 .LASF85
/var/folders/rt/4gvqv631095f64jvm7jfj_000000gn/T//ccOmY9YB.s:5205   .debug_str:00000000000006ba .LASF86
/var/folders/rt/4gvqv631095f64jvm7jfj_000000gn/T//ccOmY9YB.s:4955   .debug_str:000000000000012c .LASF87
/var/folders/rt/4gvqv631095f64jvm7jfj_000000gn/T//ccOmY9YB.s:4947   .debug_str:0000000000000109 .LASF88
/var/folders/rt/4gvqv631095f64jvm7jfj_000000gn/T//ccOmY9YB.s:5149   .debug_str:00000000000004d8 .LASF89
/var/folders/rt/4gvqv631095f64jvm7jfj_000000gn/T//ccOmY9YB.s:5103   .debug_str:00000000000003ff .LASF90
/var/folders/rt/4gvqv631095f64jvm7jfj_000000gn/T//ccOmY9YB.s:5197   .debug_str:000000000000068f .LASF91
/var/folders/rt/4gvqv631095f64jvm7jfj_000000gn/T//ccOmY9YB.s:5019   .debug_str:0000000000000268 .LASF92
/var/folders/rt/4gvqv631095f64jvm7jfj_000000gn/T//ccOmY9YB.s:5089   .debug_str:00000000000003c7 .LASF93
/var/folders/rt/4gvqv631095f64jvm7jfj_000000gn/T//ccOmY9YB.s:4903   .debug_str:0000000000000025 .LASF94
/var/folders/rt/4gvqv631095f64jvm7jfj_000000gn/T//ccOmY9YB.s:5133   .debug_str:0000000000000497 .LASF95
/var/folders/rt/4gvqv631095f64jvm7jfj_000000gn/T//ccOmY9YB.s:5039   .debug_str:00000000000002c0 .LASF96
/var/folders/rt/4gvqv631095f64jvm7jfj_000000gn/T//ccOmY9YB.s:5177   .debug_str:0000000000000627 .LASF97
/var/folders/rt/4gvqv631095f64jvm7jfj_000000gn/T//ccOmY9YB.s:5191   .debug_str:000000000000066d .LASF98
/var/folders/rt/4gvqv631095f64jvm7jfj_000000gn/T//ccOmY9YB.s:5165   .debug_str:0000000000000521 .LASF99
/var/folders/rt/4gvqv631095f64jvm7jfj_000000gn/T//ccOmY9YB.s:5027   .debug_str:0000000000000293 .LASF100
/var/folders/rt/4gvqv631095f64jvm7jfj_000000gn/T//ccOmY9YB.s:5217   .debug_str:00000000000006f2 .LASF101
/var/folders/rt/4gvqv631095f64jvm7jfj_000000gn/T//ccOmY9YB.s:5069   .debug_str:0000000000000360 .LASF102
/var/folders/rt/4gvqv631095f64jvm7jfj_000000gn/T//ccOmY9YB.s:5023   .debug_str:000000000000027c .LASF103
/var/folders/rt/4gvqv631095f64jvm7jfj_000000gn/T//ccOmY9YB.s:5055   .debug_str:000000000000030f .LASF104
/var/folders/rt/4gvqv631095f64jvm7jfj_000000gn/T//ccOmY9YB.s:5065   .debug_str:0000000000000348 .LASF105
/var/folders/rt/4gvqv631095f64jvm7jfj_000000gn/T//ccOmY9YB.s:5227   .debug_str:0000000000000735 .LASF106
/var/folders/rt/4gvqv631095f64jvm7jfj_000000gn/T//ccOmY9YB.s:4927   .debug_str:00000000000000b2 .LASF107
/var/folders/rt/4gvqv631095f64jvm7jfj_000000gn/T//ccOmY9YB.s:5203   .debug_str:00000000000006b0 .LASF108
/var/folders/rt/4gvqv631095f64jvm7jfj_000000gn/T//ccOmY9YB.s:5025   .debug_str:0000000000000287 .LASF109
/var/folders/rt/4gvqv631095f64jvm7jfj_000000gn/T//ccOmY9YB.s:5183   .debug_str:000000000000063b .LASF110
/var/folders/rt/4gvqv631095f64jvm7jfj_000000gn/T//ccOmY9YB.s:4981   .debug_str:00000000000001c1 .LASF111
/var/folders/rt/4gvqv631095f64jvm7jfj_000000gn/T//ccOmY9YB.s:4925   .debug_str:00000000000000a3 .LASF112
/var/folders/rt/4gvqv631095f64jvm7jfj_000000gn/T//ccOmY9YB.s:4979   .debug_str:00000000000001b0 .LASF113
/var/folders/rt/4gvqv631095f64jvm7jfj_000000gn/T//ccOmY9YB.s:4913   .debug_str:000000000000004e .LASF114
/var/folders/rt/4gvqv631095f64jvm7jfj_000000gn/T//ccOmY9YB.s:4915   .debug_str:000000000000005d .LASF115
/var/folders/rt/4gvqv631095f64jvm7jfj_000000gn/T//ccOmY9YB.s:5091   .debug_str:00000000000003cd .LASF116
/var/folders/rt/4gvqv631095f64jvm7jfj_000000gn/T//ccOmY9YB.s:5053   .debug_str:0000000000000308 .LASF117
/var/folders/rt/4gvqv631095f64jvm7jfj_000000gn/T//ccOmY9YB.s:5051   .debug_str:00000000000002ff .LASF118
/var/folders/rt/4gvqv631095f64jvm7jfj_000000gn/T//ccOmY9YB.s:5211   .debug_str:00000000000006d4 .LASF119
/var/folders/rt/4gvqv631095f64jvm7jfj_000000gn/T//ccOmY9YB.s:4923   .debug_str:0000000000000098 .LASF170
/var/folders/rt/4gvqv631095f64jvm7jfj_000000gn/T//ccOmY9YB.s:4989   .debug_str:00000000000001e5 .LASF121
/var/folders/rt/4gvqv631095f64jvm7jfj_000000gn/T//ccOmY9YB.s:5187   .debug_str:0000000000000651 .LASF122
/var/folders/rt/4gvqv631095f64jvm7jfj_000000gn/T//ccOmY9YB.s:5063   .debug_str:000000000000033e .LASF123
/var/folders/rt/4gvqv631095f64jvm7jfj_000000gn/T//ccOmY9YB.s:4917   .debug_str:000000000000006e .LASF124
/var/folders/rt/4gvqv631095f64jvm7jfj_000000gn/T//ccOmY9YB.s:5121   .debug_str:0000000000000453 .LASF125
/var/folders/rt/4gvqv631095f64jvm7jfj_000000gn/T//ccOmY9YB.s:4921   .debug_str:0000000000000090 .LASF126
/var/folders/rt/4gvqv631095f64jvm7jfj_000000gn/T//ccOmY9YB.s:5113   .debug_str:000000000000042f .LASF127
/var/folders/rt/4gvqv631095f64jvm7jfj_000000gn/T//ccOmY9YB.s:5015   .debug_str:000000000000025d .LASF128
/var/folders/rt/4gvqv631095f64jvm7jfj_000000gn/T//ccOmY9YB.s:4977   .debug_str:00000000000001a2 .LASF129
/var/folders/rt/4gvqv631095f64jvm7jfj_000000gn/T//ccOmY9YB.s:4939   .debug_str:00000000000000ea .LASF130
/var/folders/rt/4gvqv631095f64jvm7jfj_000000gn/T//ccOmY9YB.s:4959   .debug_str:000000000000013d .LASF131
/var/folders/rt/4gvqv631095f64jvm7jfj_000000gn/T//ccOmY9YB.s:5057   .debug_str:0000000000000314 .LASF132
/var/folders/rt/4gvqv631095f64jvm7jfj_000000gn/T//ccOmY9YB.s:5081   .debug_str:0000000000000399 .LASF133
/var/folders/rt/4gvqv631095f64jvm7jfj_000000gn/T//ccOmY9YB.s:5109   .debug_str:0000000000000417 .LASF134
/var/folders/rt/4gvqv631095f64jvm7jfj_000000gn/T//ccOmY9YB.s:4995   .debug_str:0000000000000201 .LASF135
/var/folders/rt/4gvqv631095f64jvm7jfj_000000gn/T//ccOmY9YB.s:5231   .debug_str:0000000000000748 .LASF171
/var/folders/rt/4gvqv631095f64jvm7jfj_000000gn/T//ccOmY9YB.s:581    .text.startup.main:0000000000000000 .LFB10
GAS LISTING /var/folders/rt/4gvqv631095f64jvm7jfj_000000gn/T//ccOmY9YB.s 			page 27


/var/folders/rt/4gvqv631095f64jvm7jfj_000000gn/T//ccOmY9YB.s:751    .text.startup.main:0000000000000152 .LFE10
/var/folders/rt/4gvqv631095f64jvm7jfj_000000gn/T//ccOmY9YB.s:4333   .debug_loc:0000000000000000 .LLST16
/var/folders/rt/4gvqv631095f64jvm7jfj_000000gn/T//ccOmY9YB.s:4351   .debug_loc:000000000000002e .LLST17
/var/folders/rt/4gvqv631095f64jvm7jfj_000000gn/T//ccOmY9YB.s:5075   .debug_str:000000000000037f .LASF136
/var/folders/rt/4gvqv631095f64jvm7jfj_000000gn/T//ccOmY9YB.s:4382   .debug_loc:000000000000007c .LLST18
/var/folders/rt/4gvqv631095f64jvm7jfj_000000gn/T//ccOmY9YB.s:5045   .debug_str:00000000000002e4 .LASF137
/var/folders/rt/4gvqv631095f64jvm7jfj_000000gn/T//ccOmY9YB.s:5111   .debug_str:0000000000000420 .LASF138
/var/folders/rt/4gvqv631095f64jvm7jfj_000000gn/T//ccOmY9YB.s:611    .text.startup.main:000000000000002c .LVL55
/var/folders/rt/4gvqv631095f64jvm7jfj_000000gn/T//ccOmY9YB.s:614    .text.startup.main:0000000000000034 .LVL56
/var/folders/rt/4gvqv631095f64jvm7jfj_000000gn/T//ccOmY9YB.s:617    .text.startup.main:000000000000003c .LVL57
/var/folders/rt/4gvqv631095f64jvm7jfj_000000gn/T//ccOmY9YB.s:620    .text.startup.main:0000000000000044 .LVL58
/var/folders/rt/4gvqv631095f64jvm7jfj_000000gn/T//ccOmY9YB.s:624    .text.startup.main:000000000000004e .LVL59
/var/folders/rt/4gvqv631095f64jvm7jfj_000000gn/T//ccOmY9YB.s:628    .text.startup.main:0000000000000058 .LVL60
/var/folders/rt/4gvqv631095f64jvm7jfj_000000gn/T//ccOmY9YB.s:632    .text.startup.main:0000000000000062 .LVL61
/var/folders/rt/4gvqv631095f64jvm7jfj_000000gn/T//ccOmY9YB.s:635    .text.startup.main:000000000000006a .LVL62
/var/folders/rt/4gvqv631095f64jvm7jfj_000000gn/T//ccOmY9YB.s:643    .text.startup.main:0000000000000080 .LVL63
/var/folders/rt/4gvqv631095f64jvm7jfj_000000gn/T//ccOmY9YB.s:669    .text.startup.main:00000000000000bc .LVL64
/var/folders/rt/4gvqv631095f64jvm7jfj_000000gn/T//ccOmY9YB.s:675    .text.startup.main:00000000000000cc .LVL65
/var/folders/rt/4gvqv631095f64jvm7jfj_000000gn/T//ccOmY9YB.s:683    .text.startup.main:00000000000000e2 .LVL66
/var/folders/rt/4gvqv631095f64jvm7jfj_000000gn/T//ccOmY9YB.s:704    .text.startup.main:00000000000000f6 .LVL70
/var/folders/rt/4gvqv631095f64jvm7jfj_000000gn/T//ccOmY9YB.s:709    .text.startup.main:0000000000000100 .LVL71
/var/folders/rt/4gvqv631095f64jvm7jfj_000000gn/T//ccOmY9YB.s:715    .text.startup.main:000000000000010a .LVL73
/var/folders/rt/4gvqv631095f64jvm7jfj_000000gn/T//ccOmY9YB.s:726    .text.startup.main:0000000000000122 .LVL74
/var/folders/rt/4gvqv631095f64jvm7jfj_000000gn/T//ccOmY9YB.s:732    .text.startup.main:0000000000000134 .LVL75
/var/folders/rt/4gvqv631095f64jvm7jfj_000000gn/T//ccOmY9YB.s:742    .text.startup.main:0000000000000144 .LVL77
/var/folders/rt/4gvqv631095f64jvm7jfj_000000gn/T//ccOmY9YB.s:747    .text.startup.main:0000000000000150 .LVL78
/var/folders/rt/4gvqv631095f64jvm7jfj_000000gn/T//ccOmY9YB.s:4967   .debug_str:0000000000000167 .LASF142
/var/folders/rt/4gvqv631095f64jvm7jfj_000000gn/T//ccOmY9YB.s:392    .text.updatePlantReading:0000000000000000 .LFB9
/var/folders/rt/4gvqv631095f64jvm7jfj_000000gn/T//ccOmY9YB.s:574    .text.updatePlantReading:000000000000010a .LFE9
/var/folders/rt/4gvqv631095f64jvm7jfj_000000gn/T//ccOmY9YB.s:4399   .debug_loc:00000000000000a7 .LLST9
/var/folders/rt/4gvqv631095f64jvm7jfj_000000gn/T//ccOmY9YB.s:4422   .debug_loc:00000000000000e1 .LLST10
/var/folders/rt/4gvqv631095f64jvm7jfj_000000gn/T//ccOmY9YB.s:4436   .debug_loc:0000000000000102 .LLST11
/var/folders/rt/4gvqv631095f64jvm7jfj_000000gn/T//ccOmY9YB.s:4458   .debug_loc:0000000000000139 .LLST12
/var/folders/rt/4gvqv631095f64jvm7jfj_000000gn/T//ccOmY9YB.s:4911   .debug_str:0000000000000049 .LASF139
/var/folders/rt/4gvqv631095f64jvm7jfj_000000gn/T//ccOmY9YB.s:4513   .debug_loc:00000000000001bb .LLST13
/var/folders/rt/4gvqv631095f64jvm7jfj_000000gn/T//ccOmY9YB.s:4568   .debug_loc:000000000000023d .LLST14
/var/folders/rt/4gvqv631095f64jvm7jfj_000000gn/T//ccOmY9YB.s:5199   .debug_str:0000000000000695 .LASF140
/var/folders/rt/4gvqv631095f64jvm7jfj_000000gn/T//ccOmY9YB.s:5021   .debug_str:000000000000026f .LASF141
/var/folders/rt/4gvqv631095f64jvm7jfj_000000gn/T//ccOmY9YB.s:4584   .debug_loc:0000000000000267 .LLST15
/var/folders/rt/4gvqv631095f64jvm7jfj_000000gn/T//ccOmY9YB.s:471    .text.updatePlantReading:000000000000006a .LVL40
/var/folders/rt/4gvqv631095f64jvm7jfj_000000gn/T//ccOmY9YB.s:478    .text.updatePlantReading:000000000000007c .LVL41
/var/folders/rt/4gvqv631095f64jvm7jfj_000000gn/T//ccOmY9YB.s:505    .text.updatePlantReading:00000000000000b6 .LVL43
/var/folders/rt/4gvqv631095f64jvm7jfj_000000gn/T//ccOmY9YB.s:547    .text.updatePlantReading:00000000000000e4 .LVL49
/var/folders/rt/4gvqv631095f64jvm7jfj_000000gn/T//ccOmY9YB.s:457    .text.updatePlantReading:0000000000000056 .LVL38
/var/folders/rt/4gvqv631095f64jvm7jfj_000000gn/T//ccOmY9YB.s:436    .text.updatePlantReading:000000000000002e .LVL36
/var/folders/rt/4gvqv631095f64jvm7jfj_000000gn/T//ccOmY9YB.s:562    .text.updatePlantReading:0000000000000100 .LVL51
/var/folders/rt/4gvqv631095f64jvm7jfj_000000gn/T//ccOmY9YB.s:5221   .debug_str:000000000000070a .LASF143
/var/folders/rt/4gvqv631095f64jvm7jfj_000000gn/T//ccOmY9YB.s:379    .text.updatePlantStatus:0000000000000000 .LFB8
/var/folders/rt/4gvqv631095f64jvm7jfj_000000gn/T//ccOmY9YB.s:385    .text.updatePlantStatus:0000000000000002 .LFE8
/var/folders/rt/4gvqv631095f64jvm7jfj_000000gn/T//ccOmY9YB.s:5041   .debug_str:00000000000002c6 .LASF144
/var/folders/rt/4gvqv631095f64jvm7jfj_000000gn/T//ccOmY9YB.s:5161   .debug_str:000000000000050c .LASF145
/var/folders/rt/4gvqv631095f64jvm7jfj_000000gn/T//ccOmY9YB.s:178    .text.renderOnePlant:0000000000000000 .LFB7
/var/folders/rt/4gvqv631095f64jvm7jfj_000000gn/T//ccOmY9YB.s:372    .text.renderOnePlant:000000000000014e .LFE7
/var/folders/rt/4gvqv631095f64jvm7jfj_000000gn/T//ccOmY9YB.s:4617   .debug_loc:000000000000029d .LLST4
/var/folders/rt/4gvqv631095f64jvm7jfj_000000gn/T//ccOmY9YB.s:4640   .debug_loc:00000000000002d5 .LLST5
/var/folders/rt/4gvqv631095f64jvm7jfj_000000gn/T//ccOmY9YB.s:4654   .debug_loc:00000000000002f6 .LLST6
/var/folders/rt/4gvqv631095f64jvm7jfj_000000gn/T//ccOmY9YB.s:4676   .debug_loc:000000000000032d .LLST7
GAS LISTING /var/folders/rt/4gvqv631095f64jvm7jfj_000000gn/T//ccOmY9YB.s 			page 28


/var/folders/rt/4gvqv631095f64jvm7jfj_000000gn/T//ccOmY9YB.s:4719   .debug_loc:0000000000000395 .LLST8
/var/folders/rt/4gvqv631095f64jvm7jfj_000000gn/T//ccOmY9YB.s:230    .text.renderOnePlant:000000000000003c .LVL16
/var/folders/rt/4gvqv631095f64jvm7jfj_000000gn/T//ccOmY9YB.s:246    .text.renderOnePlant:000000000000005c .LVL19
/var/folders/rt/4gvqv631095f64jvm7jfj_000000gn/T//ccOmY9YB.s:261    .text.renderOnePlant:0000000000000078 .LVL20
/var/folders/rt/4gvqv631095f64jvm7jfj_000000gn/T//ccOmY9YB.s:271    .text.renderOnePlant:0000000000000092 .LVL22
/var/folders/rt/4gvqv631095f64jvm7jfj_000000gn/T//ccOmY9YB.s:286    .text.renderOnePlant:00000000000000b0 .LVL23
/var/folders/rt/4gvqv631095f64jvm7jfj_000000gn/T//ccOmY9YB.s:302    .text.renderOnePlant:00000000000000d2 .LVL24
/var/folders/rt/4gvqv631095f64jvm7jfj_000000gn/T//ccOmY9YB.s:310    .text.renderOnePlant:00000000000000ea .LVL25
/var/folders/rt/4gvqv631095f64jvm7jfj_000000gn/T//ccOmY9YB.s:318    .text.renderOnePlant:0000000000000104 .LVL26
/var/folders/rt/4gvqv631095f64jvm7jfj_000000gn/T//ccOmY9YB.s:333    .text.renderOnePlant:0000000000000126 .LVL27
/var/folders/rt/4gvqv631095f64jvm7jfj_000000gn/T//ccOmY9YB.s:361    .text.renderOnePlant:000000000000014a .LVL30
/var/folders/rt/4gvqv631095f64jvm7jfj_000000gn/T//ccOmY9YB.s:5043   .debug_str:00000000000002d4 .LASF146
/var/folders/rt/4gvqv631095f64jvm7jfj_000000gn/T//ccOmY9YB.s:14     .text.renderAllPlants:0000000000000000 .LFB6
/var/folders/rt/4gvqv631095f64jvm7jfj_000000gn/T//ccOmY9YB.s:171    .text.renderAllPlants:00000000000000e0 .LFE6
/var/folders/rt/4gvqv631095f64jvm7jfj_000000gn/T//ccOmY9YB.s:4735   .debug_loc:00000000000003bf .LLST0
/var/folders/rt/4gvqv631095f64jvm7jfj_000000gn/T//ccOmY9YB.s:4758   .debug_loc:00000000000003f7 .LLST1
/var/folders/rt/4gvqv631095f64jvm7jfj_000000gn/T//ccOmY9YB.s:4772   .debug_loc:0000000000000418 .LLST2
/var/folders/rt/4gvqv631095f64jvm7jfj_000000gn/T//ccOmY9YB.s:4794   .debug_loc:000000000000044f .LLST3
/var/folders/rt/4gvqv631095f64jvm7jfj_000000gn/T//ccOmY9YB.s:109    .text.renderAllPlants:0000000000000058 .LVL6
/var/folders/rt/4gvqv631095f64jvm7jfj_000000gn/T//ccOmY9YB.s:125    .text.renderAllPlants:0000000000000074 .LVL7
/var/folders/rt/4gvqv631095f64jvm7jfj_000000gn/T//ccOmY9YB.s:134    .text.renderAllPlants:000000000000008c .LVL8
/var/folders/rt/4gvqv631095f64jvm7jfj_000000gn/T//ccOmY9YB.s:150    .text.renderAllPlants:00000000000000ac .LVL9
/var/folders/rt/4gvqv631095f64jvm7jfj_000000gn/T//ccOmY9YB.s:158    .text.renderAllPlants:00000000000000c2 .LVL10
/var/folders/rt/4gvqv631095f64jvm7jfj_000000gn/T//ccOmY9YB.s:166    .text.renderAllPlants:00000000000000da .LVL11
/var/folders/rt/4gvqv631095f64jvm7jfj_000000gn/T//ccOmY9YB.s:5179   .debug_str:000000000000062c .LASF147
/var/folders/rt/4gvqv631095f64jvm7jfj_000000gn/T//ccOmY9YB.s:4951   .debug_str:000000000000011c .LASF148
/var/folders/rt/4gvqv631095f64jvm7jfj_000000gn/T//ccOmY9YB.s:5085   .debug_str:00000000000003b1 .LASF149
/var/folders/rt/4gvqv631095f64jvm7jfj_000000gn/T//ccOmY9YB.s:4907   .debug_str:0000000000000038 .LASF150
/var/folders/rt/4gvqv631095f64jvm7jfj_000000gn/T//ccOmY9YB.s:5223   .debug_str:000000000000071c .LASF151
/var/folders/rt/4gvqv631095f64jvm7jfj_000000gn/T//ccOmY9YB.s:5193   .debug_str:000000000000067a .LASF152
/var/folders/rt/4gvqv631095f64jvm7jfj_000000gn/T//ccOmY9YB.s:5115   .debug_str:000000000000043d .LASF153
/var/folders/rt/4gvqv631095f64jvm7jfj_000000gn/T//ccOmY9YB.s:5225   .debug_str:000000000000072c .LASF154
/var/folders/rt/4gvqv631095f64jvm7jfj_000000gn/T//ccOmY9YB.s:5071   .debug_str:000000000000036f .LASF155
/var/folders/rt/4gvqv631095f64jvm7jfj_000000gn/T//ccOmY9YB.s:5207   .debug_str:00000000000006c4 .LASF156
/var/folders/rt/4gvqv631095f64jvm7jfj_000000gn/T//ccOmY9YB.s:5101   .debug_str:00000000000003f8 .LASF157
/var/folders/rt/4gvqv631095f64jvm7jfj_000000gn/T//ccOmY9YB.s:4931   .debug_str:00000000000000c9 .LASF158
/var/folders/rt/4gvqv631095f64jvm7jfj_000000gn/T//ccOmY9YB.s:5157   .debug_str:00000000000004f9 .LASF159
/var/folders/rt/4gvqv631095f64jvm7jfj_000000gn/T//ccOmY9YB.s:5013   .debug_str:0000000000000256 .LASF160
/var/folders/rt/4gvqv631095f64jvm7jfj_000000gn/T//ccOmY9YB.s:5173   .debug_str:0000000000000602 .LASF161
/var/folders/rt/4gvqv631095f64jvm7jfj_000000gn/T//ccOmY9YB.s:5213   .debug_str:00000000000006dc .LASF162
/var/folders/rt/4gvqv631095f64jvm7jfj_000000gn/T//ccOmY9YB.s:5185   .debug_str:0000000000000648 .LASF163
/var/folders/rt/4gvqv631095f64jvm7jfj_000000gn/T//ccOmY9YB.s:4899   .debug_str:0000000000000016 .LASF164
/var/folders/rt/4gvqv631095f64jvm7jfj_000000gn/T//ccOmY9YB.s:5159   .debug_str:0000000000000500 .LASF165
/var/folders/rt/4gvqv631095f64jvm7jfj_000000gn/T//ccOmY9YB.s:5235   .debug_str:0000000000000756 .LASF166
/var/folders/rt/4gvqv631095f64jvm7jfj_000000gn/T//ccOmY9YB.s:590    .text.startup.main:0000000000000006 .LCFI9
/var/folders/rt/4gvqv631095f64jvm7jfj_000000gn/T//ccOmY9YB.s:600    .text.startup.main:0000000000000024 .LCFI10
/var/folders/rt/4gvqv631095f64jvm7jfj_000000gn/T//ccOmY9YB.s:585    .text.startup.main:0000000000000000 .LVL54
/var/folders/rt/4gvqv631095f64jvm7jfj_000000gn/T//ccOmY9YB.s:690    .text.startup.main:00000000000000ea .LVL67
/var/folders/rt/4gvqv631095f64jvm7jfj_000000gn/T//ccOmY9YB.s:694    .text.startup.main:00000000000000ec .LVL68
/var/folders/rt/4gvqv631095f64jvm7jfj_000000gn/T//ccOmY9YB.s:712    .text.startup.main:0000000000000102 .LVL72
/var/folders/rt/4gvqv631095f64jvm7jfj_000000gn/T//ccOmY9YB.s:736    .text.startup.main:0000000000000136 .LVL76
/var/folders/rt/4gvqv631095f64jvm7jfj_000000gn/T//ccOmY9YB.s:402    .text.updatePlantReading:0000000000000002 .LCFI6
/var/folders/rt/4gvqv631095f64jvm7jfj_000000gn/T//ccOmY9YB.s:530    .text.updatePlantReading:00000000000000cc .LCFI7
/var/folders/rt/4gvqv631095f64jvm7jfj_000000gn/T//ccOmY9YB.s:535    .text.updatePlantReading:00000000000000ce .LCFI8
/var/folders/rt/4gvqv631095f64jvm7jfj_000000gn/T//ccOmY9YB.s:395    .text.updatePlantReading:0000000000000000 .LVL32
/var/folders/rt/4gvqv631095f64jvm7jfj_000000gn/T//ccOmY9YB.s:422    .text.updatePlantReading:0000000000000014 .LVL33
/var/folders/rt/4gvqv631095f64jvm7jfj_000000gn/T//ccOmY9YB.s:526    .text.updatePlantReading:00000000000000c8 .LVL46
GAS LISTING /var/folders/rt/4gvqv631095f64jvm7jfj_000000gn/T//ccOmY9YB.s 			page 29


/var/folders/rt/4gvqv631095f64jvm7jfj_000000gn/T//ccOmY9YB.s:533    .text.updatePlantReading:00000000000000ce .LVL47
/var/folders/rt/4gvqv631095f64jvm7jfj_000000gn/T//ccOmY9YB.s:432    .text.updatePlantReading:0000000000000022 .LVL35
/var/folders/rt/4gvqv631095f64jvm7jfj_000000gn/T//ccOmY9YB.s:446    .text.updatePlantReading:0000000000000046 .LVL37
/var/folders/rt/4gvqv631095f64jvm7jfj_000000gn/T//ccOmY9YB.s:462    .text.updatePlantReading:000000000000005c .LVL39
/var/folders/rt/4gvqv631095f64jvm7jfj_000000gn/T//ccOmY9YB.s:511    .text.updatePlantReading:00000000000000c0 .LVL44
/var/folders/rt/4gvqv631095f64jvm7jfj_000000gn/T//ccOmY9YB.s:556    .text.updatePlantReading:00000000000000f8 .LVL50
/var/folders/rt/4gvqv631095f64jvm7jfj_000000gn/T//ccOmY9YB.s:564    .text.updatePlantReading:0000000000000102 .LVL52
/var/folders/rt/4gvqv631095f64jvm7jfj_000000gn/T//ccOmY9YB.s:430    .text.updatePlantReading:000000000000001e .LVL34
/var/folders/rt/4gvqv631095f64jvm7jfj_000000gn/T//ccOmY9YB.s:523    .text.updatePlantReading:00000000000000c6 .LVL45
/var/folders/rt/4gvqv631095f64jvm7jfj_000000gn/T//ccOmY9YB.s:493    .text.updatePlantReading:0000000000000098 .LVL42
/var/folders/rt/4gvqv631095f64jvm7jfj_000000gn/T//ccOmY9YB.s:545    .text.updatePlantReading:00000000000000dc .LVL48
/var/folders/rt/4gvqv631095f64jvm7jfj_000000gn/T//ccOmY9YB.s:188    .text.renderOnePlant:0000000000000002 .LCFI3
/var/folders/rt/4gvqv631095f64jvm7jfj_000000gn/T//ccOmY9YB.s:357    .text.renderOnePlant:0000000000000142 .LCFI4
/var/folders/rt/4gvqv631095f64jvm7jfj_000000gn/T//ccOmY9YB.s:363    .text.renderOnePlant:000000000000014a .LCFI5
/var/folders/rt/4gvqv631095f64jvm7jfj_000000gn/T//ccOmY9YB.s:181    .text.renderOnePlant:0000000000000000 .LVL12
/var/folders/rt/4gvqv631095f64jvm7jfj_000000gn/T//ccOmY9YB.s:206    .text.renderOnePlant:0000000000000012 .LVL13
/var/folders/rt/4gvqv631095f64jvm7jfj_000000gn/T//ccOmY9YB.s:355    .text.renderOnePlant:0000000000000140 .LVL29
/var/folders/rt/4gvqv631095f64jvm7jfj_000000gn/T//ccOmY9YB.s:214    .text.renderOnePlant:000000000000001c .LVL14
/var/folders/rt/4gvqv631095f64jvm7jfj_000000gn/T//ccOmY9YB.s:221    .text.renderOnePlant:000000000000002e .LVL15
/var/folders/rt/4gvqv631095f64jvm7jfj_000000gn/T//ccOmY9YB.s:237    .text.renderOnePlant:0000000000000048 .LVL17
/var/folders/rt/4gvqv631095f64jvm7jfj_000000gn/T//ccOmY9YB.s:243    .text.renderOnePlant:0000000000000052 .LVL18
/var/folders/rt/4gvqv631095f64jvm7jfj_000000gn/T//ccOmY9YB.s:340    .text.renderOnePlant:0000000000000136 .LVL28
/var/folders/rt/4gvqv631095f64jvm7jfj_000000gn/T//ccOmY9YB.s:264    .text.renderOnePlant:000000000000007c .LVL21
/var/folders/rt/4gvqv631095f64jvm7jfj_000000gn/T//ccOmY9YB.s:25     .text.renderAllPlants:0000000000000002 .LCFI0
/var/folders/rt/4gvqv631095f64jvm7jfj_000000gn/T//ccOmY9YB.s:89     .text.renderAllPlants:000000000000003e .LCFI1
/var/folders/rt/4gvqv631095f64jvm7jfj_000000gn/T//ccOmY9YB.s:94     .text.renderAllPlants:0000000000000040 .LCFI2
/var/folders/rt/4gvqv631095f64jvm7jfj_000000gn/T//ccOmY9YB.s:18     .text.renderAllPlants:0000000000000000 .LVL0
/var/folders/rt/4gvqv631095f64jvm7jfj_000000gn/T//ccOmY9YB.s:61     .text.renderAllPlants:0000000000000026 .LVL1
/var/folders/rt/4gvqv631095f64jvm7jfj_000000gn/T//ccOmY9YB.s:85     .text.renderAllPlants:000000000000003a .LVL3
/var/folders/rt/4gvqv631095f64jvm7jfj_000000gn/T//ccOmY9YB.s:92     .text.renderAllPlants:0000000000000040 .LVL4
/var/folders/rt/4gvqv631095f64jvm7jfj_000000gn/T//ccOmY9YB.s:80     .text.renderAllPlants:0000000000000036 .LVL2
/var/folders/rt/4gvqv631095f64jvm7jfj_000000gn/T//ccOmY9YB.s:105    .text.renderAllPlants:000000000000004e .LVL5
/var/folders/rt/4gvqv631095f64jvm7jfj_000000gn/T//ccOmY9YB.s:797    .debug_info:0000000000000000 .Ldebug_info0
/var/folders/rt/4gvqv631095f64jvm7jfj_000000gn/T//ccOmY9YB.s:20     .text.renderAllPlants:0000000000000000 .LBB2
/var/folders/rt/4gvqv631095f64jvm7jfj_000000gn/T//ccOmY9YB.s:22     .text.renderAllPlants:0000000000000000 .LBE2
/var/folders/rt/4gvqv631095f64jvm7jfj_000000gn/T//ccOmY9YB.s:29     .text.renderAllPlants:0000000000000004 .LBB3
/var/folders/rt/4gvqv631095f64jvm7jfj_000000gn/T//ccOmY9YB.s:32     .text.renderAllPlants:0000000000000006 .LBE3
/var/folders/rt/4gvqv631095f64jvm7jfj_000000gn/T//ccOmY9YB.s:53     .text.renderAllPlants:000000000000001a .LBB4
/var/folders/rt/4gvqv631095f64jvm7jfj_000000gn/T//ccOmY9YB.s:65     .text.renderAllPlants:000000000000002a .LBE4
/var/folders/rt/4gvqv631095f64jvm7jfj_000000gn/T//ccOmY9YB.s:96     .text.renderAllPlants:0000000000000040 .LBB5
/var/folders/rt/4gvqv631095f64jvm7jfj_000000gn/T//ccOmY9YB.s:169    .text.renderAllPlants:00000000000000e0 .LBE5
/var/folders/rt/4gvqv631095f64jvm7jfj_000000gn/T//ccOmY9YB.s:183    .text.renderOnePlant:0000000000000000 .LBB6
/var/folders/rt/4gvqv631095f64jvm7jfj_000000gn/T//ccOmY9YB.s:185    .text.renderOnePlant:0000000000000000 .LBE6
/var/folders/rt/4gvqv631095f64jvm7jfj_000000gn/T//ccOmY9YB.s:203    .text.renderOnePlant:0000000000000010 .LBB7
/var/folders/rt/4gvqv631095f64jvm7jfj_000000gn/T//ccOmY9YB.s:210    .text.renderOnePlant:0000000000000016 .LBE7
/var/folders/rt/4gvqv631095f64jvm7jfj_000000gn/T//ccOmY9YB.s:223    .text.renderOnePlant:000000000000002e .LBB8
/var/folders/rt/4gvqv631095f64jvm7jfj_000000gn/T//ccOmY9YB.s:342    .text.renderOnePlant:0000000000000136 .LBE8
/var/folders/rt/4gvqv631095f64jvm7jfj_000000gn/T//ccOmY9YB.s:365    .text.renderOnePlant:000000000000014a .LBB9
/var/folders/rt/4gvqv631095f64jvm7jfj_000000gn/T//ccOmY9YB.s:370    .text.renderOnePlant:000000000000014e .LBE9
/var/folders/rt/4gvqv631095f64jvm7jfj_000000gn/T//ccOmY9YB.s:397    .text.updatePlantReading:0000000000000000 .LBB10
/var/folders/rt/4gvqv631095f64jvm7jfj_000000gn/T//ccOmY9YB.s:399    .text.updatePlantReading:0000000000000000 .LBE10
/var/folders/rt/4gvqv631095f64jvm7jfj_000000gn/T//ccOmY9YB.s:417    .text.updatePlantReading:0000000000000010 .LBB13
/var/folders/rt/4gvqv631095f64jvm7jfj_000000gn/T//ccOmY9YB.s:426    .text.updatePlantReading:0000000000000018 .LBE13
/var/folders/rt/4gvqv631095f64jvm7jfj_000000gn/T//ccOmY9YB.s:448    .text.updatePlantReading:0000000000000046 .LBB14
/var/folders/rt/4gvqv631095f64jvm7jfj_000000gn/T//ccOmY9YB.s:514    .text.updatePlantReading:00000000000000c0 .LBE14
/var/folders/rt/4gvqv631095f64jvm7jfj_000000gn/T//ccOmY9YB.s:537    .text.updatePlantReading:00000000000000ce .LBB15
/var/folders/rt/4gvqv631095f64jvm7jfj_000000gn/T//ccOmY9YB.s:559    .text.updatePlantReading:00000000000000f8 .LBE15
GAS LISTING /var/folders/rt/4gvqv631095f64jvm7jfj_000000gn/T//ccOmY9YB.s 			page 30


/var/folders/rt/4gvqv631095f64jvm7jfj_000000gn/T//ccOmY9YB.s:566    .text.updatePlantReading:0000000000000102 .LBB16
/var/folders/rt/4gvqv631095f64jvm7jfj_000000gn/T//ccOmY9YB.s:572    .text.updatePlantReading:000000000000010a .LBE16
/var/folders/rt/4gvqv631095f64jvm7jfj_000000gn/T//ccOmY9YB.s:466    .text.updatePlantReading:0000000000000060 .LBB11
/var/folders/rt/4gvqv631095f64jvm7jfj_000000gn/T//ccOmY9YB.s:513    .text.updatePlantReading:00000000000000c0 .LBE11
/var/folders/rt/4gvqv631095f64jvm7jfj_000000gn/T//ccOmY9YB.s:538    .text.updatePlantReading:00000000000000ce .LBB12
/var/folders/rt/4gvqv631095f64jvm7jfj_000000gn/T//ccOmY9YB.s:558    .text.updatePlantReading:00000000000000f8 .LBE12

UNDEFINED SYMBOLS
LCD_ShowStr
LCD_ShowNum
strcmp
LCD_Fill
generateTimeStamp
readSensor
snprintf
t5omsi
colinit
l88init
rtcInit
rtc_counter_set
ADC3powerUpInit
Lcd_SetType
Lcd_Init
initPlant
t5expq
colset
l88row
l88mem
