GAS LISTING /var/folders/rt/4gvqv631095f64jvm7jfj_000000gn/T//ccmjRN3I.s 			page 1


   1              		.file	"main.c"
   2              		.option nopic
   3              		.attribute arch, "rv32i2p0_m2p0_a2p0_c2p0"
   4              		.attribute unaligned_access, 0
   5              		.attribute stack_align, 16
   6              		.text
   7              	.Ltext0:
   8              		.cfi_sections	.debug_frame
   9              		.section	.text.startup.main,"ax",@progbits
  10              		.align	1
  11              		.globl	main
  13              	main:
  14              	.LFB6:
  15              		.file 1 "main.c"
   1:main.c        **** #include "gd32vf103.h"
   2:main.c        **** #include "drivers.h"
   3:main.c        **** #include "adc.h"
   4:main.c        **** #include "lcd.h"
   5:main.c        **** #include "plant.h"
   6:main.c        **** #include "utilities.h"
   7:main.c        **** #include "usart.h"
   8:main.c        **** #include <string.h>
   9:main.c        **** #include <stdio.h>
  10:main.c        **** #include "renderPlants.h"
  11:main.c        **** #include "wifiServices.h"
  12:main.c        **** 
  13:main.c        **** #define EI 1
  14:main.c        **** #define DI 0
  15:main.c        **** #define MAXIMUM_NUMBER_OF_PLANTS
  16:main.c        **** #define STR_COPY(dest, src) \
  17:main.c        ****   snprintf(dest, sizeof(dest), "%s", src) // AI. STR_COPY är en genväg för snprintf som i sin tu
  18:main.c        **** 
  19:main.c        **** int main(void)
  20:main.c        **** {
  16              		.loc 1 20 1
  17              		.cfi_startproc
  21:main.c        **** 
  22:main.c        ****   int ms = 0, s = 0, idle = 0;
  18              		.loc 1 22 3
  19              	.LVL0:
  23:main.c        ****   int currentMin = 0;
  20              		.loc 1 23 3
  24:main.c        **** 
  25:main.c        ****   Plant allPlants[3];
  21              		.loc 1 25 3
  26:main.c        ****   int numberOfPlants = 0;
  22              		.loc 1 26 3
  20:main.c        **** 
  23              		.loc 1 20 1 is_stmt 0
  24 0000 13010181 		addi	sp,sp,-2032
  25              	.LCFI0:
  26              		.cfi_def_cfa_offset 2032
  27:main.c        ****   /*
  28:main.c        ****   EXEMPEL PÅ HUR NY PLANTA INITIERAS:
  29:main.c        ****   RAD 1 GER NAMN OCH FASTA VARIABLER.
  30:main.c        ****   RAD 2 GER VÄRDE I SEKUNDER SOM SENSORTYP SKA UPPDATERAS
  31:main.c        ****   RAD 3 GER IDEAL, MIN, MAX VÄRDE FÖR FUKT
GAS LISTING /var/folders/rt/4gvqv631095f64jvm7jfj_000000gn/T//ccmjRN3I.s 			page 2


  32:main.c        ****   RAD 4 SAMMA FÖR SOL
  33:main.c        ****   RAD 5 SAMMA FÖR TEMP, se nedan
  34:main.c        **** */
  35:main.c        ****   initPlant("Gurka", &numberOfPlants, allPlants,
  27              		.loc 1 35 3
  28 0004 0567     		li	a4,4096
  20:main.c        **** 
  29              		.loc 1 20 1
  30 0006 2326117E 		sw	ra,2028(sp)
  31 000a 2324817E 		sw	s0,2024(sp)
  32 000e 2322917E 		sw	s1,2020(sp)
  33 0012 2320217F 		sw	s2,2016(sp)
  34 0016 232E317D 		sw	s3,2012(sp)
  35 001a 232C417D 		sw	s4,2008(sp)
  36 001e 232A517D 		sw	s5,2004(sp)
  26:main.c        ****   /*
  37              		.loc 1 26 7
  38 0022 FD75     		li	a1,-4096
  20:main.c        **** 
  39              		.loc 1 20 1
  40 0024 13010193 		addi	sp,sp,-1744
  41              	.LCFI1:
  42              		.cfi_def_cfa_offset 3776
  43              		.cfi_offset 1, -4
  44              		.cfi_offset 8, -8
  45              		.cfi_offset 9, -12
  46              		.cfi_offset 18, -16
  47              		.cfi_offset 19, -20
  48              		.cfi_offset 20, -24
  49              		.cfi_offset 21, -28
  50              		.loc 1 35 3
  51 0028 930707EA 		addi	a5,a4,-352
  52 002c 93840519 		addi	s1,a1,400
  53 0030 8A97     		add	a5,a5,sp
  54 0032 BE94     		add	s1,a5,s1
  55 0034 930707EA 		addi	a5,a4,-352
  56 0038 9385C518 		addi	a1,a1,396
  57 003c 8A97     		add	a5,a5,sp
  58 003e 3384B700 		add	s0,a5,a1
  59 0042 F147     		li	a5,28
  60 0044 3ECC     		sw	a5,24(sp)
  61 0046 CD47     		li	a5,19
  62 0048 3ECA     		sw	a5,20(sp)
  63 004a DD47     		li	a5,23
  64 004c 3EC8     		sw	a5,16(sp)
  65 004e 93076004 		li	a5,70
  66 0052 3EC6     		sw	a5,12(sp)
  67 0054 D147     		li	a5,20
  68 0056 3EC4     		sw	a5,8(sp)
  69 0058 93072003 		li	a5,50
  70 005c 3EC2     		sw	a5,4(sp)
  71 005e 37050000 		lui	a0,%hi(.LC0)
  72 0062 9307A005 		li	a5,90
  73 0066 D148     		li	a7,20
  74 0068 13086004 		li	a6,70
  75 006c 1307C003 		li	a4,60
  76 0070 93068070 		li	a3,1800
GAS LISTING /var/folders/rt/4gvqv631095f64jvm7jfj_000000gn/T//ccmjRN3I.s 			page 3


  77 0074 2686     		mv	a2,s1
  78 0076 A285     		mv	a1,s0
  79 0078 13050500 		addi	a0,a0,%lo(.LC0)
  80 007c 3EC0     		sw	a5,0(sp)
  81 007e 93078070 		li	a5,1800
  26:main.c        ****   /*
  82              		.loc 1 26 7
  83 0082 02D6     		sw	zero,44(sp)
  84              		.loc 1 35 3 is_stmt 1
  85 0084 97000000 		call	initPlant
  85      E7800000 
  86              	.LVL1:
  36:main.c        ****             1800, 60, 1800,
  37:main.c        ****             70, 20, 90,
  38:main.c        ****             50, 20, 70,
  39:main.c        ****             23, 19, 28);
  40:main.c        **** 
  41:main.c        ****   // INITIERINGAR. RTCINIT OCH ADC3powerup har några förändringar vs original
  42:main.c        ****   t5omsi(); // Initialize timer5 1kHz
  87              		.loc 1 42 3
  88 008c 97000000 		call	t5omsi
  88      E7800000 
  89              	.LVL2:
  43:main.c        ****   colinit();
  90              		.loc 1 43 3
  91 0094 97000000 		call	colinit
  91      E7800000 
  92              	.LVL3:
  44:main.c        ****   l88init();
  93              		.loc 1 44 3
  94 009c 97000000 		call	l88init
  94      E7800000 
  95              	.LVL4:
  45:main.c        ****   rtcInit();
  96              		.loc 1 45 3
  97 00a4 97000000 		call	rtcInit
  97      E7800000 
  98              	.LVL5:
  46:main.c        ****   rtc_counter_set(0);
  99              		.loc 1 46 3
 100 00ac 0145     		li	a0,0
 101 00ae 97000000 		call	rtc_counter_set
 101      E7800000 
 102              	.LVL6:
  47:main.c        ****   Lcd_SetType(LCD_INVERTED);
 103              		.loc 1 47 3
 104 00b6 0545     		li	a0,1
 105 00b8 97000000 		call	Lcd_SetType
 105      E7800000 
 106              	.LVL7:
  48:main.c        ****   Lcd_Init();
 107              		.loc 1 48 3
 108 00c0 97000000 		call	Lcd_Init
 108      E7800000 
 109              	.LVL8:
  49:main.c        ****   LCD_Fill(0, 0, 160, 80, BLACK);
 110              		.loc 1 49 3
GAS LISTING /var/folders/rt/4gvqv631095f64jvm7jfj_000000gn/T//ccmjRN3I.s 			page 4


 111 00c8 0147     		li	a4,0
 112 00ca 93060005 		li	a3,80
 113 00ce 1306000A 		li	a2,160
 114 00d2 8145     		li	a1,0
 115 00d4 0145     		li	a0,0
 116 00d6 97000000 		call	LCD_Fill
 116      E7800000 
 117              	.LVL9:
  50:main.c        ****   // keyinit();          // Initialize keyboard toolbox
  51:main.c        ****   MAX31865_Init();    // Init Jocke temp-sensor
 118              		.loc 1 51 3
 119 00de 97000000 		call	MAX31865_Init
 119      E7800000 
 120              	.LVL10:
  52:main.c        ****   ADC3powerUpInit(0); // Initialize ADC0, Ch3
 121              		.loc 1 52 3
 122 00e6 0145     		li	a0,0
 123 00e8 97000000 		call	ADC3powerUpInit
 123      E7800000 
 124              	.LVL11:
  53:main.c        ****   u0init(EI); // Init WiFi över UART
 125              		.loc 1 53 3
 126 00f0 0545     		li	a0,1
 127 00f2 97000000 		call	u0init
 127      E7800000 
 128              	.LVL12:
  54:main.c        **** 
  55:main.c        ****   eclic_global_interrupt_enable();
 129              		.loc 1 55 3
 130 00fa 97000000 		call	eclic_global_interrupt_enable
 130      E7800000 
 131              	.LVL13:
  56:main.c        **** 
  57:main.c        ****   LCD_Clear(BLACK);
 132              		.loc 1 57 3
 133 0102 0145     		li	a0,0
 134 0104 97000000 		call	LCD_Clear
 134      E7800000 
 135              	.LVL14:
  58:main.c        ****   LCD_ShowStr(0, 0, "STANDBY", GREEN, TRANSPARENT);
 136              		.loc 1 58 3
 137 010c 37060000 		lui	a2,%hi(.LC1)
 138 0110 0547     		li	a4,1
 139 0112 9306007E 		li	a3,2016
 140 0116 13060600 		addi	a2,a2,%lo(.LC1)
 141 011a 8145     		li	a1,0
 142 011c 0145     		li	a0,0
 143 011e 97000000 		call	LCD_ShowStr
 143      E7800000 
 144              	.LVL15:
  22:main.c        ****   int currentMin = 0;
 145              		.loc 1 22 22 is_stmt 0
 146 0126 0149     		li	s2,0
  22:main.c        ****   int currentMin = 0;
 147              		.loc 1 22 7
 148 0128 8149     		li	s3,0
  59:main.c        ****   while (1)
GAS LISTING /var/folders/rt/4gvqv631095f64jvm7jfj_000000gn/T//ccmjRN3I.s 			page 5


  60:main.c        ****   {
  61:main.c        ****     idle++;
  62:main.c        ****     if (commandBufferIndex > 0) // DENNA AKTIVERAR TX WIFI
 149              		.loc 1 62 28
 150 012a 370A0000 		lui	s4,%hi(commandBufferIndex)
  63:main.c        ****       receiveCommands(allPlants, &numberOfPlants);
  64:main.c        **** 
  65:main.c        ****     if (t5expq())
  66:main.c        ****     {
  67:main.c        ****       l88row(colset());
  68:main.c        ****       ms++;
  69:main.c        ****       if (ms == 1000)
 151              		.loc 1 69 10
 152 012e 930A803E 		li	s5,1000
 153              	.LVL16:
 154              	.L2:
  59:main.c        ****   while (1)
 155              		.loc 1 59 3 is_stmt 1
  61:main.c        ****     if (commandBufferIndex > 0) // DENNA AKTIVERAR TX WIFI
 156              		.loc 1 61 5
  62:main.c        ****       receiveCommands(allPlants, &numberOfPlants);
 157              		.loc 1 62 28 is_stmt 0
 158 0132 83270A00 		lw	a5,%lo(commandBufferIndex)(s4)
  61:main.c        ****     if (commandBufferIndex > 0) // DENNA AKTIVERAR TX WIFI
 159              		.loc 1 61 9
 160 0136 0509     		addi	s2,s2,1
 161              	.LVL17:
  62:main.c        ****       receiveCommands(allPlants, &numberOfPlants);
 162              		.loc 1 62 5 is_stmt 1
  62:main.c        ****       receiveCommands(allPlants, &numberOfPlants);
 163              		.loc 1 62 8 is_stmt 0
 164 0138 6358F000 		ble	a5,zero,.L3
  63:main.c        ****       receiveCommands(allPlants, &numberOfPlants);
 165              		.loc 1 63 7 is_stmt 1
 166 013c A285     		mv	a1,s0
 167 013e 2685     		mv	a0,s1
 168 0140 97000000 		call	receiveCommands
 168      E7800000 
 169              	.LVL18:
 170              	.L3:
  65:main.c        ****     {
 171              		.loc 1 65 5
  65:main.c        ****     {
 172              		.loc 1 65 9 is_stmt 0
 173 0148 97000000 		call	t5expq
 173      E7800000 
 174              	.LVL19:
  65:main.c        ****     {
 175              		.loc 1 65 8
 176 0150 6DD1     		beq	a0,zero,.L2
 177 0152 8509     		addi	s3,s3,1
 178              	.LVL20:
  67:main.c        ****       ms++;
 179              		.loc 1 67 7 is_stmt 1
 180 0154 97000000 		call	colset
 180      E7800000 
 181              	.LVL21:
GAS LISTING /var/folders/rt/4gvqv631095f64jvm7jfj_000000gn/T//ccmjRN3I.s 			page 6


 182 015c 97000000 		call	l88row
 182      E7800000 
 183              	.LVL22:
  68:main.c        ****       if (ms == 1000)
 184              		.loc 1 68 7
 185              		.loc 1 69 7
 186              		.loc 1 69 10 is_stmt 0
 187 0164 E39759FD 		bne	s3,s5,.L2
  70:main.c        ****       //// LCD_KOD EJ NÖDVÄNDIG, ENDAST FÖR ATT VISA ATT EN STATUS-CHECK HAR KÖRTS
  71:main.c        ****       {
  72:main.c        ****         ms = 0;
 188              		.loc 1 72 9 is_stmt 1
 189              	.LVL23:
  73:main.c        ****         if (0 && oneMinuteHasPassed(&currentMin) && numberOfPlants)
 190              		.loc 1 73 9
  74:main.c        ****         {
  75:main.c        ****           if (applyGreenFingers(allPlants, numberOfPlants))
  76:main.c        ****           {
  77:main.c        ****             LCD_Clear(BLACK);
  78:main.c        ****             LCD_ShowStr(0, 0, "VALUES JUST UPDATED", GREEN, TRANSPARENT);
  79:main.c        ****           }
  80:main.c        ****           else
  81:main.c        ****           {
  82:main.c        ****             LCD_Clear(BLACK);
  83:main.c        ****             LCD_ShowStr(0, 0, "GREEN FINGERS STANDBY", GREEN, TRANSPARENT);
  84:main.c        ****           }
  85:main.c        ****         }
  86:main.c        ****         /// SLUT
  87:main.c        **** 
  88:main.c        ****         l88mem(0, idle >> 8); // ...Performance monitor
 191              		.loc 1 88 9
 192 0168 93558940 		srai	a1,s2,8
 193 016c 0145     		li	a0,0
 194 016e 97000000 		call	l88mem
 194      E7800000 
 195              	.LVL24:
  89:main.c        ****         l88mem(1, idle);
 196              		.loc 1 89 9
 197 0176 CA85     		mv	a1,s2
 198 0178 0545     		li	a0,1
 199 017a 97000000 		call	l88mem
 199      E7800000 
 200              	.LVL25:
  90:main.c        ****         idle = 0;
 201              		.loc 1 90 9
 202              		.loc 1 90 14 is_stmt 0
 203 0182 0149     		li	s2,0
  72:main.c        ****         if (0 && oneMinuteHasPassed(&currentMin) && numberOfPlants)
 204              		.loc 1 72 12
 205 0184 8149     		li	s3,0
 206 0186 75B7     		j	.L2
 207              		.cfi_endproc
 208              	.LFE6:
 210              		.section	.rodata.main.str1.4,"aMS",@progbits,1
 211              		.align	2
 212              	.LC0:
 213 0000 4775726B 		.string	"Gurka"
GAS LISTING /var/folders/rt/4gvqv631095f64jvm7jfj_000000gn/T//ccmjRN3I.s 			page 7


 213      6100
 214 0006 0000     		.zero	2
 215              	.LC1:
 216 0008 5354414E 		.string	"STANDBY"
 216      44425900 
 217              		.text
 218              	.Letext0:
 219              		.file 2 "/Users/alexstrae/toolchain-gd32v-v202-osx/compiler/riscv64-unknown-elf/include/machine/_d
 220              		.file 3 "/Users/alexstrae/toolchain-gd32v-v202-osx/compiler/riscv64-unknown-elf/include/sys/_stdin
 221              		.file 4 "/Users/alexstrae/toolchain-gd32v-v202-osx/compiler/lib/gcc/riscv64-unknown-elf/8.3.0/incl
 222              		.file 5 "/Users/alexstrae/toolchain-gd32v-v202-osx/compiler/riscv64-unknown-elf/include/sys/_types
 223              		.file 6 "/Users/alexstrae/toolchain-gd32v-v202-osx/compiler/riscv64-unknown-elf/include/sys/reent.
 224              		.file 7 "/Users/alexstrae/toolchain-gd32v-v202-osx/compiler/riscv64-unknown-elf/include/sys/lock.h
 225              		.file 8 "../../firmware/GD32VF103_standard_peripheral/system_gd32vf103.h"
 226              		.file 9 "/Users/alexstrae/toolchain-gd32v-v202-osx/compiler/riscv64-unknown-elf/include/stdlib.h"
 227              		.file 10 "lcd.h"
 228              		.file 11 "plant.h"
 229              		.file 12 "usart.h"
 230              		.file 13 "drivers.h"
 231              		.file 14 "utilities.h"
 232              		.file 15 "../../firmware/GD32VF103_standard_peripheral/Include/gd32vf103_rtc.h"
 233              		.file 16 "adc.h"
 234              		.file 17 "../../firmware/GD32VF103_standard_peripheral/Include/gd32vf103_eclic.h"
 235              		.file 18 "wifiServices.h"
GAS LISTING /var/folders/rt/4gvqv631095f64jvm7jfj_000000gn/T//ccmjRN3I.s 			page 8


DEFINED SYMBOLS
                            *ABS*:0000000000000000 main.c
/var/folders/rt/4gvqv631095f64jvm7jfj_000000gn/T//ccmjRN3I.s:13     .text.startup.main:0000000000000000 main
/var/folders/rt/4gvqv631095f64jvm7jfj_000000gn/T//ccmjRN3I.s:17     .text.startup.main:0000000000000000 .L0 
/var/folders/rt/4gvqv631095f64jvm7jfj_000000gn/T//ccmjRN3I.s:18     .text.startup.main:0000000000000000 .L0 
/var/folders/rt/4gvqv631095f64jvm7jfj_000000gn/T//ccmjRN3I.s:20     .text.startup.main:0000000000000000 .L0 
/var/folders/rt/4gvqv631095f64jvm7jfj_000000gn/T//ccmjRN3I.s:21     .text.startup.main:0000000000000000 .L0 
/var/folders/rt/4gvqv631095f64jvm7jfj_000000gn/T//ccmjRN3I.s:22     .text.startup.main:0000000000000000 .L0 
/var/folders/rt/4gvqv631095f64jvm7jfj_000000gn/T//ccmjRN3I.s:23     .text.startup.main:0000000000000000 .L0 
/var/folders/rt/4gvqv631095f64jvm7jfj_000000gn/T//ccmjRN3I.s:24     .text.startup.main:0000000000000000 .L0 
/var/folders/rt/4gvqv631095f64jvm7jfj_000000gn/T//ccmjRN3I.s:26     .text.startup.main:0000000000000004 .L0 
/var/folders/rt/4gvqv631095f64jvm7jfj_000000gn/T//ccmjRN3I.s:28     .text.startup.main:0000000000000004 .L0 
/var/folders/rt/4gvqv631095f64jvm7jfj_000000gn/T//ccmjRN3I.s:30     .text.startup.main:0000000000000006 .L0 
/var/folders/rt/4gvqv631095f64jvm7jfj_000000gn/T//ccmjRN3I.s:38     .text.startup.main:0000000000000022 .L0 
/var/folders/rt/4gvqv631095f64jvm7jfj_000000gn/T//ccmjRN3I.s:40     .text.startup.main:0000000000000024 .L0 
/var/folders/rt/4gvqv631095f64jvm7jfj_000000gn/T//ccmjRN3I.s:42     .text.startup.main:0000000000000028 .L0 
/var/folders/rt/4gvqv631095f64jvm7jfj_000000gn/T//ccmjRN3I.s:43     .text.startup.main:0000000000000028 .L0 
/var/folders/rt/4gvqv631095f64jvm7jfj_000000gn/T//ccmjRN3I.s:44     .text.startup.main:0000000000000028 .L0 
/var/folders/rt/4gvqv631095f64jvm7jfj_000000gn/T//ccmjRN3I.s:45     .text.startup.main:0000000000000028 .L0 
/var/folders/rt/4gvqv631095f64jvm7jfj_000000gn/T//ccmjRN3I.s:46     .text.startup.main:0000000000000028 .L0 
/var/folders/rt/4gvqv631095f64jvm7jfj_000000gn/T//ccmjRN3I.s:47     .text.startup.main:0000000000000028 .L0 
/var/folders/rt/4gvqv631095f64jvm7jfj_000000gn/T//ccmjRN3I.s:48     .text.startup.main:0000000000000028 .L0 
/var/folders/rt/4gvqv631095f64jvm7jfj_000000gn/T//ccmjRN3I.s:49     .text.startup.main:0000000000000028 .L0 
/var/folders/rt/4gvqv631095f64jvm7jfj_000000gn/T//ccmjRN3I.s:51     .text.startup.main:0000000000000028 .L0 
/var/folders/rt/4gvqv631095f64jvm7jfj_000000gn/T//ccmjRN3I.s:83     .text.startup.main:0000000000000082 .L0 
/var/folders/rt/4gvqv631095f64jvm7jfj_000000gn/T//ccmjRN3I.s:85     .text.startup.main:0000000000000084 .L0 
/var/folders/rt/4gvqv631095f64jvm7jfj_000000gn/T//ccmjRN3I.s:88     .text.startup.main:000000000000008c .L0 
/var/folders/rt/4gvqv631095f64jvm7jfj_000000gn/T//ccmjRN3I.s:91     .text.startup.main:0000000000000094 .L0 
/var/folders/rt/4gvqv631095f64jvm7jfj_000000gn/T//ccmjRN3I.s:94     .text.startup.main:000000000000009c .L0 
/var/folders/rt/4gvqv631095f64jvm7jfj_000000gn/T//ccmjRN3I.s:97     .text.startup.main:00000000000000a4 .L0 
/var/folders/rt/4gvqv631095f64jvm7jfj_000000gn/T//ccmjRN3I.s:100    .text.startup.main:00000000000000ac .L0 
/var/folders/rt/4gvqv631095f64jvm7jfj_000000gn/T//ccmjRN3I.s:104    .text.startup.main:00000000000000b6 .L0 
/var/folders/rt/4gvqv631095f64jvm7jfj_000000gn/T//ccmjRN3I.s:108    .text.startup.main:00000000000000c0 .L0 
/var/folders/rt/4gvqv631095f64jvm7jfj_000000gn/T//ccmjRN3I.s:111    .text.startup.main:00000000000000c8 .L0 
/var/folders/rt/4gvqv631095f64jvm7jfj_000000gn/T//ccmjRN3I.s:119    .text.startup.main:00000000000000de .L0 
/var/folders/rt/4gvqv631095f64jvm7jfj_000000gn/T//ccmjRN3I.s:122    .text.startup.main:00000000000000e6 .L0 
/var/folders/rt/4gvqv631095f64jvm7jfj_000000gn/T//ccmjRN3I.s:126    .text.startup.main:00000000000000f0 .L0 
/var/folders/rt/4gvqv631095f64jvm7jfj_000000gn/T//ccmjRN3I.s:130    .text.startup.main:00000000000000fa .L0 
/var/folders/rt/4gvqv631095f64jvm7jfj_000000gn/T//ccmjRN3I.s:133    .text.startup.main:0000000000000102 .L0 
/var/folders/rt/4gvqv631095f64jvm7jfj_000000gn/T//ccmjRN3I.s:137    .text.startup.main:000000000000010c .L0 
/var/folders/rt/4gvqv631095f64jvm7jfj_000000gn/T//ccmjRN3I.s:146    .text.startup.main:0000000000000126 .L0 
/var/folders/rt/4gvqv631095f64jvm7jfj_000000gn/T//ccmjRN3I.s:148    .text.startup.main:0000000000000128 .L0 
/var/folders/rt/4gvqv631095f64jvm7jfj_000000gn/T//ccmjRN3I.s:150    .text.startup.main:000000000000012a .L0 
/var/folders/rt/4gvqv631095f64jvm7jfj_000000gn/T//ccmjRN3I.s:152    .text.startup.main:000000000000012e .L0 
/var/folders/rt/4gvqv631095f64jvm7jfj_000000gn/T//ccmjRN3I.s:156    .text.startup.main:0000000000000132 .L0 
/var/folders/rt/4gvqv631095f64jvm7jfj_000000gn/T//ccmjRN3I.s:157    .text.startup.main:0000000000000132 .L0 
/var/folders/rt/4gvqv631095f64jvm7jfj_000000gn/T//ccmjRN3I.s:158    .text.startup.main:0000000000000132 .L0 
/var/folders/rt/4gvqv631095f64jvm7jfj_000000gn/T//ccmjRN3I.s:160    .text.startup.main:0000000000000136 .L0 
/var/folders/rt/4gvqv631095f64jvm7jfj_000000gn/T//ccmjRN3I.s:163    .text.startup.main:0000000000000138 .L0 
/var/folders/rt/4gvqv631095f64jvm7jfj_000000gn/T//ccmjRN3I.s:164    .text.startup.main:0000000000000138 .L0 
/var/folders/rt/4gvqv631095f64jvm7jfj_000000gn/T//ccmjRN3I.s:166    .text.startup.main:000000000000013c .L0 
/var/folders/rt/4gvqv631095f64jvm7jfj_000000gn/T//ccmjRN3I.s:172    .text.startup.main:0000000000000148 .L0 
/var/folders/rt/4gvqv631095f64jvm7jfj_000000gn/T//ccmjRN3I.s:173    .text.startup.main:0000000000000148 .L0 
/var/folders/rt/4gvqv631095f64jvm7jfj_000000gn/T//ccmjRN3I.s:176    .text.startup.main:0000000000000150 .L0 
/var/folders/rt/4gvqv631095f64jvm7jfj_000000gn/T//ccmjRN3I.s:180    .text.startup.main:0000000000000154 .L0 
/var/folders/rt/4gvqv631095f64jvm7jfj_000000gn/T//ccmjRN3I.s:185    .text.startup.main:0000000000000164 .L0 
/var/folders/rt/4gvqv631095f64jvm7jfj_000000gn/T//ccmjRN3I.s:186    .text.startup.main:0000000000000164 .L0 
GAS LISTING /var/folders/rt/4gvqv631095f64jvm7jfj_000000gn/T//ccmjRN3I.s 			page 9


/var/folders/rt/4gvqv631095f64jvm7jfj_000000gn/T//ccmjRN3I.s:187    .text.startup.main:0000000000000164 .L0 
/var/folders/rt/4gvqv631095f64jvm7jfj_000000gn/T//ccmjRN3I.s:190    .text.startup.main:0000000000000168 .L0 
/var/folders/rt/4gvqv631095f64jvm7jfj_000000gn/T//ccmjRN3I.s:191    .text.startup.main:0000000000000168 .L0 
/var/folders/rt/4gvqv631095f64jvm7jfj_000000gn/T//ccmjRN3I.s:192    .text.startup.main:0000000000000168 .L0 
/var/folders/rt/4gvqv631095f64jvm7jfj_000000gn/T//ccmjRN3I.s:197    .text.startup.main:0000000000000176 .L0 
/var/folders/rt/4gvqv631095f64jvm7jfj_000000gn/T//ccmjRN3I.s:202    .text.startup.main:0000000000000182 .L0 
/var/folders/rt/4gvqv631095f64jvm7jfj_000000gn/T//ccmjRN3I.s:203    .text.startup.main:0000000000000182 .L0 
/var/folders/rt/4gvqv631095f64jvm7jfj_000000gn/T//ccmjRN3I.s:205    .text.startup.main:0000000000000184 .L0 
/var/folders/rt/4gvqv631095f64jvm7jfj_000000gn/T//ccmjRN3I.s:207    .text.startup.main:0000000000000188 .L0 
/var/folders/rt/4gvqv631095f64jvm7jfj_000000gn/T//ccmjRN3I.s:210    .text.startup.main:0000000000000188 .L0 
                     .debug_frame:0000000000000000 .L0 
/var/folders/rt/4gvqv631095f64jvm7jfj_000000gn/T//ccmjRN3I.s:212    .rodata.main.str1.4:0000000000000000 .LC0
/var/folders/rt/4gvqv631095f64jvm7jfj_000000gn/T//ccmjRN3I.s:215    .rodata.main.str1.4:0000000000000008 .LC1
/var/folders/rt/4gvqv631095f64jvm7jfj_000000gn/T//ccmjRN3I.s:170    .text.startup.main:0000000000000148 .L3
/var/folders/rt/4gvqv631095f64jvm7jfj_000000gn/T//ccmjRN3I.s:154    .text.startup.main:0000000000000132 .L2
/var/folders/rt/4gvqv631095f64jvm7jfj_000000gn/T//ccmjRN3I.s:2520   .debug_abbrev:0000000000000000 .Ldebug_abbrev0
/var/folders/rt/4gvqv631095f64jvm7jfj_000000gn/T//ccmjRN3I.s:3515   .debug_str:00000000000005d8 .LASF180
/var/folders/rt/4gvqv631095f64jvm7jfj_000000gn/T//ccmjRN3I.s:3371   .debug_str:000000000000030c .LASF181
/var/folders/rt/4gvqv631095f64jvm7jfj_000000gn/T//ccmjRN3I.s:3519   .debug_str:0000000000000669 .LASF182
/var/folders/rt/4gvqv631095f64jvm7jfj_000000gn/T//ccmjRN3I.s:3213   .debug_ranges:0000000000000000 .Ldebug_ranges0
/var/folders/rt/4gvqv631095f64jvm7jfj_000000gn/T//ccmjRN3I.s:3219   .debug_line:0000000000000000 .Ldebug_line0
/var/folders/rt/4gvqv631095f64jvm7jfj_000000gn/T//ccmjRN3I.s:3503   .debug_str:00000000000005a2 .LASF0
/var/folders/rt/4gvqv631095f64jvm7jfj_000000gn/T//ccmjRN3I.s:3269   .debug_str:000000000000010e .LASF1
/var/folders/rt/4gvqv631095f64jvm7jfj_000000gn/T//ccmjRN3I.s:3431   .debug_str:0000000000000452 .LASF2
/var/folders/rt/4gvqv631095f64jvm7jfj_000000gn/T//ccmjRN3I.s:3223   .debug_str:000000000000000c .LASF3
/var/folders/rt/4gvqv631095f64jvm7jfj_000000gn/T//ccmjRN3I.s:3521   .debug_str:00000000000006ac .LASF4
/var/folders/rt/4gvqv631095f64jvm7jfj_000000gn/T//ccmjRN3I.s:3239   .debug_str:0000000000000056 .LASF5
/var/folders/rt/4gvqv631095f64jvm7jfj_000000gn/T//ccmjRN3I.s:3319   .debug_str:000000000000020b .LASF9
/var/folders/rt/4gvqv631095f64jvm7jfj_000000gn/T//ccmjRN3I.s:3343   .debug_str:000000000000026f .LASF6
/var/folders/rt/4gvqv631095f64jvm7jfj_000000gn/T//ccmjRN3I.s:3303   .debug_str:00000000000001ae .LASF7
/var/folders/rt/4gvqv631095f64jvm7jfj_000000gn/T//ccmjRN3I.s:3247   .debug_str:000000000000008a .LASF8
/var/folders/rt/4gvqv631095f64jvm7jfj_000000gn/T//ccmjRN3I.s:3539   .debug_str:0000000000000717 .LASF10
/var/folders/rt/4gvqv631095f64jvm7jfj_000000gn/T//ccmjRN3I.s:3337   .debug_str:000000000000024f .LASF120
/var/folders/rt/4gvqv631095f64jvm7jfj_000000gn/T//ccmjRN3I.s:3493   .debug_str:000000000000057b .LASF11
/var/folders/rt/4gvqv631095f64jvm7jfj_000000gn/T//ccmjRN3I.s:3481   .debug_str:000000000000054c .LASF12
/var/folders/rt/4gvqv631095f64jvm7jfj_000000gn/T//ccmjRN3I.s:3265   .debug_str:0000000000000100 .LASF13
/var/folders/rt/4gvqv631095f64jvm7jfj_000000gn/T//ccmjRN3I.s:3491   .debug_str:0000000000000573 .LASF14
/var/folders/rt/4gvqv631095f64jvm7jfj_000000gn/T//ccmjRN3I.s:3551   .debug_str:0000000000000756 .LASF15
/var/folders/rt/4gvqv631095f64jvm7jfj_000000gn/T//ccmjRN3I.s:3367   .debug_str:00000000000002ff .LASF16
/var/folders/rt/4gvqv631095f64jvm7jfj_000000gn/T//ccmjRN3I.s:3335   .debug_str:0000000000000248 .LASF17
/var/folders/rt/4gvqv631095f64jvm7jfj_000000gn/T//ccmjRN3I.s:3483   .debug_str:0000000000000553 .LASF18
/var/folders/rt/4gvqv631095f64jvm7jfj_000000gn/T//ccmjRN3I.s:3485   .debug_str:000000000000055b .LASF19
/var/folders/rt/4gvqv631095f64jvm7jfj_000000gn/T//ccmjRN3I.s:3449   .debug_str:000000000000049f .LASF20
/var/folders/rt/4gvqv631095f64jvm7jfj_000000gn/T//ccmjRN3I.s:3529   .debug_str:00000000000006d3 .LASF21
/var/folders/rt/4gvqv631095f64jvm7jfj_000000gn/T//ccmjRN3I.s:3423   .debug_str:0000000000000423 .LASF22
/var/folders/rt/4gvqv631095f64jvm7jfj_000000gn/T//ccmjRN3I.s:3437   .debug_str:000000000000046f .LASF23
/var/folders/rt/4gvqv631095f64jvm7jfj_000000gn/T//ccmjRN3I.s:3327   .debug_str:0000000000000230 .LASF28
/var/folders/rt/4gvqv631095f64jvm7jfj_000000gn/T//ccmjRN3I.s:3511   .debug_str:00000000000005cb .LASF24
/var/folders/rt/4gvqv631095f64jvm7jfj_000000gn/T//ccmjRN3I.s:3475   .debug_str:0000000000000537 .LASF25
/var/folders/rt/4gvqv631095f64jvm7jfj_000000gn/T//ccmjRN3I.s:3321   .debug_str:0000000000000216 .LASF26
/var/folders/rt/4gvqv631095f64jvm7jfj_000000gn/T//ccmjRN3I.s:3395   .debug_str:0000000000000387 .LASF27
/var/folders/rt/4gvqv631095f64jvm7jfj_000000gn/T//ccmjRN3I.s:3333   .debug_str:0000000000000243 .LASF29
/var/folders/rt/4gvqv631095f64jvm7jfj_000000gn/T//ccmjRN3I.s:3261   .debug_str:00000000000000f0 .LASF30
/var/folders/rt/4gvqv631095f64jvm7jfj_000000gn/T//ccmjRN3I.s:3569   .debug_str:00000000000007b0 .LASF31
/var/folders/rt/4gvqv631095f64jvm7jfj_000000gn/T//ccmjRN3I.s:3279   .debug_str:000000000000013b .LASF32
/var/folders/rt/4gvqv631095f64jvm7jfj_000000gn/T//ccmjRN3I.s:3587   .debug_str:0000000000000806 .LASF33
/var/folders/rt/4gvqv631095f64jvm7jfj_000000gn/T//ccmjRN3I.s:3399   .debug_str:00000000000003a5 .LASF34
GAS LISTING /var/folders/rt/4gvqv631095f64jvm7jfj_000000gn/T//ccmjRN3I.s 			page 10


/var/folders/rt/4gvqv631095f64jvm7jfj_000000gn/T//ccmjRN3I.s:3385   .debug_str:000000000000034d .LASF35
/var/folders/rt/4gvqv631095f64jvm7jfj_000000gn/T//ccmjRN3I.s:3489   .debug_str:0000000000000569 .LASF36
/var/folders/rt/4gvqv631095f64jvm7jfj_000000gn/T//ccmjRN3I.s:3439   .debug_str:0000000000000478 .LASF37
/var/folders/rt/4gvqv631095f64jvm7jfj_000000gn/T//ccmjRN3I.s:3565   .debug_str:0000000000000796 .LASF38
/var/folders/rt/4gvqv631095f64jvm7jfj_000000gn/T//ccmjRN3I.s:3283   .debug_str:000000000000014a .LASF39
/var/folders/rt/4gvqv631095f64jvm7jfj_000000gn/T//ccmjRN3I.s:3225   .debug_str:0000000000000016 .LASF40
/var/folders/rt/4gvqv631095f64jvm7jfj_000000gn/T//ccmjRN3I.s:3221   .debug_str:0000000000000000 .LASF41
/var/folders/rt/4gvqv631095f64jvm7jfj_000000gn/T//ccmjRN3I.s:3517   .debug_str:0000000000000660 .LASF42
/var/folders/rt/4gvqv631095f64jvm7jfj_000000gn/T//ccmjRN3I.s:3297   .debug_str:0000000000000195 .LASF43
/var/folders/rt/4gvqv631095f64jvm7jfj_000000gn/T//ccmjRN3I.s:3401   .debug_str:00000000000003ae .LASF44
/var/folders/rt/4gvqv631095f64jvm7jfj_000000gn/T//ccmjRN3I.s:3463   .debug_str:00000000000004e9 .LASF45
/var/folders/rt/4gvqv631095f64jvm7jfj_000000gn/T//ccmjRN3I.s:3317   .debug_str:0000000000000206 .LASF46
/var/folders/rt/4gvqv631095f64jvm7jfj_000000gn/T//ccmjRN3I.s:3441   .debug_str:0000000000000482 .LASF47
/var/folders/rt/4gvqv631095f64jvm7jfj_000000gn/T//ccmjRN3I.s:3277   .debug_str:0000000000000135 .LASF48
/var/folders/rt/4gvqv631095f64jvm7jfj_000000gn/T//ccmjRN3I.s:3501   .debug_str:000000000000059c .LASF49
/var/folders/rt/4gvqv631095f64jvm7jfj_000000gn/T//ccmjRN3I.s:3451   .debug_str:00000000000004aa .LASF50
/var/folders/rt/4gvqv631095f64jvm7jfj_000000gn/T//ccmjRN3I.s:3295   .debug_str:000000000000018e .LASF51
/var/folders/rt/4gvqv631095f64jvm7jfj_000000gn/T//ccmjRN3I.s:3345   .debug_str:0000000000000281 .LASF52
/var/folders/rt/4gvqv631095f64jvm7jfj_000000gn/T//ccmjRN3I.s:3583   .debug_str:00000000000007ef .LASF53
/var/folders/rt/4gvqv631095f64jvm7jfj_000000gn/T//ccmjRN3I.s:3287   .debug_str:0000000000000160 .LASF54
/var/folders/rt/4gvqv631095f64jvm7jfj_000000gn/T//ccmjRN3I.s:3329   .debug_str:0000000000000238 .LASF55
/var/folders/rt/4gvqv631095f64jvm7jfj_000000gn/T//ccmjRN3I.s:3383   .debug_str:0000000000000346 .LASF56
/var/folders/rt/4gvqv631095f64jvm7jfj_000000gn/T//ccmjRN3I.s:3487   .debug_str:0000000000000563 .LASF57
/var/folders/rt/4gvqv631095f64jvm7jfj_000000gn/T//ccmjRN3I.s:3267   .debug_str:0000000000000107 .LASF58
/var/folders/rt/4gvqv631095f64jvm7jfj_000000gn/T//ccmjRN3I.s:3275   .debug_str:000000000000012f .LASF59
/var/folders/rt/4gvqv631095f64jvm7jfj_000000gn/T//ccmjRN3I.s:3561   .debug_str:0000000000000788 .LASF60
/var/folders/rt/4gvqv631095f64jvm7jfj_000000gn/T//ccmjRN3I.s:3499   .debug_str:0000000000000593 .LASF61
/var/folders/rt/4gvqv631095f64jvm7jfj_000000gn/T//ccmjRN3I.s:3307   .debug_str:00000000000001c4 .LASF62
/var/folders/rt/4gvqv631095f64jvm7jfj_000000gn/T//ccmjRN3I.s:3353   .debug_str:00000000000002a8 .LASF63
/var/folders/rt/4gvqv631095f64jvm7jfj_000000gn/T//ccmjRN3I.s:3375   .debug_str:0000000000000318 .LASF64
/var/folders/rt/4gvqv631095f64jvm7jfj_000000gn/T//ccmjRN3I.s:3453   .debug_str:00000000000004b2 .LASF65
/var/folders/rt/4gvqv631095f64jvm7jfj_000000gn/T//ccmjRN3I.s:3443   .debug_str:0000000000000489 .LASF66
/var/folders/rt/4gvqv631095f64jvm7jfj_000000gn/T//ccmjRN3I.s:3477   .debug_str:000000000000053f .LASF67
/var/folders/rt/4gvqv631095f64jvm7jfj_000000gn/T//ccmjRN3I.s:3495   .debug_str:0000000000000587 .LASF68
/var/folders/rt/4gvqv631095f64jvm7jfj_000000gn/T//ccmjRN3I.s:3299   .debug_str:000000000000019d .LASF69
/var/folders/rt/4gvqv631095f64jvm7jfj_000000gn/T//ccmjRN3I.s:3339   .debug_str:000000000000025f .LASF70
/var/folders/rt/4gvqv631095f64jvm7jfj_000000gn/T//ccmjRN3I.s:3325   .debug_str:0000000000000228 .LASF71
/var/folders/rt/4gvqv631095f64jvm7jfj_000000gn/T//ccmjRN3I.s:3461   .debug_str:00000000000004e4 .LASF72
/var/folders/rt/4gvqv631095f64jvm7jfj_000000gn/T//ccmjRN3I.s:3229   .debug_str:0000000000000026 .LASF73
/var/folders/rt/4gvqv631095f64jvm7jfj_000000gn/T//ccmjRN3I.s:3471   .debug_str:000000000000050a .LASF74
/var/folders/rt/4gvqv631095f64jvm7jfj_000000gn/T//ccmjRN3I.s:3467   .debug_str:00000000000004f8 .LASF75
/var/folders/rt/4gvqv631095f64jvm7jfj_000000gn/T//ccmjRN3I.s:3407   .debug_str:00000000000003cd .LASF76
/var/folders/rt/4gvqv631095f64jvm7jfj_000000gn/T//ccmjRN3I.s:3469   .debug_str:0000000000000500 .LASF77
/var/folders/rt/4gvqv631095f64jvm7jfj_000000gn/T//ccmjRN3I.s:3365   .debug_str:00000000000002f7 .LASF78
/var/folders/rt/4gvqv631095f64jvm7jfj_000000gn/T//ccmjRN3I.s:3301   .debug_str:00000000000001a4 .LASF79
/var/folders/rt/4gvqv631095f64jvm7jfj_000000gn/T//ccmjRN3I.s:3579   .debug_str:00000000000007e5 .LASF80
/var/folders/rt/4gvqv631095f64jvm7jfj_000000gn/T//ccmjRN3I.s:3419   .debug_str:0000000000000413 .LASF81
/var/folders/rt/4gvqv631095f64jvm7jfj_000000gn/T//ccmjRN3I.s:3341   .debug_str:0000000000000267 .LASF82
/var/folders/rt/4gvqv631095f64jvm7jfj_000000gn/T//ccmjRN3I.s:3305   .debug_str:00000000000001bc .LASF83
/var/folders/rt/4gvqv631095f64jvm7jfj_000000gn/T//ccmjRN3I.s:3373   .debug_str:0000000000000313 .LASF84
/var/folders/rt/4gvqv631095f64jvm7jfj_000000gn/T//ccmjRN3I.s:3237   .debug_str:000000000000004d .LASF85
/var/folders/rt/4gvqv631095f64jvm7jfj_000000gn/T//ccmjRN3I.s:3557   .debug_str:0000000000000774 .LASF86
/var/folders/rt/4gvqv631095f64jvm7jfj_000000gn/T//ccmjRN3I.s:3289   .debug_str:0000000000000168 .LASF87
/var/folders/rt/4gvqv631095f64jvm7jfj_000000gn/T//ccmjRN3I.s:3281   .debug_str:0000000000000145 .LASF88
/var/folders/rt/4gvqv631095f64jvm7jfj_000000gn/T//ccmjRN3I.s:3497   .debug_str:000000000000058e .LASF89
/var/folders/rt/4gvqv631095f64jvm7jfj_000000gn/T//ccmjRN3I.s:3447   .debug_str:0000000000000498 .LASF90
/var/folders/rt/4gvqv631095f64jvm7jfj_000000gn/T//ccmjRN3I.s:3549   .debug_str:0000000000000750 .LASF91
GAS LISTING /var/folders/rt/4gvqv631095f64jvm7jfj_000000gn/T//ccmjRN3I.s 			page 11


/var/folders/rt/4gvqv631095f64jvm7jfj_000000gn/T//ccmjRN3I.s:3355   .debug_str:00000000000002ae .LASF92
/var/folders/rt/4gvqv631095f64jvm7jfj_000000gn/T//ccmjRN3I.s:3433   .debug_str:0000000000000460 .LASF93
/var/folders/rt/4gvqv631095f64jvm7jfj_000000gn/T//ccmjRN3I.s:3227   .debug_str:000000000000001e .LASF94
/var/folders/rt/4gvqv631095f64jvm7jfj_000000gn/T//ccmjRN3I.s:3479   .debug_str:0000000000000546 .LASF95
/var/folders/rt/4gvqv631095f64jvm7jfj_000000gn/T//ccmjRN3I.s:3377   .debug_str:000000000000031e .LASF96
/var/folders/rt/4gvqv631095f64jvm7jfj_000000gn/T//ccmjRN3I.s:3525   .debug_str:00000000000006c7 .LASF97
/var/folders/rt/4gvqv631095f64jvm7jfj_000000gn/T//ccmjRN3I.s:3541   .debug_str:0000000000000720 .LASF98
/var/folders/rt/4gvqv631095f64jvm7jfj_000000gn/T//ccmjRN3I.s:3313   .debug_str:00000000000001eb .LASF99
/var/folders/rt/4gvqv631095f64jvm7jfj_000000gn/T//ccmjRN3I.s:3363   .debug_str:00000000000002ea .LASF100
/var/folders/rt/4gvqv631095f64jvm7jfj_000000gn/T//ccmjRN3I.s:3567   .debug_str:00000000000007a1 .LASF101
/var/folders/rt/4gvqv631095f64jvm7jfj_000000gn/T//ccmjRN3I.s:3409   .debug_str:00000000000003d8 .LASF102
/var/folders/rt/4gvqv631095f64jvm7jfj_000000gn/T//ccmjRN3I.s:3359   .debug_str:00000000000002d3 .LASF103
/var/folders/rt/4gvqv631095f64jvm7jfj_000000gn/T//ccmjRN3I.s:3571   .debug_str:00000000000007b9 .LASF104
/var/folders/rt/4gvqv631095f64jvm7jfj_000000gn/T//ccmjRN3I.s:3405   .debug_str:00000000000003c0 .LASF105
/var/folders/rt/4gvqv631095f64jvm7jfj_000000gn/T//ccmjRN3I.s:3577   .debug_str:00000000000007d7 .LASF106
/var/folders/rt/4gvqv631095f64jvm7jfj_000000gn/T//ccmjRN3I.s:3259   .debug_str:00000000000000e2 .LASF107
/var/folders/rt/4gvqv631095f64jvm7jfj_000000gn/T//ccmjRN3I.s:3553   .debug_str:000000000000075f .LASF108
/var/folders/rt/4gvqv631095f64jvm7jfj_000000gn/T//ccmjRN3I.s:3361   .debug_str:00000000000002de .LASF109
/var/folders/rt/4gvqv631095f64jvm7jfj_000000gn/T//ccmjRN3I.s:3531   .debug_str:00000000000006db .LASF110
/var/folders/rt/4gvqv631095f64jvm7jfj_000000gn/T//ccmjRN3I.s:3315   .debug_str:00000000000001f8 .LASF111
/var/folders/rt/4gvqv631095f64jvm7jfj_000000gn/T//ccmjRN3I.s:3533   .debug_str:00000000000006e8 .LASF112
/var/folders/rt/4gvqv631095f64jvm7jfj_000000gn/T//ccmjRN3I.s:3311   .debug_str:00000000000001da .LASF113
/var/folders/rt/4gvqv631095f64jvm7jfj_000000gn/T//ccmjRN3I.s:3241   .debug_str:000000000000005f .LASF114
/var/folders/rt/4gvqv631095f64jvm7jfj_000000gn/T//ccmjRN3I.s:3243   .debug_str:000000000000006e .LASF115
/var/folders/rt/4gvqv631095f64jvm7jfj_000000gn/T//ccmjRN3I.s:3435   .debug_str:0000000000000466 .LASF116
/var/folders/rt/4gvqv631095f64jvm7jfj_000000gn/T//ccmjRN3I.s:3369   .debug_str:0000000000000305 .LASF117
/var/folders/rt/4gvqv631095f64jvm7jfj_000000gn/T//ccmjRN3I.s:3389   .debug_str:000000000000035f .LASF118
/var/folders/rt/4gvqv631095f64jvm7jfj_000000gn/T//ccmjRN3I.s:3563   .debug_str:000000000000078e .LASF119
/var/folders/rt/4gvqv631095f64jvm7jfj_000000gn/T//ccmjRN3I.s:3251   .debug_str:00000000000000a9 .LASF183
/var/folders/rt/4gvqv631095f64jvm7jfj_000000gn/T//ccmjRN3I.s:3323   .debug_str:000000000000021c .LASF121
/var/folders/rt/4gvqv631095f64jvm7jfj_000000gn/T//ccmjRN3I.s:3537   .debug_str:0000000000000704 .LASF122
/var/folders/rt/4gvqv631095f64jvm7jfj_000000gn/T//ccmjRN3I.s:3403   .debug_str:00000000000003b6 .LASF123
/var/folders/rt/4gvqv631095f64jvm7jfj_000000gn/T//ccmjRN3I.s:3245   .debug_str:000000000000007f .LASF124
/var/folders/rt/4gvqv631095f64jvm7jfj_000000gn/T//ccmjRN3I.s:3465   .debug_str:00000000000004ee .LASF125
/var/folders/rt/4gvqv631095f64jvm7jfj_000000gn/T//ccmjRN3I.s:3249   .debug_str:00000000000000a1 .LASF126
/var/folders/rt/4gvqv631095f64jvm7jfj_000000gn/T//ccmjRN3I.s:3457   .debug_str:00000000000004ca .LASF127
/var/folders/rt/4gvqv631095f64jvm7jfj_000000gn/T//ccmjRN3I.s:3351   .debug_str:00000000000002a3 .LASF128
/var/folders/rt/4gvqv631095f64jvm7jfj_000000gn/T//ccmjRN3I.s:3309   .debug_str:00000000000001cc .LASF129
/var/folders/rt/4gvqv631095f64jvm7jfj_000000gn/T//ccmjRN3I.s:3273   .debug_str:0000000000000126 .LASF130
/var/folders/rt/4gvqv631095f64jvm7jfj_000000gn/T//ccmjRN3I.s:3331   .debug_str:000000000000023e .LASF131
/var/folders/rt/4gvqv631095f64jvm7jfj_000000gn/T//ccmjRN3I.s:3397   .debug_str:000000000000038c .LASF132
/var/folders/rt/4gvqv631095f64jvm7jfj_000000gn/T//ccmjRN3I.s:3293   .debug_str:000000000000017a .LASF133
/var/folders/rt/4gvqv631095f64jvm7jfj_000000gn/T//ccmjRN3I.s:3349   .debug_str:000000000000028e .LASF134
/var/folders/rt/4gvqv631095f64jvm7jfj_000000gn/T//ccmjRN3I.s:3535   .debug_str:00000000000006f7 .LASF135
/var/folders/rt/4gvqv631095f64jvm7jfj_000000gn/T//ccmjRN3I.s:3235   .debug_str:0000000000000042 .LASF136
/var/folders/rt/4gvqv631095f64jvm7jfj_000000gn/T//ccmjRN3I.s:3271   .debug_str:000000000000011a .LASF137
/var/folders/rt/4gvqv631095f64jvm7jfj_000000gn/T//ccmjRN3I.s:3379   .debug_str:0000000000000324 .LASF138
/var/folders/rt/4gvqv631095f64jvm7jfj_000000gn/T//ccmjRN3I.s:3257   .debug_str:00000000000000cf .LASF139
/var/folders/rt/4gvqv631095f64jvm7jfj_000000gn/T//ccmjRN3I.s:3473   .debug_str:0000000000000523 .LASF140
/var/folders/rt/4gvqv631095f64jvm7jfj_000000gn/T//ccmjRN3I.s:3585   .debug_str:00000000000007f8 .LASF141
/var/folders/rt/4gvqv631095f64jvm7jfj_000000gn/T//ccmjRN3I.s:3391   .debug_str:0000000000000368 .LASF142
/var/folders/rt/4gvqv631095f64jvm7jfj_000000gn/T//ccmjRN3I.s:3255   .debug_str:00000000000000c2 .LASF143
/var/folders/rt/4gvqv631095f64jvm7jfj_000000gn/T//ccmjRN3I.s:3555   .debug_str:0000000000000769 .LASF144
/var/folders/rt/4gvqv631095f64jvm7jfj_000000gn/T//ccmjRN3I.s:3547   .debug_str:0000000000000747 .LASF145
/var/folders/rt/4gvqv631095f64jvm7jfj_000000gn/T//ccmjRN3I.s:3545   .debug_str:000000000000073d .LASF146
/var/folders/rt/4gvqv631095f64jvm7jfj_000000gn/T//ccmjRN3I.s:3505   .debug_str:00000000000005af .LASF147
/var/folders/rt/4gvqv631095f64jvm7jfj_000000gn/T//ccmjRN3I.s:3513   .debug_str:00000000000005d1 .LASF148
GAS LISTING /var/folders/rt/4gvqv631095f64jvm7jfj_000000gn/T//ccmjRN3I.s 			page 12


/var/folders/rt/4gvqv631095f64jvm7jfj_000000gn/T//ccmjRN3I.s:3387   .debug_str:0000000000000357 .LASF149
/var/folders/rt/4gvqv631095f64jvm7jfj_000000gn/T//ccmjRN3I.s:3427   .debug_str:0000000000000440 .LASF150
/var/folders/rt/4gvqv631095f64jvm7jfj_000000gn/T//ccmjRN3I.s:3523   .debug_str:00000000000006bf .LASF151
/var/folders/rt/4gvqv631095f64jvm7jfj_000000gn/T//ccmjRN3I.s:3231   .debug_str:0000000000000031 .LASF152
/var/folders/rt/4gvqv631095f64jvm7jfj_000000gn/T//ccmjRN3I.s:3421   .debug_str:000000000000041d .LASF153
/var/folders/rt/4gvqv631095f64jvm7jfj_000000gn/T//ccmjRN3I.s:3413   .debug_str:00000000000003f0 .LASF154
/var/folders/rt/4gvqv631095f64jvm7jfj_000000gn/T//ccmjRN3I.s:3393   .debug_str:0000000000000374 .LASF155
/var/folders/rt/4gvqv631095f64jvm7jfj_000000gn/T//ccmjRN3I.s:3581   .debug_str:00000000000007ea .LASF184
/var/folders/rt/4gvqv631095f64jvm7jfj_000000gn/T//ccmjRN3I.s:14     .text.startup.main:0000000000000000 .LFB6
/var/folders/rt/4gvqv631095f64jvm7jfj_000000gn/T//ccmjRN3I.s:208    .text.startup.main:0000000000000188 .LFE6
/var/folders/rt/4gvqv631095f64jvm7jfj_000000gn/T//ccmjRN3I.s:3136   .debug_loc:0000000000000000 .LLST0
/var/folders/rt/4gvqv631095f64jvm7jfj_000000gn/T//ccmjRN3I.s:3154   .debug_loc:000000000000002e .LLST1
/var/folders/rt/4gvqv631095f64jvm7jfj_000000gn/T//ccmjRN3I.s:3415   .debug_str:00000000000003fe .LASF156
/var/folders/rt/4gvqv631095f64jvm7jfj_000000gn/T//ccmjRN3I.s:3183   .debug_loc:0000000000000073 .LLST2
/var/folders/rt/4gvqv631095f64jvm7jfj_000000gn/T//ccmjRN3I.s:3425   .debug_str:0000000000000435 .LASF157
/var/folders/rt/4gvqv631095f64jvm7jfj_000000gn/T//ccmjRN3I.s:3381   .debug_str:000000000000033c .LASF158
/var/folders/rt/4gvqv631095f64jvm7jfj_000000gn/T//ccmjRN3I.s:3455   .debug_str:00000000000004bb .LASF159
/var/folders/rt/4gvqv631095f64jvm7jfj_000000gn/T//ccmjRN3I.s:86     .text.startup.main:000000000000008c .LVL1
/var/folders/rt/4gvqv631095f64jvm7jfj_000000gn/T//ccmjRN3I.s:89     .text.startup.main:0000000000000094 .LVL2
/var/folders/rt/4gvqv631095f64jvm7jfj_000000gn/T//ccmjRN3I.s:92     .text.startup.main:000000000000009c .LVL3
/var/folders/rt/4gvqv631095f64jvm7jfj_000000gn/T//ccmjRN3I.s:95     .text.startup.main:00000000000000a4 .LVL4
/var/folders/rt/4gvqv631095f64jvm7jfj_000000gn/T//ccmjRN3I.s:98     .text.startup.main:00000000000000ac .LVL5
/var/folders/rt/4gvqv631095f64jvm7jfj_000000gn/T//ccmjRN3I.s:102    .text.startup.main:00000000000000b6 .LVL6
/var/folders/rt/4gvqv631095f64jvm7jfj_000000gn/T//ccmjRN3I.s:106    .text.startup.main:00000000000000c0 .LVL7
/var/folders/rt/4gvqv631095f64jvm7jfj_000000gn/T//ccmjRN3I.s:109    .text.startup.main:00000000000000c8 .LVL8
/var/folders/rt/4gvqv631095f64jvm7jfj_000000gn/T//ccmjRN3I.s:117    .text.startup.main:00000000000000de .LVL9
/var/folders/rt/4gvqv631095f64jvm7jfj_000000gn/T//ccmjRN3I.s:120    .text.startup.main:00000000000000e6 .LVL10
/var/folders/rt/4gvqv631095f64jvm7jfj_000000gn/T//ccmjRN3I.s:124    .text.startup.main:00000000000000f0 .LVL11
/var/folders/rt/4gvqv631095f64jvm7jfj_000000gn/T//ccmjRN3I.s:128    .text.startup.main:00000000000000fa .LVL12
/var/folders/rt/4gvqv631095f64jvm7jfj_000000gn/T//ccmjRN3I.s:131    .text.startup.main:0000000000000102 .LVL13
/var/folders/rt/4gvqv631095f64jvm7jfj_000000gn/T//ccmjRN3I.s:135    .text.startup.main:000000000000010c .LVL14
/var/folders/rt/4gvqv631095f64jvm7jfj_000000gn/T//ccmjRN3I.s:144    .text.startup.main:0000000000000126 .LVL15
/var/folders/rt/4gvqv631095f64jvm7jfj_000000gn/T//ccmjRN3I.s:169    .text.startup.main:0000000000000148 .LVL18
/var/folders/rt/4gvqv631095f64jvm7jfj_000000gn/T//ccmjRN3I.s:174    .text.startup.main:0000000000000150 .LVL19
/var/folders/rt/4gvqv631095f64jvm7jfj_000000gn/T//ccmjRN3I.s:181    .text.startup.main:000000000000015c .LVL21
/var/folders/rt/4gvqv631095f64jvm7jfj_000000gn/T//ccmjRN3I.s:183    .text.startup.main:0000000000000164 .LVL22
/var/folders/rt/4gvqv631095f64jvm7jfj_000000gn/T//ccmjRN3I.s:195    .text.startup.main:0000000000000176 .LVL24
/var/folders/rt/4gvqv631095f64jvm7jfj_000000gn/T//ccmjRN3I.s:200    .text.startup.main:0000000000000182 .LVL25
/var/folders/rt/4gvqv631095f64jvm7jfj_000000gn/T//ccmjRN3I.s:3559   .debug_str:000000000000077e .LASF160
/var/folders/rt/4gvqv631095f64jvm7jfj_000000gn/T//ccmjRN3I.s:3527   .debug_str:00000000000006cc .LASF161
/var/folders/rt/4gvqv631095f64jvm7jfj_000000gn/T//ccmjRN3I.s:3285   .debug_str:0000000000000158 .LASF162
/var/folders/rt/4gvqv631095f64jvm7jfj_000000gn/T//ccmjRN3I.s:3429   .debug_str:000000000000044a .LASF163
/var/folders/rt/4gvqv631095f64jvm7jfj_000000gn/T//ccmjRN3I.s:3233   .debug_str:000000000000003a .LASF164
/var/folders/rt/4gvqv631095f64jvm7jfj_000000gn/T//ccmjRN3I.s:3573   .debug_str:00000000000007be .LASF165
/var/folders/rt/4gvqv631095f64jvm7jfj_000000gn/T//ccmjRN3I.s:3459   .debug_str:00000000000004d8 .LASF166
/var/folders/rt/4gvqv631095f64jvm7jfj_000000gn/T//ccmjRN3I.s:3575   .debug_str:00000000000007ce .LASF167
/var/folders/rt/4gvqv631095f64jvm7jfj_000000gn/T//ccmjRN3I.s:3411   .debug_str:00000000000003e7 .LASF168
/var/folders/rt/4gvqv631095f64jvm7jfj_000000gn/T//ccmjRN3I.s:3253   .debug_str:00000000000000b4 .LASF169
/var/folders/rt/4gvqv631095f64jvm7jfj_000000gn/T//ccmjRN3I.s:3543   .debug_str:000000000000072d .LASF170
/var/folders/rt/4gvqv631095f64jvm7jfj_000000gn/T//ccmjRN3I.s:3589   .debug_str:0000000000000810 .LASF171
/var/folders/rt/4gvqv631095f64jvm7jfj_000000gn/T//ccmjRN3I.s:3357   .debug_str:00000000000002b5 .LASF172
/var/folders/rt/4gvqv631095f64jvm7jfj_000000gn/T//ccmjRN3I.s:3291   .debug_str:0000000000000170 .LASF173
/var/folders/rt/4gvqv631095f64jvm7jfj_000000gn/T//ccmjRN3I.s:3509   .debug_str:00000000000005bf .LASF174
/var/folders/rt/4gvqv631095f64jvm7jfj_000000gn/T//ccmjRN3I.s:3417   .debug_str:0000000000000403 .LASF175
/var/folders/rt/4gvqv631095f64jvm7jfj_000000gn/T//ccmjRN3I.s:3445   .debug_str:0000000000000491 .LASF176
/var/folders/rt/4gvqv631095f64jvm7jfj_000000gn/T//ccmjRN3I.s:3263   .debug_str:00000000000000f9 .LASF177
/var/folders/rt/4gvqv631095f64jvm7jfj_000000gn/T//ccmjRN3I.s:3507   .debug_str:00000000000005b8 .LASF178
GAS LISTING /var/folders/rt/4gvqv631095f64jvm7jfj_000000gn/T//ccmjRN3I.s 			page 13


/var/folders/rt/4gvqv631095f64jvm7jfj_000000gn/T//ccmjRN3I.s:3347   .debug_str:0000000000000287 .LASF179
/var/folders/rt/4gvqv631095f64jvm7jfj_000000gn/T//ccmjRN3I.s:25     .text.startup.main:0000000000000004 .LCFI0
/var/folders/rt/4gvqv631095f64jvm7jfj_000000gn/T//ccmjRN3I.s:41     .text.startup.main:0000000000000028 .LCFI1
/var/folders/rt/4gvqv631095f64jvm7jfj_000000gn/T//ccmjRN3I.s:19     .text.startup.main:0000000000000000 .LVL0
/var/folders/rt/4gvqv631095f64jvm7jfj_000000gn/T//ccmjRN3I.s:153    .text.startup.main:0000000000000132 .LVL16
/var/folders/rt/4gvqv631095f64jvm7jfj_000000gn/T//ccmjRN3I.s:178    .text.startup.main:0000000000000154 .LVL20
/var/folders/rt/4gvqv631095f64jvm7jfj_000000gn/T//ccmjRN3I.s:189    .text.startup.main:0000000000000168 .LVL23
/var/folders/rt/4gvqv631095f64jvm7jfj_000000gn/T//ccmjRN3I.s:237    .debug_info:0000000000000000 .Ldebug_info0

UNDEFINED SYMBOLS
initPlant
t5omsi
colinit
l88init
rtcInit
rtc_counter_set
Lcd_SetType
Lcd_Init
LCD_Fill
MAX31865_Init
ADC3powerUpInit
u0init
eclic_global_interrupt_enable
LCD_Clear
LCD_ShowStr
commandBufferIndex
receiveCommands
t5expq
colset
l88row
l88mem
