GAS LISTING /var/folders/rt/4gvqv631095f64jvm7jfj_000000gn/T//ccA8CvEa.s 			page 1


   1              		.file	"main.c"
   2              		.option nopic
   3              		.attribute arch, "rv32i2p0_m2p0_a2p0_c2p0"
   4              		.attribute unaligned_access, 0
   5              		.attribute stack_align, 16
   6              		.text
   7              	.Ltext0:
   8              		.cfi_sections	.debug_frame
   9              		.section	.text.jsmn_parse,"ax",@progbits
  10              		.align	1
  11              		.globl	jsmn_parse
  13              	jsmn_parse:
  14              	.LFB6:
  15              		.file 1 "jsmn.h"
   1:jsmn.h        **** /*
   2:jsmn.h        ****  * MIT License
   3:jsmn.h        ****  *
   4:jsmn.h        ****  * Copyright (c) 2010 Serge Zaitsev
   5:jsmn.h        ****  *
   6:jsmn.h        ****  * Permission is hereby granted, free of charge, to any person obtaining a copy
   7:jsmn.h        ****  * of this software and associated documentation files (the "Software"), to deal
   8:jsmn.h        ****  * in the Software without restriction, including without limitation the rights
   9:jsmn.h        ****  * to use, copy, modify, merge, publish, distribute, sublicense, and/or sell
  10:jsmn.h        ****  * copies of the Software, and to permit persons to whom the Software is
  11:jsmn.h        ****  * furnished to do so, subject to the following conditions:
  12:jsmn.h        ****  *
  13:jsmn.h        ****  * The above copyright notice and this permission notice shall be included in
  14:jsmn.h        ****  * all copies or substantial portions of the Software.
  15:jsmn.h        ****  *
  16:jsmn.h        ****  * THE SOFTWARE IS PROVIDED "AS IS", WITHOUT WARRANTY OF ANY KIND, EXPRESS OR
  17:jsmn.h        ****  * IMPLIED, INCLUDING BUT NOT LIMITED TO THE WARRANTIES OF MERCHANTABILITY,
  18:jsmn.h        ****  * FITNESS FOR A PARTICULAR PURPOSE AND NONINFRINGEMENT. IN NO EVENT SHALL THE
  19:jsmn.h        ****  * AUTHORS OR COPYRIGHT HOLDERS BE LIABLE FOR ANY CLAIM, DAMAGES OR OTHER
  20:jsmn.h        ****  * LIABILITY, WHETHER IN AN ACTION OF CONTRACT, TORT OR OTHERWISE, ARISING FROM,
  21:jsmn.h        ****  * OUT OF OR IN CONNECTION WITH THE SOFTWARE OR THE USE OR OTHER DEALINGS IN THE
  22:jsmn.h        ****  * SOFTWARE.
  23:jsmn.h        ****  */
  24:jsmn.h        **** #ifndef JSMN_H
  25:jsmn.h        **** #define JSMN_H
  26:jsmn.h        **** 
  27:jsmn.h        **** #include <stddef.h>
  28:jsmn.h        **** 
  29:jsmn.h        **** #ifdef __cplusplus
  30:jsmn.h        **** extern "C" {
  31:jsmn.h        **** #endif
  32:jsmn.h        **** 
  33:jsmn.h        **** #ifdef JSMN_STATIC
  34:jsmn.h        **** #define JSMN_API static
  35:jsmn.h        **** #else
  36:jsmn.h        **** #define JSMN_API extern
  37:jsmn.h        **** #endif
  38:jsmn.h        **** 
  39:jsmn.h        **** /**
  40:jsmn.h        ****  * JSON type identifier. Basic types are:
  41:jsmn.h        ****  * 	o Object
  42:jsmn.h        ****  * 	o Array
  43:jsmn.h        ****  * 	o String
GAS LISTING /var/folders/rt/4gvqv631095f64jvm7jfj_000000gn/T//ccA8CvEa.s 			page 2


  44:jsmn.h        ****  * 	o Other primitive: number, boolean (true/false) or null
  45:jsmn.h        ****  */
  46:jsmn.h        **** typedef enum {
  47:jsmn.h        ****   JSMN_UNDEFINED = 0,
  48:jsmn.h        ****   JSMN_OBJECT = 1 << 0,
  49:jsmn.h        ****   JSMN_ARRAY = 1 << 1,
  50:jsmn.h        ****   JSMN_STRING = 1 << 2,
  51:jsmn.h        ****   JSMN_PRIMITIVE = 1 << 3
  52:jsmn.h        **** } jsmntype_t;
  53:jsmn.h        **** 
  54:jsmn.h        **** enum jsmnerr {
  55:jsmn.h        ****   /* Not enough tokens were provided */
  56:jsmn.h        ****   JSMN_ERROR_NOMEM = -1,
  57:jsmn.h        ****   /* Invalid character inside JSON string */
  58:jsmn.h        ****   JSMN_ERROR_INVAL = -2,
  59:jsmn.h        ****   /* The string is not a full JSON packet, more bytes expected */
  60:jsmn.h        ****   JSMN_ERROR_PART = -3
  61:jsmn.h        **** };
  62:jsmn.h        **** 
  63:jsmn.h        **** /**
  64:jsmn.h        ****  * JSON token description.
  65:jsmn.h        ****  * type		type (object, array, string etc.)
  66:jsmn.h        ****  * start	start position in JSON data string
  67:jsmn.h        ****  * end		end position in JSON data string
  68:jsmn.h        ****  */
  69:jsmn.h        **** typedef struct jsmntok {
  70:jsmn.h        ****   jsmntype_t type;
  71:jsmn.h        ****   int start;
  72:jsmn.h        ****   int end;
  73:jsmn.h        ****   int size;
  74:jsmn.h        **** #ifdef JSMN_PARENT_LINKS
  75:jsmn.h        ****   int parent;
  76:jsmn.h        **** #endif
  77:jsmn.h        **** } jsmntok_t;
  78:jsmn.h        **** 
  79:jsmn.h        **** /**
  80:jsmn.h        ****  * JSON parser. Contains an array of token blocks available. Also stores
  81:jsmn.h        ****  * the string being parsed now and current position in that string.
  82:jsmn.h        ****  */
  83:jsmn.h        **** typedef struct jsmn_parser {
  84:jsmn.h        ****   unsigned int pos;     /* offset in the JSON string */
  85:jsmn.h        ****   unsigned int toknext; /* next token to allocate */
  86:jsmn.h        ****   int toksuper;         /* superior token node, e.g. parent object or array */
  87:jsmn.h        **** } jsmn_parser;
  88:jsmn.h        **** 
  89:jsmn.h        **** /**
  90:jsmn.h        ****  * Create JSON parser over an array of tokens
  91:jsmn.h        ****  */
  92:jsmn.h        **** JSMN_API void jsmn_init(jsmn_parser *parser);
  93:jsmn.h        **** 
  94:jsmn.h        **** /**
  95:jsmn.h        ****  * Run JSON parser. It parses a JSON data string into and array of tokens, each
  96:jsmn.h        ****  * describing
  97:jsmn.h        ****  * a single JSON object.
  98:jsmn.h        ****  */
  99:jsmn.h        **** JSMN_API int jsmn_parse(jsmn_parser *parser, const char *js, const size_t len,
 100:jsmn.h        ****                         jsmntok_t *tokens, const unsigned int num_tokens);
GAS LISTING /var/folders/rt/4gvqv631095f64jvm7jfj_000000gn/T//ccA8CvEa.s 			page 3


 101:jsmn.h        **** 
 102:jsmn.h        **** #ifndef JSMN_HEADER
 103:jsmn.h        **** /**
 104:jsmn.h        ****  * Allocates a fresh unused token from the token pool.
 105:jsmn.h        ****  */
 106:jsmn.h        **** static jsmntok_t *jsmn_alloc_token(jsmn_parser *parser, jsmntok_t *tokens,
 107:jsmn.h        ****                                    const size_t num_tokens) {
 108:jsmn.h        ****   jsmntok_t *tok;
 109:jsmn.h        ****   if (parser->toknext >= num_tokens) {
 110:jsmn.h        ****     return NULL;
 111:jsmn.h        ****   }
 112:jsmn.h        ****   tok = &tokens[parser->toknext++];
 113:jsmn.h        ****   tok->start = tok->end = -1;
 114:jsmn.h        ****   tok->size = 0;
 115:jsmn.h        **** #ifdef JSMN_PARENT_LINKS
 116:jsmn.h        ****   tok->parent = -1;
 117:jsmn.h        **** #endif
 118:jsmn.h        ****   return tok;
 119:jsmn.h        **** }
 120:jsmn.h        **** 
 121:jsmn.h        **** /**
 122:jsmn.h        ****  * Fills token type and boundaries.
 123:jsmn.h        ****  */
 124:jsmn.h        **** static void jsmn_fill_token(jsmntok_t *token, const jsmntype_t type,
 125:jsmn.h        ****                             const int start, const int end) {
 126:jsmn.h        ****   token->type = type;
 127:jsmn.h        ****   token->start = start;
 128:jsmn.h        ****   token->end = end;
 129:jsmn.h        ****   token->size = 0;
 130:jsmn.h        **** }
 131:jsmn.h        **** 
 132:jsmn.h        **** /**
 133:jsmn.h        ****  * Fills next available token with JSON primitive.
 134:jsmn.h        ****  */
 135:jsmn.h        **** static int jsmn_parse_primitive(jsmn_parser *parser, const char *js,
 136:jsmn.h        ****                                 const size_t len, jsmntok_t *tokens,
 137:jsmn.h        ****                                 const size_t num_tokens) {
 138:jsmn.h        ****   jsmntok_t *token;
 139:jsmn.h        ****   int start;
 140:jsmn.h        **** 
 141:jsmn.h        ****   start = parser->pos;
 142:jsmn.h        **** 
 143:jsmn.h        ****   for (; parser->pos < len && js[parser->pos] != '\0'; parser->pos++) {
 144:jsmn.h        ****     switch (js[parser->pos]) {
 145:jsmn.h        **** #ifndef JSMN_STRICT
 146:jsmn.h        ****     /* In strict mode primitive must be followed by "," or "}" or "]" */
 147:jsmn.h        ****     case ':':
 148:jsmn.h        **** #endif
 149:jsmn.h        ****     case '\t':
 150:jsmn.h        ****     case '\r':
 151:jsmn.h        ****     case '\n':
 152:jsmn.h        ****     case ' ':
 153:jsmn.h        ****     case ',':
 154:jsmn.h        ****     case ']':
 155:jsmn.h        ****     case '}':
 156:jsmn.h        ****       goto found;
 157:jsmn.h        ****     default:
GAS LISTING /var/folders/rt/4gvqv631095f64jvm7jfj_000000gn/T//ccA8CvEa.s 			page 4


 158:jsmn.h        ****                    /* to quiet a warning from gcc*/
 159:jsmn.h        ****       break;
 160:jsmn.h        ****     }
 161:jsmn.h        ****     if (js[parser->pos] < 32 || js[parser->pos] >= 127) {
 162:jsmn.h        ****       parser->pos = start;
 163:jsmn.h        ****       return JSMN_ERROR_INVAL;
 164:jsmn.h        ****     }
 165:jsmn.h        ****   }
 166:jsmn.h        **** #ifdef JSMN_STRICT
 167:jsmn.h        ****   /* In strict mode primitive must be followed by a comma/object/array */
 168:jsmn.h        ****   parser->pos = start;
 169:jsmn.h        ****   return JSMN_ERROR_PART;
 170:jsmn.h        **** #endif
 171:jsmn.h        **** 
 172:jsmn.h        **** found:
 173:jsmn.h        ****   if (tokens == NULL) {
 174:jsmn.h        ****     parser->pos--;
 175:jsmn.h        ****     return 0;
 176:jsmn.h        ****   }
 177:jsmn.h        ****   token = jsmn_alloc_token(parser, tokens, num_tokens);
 178:jsmn.h        ****   if (token == NULL) {
 179:jsmn.h        ****     parser->pos = start;
 180:jsmn.h        ****     return JSMN_ERROR_NOMEM;
 181:jsmn.h        ****   }
 182:jsmn.h        ****   jsmn_fill_token(token, JSMN_PRIMITIVE, start, parser->pos);
 183:jsmn.h        **** #ifdef JSMN_PARENT_LINKS
 184:jsmn.h        ****   token->parent = parser->toksuper;
 185:jsmn.h        **** #endif
 186:jsmn.h        ****   parser->pos--;
 187:jsmn.h        ****   return 0;
 188:jsmn.h        **** }
 189:jsmn.h        **** 
 190:jsmn.h        **** /**
 191:jsmn.h        ****  * Fills next token with JSON string.
 192:jsmn.h        ****  */
 193:jsmn.h        **** static int jsmn_parse_string(jsmn_parser *parser, const char *js,
 194:jsmn.h        ****                              const size_t len, jsmntok_t *tokens,
 195:jsmn.h        ****                              const size_t num_tokens) {
 196:jsmn.h        ****   jsmntok_t *token;
 197:jsmn.h        **** 
 198:jsmn.h        ****   int start = parser->pos;
 199:jsmn.h        ****   
 200:jsmn.h        ****   /* Skip starting quote */
 201:jsmn.h        ****   parser->pos++;
 202:jsmn.h        ****   
 203:jsmn.h        ****   for (; parser->pos < len && js[parser->pos] != '\0'; parser->pos++) {
 204:jsmn.h        ****     char c = js[parser->pos];
 205:jsmn.h        **** 
 206:jsmn.h        ****     /* Quote: end of string */
 207:jsmn.h        ****     if (c == '\"') {
 208:jsmn.h        ****       if (tokens == NULL) {
 209:jsmn.h        ****         return 0;
 210:jsmn.h        ****       }
 211:jsmn.h        ****       token = jsmn_alloc_token(parser, tokens, num_tokens);
 212:jsmn.h        ****       if (token == NULL) {
 213:jsmn.h        ****         parser->pos = start;
 214:jsmn.h        ****         return JSMN_ERROR_NOMEM;
GAS LISTING /var/folders/rt/4gvqv631095f64jvm7jfj_000000gn/T//ccA8CvEa.s 			page 5


 215:jsmn.h        ****       }
 216:jsmn.h        ****       jsmn_fill_token(token, JSMN_STRING, start + 1, parser->pos);
 217:jsmn.h        **** #ifdef JSMN_PARENT_LINKS
 218:jsmn.h        ****       token->parent = parser->toksuper;
 219:jsmn.h        **** #endif
 220:jsmn.h        ****       return 0;
 221:jsmn.h        ****     }
 222:jsmn.h        **** 
 223:jsmn.h        ****     /* Backslash: Quoted symbol expected */
 224:jsmn.h        ****     if (c == '\\' && parser->pos + 1 < len) {
 225:jsmn.h        ****       int i;
 226:jsmn.h        ****       parser->pos++;
 227:jsmn.h        ****       switch (js[parser->pos]) {
 228:jsmn.h        ****       /* Allowed escaped symbols */
 229:jsmn.h        ****       case '\"':
 230:jsmn.h        ****       case '/':
 231:jsmn.h        ****       case '\\':
 232:jsmn.h        ****       case 'b':
 233:jsmn.h        ****       case 'f':
 234:jsmn.h        ****       case 'r':
 235:jsmn.h        ****       case 'n':
 236:jsmn.h        ****       case 't':
 237:jsmn.h        ****         break;
 238:jsmn.h        ****       /* Allows escaped symbol \uXXXX */
 239:jsmn.h        ****       case 'u':
 240:jsmn.h        ****         parser->pos++;
 241:jsmn.h        ****         for (i = 0; i < 4 && parser->pos < len && js[parser->pos] != '\0';
 242:jsmn.h        ****              i++) {
 243:jsmn.h        ****           /* If it isn't a hex character we have an error */
 244:jsmn.h        ****           if (!((js[parser->pos] >= 48 && js[parser->pos] <= 57) ||   /* 0-9 */
 245:jsmn.h        ****                 (js[parser->pos] >= 65 && js[parser->pos] <= 70) ||   /* A-F */
 246:jsmn.h        ****                 (js[parser->pos] >= 97 && js[parser->pos] <= 102))) { /* a-f */
 247:jsmn.h        ****             parser->pos = start;
 248:jsmn.h        ****             return JSMN_ERROR_INVAL;
 249:jsmn.h        ****           }
 250:jsmn.h        ****           parser->pos++;
 251:jsmn.h        ****         }
 252:jsmn.h        ****         parser->pos--;
 253:jsmn.h        ****         break;
 254:jsmn.h        ****       /* Unexpected symbol */
 255:jsmn.h        ****       default:
 256:jsmn.h        ****         parser->pos = start;
 257:jsmn.h        ****         return JSMN_ERROR_INVAL;
 258:jsmn.h        ****       }
 259:jsmn.h        ****     }
 260:jsmn.h        ****   }
 261:jsmn.h        ****   parser->pos = start;
 262:jsmn.h        ****   return JSMN_ERROR_PART;
 263:jsmn.h        **** }
 264:jsmn.h        **** 
 265:jsmn.h        **** /**
 266:jsmn.h        ****  * Parse JSON string and fill tokens.
 267:jsmn.h        ****  */
 268:jsmn.h        **** JSMN_API int jsmn_parse(jsmn_parser *parser, const char *js, const size_t len,
 269:jsmn.h        ****                         jsmntok_t *tokens, const unsigned int num_tokens) {
  16              		.loc 1 269 75
  17              		.cfi_startproc
GAS LISTING /var/folders/rt/4gvqv631095f64jvm7jfj_000000gn/T//ccA8CvEa.s 			page 6


  18              	.LVL0:
 270:jsmn.h        ****   int r;
  19              		.loc 1 270 3
 271:jsmn.h        ****   int i;
  20              		.loc 1 271 3
 272:jsmn.h        ****   jsmntok_t *token;
  21              		.loc 1 272 3
 273:jsmn.h        ****   int count = parser->toknext;
  22              		.loc 1 273 3
 269:jsmn.h        ****   int r;
  23              		.loc 1 269 75 is_stmt 0
  24 0000 AA87     		mv	a5,a0
  25              		.loc 1 273 7
  26 0002 4841     		lw	a0,4(a0)
  27              	.LVL1:
 274:jsmn.h        **** 
 275:jsmn.h        ****   for (; parser->pos < len && js[parser->pos] != '\0'; parser->pos++) {
  28              		.loc 1 275 3 is_stmt 1
 269:jsmn.h        ****   int r;
  29              		.loc 1 269 75 is_stmt 0
  30 0004 7971     		addi	sp,sp,-48
  31              	.LCFI0:
  32              		.cfi_def_cfa_offset 48
  33 0006 22D6     		sw	s0,44(sp)
  34 0008 4ED0     		sw	s3,32(sp)
  35 000a 26D4     		sw	s1,40(sp)
  36 000c 4AD2     		sw	s2,36(sp)
  37 000e 52CE     		sw	s4,28(sp)
  38 0010 56CC     		sw	s5,24(sp)
  39 0012 5ACA     		sw	s6,20(sp)
  40 0014 5EC8     		sw	s7,16(sp)
  41 0016 62C6     		sw	s8,12(sp)
  42 0018 66C4     		sw	s9,8(sp)
  43 001a 6AC2     		sw	s10,4(sp)
  44 001c 6EC0     		sw	s11,0(sp)
  45              		.cfi_offset 8, -4
  46              		.cfi_offset 19, -16
  47              		.cfi_offset 9, -8
  48              		.cfi_offset 18, -12
  49              		.cfi_offset 20, -20
  50              		.cfi_offset 21, -24
  51              		.cfi_offset 22, -28
  52              		.cfi_offset 23, -32
  53              		.cfi_offset 24, -36
  54              		.cfi_offset 25, -40
  55              		.cfi_offset 26, -44
  56              		.cfi_offset 27, -48
  57              	.LBB26:
 276:jsmn.h        ****     char c;
 277:jsmn.h        ****     jsmntype_t type;
 278:jsmn.h        **** 
 279:jsmn.h        ****     c = js[parser->pos];
 280:jsmn.h        ****     switch (c) {
  58              		.loc 1 280 5
  59 001e 930EC002 		li	t4,44
 281:jsmn.h        ****     case '{':
 282:jsmn.h        ****     case '[':
GAS LISTING /var/folders/rt/4gvqv631095f64jvm7jfj_000000gn/T//ccA8CvEa.s 			page 7


 283:jsmn.h        ****       count++;
 284:jsmn.h        ****       if (tokens == NULL) {
 285:jsmn.h        ****         break;
 286:jsmn.h        ****       }
 287:jsmn.h        ****       token = jsmn_alloc_token(parser, tokens, num_tokens);
 288:jsmn.h        ****       if (token == NULL) {
 289:jsmn.h        ****         return JSMN_ERROR_NOMEM;
 290:jsmn.h        ****       }
 291:jsmn.h        ****       if (parser->toksuper != -1) {
 292:jsmn.h        ****         jsmntok_t *t = &tokens[parser->toksuper];
 293:jsmn.h        **** #ifdef JSMN_STRICT
 294:jsmn.h        ****         /* In strict mode an object or array can't become a key */
 295:jsmn.h        ****         if (t->type == JSMN_OBJECT) {
 296:jsmn.h        ****           return JSMN_ERROR_INVAL;
 297:jsmn.h        ****         }
 298:jsmn.h        **** #endif
 299:jsmn.h        ****         t->size++;
 300:jsmn.h        **** #ifdef JSMN_PARENT_LINKS
 301:jsmn.h        ****         token->parent = parser->toksuper;
 302:jsmn.h        **** #endif
 303:jsmn.h        ****       }
 304:jsmn.h        ****       token->type = (c == '{' ? JSMN_OBJECT : JSMN_ARRAY);
 305:jsmn.h        ****       token->start = parser->pos;
 306:jsmn.h        ****       parser->toksuper = parser->toknext - 1;
 307:jsmn.h        ****       break;
 308:jsmn.h        ****     case '}':
 309:jsmn.h        ****     case ']':
 310:jsmn.h        ****       if (tokens == NULL) {
 311:jsmn.h        ****         break;
 312:jsmn.h        ****       }
 313:jsmn.h        ****       type = (c == '}' ? JSMN_OBJECT : JSMN_ARRAY);
 314:jsmn.h        **** #ifdef JSMN_PARENT_LINKS
 315:jsmn.h        ****       if (parser->toknext < 1) {
 316:jsmn.h        ****         return JSMN_ERROR_INVAL;
 317:jsmn.h        ****       }
 318:jsmn.h        ****       token = &tokens[parser->toknext - 1];
 319:jsmn.h        ****       for (;;) {
 320:jsmn.h        ****         if (token->start != -1 && token->end == -1) {
 321:jsmn.h        ****           if (token->type != type) {
 322:jsmn.h        ****             return JSMN_ERROR_INVAL;
 323:jsmn.h        ****           }
 324:jsmn.h        ****           token->end = parser->pos + 1;
 325:jsmn.h        ****           parser->toksuper = token->parent;
 326:jsmn.h        ****           break;
 327:jsmn.h        ****         }
 328:jsmn.h        ****         if (token->parent == -1) {
 329:jsmn.h        ****           if (token->type != type || parser->toksuper == -1) {
 330:jsmn.h        ****             return JSMN_ERROR_INVAL;
 331:jsmn.h        ****           }
 332:jsmn.h        ****           break;
 333:jsmn.h        ****         }
 334:jsmn.h        ****         token = &tokens[token->parent];
 335:jsmn.h        ****       }
 336:jsmn.h        **** #else
 337:jsmn.h        ****       for (i = parser->toknext - 1; i >= 0; i--) {
 338:jsmn.h        ****         token = &tokens[i];
 339:jsmn.h        ****         if (token->start != -1 && token->end == -1) {
GAS LISTING /var/folders/rt/4gvqv631095f64jvm7jfj_000000gn/T//ccA8CvEa.s 			page 8


 340:jsmn.h        ****           if (token->type != type) {
 341:jsmn.h        ****             return JSMN_ERROR_INVAL;
 342:jsmn.h        ****           }
 343:jsmn.h        ****           parser->toksuper = -1;
 344:jsmn.h        ****           token->end = parser->pos + 1;
 345:jsmn.h        ****           break;
 346:jsmn.h        ****         }
 347:jsmn.h        ****       }
 348:jsmn.h        ****       /* Error if unmatched closing bracket */
 349:jsmn.h        ****       if (i == -1) {
 350:jsmn.h        ****         return JSMN_ERROR_INVAL;
 351:jsmn.h        ****       }
 352:jsmn.h        ****       for (; i >= 0; i--) {
 353:jsmn.h        ****         token = &tokens[i];
 354:jsmn.h        ****         if (token->start != -1 && token->end == -1) {
 355:jsmn.h        ****           parser->toksuper = i;
 356:jsmn.h        ****           break;
 357:jsmn.h        ****         }
 358:jsmn.h        ****       }
 359:jsmn.h        **** #endif
 360:jsmn.h        ****       break;
 361:jsmn.h        ****     case '\"':
 362:jsmn.h        ****       r = jsmn_parse_string(parser, js, len, tokens, num_tokens);
 363:jsmn.h        ****       if (r < 0) {
 364:jsmn.h        ****         return r;
 365:jsmn.h        ****       }
 366:jsmn.h        ****       count++;
 367:jsmn.h        ****       if (parser->toksuper != -1 && tokens != NULL) {
 368:jsmn.h        ****         tokens[parser->toksuper].size++;
 369:jsmn.h        ****       }
 370:jsmn.h        ****       break;
 371:jsmn.h        ****     case '\t':
 372:jsmn.h        ****     case '\r':
 373:jsmn.h        ****     case '\n':
 374:jsmn.h        ****     case ' ':
 375:jsmn.h        ****       break;
 376:jsmn.h        ****     case ':':
 377:jsmn.h        ****       parser->toksuper = parser->toknext - 1;
 378:jsmn.h        ****       break;
 379:jsmn.h        ****     case ',':
 380:jsmn.h        ****       if (tokens != NULL && parser->toksuper != -1 &&
  60              		.loc 1 380 26
  61 0022 7D58     		li	a6,-1
 381:jsmn.h        ****           tokens[parser->toksuper].type != JSMN_ARRAY &&
  62              		.loc 1 381 55
  63 0024 054F     		li	t5,1
  64              	.LBB27:
  65              	.LBB28:
 144:jsmn.h        **** #ifndef JSMN_STRICT
  66              		.loc 1 144 5
  67 0026 930F0002 		li	t6,32
  68 002a 9302A003 		li	t0,58
  69 002e 9303D005 		li	t2,93
  70 0032 1304D007 		li	s0,125
  71 0036 A549     		li	s3,9
  72              	.L2:
  73              	.LBE28:
GAS LISTING /var/folders/rt/4gvqv631095f64jvm7jfj_000000gn/T//ccA8CvEa.s 			page 9


  74              	.LBE27:
  75              	.LBE26:
 275:jsmn.h        ****     char c;
  76              		.loc 1 275 16 discriminator 1
  77 0038 83A80700 		lw	a7,0(a5)
 275:jsmn.h        ****     char c;
  78              		.loc 1 275 3 discriminator 1
  79 003c 63F8C800 		bgeu	a7,a2,.L50
 275:jsmn.h        ****     char c;
  80              		.loc 1 275 33 discriminator 2
  81 0040 33831501 		add	t1,a1,a7
  82 0044 03430300 		lbu	t1,0(t1)
 275:jsmn.h        ****     char c;
  83              		.loc 1 275 28 discriminator 2
  84 0048 63190302 		bne	t1,zero,.L51
  85              	.L50:
 382:jsmn.h        ****           tokens[parser->toksuper].type != JSMN_OBJECT) {
 383:jsmn.h        **** #ifdef JSMN_PARENT_LINKS
 384:jsmn.h        ****         parser->toksuper = tokens[parser->toksuper].parent;
 385:jsmn.h        **** #else
 386:jsmn.h        ****         for (i = parser->toknext - 1; i >= 0; i--) {
 387:jsmn.h        ****           if (tokens[i].type == JSMN_ARRAY || tokens[i].type == JSMN_OBJECT) {
 388:jsmn.h        ****             if (tokens[i].start != -1 && tokens[i].end == -1) {
 389:jsmn.h        ****               parser->toksuper = i;
 390:jsmn.h        ****               break;
 391:jsmn.h        ****             }
 392:jsmn.h        ****           }
 393:jsmn.h        ****         }
 394:jsmn.h        **** #endif
 395:jsmn.h        ****       }
 396:jsmn.h        ****       break;
 397:jsmn.h        **** #ifdef JSMN_STRICT
 398:jsmn.h        ****     /* In strict mode primitives are: numbers and booleans */
 399:jsmn.h        ****     case '-':
 400:jsmn.h        ****     case '0':
 401:jsmn.h        ****     case '1':
 402:jsmn.h        ****     case '2':
 403:jsmn.h        ****     case '3':
 404:jsmn.h        ****     case '4':
 405:jsmn.h        ****     case '5':
 406:jsmn.h        ****     case '6':
 407:jsmn.h        ****     case '7':
 408:jsmn.h        ****     case '8':
 409:jsmn.h        ****     case '9':
 410:jsmn.h        ****     case 't':
 411:jsmn.h        ****     case 'f':
 412:jsmn.h        ****     case 'n':
 413:jsmn.h        ****       /* And they must not be keys of the object */
 414:jsmn.h        ****       if (tokens != NULL && parser->toksuper != -1) {
 415:jsmn.h        ****         const jsmntok_t *t = &tokens[parser->toksuper];
 416:jsmn.h        ****         if (t->type == JSMN_OBJECT ||
 417:jsmn.h        ****             (t->type == JSMN_STRING && t->size != 0)) {
 418:jsmn.h        ****           return JSMN_ERROR_INVAL;
 419:jsmn.h        ****         }
 420:jsmn.h        ****       }
 421:jsmn.h        **** #else
 422:jsmn.h        ****     /* In non-strict mode every unquoted value is a primitive */
GAS LISTING /var/folders/rt/4gvqv631095f64jvm7jfj_000000gn/T//ccA8CvEa.s 			page 10


 423:jsmn.h        ****     default:
 424:jsmn.h        **** #endif
 425:jsmn.h        ****       r = jsmn_parse_primitive(parser, js, len, tokens, num_tokens);
 426:jsmn.h        ****       if (r < 0) {
 427:jsmn.h        ****         return r;
 428:jsmn.h        ****       }
 429:jsmn.h        ****       count++;
 430:jsmn.h        ****       if (parser->toksuper != -1 && tokens != NULL) {
 431:jsmn.h        ****         tokens[parser->toksuper].size++;
 432:jsmn.h        ****       }
 433:jsmn.h        ****       break;
 434:jsmn.h        **** 
 435:jsmn.h        **** #ifdef JSMN_STRICT
 436:jsmn.h        ****     /* Unexpected char in strict mode */
 437:jsmn.h        ****     default:
 438:jsmn.h        ****       return JSMN_ERROR_INVAL;
 439:jsmn.h        **** #endif
 440:jsmn.h        ****     }
 441:jsmn.h        ****   }
 442:jsmn.h        **** 
 443:jsmn.h        ****   if (tokens != NULL) {
  86              		.loc 1 443 3 is_stmt 1
  87              		.loc 1 443 6 is_stmt 0
  88 004c 89CA     		beq	a3,zero,.L1
 444:jsmn.h        ****     for (i = parser->toknext - 1; i >= 0; i--) {
  89              		.loc 1 444 5 is_stmt 1
  90              		.loc 1 444 20 is_stmt 0
  91 004e DC43     		lw	a5,4(a5)
  92              	.LVL2:
  93              		.loc 1 444 30
  94 0050 1387F7FF 		addi	a4,a5,-1
  95              	.LVL3:
  96 0054 9207     		slli	a5,a5,4
  97 0056 BE96     		add	a3,a3,a5
  98              	.LVL4:
 445:jsmn.h        ****       /* Unmatched opened object or array */
 446:jsmn.h        ****       if (tokens[i].start != -1 && tokens[i].end == -1) {
  99              		.loc 1 446 10
 100 0058 FD57     		li	a5,-1
 101              	.LVL5:
 102              	.L52:
 444:jsmn.h        ****     for (i = parser->toknext - 1; i >= 0; i--) {
 103              		.loc 1 444 5 discriminator 1
 104 005a 635E0734 		bge	a4,zero,.L54
 105              	.LVL6:
 106              	.L1:
 447:jsmn.h        ****         return JSMN_ERROR_PART;
 448:jsmn.h        ****       }
 449:jsmn.h        ****     }
 450:jsmn.h        ****   }
 451:jsmn.h        **** 
 452:jsmn.h        ****   return count;
 453:jsmn.h        **** }
 107              		.loc 1 453 1
 108 005e 3254     		lw	s0,44(sp)
 109              		.cfi_remember_state
 110              		.cfi_restore 8
GAS LISTING /var/folders/rt/4gvqv631095f64jvm7jfj_000000gn/T//ccA8CvEa.s 			page 11


 111 0060 A254     		lw	s1,40(sp)
 112              		.cfi_restore 9
 113 0062 1259     		lw	s2,36(sp)
 114              		.cfi_restore 18
 115 0064 8259     		lw	s3,32(sp)
 116              		.cfi_restore 19
 117 0066 724A     		lw	s4,28(sp)
 118              		.cfi_restore 20
 119 0068 E24A     		lw	s5,24(sp)
 120              		.cfi_restore 21
 121 006a 524B     		lw	s6,20(sp)
 122              		.cfi_restore 22
 123 006c C24B     		lw	s7,16(sp)
 124              		.cfi_restore 23
 125 006e 324C     		lw	s8,12(sp)
 126              		.cfi_restore 24
 127 0070 A24C     		lw	s9,8(sp)
 128              		.cfi_restore 25
 129 0072 124D     		lw	s10,4(sp)
 130              		.cfi_restore 26
 131 0074 824D     		lw	s11,0(sp)
 132              		.cfi_restore 27
 133 0076 4561     		addi	sp,sp,48
 134              	.LCFI1:
 135              		.cfi_def_cfa_offset 0
 136 0078 8280     		jr	ra
 137              	.LVL7:
 138              	.L51:
 139              	.LCFI2:
 140              		.cfi_restore_state
 141              	.LBB74:
 276:jsmn.h        ****     jsmntype_t type;
 142              		.loc 1 276 5 is_stmt 1
 277:jsmn.h        **** 
 143              		.loc 1 277 5
 279:jsmn.h        ****     switch (c) {
 144              		.loc 1 279 5
 280:jsmn.h        ****     case '{':
 145              		.loc 1 280 5
 146 007a 6307D327 		beq	t1,t4,.L3
 147 007e 63E46E06 		bgtu	t1,t4,.L4
 148 0082 354E     		li	t3,13
 149 0084 6304C30D 		beq	t1,t3,.L5
 150 0088 63696E00 		bgtu	t1,t3,.L6
 151 008c 5D13     		addi	t1,t1,-9
 152              	.LVL8:
 153 008e 1373F30F 		andi	t1,t1,0xff
 154 0092 637D6F0A 		bleu	t1,t5,.L5
 155              	.L7:
 156              	.LBB38:
 157              	.LBB33:
 144:jsmn.h        **** #ifndef JSMN_STRICT
 158              		.loc 1 144 5 is_stmt 0
 159 0096 B544     		li	s1,13
 160 0098 6DAC     		j	.L45
 161              	.LVL9:
 162              	.L6:
GAS LISTING /var/folders/rt/4gvqv631095f64jvm7jfj_000000gn/T//ccA8CvEa.s 			page 12


 163              	.LBE33:
 164              	.LBE38:
 280:jsmn.h        ****     case '{':
 165              		.loc 1 280 5
 166 009a 6309F30B 		beq	t1,t6,.L5
 167 009e 130E2002 		li	t3,34
 168 00a2 E31AC3FF 		bne	t1,t3,.L7
 362:jsmn.h        ****       if (r < 0) {
 169              		.loc 1 362 7 is_stmt 1
 170              	.LVL10:
 171              	.LBB39:
 172              	.LBB40:
 196:jsmn.h        **** 
 173              		.loc 1 196 3
 198:jsmn.h        ****   
 174              		.loc 1 198 3
 201:jsmn.h        ****   
 175              		.loc 1 201 3
 201:jsmn.h        ****   
 176              		.loc 1 201 14 is_stmt 0
 177 00a6 138A1800 		addi	s4,a7,1
 178 00aa 23A04701 		sw	s4,0(a5)
 203:jsmn.h        ****     char c = js[parser->pos];
 179              		.loc 1 203 3 is_stmt 1
 180              	.LBB41:
 207:jsmn.h        ****       if (tokens == NULL) {
 181              		.loc 1 207 8 is_stmt 0
 182 00ae 930A2002 		li	s5,34
 224:jsmn.h        ****       int i;
 183              		.loc 1 224 8
 184 00b2 130BC005 		li	s6,92
 185              	.LBB42:
 227:jsmn.h        ****       /* Allowed escaped symbols */
 186              		.loc 1 227 7
 187 00b6 930B6006 		li	s7,102
 188 00ba 130C2007 		li	s8,114
 189 00be 130DE006 		li	s10,110
 190 00c2 930CF002 		li	s9,47
 191 00c6 930D2006 		li	s11,98
 192              	.LVL11:
 193              	.L22:
 194              	.LBE42:
 195              	.LBE41:
 203:jsmn.h        ****     char c = js[parser->pos];
 196              		.loc 1 203 16
 197 00ca 03AE0700 		lw	t3,0(a5)
 203:jsmn.h        ****     char c = js[parser->pos];
 198              		.loc 1 203 3
 199 00ce 6378CE00 		bleu	a2,t3,.L35
 203:jsmn.h        ****     char c = js[parser->pos];
 200              		.loc 1 203 33
 201 00d2 3383C501 		add	t1,a1,t3
 202 00d6 03430300 		lbu	t1,0(t1)
 203:jsmn.h        ****     char c = js[parser->pos];
 203              		.loc 1 203 28
 204 00da 631F030E 		bne	t1,zero,.L36
 205              	.L35:
GAS LISTING /var/folders/rt/4gvqv631095f64jvm7jfj_000000gn/T//ccA8CvEa.s 			page 13


 261:jsmn.h        ****   return JSMN_ERROR_PART;
 206              		.loc 1 261 3 is_stmt 1
 261:jsmn.h        ****   return JSMN_ERROR_PART;
 207              		.loc 1 261 15 is_stmt 0
 208 00de 23A01701 		sw	a7,0(a5)
 262:jsmn.h        **** }
 209              		.loc 1 262 3 is_stmt 1
 210              	.LVL12:
 211              	.LBE40:
 212              	.LBE39:
 363:jsmn.h        ****         return r;
 213              		.loc 1 363 7
 214              	.L60:
 215              	.LBE74:
 447:jsmn.h        ****       }
 216              		.loc 1 447 16 is_stmt 0
 217 00e2 7555     		li	a0,-3
 218              	.LVL13:
 219 00e4 ADBF     		j	.L1
 220              	.LVL14:
 221              	.L4:
 222              	.LBB75:
 280:jsmn.h        ****     case '{':
 223              		.loc 1 280 5
 224 00e6 630F7306 		beq	t1,t2,.L9
 225 00ea 63E76306 		bgtu	t1,t2,.L10
 226 00ee 6307531E 		beq	t1,t0,.L11
 227 00f2 130EB005 		li	t3,91
 228 00f6 E310C3FB 		bne	t1,t3,.L7
 229              	.L12:
 283:jsmn.h        ****       if (tokens == NULL) {
 230              		.loc 1 283 7 is_stmt 1
 283:jsmn.h        ****       if (tokens == NULL) {
 231              		.loc 1 283 12 is_stmt 0
 232 00fa 0505     		addi	a0,a0,1
 233              	.LVL15:
 284:jsmn.h        ****         break;
 234              		.loc 1 284 7 is_stmt 1
 284:jsmn.h        ****         break;
 235              		.loc 1 284 10 is_stmt 0
 236 00fc A1CA     		beq	a3,zero,.L5
 287:jsmn.h        ****       if (token == NULL) {
 237              		.loc 1 287 7 is_stmt 1
 238              	.LVL16:
 239              	.LBB61:
 240              	.LBB62:
 108:jsmn.h        ****   if (parser->toknext >= num_tokens) {
 241              		.loc 1 108 3
 109:jsmn.h        ****     return NULL;
 242              		.loc 1 109 3
 109:jsmn.h        ****     return NULL;
 243              		.loc 1 109 13 is_stmt 0
 244 00fe 03A94700 		lw	s2,4(a5)
 109:jsmn.h        ****     return NULL;
 245              		.loc 1 109 6
 246 0102 6374E90E 		bleu	a4,s2,.L55
 112:jsmn.h        ****   tok->start = tok->end = -1;
GAS LISTING /var/folders/rt/4gvqv631095f64jvm7jfj_000000gn/T//ccA8CvEa.s 			page 14


 247              		.loc 1 112 3 is_stmt 1
 112:jsmn.h        ****   tok->start = tok->end = -1;
 248              		.loc 1 112 32 is_stmt 0
 249 0106 130E1900 		addi	t3,s2,1
 250 010a 23A2C701 		sw	t3,4(a5)
 251              	.LBE62:
 252              	.LBE61:
 291:jsmn.h        ****         jsmntok_t *t = &tokens[parser->toksuper];
 253              		.loc 1 291 17
 254 010e 8447     		lw	s1,8(a5)
 255              	.LBB64:
 256              	.LBB63:
 112:jsmn.h        ****   tok->start = tok->end = -1;
 257              		.loc 1 112 16
 258 0110 131E4900 		slli	t3,s2,4
 112:jsmn.h        ****   tok->start = tok->end = -1;
 259              		.loc 1 112 7
 260 0114 369E     		add	t3,a3,t3
 261              	.LVL17:
 113:jsmn.h        ****   tok->size = 0;
 262              		.loc 1 113 3 is_stmt 1
 113:jsmn.h        ****   tok->size = 0;
 263              		.loc 1 113 25 is_stmt 0
 264 0116 23240E01 		sw	a6,8(t3)
 113:jsmn.h        ****   tok->size = 0;
 265              		.loc 1 113 14
 266 011a 23220E01 		sw	a6,4(t3)
 114:jsmn.h        **** #ifdef JSMN_PARENT_LINKS
 267              		.loc 1 114 3 is_stmt 1
 114:jsmn.h        **** #ifdef JSMN_PARENT_LINKS
 268              		.loc 1 114 13 is_stmt 0
 269 011e 23260E00 		sw	zero,12(t3)
 118:jsmn.h        **** }
 270              		.loc 1 118 3 is_stmt 1
 271              	.LVL18:
 272              	.LBE63:
 273              	.LBE64:
 288:jsmn.h        ****         return JSMN_ERROR_NOMEM;
 274              		.loc 1 288 7
 291:jsmn.h        ****         jsmntok_t *t = &tokens[parser->toksuper];
 275              		.loc 1 291 7
 291:jsmn.h        ****         jsmntok_t *t = &tokens[parser->toksuper];
 276              		.loc 1 291 10 is_stmt 0
 277 0122 63890401 		beq	s1,a6,.L14
 278              	.LBB65:
 292:jsmn.h        **** #ifdef JSMN_STRICT
 279              		.loc 1 292 9 is_stmt 1
 292:jsmn.h        **** #ifdef JSMN_STRICT
 280              		.loc 1 292 31 is_stmt 0
 281 0126 9204     		slli	s1,s1,4
 292:jsmn.h        **** #ifdef JSMN_STRICT
 282              		.loc 1 292 20
 283 0128 B694     		add	s1,a3,s1
 284              	.LVL19:
 299:jsmn.h        **** #ifdef JSMN_PARENT_LINKS
 285              		.loc 1 299 9 is_stmt 1
 299:jsmn.h        **** #ifdef JSMN_PARENT_LINKS
GAS LISTING /var/folders/rt/4gvqv631095f64jvm7jfj_000000gn/T//ccA8CvEa.s 			page 15


 286              		.loc 1 299 16 is_stmt 0
 287 012a 03AAC400 		lw	s4,12(s1)
 288 012e 050A     		addi	s4,s4,1
 289 0130 23A64401 		sw	s4,12(s1)
 290              	.LVL20:
 291              	.L14:
 292              	.LBE65:
 304:jsmn.h        ****       token->start = parser->pos;
 293              		.loc 1 304 7 is_stmt 1
 304:jsmn.h        ****       token->start = parser->pos;
 294              		.loc 1 304 45 is_stmt 0
 295 0134 130AB007 		li	s4,123
 296 0138 8544     		li	s1,1
 297 013a 63034301 		beq	t1,s4,.L15
 298 013e 8944     		li	s1,2
 299              	.L15:
 304:jsmn.h        ****       token->start = parser->pos;
 300              		.loc 1 304 19 discriminator 4
 301 0140 23209E00 		sw	s1,0(t3)
 305:jsmn.h        ****       parser->toksuper = parser->toknext - 1;
 302              		.loc 1 305 7 is_stmt 1 discriminator 4
 305:jsmn.h        ****       parser->toksuper = parser->toknext - 1;
 303              		.loc 1 305 20 is_stmt 0 discriminator 4
 304 0144 23221E01 		sw	a7,4(t3)
 306:jsmn.h        ****       break;
 305              		.loc 1 306 7 is_stmt 1 discriminator 4
 306:jsmn.h        ****       break;
 306              		.loc 1 306 24 is_stmt 0 discriminator 4
 307 0148 23A42701 		sw	s2,8(a5)
 307:jsmn.h        ****     case '}':
 308              		.loc 1 307 7 is_stmt 1 discriminator 4
 309              	.LVL21:
 310              	.L5:
 311              	.LBE75:
 275:jsmn.h        ****     char c;
 312              		.loc 1 275 67 is_stmt 0
 313 014c 83A80700 		lw	a7,0(a5)
 314 0150 8508     		addi	a7,a7,1
 315 0152 23A01701 		sw	a7,0(a5)
 316 0156 CDB5     		j	.L2
 317              	.LVL22:
 318              	.L10:
 319              	.LBB76:
 280:jsmn.h        ****     case '{':
 320              		.loc 1 280 5
 321 0158 130EB007 		li	t3,123
 322 015c E30FC3F9 		beq	t1,t3,.L12
 323 0160 E31B83F2 		bne	t1,s0,.L7
 324              	.L9:
 310:jsmn.h        ****         break;
 325              		.loc 1 310 7 is_stmt 1
 310:jsmn.h        ****         break;
 326              		.loc 1 310 10 is_stmt 0
 327 0164 E5D6     		beq	a3,zero,.L5
 313:jsmn.h        **** #ifdef JSMN_PARENT_LINKS
 328              		.loc 1 313 7 is_stmt 1
 313:jsmn.h        **** #ifdef JSMN_PARENT_LINKS
GAS LISTING /var/folders/rt/4gvqv631095f64jvm7jfj_000000gn/T//ccA8CvEa.s 			page 16


 329              		.loc 1 313 38 is_stmt 0
 330 0166 0549     		li	s2,1
 331 0168 63038300 		beq	t1,s0,.L16
 332 016c 0949     		li	s2,2
 333              	.L16:
 334              	.LVL23:
 337:jsmn.h        ****         token = &tokens[i];
 335              		.loc 1 337 7 is_stmt 1 discriminator 4
 337:jsmn.h        ****         token = &tokens[i];
 336              		.loc 1 337 22 is_stmt 0 discriminator 4
 337 016e 03AE4700 		lw	t3,4(a5)
 337:jsmn.h        ****         token = &tokens[i];
 338              		.loc 1 337 32 discriminator 4
 339 0172 1303FEFF 		addi	t1,t3,-1
 340              	.LVL24:
 341 0176 120E     		slli	t3,t3,4
 342 0178 369E     		add	t3,a3,t3
 343              	.L17:
 337:jsmn.h        ****         token = &tokens[i];
 344              		.loc 1 337 7 discriminator 1
 345 017a 63560300 		bge	t1,zero,.L20
 349:jsmn.h        ****         return JSMN_ERROR_INVAL;
 346              		.loc 1 349 7 is_stmt 1
 349:jsmn.h        ****         return JSMN_ERROR_INVAL;
 347              		.loc 1 349 10 is_stmt 0
 348 017e E31703FD 		bne	t1,a6,.L5
 349              	.LVL25:
 350              	.L59:
 341:jsmn.h        ****           }
 351              		.loc 1 341 20
 352 0182 7955     		li	a0,-2
 353              	.LVL26:
 354 0184 E9BD     		j	.L1
 355              	.LVL27:
 356              	.L20:
 338:jsmn.h        ****         if (token->start != -1 && token->end == -1) {
 357              		.loc 1 338 9 is_stmt 1
 339:jsmn.h        ****           if (token->type != type) {
 358              		.loc 1 339 12 is_stmt 0
 359 0186 032A4EFF 		lw	s4,-12(t3)
 360 018a 93040EFF 		addi	s1,t3,-16
 361              	.LVL28:
 339:jsmn.h        ****           if (token->type != type) {
 362              		.loc 1 339 9 is_stmt 1
 339:jsmn.h        ****           if (token->type != type) {
 363              		.loc 1 339 12 is_stmt 0
 364 018e 630D0A03 		beq	s4,a6,.L18
 339:jsmn.h        ****           if (token->type != type) {
 365              		.loc 1 339 32 discriminator 1
 366 0192 032E8EFF 		lw	t3,-8(t3)
 367 0196 63190E03 		bne	t3,a6,.L18
 340:jsmn.h        ****             return JSMN_ERROR_INVAL;
 368              		.loc 1 340 11 is_stmt 1
 340:jsmn.h        ****             return JSMN_ERROR_INVAL;
 369              		.loc 1 340 14 is_stmt 0
 370 019a 03AE0400 		lw	t3,0(s1)
 371 019e E3122EFF 		bne	t3,s2,.L59
GAS LISTING /var/folders/rt/4gvqv631095f64jvm7jfj_000000gn/T//ccA8CvEa.s 			page 17


 343:jsmn.h        ****           token->end = parser->pos + 1;
 372              		.loc 1 343 11 is_stmt 1
 344:jsmn.h        ****           break;
 373              		.loc 1 344 36 is_stmt 0
 374 01a2 8508     		addi	a7,a7,1
 343:jsmn.h        ****           token->end = parser->pos + 1;
 375              		.loc 1 343 28
 376 01a4 23A40701 		sw	a6,8(a5)
 344:jsmn.h        ****           break;
 377              		.loc 1 344 11 is_stmt 1
 344:jsmn.h        ****           break;
 378              		.loc 1 344 22 is_stmt 0
 379 01a8 23A41401 		sw	a7,8(s1)
 345:jsmn.h        ****         }
 380              		.loc 1 345 11 is_stmt 1
 349:jsmn.h        ****         return JSMN_ERROR_INVAL;
 381              		.loc 1 349 7
 382 01ac 93184300 		slli	a7,t1,4
 383 01b0 B698     		add	a7,a3,a7
 384              	.LVL29:
 385              	.L19:
 353:jsmn.h        ****         if (token->start != -1 && token->end == -1) {
 386              		.loc 1 353 9
 354:jsmn.h        ****           parser->toksuper = i;
 387              		.loc 1 354 9
 354:jsmn.h        ****           parser->toksuper = i;
 388              		.loc 1 354 12 is_stmt 0
 389 01b2 03AE4800 		lw	t3,4(a7)
 390 01b6 630C0E01 		beq	t3,a6,.L21
 354:jsmn.h        ****           parser->toksuper = i;
 391              		.loc 1 354 32 discriminator 1
 392 01ba 03AE8800 		lw	t3,8(a7)
 393 01be 63180E01 		bne	t3,a6,.L21
 394              	.LVL30:
 395              	.L86:
 389:jsmn.h        ****               break;
 396              		.loc 1 389 15 is_stmt 1
 389:jsmn.h        ****               break;
 397              		.loc 1 389 32 is_stmt 0
 398 01c2 23A46700 		sw	t1,8(a5)
 390:jsmn.h        ****             }
 399              		.loc 1 390 15 is_stmt 1
 400 01c6 59B7     		j	.L5
 401              	.LVL31:
 402              	.L18:
 337:jsmn.h        ****         token = &tokens[i];
 403              		.loc 1 337 46 is_stmt 0 discriminator 2
 404 01c8 7D13     		addi	t1,t1,-1
 405              	.LVL32:
 406 01ca 268E     		mv	t3,s1
 407 01cc 7DB7     		j	.L17
 408              	.LVL33:
 409              	.L21:
 352:jsmn.h        ****         token = &tokens[i];
 410              		.loc 1 352 23
 411 01ce 7D13     		addi	t1,t1,-1
 412              	.LVL34:
GAS LISTING /var/folders/rt/4gvqv631095f64jvm7jfj_000000gn/T//ccA8CvEa.s 			page 18


 413 01d0 C118     		addi	a7,a7,-16
 414              	.LVL35:
 352:jsmn.h        ****         token = &tokens[i];
 415              		.loc 1 352 7
 416 01d2 E31003FF 		bne	t1,a6,.L19
 417 01d6 9DBF     		j	.L5
 418              	.LVL36:
 419              	.L36:
 420              	.LBB66:
 421              	.LBB57:
 422              	.LBB52:
 204:jsmn.h        **** 
 423              		.loc 1 204 5 is_stmt 1
 207:jsmn.h        ****       if (tokens == NULL) {
 424              		.loc 1 207 5
 207:jsmn.h        ****       if (tokens == NULL) {
 425              		.loc 1 207 8 is_stmt 0
 426 01d8 63195305 		bne	t1,s5,.L23
 208:jsmn.h        ****         return 0;
 427              		.loc 1 208 7 is_stmt 1
 208:jsmn.h        ****         return 0;
 428              		.loc 1 208 10 is_stmt 0
 429 01dc 8DCA     		beq	a3,zero,.L93
 211:jsmn.h        ****       if (token == NULL) {
 430              		.loc 1 211 7 is_stmt 1
 431              	.LVL37:
 432              	.LBB43:
 433              	.LBB44:
 108:jsmn.h        ****   if (parser->toknext >= num_tokens) {
 434              		.loc 1 108 3
 109:jsmn.h        ****     return NULL;
 435              		.loc 1 109 3
 109:jsmn.h        ****     return NULL;
 436              		.loc 1 109 13 is_stmt 0
 437 01de 03A34700 		lw	t1,4(a5)
 438              	.LVL38:
 109:jsmn.h        ****     return NULL;
 439              		.loc 1 109 6
 440 01e2 6366E300 		bgtu	a4,t1,.L25
 441              	.LVL39:
 442              	.L88:
 443              	.LBE44:
 444              	.LBE43:
 445              	.LBE52:
 446              	.LBE57:
 447              	.LBE66:
 448              	.LBB67:
 449              	.LBB34:
 178:jsmn.h        ****     parser->pos = start;
 450              		.loc 1 178 3 is_stmt 1
 179:jsmn.h        ****     return JSMN_ERROR_NOMEM;
 451              		.loc 1 179 5
 179:jsmn.h        ****     return JSMN_ERROR_NOMEM;
 452              		.loc 1 179 17 is_stmt 0
 453 01e6 23A01701 		sw	a7,0(a5)
 180:jsmn.h        ****   }
 454              		.loc 1 180 5 is_stmt 1
GAS LISTING /var/folders/rt/4gvqv631095f64jvm7jfj_000000gn/T//ccA8CvEa.s 			page 19


 455              	.LVL40:
 456              	.LBE34:
 457              	.LBE67:
 426:jsmn.h        ****         return r;
 458              		.loc 1 426 7
 459              	.L55:
 289:jsmn.h        ****       }
 460              		.loc 1 289 16 is_stmt 0
 461 01ea 7D55     		li	a0,-1
 462              	.LVL41:
 463 01ec 8DBD     		j	.L1
 464              	.LVL42:
 465              	.L25:
 466              	.LBB68:
 467              	.LBB58:
 468              	.LBB53:
 469              	.LBB46:
 470              	.LBB45:
 112:jsmn.h        ****   tok->start = tok->end = -1;
 471              		.loc 1 112 3 is_stmt 1
 112:jsmn.h        ****   tok->start = tok->end = -1;
 472              		.loc 1 112 32 is_stmt 0
 473 01ee 93081300 		addi	a7,t1,1
 474              	.LVL43:
 475 01f2 23A21701 		sw	a7,4(a5)
 112:jsmn.h        ****   tok->start = tok->end = -1;
 476              		.loc 1 112 16
 477 01f6 93184300 		slli	a7,t1,4
 112:jsmn.h        ****   tok->start = tok->end = -1;
 478              		.loc 1 112 7
 479 01fa B698     		add	a7,a3,a7
 480              	.LVL44:
 113:jsmn.h        ****   tok->size = 0;
 481              		.loc 1 113 3 is_stmt 1
 114:jsmn.h        **** #ifdef JSMN_PARENT_LINKS
 482              		.loc 1 114 3
 118:jsmn.h        **** }
 483              		.loc 1 118 3
 484              	.LBE45:
 485              	.LBE46:
 212:jsmn.h        ****         parser->pos = start;
 486              		.loc 1 212 7
 216:jsmn.h        **** #ifdef JSMN_PARENT_LINKS
 487              		.loc 1 216 7
 488              	.LBB47:
 489              	.LBB48:
 126:jsmn.h        ****   token->start = start;
 490              		.loc 1 126 3
 126:jsmn.h        ****   token->start = start;
 491              		.loc 1 126 15 is_stmt 0
 492 01fc 1143     		li	t1,4
 493 01fe 23A06800 		sw	t1,0(a7)
 127:jsmn.h        ****   token->end = end;
 494              		.loc 1 127 3 is_stmt 1
 127:jsmn.h        ****   token->end = end;
 495              		.loc 1 127 16 is_stmt 0
 496 0202 23A24801 		sw	s4,4(a7)
GAS LISTING /var/folders/rt/4gvqv631095f64jvm7jfj_000000gn/T//ccA8CvEa.s 			page 20


 128:jsmn.h        ****   token->size = 0;
 497              		.loc 1 128 3 is_stmt 1
 128:jsmn.h        ****   token->size = 0;
 498              		.loc 1 128 14 is_stmt 0
 499 0206 23A4C801 		sw	t3,8(a7)
 129:jsmn.h        **** }
 500              		.loc 1 129 3 is_stmt 1
 129:jsmn.h        **** }
 501              		.loc 1 129 15 is_stmt 0
 502 020a 23A60800 		sw	zero,12(a7)
 503              	.LVL45:
 504              	.LBE48:
 505              	.LBE47:
 220:jsmn.h        ****     }
 506              		.loc 1 220 7 is_stmt 1
 507              	.LBE53:
 508              	.LBE58:
 509              	.LBE68:
 363:jsmn.h        ****         return r;
 510              		.loc 1 363 7
 511              	.L93:
 512              	.LBB69:
 513              	.LBB35:
 187:jsmn.h        **** }
 514              		.loc 1 187 3
 515              	.LBE35:
 516              	.LBE69:
 426:jsmn.h        ****         return r;
 517              		.loc 1 426 7
 429:jsmn.h        ****       if (parser->toksuper != -1 && tokens != NULL) {
 518              		.loc 1 429 7
 430:jsmn.h        ****         tokens[parser->toksuper].size++;
 519              		.loc 1 430 17 is_stmt 0
 520 020e 83A88700 		lw	a7,8(a5)
 429:jsmn.h        ****       if (parser->toksuper != -1 && tokens != NULL) {
 521              		.loc 1 429 12
 522 0212 0505     		addi	a0,a0,1
 523              	.LVL46:
 430:jsmn.h        ****         tokens[parser->toksuper].size++;
 524              		.loc 1 430 7 is_stmt 1
 430:jsmn.h        ****         tokens[parser->toksuper].size++;
 525              		.loc 1 430 10 is_stmt 0
 526 0214 E38C08F3 		beq	a7,a6,.L5
 430:jsmn.h        ****         tokens[parser->toksuper].size++;
 527              		.loc 1 430 34 discriminator 1
 528 0218 95DA     		beq	a3,zero,.L5
 431:jsmn.h        ****       }
 529              		.loc 1 431 9 is_stmt 1
 431:jsmn.h        ****       }
 530              		.loc 1 431 15 is_stmt 0
 531 021a 9208     		slli	a7,a7,4
 532 021c B698     		add	a7,a3,a7
 431:jsmn.h        ****       }
 533              		.loc 1 431 38
 534 021e 03A3C800 		lw	t1,12(a7)
 535 0222 0503     		addi	t1,t1,1
 536 0224 23A66800 		sw	t1,12(a7)
GAS LISTING /var/folders/rt/4gvqv631095f64jvm7jfj_000000gn/T//ccA8CvEa.s 			page 21


 537 0228 15B7     		j	.L5
 538              	.LVL47:
 539              	.L23:
 540              	.LBB70:
 541              	.LBB59:
 542              	.LBB54:
 224:jsmn.h        ****       int i;
 543              		.loc 1 224 5 is_stmt 1
 224:jsmn.h        ****       int i;
 544              		.loc 1 224 8 is_stmt 0
 545 022a 63156303 		bne	t1,s6,.L26
 546 022e 13031E00 		addi	t1,t3,1
 547              	.LVL48:
 224:jsmn.h        ****       int i;
 548              		.loc 1 224 19
 549 0232 6371C302 		bleu	a2,t1,.L26
 550              	.LBB49:
 225:jsmn.h        ****       parser->pos++;
 551              		.loc 1 225 7 is_stmt 1
 226:jsmn.h        ****       switch (js[parser->pos]) {
 552              		.loc 1 226 7
 226:jsmn.h        ****       switch (js[parser->pos]) {
 553              		.loc 1 226 18 is_stmt 0
 554 0236 23A06700 		sw	t1,0(a5)
 227:jsmn.h        ****       /* Allowed escaped symbols */
 555              		.loc 1 227 7 is_stmt 1
 227:jsmn.h        ****       /* Allowed escaped symbols */
 556              		.loc 1 227 17 is_stmt 0
 557 023a 2E93     		add	t1,a1,t1
 558 023c 03430300 		lbu	t1,0(t1)
 227:jsmn.h        ****       /* Allowed escaped symbols */
 559              		.loc 1 227 7
 560 0240 630A7301 		beq	t1,s7,.L26
 561 0244 63E56B02 		bgtu	t1,s7,.L27
 562 0248 63069301 		beq	t1,s9,.L26
 563 024c 63EA6C00 		bgtu	t1,s9,.L28
 564 0250 631C5301 		bne	t1,s5,.L91
 565              	.L26:
 566              	.LBE49:
 567              	.LBE54:
 203:jsmn.h        ****     char c = js[parser->pos];
 568              		.loc 1 203 67
 569 0254 03A30700 		lw	t1,0(a5)
 570 0258 0503     		addi	t1,t1,1
 571 025a 23A06700 		sw	t1,0(a5)
 572 025e B5B5     		j	.L22
 573              	.L28:
 574              	.LBB55:
 575              	.LBB50:
 227:jsmn.h        ****       /* Allowed escaped symbols */
 576              		.loc 1 227 7
 577 0260 E30A63FF 		beq	t1,s6,.L26
 578 0264 E308B3FF 		beq	t1,s11,.L26
 579              	.LVL49:
 580              	.L91:
 581              	.LBE50:
 582              	.LBE55:
GAS LISTING /var/folders/rt/4gvqv631095f64jvm7jfj_000000gn/T//ccA8CvEa.s 			page 22


 583              	.LBE59:
 584              	.LBE70:
 585              	.LBB71:
 586              	.LBB36:
 162:jsmn.h        ****       return JSMN_ERROR_INVAL;
 587              		.loc 1 162 7 is_stmt 1
 162:jsmn.h        ****       return JSMN_ERROR_INVAL;
 588              		.loc 1 162 19 is_stmt 0
 589 0268 23A01701 		sw	a7,0(a5)
 163:jsmn.h        ****     }
 590              		.loc 1 163 7 is_stmt 1
 591              	.LVL50:
 592              	.LBE36:
 593              	.LBE71:
 426:jsmn.h        ****         return r;
 594              		.loc 1 426 7
 595 026c 19BF     		j	.L59
 596              	.LVL51:
 597              	.L27:
 598              	.LBB72:
 599              	.LBB60:
 600              	.LBB56:
 601              	.LBB51:
 227:jsmn.h        ****       /* Allowed escaped symbols */
 602              		.loc 1 227 7 is_stmt 0
 603 026e E30383FF 		beq	t1,s8,.L26
 604 0272 63656C00 		bgtu	t1,s8,.L30
 605 0276 E319A3FF 		bne	t1,s10,.L91
 606 027a E9BF     		j	.L26
 607              	.L30:
 608 027c 93044007 		li	s1,116
 609 0280 E30A93FC 		beq	t1,s1,.L26
 610 0284 93045007 		li	s1,117
 611 0288 E31093FE 		bne	t1,s1,.L91
 240:jsmn.h        ****         for (i = 0; i < 4 && parser->pos < len && js[parser->pos] != '\0';
 612              		.loc 1 240 9 is_stmt 1
 240:jsmn.h        ****         for (i = 0; i < 4 && parser->pos < len && js[parser->pos] != '\0';
 613              		.loc 1 240 20 is_stmt 0
 614 028c 090E     		addi	t3,t3,2
 615 028e 23A0C701 		sw	t3,0(a5)
 241:jsmn.h        ****              i++) {
 616              		.loc 1 241 9 is_stmt 1
 617              	.LVL52:
 240:jsmn.h        ****         for (i = 0; i < 4 && parser->pos < len && js[parser->pos] != '\0';
 618              		.loc 1 240 20 is_stmt 0
 619 0292 9144     		li	s1,4
 620              	.LVL53:
 621              	.L31:
 241:jsmn.h        ****              i++) {
 622              		.loc 1 241 36
 623 0294 03AE0700 		lw	t3,0(a5)
 241:jsmn.h        ****              i++) {
 624              		.loc 1 241 27
 625 0298 637CCE02 		bleu	a2,t3,.L33
 241:jsmn.h        ****              i++) {
 626              		.loc 1 241 53
 627 029c 3383C501 		add	t1,a1,t3
GAS LISTING /var/folders/rt/4gvqv631095f64jvm7jfj_000000gn/T//ccA8CvEa.s 			page 23


 628 02a0 03430300 		lbu	t1,0(t1)
 241:jsmn.h        ****              i++) {
 629              		.loc 1 241 48
 630 02a4 63060302 		beq	t1,zero,.L33
 244:jsmn.h        ****                 (js[parser->pos] >= 65 && js[parser->pos] <= 70) ||   /* A-F */
 631              		.loc 1 244 11 is_stmt 1
 244:jsmn.h        ****                 (js[parser->pos] >= 65 && js[parser->pos] <= 70) ||   /* A-F */
 632              		.loc 1 244 40 is_stmt 0
 633 02a8 130903FD 		addi	s2,t1,-48
 244:jsmn.h        ****                 (js[parser->pos] >= 65 && js[parser->pos] <= 70) ||   /* A-F */
 634              		.loc 1 244 14
 635 02ac 1379F90F 		andi	s2,s2,0xff
 636 02b0 63FB2901 		bleu	s2,s3,.L32
 244:jsmn.h        ****                 (js[parser->pos] >= 65 && js[parser->pos] <= 70) ||   /* A-F */
 637              		.loc 1 244 66
 638 02b4 1373F3FD 		andi	t1,t1,-33
 639 02b8 1303F3FB 		addi	t1,t1,-65
 640 02bc 1373F30F 		andi	t1,t1,0xff
 641 02c0 1549     		li	s2,5
 642 02c2 E36369FA 		bgtu	t1,s2,.L91
 643              	.L32:
 250:jsmn.h        ****         }
 644              		.loc 1 250 11 is_stmt 1
 250:jsmn.h        ****         }
 645              		.loc 1 250 22 is_stmt 0
 646 02c6 050E     		addi	t3,t3,1
 647 02c8 23A0C701 		sw	t3,0(a5)
 648              	.LVL54:
 649 02cc FD14     		addi	s1,s1,-1
 650              	.LVL55:
 241:jsmn.h        ****              i++) {
 651              		.loc 1 241 9
 652 02ce F9F0     		bne	s1,zero,.L31
 653              	.LVL56:
 654              	.L33:
 252:jsmn.h        ****         break;
 655              		.loc 1 252 9 is_stmt 1
 252:jsmn.h        ****         break;
 656              		.loc 1 252 20 is_stmt 0
 657 02d0 03A30700 		lw	t1,0(a5)
 658 02d4 7D13     		addi	t1,t1,-1
 659 02d6 23A06700 		sw	t1,0(a5)
 253:jsmn.h        ****       /* Unexpected symbol */
 660              		.loc 1 253 9 is_stmt 1
 661 02da ADBF     		j	.L26
 662              	.LVL57:
 663              	.L11:
 664              	.LBE51:
 665              	.LBE56:
 666              	.LBE60:
 667              	.LBE72:
 377:jsmn.h        ****       break;
 668              		.loc 1 377 7
 377:jsmn.h        ****       break;
 669              		.loc 1 377 42 is_stmt 0
 670 02dc 83A84700 		lw	a7,4(a5)
 671 02e0 FD18     		addi	a7,a7,-1
GAS LISTING /var/folders/rt/4gvqv631095f64jvm7jfj_000000gn/T//ccA8CvEa.s 			page 24


 377:jsmn.h        ****       break;
 672              		.loc 1 377 24
 673 02e2 23A41701 		sw	a7,8(a5)
 378:jsmn.h        ****     case ',':
 674              		.loc 1 378 7 is_stmt 1
 675 02e6 9DB5     		j	.L5
 676              	.L3:
 380:jsmn.h        ****           tokens[parser->toksuper].type != JSMN_ARRAY &&
 677              		.loc 1 380 7
 380:jsmn.h        ****           tokens[parser->toksuper].type != JSMN_ARRAY &&
 678              		.loc 1 380 10 is_stmt 0
 679 02e8 E38206E6 		beq	a3,zero,.L5
 380:jsmn.h        ****           tokens[parser->toksuper].type != JSMN_ARRAY &&
 680              		.loc 1 380 35 discriminator 1
 681 02ec 83A88700 		lw	a7,8(a5)
 380:jsmn.h        ****           tokens[parser->toksuper].type != JSMN_ARRAY &&
 682              		.loc 1 380 26 discriminator 1
 683 02f0 E38E08E5 		beq	a7,a6,.L5
 381:jsmn.h        ****           tokens[parser->toksuper].type != JSMN_OBJECT) {
 684              		.loc 1 381 35 discriminator 2
 685 02f4 9208     		slli	a7,a7,4
 686 02f6 B698     		add	a7,a3,a7
 381:jsmn.h        ****           tokens[parser->toksuper].type != JSMN_OBJECT) {
 687              		.loc 1 381 55 discriminator 2
 688 02f8 83A80800 		lw	a7,0(a7)
 689 02fc FD18     		addi	a7,a7,-1
 690 02fe E3771FE5 		bleu	a7,t5,.L5
 386:jsmn.h        ****           if (tokens[i].type == JSMN_ARRAY || tokens[i].type == JSMN_OBJECT) {
 691              		.loc 1 386 9 is_stmt 1
 386:jsmn.h        ****           if (tokens[i].type == JSMN_ARRAY || tokens[i].type == JSMN_OBJECT) {
 692              		.loc 1 386 24 is_stmt 0
 693 0302 83A84700 		lw	a7,4(a5)
 386:jsmn.h        ****           if (tokens[i].type == JSMN_ARRAY || tokens[i].type == JSMN_OBJECT) {
 694              		.loc 1 386 34
 695 0306 1383F8FF 		addi	t1,a7,-1
 696              	.LVL58:
 697 030a 9208     		slli	a7,a7,4
 698 030c B698     		add	a7,a3,a7
 699              	.L37:
 386:jsmn.h        ****           if (tokens[i].type == JSMN_ARRAY || tokens[i].type == JSMN_OBJECT) {
 700              		.loc 1 386 9 discriminator 1
 701 030e E34F03E2 		blt	t1,zero,.L5
 387:jsmn.h        ****             if (tokens[i].start != -1 && tokens[i].end == -1) {
 702              		.loc 1 387 11 is_stmt 1
 387:jsmn.h        ****             if (tokens[i].start != -1 && tokens[i].end == -1) {
 703              		.loc 1 387 44 is_stmt 0
 704 0312 03AE08FF 		lw	t3,-16(a7)
 705 0316 7D1E     		addi	t3,t3,-1
 387:jsmn.h        ****             if (tokens[i].start != -1 && tokens[i].end == -1) {
 706              		.loc 1 387 14
 707 0318 636ACF01 		bgtu	t3,t5,.L38
 388:jsmn.h        ****               parser->toksuper = i;
 708              		.loc 1 388 13 is_stmt 1
 388:jsmn.h        ****               parser->toksuper = i;
 709              		.loc 1 388 16 is_stmt 0
 710 031c 03AE48FF 		lw	t3,-12(a7)
 711 0320 63060E01 		beq	t3,a6,.L38
GAS LISTING /var/folders/rt/4gvqv631095f64jvm7jfj_000000gn/T//ccA8CvEa.s 			page 25


 388:jsmn.h        ****               parser->toksuper = i;
 712              		.loc 1 388 39 discriminator 1
 713 0324 03AE88FF 		lw	t3,-8(a7)
 714 0328 E30D0EE9 		beq	t3,a6,.L86
 715              	.L38:
 386:jsmn.h        ****           if (tokens[i].type == JSMN_ARRAY || tokens[i].type == JSMN_OBJECT) {
 716              		.loc 1 386 48 discriminator 2
 717 032c 7D13     		addi	t1,t1,-1
 718              	.LVL59:
 719 032e C118     		addi	a7,a7,-16
 720 0330 F9BF     		j	.L37
 721              	.LVL60:
 722              	.L41:
 723              	.LBB73:
 724              	.LBB37:
 144:jsmn.h        **** #ifndef JSMN_STRICT
 725              		.loc 1 144 5
 726 0332 63055304 		beq	t1,t0,.L40
 727 0336 63E86204 		bgtu	t1,t0,.L43
 728 033a 6301D305 		beq	t1,t4,.L40
 729              	.L42:
 159:jsmn.h        ****     }
 730              		.loc 1 159 7 is_stmt 1
 161:jsmn.h        ****       parser->pos = start;
 731              		.loc 1 161 5
 161:jsmn.h        ****       parser->pos = start;
 732              		.loc 1 161 30 is_stmt 0
 733 033e 0113     		addi	t1,t1,-32
 161:jsmn.h        ****       parser->pos = start;
 734              		.loc 1 161 8
 735 0340 1373F30F 		andi	t1,t1,0xff
 736 0344 1309E005 		li	s2,94
 737 0348 E36069F2 		bgtu	t1,s2,.L91
 143:jsmn.h        ****     switch (js[parser->pos]) {
 738              		.loc 1 143 67
 739 034c 050E     		addi	t3,t3,1
 740 034e 23A0C701 		sw	t3,0(a5)
 741              	.L45:
 143:jsmn.h        ****     switch (js[parser->pos]) {
 742              		.loc 1 143 16
 743 0352 03AE0700 		lw	t3,0(a5)
 143:jsmn.h        ****     switch (js[parser->pos]) {
 744              		.loc 1 143 3
 745 0356 6373CE02 		bleu	a2,t3,.L40
 143:jsmn.h        ****     switch (js[parser->pos]) {
 746              		.loc 1 143 33
 747 035a 3383C501 		add	t1,a1,t3
 748 035e 03430300 		lbu	t1,0(t1)
 143:jsmn.h        ****     switch (js[parser->pos]) {
 749              		.loc 1 143 28
 750 0362 630D0300 		beq	t1,zero,.L40
 144:jsmn.h        **** #ifndef JSMN_STRICT
 751              		.loc 1 144 5 is_stmt 1
 752 0366 630BF301 		beq	t1,t6,.L40
 753 036a E3E46FFC 		bgtu	t1,t6,.L41
 754 036e E36833FD 		bltu	t1,s3,.L42
 755 0372 2949     		li	s2,10
GAS LISTING /var/folders/rt/4gvqv631095f64jvm7jfj_000000gn/T//ccA8CvEa.s 			page 26


 756 0374 63746900 		bleu	t1,s2,.L40
 757 0378 E31393FC 		bne	t1,s1,.L42
 758              	.L40:
 173:jsmn.h        ****     parser->pos--;
 759              		.loc 1 173 3
 173:jsmn.h        ****     parser->pos--;
 760              		.loc 1 173 6 is_stmt 0
 761 037c 91EA     		bne	a3,zero,.L47
 762              	.L85:
 186:jsmn.h        ****   return 0;
 763              		.loc 1 186 3 is_stmt 1
 186:jsmn.h        ****   return 0;
 764              		.loc 1 186 14 is_stmt 0
 765 037e 7D1E     		addi	t3,t3,-1
 766 0380 23A0C701 		sw	t3,0(a5)
 767 0384 69B5     		j	.L93
 768              	.L43:
 144:jsmn.h        **** #ifndef JSMN_STRICT
 769              		.loc 1 144 5
 770 0386 E30B73FE 		beq	t1,t2,.L40
 771 038a E31A83FA 		bne	t1,s0,.L42
 772 038e FDB7     		j	.L40
 773              	.L47:
 177:jsmn.h        ****   if (token == NULL) {
 774              		.loc 1 177 3 is_stmt 1
 775              	.LVL61:
 776              	.LBB29:
 777              	.LBB30:
 108:jsmn.h        ****   if (parser->toknext >= num_tokens) {
 778              		.loc 1 108 3
 109:jsmn.h        ****     return NULL;
 779              		.loc 1 109 3
 109:jsmn.h        ****     return NULL;
 780              		.loc 1 109 13 is_stmt 0
 781 0390 03A34700 		lw	t1,4(a5)
 109:jsmn.h        ****     return NULL;
 782              		.loc 1 109 6
 783 0394 E379E3E4 		bleu	a4,t1,.L88
 112:jsmn.h        ****   tok->start = tok->end = -1;
 784              		.loc 1 112 3 is_stmt 1
 112:jsmn.h        ****   tok->start = tok->end = -1;
 785              		.loc 1 112 32 is_stmt 0
 786 0398 93041300 		addi	s1,t1,1
 112:jsmn.h        ****   tok->start = tok->end = -1;
 787              		.loc 1 112 16
 788 039c 1203     		slli	t1,t1,4
 112:jsmn.h        ****   tok->start = tok->end = -1;
 789              		.loc 1 112 32
 790 039e C4C3     		sw	s1,4(a5)
 112:jsmn.h        ****   tok->start = tok->end = -1;
 791              		.loc 1 112 7
 792 03a0 3693     		add	t1,a3,t1
 793              	.LVL62:
 113:jsmn.h        ****   tok->size = 0;
 794              		.loc 1 113 3 is_stmt 1
 114:jsmn.h        **** #ifdef JSMN_PARENT_LINKS
 795              		.loc 1 114 3
GAS LISTING /var/folders/rt/4gvqv631095f64jvm7jfj_000000gn/T//ccA8CvEa.s 			page 27


 118:jsmn.h        **** }
 796              		.loc 1 118 3
 797              	.LBE30:
 798              	.LBE29:
 178:jsmn.h        ****     parser->pos = start;
 799              		.loc 1 178 3
 182:jsmn.h        **** #ifdef JSMN_PARENT_LINKS
 800              		.loc 1 182 3
 801              	.LBB31:
 802              	.LBB32:
 126:jsmn.h        ****   token->start = start;
 803              		.loc 1 126 3
 126:jsmn.h        ****   token->start = start;
 804              		.loc 1 126 15 is_stmt 0
 805 03a2 A144     		li	s1,8
 806 03a4 23209300 		sw	s1,0(t1)
 127:jsmn.h        ****   token->end = end;
 807              		.loc 1 127 3 is_stmt 1
 127:jsmn.h        ****   token->end = end;
 808              		.loc 1 127 16 is_stmt 0
 809 03a8 23221301 		sw	a7,4(t1)
 128:jsmn.h        ****   token->size = 0;
 810              		.loc 1 128 3 is_stmt 1
 128:jsmn.h        ****   token->size = 0;
 811              		.loc 1 128 14 is_stmt 0
 812 03ac 2324C301 		sw	t3,8(t1)
 129:jsmn.h        **** }
 813              		.loc 1 129 3 is_stmt 1
 129:jsmn.h        **** }
 814              		.loc 1 129 15 is_stmt 0
 815 03b0 23260300 		sw	zero,12(t1)
 816 03b4 E9B7     		j	.L85
 817              	.LVL63:
 818              	.L54:
 819              	.LBE32:
 820              	.LBE31:
 821              	.LBE37:
 822              	.LBE73:
 823              	.LBE76:
 446:jsmn.h        ****         return JSMN_ERROR_PART;
 824              		.loc 1 446 7 is_stmt 1
 446:jsmn.h        ****         return JSMN_ERROR_PART;
 825              		.loc 1 446 10 is_stmt 0
 826 03b6 03A646FF 		lw	a2,-12(a3)
 827 03ba 6306F600 		beq	a2,a5,.L53
 446:jsmn.h        ****         return JSMN_ERROR_PART;
 828              		.loc 1 446 33 discriminator 1
 829 03be 03A686FF 		lw	a2,-8(a3)
 830 03c2 E300F6D2 		beq	a2,a5,.L60
 831              	.L53:
 444:jsmn.h        ****       /* Unmatched opened object or array */
 832              		.loc 1 444 44 discriminator 2
 833 03c6 7D17     		addi	a4,a4,-1
 834              	.LVL64:
 835 03c8 C116     		addi	a3,a3,-16
 836 03ca 41B9     		j	.L52
 837              		.cfi_endproc
GAS LISTING /var/folders/rt/4gvqv631095f64jvm7jfj_000000gn/T//ccA8CvEa.s 			page 28


 838              	.LFE6:
 840              		.section	.text.jsmn_init,"ax",@progbits
 841              		.align	1
 842              		.globl	jsmn_init
 844              	jsmn_init:
 845              	.LFB7:
 454:jsmn.h        **** 
 455:jsmn.h        **** /**
 456:jsmn.h        ****  * Creates a new parser based over a given buffer with an array of tokens
 457:jsmn.h        ****  * available.
 458:jsmn.h        ****  */
 459:jsmn.h        **** JSMN_API void jsmn_init(jsmn_parser *parser) {
 846              		.loc 1 459 46 is_stmt 1
 847              		.cfi_startproc
 848              	.LVL65:
 460:jsmn.h        ****   parser->pos = 0;
 849              		.loc 1 460 3
 461:jsmn.h        ****   parser->toknext = 0;
 462:jsmn.h        ****   parser->toksuper = -1;
 850              		.loc 1 462 20 is_stmt 0
 851 0000 FD57     		li	a5,-1
 460:jsmn.h        ****   parser->pos = 0;
 852              		.loc 1 460 15
 853 0002 23200500 		sw	zero,0(a0)
 461:jsmn.h        ****   parser->toknext = 0;
 854              		.loc 1 461 3 is_stmt 1
 461:jsmn.h        ****   parser->toknext = 0;
 855              		.loc 1 461 19 is_stmt 0
 856 0006 23220500 		sw	zero,4(a0)
 857              		.loc 1 462 3 is_stmt 1
 858              		.loc 1 462 20 is_stmt 0
 859 000a 1CC5     		sw	a5,8(a0)
 463:jsmn.h        **** }
 860              		.loc 1 463 1
 861 000c 8280     		ret
 862              		.cfi_endproc
 863              	.LFE7:
 865              		.section	.text.renderAllPlants,"ax",@progbits
 866              		.align	1
 867              		.globl	renderAllPlants
 869              	renderAllPlants:
 870              	.LFB12:
 871              		.file 2 "main.c"
   1:main.c        **** #include "gd32vf103.h"
   2:main.c        **** #include "drivers.h"
   3:main.c        **** #include "adc.h"
   4:main.c        **** #include "lcd.h"
   5:main.c        **** #include "plant.h"
   6:main.c        **** #include "utilities.h"
   7:main.c        **** #include "jsmn.h"
   8:main.c        **** #include "usart.h"
   9:main.c        **** #include <string.h>
  10:main.c        **** #include <stdio.h>
  11:main.c        **** #define STR_COPY(dest, src) \
  12:main.c        ****   snprintf(dest, sizeof(dest), "%s", src) // AI. STR_COPY Ă¤r en genvĂ¤g fĂ¶r snprintf som i sin tu
  13:main.c        **** 
  14:main.c        **** #define EI 1
GAS LISTING /var/folders/rt/4gvqv631095f64jvm7jfj_000000gn/T//ccA8CvEa.s 			page 29


  15:main.c        **** #define DI 0
  16:main.c        **** 
  17:main.c        **** void renderAllPlants(Plant allPlants[], int numberOfPlants)
  18:main.c        **** {
 872              		.loc 2 18 1 is_stmt 1
 873              		.cfi_startproc
 874              	.LVL66:
  19:main.c        ****   for (int i = 0; i < numberOfPlants; i++)
 875              		.loc 2 19 3
 876              	.LBB77:
 877              		.loc 2 19 8
 878              	.LBE77:
  18:main.c        ****   for (int i = 0; i < numberOfPlants; i++)
 879              		.loc 2 18 1 is_stmt 0
 880 0000 7971     		addi	sp,sp,-48
 881              	.LCFI3:
 882              		.cfi_def_cfa_offset 48
 883 0002 26D2     		sw	s1,36(sp)
 884              		.cfi_offset 9, -12
 885              	.LBB78:
  20:main.c        ****   {
  21:main.c        ****     LCD_ShowStr(i * 55, 0, allPlants[i].name, WHITE, TRANSPARENT);
 886              		.loc 2 21 5
 887 0004 C164     		li	s1,65536
 888              	.LBE78:
  18:main.c        ****   for (int i = 0; i < numberOfPlants; i++)
 889              		.loc 2 18 1
 890 0006 22D4     		sw	s0,40(sp)
 891 0008 4ECE     		sw	s3,28(sp)
 892 000a 52CC     		sw	s4,24(sp)
 893 000c 5AC8     		sw	s6,16(sp)
 894 000e 5EC6     		sw	s7,12(sp)
 895 0010 06D6     		sw	ra,44(sp)
 896 0012 4AD0     		sw	s2,32(sp)
 897 0014 56CA     		sw	s5,20(sp)
 898              		.cfi_offset 8, -8
 899              		.cfi_offset 19, -20
 900              		.cfi_offset 20, -24
 901              		.cfi_offset 22, -32
 902              		.cfi_offset 23, -36
 903              		.cfi_offset 1, -4
 904              		.cfi_offset 18, -16
 905              		.cfi_offset 21, -28
  18:main.c        ****   for (int i = 0; i < numberOfPlants; i++)
 906              		.loc 2 18 1
 907 0016 2E8B     		mv	s6,a1
 908 0018 2A84     		mv	s0,a0
 909              	.LBB79:
  19:main.c        ****   {
 910              		.loc 2 19 12
 911 001a 8149     		li	s3,0
 912 001c 930B7003 		li	s7,55
 913              		.loc 2 21 5
 914 0020 FD14     		addi	s1,s1,-1
  22:main.c        ****     LCD_ShowNum(i * 55, 20, allPlants[i].moisture[allPlants[i].numberOfMoistureReadings-1].reading,
  23:main.c        ****     LCD_ShowStr(i * 55 + 30, 20, "%", WHITE, TRANSPARENT);
 915              		.loc 2 23 5
GAS LISTING /var/folders/rt/4gvqv631095f64jvm7jfj_000000gn/T//ccA8CvEa.s 			page 30


 916 0022 370A0000 		lui	s4,%hi(.LC0)
 917              	.LVL67:
 918              	.L96:
  19:main.c        ****   {
 919              		.loc 2 19 3 discriminator 1
 920 0026 63CD6901 		blt	s3,s6,.L97
 921              	.LBE79:
  24:main.c        ****     LCD_ShowNum(i * 55, 40, allPlants[i].sun[allPlants[i].numberOfSunReadings-1].reading, 3, WHITE)
  25:main.c        ****     LCD_ShowStr(i * 55 + 30, 40, "%", WHITE, TRANSPARENT);
  26:main.c        ****     LCD_ShowStr(i * 55, 60, allPlants[i].currentStatus, GBLUE, TRANSPARENT);
  27:main.c        ****   }
  28:main.c        **** }
 922              		.loc 2 28 1
 923 002a B250     		lw	ra,44(sp)
 924              		.cfi_remember_state
 925              		.cfi_restore 1
 926 002c 2254     		lw	s0,40(sp)
 927              		.cfi_restore 8
 928 002e 9254     		lw	s1,36(sp)
 929              		.cfi_restore 9
 930 0030 0259     		lw	s2,32(sp)
 931              		.cfi_restore 18
 932 0032 F249     		lw	s3,28(sp)
 933              		.cfi_restore 19
 934              	.LVL68:
 935 0034 624A     		lw	s4,24(sp)
 936              		.cfi_restore 20
 937 0036 D24A     		lw	s5,20(sp)
 938              		.cfi_restore 21
 939 0038 424B     		lw	s6,16(sp)
 940              		.cfi_restore 22
 941              	.LVL69:
 942 003a B24B     		lw	s7,12(sp)
 943              		.cfi_restore 23
 944 003c 4561     		addi	sp,sp,48
 945              	.LCFI4:
 946              		.cfi_def_cfa_offset 0
 947 003e 8280     		jr	ra
 948              	.LVL70:
 949              	.L97:
 950              	.LCFI5:
 951              		.cfi_restore_state
 952              	.LBB80:
  21:main.c        ****     LCD_ShowNum(i * 55, 20, allPlants[i].moisture[allPlants[i].numberOfMoistureReadings-1].reading,
 953              		.loc 2 21 5 is_stmt 1 discriminator 3
 954 0040 33897903 		mul	s2,s3,s7
 955 0044 2286     		mv	a2,s0
 956 0046 0547     		li	a4,1
 957 0048 A686     		mv	a3,s1
 958 004a 8145     		li	a1,0
  19:main.c        ****   {
 959              		.loc 2 19 40 is_stmt 0 discriminator 3
 960 004c 8509     		addi	s3,s3,1
 961              	.LVL71:
  21:main.c        ****     LCD_ShowNum(i * 55, 20, allPlants[i].moisture[allPlants[i].numberOfMoistureReadings-1].reading,
 962              		.loc 2 21 5 discriminator 3
 963 004e 4A85     		mv	a0,s2
GAS LISTING /var/folders/rt/4gvqv631095f64jvm7jfj_000000gn/T//ccA8CvEa.s 			page 31


 964 0050 97000000 		call	LCD_ShowStr
 964      E7800000 
 965              	.LVL72:
  22:main.c        ****     LCD_ShowStr(i * 55 + 30, 20, "%", WHITE, TRANSPARENT);
 966              		.loc 2 22 5 is_stmt 1 discriminator 3
  22:main.c        ****     LCD_ShowStr(i * 55 + 30, 20, "%", WHITE, TRANSPARENT);
 967              		.loc 2 22 91 is_stmt 0 discriminator 3
 968 0058 83278461 		lw	a5,1560(s0)
  22:main.c        ****     LCD_ShowStr(i * 55 + 30, 20, "%", WHITE, TRANSPARENT);
 969              		.loc 2 22 5 discriminator 3
 970 005c 2687     		mv	a4,s1
 971 005e 8D46     		li	a3,3
  22:main.c        ****     LCD_ShowStr(i * 55 + 30, 20, "%", WHITE, TRANSPARENT);
 972              		.loc 2 22 91 discriminator 3
 973 0060 9207     		slli	a5,a5,4
 974 0062 A297     		add	a5,s0,a5
  22:main.c        ****     LCD_ShowStr(i * 55 + 30, 20, "%", WHITE, TRANSPARENT);
 975              		.loc 2 22 5 discriminator 3
 976 0064 904B     		lw	a2,16(a5)
 977 0066 D145     		li	a1,20
 978 0068 4A85     		mv	a0,s2
 979 006a 97000000 		call	LCD_ShowNum
 979      E7800000 
 980              	.LVL73:
  23:main.c        ****     LCD_ShowNum(i * 55, 40, allPlants[i].sun[allPlants[i].numberOfSunReadings-1].reading, 3, WHITE)
 981              		.loc 2 23 5 is_stmt 1 discriminator 3
 982 0072 930AE901 		addi	s5,s2,30
 983 0076 0547     		li	a4,1
 984 0078 A686     		mv	a3,s1
 985 007a 13060A00 		addi	a2,s4,%lo(.LC0)
 986 007e D145     		li	a1,20
 987 0080 5685     		mv	a0,s5
 988 0082 97000000 		call	LCD_ShowStr
 988      E7800000 
 989              	.LVL74:
  24:main.c        ****     LCD_ShowStr(i * 55 + 30, 40, "%", WHITE, TRANSPARENT);
 990              		.loc 2 24 5 discriminator 3
  24:main.c        ****     LCD_ShowStr(i * 55 + 30, 40, "%", WHITE, TRANSPARENT);
 991              		.loc 2 24 81 is_stmt 0 discriminator 3
 992 008a 83274461 		lw	a5,1556(s0)
  24:main.c        ****     LCD_ShowStr(i * 55 + 30, 40, "%", WHITE, TRANSPARENT);
 993              		.loc 2 24 5 discriminator 3
 994 008e 2687     		mv	a4,s1
 995 0090 8D46     		li	a3,3
  24:main.c        ****     LCD_ShowStr(i * 55 + 30, 40, "%", WHITE, TRANSPARENT);
 996              		.loc 2 24 81 discriminator 3
 997 0092 93870703 		addi	a5,a5,48
 998 0096 9207     		slli	a5,a5,4
 999 0098 A297     		add	a5,s0,a5
  24:main.c        ****     LCD_ShowStr(i * 55 + 30, 40, "%", WHITE, TRANSPARENT);
 1000              		.loc 2 24 5 discriminator 3
 1001 009a 904B     		lw	a2,16(a5)
 1002 009c 93058002 		li	a1,40
 1003 00a0 4A85     		mv	a0,s2
 1004 00a2 97000000 		call	LCD_ShowNum
 1004      E7800000 
 1005              	.LVL75:
GAS LISTING /var/folders/rt/4gvqv631095f64jvm7jfj_000000gn/T//ccA8CvEa.s 			page 32


  25:main.c        ****     LCD_ShowStr(i * 55, 60, allPlants[i].currentStatus, GBLUE, TRANSPARENT);
 1006              		.loc 2 25 5 is_stmt 1 discriminator 3
 1007 00aa 0547     		li	a4,1
 1008 00ac A686     		mv	a3,s1
 1009 00ae 13060A00 		addi	a2,s4,%lo(.LC0)
 1010 00b2 93058002 		li	a1,40
 1011 00b6 5685     		mv	a0,s5
 1012 00b8 97000000 		call	LCD_ShowStr
 1012      E7800000 
 1013              	.LVL76:
  26:main.c        ****   }
 1014              		.loc 2 26 5 discriminator 3
 1015 00c0 1306A400 		addi	a2,s0,10
 1016 00c4 0547     		li	a4,1
 1017 00c6 9306F07F 		li	a3,2047
 1018 00ca 9305C003 		li	a1,60
 1019 00ce 4A85     		mv	a0,s2
 1020 00d0 97000000 		call	LCD_ShowStr
 1020      E7800000 
 1021              	.LVL77:
 1022 00d8 1304C461 		addi	s0,s0,1564
 1023 00dc A9B7     		j	.L96
 1024              	.LBE80:
 1025              		.cfi_endproc
 1026              	.LFE12:
 1028              		.section	.text.renderOnePlant,"ax",@progbits
 1029              		.align	1
 1030              		.globl	renderOnePlant
 1032              	renderOnePlant:
 1033              	.LFB13:
  29:main.c        **** 
  30:main.c        **** void renderOnePlant(Plant allPlants[], int numberOfPlants, char name[])
  31:main.c        **** {
 1034              		.loc 2 31 1
 1035              		.cfi_startproc
 1036              	.LVL78:
  32:main.c        ****   for (int i = 0; i < numberOfPlants; i++)
 1037              		.loc 2 32 3
 1038              	.LBB81:
 1039              		.loc 2 32 8
 1040              	.LBE81:
  31:main.c        ****   for (int i = 0; i < numberOfPlants; i++)
 1041              		.loc 2 31 1 is_stmt 0
 1042 0000 7971     		addi	sp,sp,-48
 1043              	.LCFI6:
 1044              		.cfi_def_cfa_offset 48
 1045 0002 26D2     		sw	s1,36(sp)
 1046 0004 4AD0     		sw	s2,32(sp)
 1047 0006 4ECE     		sw	s3,28(sp)
 1048 0008 06D6     		sw	ra,44(sp)
 1049 000a 22D4     		sw	s0,40(sp)
 1050              		.cfi_offset 9, -12
 1051              		.cfi_offset 18, -16
 1052              		.cfi_offset 19, -20
 1053              		.cfi_offset 1, -4
 1054              		.cfi_offset 8, -8
  31:main.c        ****   for (int i = 0; i < numberOfPlants; i++)
GAS LISTING /var/folders/rt/4gvqv631095f64jvm7jfj_000000gn/T//ccA8CvEa.s 			page 33


 1055              		.loc 2 31 1
 1056 000c AE89     		mv	s3,a1
 1057 000e AA84     		mv	s1,a0
 1058              	.LBB82:
 1059              		.loc 2 32 12
 1060 0010 0149     		li	s2,0
 1061              	.LVL79:
 1062              	.L100:
 1063              		.loc 2 32 3 discriminator 1
 1064 0012 634E3901 		blt	s2,s3,.L102
 1065              	.LBE82:
  33:main.c        ****   {
  34:main.c        ****     if (strcmp(allPlants[i].name, name) == 0)
  35:main.c        ****     {
  36:main.c        ****       LCD_ShowStr(0, 0, allPlants[i].name, WHITE, TRANSPARENT);
  37:main.c        ****       LCD_ShowNum(0, 20, allPlants[i].moisture[allPlants[i].numberOfMoistureReadings - 1].reading, 
  38:main.c        ****       LCD_ShowStr(0 + 30, 20, "%", WHITE, TRANSPARENT);
  39:main.c        ****       LCD_ShowStr(50, 20, allPlants[i].moisture[allPlants[i].numberOfMoistureReadings - 1].timeStam
  40:main.c        ****       LCD_ShowNum(0, 40, allPlants[i].sun[allPlants[i].numberOfSunReadings - 1].reading, 3, WHITE);
  41:main.c        ****       LCD_ShowStr(0 + 30, 40, "%", WHITE, TRANSPARENT);
  42:main.c        ****       LCD_Fill(50, 40, 160, 53, BLACK); // Black out old reading before writing new
  43:main.c        ****       LCD_ShowStr(50, 40, allPlants[i].sun[allPlants[i].numberOfSunReadings - 1].timeStamp, WHITE, 
  44:main.c        ****       LCD_ShowStr(0, 60, allPlants[i].currentStatus, GBLUE, TRANSPARENT);
  45:main.c        ****       return;
  46:main.c        ****     }
  47:main.c        ****   }
  48:main.c        ****   LCD_ShowStr(50, 4, "NO SUCH PLANT", RED, TRANSPARENT);
 1066              		.loc 2 48 3 is_stmt 1
 1067 0016 C166     		li	a3,65536
 1068 0018 37060000 		lui	a2,%hi(.LC1)
 1069              	.LVL80:
 1070 001c 0547     		li	a4,1
 1071 001e 93860680 		addi	a3,a3,-2048
 1072 0022 13060600 		addi	a2,a2,%lo(.LC1)
 1073 0026 9145     		li	a1,4
 1074 0028 13052003 		li	a0,50
 1075 002c 29A2     		j	.L104
 1076              	.LVL81:
 1077              	.L102:
 1078              	.LBB83:
  34:main.c        ****     {
 1079              		.loc 2 34 5
  34:main.c        ****     {
 1080              		.loc 2 34 9 is_stmt 0
 1081 002e B285     		mv	a1,a2
 1082 0030 2685     		mv	a0,s1
 1083 0032 32C6     		sw	a2,12(sp)
 1084 0034 97000000 		call	strcmp
 1084      E7800000 
 1085              	.LVL82:
  34:main.c        ****     {
 1086              		.loc 2 34 25
 1087 003c 2684     		mv	s0,s1
  34:main.c        ****     {
 1088              		.loc 2 34 8
 1089 003e 3246     		lw	a2,12(sp)
 1090 0040 9384C461 		addi	s1,s1,1564
GAS LISTING /var/folders/rt/4gvqv631095f64jvm7jfj_000000gn/T//ccA8CvEa.s 			page 34


 1091 0044 63130510 		bne	a0,zero,.L101
 1092              	.LVL83:
  36:main.c        ****       LCD_ShowNum(0, 20, allPlants[i].moisture[allPlants[i].numberOfMoistureReadings - 1].reading, 
 1093              		.loc 2 36 7 is_stmt 1
 1094 0048 C164     		li	s1,65536
 1095 004a 0547     		li	a4,1
 1096 004c 9386F4FF 		addi	a3,s1,-1
 1097 0050 2286     		mv	a2,s0
 1098              	.LVL84:
 1099 0052 8145     		li	a1,0
 1100 0054 97000000 		call	LCD_ShowStr
 1100      E7800000 
 1101              	.LVL85:
  37:main.c        ****       LCD_ShowStr(0 + 30, 20, "%", WHITE, TRANSPARENT);
 1102              		.loc 2 37 7
  37:main.c        ****       LCD_ShowStr(0 + 30, 20, "%", WHITE, TRANSPARENT);
 1103              		.loc 2 37 90 is_stmt 0
 1104 005c 83278461 		lw	a5,1560(s0)
  37:main.c        ****       LCD_ShowStr(0 + 30, 20, "%", WHITE, TRANSPARENT);
 1105              		.loc 2 37 7
 1106 0060 1387F4FF 		addi	a4,s1,-1
 1107 0064 8D46     		li	a3,3
  37:main.c        ****       LCD_ShowStr(0 + 30, 20, "%", WHITE, TRANSPARENT);
 1108              		.loc 2 37 90
 1109 0066 9207     		slli	a5,a5,4
 1110 0068 A297     		add	a5,s0,a5
  37:main.c        ****       LCD_ShowStr(0 + 30, 20, "%", WHITE, TRANSPARENT);
 1111              		.loc 2 37 7
 1112 006a 904B     		lw	a2,16(a5)
 1113 006c D145     		li	a1,20
 1114 006e 0145     		li	a0,0
 1115 0070 97000000 		call	LCD_ShowNum
 1115      E7800000 
 1116              	.LVL86:
  38:main.c        ****       LCD_ShowStr(50, 20, allPlants[i].moisture[allPlants[i].numberOfMoistureReadings - 1].timeStam
 1117              		.loc 2 38 7 is_stmt 1
 1118 0078 37090000 		lui	s2,%hi(.LC0)
 1119              	.LVL87:
 1120 007c 0547     		li	a4,1
 1121 007e 9386F4FF 		addi	a3,s1,-1
 1122 0082 13060900 		addi	a2,s2,%lo(.LC0)
 1123 0086 D145     		li	a1,20
 1124 0088 7945     		li	a0,30
 1125 008a 97000000 		call	LCD_ShowStr
 1125      E7800000 
 1126              	.LVL88:
  39:main.c        ****       LCD_ShowNum(0, 40, allPlants[i].sun[allPlants[i].numberOfSunReadings - 1].reading, 3, WHITE);
 1127              		.loc 2 39 7
  39:main.c        ****       LCD_ShowNum(0, 40, allPlants[i].sun[allPlants[i].numberOfSunReadings - 1].reading, 3, WHITE);
 1128              		.loc 2 39 91 is_stmt 0
 1129 0092 03268461 		lw	a2,1560(s0)
  39:main.c        ****       LCD_ShowNum(0, 40, allPlants[i].sun[allPlants[i].numberOfSunReadings - 1].reading, 3, WHITE);
 1130              		.loc 2 39 7
 1131 0096 0547     		li	a4,1
 1132 0098 9386F4FF 		addi	a3,s1,-1
  39:main.c        ****       LCD_ShowNum(0, 40, allPlants[i].sun[allPlants[i].numberOfSunReadings - 1].reading, 3, WHITE);
 1133              		.loc 2 39 91
GAS LISTING /var/folders/rt/4gvqv631095f64jvm7jfj_000000gn/T//ccA8CvEa.s 			page 35


 1134 009c 1206     		slli	a2,a2,4
 1135 009e 1106     		addi	a2,a2,4
  39:main.c        ****       LCD_ShowNum(0, 40, allPlants[i].sun[allPlants[i].numberOfSunReadings - 1].reading, 3, WHITE);
 1136              		.loc 2 39 7
 1137 00a0 2296     		add	a2,s0,a2
 1138 00a2 D145     		li	a1,20
 1139 00a4 13052003 		li	a0,50
 1140 00a8 97000000 		call	LCD_ShowStr
 1140      E7800000 
 1141              	.LVL89:
  40:main.c        ****       LCD_ShowStr(0 + 30, 40, "%", WHITE, TRANSPARENT);
 1142              		.loc 2 40 7 is_stmt 1
  40:main.c        ****       LCD_ShowStr(0 + 30, 40, "%", WHITE, TRANSPARENT);
 1143              		.loc 2 40 80 is_stmt 0
 1144 00b0 83274461 		lw	a5,1556(s0)
  40:main.c        ****       LCD_ShowStr(0 + 30, 40, "%", WHITE, TRANSPARENT);
 1145              		.loc 2 40 7
 1146 00b4 1387F4FF 		addi	a4,s1,-1
 1147 00b8 8D46     		li	a3,3
  40:main.c        ****       LCD_ShowStr(0 + 30, 40, "%", WHITE, TRANSPARENT);
 1148              		.loc 2 40 80
 1149 00ba 93870703 		addi	a5,a5,48
 1150 00be 9207     		slli	a5,a5,4
 1151 00c0 A297     		add	a5,s0,a5
  40:main.c        ****       LCD_ShowStr(0 + 30, 40, "%", WHITE, TRANSPARENT);
 1152              		.loc 2 40 7
 1153 00c2 904B     		lw	a2,16(a5)
 1154 00c4 93058002 		li	a1,40
 1155 00c8 0145     		li	a0,0
 1156 00ca 97000000 		call	LCD_ShowNum
 1156      E7800000 
 1157              	.LVL90:
  41:main.c        ****       LCD_Fill(50, 40, 160, 53, BLACK); // Black out old reading before writing new
 1158              		.loc 2 41 7 is_stmt 1
 1159 00d2 0547     		li	a4,1
 1160 00d4 9386F4FF 		addi	a3,s1,-1
 1161 00d8 13060900 		addi	a2,s2,%lo(.LC0)
 1162 00dc 93058002 		li	a1,40
 1163 00e0 7945     		li	a0,30
 1164 00e2 97000000 		call	LCD_ShowStr
 1164      E7800000 
 1165              	.LVL91:
  42:main.c        ****       LCD_ShowStr(50, 40, allPlants[i].sun[allPlants[i].numberOfSunReadings - 1].timeStamp, WHITE, 
 1166              		.loc 2 42 7
 1167 00ea 0147     		li	a4,0
 1168 00ec 93065003 		li	a3,53
 1169 00f0 1306000A 		li	a2,160
 1170 00f4 93058002 		li	a1,40
 1171 00f8 13052003 		li	a0,50
 1172 00fc 97000000 		call	LCD_Fill
 1172      E7800000 
 1173              	.LVL92:
  43:main.c        ****       LCD_ShowStr(0, 60, allPlants[i].currentStatus, GBLUE, TRANSPARENT);
 1174              		.loc 2 43 7
  43:main.c        ****       LCD_ShowStr(0, 60, allPlants[i].currentStatus, GBLUE, TRANSPARENT);
 1175              		.loc 2 43 81 is_stmt 0
 1176 0104 03264461 		lw	a2,1556(s0)
GAS LISTING /var/folders/rt/4gvqv631095f64jvm7jfj_000000gn/T//ccA8CvEa.s 			page 36


  43:main.c        ****       LCD_ShowStr(0, 60, allPlants[i].currentStatus, GBLUE, TRANSPARENT);
 1177              		.loc 2 43 7
 1178 0108 0547     		li	a4,1
 1179 010a 9386F4FF 		addi	a3,s1,-1
  43:main.c        ****       LCD_ShowStr(0, 60, allPlants[i].currentStatus, GBLUE, TRANSPARENT);
 1180              		.loc 2 43 81
 1181 010e 1206     		slli	a2,a2,4
 1182 0110 13064630 		addi	a2,a2,772
  43:main.c        ****       LCD_ShowStr(0, 60, allPlants[i].currentStatus, GBLUE, TRANSPARENT);
 1183              		.loc 2 43 7
 1184 0114 2296     		add	a2,s0,a2
 1185 0116 93058002 		li	a1,40
 1186 011a 13052003 		li	a0,50
 1187 011e 97000000 		call	LCD_ShowStr
 1187      E7800000 
 1188              	.LVL93:
  44:main.c        ****       return;
 1189              		.loc 2 44 7 is_stmt 1
 1190 0126 0547     		li	a4,1
 1191 0128 9306F07F 		li	a3,2047
 1192 012c 1306A400 		addi	a2,s0,10
 1193 0130 9305C003 		li	a1,60
 1194 0134 0145     		li	a0,0
 1195              	.LVL94:
 1196              	.L104:
 1197              	.LBE83:
  49:main.c        **** }
 1198              		.loc 2 49 1 is_stmt 0
 1199 0136 2254     		lw	s0,40(sp)
 1200              		.cfi_remember_state
 1201              		.cfi_restore 8
 1202 0138 B250     		lw	ra,44(sp)
 1203              		.cfi_restore 1
 1204 013a 9254     		lw	s1,36(sp)
 1205              		.cfi_restore 9
 1206 013c 0259     		lw	s2,32(sp)
 1207              		.cfi_restore 18
 1208 013e F249     		lw	s3,28(sp)
 1209              		.cfi_restore 19
 1210              	.LVL95:
 1211 0140 4561     		addi	sp,sp,48
 1212              	.LCFI7:
 1213              		.cfi_def_cfa_offset 0
  48:main.c        **** }
 1214              		.loc 2 48 3
 1215 0142 17030000 		tail	LCD_ShowStr
 1215      67000300 
 1216              	.LVL96:
 1217              	.L101:
 1218              	.LCFI8:
 1219              		.cfi_restore_state
 1220              	.LBB84:
  32:main.c        ****   {
 1221              		.loc 2 32 40 discriminator 2
 1222 014a 0509     		addi	s2,s2,1
 1223              	.LVL97:
 1224 014c D9B5     		j	.L100
GAS LISTING /var/folders/rt/4gvqv631095f64jvm7jfj_000000gn/T//ccA8CvEa.s 			page 37


 1225              	.LBE84:
 1226              		.cfi_endproc
 1227              	.LFE13:
 1229              		.section	.text.updatePlantStatus,"ax",@progbits
 1230              		.align	1
 1231              		.globl	updatePlantStatus
 1233              	updatePlantStatus:
 1234              	.LFB14:
  50:main.c        **** 
  51:main.c        **** void updatePlantStatus(Plant plantToUpdate)
  52:main.c        **** {
 1235              		.loc 2 52 1 is_stmt 1
 1236              		.cfi_startproc
  53:main.c        ****   // WIP : LOOPA IGENOM TIDIGARE READINGS, GĂ–R EN AVERAGE, TA REDA PĂ… STATUS. BEHĂ–VER LJUS? BEHĂ
  54:main.c        **** }
 1237              		.loc 2 54 1
 1238 0000 8280     		ret
 1239              		.cfi_endproc
 1240              	.LFE14:
 1242              		.section	.text.updatePlantReading,"ax",@progbits
 1243              		.align	1
 1244              		.globl	updatePlantReading
 1246              	updatePlantReading:
 1247              	.LFB15:
  55:main.c        **** 
  56:main.c        **** void updatePlantReading(Plant allPlants[], int numberOfPlants, char name[], SensorType type)
  57:main.c        **** {
 1248              		.loc 2 57 1
 1249              		.cfi_startproc
 1250              	.LVL98:
  58:main.c        ****   for (int i = 0; i < numberOfPlants; i++)
 1251              		.loc 2 58 3
 1252              	.LBB85:
 1253              		.loc 2 58 8
 1254              	.LBE85:
  57:main.c        ****   for (int i = 0; i < numberOfPlants; i++)
 1255              		.loc 2 57 1 is_stmt 0
 1256 0000 3971     		addi	sp,sp,-64
 1257              	.LCFI9:
 1258              		.cfi_def_cfa_offset 64
 1259 0002 22DC     		sw	s0,56(sp)
 1260 0004 26DA     		sw	s1,52(sp)
 1261 0006 4AD8     		sw	s2,48(sp)
 1262 0008 4ED6     		sw	s3,44(sp)
 1263 000a 06DE     		sw	ra,60(sp)
 1264              		.cfi_offset 8, -8
 1265              		.cfi_offset 9, -12
 1266              		.cfi_offset 18, -16
 1267              		.cfi_offset 19, -20
 1268              		.cfi_offset 1, -4
  57:main.c        ****   for (int i = 0; i < numberOfPlants; i++)
 1269              		.loc 2 57 1
 1270 000c 2E89     		mv	s2,a1
 1271 000e 2A84     		mv	s0,a0
 1272              	.LBB88:
 1273              		.loc 2 58 12
 1274 0010 8144     		li	s1,0
GAS LISTING /var/folders/rt/4gvqv631095f64jvm7jfj_000000gn/T//ccA8CvEa.s 			page 38


  59:main.c        ****   {
  60:main.c        ****     if (strcmp(allPlants[i].name, name) == 0)
  61:main.c        ****     {
  62:main.c        ****       if (type == SUN)
 1275              		.loc 2 62 10
 1276 0012 8549     		li	s3,1
 1277              	.LVL99:
 1278              	.L107:
  58:main.c        ****   {
 1279              		.loc 2 58 3 discriminator 1
 1280 0014 63C92403 		blt	s1,s2,.L113
 1281              	.LBE88:
  63:main.c        ****       {
  64:main.c        ****         char fillWithTimeStamp[9];
  65:main.c        ****         generateTimeStamp(fillWithTimeStamp);
  66:main.c        ****         int currentValue = readSensor(ADC0, ADC_FLAG_EOC);
  67:main.c        ****         if (currentValue < 0)
  68:main.c        ****           currentValue = 0;
  69:main.c        ****         if (allPlants[i].numberOfSunReadings < MAX_SUN_READINGS)
  70:main.c        ****         {
  71:main.c        ****           allPlants[i].sun[allPlants[i].numberOfSunReadings].reading = currentValue;
  72:main.c        ****           STR_COPY(allPlants[i].sun[allPlants[i].numberOfSunReadings].timeStamp, fillWithTimeStamp)
  73:main.c        ****           (allPlants[i].numberOfSunReadings)++;
  74:main.c        ****         }
  75:main.c        ****         else
  76:main.c        ****         {
  77:main.c        ****           LCD_Fill(0, 0, 160, 80, BLACK);
  78:main.c        ****           LCD_ShowStr(0, 10, "SUN READINGS FULL", RED, TRANSPARENT);
  79:main.c        ****         }
  80:main.c        ****         return;
  81:main.c        ****       }
  82:main.c        ****     }
  83:main.c        ****   }
  84:main.c        ****   LCD_Fill(0, 0, 160, 80, BLACK);
 1282              		.loc 2 84 3 is_stmt 1
 1283 0018 0147     		li	a4,0
 1284 001a 93060005 		li	a3,80
 1285              	.LVL100:
 1286 001e 1306000A 		li	a2,160
 1287              	.LVL101:
 1288 0022 8145     		li	a1,0
 1289 0024 0145     		li	a0,0
 1290 0026 97000000 		call	LCD_Fill
 1290      E7800000 
 1291              	.LVL102:
  85:main.c        ****   LCD_ShowStr(50, 4, "NO SUCH PLANT", RED, TRANSPARENT);
 1292              		.loc 2 85 3
 1293 002e C166     		li	a3,65536
 1294 0030 37060000 		lui	a2,%hi(.LC1)
 1295 0034 0547     		li	a4,1
 1296 0036 93860680 		addi	a3,a3,-2048
 1297 003a 13060600 		addi	a2,a2,%lo(.LC1)
 1298 003e 9145     		li	a1,4
 1299 0040 13052003 		li	a0,50
 1300 0044 55A8     		j	.L115
 1301              	.LVL103:
 1302              	.L113:
GAS LISTING /var/folders/rt/4gvqv631095f64jvm7jfj_000000gn/T//ccA8CvEa.s 			page 39


 1303              	.LBB89:
  60:main.c        ****     {
 1304              		.loc 2 60 9 is_stmt 0
 1305 0046 B285     		mv	a1,a2
 1306 0048 2285     		mv	a0,s0
 1307 004a 36C6     		sw	a3,12(sp)
  60:main.c        ****     {
 1308              		.loc 2 60 5 is_stmt 1
  60:main.c        ****     {
 1309              		.loc 2 60 9 is_stmt 0
 1310 004c 32C4     		sw	a2,8(sp)
 1311 004e 97000000 		call	strcmp
 1311      E7800000 
 1312              	.LVL104:
  60:main.c        ****     {
 1313              		.loc 2 60 8
 1314 0056 2246     		lw	a2,8(sp)
 1315 0058 B246     		lw	a3,12(sp)
 1316 005a 45E5     		bne	a0,zero,.L108
 1317              	.LVL105:
  62:main.c        ****       {
 1318              		.loc 2 62 7 is_stmt 1
  62:main.c        ****       {
 1319              		.loc 2 62 10 is_stmt 0
 1320 005c 6393360B 		bne	a3,s3,.L108
 1321              	.LBB86:
  64:main.c        ****         generateTimeStamp(fillWithTimeStamp);
 1322              		.loc 2 64 9 is_stmt 1
  65:main.c        ****         int currentValue = readSensor(ADC0, ADC_FLAG_EOC);
 1323              		.loc 2 65 9
 1324 0060 4808     		addi	a0,sp,20
 1325 0062 97000000 		call	generateTimeStamp
 1325      E7800000 
 1326              	.LVL106:
  66:main.c        ****         if (currentValue < 0)
 1327              		.loc 2 66 9
  66:main.c        ****         if (currentValue < 0)
 1328              		.loc 2 66 28 is_stmt 0
 1329 006a 37250140 		li	a0,1073815552
 1330 006e 8945     		li	a1,2
 1331 0070 13050540 		addi	a0,a0,1024
 1332 0074 97000000 		call	readSensor
 1332      E7800000 
 1333              	.LVL107:
  67:main.c        ****           currentValue = 0;
 1334              		.loc 2 67 9 is_stmt 1
  69:main.c        ****         {
 1335              		.loc 2 69 9
  69:main.c        ****         {
 1336              		.loc 2 69 25 is_stmt 0
 1337 007c 83274461 		lw	a5,1556(s0)
  69:main.c        ****         {
 1338              		.loc 2 69 12
 1339 0080 1307F002 		li	a4,47
 1340 0084 6345F704 		bgt	a5,a4,.L109
  71:main.c        ****           STR_COPY(allPlants[i].sun[allPlants[i].numberOfSunReadings].timeStamp, fillWithTimeStamp)
 1341              		.loc 2 71 11 is_stmt 1
GAS LISTING /var/folders/rt/4gvqv631095f64jvm7jfj_000000gn/T//ccA8CvEa.s 			page 40


  71:main.c        ****           STR_COPY(allPlants[i].sun[allPlants[i].numberOfSunReadings].timeStamp, fillWithTimeStamp)
 1342              		.loc 2 71 70 is_stmt 0
 1343 0088 93871703 		addi	a5,a5,49
 1344 008c 13974700 		slli	a4,a5,4
 1345 0090 2297     		add	a4,s0,a4
 1346 0092 63530500 		bge	a0,zero,.L110
 1347 0096 0145     		li	a0,0
 1348              	.LVL108:
 1349              	.L110:
 1350 0098 08CB     		sw	a0,16(a4)
  72:main.c        ****           (allPlants[i].numberOfSunReadings)++;
 1351              		.loc 2 72 11 is_stmt 1
 1352 009a 13954700 		slli	a0,a5,4
 1353 009e 1105     		addi	a0,a0,4
 1354 00a0 37060000 		lui	a2,%hi(.LC2)
 1355 00a4 5408     		addi	a3,sp,20
 1356 00a6 13060600 		addi	a2,a2,%lo(.LC2)
 1357 00aa A545     		li	a1,9
 1358 00ac 2295     		add	a0,s0,a0
 1359 00ae 97000000 		call	snprintf
 1359      E7800000 
 1360              	.LVL109:
  73:main.c        ****         }
 1361              		.loc 2 73 11
  73:main.c        ****         }
 1362              		.loc 2 73 45 is_stmt 0
 1363 00b6 83274461 		lw	a5,1556(s0)
 1364 00ba 8507     		addi	a5,a5,1
 1365 00bc 232AF460 		sw	a5,1556(s0)
 1366              	.LVL110:
 1367              	.L106:
 1368              	.LBE86:
 1369              	.LBE89:
  86:main.c        **** }
 1370              		.loc 2 86 1
 1371 00c0 F250     		lw	ra,60(sp)
 1372              		.cfi_remember_state
 1373              		.cfi_restore 1
 1374 00c2 6254     		lw	s0,56(sp)
 1375              		.cfi_restore 8
 1376 00c4 D254     		lw	s1,52(sp)
 1377              		.cfi_restore 9
 1378              	.LVL111:
 1379 00c6 4259     		lw	s2,48(sp)
 1380              		.cfi_restore 18
 1381              	.LVL112:
 1382 00c8 B259     		lw	s3,44(sp)
 1383              		.cfi_restore 19
 1384 00ca 2161     		addi	sp,sp,64
 1385              	.LCFI10:
 1386              		.cfi_def_cfa_offset 0
 1387 00cc 8280     		jr	ra
 1388              	.LVL113:
 1389              	.L109:
 1390              	.LCFI11:
 1391              		.cfi_restore_state
 1392              	.LBB90:
GAS LISTING /var/folders/rt/4gvqv631095f64jvm7jfj_000000gn/T//ccA8CvEa.s 			page 41


 1393              	.LBB87:
  77:main.c        ****           LCD_ShowStr(0, 10, "SUN READINGS FULL", RED, TRANSPARENT);
 1394              		.loc 2 77 11 is_stmt 1
 1395 00ce 0147     		li	a4,0
 1396 00d0 93060005 		li	a3,80
 1397 00d4 1306000A 		li	a2,160
 1398 00d8 8145     		li	a1,0
 1399 00da 0145     		li	a0,0
 1400              	.LVL114:
 1401 00dc 97000000 		call	LCD_Fill
 1401      E7800000 
 1402              	.LVL115:
  78:main.c        ****         }
 1403              		.loc 2 78 11
 1404 00e4 C166     		li	a3,65536
 1405 00e6 37060000 		lui	a2,%hi(.LC3)
 1406 00ea 0547     		li	a4,1
 1407 00ec 93860680 		addi	a3,a3,-2048
 1408 00f0 13060600 		addi	a2,a2,%lo(.LC3)
 1409 00f4 A945     		li	a1,10
 1410 00f6 0145     		li	a0,0
 1411              	.LVL116:
 1412              	.L115:
 1413              	.LBE87:
 1414              	.LBE90:
  85:main.c        **** }
 1415              		.loc 2 85 3 is_stmt 0
 1416 00f8 97000000 		call	LCD_ShowStr
 1416      E7800000 
 1417              	.LVL117:
 1418 0100 C1B7     		j	.L106
 1419              	.LVL118:
 1420              	.L108:
 1421              	.LBB91:
  58:main.c        ****   {
 1422              		.loc 2 58 40 discriminator 2
 1423 0102 8504     		addi	s1,s1,1
 1424              	.LVL119:
 1425 0104 1304C461 		addi	s0,s0,1564
 1426 0108 31B7     		j	.L107
 1427              	.LBE91:
 1428              		.cfi_endproc
 1429              	.LFE15:
 1431              		.section	.text.jsonAllPlants,"ax",@progbits
 1432              		.align	1
 1433              		.globl	jsonAllPlants
 1435              	jsonAllPlants:
 1436              	.LFB16:
  87:main.c        **** 
  88:main.c        **** void jsonAllPlants(char *out, Plant allPlants[], int numberOfPlants) {
 1437              		.loc 2 88 70 is_stmt 1
 1438              		.cfi_startproc
 1439              	.LVL120:
  89:main.c        ****     sprintf(out,
 1440              		.loc 2 89 5
 1441 0000 03A74561 		lw	a4,1556(a1)
 1442 0004 03A38561 		lw	t1,1560(a1)
GAS LISTING /var/folders/rt/4gvqv631095f64jvm7jfj_000000gn/T//ccA8CvEa.s 			page 42


 1443 0008 8567     		li	a5,4096
 1444 000a 13070703 		addi	a4,a4,48
 1445 000e 1203     		slli	t1,t1,4
 1446 0010 1207     		slli	a4,a4,4
  88:main.c        ****     sprintf(out,
 1447              		.loc 2 88 70 is_stmt 0
 1448 0012 2E86     		mv	a2,a1
 1449              	.LVL121:
 1450              		.loc 2 89 5
 1451 0014 2E93     		add	t1,a1,t1
 1452 0016 2E97     		add	a4,a1,a4
 1453 0018 BE95     		add	a1,a1,a5
 1454              	.LVL122:
 1455 001a 83A60525 		lw	a3,592(a1)
  88:main.c        ****     sprintf(out,
 1456              		.loc 2 88 70
 1457 001e 7971     		addi	sp,sp,-48
 1458              	.LCFI12:
 1459              		.cfi_def_cfa_offset 48
 1460              		.loc 2 89 5
 1461 0020 938787C3 		addi	a5,a5,-968
 1462 0024 9206     		slli	a3,a3,4
 1463 0026 AE96     		add	a3,a1,a3
 1464 0028 83A686C4 		lw	a3,-952(a3)
 1465 002c B297     		add	a5,a2,a5
 1466 002e 93086662 		addi	a7,a2,1574
 1467 0032 36CA     		sw	a3,20(sp)
 1468 0034 83A6C524 		lw	a3,588(a1)
 1469 0038 1308C661 		addi	a6,a2,1564
  88:main.c        ****     sprintf(out,
 1470              		.loc 2 88 70
 1471 003c 06D6     		sw	ra,44(sp)
 1472              		.cfi_offset 1, -4
 1473              		.loc 2 89 5
 1474 003e 93860603 		addi	a3,a3,48
 1475 0042 9206     		slli	a3,a3,4
 1476 0044 AE96     		add	a3,a1,a3
 1477 0046 83A686C4 		lw	a3,-952(a3)
 1478 004a 3EC4     		sw	a5,8(sp)
 1479 004c 36C8     		sw	a3,16(sp)
 1480 004e 9386A700 		addi	a3,a5,10
 1481 0052 36C6     		sw	a3,12(sp)
 1482 0054 83A745C3 		lw	a5,-972(a1)
 1483 0058 9306A600 		addi	a3,a2,10
 1484 005c 9207     		slli	a5,a5,4
 1485 005e B297     		add	a5,a2,a5
 1486 0060 83A7C762 		lw	a5,1580(a5)
 1487 0064 3EC2     		sw	a5,4(sp)
 1488 0066 83A705C3 		lw	a5,-976(a1)
 1489 006a B7050000 		lui	a1,%hi(.LC4)
 1490 006e 93850500 		addi	a1,a1,%lo(.LC4)
 1491 0072 93870703 		addi	a5,a5,48
 1492 0076 9207     		slli	a5,a5,4
 1493 0078 B297     		add	a5,a2,a5
 1494 007a 83A7C762 		lw	a5,1580(a5)
 1495 007e 3EC0     		sw	a5,0(sp)
 1496 0080 83270301 		lw	a5,16(t1)
GAS LISTING /var/folders/rt/4gvqv631095f64jvm7jfj_000000gn/T//ccA8CvEa.s 			page 43


 1497 0084 184B     		lw	a4,16(a4)
 1498 0086 97000000 		call	sprintf
 1498      E7800000 
 1499              	.LVL123:
  90:main.c        ****         "["
  91:main.c        ****         "{\"name\":\"%s\",\"status\":\"%s\",\"currentSun\":%d,\"currentMoisture\":%d},"
  92:main.c        ****         "{\"name\":\"%s\",\"status\":\"%s\",\"currentSun\":%d,\"currentMoisture\":%d},"
  93:main.c        ****         "{\"name\":\"%s\",\"status\":\"%s\",\"currentSun\":%d,\"currentMoisture\":%d}"
  94:main.c        ****         "]\n",
  95:main.c        ****         allPlants[0].name,
  96:main.c        ****         allPlants[0].currentStatus,
  97:main.c        ****         allPlants[0].sun[allPlants[0].numberOfSunReadings-1].reading,
  98:main.c        ****         allPlants[0].moisture[allPlants[0].numberOfMoistureReadings-1].reading,
  99:main.c        ****         allPlants[1].name,
 100:main.c        ****         allPlants[1].currentStatus,
 101:main.c        ****         allPlants[1].sun[allPlants[1].numberOfSunReadings-1].reading,
 102:main.c        ****         allPlants[1].moisture[allPlants[1].numberOfMoistureReadings-1].reading,
 103:main.c        ****         allPlants[2].name,
 104:main.c        ****         allPlants[2].currentStatus,
 105:main.c        ****         allPlants[2].sun[allPlants[2].numberOfSunReadings-1].reading,
 106:main.c        ****         allPlants[2].moisture[allPlants[2].numberOfMoistureReadings-1].reading
 107:main.c        ****     );
 108:main.c        **** }
 1500              		.loc 2 108 1
 1501 008e B250     		lw	ra,44(sp)
 1502              		.cfi_restore 1
 1503 0090 4561     		addi	sp,sp,48
 1504              	.LCFI13:
 1505              		.cfi_def_cfa_offset 0
 1506 0092 8280     		jr	ra
 1507              		.cfi_endproc
 1508              	.LFE16:
 1510              		.section	.text.receiveCommands,"ax",@progbits
 1511              		.align	1
 1512              		.globl	receiveCommands
 1514              	receiveCommands:
 1515              	.LFB17:
 109:main.c        **** 
 110:main.c        **** void receiveCommands(Plant allPlants[], int *numberOfPlants)
 111:main.c        **** {
 1516              		.loc 2 111 1 is_stmt 1
 1517              		.cfi_startproc
 1518              	.LVL124:
 112:main.c        ****   LCD_Clear(BLACK);
 1519              		.loc 2 112 3
 111:main.c        ****   LCD_Clear(BLACK);
 1520              		.loc 2 111 1 is_stmt 0
 1521 0000 130101DE 		addi	sp,sp,-544
 1522              	.LCFI14:
 1523              		.cfi_def_cfa_offset 544
 1524 0004 232A9120 		sw	s1,532(sp)
 1525              		.cfi_offset 9, -12
 1526 0008 AA84     		mv	s1,a0
 1527              		.loc 2 112 3
 1528 000a 0145     		li	a0,0
 1529              	.LVL125:
 111:main.c        ****   LCD_Clear(BLACK);
GAS LISTING /var/folders/rt/4gvqv631095f64jvm7jfj_000000gn/T//ccA8CvEa.s 			page 44


 1530              		.loc 2 111 1
 1531 000c 232E1120 		sw	ra,540(sp)
 1532 0010 232C8120 		sw	s0,536(sp)
 1533 0014 23282121 		sw	s2,528(sp)
 1534 0018 23263121 		sw	s3,524(sp)
 1535              		.cfi_offset 1, -4
 1536              		.cfi_offset 8, -8
 1537              		.cfi_offset 18, -16
 1538              		.cfi_offset 19, -20
 111:main.c        ****   LCD_Clear(BLACK);
 1539              		.loc 2 111 1
 1540 001c 2E89     		mv	s2,a1
 1541              		.loc 2 112 3
 1542 001e 97000000 		call	LCD_Clear
 1542      E7800000 
 1543              	.LVL126:
 113:main.c        ****   LCD_ShowStr(0, 0, "in receive commands", WHITE, TRANSPARENT);
 1544              		.loc 2 113 3 is_stmt 1
 1545 0026 C166     		li	a3,65536
 1546 0028 37060000 		lui	a2,%hi(.LC5)
 1547 002c 0547     		li	a4,1
 1548 002e 13060600 		addi	a2,a2,%lo(.LC5)
 1549 0032 8145     		li	a1,0
 1550 0034 FD16     		addi	a3,a3,-1
 1551 0036 0145     		li	a0,0
 1552 0038 97000000 		call	LCD_ShowStr
 1552      E7800000 
 1553              	.LVL127:
 114:main.c        ****   for (int j = 0; j < commandBufferIndex; j++)
 1554              		.loc 2 114 3
 1555              	.LBB92:
 1556              		.loc 2 114 8
 1557              		.loc 2 114 21 is_stmt 0
 1558 0040 37070000 		lui	a4,%hi(commandBufferIndex)
 115:main.c        ****   {
 116:main.c        ****     if (commandBuffer[j] == '\n')
 1559              		.loc 2 116 22
 1560 0044 37040000 		lui	s0,%hi(commandBuffer)
 114:main.c        ****   for (int j = 0; j < commandBufferIndex; j++)
 1561              		.loc 2 114 12
 1562 0048 8147     		li	a5,0
 1563 004a BA89     		mv	s3,a4
 1564              		.loc 2 116 22
 1565 004c 13060400 		addi	a2,s0,%lo(commandBuffer)
 1566              		.loc 2 116 8
 1567 0050 A945     		li	a1,10
 1568              	.LVL128:
 1569              	.L119:
 114:main.c        ****   for (int j = 0; j < commandBufferIndex; j++)
 1570              		.loc 2 114 21 discriminator 1
 1571 0052 83260700 		lw	a3,%lo(commandBufferIndex)(a4)
 114:main.c        ****   for (int j = 0; j < commandBufferIndex; j++)
 1572              		.loc 2 114 3 discriminator 1
 1573 0056 63D2D704 		ble	a3,a5,.L118
 1574              		.loc 2 116 5 is_stmt 1
 1575              		.loc 2 116 22 is_stmt 0
 1576 005a B306F600 		add	a3,a2,a5
GAS LISTING /var/folders/rt/4gvqv631095f64jvm7jfj_000000gn/T//ccA8CvEa.s 			page 45


 1577 005e 03C50600 		lbu	a0,0(a3)
 1578              		.loc 2 116 8
 1579 0062 6394A50E 		bne	a1,a0,.L120
 117:main.c        ****     {
 118:main.c        ****       commandBuffer[j] = '\0';
 1580              		.loc 2 118 7 is_stmt 1
 119:main.c        ****       if (!strcmp((char *)commandBuffer, "renderAllPlants"))
 1581              		.loc 2 119 12 is_stmt 0
 1582 0066 B7050000 		lui	a1,%hi(.LC6)
 1583 006a 93850500 		addi	a1,a1,%lo(.LC6)
 1584 006e 13050400 		addi	a0,s0,%lo(commandBuffer)
 118:main.c        ****       if (!strcmp((char *)commandBuffer, "renderAllPlants"))
 1585              		.loc 2 118 24
 1586 0072 23800600 		sb	zero,0(a3)
 1587              		.loc 2 119 7 is_stmt 1
 1588              		.loc 2 119 12 is_stmt 0
 1589 0076 97000000 		call	strcmp
 1589      E7800000 
 1590              	.LVL129:
 1591              		.loc 2 119 10
 1592 007e 1DE9     		bne	a0,zero,.L121
 120:main.c        ****       {
 121:main.c        ****         LCD_Clear(BLACK);
 1593              		.loc 2 121 9 is_stmt 1
 1594 0080 97000000 		call	LCD_Clear
 1594      E7800000 
 1595              	.LVL130:
 122:main.c        ****         renderAllPlants(allPlants, *numberOfPlants);
 1596              		.loc 2 122 9
 1597 0088 83250900 		lw	a1,0(s2)
 1598 008c 2685     		mv	a0,s1
 1599 008e 97000000 		call	renderAllPlants
 1599      E7800000 
 1600              	.LVL131:
 1601              	.L122:
 123:main.c        ****       } 
 124:main.c        ****       
 125:main.c        ****       
 126:main.c        ****       else if (!strcmp((char *)commandBuffer, "getAllPlants")){
 127:main.c        ****         LCD_Clear(BLACK);
 128:main.c        ****         LCD_ShowStr(0, 0, "transmit in session", WHITE, TRANSPARENT);
 129:main.c        **** 
 130:main.c        ****         char data[512];
 131:main.c        ****         jsonAllPlants(data, allPlants, *numberOfPlants);
 132:main.c        ****         putstr(data);
 133:main.c        ****       } 
 134:main.c        **** 
 135:main.c        ****       else {
 136:main.c        ****         LCD_Clear(BLACK);
 137:main.c        ****         LCD_ShowStr(0, 0, "BAD COMMAND:", WHITE, TRANSPARENT);
 138:main.c        ****         LCD_ShowStr(0, 13, (char *)commandBuffer, WHITE, TRANSPARENT);
 139:main.c        ****         putstr((char *)commandBuffer);
 140:main.c        ****       }
 141:main.c        ****       commandBufferIndex = 0;
 1602              		.loc 2 141 7
 1603              		.loc 2 141 26 is_stmt 0
 1604 0096 23A00900 		sw	zero,%lo(commandBufferIndex)(s3)
GAS LISTING /var/folders/rt/4gvqv631095f64jvm7jfj_000000gn/T//ccA8CvEa.s 			page 46


 142:main.c        ****       break;
 1605              		.loc 2 142 7 is_stmt 1
 1606              	.L118:
 1607              	.LBE92:
 143:main.c        ****     }
 144:main.c        ****   }
 145:main.c        **** }
 1608              		.loc 2 145 1 is_stmt 0
 1609 009a 8320C121 		lw	ra,540(sp)
 1610              		.cfi_remember_state
 1611              		.cfi_restore 1
 1612 009e 03248121 		lw	s0,536(sp)
 1613              		.cfi_restore 8
 1614 00a2 83244121 		lw	s1,532(sp)
 1615              		.cfi_restore 9
 1616 00a6 03290121 		lw	s2,528(sp)
 1617              		.cfi_restore 18
 1618              	.LVL132:
 1619 00aa 8329C120 		lw	s3,524(sp)
 1620              		.cfi_restore 19
 1621 00ae 13010122 		addi	sp,sp,544
 1622              	.LCFI15:
 1623              		.cfi_def_cfa_offset 0
 1624 00b2 8280     		jr	ra
 1625              	.LVL133:
 1626              	.L121:
 1627              	.LCFI16:
 1628              		.cfi_restore_state
 1629              	.LBB94:
 126:main.c        ****         LCD_Clear(BLACK);
 1630              		.loc 2 126 12 is_stmt 1
 126:main.c        ****         LCD_Clear(BLACK);
 1631              		.loc 2 126 17 is_stmt 0
 1632 00b4 B7050000 		lui	a1,%hi(.LC7)
 1633 00b8 93850500 		addi	a1,a1,%lo(.LC7)
 1634 00bc 13050400 		addi	a0,s0,%lo(commandBuffer)
 1635 00c0 97000000 		call	strcmp
 1635      E7800000 
 1636              	.LVL134:
 126:main.c        ****         LCD_Clear(BLACK);
 1637              		.loc 2 126 15
 1638 00c8 21E1     		bne	a0,zero,.L123
 1639              	.LBB93:
 127:main.c        ****         LCD_ShowStr(0, 0, "transmit in session", WHITE, TRANSPARENT);
 1640              		.loc 2 127 9 is_stmt 1
 1641 00ca 97000000 		call	LCD_Clear
 1641      E7800000 
 1642              	.LVL135:
 128:main.c        **** 
 1643              		.loc 2 128 9
 1644 00d2 C166     		li	a3,65536
 1645 00d4 37060000 		lui	a2,%hi(.LC8)
 1646 00d8 0547     		li	a4,1
 1647 00da FD16     		addi	a3,a3,-1
 1648 00dc 13060600 		addi	a2,a2,%lo(.LC8)
 1649 00e0 8145     		li	a1,0
 1650 00e2 0145     		li	a0,0
GAS LISTING /var/folders/rt/4gvqv631095f64jvm7jfj_000000gn/T//ccA8CvEa.s 			page 47


 1651 00e4 97000000 		call	LCD_ShowStr
 1651      E7800000 
 1652              	.LVL136:
 130:main.c        ****         jsonAllPlants(data, allPlants, *numberOfPlants);
 1653              		.loc 2 130 9
 131:main.c        ****         putstr(data);
 1654              		.loc 2 131 9
 1655 00ec 03260900 		lw	a2,0(s2)
 1656 00f0 0A85     		mv	a0,sp
 1657 00f2 A685     		mv	a1,s1
 1658 00f4 97000000 		call	jsonAllPlants
 1658      E7800000 
 1659              	.LVL137:
 132:main.c        ****       } 
 1660              		.loc 2 132 9
 1661 00fc 0A85     		mv	a0,sp
 1662              	.LVL138:
 1663              	.L127:
 1664              	.LBE93:
 139:main.c        ****       }
 1665              		.loc 2 139 9 is_stmt 0
 1666 00fe 97000000 		call	putstr
 1666      E7800000 
 1667              	.LVL139:
 1668 0106 41BF     		j	.L122
 1669              	.LVL140:
 1670              	.L123:
 136:main.c        ****         LCD_ShowStr(0, 0, "BAD COMMAND:", WHITE, TRANSPARENT);
 1671              		.loc 2 136 9 is_stmt 1
 1672 0108 0145     		li	a0,0
 1673 010a 97000000 		call	LCD_Clear
 1673      E7800000 
 1674              	.LVL141:
 137:main.c        ****         LCD_ShowStr(0, 13, (char *)commandBuffer, WHITE, TRANSPARENT);
 1675              		.loc 2 137 9
 1676 0112 C164     		li	s1,65536
 1677              	.LVL142:
 1678 0114 37060000 		lui	a2,%hi(.LC9)
 1679 0118 0547     		li	a4,1
 1680 011a 9386F4FF 		addi	a3,s1,-1
 1681 011e 13060600 		addi	a2,a2,%lo(.LC9)
 1682 0122 8145     		li	a1,0
 1683 0124 0145     		li	a0,0
 1684 0126 97000000 		call	LCD_ShowStr
 1684      E7800000 
 1685              	.LVL143:
 138:main.c        ****         putstr((char *)commandBuffer);
 1686              		.loc 2 138 9
 1687 012e 0145     		li	a0,0
 1688 0130 0547     		li	a4,1
 1689 0132 9386F4FF 		addi	a3,s1,-1
 1690 0136 13060400 		addi	a2,s0,%lo(commandBuffer)
 1691 013a B545     		li	a1,13
 1692 013c 97000000 		call	LCD_ShowStr
 1692      E7800000 
 1693              	.LVL144:
 139:main.c        ****       }
GAS LISTING /var/folders/rt/4gvqv631095f64jvm7jfj_000000gn/T//ccA8CvEa.s 			page 48


 1694              		.loc 2 139 9
 1695 0144 13050400 		addi	a0,s0,%lo(commandBuffer)
 1696 0148 5DBF     		j	.L127
 1697              	.LVL145:
 1698              	.L120:
 114:main.c        ****   {
 1699              		.loc 2 114 44 is_stmt 0 discriminator 2
 1700 014a 8507     		addi	a5,a5,1
 1701              	.LVL146:
 1702 014c 19B7     		j	.L119
 1703              	.LBE94:
 1704              		.cfi_endproc
 1705              	.LFE17:
 1707              		.section	.text.startup.main,"ax",@progbits
 1708              		.align	1
 1709              		.globl	main
 1711              	main:
 1712              	.LFB18:
 146:main.c        **** 
 147:main.c        **** int main(void)
 148:main.c        **** {
 1713              		.loc 2 148 1 is_stmt 1
 1714              		.cfi_startproc
 149:main.c        ****   int ms = 0, s = 0, idle = 0;
 1715              		.loc 2 149 3
 1716              	.LVL147:
 150:main.c        **** 
 151:main.c        ****   Plant allPlants[3];
 1717              		.loc 2 151 3
 152:main.c        ****   int numberOfPlants = 0;
 1718              		.loc 2 152 3
 153:main.c        ****   initPlant("Gurka", &numberOfPlants, allPlants);
 1719              		.loc 2 153 3 is_stmt 0
 1720 0000 0567     		li	a4,4096
 148:main.c        ****   int ms = 0, s = 0, idle = 0;
 1721              		.loc 2 148 1
 1722 0002 7D73     		li	t1,-4096
 1723 0004 130101D8 		addi	sp,sp,-640
 1724              	.LCFI17:
 1725              		.cfi_def_cfa_offset 640
 1726 0008 232E1126 		sw	ra,636(sp)
 1727              		.loc 2 153 3
 1728 000c 93070726 		addi	a5,a4,608
 148:main.c        ****   int ms = 0, s = 0, idle = 0;
 1729              		.loc 2 148 1
 1730 0010 232C8126 		sw	s0,632(sp)
 1731 0014 232A9126 		sw	s1,628(sp)
 1732 0018 23282127 		sw	s2,624(sp)
 1733 001c 23263127 		sw	s3,620(sp)
 1734 0020 23244127 		sw	s4,616(sp)
 1735 0024 23225127 		sw	s5,612(sp)
 1736              		.cfi_offset 1, -4
 1737              		.cfi_offset 8, -8
 1738              		.cfi_offset 9, -12
 1739              		.cfi_offset 18, -16
 1740              		.cfi_offset 19, -20
 1741              		.cfi_offset 20, -24
GAS LISTING /var/folders/rt/4gvqv631095f64jvm7jfj_000000gn/T//ccA8CvEa.s 			page 49


 1742              		.cfi_offset 21, -28
 152:main.c        ****   int numberOfPlants = 0;
 1743              		.loc 2 152 7
 1744 0028 7D74     		li	s0,-4096
 148:main.c        ****   int ms = 0, s = 0, idle = 0;
 1745              		.loc 2 148 1
 1746 002a 1A91     		add	sp,sp,t1
 1747              	.LCFI18:
 1748              		.cfi_def_cfa_offset 4736
 1749              		.loc 2 153 3
 1750 002c 9304C4DA 		addi	s1,s0,-596
 1751 0030 8A97     		add	a5,a5,sp
 1752 0032 BE94     		add	s1,a5,s1
 1753 0034 93070726 		addi	a5,a4,608
 1754 0038 8A97     		add	a5,a5,sp
 1755 003a 130484DA 		addi	s0,s0,-600
 1756 003e 3E94     		add	s0,a5,s0
 1757 0040 37050000 		lui	a0,%hi(.LC10)
 1758 0044 2686     		mv	a2,s1
 1759 0046 A285     		mv	a1,s0
 1760 0048 13050500 		addi	a0,a0,%lo(.LC10)
 152:main.c        ****   int numberOfPlants = 0;
 1761              		.loc 2 152 7
 1762 004c 02C4     		sw	zero,8(sp)
 1763              		.loc 2 153 3 is_stmt 1
 1764 004e 97000000 		call	initPlant
 1764      E7800000 
 1765              	.LVL148:
 154:main.c        ****   initPlant("Tomat", &numberOfPlants, allPlants);
 1766              		.loc 2 154 3
 1767 0056 37050000 		lui	a0,%hi(.LC11)
 1768 005a 2686     		mv	a2,s1
 1769 005c A285     		mv	a1,s0
 1770 005e 13050500 		addi	a0,a0,%lo(.LC11)
 1771 0062 97000000 		call	initPlant
 1771      E7800000 
 1772              	.LVL149:
 155:main.c        ****   initPlant("Chili", &numberOfPlants, allPlants);
 1773              		.loc 2 155 3
 1774 006a 37050000 		lui	a0,%hi(.LC12)
 1775 006e 2686     		mv	a2,s1
 1776 0070 A285     		mv	a1,s0
 1777 0072 13050500 		addi	a0,a0,%lo(.LC12)
 1778 0076 97000000 		call	initPlant
 1778      E7800000 
 1779              	.LVL150:
 156:main.c        **** 
 157:main.c        ****   t5omsi(); // Initialize timer5 1kHz
 1780              		.loc 2 157 3
 1781 007e 97000000 		call	t5omsi
 1781      E7800000 
 1782              	.LVL151:
 158:main.c        ****   colinit();
 1783              		.loc 2 158 3
 1784 0086 97000000 		call	colinit
 1784      E7800000 
 1785              	.LVL152:
GAS LISTING /var/folders/rt/4gvqv631095f64jvm7jfj_000000gn/T//ccA8CvEa.s 			page 50


 159:main.c        ****   l88init();
 1786              		.loc 2 159 3
 1787 008e 97000000 		call	l88init
 1787      E7800000 
 1788              	.LVL153:
 160:main.c        ****   // keyinit();          // Initialize keyboard toolbox
 161:main.c        ****   rtcInit();
 1789              		.loc 2 161 3
 1790 0096 97000000 		call	rtcInit
 1790      E7800000 
 1791              	.LVL154:
 162:main.c        ****   rtc_counter_set(0);
 1792              		.loc 2 162 3
 1793 009e 0145     		li	a0,0
 1794 00a0 97000000 		call	rtc_counter_set
 1794      E7800000 
 1795              	.LVL155:
 163:main.c        ****   u0init(EI); // Init WiFi Ă¶ver UART
 1796              		.loc 2 163 3
 1797 00a8 0545     		li	a0,1
 1798 00aa 97000000 		call	u0init
 1798      E7800000 
 1799              	.LVL156:
 164:main.c        ****   eclic_global_interrupt_enable();
 1800              		.loc 2 164 3
 1801 00b2 97000000 		call	eclic_global_interrupt_enable
 1801      E7800000 
 1802              	.LVL157:
 165:main.c        ****   ADC3powerUpInit(0); // Initialize ADC0, Ch3
 1803              		.loc 2 165 3
 1804 00ba 0145     		li	a0,0
 1805 00bc 97000000 		call	ADC3powerUpInit
 1805      E7800000 
 1806              	.LVL158:
 166:main.c        **** 
 167:main.c        ****   Lcd_SetType(LCD_INVERTED);
 1807              		.loc 2 167 3
 1808 00c4 0545     		li	a0,1
 1809 00c6 97000000 		call	Lcd_SetType
 1809      E7800000 
 1810              	.LVL159:
 168:main.c        ****   Lcd_Init();
 1811              		.loc 2 168 3
 1812 00ce 97000000 		call	Lcd_Init
 1812      E7800000 
 1813              	.LVL160:
 169:main.c        ****   LCD_Fill(0, 0, 160, 80, BLACK);
 1814              		.loc 2 169 3
 1815 00d6 0147     		li	a4,0
 1816 00d8 93060005 		li	a3,80
 1817 00dc 1306000A 		li	a2,160
 1818 00e0 8145     		li	a1,0
 1819 00e2 0145     		li	a0,0
 1820 00e4 97000000 		call	LCD_Fill
 1820      E7800000 
 1821              	.LVL161:
 149:main.c        **** 
GAS LISTING /var/folders/rt/4gvqv631095f64jvm7jfj_000000gn/T//ccA8CvEa.s 			page 51


 1822              		.loc 2 149 22 is_stmt 0
 1823 00ec 0149     		li	s2,0
 149:main.c        **** 
 1824              		.loc 2 149 7
 1825 00ee 8149     		li	s3,0
 170:main.c        **** 
 171:main.c        ****   
 172:main.c        **** 
 173:main.c        ****   while (1)
 174:main.c        ****   {
 175:main.c        ****     idle++;
 176:main.c        ****     if (commandBufferIndex > 0)
 1826              		.loc 2 176 28
 1827 00f0 370A0000 		lui	s4,%hi(commandBufferIndex)
 177:main.c        ****       receiveCommands(allPlants, &numberOfPlants);
 178:main.c        **** 
 179:main.c        ****     if (t5expq())
 180:main.c        ****     {
 181:main.c        ****       l88row(colset());
 182:main.c        ****       ms++;
 183:main.c        ****       if (ms == 1000)
 1828              		.loc 2 183 10
 1829 00f4 930A803E 		li	s5,1000
 1830              	.LVL162:
 1831              	.L129:
 173:main.c        ****   {
 1832              		.loc 2 173 3 is_stmt 1
 175:main.c        ****     if (commandBufferIndex > 0)
 1833              		.loc 2 175 5
 176:main.c        ****       receiveCommands(allPlants, &numberOfPlants);
 1834              		.loc 2 176 28 is_stmt 0
 1835 00f8 83270A00 		lw	a5,%lo(commandBufferIndex)(s4)
 175:main.c        ****     if (commandBufferIndex > 0)
 1836              		.loc 2 175 9
 1837 00fc 0509     		addi	s2,s2,1
 1838              	.LVL163:
 176:main.c        ****       receiveCommands(allPlants, &numberOfPlants);
 1839              		.loc 2 176 5 is_stmt 1
 176:main.c        ****       receiveCommands(allPlants, &numberOfPlants);
 1840              		.loc 2 176 8 is_stmt 0
 1841 00fe 6358F000 		ble	a5,zero,.L130
 177:main.c        **** 
 1842              		.loc 2 177 7 is_stmt 1
 1843 0102 A285     		mv	a1,s0
 1844 0104 2685     		mv	a0,s1
 1845 0106 97000000 		call	receiveCommands
 1845      E7800000 
 1846              	.LVL164:
 1847              	.L130:
 179:main.c        ****     {
 1848              		.loc 2 179 5
 179:main.c        ****     {
 1849              		.loc 2 179 9 is_stmt 0
 1850 010e 97000000 		call	t5expq
 1850      E7800000 
 1851              	.LVL165:
 179:main.c        ****     {
GAS LISTING /var/folders/rt/4gvqv631095f64jvm7jfj_000000gn/T//ccA8CvEa.s 			page 52


 1852              		.loc 2 179 8
 1853 0116 6DD1     		beq	a0,zero,.L129
 1854 0118 8509     		addi	s3,s3,1
 1855              	.LVL166:
 181:main.c        ****       ms++;
 1856              		.loc 2 181 7 is_stmt 1
 1857 011a 97000000 		call	colset
 1857      E7800000 
 1858              	.LVL167:
 1859 0122 97000000 		call	l88row
 1859      E7800000 
 1860              	.LVL168:
 182:main.c        ****       if (ms == 1000)
 1861              		.loc 2 182 7
 1862              		.loc 2 183 7
 1863              		.loc 2 183 10 is_stmt 0
 1864 012a E39759FD 		bne	s3,s5,.L129
 184:main.c        ****       {
 185:main.c        ****         // updatePlantReading(allPlants, numberOfPlants, "Tomat", SUN);
 186:main.c        ****         //  renderAllPlants(allPlants, numberOfPlants);
 187:main.c        ****         // renderOnePlant(allPlants, numberOfPlants, "Tomat");
 188:main.c        **** 
 189:main.c        ****         l88mem(0, idle >> 8); // ...Performance monitor
 1865              		.loc 2 189 9 is_stmt 1
 1866 012e 93558940 		srai	a1,s2,8
 1867 0132 0145     		li	a0,0
 1868 0134 97000000 		call	l88mem
 1868      E7800000 
 1869              	.LVL169:
 190:main.c        ****         l88mem(1, idle);
 1870              		.loc 2 190 9
 1871 013c CA85     		mv	a1,s2
 1872 013e 0545     		li	a0,1
 1873 0140 97000000 		call	l88mem
 1873      E7800000 
 1874              	.LVL170:
 191:main.c        ****         idle = 0;
 1875              		.loc 2 191 9
 1876              		.loc 2 191 14 is_stmt 0
 1877 0148 0149     		li	s2,0
 1878 014a 7DB7     		j	.L129
 1879              		.cfi_endproc
 1880              	.LFE18:
 1882              		.section	.rodata.jsonAllPlants.str1.4,"aMS",@progbits,1
 1883              		.align	2
 1884              	.LC4:
 1885 0000 5B7B226E 		.string	"[{\"name\":\"%s\",\"status\":\"%s\",\"currentSun\":%d,\"currentMoisture\":%d},{\"name\":\
 1885      616D6522 
 1885      3A222573 
 1885      222C2273 
 1885      74617475 
 1886              		.section	.rodata.main.str1.4,"aMS",@progbits,1
 1887              		.align	2
 1888              	.LC10:
 1889 0000 4775726B 		.string	"Gurka"
 1889      6100
 1890 0006 0000     		.zero	2
GAS LISTING /var/folders/rt/4gvqv631095f64jvm7jfj_000000gn/T//ccA8CvEa.s 			page 53


 1891              	.LC11:
 1892 0008 546F6D61 		.string	"Tomat"
 1892      7400
 1893 000e 0000     		.zero	2
 1894              	.LC12:
 1895 0010 4368696C 		.string	"Chili"
 1895      6900
 1896              		.section	.rodata.receiveCommands.str1.4,"aMS",@progbits,1
 1897              		.align	2
 1898              	.LC5:
 1899 0000 696E2072 		.string	"in receive commands"
 1899      65636569 
 1899      76652063 
 1899      6F6D6D61 
 1899      6E647300 
 1900              	.LC6:
 1901 0014 72656E64 		.string	"renderAllPlants"
 1901      6572416C 
 1901      6C506C61 
 1901      6E747300 
 1902              	.LC7:
 1903 0024 67657441 		.string	"getAllPlants"
 1903      6C6C506C 
 1903      616E7473 
 1903      00
 1904 0031 000000   		.zero	3
 1905              	.LC8:
 1906 0034 7472616E 		.string	"transmit in session"
 1906      736D6974 
 1906      20696E20 
 1906      73657373 
 1906      696F6E00 
 1907              	.LC9:
 1908 0048 42414420 		.string	"BAD COMMAND:"
 1908      434F4D4D 
 1908      414E443A 
 1908      00
 1909              		.section	.rodata.renderAllPlants.str1.4,"aMS",@progbits,1
 1910              		.align	2
 1911              	.LC0:
 1912 0000 2500     		.string	"%"
 1913              		.section	.rodata.renderOnePlant.str1.4,"aMS",@progbits,1
 1914              		.align	2
 1915              	.LC1:
 1916 0000 4E4F2053 		.string	"NO SUCH PLANT"
 1916      55434820 
 1916      504C414E 
 1916      5400
 1917              		.section	.rodata.updatePlantReading.str1.4,"aMS",@progbits,1
 1918              		.align	2
 1919              	.LC2:
 1920 0000 257300   		.string	"%s"
 1921 0003 00       		.zero	1
 1922              	.LC3:
 1923 0004 53554E20 		.string	"SUN READINGS FULL"
 1923      52454144 
 1923      494E4753 
GAS LISTING /var/folders/rt/4gvqv631095f64jvm7jfj_000000gn/T//ccA8CvEa.s 			page 54


 1923      2046554C 
 1923      4C00
 1924              		.text
 1925              	.Letext0:
 1926              		.file 3 "/Users/alexstrae/toolchain-gd32v-v202-osx/compiler/riscv64-unknown-elf/include/machine/_d
 1927              		.file 4 "/Users/alexstrae/toolchain-gd32v-v202-osx/compiler/riscv64-unknown-elf/include/sys/_stdin
 1928              		.file 5 "/Users/alexstrae/toolchain-gd32v-v202-osx/compiler/lib/gcc/riscv64-unknown-elf/8.3.0/incl
 1929              		.file 6 "/Users/alexstrae/toolchain-gd32v-v202-osx/compiler/riscv64-unknown-elf/include/sys/_types
 1930              		.file 7 "/Users/alexstrae/toolchain-gd32v-v202-osx/compiler/riscv64-unknown-elf/include/sys/reent.
 1931              		.file 8 "/Users/alexstrae/toolchain-gd32v-v202-osx/compiler/riscv64-unknown-elf/include/sys/lock.h
 1932              		.file 9 "../../firmware/GD32VF103_standard_peripheral/system_gd32vf103.h"
 1933              		.file 10 "/Users/alexstrae/toolchain-gd32v-v202-osx/compiler/riscv64-unknown-elf/include/stdlib.h"
 1934              		.file 11 "lcd.h"
 1935              		.file 12 "plant.h"
 1936              		.file 13 "usart.h"
 1937              		.file 14 "drivers.h"
 1938              		.file 15 "utilities.h"
 1939              		.file 16 "../../firmware/GD32VF103_standard_peripheral/Include/gd32vf103_rtc.h"
 1940              		.file 17 "../../firmware/GD32VF103_standard_peripheral/Include/gd32vf103_eclic.h"
 1941              		.file 18 "adc.h"
 1942              		.file 19 "/Users/alexstrae/toolchain-gd32v-v202-osx/compiler/riscv64-unknown-elf/include/string.h"
 1943              		.file 20 "/Users/alexstrae/toolchain-gd32v-v202-osx/compiler/riscv64-unknown-elf/include/stdio.h"
GAS LISTING /var/folders/rt/4gvqv631095f64jvm7jfj_000000gn/T//ccA8CvEa.s 			page 55


DEFINED SYMBOLS
                            *ABS*:0000000000000000 main.c
/var/folders/rt/4gvqv631095f64jvm7jfj_000000gn/T//ccA8CvEa.s:13     .text.jsmn_parse:0000000000000000 jsmn_parse
/var/folders/rt/4gvqv631095f64jvm7jfj_000000gn/T//ccA8CvEa.s:17     .text.jsmn_parse:0000000000000000 .L0 
/var/folders/rt/4gvqv631095f64jvm7jfj_000000gn/T//ccA8CvEa.s:19     .text.jsmn_parse:0000000000000000 .L0 
/var/folders/rt/4gvqv631095f64jvm7jfj_000000gn/T//ccA8CvEa.s:20     .text.jsmn_parse:0000000000000000 .L0 
/var/folders/rt/4gvqv631095f64jvm7jfj_000000gn/T//ccA8CvEa.s:21     .text.jsmn_parse:0000000000000000 .L0 
/var/folders/rt/4gvqv631095f64jvm7jfj_000000gn/T//ccA8CvEa.s:22     .text.jsmn_parse:0000000000000000 .L0 
/var/folders/rt/4gvqv631095f64jvm7jfj_000000gn/T//ccA8CvEa.s:23     .text.jsmn_parse:0000000000000000 .L0 
/var/folders/rt/4gvqv631095f64jvm7jfj_000000gn/T//ccA8CvEa.s:24     .text.jsmn_parse:0000000000000000 .L0 
/var/folders/rt/4gvqv631095f64jvm7jfj_000000gn/T//ccA8CvEa.s:26     .text.jsmn_parse:0000000000000002 .L0 
/var/folders/rt/4gvqv631095f64jvm7jfj_000000gn/T//ccA8CvEa.s:29     .text.jsmn_parse:0000000000000004 .L0 
/var/folders/rt/4gvqv631095f64jvm7jfj_000000gn/T//ccA8CvEa.s:30     .text.jsmn_parse:0000000000000004 .L0 
/var/folders/rt/4gvqv631095f64jvm7jfj_000000gn/T//ccA8CvEa.s:32     .text.jsmn_parse:0000000000000006 .L0 
/var/folders/rt/4gvqv631095f64jvm7jfj_000000gn/T//ccA8CvEa.s:45     .text.jsmn_parse:000000000000001e .L0 
/var/folders/rt/4gvqv631095f64jvm7jfj_000000gn/T//ccA8CvEa.s:46     .text.jsmn_parse:000000000000001e .L0 
/var/folders/rt/4gvqv631095f64jvm7jfj_000000gn/T//ccA8CvEa.s:47     .text.jsmn_parse:000000000000001e .L0 
/var/folders/rt/4gvqv631095f64jvm7jfj_000000gn/T//ccA8CvEa.s:48     .text.jsmn_parse:000000000000001e .L0 
/var/folders/rt/4gvqv631095f64jvm7jfj_000000gn/T//ccA8CvEa.s:49     .text.jsmn_parse:000000000000001e .L0 
/var/folders/rt/4gvqv631095f64jvm7jfj_000000gn/T//ccA8CvEa.s:50     .text.jsmn_parse:000000000000001e .L0 
/var/folders/rt/4gvqv631095f64jvm7jfj_000000gn/T//ccA8CvEa.s:51     .text.jsmn_parse:000000000000001e .L0 
/var/folders/rt/4gvqv631095f64jvm7jfj_000000gn/T//ccA8CvEa.s:52     .text.jsmn_parse:000000000000001e .L0 
/var/folders/rt/4gvqv631095f64jvm7jfj_000000gn/T//ccA8CvEa.s:53     .text.jsmn_parse:000000000000001e .L0 
/var/folders/rt/4gvqv631095f64jvm7jfj_000000gn/T//ccA8CvEa.s:54     .text.jsmn_parse:000000000000001e .L0 
/var/folders/rt/4gvqv631095f64jvm7jfj_000000gn/T//ccA8CvEa.s:55     .text.jsmn_parse:000000000000001e .L0 
/var/folders/rt/4gvqv631095f64jvm7jfj_000000gn/T//ccA8CvEa.s:56     .text.jsmn_parse:000000000000001e .L0 
/var/folders/rt/4gvqv631095f64jvm7jfj_000000gn/T//ccA8CvEa.s:59     .text.jsmn_parse:000000000000001e .L0 
/var/folders/rt/4gvqv631095f64jvm7jfj_000000gn/T//ccA8CvEa.s:61     .text.jsmn_parse:0000000000000022 .L0 
/var/folders/rt/4gvqv631095f64jvm7jfj_000000gn/T//ccA8CvEa.s:63     .text.jsmn_parse:0000000000000024 .L0 
/var/folders/rt/4gvqv631095f64jvm7jfj_000000gn/T//ccA8CvEa.s:67     .text.jsmn_parse:0000000000000026 .L0 
/var/folders/rt/4gvqv631095f64jvm7jfj_000000gn/T//ccA8CvEa.s:77     .text.jsmn_parse:0000000000000038 .L0 
/var/folders/rt/4gvqv631095f64jvm7jfj_000000gn/T//ccA8CvEa.s:79     .text.jsmn_parse:000000000000003c .L0 
/var/folders/rt/4gvqv631095f64jvm7jfj_000000gn/T//ccA8CvEa.s:81     .text.jsmn_parse:0000000000000040 .L0 
/var/folders/rt/4gvqv631095f64jvm7jfj_000000gn/T//ccA8CvEa.s:84     .text.jsmn_parse:0000000000000048 .L0 
/var/folders/rt/4gvqv631095f64jvm7jfj_000000gn/T//ccA8CvEa.s:87     .text.jsmn_parse:000000000000004c .L0 
/var/folders/rt/4gvqv631095f64jvm7jfj_000000gn/T//ccA8CvEa.s:88     .text.jsmn_parse:000000000000004c .L0 
/var/folders/rt/4gvqv631095f64jvm7jfj_000000gn/T//ccA8CvEa.s:90     .text.jsmn_parse:000000000000004e .L0 
/var/folders/rt/4gvqv631095f64jvm7jfj_000000gn/T//ccA8CvEa.s:91     .text.jsmn_parse:000000000000004e .L0 
/var/folders/rt/4gvqv631095f64jvm7jfj_000000gn/T//ccA8CvEa.s:94     .text.jsmn_parse:0000000000000050 .L0 
/var/folders/rt/4gvqv631095f64jvm7jfj_000000gn/T//ccA8CvEa.s:100    .text.jsmn_parse:0000000000000058 .L0 
/var/folders/rt/4gvqv631095f64jvm7jfj_000000gn/T//ccA8CvEa.s:104    .text.jsmn_parse:000000000000005a .L0 
/var/folders/rt/4gvqv631095f64jvm7jfj_000000gn/T//ccA8CvEa.s:108    .text.jsmn_parse:000000000000005e .L0 
/var/folders/rt/4gvqv631095f64jvm7jfj_000000gn/T//ccA8CvEa.s:109    .text.jsmn_parse:0000000000000060 .L0 
/var/folders/rt/4gvqv631095f64jvm7jfj_000000gn/T//ccA8CvEa.s:110    .text.jsmn_parse:0000000000000060 .L0 
/var/folders/rt/4gvqv631095f64jvm7jfj_000000gn/T//ccA8CvEa.s:112    .text.jsmn_parse:0000000000000062 .L0 
/var/folders/rt/4gvqv631095f64jvm7jfj_000000gn/T//ccA8CvEa.s:114    .text.jsmn_parse:0000000000000064 .L0 
/var/folders/rt/4gvqv631095f64jvm7jfj_000000gn/T//ccA8CvEa.s:116    .text.jsmn_parse:0000000000000066 .L0 
/var/folders/rt/4gvqv631095f64jvm7jfj_000000gn/T//ccA8CvEa.s:118    .text.jsmn_parse:0000000000000068 .L0 
/var/folders/rt/4gvqv631095f64jvm7jfj_000000gn/T//ccA8CvEa.s:120    .text.jsmn_parse:000000000000006a .L0 
/var/folders/rt/4gvqv631095f64jvm7jfj_000000gn/T//ccA8CvEa.s:122    .text.jsmn_parse:000000000000006c .L0 
/var/folders/rt/4gvqv631095f64jvm7jfj_000000gn/T//ccA8CvEa.s:124    .text.jsmn_parse:000000000000006e .L0 
/var/folders/rt/4gvqv631095f64jvm7jfj_000000gn/T//ccA8CvEa.s:126    .text.jsmn_parse:0000000000000070 .L0 
/var/folders/rt/4gvqv631095f64jvm7jfj_000000gn/T//ccA8CvEa.s:128    .text.jsmn_parse:0000000000000072 .L0 
/var/folders/rt/4gvqv631095f64jvm7jfj_000000gn/T//ccA8CvEa.s:130    .text.jsmn_parse:0000000000000074 .L0 
/var/folders/rt/4gvqv631095f64jvm7jfj_000000gn/T//ccA8CvEa.s:132    .text.jsmn_parse:0000000000000076 .L0 
/var/folders/rt/4gvqv631095f64jvm7jfj_000000gn/T//ccA8CvEa.s:135    .text.jsmn_parse:0000000000000078 .L0 
/var/folders/rt/4gvqv631095f64jvm7jfj_000000gn/T//ccA8CvEa.s:140    .text.jsmn_parse:000000000000007a .L0 
GAS LISTING /var/folders/rt/4gvqv631095f64jvm7jfj_000000gn/T//ccA8CvEa.s 			page 56


/var/folders/rt/4gvqv631095f64jvm7jfj_000000gn/T//ccA8CvEa.s:143    .text.jsmn_parse:000000000000007a .L0 
/var/folders/rt/4gvqv631095f64jvm7jfj_000000gn/T//ccA8CvEa.s:144    .text.jsmn_parse:000000000000007a .L0 
/var/folders/rt/4gvqv631095f64jvm7jfj_000000gn/T//ccA8CvEa.s:145    .text.jsmn_parse:000000000000007a .L0 
/var/folders/rt/4gvqv631095f64jvm7jfj_000000gn/T//ccA8CvEa.s:146    .text.jsmn_parse:000000000000007a .L0 
/var/folders/rt/4gvqv631095f64jvm7jfj_000000gn/T//ccA8CvEa.s:159    .text.jsmn_parse:0000000000000096 .L0 
/var/folders/rt/4gvqv631095f64jvm7jfj_000000gn/T//ccA8CvEa.s:166    .text.jsmn_parse:000000000000009a .L0 
/var/folders/rt/4gvqv631095f64jvm7jfj_000000gn/T//ccA8CvEa.s:173    .text.jsmn_parse:00000000000000a6 .L0 
/var/folders/rt/4gvqv631095f64jvm7jfj_000000gn/T//ccA8CvEa.s:174    .text.jsmn_parse:00000000000000a6 .L0 
/var/folders/rt/4gvqv631095f64jvm7jfj_000000gn/T//ccA8CvEa.s:175    .text.jsmn_parse:00000000000000a6 .L0 
/var/folders/rt/4gvqv631095f64jvm7jfj_000000gn/T//ccA8CvEa.s:176    .text.jsmn_parse:00000000000000a6 .L0 
/var/folders/rt/4gvqv631095f64jvm7jfj_000000gn/T//ccA8CvEa.s:177    .text.jsmn_parse:00000000000000a6 .L0 
/var/folders/rt/4gvqv631095f64jvm7jfj_000000gn/T//ccA8CvEa.s:181    .text.jsmn_parse:00000000000000ae .L0 
/var/folders/rt/4gvqv631095f64jvm7jfj_000000gn/T//ccA8CvEa.s:182    .text.jsmn_parse:00000000000000ae .L0 
/var/folders/rt/4gvqv631095f64jvm7jfj_000000gn/T//ccA8CvEa.s:184    .text.jsmn_parse:00000000000000b2 .L0 
/var/folders/rt/4gvqv631095f64jvm7jfj_000000gn/T//ccA8CvEa.s:187    .text.jsmn_parse:00000000000000b6 .L0 
/var/folders/rt/4gvqv631095f64jvm7jfj_000000gn/T//ccA8CvEa.s:197    .text.jsmn_parse:00000000000000ca .L0 
/var/folders/rt/4gvqv631095f64jvm7jfj_000000gn/T//ccA8CvEa.s:199    .text.jsmn_parse:00000000000000ce .L0 
/var/folders/rt/4gvqv631095f64jvm7jfj_000000gn/T//ccA8CvEa.s:201    .text.jsmn_parse:00000000000000d2 .L0 
/var/folders/rt/4gvqv631095f64jvm7jfj_000000gn/T//ccA8CvEa.s:204    .text.jsmn_parse:00000000000000da .L0 
/var/folders/rt/4gvqv631095f64jvm7jfj_000000gn/T//ccA8CvEa.s:207    .text.jsmn_parse:00000000000000de .L0 
/var/folders/rt/4gvqv631095f64jvm7jfj_000000gn/T//ccA8CvEa.s:208    .text.jsmn_parse:00000000000000de .L0 
/var/folders/rt/4gvqv631095f64jvm7jfj_000000gn/T//ccA8CvEa.s:213    .text.jsmn_parse:00000000000000e2 .L0 
/var/folders/rt/4gvqv631095f64jvm7jfj_000000gn/T//ccA8CvEa.s:216    .text.jsmn_parse:00000000000000e2 .L0 
/var/folders/rt/4gvqv631095f64jvm7jfj_000000gn/T//ccA8CvEa.s:217    .text.jsmn_parse:00000000000000e2 .L0 
/var/folders/rt/4gvqv631095f64jvm7jfj_000000gn/T//ccA8CvEa.s:224    .text.jsmn_parse:00000000000000e6 .L0 
/var/folders/rt/4gvqv631095f64jvm7jfj_000000gn/T//ccA8CvEa.s:231    .text.jsmn_parse:00000000000000fa .L0 
/var/folders/rt/4gvqv631095f64jvm7jfj_000000gn/T//ccA8CvEa.s:232    .text.jsmn_parse:00000000000000fa .L0 
/var/folders/rt/4gvqv631095f64jvm7jfj_000000gn/T//ccA8CvEa.s:235    .text.jsmn_parse:00000000000000fc .L0 
/var/folders/rt/4gvqv631095f64jvm7jfj_000000gn/T//ccA8CvEa.s:236    .text.jsmn_parse:00000000000000fc .L0 
/var/folders/rt/4gvqv631095f64jvm7jfj_000000gn/T//ccA8CvEa.s:241    .text.jsmn_parse:00000000000000fe .L0 
/var/folders/rt/4gvqv631095f64jvm7jfj_000000gn/T//ccA8CvEa.s:242    .text.jsmn_parse:00000000000000fe .L0 
/var/folders/rt/4gvqv631095f64jvm7jfj_000000gn/T//ccA8CvEa.s:243    .text.jsmn_parse:00000000000000fe .L0 
/var/folders/rt/4gvqv631095f64jvm7jfj_000000gn/T//ccA8CvEa.s:244    .text.jsmn_parse:00000000000000fe .L0 
/var/folders/rt/4gvqv631095f64jvm7jfj_000000gn/T//ccA8CvEa.s:246    .text.jsmn_parse:0000000000000102 .L0 
/var/folders/rt/4gvqv631095f64jvm7jfj_000000gn/T//ccA8CvEa.s:248    .text.jsmn_parse:0000000000000106 .L0 
/var/folders/rt/4gvqv631095f64jvm7jfj_000000gn/T//ccA8CvEa.s:249    .text.jsmn_parse:0000000000000106 .L0 
/var/folders/rt/4gvqv631095f64jvm7jfj_000000gn/T//ccA8CvEa.s:254    .text.jsmn_parse:000000000000010e .L0 
/var/folders/rt/4gvqv631095f64jvm7jfj_000000gn/T//ccA8CvEa.s:258    .text.jsmn_parse:0000000000000110 .L0 
/var/folders/rt/4gvqv631095f64jvm7jfj_000000gn/T//ccA8CvEa.s:260    .text.jsmn_parse:0000000000000114 .L0 
/var/folders/rt/4gvqv631095f64jvm7jfj_000000gn/T//ccA8CvEa.s:263    .text.jsmn_parse:0000000000000116 .L0 
/var/folders/rt/4gvqv631095f64jvm7jfj_000000gn/T//ccA8CvEa.s:264    .text.jsmn_parse:0000000000000116 .L0 
/var/folders/rt/4gvqv631095f64jvm7jfj_000000gn/T//ccA8CvEa.s:266    .text.jsmn_parse:000000000000011a .L0 
/var/folders/rt/4gvqv631095f64jvm7jfj_000000gn/T//ccA8CvEa.s:268    .text.jsmn_parse:000000000000011e .L0 
/var/folders/rt/4gvqv631095f64jvm7jfj_000000gn/T//ccA8CvEa.s:269    .text.jsmn_parse:000000000000011e .L0 
/var/folders/rt/4gvqv631095f64jvm7jfj_000000gn/T//ccA8CvEa.s:274    .text.jsmn_parse:0000000000000122 .L0 
/var/folders/rt/4gvqv631095f64jvm7jfj_000000gn/T//ccA8CvEa.s:275    .text.jsmn_parse:0000000000000122 .L0 
/var/folders/rt/4gvqv631095f64jvm7jfj_000000gn/T//ccA8CvEa.s:276    .text.jsmn_parse:0000000000000122 .L0 
/var/folders/rt/4gvqv631095f64jvm7jfj_000000gn/T//ccA8CvEa.s:277    .text.jsmn_parse:0000000000000122 .L0 
/var/folders/rt/4gvqv631095f64jvm7jfj_000000gn/T//ccA8CvEa.s:280    .text.jsmn_parse:0000000000000126 .L0 
/var/folders/rt/4gvqv631095f64jvm7jfj_000000gn/T//ccA8CvEa.s:281    .text.jsmn_parse:0000000000000126 .L0 
/var/folders/rt/4gvqv631095f64jvm7jfj_000000gn/T//ccA8CvEa.s:283    .text.jsmn_parse:0000000000000128 .L0 
/var/folders/rt/4gvqv631095f64jvm7jfj_000000gn/T//ccA8CvEa.s:286    .text.jsmn_parse:000000000000012a .L0 
/var/folders/rt/4gvqv631095f64jvm7jfj_000000gn/T//ccA8CvEa.s:287    .text.jsmn_parse:000000000000012a .L0 
/var/folders/rt/4gvqv631095f64jvm7jfj_000000gn/T//ccA8CvEa.s:294    .text.jsmn_parse:0000000000000134 .L0 
/var/folders/rt/4gvqv631095f64jvm7jfj_000000gn/T//ccA8CvEa.s:295    .text.jsmn_parse:0000000000000134 .L0 
/var/folders/rt/4gvqv631095f64jvm7jfj_000000gn/T//ccA8CvEa.s:301    .text.jsmn_parse:0000000000000140 .L0 
/var/folders/rt/4gvqv631095f64jvm7jfj_000000gn/T//ccA8CvEa.s:303    .text.jsmn_parse:0000000000000144 .L0 
GAS LISTING /var/folders/rt/4gvqv631095f64jvm7jfj_000000gn/T//ccA8CvEa.s 			page 57


/var/folders/rt/4gvqv631095f64jvm7jfj_000000gn/T//ccA8CvEa.s:304    .text.jsmn_parse:0000000000000144 .L0 
/var/folders/rt/4gvqv631095f64jvm7jfj_000000gn/T//ccA8CvEa.s:306    .text.jsmn_parse:0000000000000148 .L0 
/var/folders/rt/4gvqv631095f64jvm7jfj_000000gn/T//ccA8CvEa.s:307    .text.jsmn_parse:0000000000000148 .L0 
/var/folders/rt/4gvqv631095f64jvm7jfj_000000gn/T//ccA8CvEa.s:312    .text.jsmn_parse:000000000000014c .L0 
/var/folders/rt/4gvqv631095f64jvm7jfj_000000gn/T//ccA8CvEa.s:313    .text.jsmn_parse:000000000000014c .L0 
/var/folders/rt/4gvqv631095f64jvm7jfj_000000gn/T//ccA8CvEa.s:321    .text.jsmn_parse:0000000000000158 .L0 
/var/folders/rt/4gvqv631095f64jvm7jfj_000000gn/T//ccA8CvEa.s:326    .text.jsmn_parse:0000000000000164 .L0 
/var/folders/rt/4gvqv631095f64jvm7jfj_000000gn/T//ccA8CvEa.s:327    .text.jsmn_parse:0000000000000164 .L0 
/var/folders/rt/4gvqv631095f64jvm7jfj_000000gn/T//ccA8CvEa.s:329    .text.jsmn_parse:0000000000000166 .L0 
/var/folders/rt/4gvqv631095f64jvm7jfj_000000gn/T//ccA8CvEa.s:330    .text.jsmn_parse:0000000000000166 .L0 
/var/folders/rt/4gvqv631095f64jvm7jfj_000000gn/T//ccA8CvEa.s:336    .text.jsmn_parse:000000000000016e .L0 
/var/folders/rt/4gvqv631095f64jvm7jfj_000000gn/T//ccA8CvEa.s:337    .text.jsmn_parse:000000000000016e .L0 
/var/folders/rt/4gvqv631095f64jvm7jfj_000000gn/T//ccA8CvEa.s:339    .text.jsmn_parse:0000000000000172 .L0 
/var/folders/rt/4gvqv631095f64jvm7jfj_000000gn/T//ccA8CvEa.s:345    .text.jsmn_parse:000000000000017a .L0 
/var/folders/rt/4gvqv631095f64jvm7jfj_000000gn/T//ccA8CvEa.s:347    .text.jsmn_parse:000000000000017e .L0 
/var/folders/rt/4gvqv631095f64jvm7jfj_000000gn/T//ccA8CvEa.s:348    .text.jsmn_parse:000000000000017e .L0 
/var/folders/rt/4gvqv631095f64jvm7jfj_000000gn/T//ccA8CvEa.s:352    .text.jsmn_parse:0000000000000182 .L0 
/var/folders/rt/4gvqv631095f64jvm7jfj_000000gn/T//ccA8CvEa.s:358    .text.jsmn_parse:0000000000000186 .L0 
/var/folders/rt/4gvqv631095f64jvm7jfj_000000gn/T//ccA8CvEa.s:359    .text.jsmn_parse:0000000000000186 .L0 
/var/folders/rt/4gvqv631095f64jvm7jfj_000000gn/T//ccA8CvEa.s:363    .text.jsmn_parse:000000000000018e .L0 
/var/folders/rt/4gvqv631095f64jvm7jfj_000000gn/T//ccA8CvEa.s:364    .text.jsmn_parse:000000000000018e .L0 
/var/folders/rt/4gvqv631095f64jvm7jfj_000000gn/T//ccA8CvEa.s:366    .text.jsmn_parse:0000000000000192 .L0 
/var/folders/rt/4gvqv631095f64jvm7jfj_000000gn/T//ccA8CvEa.s:369    .text.jsmn_parse:000000000000019a .L0 
/var/folders/rt/4gvqv631095f64jvm7jfj_000000gn/T//ccA8CvEa.s:370    .text.jsmn_parse:000000000000019a .L0 
/var/folders/rt/4gvqv631095f64jvm7jfj_000000gn/T//ccA8CvEa.s:373    .text.jsmn_parse:00000000000001a2 .L0 
/var/folders/rt/4gvqv631095f64jvm7jfj_000000gn/T//ccA8CvEa.s:374    .text.jsmn_parse:00000000000001a2 .L0 
/var/folders/rt/4gvqv631095f64jvm7jfj_000000gn/T//ccA8CvEa.s:376    .text.jsmn_parse:00000000000001a4 .L0 
/var/folders/rt/4gvqv631095f64jvm7jfj_000000gn/T//ccA8CvEa.s:378    .text.jsmn_parse:00000000000001a8 .L0 
/var/folders/rt/4gvqv631095f64jvm7jfj_000000gn/T//ccA8CvEa.s:379    .text.jsmn_parse:00000000000001a8 .L0 
/var/folders/rt/4gvqv631095f64jvm7jfj_000000gn/T//ccA8CvEa.s:381    .text.jsmn_parse:00000000000001ac .L0 
/var/folders/rt/4gvqv631095f64jvm7jfj_000000gn/T//ccA8CvEa.s:382    .text.jsmn_parse:00000000000001ac .L0 
/var/folders/rt/4gvqv631095f64jvm7jfj_000000gn/T//ccA8CvEa.s:387    .text.jsmn_parse:00000000000001b2 .L0 
/var/folders/rt/4gvqv631095f64jvm7jfj_000000gn/T//ccA8CvEa.s:388    .text.jsmn_parse:00000000000001b2 .L0 
/var/folders/rt/4gvqv631095f64jvm7jfj_000000gn/T//ccA8CvEa.s:389    .text.jsmn_parse:00000000000001b2 .L0 
/var/folders/rt/4gvqv631095f64jvm7jfj_000000gn/T//ccA8CvEa.s:392    .text.jsmn_parse:00000000000001ba .L0 
/var/folders/rt/4gvqv631095f64jvm7jfj_000000gn/T//ccA8CvEa.s:397    .text.jsmn_parse:00000000000001c2 .L0 
/var/folders/rt/4gvqv631095f64jvm7jfj_000000gn/T//ccA8CvEa.s:398    .text.jsmn_parse:00000000000001c2 .L0 
/var/folders/rt/4gvqv631095f64jvm7jfj_000000gn/T//ccA8CvEa.s:400    .text.jsmn_parse:00000000000001c6 .L0 
/var/folders/rt/4gvqv631095f64jvm7jfj_000000gn/T//ccA8CvEa.s:404    .text.jsmn_parse:00000000000001c8 .L0 
/var/folders/rt/4gvqv631095f64jvm7jfj_000000gn/T//ccA8CvEa.s:411    .text.jsmn_parse:00000000000001ce .L0 
/var/folders/rt/4gvqv631095f64jvm7jfj_000000gn/T//ccA8CvEa.s:416    .text.jsmn_parse:00000000000001d2 .L0 
/var/folders/rt/4gvqv631095f64jvm7jfj_000000gn/T//ccA8CvEa.s:424    .text.jsmn_parse:00000000000001d8 .L0 
/var/folders/rt/4gvqv631095f64jvm7jfj_000000gn/T//ccA8CvEa.s:425    .text.jsmn_parse:00000000000001d8 .L0 
/var/folders/rt/4gvqv631095f64jvm7jfj_000000gn/T//ccA8CvEa.s:426    .text.jsmn_parse:00000000000001d8 .L0 
/var/folders/rt/4gvqv631095f64jvm7jfj_000000gn/T//ccA8CvEa.s:428    .text.jsmn_parse:00000000000001dc .L0 
/var/folders/rt/4gvqv631095f64jvm7jfj_000000gn/T//ccA8CvEa.s:429    .text.jsmn_parse:00000000000001dc .L0 
/var/folders/rt/4gvqv631095f64jvm7jfj_000000gn/T//ccA8CvEa.s:434    .text.jsmn_parse:00000000000001de .L0 
/var/folders/rt/4gvqv631095f64jvm7jfj_000000gn/T//ccA8CvEa.s:435    .text.jsmn_parse:00000000000001de .L0 
/var/folders/rt/4gvqv631095f64jvm7jfj_000000gn/T//ccA8CvEa.s:436    .text.jsmn_parse:00000000000001de .L0 
/var/folders/rt/4gvqv631095f64jvm7jfj_000000gn/T//ccA8CvEa.s:437    .text.jsmn_parse:00000000000001de .L0 
/var/folders/rt/4gvqv631095f64jvm7jfj_000000gn/T//ccA8CvEa.s:440    .text.jsmn_parse:00000000000001e2 .L0 
/var/folders/rt/4gvqv631095f64jvm7jfj_000000gn/T//ccA8CvEa.s:451    .text.jsmn_parse:00000000000001e6 .L0 
/var/folders/rt/4gvqv631095f64jvm7jfj_000000gn/T//ccA8CvEa.s:452    .text.jsmn_parse:00000000000001e6 .L0 
/var/folders/rt/4gvqv631095f64jvm7jfj_000000gn/T//ccA8CvEa.s:453    .text.jsmn_parse:00000000000001e6 .L0 
/var/folders/rt/4gvqv631095f64jvm7jfj_000000gn/T//ccA8CvEa.s:458    .text.jsmn_parse:00000000000001ea .L0 
/var/folders/rt/4gvqv631095f64jvm7jfj_000000gn/T//ccA8CvEa.s:460    .text.jsmn_parse:00000000000001ea .L0 
/var/folders/rt/4gvqv631095f64jvm7jfj_000000gn/T//ccA8CvEa.s:461    .text.jsmn_parse:00000000000001ea .L0 
GAS LISTING /var/folders/rt/4gvqv631095f64jvm7jfj_000000gn/T//ccA8CvEa.s 			page 58


/var/folders/rt/4gvqv631095f64jvm7jfj_000000gn/T//ccA8CvEa.s:472    .text.jsmn_parse:00000000000001ee .L0 
/var/folders/rt/4gvqv631095f64jvm7jfj_000000gn/T//ccA8CvEa.s:473    .text.jsmn_parse:00000000000001ee .L0 
/var/folders/rt/4gvqv631095f64jvm7jfj_000000gn/T//ccA8CvEa.s:477    .text.jsmn_parse:00000000000001f6 .L0 
/var/folders/rt/4gvqv631095f64jvm7jfj_000000gn/T//ccA8CvEa.s:479    .text.jsmn_parse:00000000000001fa .L0 
/var/folders/rt/4gvqv631095f64jvm7jfj_000000gn/T//ccA8CvEa.s:482    .text.jsmn_parse:00000000000001fc .L0 
/var/folders/rt/4gvqv631095f64jvm7jfj_000000gn/T//ccA8CvEa.s:483    .text.jsmn_parse:00000000000001fc .L0 
/var/folders/rt/4gvqv631095f64jvm7jfj_000000gn/T//ccA8CvEa.s:486    .text.jsmn_parse:00000000000001fc .L0 
/var/folders/rt/4gvqv631095f64jvm7jfj_000000gn/T//ccA8CvEa.s:487    .text.jsmn_parse:00000000000001fc .L0 
/var/folders/rt/4gvqv631095f64jvm7jfj_000000gn/T//ccA8CvEa.s:490    .text.jsmn_parse:00000000000001fc .L0 
/var/folders/rt/4gvqv631095f64jvm7jfj_000000gn/T//ccA8CvEa.s:491    .text.jsmn_parse:00000000000001fc .L0 
/var/folders/rt/4gvqv631095f64jvm7jfj_000000gn/T//ccA8CvEa.s:492    .text.jsmn_parse:00000000000001fc .L0 
/var/folders/rt/4gvqv631095f64jvm7jfj_000000gn/T//ccA8CvEa.s:495    .text.jsmn_parse:0000000000000202 .L0 
/var/folders/rt/4gvqv631095f64jvm7jfj_000000gn/T//ccA8CvEa.s:496    .text.jsmn_parse:0000000000000202 .L0 
/var/folders/rt/4gvqv631095f64jvm7jfj_000000gn/T//ccA8CvEa.s:498    .text.jsmn_parse:0000000000000206 .L0 
/var/folders/rt/4gvqv631095f64jvm7jfj_000000gn/T//ccA8CvEa.s:499    .text.jsmn_parse:0000000000000206 .L0 
/var/folders/rt/4gvqv631095f64jvm7jfj_000000gn/T//ccA8CvEa.s:501    .text.jsmn_parse:000000000000020a .L0 
/var/folders/rt/4gvqv631095f64jvm7jfj_000000gn/T//ccA8CvEa.s:502    .text.jsmn_parse:000000000000020a .L0 
/var/folders/rt/4gvqv631095f64jvm7jfj_000000gn/T//ccA8CvEa.s:510    .text.jsmn_parse:000000000000020e .L0 
/var/folders/rt/4gvqv631095f64jvm7jfj_000000gn/T//ccA8CvEa.s:514    .text.jsmn_parse:000000000000020e .L0 
/var/folders/rt/4gvqv631095f64jvm7jfj_000000gn/T//ccA8CvEa.s:517    .text.jsmn_parse:000000000000020e .L0 
/var/folders/rt/4gvqv631095f64jvm7jfj_000000gn/T//ccA8CvEa.s:518    .text.jsmn_parse:000000000000020e .L0 
/var/folders/rt/4gvqv631095f64jvm7jfj_000000gn/T//ccA8CvEa.s:519    .text.jsmn_parse:000000000000020e .L0 
/var/folders/rt/4gvqv631095f64jvm7jfj_000000gn/T//ccA8CvEa.s:520    .text.jsmn_parse:000000000000020e .L0 
/var/folders/rt/4gvqv631095f64jvm7jfj_000000gn/T//ccA8CvEa.s:522    .text.jsmn_parse:0000000000000212 .L0 
/var/folders/rt/4gvqv631095f64jvm7jfj_000000gn/T//ccA8CvEa.s:525    .text.jsmn_parse:0000000000000214 .L0 
/var/folders/rt/4gvqv631095f64jvm7jfj_000000gn/T//ccA8CvEa.s:526    .text.jsmn_parse:0000000000000214 .L0 
/var/folders/rt/4gvqv631095f64jvm7jfj_000000gn/T//ccA8CvEa.s:528    .text.jsmn_parse:0000000000000218 .L0 
/var/folders/rt/4gvqv631095f64jvm7jfj_000000gn/T//ccA8CvEa.s:530    .text.jsmn_parse:000000000000021a .L0 
/var/folders/rt/4gvqv631095f64jvm7jfj_000000gn/T//ccA8CvEa.s:531    .text.jsmn_parse:000000000000021a .L0 
/var/folders/rt/4gvqv631095f64jvm7jfj_000000gn/T//ccA8CvEa.s:534    .text.jsmn_parse:000000000000021e .L0 
/var/folders/rt/4gvqv631095f64jvm7jfj_000000gn/T//ccA8CvEa.s:544    .text.jsmn_parse:000000000000022a .L0 
/var/folders/rt/4gvqv631095f64jvm7jfj_000000gn/T//ccA8CvEa.s:545    .text.jsmn_parse:000000000000022a .L0 
/var/folders/rt/4gvqv631095f64jvm7jfj_000000gn/T//ccA8CvEa.s:549    .text.jsmn_parse:0000000000000232 .L0 
/var/folders/rt/4gvqv631095f64jvm7jfj_000000gn/T//ccA8CvEa.s:552    .text.jsmn_parse:0000000000000236 .L0 
/var/folders/rt/4gvqv631095f64jvm7jfj_000000gn/T//ccA8CvEa.s:553    .text.jsmn_parse:0000000000000236 .L0 
/var/folders/rt/4gvqv631095f64jvm7jfj_000000gn/T//ccA8CvEa.s:554    .text.jsmn_parse:0000000000000236 .L0 
/var/folders/rt/4gvqv631095f64jvm7jfj_000000gn/T//ccA8CvEa.s:556    .text.jsmn_parse:000000000000023a .L0 
/var/folders/rt/4gvqv631095f64jvm7jfj_000000gn/T//ccA8CvEa.s:557    .text.jsmn_parse:000000000000023a .L0 
/var/folders/rt/4gvqv631095f64jvm7jfj_000000gn/T//ccA8CvEa.s:560    .text.jsmn_parse:0000000000000240 .L0 
/var/folders/rt/4gvqv631095f64jvm7jfj_000000gn/T//ccA8CvEa.s:569    .text.jsmn_parse:0000000000000254 .L0 
/var/folders/rt/4gvqv631095f64jvm7jfj_000000gn/T//ccA8CvEa.s:577    .text.jsmn_parse:0000000000000260 .L0 
/var/folders/rt/4gvqv631095f64jvm7jfj_000000gn/T//ccA8CvEa.s:588    .text.jsmn_parse:0000000000000268 .L0 
/var/folders/rt/4gvqv631095f64jvm7jfj_000000gn/T//ccA8CvEa.s:589    .text.jsmn_parse:0000000000000268 .L0 
/var/folders/rt/4gvqv631095f64jvm7jfj_000000gn/T//ccA8CvEa.s:594    .text.jsmn_parse:000000000000026c .L0 
/var/folders/rt/4gvqv631095f64jvm7jfj_000000gn/T//ccA8CvEa.s:595    .text.jsmn_parse:000000000000026c .L0 
/var/folders/rt/4gvqv631095f64jvm7jfj_000000gn/T//ccA8CvEa.s:603    .text.jsmn_parse:000000000000026e .L0 
/var/folders/rt/4gvqv631095f64jvm7jfj_000000gn/T//ccA8CvEa.s:613    .text.jsmn_parse:000000000000028c .L0 
/var/folders/rt/4gvqv631095f64jvm7jfj_000000gn/T//ccA8CvEa.s:614    .text.jsmn_parse:000000000000028c .L0 
/var/folders/rt/4gvqv631095f64jvm7jfj_000000gn/T//ccA8CvEa.s:618    .text.jsmn_parse:0000000000000292 .L0 
/var/folders/rt/4gvqv631095f64jvm7jfj_000000gn/T//ccA8CvEa.s:619    .text.jsmn_parse:0000000000000292 .L0 
/var/folders/rt/4gvqv631095f64jvm7jfj_000000gn/T//ccA8CvEa.s:623    .text.jsmn_parse:0000000000000294 .L0 
/var/folders/rt/4gvqv631095f64jvm7jfj_000000gn/T//ccA8CvEa.s:625    .text.jsmn_parse:0000000000000298 .L0 
/var/folders/rt/4gvqv631095f64jvm7jfj_000000gn/T//ccA8CvEa.s:627    .text.jsmn_parse:000000000000029c .L0 
/var/folders/rt/4gvqv631095f64jvm7jfj_000000gn/T//ccA8CvEa.s:630    .text.jsmn_parse:00000000000002a4 .L0 
/var/folders/rt/4gvqv631095f64jvm7jfj_000000gn/T//ccA8CvEa.s:632    .text.jsmn_parse:00000000000002a8 .L0 
/var/folders/rt/4gvqv631095f64jvm7jfj_000000gn/T//ccA8CvEa.s:633    .text.jsmn_parse:00000000000002a8 .L0 
/var/folders/rt/4gvqv631095f64jvm7jfj_000000gn/T//ccA8CvEa.s:635    .text.jsmn_parse:00000000000002ac .L0 
GAS LISTING /var/folders/rt/4gvqv631095f64jvm7jfj_000000gn/T//ccA8CvEa.s 			page 59


/var/folders/rt/4gvqv631095f64jvm7jfj_000000gn/T//ccA8CvEa.s:638    .text.jsmn_parse:00000000000002b4 .L0 
/var/folders/rt/4gvqv631095f64jvm7jfj_000000gn/T//ccA8CvEa.s:645    .text.jsmn_parse:00000000000002c6 .L0 
/var/folders/rt/4gvqv631095f64jvm7jfj_000000gn/T//ccA8CvEa.s:646    .text.jsmn_parse:00000000000002c6 .L0 
/var/folders/rt/4gvqv631095f64jvm7jfj_000000gn/T//ccA8CvEa.s:652    .text.jsmn_parse:00000000000002ce .L0 
/var/folders/rt/4gvqv631095f64jvm7jfj_000000gn/T//ccA8CvEa.s:656    .text.jsmn_parse:00000000000002d0 .L0 
/var/folders/rt/4gvqv631095f64jvm7jfj_000000gn/T//ccA8CvEa.s:657    .text.jsmn_parse:00000000000002d0 .L0 
/var/folders/rt/4gvqv631095f64jvm7jfj_000000gn/T//ccA8CvEa.s:661    .text.jsmn_parse:00000000000002da .L0 
/var/folders/rt/4gvqv631095f64jvm7jfj_000000gn/T//ccA8CvEa.s:669    .text.jsmn_parse:00000000000002dc .L0 
/var/folders/rt/4gvqv631095f64jvm7jfj_000000gn/T//ccA8CvEa.s:670    .text.jsmn_parse:00000000000002dc .L0 
/var/folders/rt/4gvqv631095f64jvm7jfj_000000gn/T//ccA8CvEa.s:673    .text.jsmn_parse:00000000000002e2 .L0 
/var/folders/rt/4gvqv631095f64jvm7jfj_000000gn/T//ccA8CvEa.s:675    .text.jsmn_parse:00000000000002e6 .L0 
/var/folders/rt/4gvqv631095f64jvm7jfj_000000gn/T//ccA8CvEa.s:678    .text.jsmn_parse:00000000000002e8 .L0 
/var/folders/rt/4gvqv631095f64jvm7jfj_000000gn/T//ccA8CvEa.s:679    .text.jsmn_parse:00000000000002e8 .L0 
/var/folders/rt/4gvqv631095f64jvm7jfj_000000gn/T//ccA8CvEa.s:681    .text.jsmn_parse:00000000000002ec .L0 
/var/folders/rt/4gvqv631095f64jvm7jfj_000000gn/T//ccA8CvEa.s:683    .text.jsmn_parse:00000000000002f0 .L0 
/var/folders/rt/4gvqv631095f64jvm7jfj_000000gn/T//ccA8CvEa.s:685    .text.jsmn_parse:00000000000002f4 .L0 
/var/folders/rt/4gvqv631095f64jvm7jfj_000000gn/T//ccA8CvEa.s:688    .text.jsmn_parse:00000000000002f8 .L0 
/var/folders/rt/4gvqv631095f64jvm7jfj_000000gn/T//ccA8CvEa.s:692    .text.jsmn_parse:0000000000000302 .L0 
/var/folders/rt/4gvqv631095f64jvm7jfj_000000gn/T//ccA8CvEa.s:693    .text.jsmn_parse:0000000000000302 .L0 
/var/folders/rt/4gvqv631095f64jvm7jfj_000000gn/T//ccA8CvEa.s:695    .text.jsmn_parse:0000000000000306 .L0 
/var/folders/rt/4gvqv631095f64jvm7jfj_000000gn/T//ccA8CvEa.s:701    .text.jsmn_parse:000000000000030e .L0 
/var/folders/rt/4gvqv631095f64jvm7jfj_000000gn/T//ccA8CvEa.s:703    .text.jsmn_parse:0000000000000312 .L0 
/var/folders/rt/4gvqv631095f64jvm7jfj_000000gn/T//ccA8CvEa.s:704    .text.jsmn_parse:0000000000000312 .L0 
/var/folders/rt/4gvqv631095f64jvm7jfj_000000gn/T//ccA8CvEa.s:707    .text.jsmn_parse:0000000000000318 .L0 
/var/folders/rt/4gvqv631095f64jvm7jfj_000000gn/T//ccA8CvEa.s:709    .text.jsmn_parse:000000000000031c .L0 
/var/folders/rt/4gvqv631095f64jvm7jfj_000000gn/T//ccA8CvEa.s:710    .text.jsmn_parse:000000000000031c .L0 
/var/folders/rt/4gvqv631095f64jvm7jfj_000000gn/T//ccA8CvEa.s:713    .text.jsmn_parse:0000000000000324 .L0 
/var/folders/rt/4gvqv631095f64jvm7jfj_000000gn/T//ccA8CvEa.s:717    .text.jsmn_parse:000000000000032c .L0 
/var/folders/rt/4gvqv631095f64jvm7jfj_000000gn/T//ccA8CvEa.s:726    .text.jsmn_parse:0000000000000332 .L0 
/var/folders/rt/4gvqv631095f64jvm7jfj_000000gn/T//ccA8CvEa.s:731    .text.jsmn_parse:000000000000033e .L0 
/var/folders/rt/4gvqv631095f64jvm7jfj_000000gn/T//ccA8CvEa.s:732    .text.jsmn_parse:000000000000033e .L0 
/var/folders/rt/4gvqv631095f64jvm7jfj_000000gn/T//ccA8CvEa.s:733    .text.jsmn_parse:000000000000033e .L0 
/var/folders/rt/4gvqv631095f64jvm7jfj_000000gn/T//ccA8CvEa.s:735    .text.jsmn_parse:0000000000000340 .L0 
/var/folders/rt/4gvqv631095f64jvm7jfj_000000gn/T//ccA8CvEa.s:739    .text.jsmn_parse:000000000000034c .L0 
/var/folders/rt/4gvqv631095f64jvm7jfj_000000gn/T//ccA8CvEa.s:743    .text.jsmn_parse:0000000000000352 .L0 
/var/folders/rt/4gvqv631095f64jvm7jfj_000000gn/T//ccA8CvEa.s:745    .text.jsmn_parse:0000000000000356 .L0 
/var/folders/rt/4gvqv631095f64jvm7jfj_000000gn/T//ccA8CvEa.s:747    .text.jsmn_parse:000000000000035a .L0 
/var/folders/rt/4gvqv631095f64jvm7jfj_000000gn/T//ccA8CvEa.s:750    .text.jsmn_parse:0000000000000362 .L0 
/var/folders/rt/4gvqv631095f64jvm7jfj_000000gn/T//ccA8CvEa.s:752    .text.jsmn_parse:0000000000000366 .L0 
/var/folders/rt/4gvqv631095f64jvm7jfj_000000gn/T//ccA8CvEa.s:760    .text.jsmn_parse:000000000000037c .L0 
/var/folders/rt/4gvqv631095f64jvm7jfj_000000gn/T//ccA8CvEa.s:761    .text.jsmn_parse:000000000000037c .L0 
/var/folders/rt/4gvqv631095f64jvm7jfj_000000gn/T//ccA8CvEa.s:764    .text.jsmn_parse:000000000000037e .L0 
/var/folders/rt/4gvqv631095f64jvm7jfj_000000gn/T//ccA8CvEa.s:765    .text.jsmn_parse:000000000000037e .L0 
/var/folders/rt/4gvqv631095f64jvm7jfj_000000gn/T//ccA8CvEa.s:770    .text.jsmn_parse:0000000000000386 .L0 
/var/folders/rt/4gvqv631095f64jvm7jfj_000000gn/T//ccA8CvEa.s:778    .text.jsmn_parse:0000000000000390 .L0 
/var/folders/rt/4gvqv631095f64jvm7jfj_000000gn/T//ccA8CvEa.s:779    .text.jsmn_parse:0000000000000390 .L0 
/var/folders/rt/4gvqv631095f64jvm7jfj_000000gn/T//ccA8CvEa.s:780    .text.jsmn_parse:0000000000000390 .L0 
/var/folders/rt/4gvqv631095f64jvm7jfj_000000gn/T//ccA8CvEa.s:781    .text.jsmn_parse:0000000000000390 .L0 
/var/folders/rt/4gvqv631095f64jvm7jfj_000000gn/T//ccA8CvEa.s:783    .text.jsmn_parse:0000000000000394 .L0 
/var/folders/rt/4gvqv631095f64jvm7jfj_000000gn/T//ccA8CvEa.s:785    .text.jsmn_parse:0000000000000398 .L0 
/var/folders/rt/4gvqv631095f64jvm7jfj_000000gn/T//ccA8CvEa.s:786    .text.jsmn_parse:0000000000000398 .L0 
/var/folders/rt/4gvqv631095f64jvm7jfj_000000gn/T//ccA8CvEa.s:788    .text.jsmn_parse:000000000000039c .L0 
/var/folders/rt/4gvqv631095f64jvm7jfj_000000gn/T//ccA8CvEa.s:790    .text.jsmn_parse:000000000000039e .L0 
/var/folders/rt/4gvqv631095f64jvm7jfj_000000gn/T//ccA8CvEa.s:792    .text.jsmn_parse:00000000000003a0 .L0 
/var/folders/rt/4gvqv631095f64jvm7jfj_000000gn/T//ccA8CvEa.s:795    .text.jsmn_parse:00000000000003a2 .L0 
/var/folders/rt/4gvqv631095f64jvm7jfj_000000gn/T//ccA8CvEa.s:796    .text.jsmn_parse:00000000000003a2 .L0 
/var/folders/rt/4gvqv631095f64jvm7jfj_000000gn/T//ccA8CvEa.s:799    .text.jsmn_parse:00000000000003a2 .L0 
GAS LISTING /var/folders/rt/4gvqv631095f64jvm7jfj_000000gn/T//ccA8CvEa.s 			page 60


/var/folders/rt/4gvqv631095f64jvm7jfj_000000gn/T//ccA8CvEa.s:800    .text.jsmn_parse:00000000000003a2 .L0 
/var/folders/rt/4gvqv631095f64jvm7jfj_000000gn/T//ccA8CvEa.s:803    .text.jsmn_parse:00000000000003a2 .L0 
/var/folders/rt/4gvqv631095f64jvm7jfj_000000gn/T//ccA8CvEa.s:804    .text.jsmn_parse:00000000000003a2 .L0 
/var/folders/rt/4gvqv631095f64jvm7jfj_000000gn/T//ccA8CvEa.s:805    .text.jsmn_parse:00000000000003a2 .L0 
/var/folders/rt/4gvqv631095f64jvm7jfj_000000gn/T//ccA8CvEa.s:808    .text.jsmn_parse:00000000000003a8 .L0 
/var/folders/rt/4gvqv631095f64jvm7jfj_000000gn/T//ccA8CvEa.s:809    .text.jsmn_parse:00000000000003a8 .L0 
/var/folders/rt/4gvqv631095f64jvm7jfj_000000gn/T//ccA8CvEa.s:811    .text.jsmn_parse:00000000000003ac .L0 
/var/folders/rt/4gvqv631095f64jvm7jfj_000000gn/T//ccA8CvEa.s:812    .text.jsmn_parse:00000000000003ac .L0 
/var/folders/rt/4gvqv631095f64jvm7jfj_000000gn/T//ccA8CvEa.s:814    .text.jsmn_parse:00000000000003b0 .L0 
/var/folders/rt/4gvqv631095f64jvm7jfj_000000gn/T//ccA8CvEa.s:815    .text.jsmn_parse:00000000000003b0 .L0 
/var/folders/rt/4gvqv631095f64jvm7jfj_000000gn/T//ccA8CvEa.s:825    .text.jsmn_parse:00000000000003b6 .L0 
/var/folders/rt/4gvqv631095f64jvm7jfj_000000gn/T//ccA8CvEa.s:826    .text.jsmn_parse:00000000000003b6 .L0 
/var/folders/rt/4gvqv631095f64jvm7jfj_000000gn/T//ccA8CvEa.s:829    .text.jsmn_parse:00000000000003be .L0 
/var/folders/rt/4gvqv631095f64jvm7jfj_000000gn/T//ccA8CvEa.s:833    .text.jsmn_parse:00000000000003c6 .L0 
/var/folders/rt/4gvqv631095f64jvm7jfj_000000gn/T//ccA8CvEa.s:837    .text.jsmn_parse:00000000000003cc .L0 
/var/folders/rt/4gvqv631095f64jvm7jfj_000000gn/T//ccA8CvEa.s:844    .text.jsmn_init:0000000000000000 jsmn_init
/var/folders/rt/4gvqv631095f64jvm7jfj_000000gn/T//ccA8CvEa.s:847    .text.jsmn_init:0000000000000000 .L0 
/var/folders/rt/4gvqv631095f64jvm7jfj_000000gn/T//ccA8CvEa.s:849    .text.jsmn_init:0000000000000000 .L0 
/var/folders/rt/4gvqv631095f64jvm7jfj_000000gn/T//ccA8CvEa.s:850    .text.jsmn_init:0000000000000000 .L0 
/var/folders/rt/4gvqv631095f64jvm7jfj_000000gn/T//ccA8CvEa.s:851    .text.jsmn_init:0000000000000000 .L0 
/var/folders/rt/4gvqv631095f64jvm7jfj_000000gn/T//ccA8CvEa.s:853    .text.jsmn_init:0000000000000002 .L0 
/var/folders/rt/4gvqv631095f64jvm7jfj_000000gn/T//ccA8CvEa.s:855    .text.jsmn_init:0000000000000006 .L0 
/var/folders/rt/4gvqv631095f64jvm7jfj_000000gn/T//ccA8CvEa.s:856    .text.jsmn_init:0000000000000006 .L0 
/var/folders/rt/4gvqv631095f64jvm7jfj_000000gn/T//ccA8CvEa.s:858    .text.jsmn_init:000000000000000a .L0 
/var/folders/rt/4gvqv631095f64jvm7jfj_000000gn/T//ccA8CvEa.s:859    .text.jsmn_init:000000000000000a .L0 
/var/folders/rt/4gvqv631095f64jvm7jfj_000000gn/T//ccA8CvEa.s:861    .text.jsmn_init:000000000000000c .L0 
/var/folders/rt/4gvqv631095f64jvm7jfj_000000gn/T//ccA8CvEa.s:862    .text.jsmn_init:000000000000000e .L0 
/var/folders/rt/4gvqv631095f64jvm7jfj_000000gn/T//ccA8CvEa.s:869    .text.renderAllPlants:0000000000000000 renderAllPlants
/var/folders/rt/4gvqv631095f64jvm7jfj_000000gn/T//ccA8CvEa.s:873    .text.renderAllPlants:0000000000000000 .L0 
/var/folders/rt/4gvqv631095f64jvm7jfj_000000gn/T//ccA8CvEa.s:875    .text.renderAllPlants:0000000000000000 .L0 
/var/folders/rt/4gvqv631095f64jvm7jfj_000000gn/T//ccA8CvEa.s:877    .text.renderAllPlants:0000000000000000 .L0 
/var/folders/rt/4gvqv631095f64jvm7jfj_000000gn/T//ccA8CvEa.s:879    .text.renderAllPlants:0000000000000000 .L0 
/var/folders/rt/4gvqv631095f64jvm7jfj_000000gn/T//ccA8CvEa.s:880    .text.renderAllPlants:0000000000000000 .L0 
/var/folders/rt/4gvqv631095f64jvm7jfj_000000gn/T//ccA8CvEa.s:882    .text.renderAllPlants:0000000000000002 .L0 
/var/folders/rt/4gvqv631095f64jvm7jfj_000000gn/T//ccA8CvEa.s:884    .text.renderAllPlants:0000000000000004 .L0 
/var/folders/rt/4gvqv631095f64jvm7jfj_000000gn/T//ccA8CvEa.s:887    .text.renderAllPlants:0000000000000004 .L0 
/var/folders/rt/4gvqv631095f64jvm7jfj_000000gn/T//ccA8CvEa.s:890    .text.renderAllPlants:0000000000000006 .L0 
/var/folders/rt/4gvqv631095f64jvm7jfj_000000gn/T//ccA8CvEa.s:898    .text.renderAllPlants:0000000000000016 .L0 
/var/folders/rt/4gvqv631095f64jvm7jfj_000000gn/T//ccA8CvEa.s:899    .text.renderAllPlants:0000000000000016 .L0 
/var/folders/rt/4gvqv631095f64jvm7jfj_000000gn/T//ccA8CvEa.s:900    .text.renderAllPlants:0000000000000016 .L0 
/var/folders/rt/4gvqv631095f64jvm7jfj_000000gn/T//ccA8CvEa.s:901    .text.renderAllPlants:0000000000000016 .L0 
/var/folders/rt/4gvqv631095f64jvm7jfj_000000gn/T//ccA8CvEa.s:902    .text.renderAllPlants:0000000000000016 .L0 
/var/folders/rt/4gvqv631095f64jvm7jfj_000000gn/T//ccA8CvEa.s:903    .text.renderAllPlants:0000000000000016 .L0 
/var/folders/rt/4gvqv631095f64jvm7jfj_000000gn/T//ccA8CvEa.s:904    .text.renderAllPlants:0000000000000016 .L0 
/var/folders/rt/4gvqv631095f64jvm7jfj_000000gn/T//ccA8CvEa.s:905    .text.renderAllPlants:0000000000000016 .L0 
/var/folders/rt/4gvqv631095f64jvm7jfj_000000gn/T//ccA8CvEa.s:907    .text.renderAllPlants:0000000000000016 .L0 
/var/folders/rt/4gvqv631095f64jvm7jfj_000000gn/T//ccA8CvEa.s:911    .text.renderAllPlants:000000000000001a .L0 
/var/folders/rt/4gvqv631095f64jvm7jfj_000000gn/T//ccA8CvEa.s:914    .text.renderAllPlants:0000000000000020 .L0 
/var/folders/rt/4gvqv631095f64jvm7jfj_000000gn/T//ccA8CvEa.s:916    .text.renderAllPlants:0000000000000022 .L0 
/var/folders/rt/4gvqv631095f64jvm7jfj_000000gn/T//ccA8CvEa.s:920    .text.renderAllPlants:0000000000000026 .L0 
/var/folders/rt/4gvqv631095f64jvm7jfj_000000gn/T//ccA8CvEa.s:923    .text.renderAllPlants:000000000000002a .L0 
/var/folders/rt/4gvqv631095f64jvm7jfj_000000gn/T//ccA8CvEa.s:924    .text.renderAllPlants:000000000000002c .L0 
/var/folders/rt/4gvqv631095f64jvm7jfj_000000gn/T//ccA8CvEa.s:925    .text.renderAllPlants:000000000000002c .L0 
/var/folders/rt/4gvqv631095f64jvm7jfj_000000gn/T//ccA8CvEa.s:927    .text.renderAllPlants:000000000000002e .L0 
/var/folders/rt/4gvqv631095f64jvm7jfj_000000gn/T//ccA8CvEa.s:929    .text.renderAllPlants:0000000000000030 .L0 
/var/folders/rt/4gvqv631095f64jvm7jfj_000000gn/T//ccA8CvEa.s:931    .text.renderAllPlants:0000000000000032 .L0 
/var/folders/rt/4gvqv631095f64jvm7jfj_000000gn/T//ccA8CvEa.s:933    .text.renderAllPlants:0000000000000034 .L0 
GAS LISTING /var/folders/rt/4gvqv631095f64jvm7jfj_000000gn/T//ccA8CvEa.s 			page 61


/var/folders/rt/4gvqv631095f64jvm7jfj_000000gn/T//ccA8CvEa.s:936    .text.renderAllPlants:0000000000000036 .L0 
/var/folders/rt/4gvqv631095f64jvm7jfj_000000gn/T//ccA8CvEa.s:938    .text.renderAllPlants:0000000000000038 .L0 
/var/folders/rt/4gvqv631095f64jvm7jfj_000000gn/T//ccA8CvEa.s:940    .text.renderAllPlants:000000000000003a .L0 
/var/folders/rt/4gvqv631095f64jvm7jfj_000000gn/T//ccA8CvEa.s:943    .text.renderAllPlants:000000000000003c .L0 
/var/folders/rt/4gvqv631095f64jvm7jfj_000000gn/T//ccA8CvEa.s:946    .text.renderAllPlants:000000000000003e .L0 
/var/folders/rt/4gvqv631095f64jvm7jfj_000000gn/T//ccA8CvEa.s:951    .text.renderAllPlants:0000000000000040 .L0 
/var/folders/rt/4gvqv631095f64jvm7jfj_000000gn/T//ccA8CvEa.s:954    .text.renderAllPlants:0000000000000040 .L0 
/var/folders/rt/4gvqv631095f64jvm7jfj_000000gn/T//ccA8CvEa.s:960    .text.renderAllPlants:000000000000004c .L0 
/var/folders/rt/4gvqv631095f64jvm7jfj_000000gn/T//ccA8CvEa.s:963    .text.renderAllPlants:000000000000004e .L0 
/var/folders/rt/4gvqv631095f64jvm7jfj_000000gn/T//ccA8CvEa.s:967    .text.renderAllPlants:0000000000000058 .L0 
/var/folders/rt/4gvqv631095f64jvm7jfj_000000gn/T//ccA8CvEa.s:968    .text.renderAllPlants:0000000000000058 .L0 
/var/folders/rt/4gvqv631095f64jvm7jfj_000000gn/T//ccA8CvEa.s:970    .text.renderAllPlants:000000000000005c .L0 
/var/folders/rt/4gvqv631095f64jvm7jfj_000000gn/T//ccA8CvEa.s:973    .text.renderAllPlants:0000000000000060 .L0 
/var/folders/rt/4gvqv631095f64jvm7jfj_000000gn/T//ccA8CvEa.s:976    .text.renderAllPlants:0000000000000064 .L0 
/var/folders/rt/4gvqv631095f64jvm7jfj_000000gn/T//ccA8CvEa.s:982    .text.renderAllPlants:0000000000000072 .L0 
/var/folders/rt/4gvqv631095f64jvm7jfj_000000gn/T//ccA8CvEa.s:991    .text.renderAllPlants:000000000000008a .L0 
/var/folders/rt/4gvqv631095f64jvm7jfj_000000gn/T//ccA8CvEa.s:992    .text.renderAllPlants:000000000000008a .L0 
/var/folders/rt/4gvqv631095f64jvm7jfj_000000gn/T//ccA8CvEa.s:994    .text.renderAllPlants:000000000000008e .L0 
/var/folders/rt/4gvqv631095f64jvm7jfj_000000gn/T//ccA8CvEa.s:997    .text.renderAllPlants:0000000000000092 .L0 
/var/folders/rt/4gvqv631095f64jvm7jfj_000000gn/T//ccA8CvEa.s:1001   .text.renderAllPlants:000000000000009a .L0 
/var/folders/rt/4gvqv631095f64jvm7jfj_000000gn/T//ccA8CvEa.s:1007   .text.renderAllPlants:00000000000000aa .L0 
/var/folders/rt/4gvqv631095f64jvm7jfj_000000gn/T//ccA8CvEa.s:1015   .text.renderAllPlants:00000000000000c0 .L0 
/var/folders/rt/4gvqv631095f64jvm7jfj_000000gn/T//ccA8CvEa.s:1025   .text.renderAllPlants:00000000000000de .L0 
/var/folders/rt/4gvqv631095f64jvm7jfj_000000gn/T//ccA8CvEa.s:1032   .text.renderOnePlant:0000000000000000 renderOnePlant
/var/folders/rt/4gvqv631095f64jvm7jfj_000000gn/T//ccA8CvEa.s:1035   .text.renderOnePlant:0000000000000000 .L0 
/var/folders/rt/4gvqv631095f64jvm7jfj_000000gn/T//ccA8CvEa.s:1037   .text.renderOnePlant:0000000000000000 .L0 
/var/folders/rt/4gvqv631095f64jvm7jfj_000000gn/T//ccA8CvEa.s:1039   .text.renderOnePlant:0000000000000000 .L0 
/var/folders/rt/4gvqv631095f64jvm7jfj_000000gn/T//ccA8CvEa.s:1041   .text.renderOnePlant:0000000000000000 .L0 
/var/folders/rt/4gvqv631095f64jvm7jfj_000000gn/T//ccA8CvEa.s:1042   .text.renderOnePlant:0000000000000000 .L0 
/var/folders/rt/4gvqv631095f64jvm7jfj_000000gn/T//ccA8CvEa.s:1044   .text.renderOnePlant:0000000000000002 .L0 
/var/folders/rt/4gvqv631095f64jvm7jfj_000000gn/T//ccA8CvEa.s:1050   .text.renderOnePlant:000000000000000c .L0 
/var/folders/rt/4gvqv631095f64jvm7jfj_000000gn/T//ccA8CvEa.s:1051   .text.renderOnePlant:000000000000000c .L0 
/var/folders/rt/4gvqv631095f64jvm7jfj_000000gn/T//ccA8CvEa.s:1052   .text.renderOnePlant:000000000000000c .L0 
/var/folders/rt/4gvqv631095f64jvm7jfj_000000gn/T//ccA8CvEa.s:1053   .text.renderOnePlant:000000000000000c .L0 
/var/folders/rt/4gvqv631095f64jvm7jfj_000000gn/T//ccA8CvEa.s:1054   .text.renderOnePlant:000000000000000c .L0 
/var/folders/rt/4gvqv631095f64jvm7jfj_000000gn/T//ccA8CvEa.s:1056   .text.renderOnePlant:000000000000000c .L0 
/var/folders/rt/4gvqv631095f64jvm7jfj_000000gn/T//ccA8CvEa.s:1060   .text.renderOnePlant:0000000000000010 .L0 
/var/folders/rt/4gvqv631095f64jvm7jfj_000000gn/T//ccA8CvEa.s:1064   .text.renderOnePlant:0000000000000012 .L0 
/var/folders/rt/4gvqv631095f64jvm7jfj_000000gn/T//ccA8CvEa.s:1067   .text.renderOnePlant:0000000000000016 .L0 
/var/folders/rt/4gvqv631095f64jvm7jfj_000000gn/T//ccA8CvEa.s:1080   .text.renderOnePlant:000000000000002e .L0 
/var/folders/rt/4gvqv631095f64jvm7jfj_000000gn/T//ccA8CvEa.s:1081   .text.renderOnePlant:000000000000002e .L0 
/var/folders/rt/4gvqv631095f64jvm7jfj_000000gn/T//ccA8CvEa.s:1087   .text.renderOnePlant:000000000000003c .L0 
/var/folders/rt/4gvqv631095f64jvm7jfj_000000gn/T//ccA8CvEa.s:1089   .text.renderOnePlant:000000000000003e .L0 
/var/folders/rt/4gvqv631095f64jvm7jfj_000000gn/T//ccA8CvEa.s:1094   .text.renderOnePlant:0000000000000048 .L0 
/var/folders/rt/4gvqv631095f64jvm7jfj_000000gn/T//ccA8CvEa.s:1103   .text.renderOnePlant:000000000000005c .L0 
/var/folders/rt/4gvqv631095f64jvm7jfj_000000gn/T//ccA8CvEa.s:1104   .text.renderOnePlant:000000000000005c .L0 
/var/folders/rt/4gvqv631095f64jvm7jfj_000000gn/T//ccA8CvEa.s:1106   .text.renderOnePlant:0000000000000060 .L0 
/var/folders/rt/4gvqv631095f64jvm7jfj_000000gn/T//ccA8CvEa.s:1109   .text.renderOnePlant:0000000000000066 .L0 
/var/folders/rt/4gvqv631095f64jvm7jfj_000000gn/T//ccA8CvEa.s:1112   .text.renderOnePlant:000000000000006a .L0 
/var/folders/rt/4gvqv631095f64jvm7jfj_000000gn/T//ccA8CvEa.s:1118   .text.renderOnePlant:0000000000000078 .L0 
/var/folders/rt/4gvqv631095f64jvm7jfj_000000gn/T//ccA8CvEa.s:1128   .text.renderOnePlant:0000000000000092 .L0 
/var/folders/rt/4gvqv631095f64jvm7jfj_000000gn/T//ccA8CvEa.s:1129   .text.renderOnePlant:0000000000000092 .L0 
/var/folders/rt/4gvqv631095f64jvm7jfj_000000gn/T//ccA8CvEa.s:1131   .text.renderOnePlant:0000000000000096 .L0 
/var/folders/rt/4gvqv631095f64jvm7jfj_000000gn/T//ccA8CvEa.s:1134   .text.renderOnePlant:000000000000009c .L0 
/var/folders/rt/4gvqv631095f64jvm7jfj_000000gn/T//ccA8CvEa.s:1137   .text.renderOnePlant:00000000000000a0 .L0 
/var/folders/rt/4gvqv631095f64jvm7jfj_000000gn/T//ccA8CvEa.s:1143   .text.renderOnePlant:00000000000000b0 .L0 
/var/folders/rt/4gvqv631095f64jvm7jfj_000000gn/T//ccA8CvEa.s:1144   .text.renderOnePlant:00000000000000b0 .L0 
GAS LISTING /var/folders/rt/4gvqv631095f64jvm7jfj_000000gn/T//ccA8CvEa.s 			page 62


/var/folders/rt/4gvqv631095f64jvm7jfj_000000gn/T//ccA8CvEa.s:1146   .text.renderOnePlant:00000000000000b4 .L0 
/var/folders/rt/4gvqv631095f64jvm7jfj_000000gn/T//ccA8CvEa.s:1149   .text.renderOnePlant:00000000000000ba .L0 
/var/folders/rt/4gvqv631095f64jvm7jfj_000000gn/T//ccA8CvEa.s:1153   .text.renderOnePlant:00000000000000c2 .L0 
/var/folders/rt/4gvqv631095f64jvm7jfj_000000gn/T//ccA8CvEa.s:1159   .text.renderOnePlant:00000000000000d2 .L0 
/var/folders/rt/4gvqv631095f64jvm7jfj_000000gn/T//ccA8CvEa.s:1167   .text.renderOnePlant:00000000000000ea .L0 
/var/folders/rt/4gvqv631095f64jvm7jfj_000000gn/T//ccA8CvEa.s:1175   .text.renderOnePlant:0000000000000104 .L0 
/var/folders/rt/4gvqv631095f64jvm7jfj_000000gn/T//ccA8CvEa.s:1176   .text.renderOnePlant:0000000000000104 .L0 
/var/folders/rt/4gvqv631095f64jvm7jfj_000000gn/T//ccA8CvEa.s:1178   .text.renderOnePlant:0000000000000108 .L0 
/var/folders/rt/4gvqv631095f64jvm7jfj_000000gn/T//ccA8CvEa.s:1181   .text.renderOnePlant:000000000000010e .L0 
/var/folders/rt/4gvqv631095f64jvm7jfj_000000gn/T//ccA8CvEa.s:1184   .text.renderOnePlant:0000000000000114 .L0 
/var/folders/rt/4gvqv631095f64jvm7jfj_000000gn/T//ccA8CvEa.s:1190   .text.renderOnePlant:0000000000000126 .L0 
/var/folders/rt/4gvqv631095f64jvm7jfj_000000gn/T//ccA8CvEa.s:1199   .text.renderOnePlant:0000000000000136 .L0 
/var/folders/rt/4gvqv631095f64jvm7jfj_000000gn/T//ccA8CvEa.s:1200   .text.renderOnePlant:0000000000000138 .L0 
/var/folders/rt/4gvqv631095f64jvm7jfj_000000gn/T//ccA8CvEa.s:1201   .text.renderOnePlant:0000000000000138 .L0 
/var/folders/rt/4gvqv631095f64jvm7jfj_000000gn/T//ccA8CvEa.s:1203   .text.renderOnePlant:000000000000013a .L0 
/var/folders/rt/4gvqv631095f64jvm7jfj_000000gn/T//ccA8CvEa.s:1205   .text.renderOnePlant:000000000000013c .L0 
/var/folders/rt/4gvqv631095f64jvm7jfj_000000gn/T//ccA8CvEa.s:1207   .text.renderOnePlant:000000000000013e .L0 
/var/folders/rt/4gvqv631095f64jvm7jfj_000000gn/T//ccA8CvEa.s:1209   .text.renderOnePlant:0000000000000140 .L0 
/var/folders/rt/4gvqv631095f64jvm7jfj_000000gn/T//ccA8CvEa.s:1213   .text.renderOnePlant:0000000000000142 .L0 
/var/folders/rt/4gvqv631095f64jvm7jfj_000000gn/T//ccA8CvEa.s:1215   .text.renderOnePlant:0000000000000142 .L0 
/var/folders/rt/4gvqv631095f64jvm7jfj_000000gn/T//ccA8CvEa.s:1219   .text.renderOnePlant:000000000000014a .L0 
/var/folders/rt/4gvqv631095f64jvm7jfj_000000gn/T//ccA8CvEa.s:1222   .text.renderOnePlant:000000000000014a .L0 
/var/folders/rt/4gvqv631095f64jvm7jfj_000000gn/T//ccA8CvEa.s:1226   .text.renderOnePlant:000000000000014e .L0 
/var/folders/rt/4gvqv631095f64jvm7jfj_000000gn/T//ccA8CvEa.s:1233   .text.updatePlantStatus:0000000000000000 updatePlantStatus
/var/folders/rt/4gvqv631095f64jvm7jfj_000000gn/T//ccA8CvEa.s:1236   .text.updatePlantStatus:0000000000000000 .L0 
/var/folders/rt/4gvqv631095f64jvm7jfj_000000gn/T//ccA8CvEa.s:1237   .text.updatePlantStatus:0000000000000000 .L0 
/var/folders/rt/4gvqv631095f64jvm7jfj_000000gn/T//ccA8CvEa.s:1238   .text.updatePlantStatus:0000000000000000 .L0 
/var/folders/rt/4gvqv631095f64jvm7jfj_000000gn/T//ccA8CvEa.s:1239   .text.updatePlantStatus:0000000000000002 .L0 
/var/folders/rt/4gvqv631095f64jvm7jfj_000000gn/T//ccA8CvEa.s:1246   .text.updatePlantReading:0000000000000000 updatePlantReading
/var/folders/rt/4gvqv631095f64jvm7jfj_000000gn/T//ccA8CvEa.s:1249   .text.updatePlantReading:0000000000000000 .L0 
/var/folders/rt/4gvqv631095f64jvm7jfj_000000gn/T//ccA8CvEa.s:1251   .text.updatePlantReading:0000000000000000 .L0 
/var/folders/rt/4gvqv631095f64jvm7jfj_000000gn/T//ccA8CvEa.s:1253   .text.updatePlantReading:0000000000000000 .L0 
/var/folders/rt/4gvqv631095f64jvm7jfj_000000gn/T//ccA8CvEa.s:1255   .text.updatePlantReading:0000000000000000 .L0 
/var/folders/rt/4gvqv631095f64jvm7jfj_000000gn/T//ccA8CvEa.s:1256   .text.updatePlantReading:0000000000000000 .L0 
/var/folders/rt/4gvqv631095f64jvm7jfj_000000gn/T//ccA8CvEa.s:1258   .text.updatePlantReading:0000000000000002 .L0 
/var/folders/rt/4gvqv631095f64jvm7jfj_000000gn/T//ccA8CvEa.s:1264   .text.updatePlantReading:000000000000000c .L0 
/var/folders/rt/4gvqv631095f64jvm7jfj_000000gn/T//ccA8CvEa.s:1265   .text.updatePlantReading:000000000000000c .L0 
/var/folders/rt/4gvqv631095f64jvm7jfj_000000gn/T//ccA8CvEa.s:1266   .text.updatePlantReading:000000000000000c .L0 
/var/folders/rt/4gvqv631095f64jvm7jfj_000000gn/T//ccA8CvEa.s:1267   .text.updatePlantReading:000000000000000c .L0 
/var/folders/rt/4gvqv631095f64jvm7jfj_000000gn/T//ccA8CvEa.s:1268   .text.updatePlantReading:000000000000000c .L0 
/var/folders/rt/4gvqv631095f64jvm7jfj_000000gn/T//ccA8CvEa.s:1270   .text.updatePlantReading:000000000000000c .L0 
/var/folders/rt/4gvqv631095f64jvm7jfj_000000gn/T//ccA8CvEa.s:1274   .text.updatePlantReading:0000000000000010 .L0 
/var/folders/rt/4gvqv631095f64jvm7jfj_000000gn/T//ccA8CvEa.s:1276   .text.updatePlantReading:0000000000000012 .L0 
/var/folders/rt/4gvqv631095f64jvm7jfj_000000gn/T//ccA8CvEa.s:1280   .text.updatePlantReading:0000000000000014 .L0 
/var/folders/rt/4gvqv631095f64jvm7jfj_000000gn/T//ccA8CvEa.s:1283   .text.updatePlantReading:0000000000000018 .L0 
/var/folders/rt/4gvqv631095f64jvm7jfj_000000gn/T//ccA8CvEa.s:1293   .text.updatePlantReading:000000000000002e .L0 
/var/folders/rt/4gvqv631095f64jvm7jfj_000000gn/T//ccA8CvEa.s:1305   .text.updatePlantReading:0000000000000046 .L0 
/var/folders/rt/4gvqv631095f64jvm7jfj_000000gn/T//ccA8CvEa.s:1309   .text.updatePlantReading:000000000000004c .L0 
/var/folders/rt/4gvqv631095f64jvm7jfj_000000gn/T//ccA8CvEa.s:1310   .text.updatePlantReading:000000000000004c .L0 
/var/folders/rt/4gvqv631095f64jvm7jfj_000000gn/T//ccA8CvEa.s:1314   .text.updatePlantReading:0000000000000056 .L0 
/var/folders/rt/4gvqv631095f64jvm7jfj_000000gn/T//ccA8CvEa.s:1319   .text.updatePlantReading:000000000000005c .L0 
/var/folders/rt/4gvqv631095f64jvm7jfj_000000gn/T//ccA8CvEa.s:1320   .text.updatePlantReading:000000000000005c .L0 
/var/folders/rt/4gvqv631095f64jvm7jfj_000000gn/T//ccA8CvEa.s:1323   .text.updatePlantReading:0000000000000060 .L0 
/var/folders/rt/4gvqv631095f64jvm7jfj_000000gn/T//ccA8CvEa.s:1324   .text.updatePlantReading:0000000000000060 .L0 
/var/folders/rt/4gvqv631095f64jvm7jfj_000000gn/T//ccA8CvEa.s:1328   .text.updatePlantReading:000000000000006a .L0 
/var/folders/rt/4gvqv631095f64jvm7jfj_000000gn/T//ccA8CvEa.s:1329   .text.updatePlantReading:000000000000006a .L0 
/var/folders/rt/4gvqv631095f64jvm7jfj_000000gn/T//ccA8CvEa.s:1335   .text.updatePlantReading:000000000000007c .L0 
GAS LISTING /var/folders/rt/4gvqv631095f64jvm7jfj_000000gn/T//ccA8CvEa.s 			page 63


/var/folders/rt/4gvqv631095f64jvm7jfj_000000gn/T//ccA8CvEa.s:1336   .text.updatePlantReading:000000000000007c .L0 
/var/folders/rt/4gvqv631095f64jvm7jfj_000000gn/T//ccA8CvEa.s:1337   .text.updatePlantReading:000000000000007c .L0 
/var/folders/rt/4gvqv631095f64jvm7jfj_000000gn/T//ccA8CvEa.s:1339   .text.updatePlantReading:0000000000000080 .L0 
/var/folders/rt/4gvqv631095f64jvm7jfj_000000gn/T//ccA8CvEa.s:1342   .text.updatePlantReading:0000000000000088 .L0 
/var/folders/rt/4gvqv631095f64jvm7jfj_000000gn/T//ccA8CvEa.s:1343   .text.updatePlantReading:0000000000000088 .L0 
/var/folders/rt/4gvqv631095f64jvm7jfj_000000gn/T//ccA8CvEa.s:1352   .text.updatePlantReading:000000000000009a .L0 
/var/folders/rt/4gvqv631095f64jvm7jfj_000000gn/T//ccA8CvEa.s:1362   .text.updatePlantReading:00000000000000b6 .L0 
/var/folders/rt/4gvqv631095f64jvm7jfj_000000gn/T//ccA8CvEa.s:1363   .text.updatePlantReading:00000000000000b6 .L0 
/var/folders/rt/4gvqv631095f64jvm7jfj_000000gn/T//ccA8CvEa.s:1371   .text.updatePlantReading:00000000000000c0 .L0 
/var/folders/rt/4gvqv631095f64jvm7jfj_000000gn/T//ccA8CvEa.s:1372   .text.updatePlantReading:00000000000000c2 .L0 
/var/folders/rt/4gvqv631095f64jvm7jfj_000000gn/T//ccA8CvEa.s:1373   .text.updatePlantReading:00000000000000c2 .L0 
/var/folders/rt/4gvqv631095f64jvm7jfj_000000gn/T//ccA8CvEa.s:1375   .text.updatePlantReading:00000000000000c4 .L0 
/var/folders/rt/4gvqv631095f64jvm7jfj_000000gn/T//ccA8CvEa.s:1377   .text.updatePlantReading:00000000000000c6 .L0 
/var/folders/rt/4gvqv631095f64jvm7jfj_000000gn/T//ccA8CvEa.s:1380   .text.updatePlantReading:00000000000000c8 .L0 
/var/folders/rt/4gvqv631095f64jvm7jfj_000000gn/T//ccA8CvEa.s:1383   .text.updatePlantReading:00000000000000ca .L0 
/var/folders/rt/4gvqv631095f64jvm7jfj_000000gn/T//ccA8CvEa.s:1386   .text.updatePlantReading:00000000000000cc .L0 
/var/folders/rt/4gvqv631095f64jvm7jfj_000000gn/T//ccA8CvEa.s:1391   .text.updatePlantReading:00000000000000ce .L0 
/var/folders/rt/4gvqv631095f64jvm7jfj_000000gn/T//ccA8CvEa.s:1395   .text.updatePlantReading:00000000000000ce .L0 
/var/folders/rt/4gvqv631095f64jvm7jfj_000000gn/T//ccA8CvEa.s:1404   .text.updatePlantReading:00000000000000e4 .L0 
/var/folders/rt/4gvqv631095f64jvm7jfj_000000gn/T//ccA8CvEa.s:1416   .text.updatePlantReading:00000000000000f8 .L0 
/var/folders/rt/4gvqv631095f64jvm7jfj_000000gn/T//ccA8CvEa.s:1423   .text.updatePlantReading:0000000000000102 .L0 
/var/folders/rt/4gvqv631095f64jvm7jfj_000000gn/T//ccA8CvEa.s:1428   .text.updatePlantReading:000000000000010a .L0 
/var/folders/rt/4gvqv631095f64jvm7jfj_000000gn/T//ccA8CvEa.s:1435   .text.jsonAllPlants:0000000000000000 jsonAllPlants
/var/folders/rt/4gvqv631095f64jvm7jfj_000000gn/T//ccA8CvEa.s:1438   .text.jsonAllPlants:0000000000000000 .L0 
/var/folders/rt/4gvqv631095f64jvm7jfj_000000gn/T//ccA8CvEa.s:1440   .text.jsonAllPlants:0000000000000000 .L0 
/var/folders/rt/4gvqv631095f64jvm7jfj_000000gn/T//ccA8CvEa.s:1441   .text.jsonAllPlants:0000000000000000 .L0 
/var/folders/rt/4gvqv631095f64jvm7jfj_000000gn/T//ccA8CvEa.s:1448   .text.jsonAllPlants:0000000000000012 .L0 
/var/folders/rt/4gvqv631095f64jvm7jfj_000000gn/T//ccA8CvEa.s:1451   .text.jsonAllPlants:0000000000000014 .L0 
/var/folders/rt/4gvqv631095f64jvm7jfj_000000gn/T//ccA8CvEa.s:1457   .text.jsonAllPlants:000000000000001e .L0 
/var/folders/rt/4gvqv631095f64jvm7jfj_000000gn/T//ccA8CvEa.s:1459   .text.jsonAllPlants:0000000000000020 .L0 
/var/folders/rt/4gvqv631095f64jvm7jfj_000000gn/T//ccA8CvEa.s:1461   .text.jsonAllPlants:0000000000000020 .L0 
/var/folders/rt/4gvqv631095f64jvm7jfj_000000gn/T//ccA8CvEa.s:1471   .text.jsonAllPlants:000000000000003c .L0 
/var/folders/rt/4gvqv631095f64jvm7jfj_000000gn/T//ccA8CvEa.s:1472   .text.jsonAllPlants:000000000000003e .L0 
/var/folders/rt/4gvqv631095f64jvm7jfj_000000gn/T//ccA8CvEa.s:1474   .text.jsonAllPlants:000000000000003e .L0 
/var/folders/rt/4gvqv631095f64jvm7jfj_000000gn/T//ccA8CvEa.s:1501   .text.jsonAllPlants:000000000000008e .L0 
/var/folders/rt/4gvqv631095f64jvm7jfj_000000gn/T//ccA8CvEa.s:1502   .text.jsonAllPlants:0000000000000090 .L0 
/var/folders/rt/4gvqv631095f64jvm7jfj_000000gn/T//ccA8CvEa.s:1505   .text.jsonAllPlants:0000000000000092 .L0 
/var/folders/rt/4gvqv631095f64jvm7jfj_000000gn/T//ccA8CvEa.s:1507   .text.jsonAllPlants:0000000000000094 .L0 
/var/folders/rt/4gvqv631095f64jvm7jfj_000000gn/T//ccA8CvEa.s:1514   .text.receiveCommands:0000000000000000 receiveCommands
/var/folders/rt/4gvqv631095f64jvm7jfj_000000gn/T//ccA8CvEa.s:1517   .text.receiveCommands:0000000000000000 .L0 
/var/folders/rt/4gvqv631095f64jvm7jfj_000000gn/T//ccA8CvEa.s:1519   .text.receiveCommands:0000000000000000 .L0 
/var/folders/rt/4gvqv631095f64jvm7jfj_000000gn/T//ccA8CvEa.s:1520   .text.receiveCommands:0000000000000000 .L0 
/var/folders/rt/4gvqv631095f64jvm7jfj_000000gn/T//ccA8CvEa.s:1521   .text.receiveCommands:0000000000000000 .L0 
/var/folders/rt/4gvqv631095f64jvm7jfj_000000gn/T//ccA8CvEa.s:1523   .text.receiveCommands:0000000000000004 .L0 
/var/folders/rt/4gvqv631095f64jvm7jfj_000000gn/T//ccA8CvEa.s:1525   .text.receiveCommands:0000000000000008 .L0 
/var/folders/rt/4gvqv631095f64jvm7jfj_000000gn/T//ccA8CvEa.s:1528   .text.receiveCommands:000000000000000a .L0 
/var/folders/rt/4gvqv631095f64jvm7jfj_000000gn/T//ccA8CvEa.s:1531   .text.receiveCommands:000000000000000c .L0 
/var/folders/rt/4gvqv631095f64jvm7jfj_000000gn/T//ccA8CvEa.s:1535   .text.receiveCommands:000000000000001c .L0 
/var/folders/rt/4gvqv631095f64jvm7jfj_000000gn/T//ccA8CvEa.s:1536   .text.receiveCommands:000000000000001c .L0 
/var/folders/rt/4gvqv631095f64jvm7jfj_000000gn/T//ccA8CvEa.s:1537   .text.receiveCommands:000000000000001c .L0 
/var/folders/rt/4gvqv631095f64jvm7jfj_000000gn/T//ccA8CvEa.s:1538   .text.receiveCommands:000000000000001c .L0 
/var/folders/rt/4gvqv631095f64jvm7jfj_000000gn/T//ccA8CvEa.s:1540   .text.receiveCommands:000000000000001c .L0 
/var/folders/rt/4gvqv631095f64jvm7jfj_000000gn/T//ccA8CvEa.s:1542   .text.receiveCommands:000000000000001e .L0 
/var/folders/rt/4gvqv631095f64jvm7jfj_000000gn/T//ccA8CvEa.s:1545   .text.receiveCommands:0000000000000026 .L0 
/var/folders/rt/4gvqv631095f64jvm7jfj_000000gn/T//ccA8CvEa.s:1556   .text.receiveCommands:0000000000000040 .L0 
/var/folders/rt/4gvqv631095f64jvm7jfj_000000gn/T//ccA8CvEa.s:1557   .text.receiveCommands:0000000000000040 .L0 
/var/folders/rt/4gvqv631095f64jvm7jfj_000000gn/T//ccA8CvEa.s:1558   .text.receiveCommands:0000000000000040 .L0 
GAS LISTING /var/folders/rt/4gvqv631095f64jvm7jfj_000000gn/T//ccA8CvEa.s 			page 64


/var/folders/rt/4gvqv631095f64jvm7jfj_000000gn/T//ccA8CvEa.s:1560   .text.receiveCommands:0000000000000044 .L0 
/var/folders/rt/4gvqv631095f64jvm7jfj_000000gn/T//ccA8CvEa.s:1562   .text.receiveCommands:0000000000000048 .L0 
/var/folders/rt/4gvqv631095f64jvm7jfj_000000gn/T//ccA8CvEa.s:1565   .text.receiveCommands:000000000000004c .L0 
/var/folders/rt/4gvqv631095f64jvm7jfj_000000gn/T//ccA8CvEa.s:1567   .text.receiveCommands:0000000000000050 .L0 
/var/folders/rt/4gvqv631095f64jvm7jfj_000000gn/T//ccA8CvEa.s:1571   .text.receiveCommands:0000000000000052 .L0 
/var/folders/rt/4gvqv631095f64jvm7jfj_000000gn/T//ccA8CvEa.s:1573   .text.receiveCommands:0000000000000056 .L0 
/var/folders/rt/4gvqv631095f64jvm7jfj_000000gn/T//ccA8CvEa.s:1575   .text.receiveCommands:000000000000005a .L0 
/var/folders/rt/4gvqv631095f64jvm7jfj_000000gn/T//ccA8CvEa.s:1576   .text.receiveCommands:000000000000005a .L0 
/var/folders/rt/4gvqv631095f64jvm7jfj_000000gn/T//ccA8CvEa.s:1579   .text.receiveCommands:0000000000000062 .L0 
/var/folders/rt/4gvqv631095f64jvm7jfj_000000gn/T//ccA8CvEa.s:1581   .text.receiveCommands:0000000000000066 .L0 
/var/folders/rt/4gvqv631095f64jvm7jfj_000000gn/T//ccA8CvEa.s:1582   .text.receiveCommands:0000000000000066 .L0 
/var/folders/rt/4gvqv631095f64jvm7jfj_000000gn/T//ccA8CvEa.s:1586   .text.receiveCommands:0000000000000072 .L0 
/var/folders/rt/4gvqv631095f64jvm7jfj_000000gn/T//ccA8CvEa.s:1588   .text.receiveCommands:0000000000000076 .L0 
/var/folders/rt/4gvqv631095f64jvm7jfj_000000gn/T//ccA8CvEa.s:1589   .text.receiveCommands:0000000000000076 .L0 
/var/folders/rt/4gvqv631095f64jvm7jfj_000000gn/T//ccA8CvEa.s:1592   .text.receiveCommands:000000000000007e .L0 
/var/folders/rt/4gvqv631095f64jvm7jfj_000000gn/T//ccA8CvEa.s:1594   .text.receiveCommands:0000000000000080 .L0 
/var/folders/rt/4gvqv631095f64jvm7jfj_000000gn/T//ccA8CvEa.s:1597   .text.receiveCommands:0000000000000088 .L0 
/var/folders/rt/4gvqv631095f64jvm7jfj_000000gn/T//ccA8CvEa.s:1603   .text.receiveCommands:0000000000000096 .L0 
/var/folders/rt/4gvqv631095f64jvm7jfj_000000gn/T//ccA8CvEa.s:1604   .text.receiveCommands:0000000000000096 .L0 
/var/folders/rt/4gvqv631095f64jvm7jfj_000000gn/T//ccA8CvEa.s:1608   .text.receiveCommands:000000000000009a .L0 
/var/folders/rt/4gvqv631095f64jvm7jfj_000000gn/T//ccA8CvEa.s:1609   .text.receiveCommands:000000000000009a .L0 
/var/folders/rt/4gvqv631095f64jvm7jfj_000000gn/T//ccA8CvEa.s:1610   .text.receiveCommands:000000000000009e .L0 
/var/folders/rt/4gvqv631095f64jvm7jfj_000000gn/T//ccA8CvEa.s:1611   .text.receiveCommands:000000000000009e .L0 
/var/folders/rt/4gvqv631095f64jvm7jfj_000000gn/T//ccA8CvEa.s:1613   .text.receiveCommands:00000000000000a2 .L0 
/var/folders/rt/4gvqv631095f64jvm7jfj_000000gn/T//ccA8CvEa.s:1615   .text.receiveCommands:00000000000000a6 .L0 
/var/folders/rt/4gvqv631095f64jvm7jfj_000000gn/T//ccA8CvEa.s:1617   .text.receiveCommands:00000000000000aa .L0 
/var/folders/rt/4gvqv631095f64jvm7jfj_000000gn/T//ccA8CvEa.s:1620   .text.receiveCommands:00000000000000ae .L0 
/var/folders/rt/4gvqv631095f64jvm7jfj_000000gn/T//ccA8CvEa.s:1623   .text.receiveCommands:00000000000000b2 .L0 
/var/folders/rt/4gvqv631095f64jvm7jfj_000000gn/T//ccA8CvEa.s:1628   .text.receiveCommands:00000000000000b4 .L0 
/var/folders/rt/4gvqv631095f64jvm7jfj_000000gn/T//ccA8CvEa.s:1631   .text.receiveCommands:00000000000000b4 .L0 
/var/folders/rt/4gvqv631095f64jvm7jfj_000000gn/T//ccA8CvEa.s:1632   .text.receiveCommands:00000000000000b4 .L0 
/var/folders/rt/4gvqv631095f64jvm7jfj_000000gn/T//ccA8CvEa.s:1638   .text.receiveCommands:00000000000000c8 .L0 
/var/folders/rt/4gvqv631095f64jvm7jfj_000000gn/T//ccA8CvEa.s:1641   .text.receiveCommands:00000000000000ca .L0 
/var/folders/rt/4gvqv631095f64jvm7jfj_000000gn/T//ccA8CvEa.s:1644   .text.receiveCommands:00000000000000d2 .L0 
/var/folders/rt/4gvqv631095f64jvm7jfj_000000gn/T//ccA8CvEa.s:1654   .text.receiveCommands:00000000000000ec .L0 
/var/folders/rt/4gvqv631095f64jvm7jfj_000000gn/T//ccA8CvEa.s:1655   .text.receiveCommands:00000000000000ec .L0 
/var/folders/rt/4gvqv631095f64jvm7jfj_000000gn/T//ccA8CvEa.s:1661   .text.receiveCommands:00000000000000fc .L0 
/var/folders/rt/4gvqv631095f64jvm7jfj_000000gn/T//ccA8CvEa.s:1666   .text.receiveCommands:00000000000000fe .L0 
/var/folders/rt/4gvqv631095f64jvm7jfj_000000gn/T//ccA8CvEa.s:1672   .text.receiveCommands:0000000000000108 .L0 
/var/folders/rt/4gvqv631095f64jvm7jfj_000000gn/T//ccA8CvEa.s:1676   .text.receiveCommands:0000000000000112 .L0 
/var/folders/rt/4gvqv631095f64jvm7jfj_000000gn/T//ccA8CvEa.s:1687   .text.receiveCommands:000000000000012e .L0 
/var/folders/rt/4gvqv631095f64jvm7jfj_000000gn/T//ccA8CvEa.s:1695   .text.receiveCommands:0000000000000144 .L0 
/var/folders/rt/4gvqv631095f64jvm7jfj_000000gn/T//ccA8CvEa.s:1700   .text.receiveCommands:000000000000014a .L0 
/var/folders/rt/4gvqv631095f64jvm7jfj_000000gn/T//ccA8CvEa.s:1704   .text.receiveCommands:000000000000014e .L0 
/var/folders/rt/4gvqv631095f64jvm7jfj_000000gn/T//ccA8CvEa.s:1711   .text.startup.main:0000000000000000 main
/var/folders/rt/4gvqv631095f64jvm7jfj_000000gn/T//ccA8CvEa.s:1714   .text.startup.main:0000000000000000 .L0 
/var/folders/rt/4gvqv631095f64jvm7jfj_000000gn/T//ccA8CvEa.s:1715   .text.startup.main:0000000000000000 .L0 
/var/folders/rt/4gvqv631095f64jvm7jfj_000000gn/T//ccA8CvEa.s:1717   .text.startup.main:0000000000000000 .L0 
/var/folders/rt/4gvqv631095f64jvm7jfj_000000gn/T//ccA8CvEa.s:1718   .text.startup.main:0000000000000000 .L0 
/var/folders/rt/4gvqv631095f64jvm7jfj_000000gn/T//ccA8CvEa.s:1719   .text.startup.main:0000000000000000 .L0 
/var/folders/rt/4gvqv631095f64jvm7jfj_000000gn/T//ccA8CvEa.s:1720   .text.startup.main:0000000000000000 .L0 
/var/folders/rt/4gvqv631095f64jvm7jfj_000000gn/T//ccA8CvEa.s:1722   .text.startup.main:0000000000000002 .L0 
/var/folders/rt/4gvqv631095f64jvm7jfj_000000gn/T//ccA8CvEa.s:1725   .text.startup.main:0000000000000008 .L0 
/var/folders/rt/4gvqv631095f64jvm7jfj_000000gn/T//ccA8CvEa.s:1728   .text.startup.main:000000000000000c .L0 
/var/folders/rt/4gvqv631095f64jvm7jfj_000000gn/T//ccA8CvEa.s:1730   .text.startup.main:0000000000000010 .L0 
/var/folders/rt/4gvqv631095f64jvm7jfj_000000gn/T//ccA8CvEa.s:1736   .text.startup.main:0000000000000028 .L0 
/var/folders/rt/4gvqv631095f64jvm7jfj_000000gn/T//ccA8CvEa.s:1737   .text.startup.main:0000000000000028 .L0 
GAS LISTING /var/folders/rt/4gvqv631095f64jvm7jfj_000000gn/T//ccA8CvEa.s 			page 65


/var/folders/rt/4gvqv631095f64jvm7jfj_000000gn/T//ccA8CvEa.s:1738   .text.startup.main:0000000000000028 .L0 
/var/folders/rt/4gvqv631095f64jvm7jfj_000000gn/T//ccA8CvEa.s:1739   .text.startup.main:0000000000000028 .L0 
/var/folders/rt/4gvqv631095f64jvm7jfj_000000gn/T//ccA8CvEa.s:1740   .text.startup.main:0000000000000028 .L0 
/var/folders/rt/4gvqv631095f64jvm7jfj_000000gn/T//ccA8CvEa.s:1741   .text.startup.main:0000000000000028 .L0 
/var/folders/rt/4gvqv631095f64jvm7jfj_000000gn/T//ccA8CvEa.s:1742   .text.startup.main:0000000000000028 .L0 
/var/folders/rt/4gvqv631095f64jvm7jfj_000000gn/T//ccA8CvEa.s:1744   .text.startup.main:0000000000000028 .L0 
/var/folders/rt/4gvqv631095f64jvm7jfj_000000gn/T//ccA8CvEa.s:1746   .text.startup.main:000000000000002a .L0 
/var/folders/rt/4gvqv631095f64jvm7jfj_000000gn/T//ccA8CvEa.s:1748   .text.startup.main:000000000000002c .L0 
/var/folders/rt/4gvqv631095f64jvm7jfj_000000gn/T//ccA8CvEa.s:1750   .text.startup.main:000000000000002c .L0 
/var/folders/rt/4gvqv631095f64jvm7jfj_000000gn/T//ccA8CvEa.s:1762   .text.startup.main:000000000000004c .L0 
/var/folders/rt/4gvqv631095f64jvm7jfj_000000gn/T//ccA8CvEa.s:1764   .text.startup.main:000000000000004e .L0 
/var/folders/rt/4gvqv631095f64jvm7jfj_000000gn/T//ccA8CvEa.s:1767   .text.startup.main:0000000000000056 .L0 
/var/folders/rt/4gvqv631095f64jvm7jfj_000000gn/T//ccA8CvEa.s:1774   .text.startup.main:000000000000006a .L0 
/var/folders/rt/4gvqv631095f64jvm7jfj_000000gn/T//ccA8CvEa.s:1781   .text.startup.main:000000000000007e .L0 
/var/folders/rt/4gvqv631095f64jvm7jfj_000000gn/T//ccA8CvEa.s:1784   .text.startup.main:0000000000000086 .L0 
/var/folders/rt/4gvqv631095f64jvm7jfj_000000gn/T//ccA8CvEa.s:1787   .text.startup.main:000000000000008e .L0 
/var/folders/rt/4gvqv631095f64jvm7jfj_000000gn/T//ccA8CvEa.s:1790   .text.startup.main:0000000000000096 .L0 
/var/folders/rt/4gvqv631095f64jvm7jfj_000000gn/T//ccA8CvEa.s:1793   .text.startup.main:000000000000009e .L0 
/var/folders/rt/4gvqv631095f64jvm7jfj_000000gn/T//ccA8CvEa.s:1797   .text.startup.main:00000000000000a8 .L0 
/var/folders/rt/4gvqv631095f64jvm7jfj_000000gn/T//ccA8CvEa.s:1801   .text.startup.main:00000000000000b2 .L0 
/var/folders/rt/4gvqv631095f64jvm7jfj_000000gn/T//ccA8CvEa.s:1804   .text.startup.main:00000000000000ba .L0 
/var/folders/rt/4gvqv631095f64jvm7jfj_000000gn/T//ccA8CvEa.s:1808   .text.startup.main:00000000000000c4 .L0 
/var/folders/rt/4gvqv631095f64jvm7jfj_000000gn/T//ccA8CvEa.s:1812   .text.startup.main:00000000000000ce .L0 
/var/folders/rt/4gvqv631095f64jvm7jfj_000000gn/T//ccA8CvEa.s:1815   .text.startup.main:00000000000000d6 .L0 
/var/folders/rt/4gvqv631095f64jvm7jfj_000000gn/T//ccA8CvEa.s:1823   .text.startup.main:00000000000000ec .L0 
/var/folders/rt/4gvqv631095f64jvm7jfj_000000gn/T//ccA8CvEa.s:1825   .text.startup.main:00000000000000ee .L0 
/var/folders/rt/4gvqv631095f64jvm7jfj_000000gn/T//ccA8CvEa.s:1827   .text.startup.main:00000000000000f0 .L0 
/var/folders/rt/4gvqv631095f64jvm7jfj_000000gn/T//ccA8CvEa.s:1829   .text.startup.main:00000000000000f4 .L0 
/var/folders/rt/4gvqv631095f64jvm7jfj_000000gn/T//ccA8CvEa.s:1833   .text.startup.main:00000000000000f8 .L0 
/var/folders/rt/4gvqv631095f64jvm7jfj_000000gn/T//ccA8CvEa.s:1834   .text.startup.main:00000000000000f8 .L0 
/var/folders/rt/4gvqv631095f64jvm7jfj_000000gn/T//ccA8CvEa.s:1835   .text.startup.main:00000000000000f8 .L0 
/var/folders/rt/4gvqv631095f64jvm7jfj_000000gn/T//ccA8CvEa.s:1837   .text.startup.main:00000000000000fc .L0 
/var/folders/rt/4gvqv631095f64jvm7jfj_000000gn/T//ccA8CvEa.s:1840   .text.startup.main:00000000000000fe .L0 
/var/folders/rt/4gvqv631095f64jvm7jfj_000000gn/T//ccA8CvEa.s:1841   .text.startup.main:00000000000000fe .L0 
/var/folders/rt/4gvqv631095f64jvm7jfj_000000gn/T//ccA8CvEa.s:1843   .text.startup.main:0000000000000102 .L0 
/var/folders/rt/4gvqv631095f64jvm7jfj_000000gn/T//ccA8CvEa.s:1849   .text.startup.main:000000000000010e .L0 
/var/folders/rt/4gvqv631095f64jvm7jfj_000000gn/T//ccA8CvEa.s:1850   .text.startup.main:000000000000010e .L0 
/var/folders/rt/4gvqv631095f64jvm7jfj_000000gn/T//ccA8CvEa.s:1853   .text.startup.main:0000000000000116 .L0 
/var/folders/rt/4gvqv631095f64jvm7jfj_000000gn/T//ccA8CvEa.s:1857   .text.startup.main:000000000000011a .L0 
/var/folders/rt/4gvqv631095f64jvm7jfj_000000gn/T//ccA8CvEa.s:1862   .text.startup.main:000000000000012a .L0 
/var/folders/rt/4gvqv631095f64jvm7jfj_000000gn/T//ccA8CvEa.s:1863   .text.startup.main:000000000000012a .L0 
/var/folders/rt/4gvqv631095f64jvm7jfj_000000gn/T//ccA8CvEa.s:1864   .text.startup.main:000000000000012a .L0 
/var/folders/rt/4gvqv631095f64jvm7jfj_000000gn/T//ccA8CvEa.s:1866   .text.startup.main:000000000000012e .L0 
/var/folders/rt/4gvqv631095f64jvm7jfj_000000gn/T//ccA8CvEa.s:1871   .text.startup.main:000000000000013c .L0 
/var/folders/rt/4gvqv631095f64jvm7jfj_000000gn/T//ccA8CvEa.s:1876   .text.startup.main:0000000000000148 .L0 
/var/folders/rt/4gvqv631095f64jvm7jfj_000000gn/T//ccA8CvEa.s:1877   .text.startup.main:0000000000000148 .L0 
/var/folders/rt/4gvqv631095f64jvm7jfj_000000gn/T//ccA8CvEa.s:1879   .text.startup.main:000000000000014c .L0 
/var/folders/rt/4gvqv631095f64jvm7jfj_000000gn/T//ccA8CvEa.s:840    .text.jsmn_parse:00000000000003cc .L0 
/var/folders/rt/4gvqv631095f64jvm7jfj_000000gn/T//ccA8CvEa.s:865    .text.jsmn_init:000000000000000e .L0 
/var/folders/rt/4gvqv631095f64jvm7jfj_000000gn/T//ccA8CvEa.s:1028   .text.renderAllPlants:00000000000000de .L0 
/var/folders/rt/4gvqv631095f64jvm7jfj_000000gn/T//ccA8CvEa.s:1229   .text.renderOnePlant:000000000000014e .L0 
/var/folders/rt/4gvqv631095f64jvm7jfj_000000gn/T//ccA8CvEa.s:1242   .text.updatePlantStatus:0000000000000002 .L0 
/var/folders/rt/4gvqv631095f64jvm7jfj_000000gn/T//ccA8CvEa.s:1431   .text.updatePlantReading:000000000000010a .L0 
/var/folders/rt/4gvqv631095f64jvm7jfj_000000gn/T//ccA8CvEa.s:1510   .text.jsonAllPlants:0000000000000094 .L0 
/var/folders/rt/4gvqv631095f64jvm7jfj_000000gn/T//ccA8CvEa.s:1707   .text.receiveCommands:000000000000014e .L0 
/var/folders/rt/4gvqv631095f64jvm7jfj_000000gn/T//ccA8CvEa.s:1882   .text.startup.main:000000000000014c .L0 
                     .debug_frame:0000000000000000 .L0 
GAS LISTING /var/folders/rt/4gvqv631095f64jvm7jfj_000000gn/T//ccA8CvEa.s 			page 66


/var/folders/rt/4gvqv631095f64jvm7jfj_000000gn/T//ccA8CvEa.s:85     .text.jsmn_parse:000000000000004c .L50
/var/folders/rt/4gvqv631095f64jvm7jfj_000000gn/T//ccA8CvEa.s:138    .text.jsmn_parse:000000000000007a .L51
/var/folders/rt/4gvqv631095f64jvm7jfj_000000gn/T//ccA8CvEa.s:106    .text.jsmn_parse:000000000000005e .L1
/var/folders/rt/4gvqv631095f64jvm7jfj_000000gn/T//ccA8CvEa.s:818    .text.jsmn_parse:00000000000003b6 .L54
/var/folders/rt/4gvqv631095f64jvm7jfj_000000gn/T//ccA8CvEa.s:676    .text.jsmn_parse:00000000000002e8 .L3
/var/folders/rt/4gvqv631095f64jvm7jfj_000000gn/T//ccA8CvEa.s:221    .text.jsmn_parse:00000000000000e6 .L4
/var/folders/rt/4gvqv631095f64jvm7jfj_000000gn/T//ccA8CvEa.s:310    .text.jsmn_parse:000000000000014c .L5
/var/folders/rt/4gvqv631095f64jvm7jfj_000000gn/T//ccA8CvEa.s:162    .text.jsmn_parse:000000000000009a .L6
/var/folders/rt/4gvqv631095f64jvm7jfj_000000gn/T//ccA8CvEa.s:741    .text.jsmn_parse:0000000000000352 .L45
/var/folders/rt/4gvqv631095f64jvm7jfj_000000gn/T//ccA8CvEa.s:155    .text.jsmn_parse:0000000000000096 .L7
/var/folders/rt/4gvqv631095f64jvm7jfj_000000gn/T//ccA8CvEa.s:205    .text.jsmn_parse:00000000000000de .L35
/var/folders/rt/4gvqv631095f64jvm7jfj_000000gn/T//ccA8CvEa.s:419    .text.jsmn_parse:00000000000001d8 .L36
/var/folders/rt/4gvqv631095f64jvm7jfj_000000gn/T//ccA8CvEa.s:324    .text.jsmn_parse:0000000000000164 .L9
/var/folders/rt/4gvqv631095f64jvm7jfj_000000gn/T//ccA8CvEa.s:318    .text.jsmn_parse:0000000000000158 .L10
/var/folders/rt/4gvqv631095f64jvm7jfj_000000gn/T//ccA8CvEa.s:663    .text.jsmn_parse:00000000000002dc .L11
/var/folders/rt/4gvqv631095f64jvm7jfj_000000gn/T//ccA8CvEa.s:459    .text.jsmn_parse:00000000000001ea .L55
/var/folders/rt/4gvqv631095f64jvm7jfj_000000gn/T//ccA8CvEa.s:291    .text.jsmn_parse:0000000000000134 .L14
/var/folders/rt/4gvqv631095f64jvm7jfj_000000gn/T//ccA8CvEa.s:299    .text.jsmn_parse:0000000000000140 .L15
/var/folders/rt/4gvqv631095f64jvm7jfj_000000gn/T//ccA8CvEa.s:72     .text.jsmn_parse:0000000000000038 .L2
/var/folders/rt/4gvqv631095f64jvm7jfj_000000gn/T//ccA8CvEa.s:229    .text.jsmn_parse:00000000000000fa .L12
/var/folders/rt/4gvqv631095f64jvm7jfj_000000gn/T//ccA8CvEa.s:333    .text.jsmn_parse:000000000000016e .L16
/var/folders/rt/4gvqv631095f64jvm7jfj_000000gn/T//ccA8CvEa.s:356    .text.jsmn_parse:0000000000000186 .L20
/var/folders/rt/4gvqv631095f64jvm7jfj_000000gn/T//ccA8CvEa.s:402    .text.jsmn_parse:00000000000001c8 .L18
/var/folders/rt/4gvqv631095f64jvm7jfj_000000gn/T//ccA8CvEa.s:350    .text.jsmn_parse:0000000000000182 .L59
/var/folders/rt/4gvqv631095f64jvm7jfj_000000gn/T//ccA8CvEa.s:409    .text.jsmn_parse:00000000000001ce .L21
/var/folders/rt/4gvqv631095f64jvm7jfj_000000gn/T//ccA8CvEa.s:343    .text.jsmn_parse:000000000000017a .L17
/var/folders/rt/4gvqv631095f64jvm7jfj_000000gn/T//ccA8CvEa.s:385    .text.jsmn_parse:00000000000001b2 .L19
/var/folders/rt/4gvqv631095f64jvm7jfj_000000gn/T//ccA8CvEa.s:539    .text.jsmn_parse:000000000000022a .L23
/var/folders/rt/4gvqv631095f64jvm7jfj_000000gn/T//ccA8CvEa.s:511    .text.jsmn_parse:000000000000020e .L93
/var/folders/rt/4gvqv631095f64jvm7jfj_000000gn/T//ccA8CvEa.s:465    .text.jsmn_parse:00000000000001ee .L25
/var/folders/rt/4gvqv631095f64jvm7jfj_000000gn/T//ccA8CvEa.s:565    .text.jsmn_parse:0000000000000254 .L26
/var/folders/rt/4gvqv631095f64jvm7jfj_000000gn/T//ccA8CvEa.s:597    .text.jsmn_parse:000000000000026e .L27
/var/folders/rt/4gvqv631095f64jvm7jfj_000000gn/T//ccA8CvEa.s:573    .text.jsmn_parse:0000000000000260 .L28
/var/folders/rt/4gvqv631095f64jvm7jfj_000000gn/T//ccA8CvEa.s:580    .text.jsmn_parse:0000000000000268 .L91
/var/folders/rt/4gvqv631095f64jvm7jfj_000000gn/T//ccA8CvEa.s:193    .text.jsmn_parse:00000000000000ca .L22
/var/folders/rt/4gvqv631095f64jvm7jfj_000000gn/T//ccA8CvEa.s:607    .text.jsmn_parse:000000000000027c .L30
/var/folders/rt/4gvqv631095f64jvm7jfj_000000gn/T//ccA8CvEa.s:654    .text.jsmn_parse:00000000000002d0 .L33
/var/folders/rt/4gvqv631095f64jvm7jfj_000000gn/T//ccA8CvEa.s:643    .text.jsmn_parse:00000000000002c6 .L32
/var/folders/rt/4gvqv631095f64jvm7jfj_000000gn/T//ccA8CvEa.s:621    .text.jsmn_parse:0000000000000294 .L31
/var/folders/rt/4gvqv631095f64jvm7jfj_000000gn/T//ccA8CvEa.s:715    .text.jsmn_parse:000000000000032c .L38
/var/folders/rt/4gvqv631095f64jvm7jfj_000000gn/T//ccA8CvEa.s:395    .text.jsmn_parse:00000000000001c2 .L86
/var/folders/rt/4gvqv631095f64jvm7jfj_000000gn/T//ccA8CvEa.s:699    .text.jsmn_parse:000000000000030e .L37
/var/folders/rt/4gvqv631095f64jvm7jfj_000000gn/T//ccA8CvEa.s:758    .text.jsmn_parse:000000000000037c .L40
/var/folders/rt/4gvqv631095f64jvm7jfj_000000gn/T//ccA8CvEa.s:768    .text.jsmn_parse:0000000000000386 .L43
/var/folders/rt/4gvqv631095f64jvm7jfj_000000gn/T//ccA8CvEa.s:722    .text.jsmn_parse:0000000000000332 .L41
/var/folders/rt/4gvqv631095f64jvm7jfj_000000gn/T//ccA8CvEa.s:729    .text.jsmn_parse:000000000000033e .L42
/var/folders/rt/4gvqv631095f64jvm7jfj_000000gn/T//ccA8CvEa.s:773    .text.jsmn_parse:0000000000000390 .L47
/var/folders/rt/4gvqv631095f64jvm7jfj_000000gn/T//ccA8CvEa.s:442    .text.jsmn_parse:00000000000001e6 .L88
/var/folders/rt/4gvqv631095f64jvm7jfj_000000gn/T//ccA8CvEa.s:762    .text.jsmn_parse:000000000000037e .L85
/var/folders/rt/4gvqv631095f64jvm7jfj_000000gn/T//ccA8CvEa.s:831    .text.jsmn_parse:00000000000003c6 .L53
/var/folders/rt/4gvqv631095f64jvm7jfj_000000gn/T//ccA8CvEa.s:214    .text.jsmn_parse:00000000000000e2 .L60
/var/folders/rt/4gvqv631095f64jvm7jfj_000000gn/T//ccA8CvEa.s:102    .text.jsmn_parse:000000000000005a .L52
/var/folders/rt/4gvqv631095f64jvm7jfj_000000gn/T//ccA8CvEa.s:1911   .rodata.renderAllPlants.str1.4:0000000000000000 .LC0
/var/folders/rt/4gvqv631095f64jvm7jfj_000000gn/T//ccA8CvEa.s:949    .text.renderAllPlants:0000000000000040 .L97
/var/folders/rt/4gvqv631095f64jvm7jfj_000000gn/T//ccA8CvEa.s:918    .text.renderAllPlants:0000000000000026 .L96
/var/folders/rt/4gvqv631095f64jvm7jfj_000000gn/T//ccA8CvEa.s:1915   .rodata.renderOnePlant.str1.4:0000000000000000 .LC1
/var/folders/rt/4gvqv631095f64jvm7jfj_000000gn/T//ccA8CvEa.s:1077   .text.renderOnePlant:000000000000002e .L102
GAS LISTING /var/folders/rt/4gvqv631095f64jvm7jfj_000000gn/T//ccA8CvEa.s 			page 67


/var/folders/rt/4gvqv631095f64jvm7jfj_000000gn/T//ccA8CvEa.s:1196   .text.renderOnePlant:0000000000000136 .L104
/var/folders/rt/4gvqv631095f64jvm7jfj_000000gn/T//ccA8CvEa.s:1217   .text.renderOnePlant:000000000000014a .L101
/var/folders/rt/4gvqv631095f64jvm7jfj_000000gn/T//ccA8CvEa.s:1062   .text.renderOnePlant:0000000000000012 .L100
/var/folders/rt/4gvqv631095f64jvm7jfj_000000gn/T//ccA8CvEa.s:1919   .rodata.updatePlantReading.str1.4:0000000000000000 .LC2
/var/folders/rt/4gvqv631095f64jvm7jfj_000000gn/T//ccA8CvEa.s:1922   .rodata.updatePlantReading.str1.4:0000000000000004 .LC3
/var/folders/rt/4gvqv631095f64jvm7jfj_000000gn/T//ccA8CvEa.s:1302   .text.updatePlantReading:0000000000000046 .L113
/var/folders/rt/4gvqv631095f64jvm7jfj_000000gn/T//ccA8CvEa.s:1412   .text.updatePlantReading:00000000000000f8 .L115
/var/folders/rt/4gvqv631095f64jvm7jfj_000000gn/T//ccA8CvEa.s:1420   .text.updatePlantReading:0000000000000102 .L108
/var/folders/rt/4gvqv631095f64jvm7jfj_000000gn/T//ccA8CvEa.s:1389   .text.updatePlantReading:00000000000000ce .L109
/var/folders/rt/4gvqv631095f64jvm7jfj_000000gn/T//ccA8CvEa.s:1349   .text.updatePlantReading:0000000000000098 .L110
/var/folders/rt/4gvqv631095f64jvm7jfj_000000gn/T//ccA8CvEa.s:1367   .text.updatePlantReading:00000000000000c0 .L106
/var/folders/rt/4gvqv631095f64jvm7jfj_000000gn/T//ccA8CvEa.s:1278   .text.updatePlantReading:0000000000000014 .L107
/var/folders/rt/4gvqv631095f64jvm7jfj_000000gn/T//ccA8CvEa.s:1884   .rodata.jsonAllPlants.str1.4:0000000000000000 .LC4
/var/folders/rt/4gvqv631095f64jvm7jfj_000000gn/T//ccA8CvEa.s:1898   .rodata.receiveCommands.str1.4:0000000000000000 .LC5
/var/folders/rt/4gvqv631095f64jvm7jfj_000000gn/T//ccA8CvEa.s:1900   .rodata.receiveCommands.str1.4:0000000000000014 .LC6
/var/folders/rt/4gvqv631095f64jvm7jfj_000000gn/T//ccA8CvEa.s:1902   .rodata.receiveCommands.str1.4:0000000000000024 .LC7
/var/folders/rt/4gvqv631095f64jvm7jfj_000000gn/T//ccA8CvEa.s:1905   .rodata.receiveCommands.str1.4:0000000000000034 .LC8
/var/folders/rt/4gvqv631095f64jvm7jfj_000000gn/T//ccA8CvEa.s:1907   .rodata.receiveCommands.str1.4:0000000000000048 .LC9
/var/folders/rt/4gvqv631095f64jvm7jfj_000000gn/T//ccA8CvEa.s:1606   .text.receiveCommands:000000000000009a .L118
/var/folders/rt/4gvqv631095f64jvm7jfj_000000gn/T//ccA8CvEa.s:1698   .text.receiveCommands:000000000000014a .L120
/var/folders/rt/4gvqv631095f64jvm7jfj_000000gn/T//ccA8CvEa.s:1626   .text.receiveCommands:00000000000000b4 .L121
/var/folders/rt/4gvqv631095f64jvm7jfj_000000gn/T//ccA8CvEa.s:1670   .text.receiveCommands:0000000000000108 .L123
/var/folders/rt/4gvqv631095f64jvm7jfj_000000gn/T//ccA8CvEa.s:1601   .text.receiveCommands:0000000000000096 .L122
/var/folders/rt/4gvqv631095f64jvm7jfj_000000gn/T//ccA8CvEa.s:1663   .text.receiveCommands:00000000000000fe .L127
/var/folders/rt/4gvqv631095f64jvm7jfj_000000gn/T//ccA8CvEa.s:1569   .text.receiveCommands:0000000000000052 .L119
/var/folders/rt/4gvqv631095f64jvm7jfj_000000gn/T//ccA8CvEa.s:1888   .rodata.main.str1.4:0000000000000000 .LC10
/var/folders/rt/4gvqv631095f64jvm7jfj_000000gn/T//ccA8CvEa.s:1891   .rodata.main.str1.4:0000000000000008 .LC11
/var/folders/rt/4gvqv631095f64jvm7jfj_000000gn/T//ccA8CvEa.s:1894   .rodata.main.str1.4:0000000000000010 .LC12
/var/folders/rt/4gvqv631095f64jvm7jfj_000000gn/T//ccA8CvEa.s:1847   .text.startup.main:000000000000010e .L130
/var/folders/rt/4gvqv631095f64jvm7jfj_000000gn/T//ccA8CvEa.s:1831   .text.startup.main:00000000000000f8 .L129
/var/folders/rt/4gvqv631095f64jvm7jfj_000000gn/T//ccA8CvEa.s:5812   .debug_abbrev:0000000000000000 .Ldebug_abbrev0
/var/folders/rt/4gvqv631095f64jvm7jfj_000000gn/T//ccA8CvEa.s:8879   .debug_str:00000000000006b9 .LASF205
/var/folders/rt/4gvqv631095f64jvm7jfj_000000gn/T//ccA8CvEa.s:8713   .debug_str:0000000000000381 .LASF206
/var/folders/rt/4gvqv631095f64jvm7jfj_000000gn/T//ccA8CvEa.s:8883   .debug_str:000000000000074a .LASF207
/var/folders/rt/4gvqv631095f64jvm7jfj_000000gn/T//ccA8CvEa.s:8401   .debug_ranges:0000000000000000 .Ldebug_ranges0
/var/folders/rt/4gvqv631095f64jvm7jfj_000000gn/T//ccA8CvEa.s:8539   .debug_line:0000000000000000 .Ldebug_line0
/var/folders/rt/4gvqv631095f64jvm7jfj_000000gn/T//ccA8CvEa.s:8859   .debug_str:0000000000000650 .LASF0
/var/folders/rt/4gvqv631095f64jvm7jfj_000000gn/T//ccA8CvEa.s:8595   .debug_str:000000000000012c .LASF1
/var/folders/rt/4gvqv631095f64jvm7jfj_000000gn/T//ccA8CvEa.s:8787   .debug_str:0000000000000508 .LASF2
/var/folders/rt/4gvqv631095f64jvm7jfj_000000gn/T//ccA8CvEa.s:8863   .debug_str:0000000000000668 .LASF3
/var/folders/rt/4gvqv631095f64jvm7jfj_000000gn/T//ccA8CvEa.s:8887   .debug_str:000000000000079f .LASF4
/var/folders/rt/4gvqv631095f64jvm7jfj_000000gn/T//ccA8CvEa.s:8565   .debug_str:000000000000007a .LASF5
/var/folders/rt/4gvqv631095f64jvm7jfj_000000gn/T//ccA8CvEa.s:8655   .debug_str:0000000000000255 .LASF9
/var/folders/rt/4gvqv631095f64jvm7jfj_000000gn/T//ccA8CvEa.s:8679   .debug_str:00000000000002c7 .LASF6
/var/folders/rt/4gvqv631095f64jvm7jfj_000000gn/T//ccA8CvEa.s:8635   .debug_str:00000000000001f2 .LASF7
/var/folders/rt/4gvqv631095f64jvm7jfj_000000gn/T//ccA8CvEa.s:8575   .debug_str:00000000000000bc .LASF8
/var/folders/rt/4gvqv631095f64jvm7jfj_000000gn/T//ccA8CvEa.s:8903   .debug_str:00000000000007f5 .LASF10
/var/folders/rt/4gvqv631095f64jvm7jfj_000000gn/T//ccA8CvEa.s:8673   .debug_str:000000000000029f .LASF121
/var/folders/rt/4gvqv631095f64jvm7jfj_000000gn/T//ccA8CvEa.s:8549   .debug_str:000000000000002d .LASF11
/var/folders/rt/4gvqv631095f64jvm7jfj_000000gn/T//ccA8CvEa.s:8849   .debug_str:0000000000000629 .LASF12
/var/folders/rt/4gvqv631095f64jvm7jfj_000000gn/T//ccA8CvEa.s:8837   .debug_str:00000000000005fa .LASF13
/var/folders/rt/4gvqv631095f64jvm7jfj_000000gn/T//ccA8CvEa.s:8591   .debug_str:000000000000011e .LASF14
/var/folders/rt/4gvqv631095f64jvm7jfj_000000gn/T//ccA8CvEa.s:8847   .debug_str:0000000000000621 .LASF15
/var/folders/rt/4gvqv631095f64jvm7jfj_000000gn/T//ccA8CvEa.s:8917   .debug_str:0000000000000844 .LASF16
/var/folders/rt/4gvqv631095f64jvm7jfj_000000gn/T//ccA8CvEa.s:8711   .debug_str:000000000000037b .LASF17
/var/folders/rt/4gvqv631095f64jvm7jfj_000000gn/T//ccA8CvEa.s:8671   .debug_str:0000000000000298 .LASF18
/var/folders/rt/4gvqv631095f64jvm7jfj_000000gn/T//ccA8CvEa.s:8839   .debug_str:0000000000000601 .LASF19
GAS LISTING /var/folders/rt/4gvqv631095f64jvm7jfj_000000gn/T//ccA8CvEa.s 			page 68


/var/folders/rt/4gvqv631095f64jvm7jfj_000000gn/T//ccA8CvEa.s:8841   .debug_str:0000000000000609 .LASF20
/var/folders/rt/4gvqv631095f64jvm7jfj_000000gn/T//ccA8CvEa.s:8775   .debug_str:00000000000004c3 .LASF21
/var/folders/rt/4gvqv631095f64jvm7jfj_000000gn/T//ccA8CvEa.s:8893   .debug_str:00000000000007be .LASF22
/var/folders/rt/4gvqv631095f64jvm7jfj_000000gn/T//ccA8CvEa.s:8779   .debug_str:00000000000004d6 .LASF23
/var/folders/rt/4gvqv631095f64jvm7jfj_000000gn/T//ccA8CvEa.s:8929   .debug_str:000000000000087f .LASF24
/var/folders/rt/4gvqv631095f64jvm7jfj_000000gn/T//ccA8CvEa.s:8663   .debug_str:000000000000027a .LASF29
/var/folders/rt/4gvqv631095f64jvm7jfj_000000gn/T//ccA8CvEa.s:8875   .debug_str:00000000000006a6 .LASF25
/var/folders/rt/4gvqv631095f64jvm7jfj_000000gn/T//ccA8CvEa.s:8831   .debug_str:00000000000005e5 .LASF26
/var/folders/rt/4gvqv631095f64jvm7jfj_000000gn/T//ccA8CvEa.s:8657   .debug_str:0000000000000260 .LASF27
/var/folders/rt/4gvqv631095f64jvm7jfj_000000gn/T//ccA8CvEa.s:8911   .debug_str:0000000000000827 .LASF28
/var/folders/rt/4gvqv631095f64jvm7jfj_000000gn/T//ccA8CvEa.s:8669   .debug_str:0000000000000293 .LASF30
/var/folders/rt/4gvqv631095f64jvm7jfj_000000gn/T//ccA8CvEa.s:8587   .debug_str:000000000000010e .LASF31
/var/folders/rt/4gvqv631095f64jvm7jfj_000000gn/T//ccA8CvEa.s:8941   .debug_str:00000000000008c5 .LASF32
/var/folders/rt/4gvqv631095f64jvm7jfj_000000gn/T//ccA8CvEa.s:8607   .debug_str:000000000000015b .LASF33
/var/folders/rt/4gvqv631095f64jvm7jfj_000000gn/T//ccA8CvEa.s:8961   .debug_str:000000000000092c .LASF34
/var/folders/rt/4gvqv631095f64jvm7jfj_000000gn/T//ccA8CvEa.s:8751   .debug_str:0000000000000445 .LASF35
/var/folders/rt/4gvqv631095f64jvm7jfj_000000gn/T//ccA8CvEa.s:8731   .debug_str:00000000000003cb .LASF36
/var/folders/rt/4gvqv631095f64jvm7jfj_000000gn/T//ccA8CvEa.s:8845   .debug_str:0000000000000617 .LASF37
/var/folders/rt/4gvqv631095f64jvm7jfj_000000gn/T//ccA8CvEa.s:8795   .debug_str:000000000000052d .LASF38
/var/folders/rt/4gvqv631095f64jvm7jfj_000000gn/T//ccA8CvEa.s:8735   .debug_str:00000000000003de .LASF39
/var/folders/rt/4gvqv631095f64jvm7jfj_000000gn/T//ccA8CvEa.s:8611   .debug_str:000000000000016a .LASF40
/var/folders/rt/4gvqv631095f64jvm7jfj_000000gn/T//ccA8CvEa.s:8547   .debug_str:0000000000000025 .LASF41
/var/folders/rt/4gvqv631095f64jvm7jfj_000000gn/T//ccA8CvEa.s:8541   .debug_str:0000000000000000 .LASF42
/var/folders/rt/4gvqv631095f64jvm7jfj_000000gn/T//ccA8CvEa.s:8881   .debug_str:0000000000000741 .LASF43
/var/folders/rt/4gvqv631095f64jvm7jfj_000000gn/T//ccA8CvEa.s:8627   .debug_str:00000000000001c6 .LASF44
/var/folders/rt/4gvqv631095f64jvm7jfj_000000gn/T//ccA8CvEa.s:8753   .debug_str:000000000000044e .LASF45
/var/folders/rt/4gvqv631095f64jvm7jfj_000000gn/T//ccA8CvEa.s:8819   .debug_str:000000000000059c .LASF46
/var/folders/rt/4gvqv631095f64jvm7jfj_000000gn/T//ccA8CvEa.s:8653   .debug_str:0000000000000250 .LASF47
/var/folders/rt/4gvqv631095f64jvm7jfj_000000gn/T//ccA8CvEa.s:8797   .debug_str:0000000000000537 .LASF48
/var/folders/rt/4gvqv631095f64jvm7jfj_000000gn/T//ccA8CvEa.s:8605   .debug_str:0000000000000155 .LASF49
/var/folders/rt/4gvqv631095f64jvm7jfj_000000gn/T//ccA8CvEa.s:8857   .debug_str:000000000000064a .LASF50
/var/folders/rt/4gvqv631095f64jvm7jfj_000000gn/T//ccA8CvEa.s:8805   .debug_str:0000000000000554 .LASF51
/var/folders/rt/4gvqv631095f64jvm7jfj_000000gn/T//ccA8CvEa.s:8625   .debug_str:00000000000001bf .LASF52
/var/folders/rt/4gvqv631095f64jvm7jfj_000000gn/T//ccA8CvEa.s:8681   .debug_str:00000000000002d9 .LASF53
/var/folders/rt/4gvqv631095f64jvm7jfj_000000gn/T//ccA8CvEa.s:8957   .debug_str:0000000000000917 .LASF54
/var/folders/rt/4gvqv631095f64jvm7jfj_000000gn/T//ccA8CvEa.s:8615   .debug_str:0000000000000180 .LASF55
/var/folders/rt/4gvqv631095f64jvm7jfj_000000gn/T//ccA8CvEa.s:8667   .debug_str:000000000000028d .LASF56
/var/folders/rt/4gvqv631095f64jvm7jfj_000000gn/T//ccA8CvEa.s:8729   .debug_str:00000000000003c4 .LASF57
/var/folders/rt/4gvqv631095f64jvm7jfj_000000gn/T//ccA8CvEa.s:8843   .debug_str:0000000000000611 .LASF58
/var/folders/rt/4gvqv631095f64jvm7jfj_000000gn/T//ccA8CvEa.s:8593   .debug_str:0000000000000125 .LASF59
/var/folders/rt/4gvqv631095f64jvm7jfj_000000gn/T//ccA8CvEa.s:8601   .debug_str:000000000000014a .LASF60
/var/folders/rt/4gvqv631095f64jvm7jfj_000000gn/T//ccA8CvEa.s:8931   .debug_str:0000000000000888 .LASF61
/var/folders/rt/4gvqv631095f64jvm7jfj_000000gn/T//ccA8CvEa.s:8855   .debug_str:0000000000000641 .LASF62
/var/folders/rt/4gvqv631095f64jvm7jfj_000000gn/T//ccA8CvEa.s:8643   .debug_str:0000000000000218 .LASF63
/var/folders/rt/4gvqv631095f64jvm7jfj_000000gn/T//ccA8CvEa.s:8687   .debug_str:00000000000002eb .LASF64
/var/folders/rt/4gvqv631095f64jvm7jfj_000000gn/T//ccA8CvEa.s:8717   .debug_str:000000000000038d .LASF65
/var/folders/rt/4gvqv631095f64jvm7jfj_000000gn/T//ccA8CvEa.s:8807   .debug_str:000000000000055c .LASF66
/var/folders/rt/4gvqv631095f64jvm7jfj_000000gn/T//ccA8CvEa.s:8799   .debug_str:000000000000053e .LASF67
/var/folders/rt/4gvqv631095f64jvm7jfj_000000gn/T//ccA8CvEa.s:8833   .debug_str:00000000000005ed .LASF68
/var/folders/rt/4gvqv631095f64jvm7jfj_000000gn/T//ccA8CvEa.s:8851   .debug_str:0000000000000635 .LASF69
/var/folders/rt/4gvqv631095f64jvm7jfj_000000gn/T//ccA8CvEa.s:8629   .debug_str:00000000000001ce .LASF70
/var/folders/rt/4gvqv631095f64jvm7jfj_000000gn/T//ccA8CvEa.s:8639   .debug_str:0000000000000208 .LASF71
/var/folders/rt/4gvqv631095f64jvm7jfj_000000gn/T//ccA8CvEa.s:8661   .debug_str:0000000000000272 .LASF72
/var/folders/rt/4gvqv631095f64jvm7jfj_000000gn/T//ccA8CvEa.s:8817   .debug_str:0000000000000597 .LASF73
/var/folders/rt/4gvqv631095f64jvm7jfj_000000gn/T//ccA8CvEa.s:8553   .debug_str:000000000000003c .LASF74
/var/folders/rt/4gvqv631095f64jvm7jfj_000000gn/T//ccA8CvEa.s:8827   .debug_str:00000000000005bd .LASF75
/var/folders/rt/4gvqv631095f64jvm7jfj_000000gn/T//ccA8CvEa.s:8823   .debug_str:00000000000005ab .LASF76
GAS LISTING /var/folders/rt/4gvqv631095f64jvm7jfj_000000gn/T//ccA8CvEa.s 			page 69


/var/folders/rt/4gvqv631095f64jvm7jfj_000000gn/T//ccA8CvEa.s:8759   .debug_str:000000000000046d .LASF77
/var/folders/rt/4gvqv631095f64jvm7jfj_000000gn/T//ccA8CvEa.s:8825   .debug_str:00000000000005b3 .LASF78
/var/folders/rt/4gvqv631095f64jvm7jfj_000000gn/T//ccA8CvEa.s:8709   .debug_str:0000000000000373 .LASF79
/var/folders/rt/4gvqv631095f64jvm7jfj_000000gn/T//ccA8CvEa.s:8633   .debug_str:00000000000001e8 .LASF80
/var/folders/rt/4gvqv631095f64jvm7jfj_000000gn/T//ccA8CvEa.s:8953   .debug_str:000000000000090d .LASF81
/var/folders/rt/4gvqv631095f64jvm7jfj_000000gn/T//ccA8CvEa.s:8771   .debug_str:00000000000004b3 .LASF82
/var/folders/rt/4gvqv631095f64jvm7jfj_000000gn/T//ccA8CvEa.s:8677   .debug_str:00000000000002bf .LASF83
/var/folders/rt/4gvqv631095f64jvm7jfj_000000gn/T//ccA8CvEa.s:8641   .debug_str:0000000000000210 .LASF84
/var/folders/rt/4gvqv631095f64jvm7jfj_000000gn/T//ccA8CvEa.s:8715   .debug_str:0000000000000388 .LASF85
/var/folders/rt/4gvqv631095f64jvm7jfj_000000gn/T//ccA8CvEa.s:8561   .debug_str:000000000000006c .LASF86
/var/folders/rt/4gvqv631095f64jvm7jfj_000000gn/T//ccA8CvEa.s:8921   .debug_str:0000000000000857 .LASF87
/var/folders/rt/4gvqv631095f64jvm7jfj_000000gn/T//ccA8CvEa.s:8617   .debug_str:0000000000000188 .LASF88
/var/folders/rt/4gvqv631095f64jvm7jfj_000000gn/T//ccA8CvEa.s:8609   .debug_str:0000000000000165 .LASF89
/var/folders/rt/4gvqv631095f64jvm7jfj_000000gn/T//ccA8CvEa.s:8853   .debug_str:000000000000063c .LASF90
/var/folders/rt/4gvqv631095f64jvm7jfj_000000gn/T//ccA8CvEa.s:8803   .debug_str:000000000000054d .LASF91
/var/folders/rt/4gvqv631095f64jvm7jfj_000000gn/T//ccA8CvEa.s:8913   .debug_str:000000000000082c .LASF92
/var/folders/rt/4gvqv631095f64jvm7jfj_000000gn/T//ccA8CvEa.s:8689   .debug_str:00000000000002f1 .LASF93
/var/folders/rt/4gvqv631095f64jvm7jfj_000000gn/T//ccA8CvEa.s:8789   .debug_str:0000000000000516 .LASF94
/var/folders/rt/4gvqv631095f64jvm7jfj_000000gn/T//ccA8CvEa.s:8551   .debug_str:0000000000000034 .LASF95
/var/folders/rt/4gvqv631095f64jvm7jfj_000000gn/T//ccA8CvEa.s:8835   .debug_str:00000000000005f4 .LASF96
/var/folders/rt/4gvqv631095f64jvm7jfj_000000gn/T//ccA8CvEa.s:8719   .debug_str:0000000000000393 .LASF97
/var/folders/rt/4gvqv631095f64jvm7jfj_000000gn/T//ccA8CvEa.s:8889   .debug_str:00000000000007b2 .LASF98
/var/folders/rt/4gvqv631095f64jvm7jfj_000000gn/T//ccA8CvEa.s:8907   .debug_str:000000000000080a .LASF99
/var/folders/rt/4gvqv631095f64jvm7jfj_000000gn/T//ccA8CvEa.s:8877   .debug_str:00000000000006ac .LASF100
/var/folders/rt/4gvqv631095f64jvm7jfj_000000gn/T//ccA8CvEa.s:8707   .debug_str:0000000000000366 .LASF101
/var/folders/rt/4gvqv631095f64jvm7jfj_000000gn/T//ccA8CvEa.s:8939   .debug_str:00000000000008b6 .LASF102
/var/folders/rt/4gvqv631095f64jvm7jfj_000000gn/T//ccA8CvEa.s:8761   .debug_str:0000000000000478 .LASF103
/var/folders/rt/4gvqv631095f64jvm7jfj_000000gn/T//ccA8CvEa.s:8699   .debug_str:0000000000000332 .LASF104
/var/folders/rt/4gvqv631095f64jvm7jfj_000000gn/T//ccA8CvEa.s:8743   .debug_str:0000000000000414 .LASF105
/var/folders/rt/4gvqv631095f64jvm7jfj_000000gn/T//ccA8CvEa.s:8757   .debug_str:0000000000000460 .LASF106
/var/folders/rt/4gvqv631095f64jvm7jfj_000000gn/T//ccA8CvEa.s:8951   .debug_str:00000000000008ff .LASF107
/var/folders/rt/4gvqv631095f64jvm7jfj_000000gn/T//ccA8CvEa.s:8585   .debug_str:0000000000000100 .LASF108
/var/folders/rt/4gvqv631095f64jvm7jfj_000000gn/T//ccA8CvEa.s:8919   .debug_str:000000000000084d .LASF109
/var/folders/rt/4gvqv631095f64jvm7jfj_000000gn/T//ccA8CvEa.s:8705   .debug_str:000000000000035a .LASF110
/var/folders/rt/4gvqv631095f64jvm7jfj_000000gn/T//ccA8CvEa.s:8895   .debug_str:00000000000007c6 .LASF111
/var/folders/rt/4gvqv631095f64jvm7jfj_000000gn/T//ccA8CvEa.s:8649   .debug_str:000000000000023c .LASF112
/var/folders/rt/4gvqv631095f64jvm7jfj_000000gn/T//ccA8CvEa.s:8583   .debug_str:00000000000000f1 .LASF113
/var/folders/rt/4gvqv631095f64jvm7jfj_000000gn/T//ccA8CvEa.s:8647   .debug_str:000000000000022b .LASF114
/var/folders/rt/4gvqv631095f64jvm7jfj_000000gn/T//ccA8CvEa.s:8567   .debug_str:0000000000000083 .LASF115
/var/folders/rt/4gvqv631095f64jvm7jfj_000000gn/T//ccA8CvEa.s:8571   .debug_str:00000000000000a0 .LASF116
/var/folders/rt/4gvqv631095f64jvm7jfj_000000gn/T//ccA8CvEa.s:8793   .debug_str:0000000000000524 .LASF117
/var/folders/rt/4gvqv631095f64jvm7jfj_000000gn/T//ccA8CvEa.s:8739   .debug_str:00000000000003fc .LASF118
/var/folders/rt/4gvqv631095f64jvm7jfj_000000gn/T//ccA8CvEa.s:8733   .debug_str:00000000000003d5 .LASF119
/var/folders/rt/4gvqv631095f64jvm7jfj_000000gn/T//ccA8CvEa.s:8933   .debug_str:000000000000088e .LASF120
/var/folders/rt/4gvqv631095f64jvm7jfj_000000gn/T//ccA8CvEa.s:8579   .debug_str:00000000000000db .LASF208
/var/folders/rt/4gvqv631095f64jvm7jfj_000000gn/T//ccA8CvEa.s:8659   .debug_str:0000000000000266 .LASF122
/var/folders/rt/4gvqv631095f64jvm7jfj_000000gn/T//ccA8CvEa.s:8899   .debug_str:00000000000007dc .LASF123
/var/folders/rt/4gvqv631095f64jvm7jfj_000000gn/T//ccA8CvEa.s:8755   .debug_str:0000000000000456 .LASF124
/var/folders/rt/4gvqv631095f64jvm7jfj_000000gn/T//ccA8CvEa.s:8573   .debug_str:00000000000000b1 .LASF125
/var/folders/rt/4gvqv631095f64jvm7jfj_000000gn/T//ccA8CvEa.s:8821   .debug_str:00000000000005a1 .LASF126
/var/folders/rt/4gvqv631095f64jvm7jfj_000000gn/T//ccA8CvEa.s:8577   .debug_str:00000000000000d3 .LASF127
/var/folders/rt/4gvqv631095f64jvm7jfj_000000gn/T//ccA8CvEa.s:8813   .debug_str:000000000000057d .LASF128
/var/folders/rt/4gvqv631095f64jvm7jfj_000000gn/T//ccA8CvEa.s:8685   .debug_str:00000000000002e6 .LASF129
/var/folders/rt/4gvqv631095f64jvm7jfj_000000gn/T//ccA8CvEa.s:8569   .debug_str:0000000000000092 .LASF130
/var/folders/rt/4gvqv631095f64jvm7jfj_000000gn/T//ccA8CvEa.s:8599   .debug_str:0000000000000141 .LASF131
/var/folders/rt/4gvqv631095f64jvm7jfj_000000gn/T//ccA8CvEa.s:8621   .debug_str:000000000000019a .LASF132
/var/folders/rt/4gvqv631095f64jvm7jfj_000000gn/T//ccA8CvEa.s:8747   .debug_str:0000000000000420 .LASF133
GAS LISTING /var/folders/rt/4gvqv631095f64jvm7jfj_000000gn/T//ccA8CvEa.s 			page 70


/var/folders/rt/4gvqv631095f64jvm7jfj_000000gn/T//ccA8CvEa.s:8927   .debug_str:0000000000000879 .LASF134
/var/folders/rt/4gvqv631095f64jvm7jfj_000000gn/T//ccA8CvEa.s:8809   .debug_str:0000000000000565 .LASF135
/var/folders/rt/4gvqv631095f64jvm7jfj_000000gn/T//ccA8CvEa.s:8665   .debug_str:0000000000000282 .LASF136
/var/folders/rt/4gvqv631095f64jvm7jfj_000000gn/T//ccA8CvEa.s:8829   .debug_str:00000000000005d6 .LASF137
/var/folders/rt/4gvqv631095f64jvm7jfj_000000gn/T//ccA8CvEa.s:8701   .debug_str:000000000000033d .LASF138
/var/folders/rt/4gvqv631095f64jvm7jfj_000000gn/T//ccA8CvEa.s:8871   .debug_str:000000000000068c .LASF139
/var/folders/rt/4gvqv631095f64jvm7jfj_000000gn/T//ccA8CvEa.s:8905   .debug_str:00000000000007fe .LASF140
/var/folders/rt/4gvqv631095f64jvm7jfj_000000gn/T//ccA8CvEa.s:8557   .debug_str:000000000000004f .LASF141
/var/folders/rt/4gvqv631095f64jvm7jfj_000000gn/T//ccA8CvEa.s:8645   .debug_str:0000000000000220 .LASF142
/var/folders/rt/4gvqv631095f64jvm7jfj_000000gn/T//ccA8CvEa.s:8791   .debug_str:000000000000051c .LASF209
/var/folders/rt/4gvqv631095f64jvm7jfj_000000gn/T//ccA8CvEa.s:8703   .debug_str:0000000000000349 .LASF143
/var/folders/rt/4gvqv631095f64jvm7jfj_000000gn/T//ccA8CvEa.s:8623   .debug_str:00000000000001ae .LASF144
/var/folders/rt/4gvqv631095f64jvm7jfj_000000gn/T//ccA8CvEa.s:8781   .debug_str:00000000000004e8 .LASF145
/var/folders/rt/4gvqv631095f64jvm7jfj_000000gn/T//ccA8CvEa.s:8785   .debug_str:0000000000000500 .LASF146
/var/folders/rt/4gvqv631095f64jvm7jfj_000000gn/T//ccA8CvEa.s:8563   .debug_str:0000000000000075 .LASF147
/var/folders/rt/4gvqv631095f64jvm7jfj_000000gn/T//ccA8CvEa.s:8947   .debug_str:00000000000008f0 .LASF148
/var/folders/rt/4gvqv631095f64jvm7jfj_000000gn/T//ccA8CvEa.s:8603   .debug_str:0000000000000150 .LASF149
/var/folders/rt/4gvqv631095f64jvm7jfj_000000gn/T//ccA8CvEa.s:8721   .debug_str:0000000000000399 .LASF150
/var/folders/rt/4gvqv631095f64jvm7jfj_000000gn/T//ccA8CvEa.s:8749   .debug_str:0000000000000439 .LASF151
/var/folders/rt/4gvqv631095f64jvm7jfj_000000gn/T//ccA8CvEa.s:8777   .debug_str:00000000000004ce .LASF152
/var/folders/rt/4gvqv631095f64jvm7jfj_000000gn/T//ccA8CvEa.s:8597   .debug_str:0000000000000138 .LASF153
/var/folders/rt/4gvqv631095f64jvm7jfj_000000gn/T//ccA8CvEa.s:8765   .debug_str:0000000000000490 .LASF154
/var/folders/rt/4gvqv631095f64jvm7jfj_000000gn/T//ccA8CvEa.s:8737   .debug_str:00000000000003e9 .LASF155
/var/folders/rt/4gvqv631095f64jvm7jfj_000000gn/T//ccA8CvEa.s:8955   .debug_str:0000000000000912 .LASF171
/var/folders/rt/4gvqv631095f64jvm7jfj_000000gn/T//ccA8CvEa.s:1712   .text.startup.main:0000000000000000 .LFB18
/var/folders/rt/4gvqv631095f64jvm7jfj_000000gn/T//ccA8CvEa.s:1880   .text.startup.main:000000000000014c .LFE18
/var/folders/rt/4gvqv631095f64jvm7jfj_000000gn/T//ccA8CvEa.s:7086   .debug_loc:0000000000000000 .LLST63
/var/folders/rt/4gvqv631095f64jvm7jfj_000000gn/T//ccA8CvEa.s:7104   .debug_loc:000000000000002e .LLST64
/var/folders/rt/4gvqv631095f64jvm7jfj_000000gn/T//ccA8CvEa.s:8767   .debug_str:000000000000049e .LASF156
/var/folders/rt/4gvqv631095f64jvm7jfj_000000gn/T//ccA8CvEa.s:7128   .debug_loc:0000000000000067 .LLST65
/var/folders/rt/4gvqv631095f64jvm7jfj_000000gn/T//ccA8CvEa.s:8725   .debug_str:00000000000003b3 .LASF157
/var/folders/rt/4gvqv631095f64jvm7jfj_000000gn/T//ccA8CvEa.s:8811   .debug_str:000000000000056e .LASF158
/var/folders/rt/4gvqv631095f64jvm7jfj_000000gn/T//ccA8CvEa.s:1765   .text.startup.main:0000000000000056 .LVL148
/var/folders/rt/4gvqv631095f64jvm7jfj_000000gn/T//ccA8CvEa.s:1772   .text.startup.main:000000000000006a .LVL149
/var/folders/rt/4gvqv631095f64jvm7jfj_000000gn/T//ccA8CvEa.s:1779   .text.startup.main:000000000000007e .LVL150
/var/folders/rt/4gvqv631095f64jvm7jfj_000000gn/T//ccA8CvEa.s:1782   .text.startup.main:0000000000000086 .LVL151
/var/folders/rt/4gvqv631095f64jvm7jfj_000000gn/T//ccA8CvEa.s:1785   .text.startup.main:000000000000008e .LVL152
/var/folders/rt/4gvqv631095f64jvm7jfj_000000gn/T//ccA8CvEa.s:1788   .text.startup.main:0000000000000096 .LVL153
/var/folders/rt/4gvqv631095f64jvm7jfj_000000gn/T//ccA8CvEa.s:1791   .text.startup.main:000000000000009e .LVL154
/var/folders/rt/4gvqv631095f64jvm7jfj_000000gn/T//ccA8CvEa.s:1795   .text.startup.main:00000000000000a8 .LVL155
/var/folders/rt/4gvqv631095f64jvm7jfj_000000gn/T//ccA8CvEa.s:1799   .text.startup.main:00000000000000b2 .LVL156
/var/folders/rt/4gvqv631095f64jvm7jfj_000000gn/T//ccA8CvEa.s:1802   .text.startup.main:00000000000000ba .LVL157
/var/folders/rt/4gvqv631095f64jvm7jfj_000000gn/T//ccA8CvEa.s:1806   .text.startup.main:00000000000000c4 .LVL158
/var/folders/rt/4gvqv631095f64jvm7jfj_000000gn/T//ccA8CvEa.s:1810   .text.startup.main:00000000000000ce .LVL159
/var/folders/rt/4gvqv631095f64jvm7jfj_000000gn/T//ccA8CvEa.s:1813   .text.startup.main:00000000000000d6 .LVL160
/var/folders/rt/4gvqv631095f64jvm7jfj_000000gn/T//ccA8CvEa.s:1821   .text.startup.main:00000000000000ec .LVL161
/var/folders/rt/4gvqv631095f64jvm7jfj_000000gn/T//ccA8CvEa.s:1846   .text.startup.main:000000000000010e .LVL164
/var/folders/rt/4gvqv631095f64jvm7jfj_000000gn/T//ccA8CvEa.s:1851   .text.startup.main:0000000000000116 .LVL165
/var/folders/rt/4gvqv631095f64jvm7jfj_000000gn/T//ccA8CvEa.s:1858   .text.startup.main:0000000000000122 .LVL167
/var/folders/rt/4gvqv631095f64jvm7jfj_000000gn/T//ccA8CvEa.s:1860   .text.startup.main:000000000000012a .LVL168
/var/folders/rt/4gvqv631095f64jvm7jfj_000000gn/T//ccA8CvEa.s:1869   .text.startup.main:000000000000013c .LVL169
/var/folders/rt/4gvqv631095f64jvm7jfj_000000gn/T//ccA8CvEa.s:1874   .text.startup.main:0000000000000148 .LVL170
/var/folders/rt/4gvqv631095f64jvm7jfj_000000gn/T//ccA8CvEa.s:8769   .debug_str:00000000000004a3 .LASF160
/var/folders/rt/4gvqv631095f64jvm7jfj_000000gn/T//ccA8CvEa.s:1515   .text.receiveCommands:0000000000000000 .LFB17
/var/folders/rt/4gvqv631095f64jvm7jfj_000000gn/T//ccA8CvEa.s:1705   .text.receiveCommands:000000000000014e .LFE17
/var/folders/rt/4gvqv631095f64jvm7jfj_000000gn/T//ccA8CvEa.s:7145   .debug_loc:0000000000000092 .LLST59
/var/folders/rt/4gvqv631095f64jvm7jfj_000000gn/T//ccA8CvEa.s:7168   .debug_loc:00000000000000cc .LLST60
GAS LISTING /var/folders/rt/4gvqv631095f64jvm7jfj_000000gn/T//ccA8CvEa.s 			page 71


/var/folders/rt/4gvqv631095f64jvm7jfj_000000gn/T//ccA8CvEa.s:7212   .debug_loc:0000000000000135 .LLST61
/var/folders/rt/4gvqv631095f64jvm7jfj_000000gn/T//ccA8CvEa.s:7234   .debug_loc:000000000000016c .LLST62
/var/folders/rt/4gvqv631095f64jvm7jfj_000000gn/T//ccA8CvEa.s:1639   .text.receiveCommands:00000000000000ca .LBB93
/var/folders/rt/4gvqv631095f64jvm7jfj_000000gn/T//ccA8CvEa.s:1664   .text.receiveCommands:00000000000000fe .LBE93
/var/folders/rt/4gvqv631095f64jvm7jfj_000000gn/T//ccA8CvEa.s:8695   .debug_str:000000000000030f .LASF159
/var/folders/rt/4gvqv631095f64jvm7jfj_000000gn/T//ccA8CvEa.s:1642   .text.receiveCommands:00000000000000d2 .LVL135
/var/folders/rt/4gvqv631095f64jvm7jfj_000000gn/T//ccA8CvEa.s:1652   .text.receiveCommands:00000000000000ec .LVL136
/var/folders/rt/4gvqv631095f64jvm7jfj_000000gn/T//ccA8CvEa.s:1659   .text.receiveCommands:00000000000000fc .LVL137
/var/folders/rt/4gvqv631095f64jvm7jfj_000000gn/T//ccA8CvEa.s:1590   .text.receiveCommands:000000000000007e .LVL129
/var/folders/rt/4gvqv631095f64jvm7jfj_000000gn/T//ccA8CvEa.s:1595   .text.receiveCommands:0000000000000088 .LVL130
/var/folders/rt/4gvqv631095f64jvm7jfj_000000gn/T//ccA8CvEa.s:1600   .text.receiveCommands:0000000000000096 .LVL131
/var/folders/rt/4gvqv631095f64jvm7jfj_000000gn/T//ccA8CvEa.s:1636   .text.receiveCommands:00000000000000c8 .LVL134
/var/folders/rt/4gvqv631095f64jvm7jfj_000000gn/T//ccA8CvEa.s:1667   .text.receiveCommands:0000000000000106 .LVL139
/var/folders/rt/4gvqv631095f64jvm7jfj_000000gn/T//ccA8CvEa.s:1674   .text.receiveCommands:0000000000000112 .LVL141
/var/folders/rt/4gvqv631095f64jvm7jfj_000000gn/T//ccA8CvEa.s:1685   .text.receiveCommands:000000000000012e .LVL143
/var/folders/rt/4gvqv631095f64jvm7jfj_000000gn/T//ccA8CvEa.s:1693   .text.receiveCommands:0000000000000144 .LVL144
/var/folders/rt/4gvqv631095f64jvm7jfj_000000gn/T//ccA8CvEa.s:1543   .text.receiveCommands:0000000000000026 .LVL126
/var/folders/rt/4gvqv631095f64jvm7jfj_000000gn/T//ccA8CvEa.s:1553   .text.receiveCommands:0000000000000040 .LVL127
/var/folders/rt/4gvqv631095f64jvm7jfj_000000gn/T//ccA8CvEa.s:8559   .debug_str:000000000000005e .LASF161
/var/folders/rt/4gvqv631095f64jvm7jfj_000000gn/T//ccA8CvEa.s:1436   .text.jsonAllPlants:0000000000000000 .LFB16
/var/folders/rt/4gvqv631095f64jvm7jfj_000000gn/T//ccA8CvEa.s:1508   .text.jsonAllPlants:0000000000000094 .LFE16
/var/folders/rt/4gvqv631095f64jvm7jfj_000000gn/T//ccA8CvEa.s:7250   .debug_loc:0000000000000196 .LLST55
/var/folders/rt/4gvqv631095f64jvm7jfj_000000gn/T//ccA8CvEa.s:7268   .debug_loc:00000000000001c2 .LLST56
/var/folders/rt/4gvqv631095f64jvm7jfj_000000gn/T//ccA8CvEa.s:7282   .debug_loc:00000000000001e3 .LLST57
/var/folders/rt/4gvqv631095f64jvm7jfj_000000gn/T//ccA8CvEa.s:7300   .debug_loc:000000000000020f .LLST58
/var/folders/rt/4gvqv631095f64jvm7jfj_000000gn/T//ccA8CvEa.s:1499   .text.jsonAllPlants:000000000000008e .LVL123
/var/folders/rt/4gvqv631095f64jvm7jfj_000000gn/T//ccA8CvEa.s:8631   .debug_str:00000000000001d5 .LASF162
/var/folders/rt/4gvqv631095f64jvm7jfj_000000gn/T//ccA8CvEa.s:1247   .text.updatePlantReading:0000000000000000 .LFB15
/var/folders/rt/4gvqv631095f64jvm7jfj_000000gn/T//ccA8CvEa.s:1429   .text.updatePlantReading:000000000000010a .LFE15
/var/folders/rt/4gvqv631095f64jvm7jfj_000000gn/T//ccA8CvEa.s:7314   .debug_loc:0000000000000230 .LLST48
/var/folders/rt/4gvqv631095f64jvm7jfj_000000gn/T//ccA8CvEa.s:7337   .debug_loc:000000000000026a .LLST49
/var/folders/rt/4gvqv631095f64jvm7jfj_000000gn/T//ccA8CvEa.s:7351   .debug_loc:000000000000028b .LLST50
/var/folders/rt/4gvqv631095f64jvm7jfj_000000gn/T//ccA8CvEa.s:7373   .debug_loc:00000000000002c2 .LLST51
/var/folders/rt/4gvqv631095f64jvm7jfj_000000gn/T//ccA8CvEa.s:7428   .debug_loc:0000000000000344 .LLST52
/var/folders/rt/4gvqv631095f64jvm7jfj_000000gn/T//ccA8CvEa.s:7483   .debug_loc:00000000000003c6 .LLST53
/var/folders/rt/4gvqv631095f64jvm7jfj_000000gn/T//ccA8CvEa.s:8915   .debug_str:0000000000000832 .LASF163
/var/folders/rt/4gvqv631095f64jvm7jfj_000000gn/T//ccA8CvEa.s:8693   .debug_str:0000000000000302 .LASF164
/var/folders/rt/4gvqv631095f64jvm7jfj_000000gn/T//ccA8CvEa.s:7499   .debug_loc:00000000000003f0 .LLST54
/var/folders/rt/4gvqv631095f64jvm7jfj_000000gn/T//ccA8CvEa.s:1326   .text.updatePlantReading:000000000000006a .LVL106
/var/folders/rt/4gvqv631095f64jvm7jfj_000000gn/T//ccA8CvEa.s:1333   .text.updatePlantReading:000000000000007c .LVL107
/var/folders/rt/4gvqv631095f64jvm7jfj_000000gn/T//ccA8CvEa.s:1360   .text.updatePlantReading:00000000000000b6 .LVL109
/var/folders/rt/4gvqv631095f64jvm7jfj_000000gn/T//ccA8CvEa.s:1402   .text.updatePlantReading:00000000000000e4 .LVL115
/var/folders/rt/4gvqv631095f64jvm7jfj_000000gn/T//ccA8CvEa.s:1312   .text.updatePlantReading:0000000000000056 .LVL104
/var/folders/rt/4gvqv631095f64jvm7jfj_000000gn/T//ccA8CvEa.s:1291   .text.updatePlantReading:000000000000002e .LVL102
/var/folders/rt/4gvqv631095f64jvm7jfj_000000gn/T//ccA8CvEa.s:1417   .text.updatePlantReading:0000000000000100 .LVL117
/var/folders/rt/4gvqv631095f64jvm7jfj_000000gn/T//ccA8CvEa.s:8943   .debug_str:00000000000008ce .LASF165
/var/folders/rt/4gvqv631095f64jvm7jfj_000000gn/T//ccA8CvEa.s:1234   .text.updatePlantStatus:0000000000000000 .LFB14
/var/folders/rt/4gvqv631095f64jvm7jfj_000000gn/T//ccA8CvEa.s:1240   .text.updatePlantStatus:0000000000000002 .LFE14
/var/folders/rt/4gvqv631095f64jvm7jfj_000000gn/T//ccA8CvEa.s:8925   .debug_str:000000000000086b .LASF166
/var/folders/rt/4gvqv631095f64jvm7jfj_000000gn/T//ccA8CvEa.s:8873   .debug_str:0000000000000697 .LASF167
/var/folders/rt/4gvqv631095f64jvm7jfj_000000gn/T//ccA8CvEa.s:1033   .text.renderOnePlant:0000000000000000 .LFB13
/var/folders/rt/4gvqv631095f64jvm7jfj_000000gn/T//ccA8CvEa.s:1227   .text.renderOnePlant:000000000000014e .LFE13
/var/folders/rt/4gvqv631095f64jvm7jfj_000000gn/T//ccA8CvEa.s:7532   .debug_loc:0000000000000426 .LLST43
/var/folders/rt/4gvqv631095f64jvm7jfj_000000gn/T//ccA8CvEa.s:7555   .debug_loc:000000000000045e .LLST44
/var/folders/rt/4gvqv631095f64jvm7jfj_000000gn/T//ccA8CvEa.s:7569   .debug_loc:000000000000047f .LLST45
/var/folders/rt/4gvqv631095f64jvm7jfj_000000gn/T//ccA8CvEa.s:7591   .debug_loc:00000000000004b6 .LLST46
/var/folders/rt/4gvqv631095f64jvm7jfj_000000gn/T//ccA8CvEa.s:7634   .debug_loc:000000000000051e .LLST47
GAS LISTING /var/folders/rt/4gvqv631095f64jvm7jfj_000000gn/T//ccA8CvEa.s 			page 72


/var/folders/rt/4gvqv631095f64jvm7jfj_000000gn/T//ccA8CvEa.s:1085   .text.renderOnePlant:000000000000003c .LVL82
/var/folders/rt/4gvqv631095f64jvm7jfj_000000gn/T//ccA8CvEa.s:1101   .text.renderOnePlant:000000000000005c .LVL85
/var/folders/rt/4gvqv631095f64jvm7jfj_000000gn/T//ccA8CvEa.s:1116   .text.renderOnePlant:0000000000000078 .LVL86
/var/folders/rt/4gvqv631095f64jvm7jfj_000000gn/T//ccA8CvEa.s:1126   .text.renderOnePlant:0000000000000092 .LVL88
/var/folders/rt/4gvqv631095f64jvm7jfj_000000gn/T//ccA8CvEa.s:1141   .text.renderOnePlant:00000000000000b0 .LVL89
/var/folders/rt/4gvqv631095f64jvm7jfj_000000gn/T//ccA8CvEa.s:1157   .text.renderOnePlant:00000000000000d2 .LVL90
/var/folders/rt/4gvqv631095f64jvm7jfj_000000gn/T//ccA8CvEa.s:1165   .text.renderOnePlant:00000000000000ea .LVL91
/var/folders/rt/4gvqv631095f64jvm7jfj_000000gn/T//ccA8CvEa.s:1173   .text.renderOnePlant:0000000000000104 .LVL92
/var/folders/rt/4gvqv631095f64jvm7jfj_000000gn/T//ccA8CvEa.s:1188   .text.renderOnePlant:0000000000000126 .LVL93
/var/folders/rt/4gvqv631095f64jvm7jfj_000000gn/T//ccA8CvEa.s:1216   .text.renderOnePlant:000000000000014a .LVL96
/var/folders/rt/4gvqv631095f64jvm7jfj_000000gn/T//ccA8CvEa.s:8723   .debug_str:00000000000003a3 .LASF168
/var/folders/rt/4gvqv631095f64jvm7jfj_000000gn/T//ccA8CvEa.s:870    .text.renderAllPlants:0000000000000000 .LFB12
/var/folders/rt/4gvqv631095f64jvm7jfj_000000gn/T//ccA8CvEa.s:1026   .text.renderAllPlants:00000000000000de .LFE12
/var/folders/rt/4gvqv631095f64jvm7jfj_000000gn/T//ccA8CvEa.s:7650   .debug_loc:0000000000000548 .LLST39
/var/folders/rt/4gvqv631095f64jvm7jfj_000000gn/T//ccA8CvEa.s:7673   .debug_loc:0000000000000580 .LLST40
/var/folders/rt/4gvqv631095f64jvm7jfj_000000gn/T//ccA8CvEa.s:7687   .debug_loc:00000000000005a1 .LLST41
/var/folders/rt/4gvqv631095f64jvm7jfj_000000gn/T//ccA8CvEa.s:7709   .debug_loc:00000000000005d8 .LLST42
/var/folders/rt/4gvqv631095f64jvm7jfj_000000gn/T//ccA8CvEa.s:965    .text.renderAllPlants:0000000000000058 .LVL72
/var/folders/rt/4gvqv631095f64jvm7jfj_000000gn/T//ccA8CvEa.s:980    .text.renderAllPlants:0000000000000072 .LVL73
/var/folders/rt/4gvqv631095f64jvm7jfj_000000gn/T//ccA8CvEa.s:989    .text.renderAllPlants:000000000000008a .LVL74
/var/folders/rt/4gvqv631095f64jvm7jfj_000000gn/T//ccA8CvEa.s:1005   .text.renderAllPlants:00000000000000aa .LVL75
/var/folders/rt/4gvqv631095f64jvm7jfj_000000gn/T//ccA8CvEa.s:1013   .text.renderAllPlants:00000000000000c0 .LVL76
/var/folders/rt/4gvqv631095f64jvm7jfj_000000gn/T//ccA8CvEa.s:1021   .text.renderAllPlants:00000000000000d8 .LVL77
/var/folders/rt/4gvqv631095f64jvm7jfj_000000gn/T//ccA8CvEa.s:8691   .debug_str:00000000000002f8 .LASF169
/var/folders/rt/4gvqv631095f64jvm7jfj_000000gn/T//ccA8CvEa.s:845    .text.jsmn_init:0000000000000000 .LFB7
/var/folders/rt/4gvqv631095f64jvm7jfj_000000gn/T//ccA8CvEa.s:863    .text.jsmn_init:000000000000000e .LFE7
/var/folders/rt/4gvqv631095f64jvm7jfj_000000gn/T//ccA8CvEa.s:8727   .debug_str:00000000000003bd .LASF170
/var/folders/rt/4gvqv631095f64jvm7jfj_000000gn/T//ccA8CvEa.s:8581   .debug_str:00000000000000e6 .LASF172
/var/folders/rt/4gvqv631095f64jvm7jfj_000000gn/T//ccA8CvEa.s:14     .text.jsmn_parse:0000000000000000 .LFB6
/var/folders/rt/4gvqv631095f64jvm7jfj_000000gn/T//ccA8CvEa.s:838    .text.jsmn_parse:00000000000003cc .LFE6
/var/folders/rt/4gvqv631095f64jvm7jfj_000000gn/T//ccA8CvEa.s:7735   .debug_loc:000000000000061a .LLST0
/var/folders/rt/4gvqv631095f64jvm7jfj_000000gn/T//ccA8CvEa.s:7758   .debug_loc:0000000000000652 .LLST1
/var/folders/rt/4gvqv631095f64jvm7jfj_000000gn/T//ccA8CvEa.s:7798   .debug_loc:00000000000006b0 .LLST2
/var/folders/rt/4gvqv631095f64jvm7jfj_000000gn/T//ccA8CvEa.s:8745   .debug_str:0000000000000419 .LASF173
/var/folders/rt/4gvqv631095f64jvm7jfj_000000gn/T//ccA8CvEa.s:7834   .debug_loc:0000000000000703 .LLST3
/var/folders/rt/4gvqv631095f64jvm7jfj_000000gn/T//ccA8CvEa.s:8861   .debug_str:000000000000065d .LASF174
/var/folders/rt/4gvqv631095f64jvm7jfj_000000gn/T//ccA8CvEa.s:7870   .debug_loc:0000000000000756 .LLST4
/var/folders/rt/4gvqv631095f64jvm7jfj_000000gn/T//ccA8CvEa.s:7906   .debug_loc:00000000000007a9 .LLST5
/var/folders/rt/4gvqv631095f64jvm7jfj_000000gn/T//ccA8CvEa.s:7920   .debug_loc:00000000000007ca .LLST6
/var/folders/rt/4gvqv631095f64jvm7jfj_000000gn/T//ccA8CvEa.s:8773   .debug_str:00000000000004bd .LASF175
/var/folders/rt/4gvqv631095f64jvm7jfj_000000gn/T//ccA8CvEa.s:7943   .debug_loc:0000000000000809 .LLST7
/var/folders/rt/4gvqv631095f64jvm7jfj_000000gn/T//ccA8CvEa.s:8651   .debug_str:000000000000024a .LASF176
/var/folders/rt/4gvqv631095f64jvm7jfj_000000gn/T//ccA8CvEa.s:7972   .debug_loc:0000000000000855 .LLST8
/var/folders/rt/4gvqv631095f64jvm7jfj_000000gn/T//ccA8CvEa.s:7995   .debug_loc:0000000000000894 .LLST9
/var/folders/rt/4gvqv631095f64jvm7jfj_000000gn/T//ccA8CvEa.s:8018   .debug_loc:00000000000008d3 .LLST10
/var/folders/rt/4gvqv631095f64jvm7jfj_000000gn/T//ccA8CvEa.s:278    .text.jsmn_parse:0000000000000126 .LBB65
/var/folders/rt/4gvqv631095f64jvm7jfj_000000gn/T//ccA8CvEa.s:292    .text.jsmn_parse:0000000000000134 .LBE65
/var/folders/rt/4gvqv631095f64jvm7jfj_000000gn/T//ccA8CvEa.s:8033   .debug_loc:00000000000008fc .LLST38
/var/folders/rt/4gvqv631095f64jvm7jfj_000000gn/T//ccA8CvEa.s:64     .text.jsmn_parse:0000000000000026 .LBB27
/var/folders/rt/4gvqv631095f64jvm7jfj_000000gn/T//ccA8CvEa.s:8040   .debug_loc:000000000000090f .LLST11
/var/folders/rt/4gvqv631095f64jvm7jfj_000000gn/T//ccA8CvEa.s:776    .text.jsmn_parse:0000000000000390 .LBB29
/var/folders/rt/4gvqv631095f64jvm7jfj_000000gn/T//ccA8CvEa.s:798    .text.jsmn_parse:00000000000003a2 .LBE29
/var/folders/rt/4gvqv631095f64jvm7jfj_000000gn/T//ccA8CvEa.s:8052   .debug_loc:000000000000092e .LLST12
/var/folders/rt/4gvqv631095f64jvm7jfj_000000gn/T//ccA8CvEa.s:8059   .debug_loc:0000000000000941 .LLST13
/var/folders/rt/4gvqv631095f64jvm7jfj_000000gn/T//ccA8CvEa.s:8066   .debug_loc:0000000000000954 .LLST14
/var/folders/rt/4gvqv631095f64jvm7jfj_000000gn/T//ccA8CvEa.s:777    .text.jsmn_parse:0000000000000390 .LBB30
/var/folders/rt/4gvqv631095f64jvm7jfj_000000gn/T//ccA8CvEa.s:797    .text.jsmn_parse:00000000000003a2 .LBE30
GAS LISTING /var/folders/rt/4gvqv631095f64jvm7jfj_000000gn/T//ccA8CvEa.s 			page 73


/var/folders/rt/4gvqv631095f64jvm7jfj_000000gn/T//ccA8CvEa.s:801    .text.jsmn_parse:00000000000003a2 .LBB31
/var/folders/rt/4gvqv631095f64jvm7jfj_000000gn/T//ccA8CvEa.s:820    .text.jsmn_parse:00000000000003b6 .LBE31
/var/folders/rt/4gvqv631095f64jvm7jfj_000000gn/T//ccA8CvEa.s:8073   .debug_loc:0000000000000967 .LLST15
/var/folders/rt/4gvqv631095f64jvm7jfj_000000gn/T//ccA8CvEa.s:8080   .debug_loc:000000000000097a .LLST16
/var/folders/rt/4gvqv631095f64jvm7jfj_000000gn/T//ccA8CvEa.s:8088   .debug_loc:000000000000098e .LLST17
/var/folders/rt/4gvqv631095f64jvm7jfj_000000gn/T//ccA8CvEa.s:171    .text.jsmn_parse:00000000000000a6 .LBB39
/var/folders/rt/4gvqv631095f64jvm7jfj_000000gn/T//ccA8CvEa.s:8095   .debug_loc:00000000000009a1 .LLST18
/var/folders/rt/4gvqv631095f64jvm7jfj_000000gn/T//ccA8CvEa.s:8118   .debug_loc:00000000000009e0 .LLST19
/var/folders/rt/4gvqv631095f64jvm7jfj_000000gn/T//ccA8CvEa.s:8141   .debug_loc:0000000000000a1f .LLST20
/var/folders/rt/4gvqv631095f64jvm7jfj_000000gn/T//ccA8CvEa.s:8164   .debug_loc:0000000000000a5e .LLST21
/var/folders/rt/4gvqv631095f64jvm7jfj_000000gn/T//ccA8CvEa.s:8187   .debug_loc:0000000000000a9d .LLST22
/var/folders/rt/4gvqv631095f64jvm7jfj_000000gn/T//ccA8CvEa.s:8210   .debug_loc:0000000000000adc .LLST23
/var/folders/rt/4gvqv631095f64jvm7jfj_000000gn/T//ccA8CvEa.s:8217   .debug_loc:0000000000000aef .LLST24
/var/folders/rt/4gvqv631095f64jvm7jfj_000000gn/T//ccA8CvEa.s:8246   .debug_loc:0000000000000b3b .LLST25
/var/folders/rt/4gvqv631095f64jvm7jfj_000000gn/T//ccA8CvEa.s:8257   .debug_loc:0000000000000b59 .LLST26
/var/folders/rt/4gvqv631095f64jvm7jfj_000000gn/T//ccA8CvEa.s:432    .text.jsmn_parse:00000000000001de .LBB43
/var/folders/rt/4gvqv631095f64jvm7jfj_000000gn/T//ccA8CvEa.s:8289   .debug_loc:0000000000000b9a .LLST27
/var/folders/rt/4gvqv631095f64jvm7jfj_000000gn/T//ccA8CvEa.s:8300   .debug_loc:0000000000000bb8 .LLST28
/var/folders/rt/4gvqv631095f64jvm7jfj_000000gn/T//ccA8CvEa.s:8311   .debug_loc:0000000000000bd6 .LLST29
/var/folders/rt/4gvqv631095f64jvm7jfj_000000gn/T//ccA8CvEa.s:488    .text.jsmn_parse:00000000000001fc .LBB47
/var/folders/rt/4gvqv631095f64jvm7jfj_000000gn/T//ccA8CvEa.s:505    .text.jsmn_parse:000000000000020e .LBE47
/var/folders/rt/4gvqv631095f64jvm7jfj_000000gn/T//ccA8CvEa.s:8322   .debug_loc:0000000000000bf4 .LLST30
/var/folders/rt/4gvqv631095f64jvm7jfj_000000gn/T//ccA8CvEa.s:8329   .debug_loc:0000000000000c07 .LLST31
/var/folders/rt/4gvqv631095f64jvm7jfj_000000gn/T//ccA8CvEa.s:8336   .debug_loc:0000000000000c1a .LLST32
/var/folders/rt/4gvqv631095f64jvm7jfj_000000gn/T//ccA8CvEa.s:239    .text.jsmn_parse:00000000000000fe .LBB61
/var/folders/rt/4gvqv631095f64jvm7jfj_000000gn/T//ccA8CvEa.s:8344   .debug_loc:0000000000000c2e .LLST34
/var/folders/rt/4gvqv631095f64jvm7jfj_000000gn/T//ccA8CvEa.s:8351   .debug_loc:0000000000000c41 .LLST35
/var/folders/rt/4gvqv631095f64jvm7jfj_000000gn/T//ccA8CvEa.s:8358   .debug_loc:0000000000000c54 .LLST36
/var/folders/rt/4gvqv631095f64jvm7jfj_000000gn/T//ccA8CvEa.s:8365   .debug_loc:0000000000000c67 .LLST37
/var/folders/rt/4gvqv631095f64jvm7jfj_000000gn/T//ccA8CvEa.s:8545   .debug_str:0000000000000013 .LASF177
/var/folders/rt/4gvqv631095f64jvm7jfj_000000gn/T//ccA8CvEa.s:8937   .debug_str:00000000000008a1 .LASF178
/var/folders/rt/4gvqv631095f64jvm7jfj_000000gn/T//ccA8CvEa.s:8901   .debug_str:00000000000007ef .LASF210
/var/folders/rt/4gvqv631095f64jvm7jfj_000000gn/T//ccA8CvEa.s:8675   .debug_str:00000000000002af .LASF211
/var/folders/rt/4gvqv631095f64jvm7jfj_000000gn/T//ccA8CvEa.s:8741   .debug_str:0000000000000403 .LASF179
/var/folders/rt/4gvqv631095f64jvm7jfj_000000gn/T//ccA8CvEa.s:8923   .debug_str:0000000000000861 .LASF180
/var/folders/rt/4gvqv631095f64jvm7jfj_000000gn/T//ccA8CvEa.s:8891   .debug_str:00000000000007b7 .LASF181
/var/folders/rt/4gvqv631095f64jvm7jfj_000000gn/T//ccA8CvEa.s:8613   .debug_str:0000000000000178 .LASF182
/var/folders/rt/4gvqv631095f64jvm7jfj_000000gn/T//ccA8CvEa.s:8783   .debug_str:00000000000004f8 .LASF183
/var/folders/rt/4gvqv631095f64jvm7jfj_000000gn/T//ccA8CvEa.s:8555   .debug_str:0000000000000047 .LASF184
/var/folders/rt/4gvqv631095f64jvm7jfj_000000gn/T//ccA8CvEa.s:8945   .debug_str:00000000000008e0 .LASF185
/var/folders/rt/4gvqv631095f64jvm7jfj_000000gn/T//ccA8CvEa.s:8963   .debug_str:0000000000000936 .LASF186
/var/folders/rt/4gvqv631095f64jvm7jfj_000000gn/T//ccA8CvEa.s:8697   .debug_str:0000000000000314 .LASF187
/var/folders/rt/4gvqv631095f64jvm7jfj_000000gn/T//ccA8CvEa.s:8909   .debug_str:0000000000000817 .LASF188
/var/folders/rt/4gvqv631095f64jvm7jfj_000000gn/T//ccA8CvEa.s:8815   .debug_str:000000000000058b .LASF189
/var/folders/rt/4gvqv631095f64jvm7jfj_000000gn/T//ccA8CvEa.s:8949   .debug_str:00000000000008f6 .LASF190
/var/folders/rt/4gvqv631095f64jvm7jfj_000000gn/T//ccA8CvEa.s:8763   .debug_str:0000000000000487 .LASF191
/var/folders/rt/4gvqv631095f64jvm7jfj_000000gn/T//ccA8CvEa.s:8801   .debug_str:0000000000000546 .LASF192
/var/folders/rt/4gvqv631095f64jvm7jfj_000000gn/T//ccA8CvEa.s:8589   .debug_str:0000000000000117 .LASF193
/var/folders/rt/4gvqv631095f64jvm7jfj_000000gn/T//ccA8CvEa.s:8865   .debug_str:0000000000000672 .LASF194
/var/folders/rt/4gvqv631095f64jvm7jfj_000000gn/T//ccA8CvEa.s:8683   .debug_str:00000000000002df .LASF195
/var/folders/rt/4gvqv631095f64jvm7jfj_000000gn/T//ccA8CvEa.s:8619   .debug_str:0000000000000190 .LASF196
/var/folders/rt/4gvqv631095f64jvm7jfj_000000gn/T//ccA8CvEa.s:8869   .debug_str:0000000000000680 .LASF197
/var/folders/rt/4gvqv631095f64jvm7jfj_000000gn/T//ccA8CvEa.s:8543   .debug_str:000000000000000c .LASF198
/var/folders/rt/4gvqv631095f64jvm7jfj_000000gn/T//ccA8CvEa.s:8867   .debug_str:0000000000000679 .LASF199
/var/folders/rt/4gvqv631095f64jvm7jfj_000000gn/T//ccA8CvEa.s:8637   .debug_str:0000000000000200 .LASF200
/var/folders/rt/4gvqv631095f64jvm7jfj_000000gn/T//ccA8CvEa.s:8885   .debug_str:000000000000078d .LASF201
/var/folders/rt/4gvqv631095f64jvm7jfj_000000gn/T//ccA8CvEa.s:8935   .debug_str:0000000000000896 .LASF202
GAS LISTING /var/folders/rt/4gvqv631095f64jvm7jfj_000000gn/T//ccA8CvEa.s 			page 74


/var/folders/rt/4gvqv631095f64jvm7jfj_000000gn/T//ccA8CvEa.s:8897   .debug_str:00000000000007d3 .LASF203
/var/folders/rt/4gvqv631095f64jvm7jfj_000000gn/T//ccA8CvEa.s:8959   .debug_str:0000000000000920 .LASF204
/var/folders/rt/4gvqv631095f64jvm7jfj_000000gn/T//ccA8CvEa.s:1724   .text.startup.main:0000000000000008 .LCFI17
/var/folders/rt/4gvqv631095f64jvm7jfj_000000gn/T//ccA8CvEa.s:1747   .text.startup.main:000000000000002c .LCFI18
/var/folders/rt/4gvqv631095f64jvm7jfj_000000gn/T//ccA8CvEa.s:1716   .text.startup.main:0000000000000000 .LVL147
/var/folders/rt/4gvqv631095f64jvm7jfj_000000gn/T//ccA8CvEa.s:1830   .text.startup.main:00000000000000f8 .LVL162
/var/folders/rt/4gvqv631095f64jvm7jfj_000000gn/T//ccA8CvEa.s:1855   .text.startup.main:000000000000011a .LVL166
/var/folders/rt/4gvqv631095f64jvm7jfj_000000gn/T//ccA8CvEa.s:1522   .text.receiveCommands:0000000000000004 .LCFI14
/var/folders/rt/4gvqv631095f64jvm7jfj_000000gn/T//ccA8CvEa.s:1622   .text.receiveCommands:00000000000000b2 .LCFI15
/var/folders/rt/4gvqv631095f64jvm7jfj_000000gn/T//ccA8CvEa.s:1627   .text.receiveCommands:00000000000000b4 .LCFI16
/var/folders/rt/4gvqv631095f64jvm7jfj_000000gn/T//ccA8CvEa.s:1518   .text.receiveCommands:0000000000000000 .LVL124
/var/folders/rt/4gvqv631095f64jvm7jfj_000000gn/T//ccA8CvEa.s:1529   .text.receiveCommands:000000000000000c .LVL125
/var/folders/rt/4gvqv631095f64jvm7jfj_000000gn/T//ccA8CvEa.s:1625   .text.receiveCommands:00000000000000b4 .LVL133
/var/folders/rt/4gvqv631095f64jvm7jfj_000000gn/T//ccA8CvEa.s:1662   .text.receiveCommands:00000000000000fe .LVL138
/var/folders/rt/4gvqv631095f64jvm7jfj_000000gn/T//ccA8CvEa.s:1669   .text.receiveCommands:0000000000000108 .LVL140
/var/folders/rt/4gvqv631095f64jvm7jfj_000000gn/T//ccA8CvEa.s:1677   .text.receiveCommands:0000000000000114 .LVL142
/var/folders/rt/4gvqv631095f64jvm7jfj_000000gn/T//ccA8CvEa.s:1697   .text.receiveCommands:000000000000014a .LVL145
/var/folders/rt/4gvqv631095f64jvm7jfj_000000gn/T//ccA8CvEa.s:1618   .text.receiveCommands:00000000000000aa .LVL132
/var/folders/rt/4gvqv631095f64jvm7jfj_000000gn/T//ccA8CvEa.s:1568   .text.receiveCommands:0000000000000052 .LVL128
/var/folders/rt/4gvqv631095f64jvm7jfj_000000gn/T//ccA8CvEa.s:1458   .text.jsonAllPlants:0000000000000020 .LCFI12
/var/folders/rt/4gvqv631095f64jvm7jfj_000000gn/T//ccA8CvEa.s:1504   .text.jsonAllPlants:0000000000000092 .LCFI13
/var/folders/rt/4gvqv631095f64jvm7jfj_000000gn/T//ccA8CvEa.s:1439   .text.jsonAllPlants:0000000000000000 .LVL120
/var/folders/rt/4gvqv631095f64jvm7jfj_000000gn/T//ccA8CvEa.s:1454   .text.jsonAllPlants:000000000000001a .LVL122
/var/folders/rt/4gvqv631095f64jvm7jfj_000000gn/T//ccA8CvEa.s:1449   .text.jsonAllPlants:0000000000000014 .LVL121
/var/folders/rt/4gvqv631095f64jvm7jfj_000000gn/T//ccA8CvEa.s:1257   .text.updatePlantReading:0000000000000002 .LCFI9
/var/folders/rt/4gvqv631095f64jvm7jfj_000000gn/T//ccA8CvEa.s:1385   .text.updatePlantReading:00000000000000cc .LCFI10
/var/folders/rt/4gvqv631095f64jvm7jfj_000000gn/T//ccA8CvEa.s:1390   .text.updatePlantReading:00000000000000ce .LCFI11
/var/folders/rt/4gvqv631095f64jvm7jfj_000000gn/T//ccA8CvEa.s:1250   .text.updatePlantReading:0000000000000000 .LVL98
/var/folders/rt/4gvqv631095f64jvm7jfj_000000gn/T//ccA8CvEa.s:1277   .text.updatePlantReading:0000000000000014 .LVL99
/var/folders/rt/4gvqv631095f64jvm7jfj_000000gn/T//ccA8CvEa.s:1381   .text.updatePlantReading:00000000000000c8 .LVL112
/var/folders/rt/4gvqv631095f64jvm7jfj_000000gn/T//ccA8CvEa.s:1388   .text.updatePlantReading:00000000000000ce .LVL113
/var/folders/rt/4gvqv631095f64jvm7jfj_000000gn/T//ccA8CvEa.s:1287   .text.updatePlantReading:0000000000000022 .LVL101
/var/folders/rt/4gvqv631095f64jvm7jfj_000000gn/T//ccA8CvEa.s:1301   .text.updatePlantReading:0000000000000046 .LVL103
/var/folders/rt/4gvqv631095f64jvm7jfj_000000gn/T//ccA8CvEa.s:1317   .text.updatePlantReading:000000000000005c .LVL105
/var/folders/rt/4gvqv631095f64jvm7jfj_000000gn/T//ccA8CvEa.s:1366   .text.updatePlantReading:00000000000000c0 .LVL110
/var/folders/rt/4gvqv631095f64jvm7jfj_000000gn/T//ccA8CvEa.s:1411   .text.updatePlantReading:00000000000000f8 .LVL116
/var/folders/rt/4gvqv631095f64jvm7jfj_000000gn/T//ccA8CvEa.s:1419   .text.updatePlantReading:0000000000000102 .LVL118
/var/folders/rt/4gvqv631095f64jvm7jfj_000000gn/T//ccA8CvEa.s:1285   .text.updatePlantReading:000000000000001e .LVL100
/var/folders/rt/4gvqv631095f64jvm7jfj_000000gn/T//ccA8CvEa.s:1378   .text.updatePlantReading:00000000000000c6 .LVL111
/var/folders/rt/4gvqv631095f64jvm7jfj_000000gn/T//ccA8CvEa.s:1348   .text.updatePlantReading:0000000000000098 .LVL108
/var/folders/rt/4gvqv631095f64jvm7jfj_000000gn/T//ccA8CvEa.s:1400   .text.updatePlantReading:00000000000000dc .LVL114
/var/folders/rt/4gvqv631095f64jvm7jfj_000000gn/T//ccA8CvEa.s:1043   .text.renderOnePlant:0000000000000002 .LCFI6
/var/folders/rt/4gvqv631095f64jvm7jfj_000000gn/T//ccA8CvEa.s:1212   .text.renderOnePlant:0000000000000142 .LCFI7
/var/folders/rt/4gvqv631095f64jvm7jfj_000000gn/T//ccA8CvEa.s:1218   .text.renderOnePlant:000000000000014a .LCFI8
/var/folders/rt/4gvqv631095f64jvm7jfj_000000gn/T//ccA8CvEa.s:1036   .text.renderOnePlant:0000000000000000 .LVL78
/var/folders/rt/4gvqv631095f64jvm7jfj_000000gn/T//ccA8CvEa.s:1061   .text.renderOnePlant:0000000000000012 .LVL79
/var/folders/rt/4gvqv631095f64jvm7jfj_000000gn/T//ccA8CvEa.s:1210   .text.renderOnePlant:0000000000000140 .LVL95
/var/folders/rt/4gvqv631095f64jvm7jfj_000000gn/T//ccA8CvEa.s:1069   .text.renderOnePlant:000000000000001c .LVL80
/var/folders/rt/4gvqv631095f64jvm7jfj_000000gn/T//ccA8CvEa.s:1076   .text.renderOnePlant:000000000000002e .LVL81
/var/folders/rt/4gvqv631095f64jvm7jfj_000000gn/T//ccA8CvEa.s:1092   .text.renderOnePlant:0000000000000048 .LVL83
/var/folders/rt/4gvqv631095f64jvm7jfj_000000gn/T//ccA8CvEa.s:1098   .text.renderOnePlant:0000000000000052 .LVL84
/var/folders/rt/4gvqv631095f64jvm7jfj_000000gn/T//ccA8CvEa.s:1195   .text.renderOnePlant:0000000000000136 .LVL94
/var/folders/rt/4gvqv631095f64jvm7jfj_000000gn/T//ccA8CvEa.s:1119   .text.renderOnePlant:000000000000007c .LVL87
/var/folders/rt/4gvqv631095f64jvm7jfj_000000gn/T//ccA8CvEa.s:881    .text.renderAllPlants:0000000000000002 .LCFI3
/var/folders/rt/4gvqv631095f64jvm7jfj_000000gn/T//ccA8CvEa.s:945    .text.renderAllPlants:000000000000003e .LCFI4
/var/folders/rt/4gvqv631095f64jvm7jfj_000000gn/T//ccA8CvEa.s:950    .text.renderAllPlants:0000000000000040 .LCFI5
/var/folders/rt/4gvqv631095f64jvm7jfj_000000gn/T//ccA8CvEa.s:874    .text.renderAllPlants:0000000000000000 .LVL66
GAS LISTING /var/folders/rt/4gvqv631095f64jvm7jfj_000000gn/T//ccA8CvEa.s 			page 75


/var/folders/rt/4gvqv631095f64jvm7jfj_000000gn/T//ccA8CvEa.s:917    .text.renderAllPlants:0000000000000026 .LVL67
/var/folders/rt/4gvqv631095f64jvm7jfj_000000gn/T//ccA8CvEa.s:941    .text.renderAllPlants:000000000000003a .LVL69
/var/folders/rt/4gvqv631095f64jvm7jfj_000000gn/T//ccA8CvEa.s:948    .text.renderAllPlants:0000000000000040 .LVL70
/var/folders/rt/4gvqv631095f64jvm7jfj_000000gn/T//ccA8CvEa.s:934    .text.renderAllPlants:0000000000000034 .LVL68
/var/folders/rt/4gvqv631095f64jvm7jfj_000000gn/T//ccA8CvEa.s:961    .text.renderAllPlants:000000000000004e .LVL71
/var/folders/rt/4gvqv631095f64jvm7jfj_000000gn/T//ccA8CvEa.s:31     .text.jsmn_parse:0000000000000006 .LCFI0
/var/folders/rt/4gvqv631095f64jvm7jfj_000000gn/T//ccA8CvEa.s:134    .text.jsmn_parse:0000000000000078 .LCFI1
/var/folders/rt/4gvqv631095f64jvm7jfj_000000gn/T//ccA8CvEa.s:139    .text.jsmn_parse:000000000000007a .LCFI2
/var/folders/rt/4gvqv631095f64jvm7jfj_000000gn/T//ccA8CvEa.s:18     .text.jsmn_parse:0000000000000000 .LVL0
/var/folders/rt/4gvqv631095f64jvm7jfj_000000gn/T//ccA8CvEa.s:27     .text.jsmn_parse:0000000000000004 .LVL1
/var/folders/rt/4gvqv631095f64jvm7jfj_000000gn/T//ccA8CvEa.s:92     .text.jsmn_parse:0000000000000050 .LVL2
/var/folders/rt/4gvqv631095f64jvm7jfj_000000gn/T//ccA8CvEa.s:137    .text.jsmn_parse:000000000000007a .LVL7
/var/folders/rt/4gvqv631095f64jvm7jfj_000000gn/T//ccA8CvEa.s:210    .text.jsmn_parse:00000000000000e2 .LVL12
/var/folders/rt/4gvqv631095f64jvm7jfj_000000gn/T//ccA8CvEa.s:220    .text.jsmn_parse:00000000000000e6 .LVL14
/var/folders/rt/4gvqv631095f64jvm7jfj_000000gn/T//ccA8CvEa.s:817    .text.jsmn_parse:00000000000003b6 .LVL63
/var/folders/rt/4gvqv631095f64jvm7jfj_000000gn/T//ccA8CvEa.s:101    .text.jsmn_parse:000000000000005a .LVL5
/var/folders/rt/4gvqv631095f64jvm7jfj_000000gn/T//ccA8CvEa.s:98     .text.jsmn_parse:0000000000000058 .LVL4
/var/folders/rt/4gvqv631095f64jvm7jfj_000000gn/T//ccA8CvEa.s:95     .text.jsmn_parse:0000000000000054 .LVL3
/var/folders/rt/4gvqv631095f64jvm7jfj_000000gn/T//ccA8CvEa.s:503    .text.jsmn_parse:000000000000020e .LVL45
/var/folders/rt/4gvqv631095f64jvm7jfj_000000gn/T//ccA8CvEa.s:538    .text.jsmn_parse:000000000000022a .LVL47
/var/folders/rt/4gvqv631095f64jvm7jfj_000000gn/T//ccA8CvEa.s:591    .text.jsmn_parse:000000000000026c .LVL50
/var/folders/rt/4gvqv631095f64jvm7jfj_000000gn/T//ccA8CvEa.s:596    .text.jsmn_parse:000000000000026e .LVL51
/var/folders/rt/4gvqv631095f64jvm7jfj_000000gn/T//ccA8CvEa.s:105    .text.jsmn_parse:000000000000005e .LVL6
/var/folders/rt/4gvqv631095f64jvm7jfj_000000gn/T//ccA8CvEa.s:340    .text.jsmn_parse:0000000000000176 .LVL24
/var/folders/rt/4gvqv631095f64jvm7jfj_000000gn/T//ccA8CvEa.s:349    .text.jsmn_parse:0000000000000182 .LVL25
/var/folders/rt/4gvqv631095f64jvm7jfj_000000gn/T//ccA8CvEa.s:355    .text.jsmn_parse:0000000000000186 .LVL27
/var/folders/rt/4gvqv631095f64jvm7jfj_000000gn/T//ccA8CvEa.s:418    .text.jsmn_parse:00000000000001d8 .LVL36
/var/folders/rt/4gvqv631095f64jvm7jfj_000000gn/T//ccA8CvEa.s:696    .text.jsmn_parse:000000000000030a .LVL58
/var/folders/rt/4gvqv631095f64jvm7jfj_000000gn/T//ccA8CvEa.s:721    .text.jsmn_parse:0000000000000332 .LVL60
/var/folders/rt/4gvqv631095f64jvm7jfj_000000gn/T//ccA8CvEa.s:271    .text.jsmn_parse:0000000000000122 .LVL18
/var/folders/rt/4gvqv631095f64jvm7jfj_000000gn/T//ccA8CvEa.s:309    .text.jsmn_parse:000000000000014c .LVL21
/var/folders/rt/4gvqv631095f64jvm7jfj_000000gn/T//ccA8CvEa.s:361    .text.jsmn_parse:000000000000018e .LVL28
/var/folders/rt/4gvqv631095f64jvm7jfj_000000gn/T//ccA8CvEa.s:384    .text.jsmn_parse:00000000000001b2 .LVL29
/var/folders/rt/4gvqv631095f64jvm7jfj_000000gn/T//ccA8CvEa.s:394    .text.jsmn_parse:00000000000001c2 .LVL30
/var/folders/rt/4gvqv631095f64jvm7jfj_000000gn/T//ccA8CvEa.s:401    .text.jsmn_parse:00000000000001c8 .LVL31
/var/folders/rt/4gvqv631095f64jvm7jfj_000000gn/T//ccA8CvEa.s:408    .text.jsmn_parse:00000000000001ce .LVL33
/var/folders/rt/4gvqv631095f64jvm7jfj_000000gn/T//ccA8CvEa.s:414    .text.jsmn_parse:00000000000001d2 .LVL35
/var/folders/rt/4gvqv631095f64jvm7jfj_000000gn/T//ccA8CvEa.s:218    .text.jsmn_parse:00000000000000e4 .LVL13
/var/folders/rt/4gvqv631095f64jvm7jfj_000000gn/T//ccA8CvEa.s:353    .text.jsmn_parse:0000000000000184 .LVL26
/var/folders/rt/4gvqv631095f64jvm7jfj_000000gn/T//ccA8CvEa.s:462    .text.jsmn_parse:00000000000001ec .LVL41
/var/folders/rt/4gvqv631095f64jvm7jfj_000000gn/T//ccA8CvEa.s:464    .text.jsmn_parse:00000000000001ee .LVL42
/var/folders/rt/4gvqv631095f64jvm7jfj_000000gn/T//ccA8CvEa.s:152    .text.jsmn_parse:000000000000008e .LVL8
/var/folders/rt/4gvqv631095f64jvm7jfj_000000gn/T//ccA8CvEa.s:161    .text.jsmn_parse:000000000000009a .LVL9
/var/folders/rt/4gvqv631095f64jvm7jfj_000000gn/T//ccA8CvEa.s:192    .text.jsmn_parse:00000000000000ca .LVL11
/var/folders/rt/4gvqv631095f64jvm7jfj_000000gn/T//ccA8CvEa.s:317    .text.jsmn_parse:0000000000000158 .LVL22
/var/folders/rt/4gvqv631095f64jvm7jfj_000000gn/T//ccA8CvEa.s:662    .text.jsmn_parse:00000000000002dc .LVL57
/var/folders/rt/4gvqv631095f64jvm7jfj_000000gn/T//ccA8CvEa.s:334    .text.jsmn_parse:000000000000016e .LVL23
/var/folders/rt/4gvqv631095f64jvm7jfj_000000gn/T//ccA8CvEa.s:284    .text.jsmn_parse:000000000000012a .LVL19
/var/folders/rt/4gvqv631095f64jvm7jfj_000000gn/T//ccA8CvEa.s:290    .text.jsmn_parse:0000000000000134 .LVL20
/var/folders/rt/4gvqv631095f64jvm7jfj_000000gn/T//ccA8CvEa.s:441    .text.jsmn_parse:00000000000001e6 .LVL39
/var/folders/rt/4gvqv631095f64jvm7jfj_000000gn/T//ccA8CvEa.s:455    .text.jsmn_parse:00000000000001ea .LVL40
/var/folders/rt/4gvqv631095f64jvm7jfj_000000gn/T//ccA8CvEa.s:793    .text.jsmn_parse:00000000000003a2 .LVL62
/var/folders/rt/4gvqv631095f64jvm7jfj_000000gn/T//ccA8CvEa.s:775    .text.jsmn_parse:0000000000000390 .LVL61
/var/folders/rt/4gvqv631095f64jvm7jfj_000000gn/T//ccA8CvEa.s:170    .text.jsmn_parse:00000000000000a6 .LVL10
/var/folders/rt/4gvqv631095f64jvm7jfj_000000gn/T//ccA8CvEa.s:579    .text.jsmn_parse:0000000000000268 .LVL49
/var/folders/rt/4gvqv631095f64jvm7jfj_000000gn/T//ccA8CvEa.s:480    .text.jsmn_parse:00000000000001fc .LVL44
/var/folders/rt/4gvqv631095f64jvm7jfj_000000gn/T//ccA8CvEa.s:474    .text.jsmn_parse:00000000000001f2 .LVL43
GAS LISTING /var/folders/rt/4gvqv631095f64jvm7jfj_000000gn/T//ccA8CvEa.s 			page 76


/var/folders/rt/4gvqv631095f64jvm7jfj_000000gn/T//ccA8CvEa.s:438    .text.jsmn_parse:00000000000001e2 .LVL38
/var/folders/rt/4gvqv631095f64jvm7jfj_000000gn/T//ccA8CvEa.s:547    .text.jsmn_parse:0000000000000232 .LVL48
/var/folders/rt/4gvqv631095f64jvm7jfj_000000gn/T//ccA8CvEa.s:617    .text.jsmn_parse:0000000000000292 .LVL52
/var/folders/rt/4gvqv631095f64jvm7jfj_000000gn/T//ccA8CvEa.s:620    .text.jsmn_parse:0000000000000294 .LVL53
/var/folders/rt/4gvqv631095f64jvm7jfj_000000gn/T//ccA8CvEa.s:648    .text.jsmn_parse:00000000000002cc .LVL54
/var/folders/rt/4gvqv631095f64jvm7jfj_000000gn/T//ccA8CvEa.s:650    .text.jsmn_parse:00000000000002ce .LVL55
/var/folders/rt/4gvqv631095f64jvm7jfj_000000gn/T//ccA8CvEa.s:653    .text.jsmn_parse:00000000000002d0 .LVL56
/var/folders/rt/4gvqv631095f64jvm7jfj_000000gn/T//ccA8CvEa.s:431    .text.jsmn_parse:00000000000001de .LVL37
/var/folders/rt/4gvqv631095f64jvm7jfj_000000gn/T//ccA8CvEa.s:238    .text.jsmn_parse:00000000000000fe .LVL16
/var/folders/rt/4gvqv631095f64jvm7jfj_000000gn/T//ccA8CvEa.s:261    .text.jsmn_parse:0000000000000116 .LVL17
/var/folders/rt/4gvqv631095f64jvm7jfj_000000gn/T//ccA8CvEa.s:1945   .debug_info:0000000000000000 .Ldebug_info0
/var/folders/rt/4gvqv631095f64jvm7jfj_000000gn/T//ccA8CvEa.s:57     .text.jsmn_parse:000000000000001e .LBB26
/var/folders/rt/4gvqv631095f64jvm7jfj_000000gn/T//ccA8CvEa.s:75     .text.jsmn_parse:0000000000000038 .LBE26
/var/folders/rt/4gvqv631095f64jvm7jfj_000000gn/T//ccA8CvEa.s:141    .text.jsmn_parse:000000000000007a .LBB74
/var/folders/rt/4gvqv631095f64jvm7jfj_000000gn/T//ccA8CvEa.s:215    .text.jsmn_parse:00000000000000e2 .LBE74
/var/folders/rt/4gvqv631095f64jvm7jfj_000000gn/T//ccA8CvEa.s:222    .text.jsmn_parse:00000000000000e6 .LBB75
/var/folders/rt/4gvqv631095f64jvm7jfj_000000gn/T//ccA8CvEa.s:311    .text.jsmn_parse:000000000000014c .LBE75
/var/folders/rt/4gvqv631095f64jvm7jfj_000000gn/T//ccA8CvEa.s:319    .text.jsmn_parse:0000000000000158 .LBB76
/var/folders/rt/4gvqv631095f64jvm7jfj_000000gn/T//ccA8CvEa.s:823    .text.jsmn_parse:00000000000003b6 .LBE76
/var/folders/rt/4gvqv631095f64jvm7jfj_000000gn/T//ccA8CvEa.s:74     .text.jsmn_parse:0000000000000038 .LBE27
/var/folders/rt/4gvqv631095f64jvm7jfj_000000gn/T//ccA8CvEa.s:156    .text.jsmn_parse:0000000000000096 .LBB38
/var/folders/rt/4gvqv631095f64jvm7jfj_000000gn/T//ccA8CvEa.s:164    .text.jsmn_parse:000000000000009a .LBE38
/var/folders/rt/4gvqv631095f64jvm7jfj_000000gn/T//ccA8CvEa.s:448    .text.jsmn_parse:00000000000001e6 .LBB67
/var/folders/rt/4gvqv631095f64jvm7jfj_000000gn/T//ccA8CvEa.s:457    .text.jsmn_parse:00000000000001ea .LBE67
/var/folders/rt/4gvqv631095f64jvm7jfj_000000gn/T//ccA8CvEa.s:512    .text.jsmn_parse:000000000000020e .LBB69
/var/folders/rt/4gvqv631095f64jvm7jfj_000000gn/T//ccA8CvEa.s:516    .text.jsmn_parse:000000000000020e .LBE69
/var/folders/rt/4gvqv631095f64jvm7jfj_000000gn/T//ccA8CvEa.s:585    .text.jsmn_parse:0000000000000268 .LBB71
/var/folders/rt/4gvqv631095f64jvm7jfj_000000gn/T//ccA8CvEa.s:593    .text.jsmn_parse:000000000000026c .LBE71
/var/folders/rt/4gvqv631095f64jvm7jfj_000000gn/T//ccA8CvEa.s:723    .text.jsmn_parse:0000000000000332 .LBB73
/var/folders/rt/4gvqv631095f64jvm7jfj_000000gn/T//ccA8CvEa.s:822    .text.jsmn_parse:00000000000003b6 .LBE73
/var/folders/rt/4gvqv631095f64jvm7jfj_000000gn/T//ccA8CvEa.s:212    .text.jsmn_parse:00000000000000e2 .LBE39
/var/folders/rt/4gvqv631095f64jvm7jfj_000000gn/T//ccA8CvEa.s:420    .text.jsmn_parse:00000000000001d8 .LBB66
/var/folders/rt/4gvqv631095f64jvm7jfj_000000gn/T//ccA8CvEa.s:447    .text.jsmn_parse:00000000000001e6 .LBE66
/var/folders/rt/4gvqv631095f64jvm7jfj_000000gn/T//ccA8CvEa.s:466    .text.jsmn_parse:00000000000001ee .LBB68
/var/folders/rt/4gvqv631095f64jvm7jfj_000000gn/T//ccA8CvEa.s:509    .text.jsmn_parse:000000000000020e .LBE68
/var/folders/rt/4gvqv631095f64jvm7jfj_000000gn/T//ccA8CvEa.s:540    .text.jsmn_parse:000000000000022a .LBB70
/var/folders/rt/4gvqv631095f64jvm7jfj_000000gn/T//ccA8CvEa.s:584    .text.jsmn_parse:0000000000000268 .LBE70
/var/folders/rt/4gvqv631095f64jvm7jfj_000000gn/T//ccA8CvEa.s:598    .text.jsmn_parse:000000000000026e .LBB72
/var/folders/rt/4gvqv631095f64jvm7jfj_000000gn/T//ccA8CvEa.s:667    .text.jsmn_parse:00000000000002dc .LBE72
/var/folders/rt/4gvqv631095f64jvm7jfj_000000gn/T//ccA8CvEa.s:180    .text.jsmn_parse:00000000000000ae .LBB41
/var/folders/rt/4gvqv631095f64jvm7jfj_000000gn/T//ccA8CvEa.s:195    .text.jsmn_parse:00000000000000ca .LBE41
/var/folders/rt/4gvqv631095f64jvm7jfj_000000gn/T//ccA8CvEa.s:422    .text.jsmn_parse:00000000000001d8 .LBB52
/var/folders/rt/4gvqv631095f64jvm7jfj_000000gn/T//ccA8CvEa.s:445    .text.jsmn_parse:00000000000001e6 .LBE52
/var/folders/rt/4gvqv631095f64jvm7jfj_000000gn/T//ccA8CvEa.s:468    .text.jsmn_parse:00000000000001ee .LBB53
/var/folders/rt/4gvqv631095f64jvm7jfj_000000gn/T//ccA8CvEa.s:507    .text.jsmn_parse:000000000000020e .LBE53
/var/folders/rt/4gvqv631095f64jvm7jfj_000000gn/T//ccA8CvEa.s:542    .text.jsmn_parse:000000000000022a .LBB54
/var/folders/rt/4gvqv631095f64jvm7jfj_000000gn/T//ccA8CvEa.s:567    .text.jsmn_parse:0000000000000254 .LBE54
/var/folders/rt/4gvqv631095f64jvm7jfj_000000gn/T//ccA8CvEa.s:574    .text.jsmn_parse:0000000000000260 .LBB55
/var/folders/rt/4gvqv631095f64jvm7jfj_000000gn/T//ccA8CvEa.s:582    .text.jsmn_parse:0000000000000268 .LBE55
/var/folders/rt/4gvqv631095f64jvm7jfj_000000gn/T//ccA8CvEa.s:600    .text.jsmn_parse:000000000000026e .LBB56
/var/folders/rt/4gvqv631095f64jvm7jfj_000000gn/T//ccA8CvEa.s:665    .text.jsmn_parse:00000000000002dc .LBE56
/var/folders/rt/4gvqv631095f64jvm7jfj_000000gn/T//ccA8CvEa.s:185    .text.jsmn_parse:00000000000000b6 .LBB42
/var/folders/rt/4gvqv631095f64jvm7jfj_000000gn/T//ccA8CvEa.s:194    .text.jsmn_parse:00000000000000ca .LBE42
/var/folders/rt/4gvqv631095f64jvm7jfj_000000gn/T//ccA8CvEa.s:550    .text.jsmn_parse:0000000000000236 .LBB49
/var/folders/rt/4gvqv631095f64jvm7jfj_000000gn/T//ccA8CvEa.s:566    .text.jsmn_parse:0000000000000254 .LBE49
/var/folders/rt/4gvqv631095f64jvm7jfj_000000gn/T//ccA8CvEa.s:575    .text.jsmn_parse:0000000000000260 .LBB50
/var/folders/rt/4gvqv631095f64jvm7jfj_000000gn/T//ccA8CvEa.s:581    .text.jsmn_parse:0000000000000268 .LBE50
GAS LISTING /var/folders/rt/4gvqv631095f64jvm7jfj_000000gn/T//ccA8CvEa.s 			page 77


/var/folders/rt/4gvqv631095f64jvm7jfj_000000gn/T//ccA8CvEa.s:601    .text.jsmn_parse:000000000000026e .LBB51
/var/folders/rt/4gvqv631095f64jvm7jfj_000000gn/T//ccA8CvEa.s:664    .text.jsmn_parse:00000000000002dc .LBE51
/var/folders/rt/4gvqv631095f64jvm7jfj_000000gn/T//ccA8CvEa.s:444    .text.jsmn_parse:00000000000001e6 .LBE43
/var/folders/rt/4gvqv631095f64jvm7jfj_000000gn/T//ccA8CvEa.s:469    .text.jsmn_parse:00000000000001ee .LBB46
/var/folders/rt/4gvqv631095f64jvm7jfj_000000gn/T//ccA8CvEa.s:485    .text.jsmn_parse:00000000000001fc .LBE46
/var/folders/rt/4gvqv631095f64jvm7jfj_000000gn/T//ccA8CvEa.s:252    .text.jsmn_parse:000000000000010e .LBE61
/var/folders/rt/4gvqv631095f64jvm7jfj_000000gn/T//ccA8CvEa.s:255    .text.jsmn_parse:0000000000000110 .LBB64
/var/folders/rt/4gvqv631095f64jvm7jfj_000000gn/T//ccA8CvEa.s:273    .text.jsmn_parse:0000000000000122 .LBE64
/var/folders/rt/4gvqv631095f64jvm7jfj_000000gn/T//ccA8CvEa.s:876    .text.renderAllPlants:0000000000000000 .LBB77
/var/folders/rt/4gvqv631095f64jvm7jfj_000000gn/T//ccA8CvEa.s:878    .text.renderAllPlants:0000000000000000 .LBE77
/var/folders/rt/4gvqv631095f64jvm7jfj_000000gn/T//ccA8CvEa.s:885    .text.renderAllPlants:0000000000000004 .LBB78
/var/folders/rt/4gvqv631095f64jvm7jfj_000000gn/T//ccA8CvEa.s:888    .text.renderAllPlants:0000000000000006 .LBE78
/var/folders/rt/4gvqv631095f64jvm7jfj_000000gn/T//ccA8CvEa.s:909    .text.renderAllPlants:000000000000001a .LBB79
/var/folders/rt/4gvqv631095f64jvm7jfj_000000gn/T//ccA8CvEa.s:921    .text.renderAllPlants:000000000000002a .LBE79
/var/folders/rt/4gvqv631095f64jvm7jfj_000000gn/T//ccA8CvEa.s:952    .text.renderAllPlants:0000000000000040 .LBB80
/var/folders/rt/4gvqv631095f64jvm7jfj_000000gn/T//ccA8CvEa.s:1024   .text.renderAllPlants:00000000000000de .LBE80
/var/folders/rt/4gvqv631095f64jvm7jfj_000000gn/T//ccA8CvEa.s:1038   .text.renderOnePlant:0000000000000000 .LBB81
/var/folders/rt/4gvqv631095f64jvm7jfj_000000gn/T//ccA8CvEa.s:1040   .text.renderOnePlant:0000000000000000 .LBE81
/var/folders/rt/4gvqv631095f64jvm7jfj_000000gn/T//ccA8CvEa.s:1058   .text.renderOnePlant:0000000000000010 .LBB82
/var/folders/rt/4gvqv631095f64jvm7jfj_000000gn/T//ccA8CvEa.s:1065   .text.renderOnePlant:0000000000000016 .LBE82
/var/folders/rt/4gvqv631095f64jvm7jfj_000000gn/T//ccA8CvEa.s:1078   .text.renderOnePlant:000000000000002e .LBB83
/var/folders/rt/4gvqv631095f64jvm7jfj_000000gn/T//ccA8CvEa.s:1197   .text.renderOnePlant:0000000000000136 .LBE83
/var/folders/rt/4gvqv631095f64jvm7jfj_000000gn/T//ccA8CvEa.s:1220   .text.renderOnePlant:000000000000014a .LBB84
/var/folders/rt/4gvqv631095f64jvm7jfj_000000gn/T//ccA8CvEa.s:1225   .text.renderOnePlant:000000000000014e .LBE84
/var/folders/rt/4gvqv631095f64jvm7jfj_000000gn/T//ccA8CvEa.s:1252   .text.updatePlantReading:0000000000000000 .LBB85
/var/folders/rt/4gvqv631095f64jvm7jfj_000000gn/T//ccA8CvEa.s:1254   .text.updatePlantReading:0000000000000000 .LBE85
/var/folders/rt/4gvqv631095f64jvm7jfj_000000gn/T//ccA8CvEa.s:1272   .text.updatePlantReading:0000000000000010 .LBB88
/var/folders/rt/4gvqv631095f64jvm7jfj_000000gn/T//ccA8CvEa.s:1281   .text.updatePlantReading:0000000000000018 .LBE88
/var/folders/rt/4gvqv631095f64jvm7jfj_000000gn/T//ccA8CvEa.s:1303   .text.updatePlantReading:0000000000000046 .LBB89
/var/folders/rt/4gvqv631095f64jvm7jfj_000000gn/T//ccA8CvEa.s:1369   .text.updatePlantReading:00000000000000c0 .LBE89
/var/folders/rt/4gvqv631095f64jvm7jfj_000000gn/T//ccA8CvEa.s:1392   .text.updatePlantReading:00000000000000ce .LBB90
/var/folders/rt/4gvqv631095f64jvm7jfj_000000gn/T//ccA8CvEa.s:1414   .text.updatePlantReading:00000000000000f8 .LBE90
/var/folders/rt/4gvqv631095f64jvm7jfj_000000gn/T//ccA8CvEa.s:1421   .text.updatePlantReading:0000000000000102 .LBB91
/var/folders/rt/4gvqv631095f64jvm7jfj_000000gn/T//ccA8CvEa.s:1427   .text.updatePlantReading:000000000000010a .LBE91
/var/folders/rt/4gvqv631095f64jvm7jfj_000000gn/T//ccA8CvEa.s:1321   .text.updatePlantReading:0000000000000060 .LBB86
/var/folders/rt/4gvqv631095f64jvm7jfj_000000gn/T//ccA8CvEa.s:1368   .text.updatePlantReading:00000000000000c0 .LBE86
/var/folders/rt/4gvqv631095f64jvm7jfj_000000gn/T//ccA8CvEa.s:1393   .text.updatePlantReading:00000000000000ce .LBB87
/var/folders/rt/4gvqv631095f64jvm7jfj_000000gn/T//ccA8CvEa.s:1413   .text.updatePlantReading:00000000000000f8 .LBE87
/var/folders/rt/4gvqv631095f64jvm7jfj_000000gn/T//ccA8CvEa.s:1555   .text.receiveCommands:0000000000000040 .LBB92
/var/folders/rt/4gvqv631095f64jvm7jfj_000000gn/T//ccA8CvEa.s:1607   .text.receiveCommands:000000000000009a .LBE92
/var/folders/rt/4gvqv631095f64jvm7jfj_000000gn/T//ccA8CvEa.s:1629   .text.receiveCommands:00000000000000b4 .LBB94
/var/folders/rt/4gvqv631095f64jvm7jfj_000000gn/T//ccA8CvEa.s:1703   .text.receiveCommands:000000000000014e .LBE94

UNDEFINED SYMBOLS
LCD_ShowStr
LCD_ShowNum
strcmp
LCD_Fill
generateTimeStamp
readSensor
snprintf
sprintf
LCD_Clear
commandBufferIndex
commandBuffer
putstr
initPlant
GAS LISTING /var/folders/rt/4gvqv631095f64jvm7jfj_000000gn/T//ccA8CvEa.s 			page 78


t5omsi
colinit
l88init
rtcInit
rtc_counter_set
u0init
eclic_global_interrupt_enable
ADC3powerUpInit
Lcd_SetType
Lcd_Init
t5expq
colset
l88row
l88mem
