GAS LISTING /var/folders/rt/4gvqv631095f64jvm7jfj_000000gn/T//ccOUYlzQ.s 			page 1


   1              		.file	"main.c"
   2              		.option nopic
   3              		.attribute arch, "rv32i2p0_m2p0_a2p0_c2p0"
   4              		.attribute unaligned_access, 0
   5              		.attribute stack_align, 16
   6              		.text
   7              	.Ltext0:
   8              		.cfi_sections	.debug_frame
   9              		.section	.text.rtcInit,"ax",@progbits
  10              		.align	1
  11              		.globl	rtcInit
  13              	rtcInit:
  14              	.LFB6:
  15              		.file 1 "main.c"
   1:main.c        **** #include "gd32vf103.h"
   2:main.c        **** #include "drivers.h"
   3:main.c        **** #include "adc.h"
   4:main.c        **** #include "lcd.h"
   5:main.c        **** #include "plant.h"
   6:main.c        **** #include <string.h>
   7:main.c        **** #include <stdio.h>
   8:main.c        **** #define STR_COPY(dest, src) \
   9:main.c        ****   snprintf(dest, sizeof(dest), "%s", src) // AI. STR_COPY är en genväg för snprintf som i sin tu
  10:main.c        **** 
  11:main.c        **** #define EI 1
  12:main.c        **** #define DI 0
  13:main.c        **** 
  14:main.c        **** // KTH code was from: https://gms.tf/riscv-gd32vf103.html#realtime-clock-rtc
  15:main.c        **** void rtcInit(void)
  16:main.c        **** {
  16              		.loc 1 16 1
  17              		.cfi_startproc
  17:main.c        ****   rcu_periph_clock_enable(RCU_PMU); // enable power managemenet unit - perhaps enabled by default
  18              		.loc 1 17 3
  16:main.c        ****   rcu_periph_clock_enable(RCU_PMU); // enable power managemenet unit - perhaps enabled by default
  19              		.loc 1 16 1 is_stmt 0
  20 0000 4111     		addi	sp,sp,-16
  21              	.LCFI0:
  22              		.cfi_def_cfa_offset 16
  23              		.loc 1 17 3
  24 0002 1305C071 		li	a0,1820
  16:main.c        ****   rcu_periph_clock_enable(RCU_PMU); // enable power managemenet unit - perhaps enabled by default
  25              		.loc 1 16 1
  26 0006 06C6     		sw	ra,12(sp)
  27              		.cfi_offset 1, -4
  28              		.loc 1 17 3
  29 0008 97000000 		call	rcu_periph_clock_enable
  29      E7800000 
  30              	.LVL0:
  18:main.c        ****   // enable write access to the registers in the backup domain
  19:main.c        ****   pmu_backup_write_enable();
  31              		.loc 1 19 3 is_stmt 1
  32 0010 97000000 		call	pmu_backup_write_enable
  32      E7800000 
  33              	.LVL1:
  20:main.c        ****   // enable backup domain
  21:main.c        ****   rcu_periph_clock_enable(RCU_BKPI);
GAS LISTING /var/folders/rt/4gvqv631095f64jvm7jfj_000000gn/T//ccOUYlzQ.s 			page 2


  34              		.loc 1 21 3
  35 0018 1305B071 		li	a0,1819
  36 001c 97000000 		call	rcu_periph_clock_enable
  36      E7800000 
  37              	.LVL2:
  22:main.c        ****   // reset backup domain registers
  23:main.c        ****   bkp_deinit();
  38              		.loc 1 23 3
  39 0024 97000000 		call	bkp_deinit
  39      E7800000 
  40              	.LVL3:
  24:main.c        ****   // set the results of a previous calibration procedure
  25:main.c        ****   // bkp_rtc_calibration_value_set(x);
  26:main.c        **** 
  27:main.c        ****   // setup RTC
  28:main.c        ****   // enable external low speed XO
  29:main.c        ****   rcu_osci_on(RCU_HXTAL);
  41              		.loc 1 29 3
  42 002c 4145     		li	a0,16
  43 002e 97000000 		call	rcu_osci_on
  43      E7800000 
  44              	.LVL4:
  30:main.c        ****   if (rcu_osci_stab_wait(RCU_HXTAL))
  45              		.loc 1 30 3
  46              		.loc 1 30 7 is_stmt 0
  47 0036 4145     		li	a0,16
  48 0038 97000000 		call	rcu_osci_stab_wait
  48      E7800000 
  49              	.LVL5:
  50              		.loc 1 30 6
  51 0040 21CD     		beq	a0,zero,.L1
  52              	.LBB4:
  53              	.LBB5:
  31:main.c        ****   {
  32:main.c        ****     // use external low speed oscillaotr, i.e. 32.768 kHz
  33:main.c        ****     rcu_rtc_clock_config(RCU_RTCSRC_HXTAL_DIV_128);
  54              		.loc 1 33 5 is_stmt 1
  55 0042 13050030 		li	a0,768
  56 0046 97000000 		call	rcu_rtc_clock_config
  56      E7800000 
  57              	.LVL6:
  34:main.c        ****     rcu_periph_clock_enable(RCU_RTC);
  58              		.loc 1 34 5
  59 004e 0565     		li	a0,4096
  60 0050 1305F580 		addi	a0,a0,-2033
  61 0054 97000000 		call	rcu_periph_clock_enable
  61      E7800000 
  62              	.LVL7:
  35:main.c        ****     // wait until shadow registers are synced from the backup domain
  36:main.c        ****     // over the APB bus
  37:main.c        ****     rtc_register_sync_wait();
  63              		.loc 1 37 5
  64 005c 97000000 		call	rtc_register_sync_wait
  64      E7800000 
  65              	.LVL8:
  38:main.c        ****     // wait until shadow register changes are synced over APB
  39:main.c        ****     // to the backup doamin
GAS LISTING /var/folders/rt/4gvqv631095f64jvm7jfj_000000gn/T//ccOUYlzQ.s 			page 3


  40:main.c        ****     rtc_lwoff_wait();
  66              		.loc 1 40 5
  67 0064 97000000 		call	rtc_lwoff_wait
  67      E7800000 
  68              	.LVL9:
  41:main.c        ****     // prescale to 1 second
  42:main.c        ****     rtc_prescaler_set(62500 - 1);
  69              		.loc 1 42 5
  70 006c 3D65     		li	a0,61440
  71 006e 13053542 		addi	a0,a0,1059
  72 0072 97000000 		call	rtc_prescaler_set
  72      E7800000 
  73              	.LVL10:
  43:main.c        ****     rtc_lwoff_wait();
  74              		.loc 1 43 5
  75 007a 97000000 		call	rtc_lwoff_wait
  75      E7800000 
  76              	.LVL11:
  44:main.c        ****     rtc_flag_clear(RTC_INT_FLAG_SECOND);
  77              		.loc 1 44 5
  78 0082 0545     		li	a0,1
  79 0084 97000000 		call	rtc_flag_clear
  79      E7800000 
  80              	.LVL12:
  45:main.c        ****     // rtc_interrupt_enable(RTC_INT_SECOND);
  46:main.c        ****     rtc_lwoff_wait();
  81              		.loc 1 46 5
  82              	.LBE5:
  83              	.LBE4:
  47:main.c        ****   }
  48:main.c        **** }
  84              		.loc 1 48 1 is_stmt 0
  85 008c B240     		lw	ra,12(sp)
  86              		.cfi_remember_state
  87              		.cfi_restore 1
  88 008e 4101     		addi	sp,sp,16
  89              	.LCFI1:
  90              		.cfi_def_cfa_offset 0
  91              	.LBB7:
  92              	.LBB6:
  46:main.c        ****   }
  93              		.loc 1 46 5
  94 0090 17030000 		tail	rtc_lwoff_wait
  94      67000300 
  95              	.LVL13:
  96              	.L1:
  97              	.LCFI2:
  98              		.cfi_restore_state
  99              	.LBE6:
 100              	.LBE7:
 101              		.loc 1 48 1
 102 0098 B240     		lw	ra,12(sp)
 103              		.cfi_restore 1
 104 009a 4101     		addi	sp,sp,16
 105              	.LCFI3:
 106              		.cfi_def_cfa_offset 0
 107 009c 8280     		jr	ra
GAS LISTING /var/folders/rt/4gvqv631095f64jvm7jfj_000000gn/T//ccOUYlzQ.s 			page 4


 108              		.cfi_endproc
 109              	.LFE6:
 111              		.section	.text.renderAllPlants,"ax",@progbits
 112              		.align	1
 113              		.globl	renderAllPlants
 115              	renderAllPlants:
 116              	.LFB7:
  49:main.c        **** 
  50:main.c        **** void renderAllPlants(Plant allPlants[], int numberOfPlants)
  51:main.c        **** {
 117              		.loc 1 51 1 is_stmt 1
 118              		.cfi_startproc
 119              	.LVL14:
  52:main.c        ****   for (int i = 0; i < numberOfPlants; i++)
 120              		.loc 1 52 3
 121              	.LBB8:
 122              		.loc 1 52 8
 123              	.LBE8:
  51:main.c        ****   for (int i = 0; i < numberOfPlants; i++)
 124              		.loc 1 51 1 is_stmt 0
 125 0000 7971     		addi	sp,sp,-48
 126              	.LCFI4:
 127              		.cfi_def_cfa_offset 48
 128 0002 22D4     		sw	s0,40(sp)
 129              		.cfi_offset 8, -8
 130              	.LBB9:
  53:main.c        ****   {
  54:main.c        ****     LCD_ShowStr(i * 55, 0, allPlants[i].name, WHITE, TRANSPARENT);
 131              		.loc 1 54 5
 132 0004 4164     		li	s0,65536
 133              	.LBE9:
  51:main.c        ****   for (int i = 0; i < numberOfPlants; i++)
 134              		.loc 1 51 1
 135 0006 26D2     		sw	s1,36(sp)
 136 0008 4ECE     		sw	s3,28(sp)
 137 000a 52CC     		sw	s4,24(sp)
 138 000c 5AC8     		sw	s6,16(sp)
 139 000e 5EC6     		sw	s7,12(sp)
 140 0010 06D6     		sw	ra,44(sp)
 141 0012 4AD0     		sw	s2,32(sp)
 142 0014 56CA     		sw	s5,20(sp)
 143              		.cfi_offset 9, -12
 144              		.cfi_offset 19, -20
 145              		.cfi_offset 20, -24
 146              		.cfi_offset 22, -32
 147              		.cfi_offset 23, -36
 148              		.cfi_offset 1, -4
 149              		.cfi_offset 18, -16
 150              		.cfi_offset 21, -28
  51:main.c        ****   for (int i = 0; i < numberOfPlants; i++)
 151              		.loc 1 51 1
 152 0016 2E8B     		mv	s6,a1
 153 0018 AA84     		mv	s1,a0
 154              	.LBB10:
  52:main.c        ****   {
 155              		.loc 1 52 12
 156 001a 8149     		li	s3,0
GAS LISTING /var/folders/rt/4gvqv631095f64jvm7jfj_000000gn/T//ccOUYlzQ.s 			page 5


 157 001c 930B7003 		li	s7,55
 158              		.loc 1 54 5
 159 0020 7D14     		addi	s0,s0,-1
  55:main.c        ****     LCD_ShowNum(i * 55, 20, allPlants[i].moisture[0].reading, 3, WHITE);
  56:main.c        ****     LCD_ShowStr(i * 55 + 30, 20, "%", WHITE, TRANSPARENT);
 160              		.loc 1 56 5
 161 0022 370A0000 		lui	s4,%hi(.LC0)
 162              	.LVL15:
 163              	.L5:
  52:main.c        ****   {
 164              		.loc 1 52 3 discriminator 1
 165 0026 63CD6901 		blt	s3,s6,.L6
 166              	.LBE10:
  57:main.c        ****     LCD_ShowNum(i * 55, 40, allPlants[i].sun[0].reading, 3, WHITE);
  58:main.c        ****     LCD_ShowStr(i * 55 + 30, 40, "%", WHITE, TRANSPARENT);
  59:main.c        ****     LCD_ShowStr(i * 55, 60, allPlants[i].currentStatus, GBLUE, TRANSPARENT);
  60:main.c        ****   }
  61:main.c        **** }
 167              		.loc 1 61 1
 168 002a B250     		lw	ra,44(sp)
 169              		.cfi_remember_state
 170              		.cfi_restore 1
 171 002c 2254     		lw	s0,40(sp)
 172              		.cfi_restore 8
 173 002e 9254     		lw	s1,36(sp)
 174              		.cfi_restore 9
 175 0030 0259     		lw	s2,32(sp)
 176              		.cfi_restore 18
 177 0032 F249     		lw	s3,28(sp)
 178              		.cfi_restore 19
 179              	.LVL16:
 180 0034 624A     		lw	s4,24(sp)
 181              		.cfi_restore 20
 182 0036 D24A     		lw	s5,20(sp)
 183              		.cfi_restore 21
 184 0038 424B     		lw	s6,16(sp)
 185              		.cfi_restore 22
 186              	.LVL17:
 187 003a B24B     		lw	s7,12(sp)
 188              		.cfi_restore 23
 189 003c 4561     		addi	sp,sp,48
 190              	.LCFI5:
 191              		.cfi_def_cfa_offset 0
 192 003e 8280     		jr	ra
 193              	.LVL18:
 194              	.L6:
 195              	.LCFI6:
 196              		.cfi_restore_state
 197              	.LBB11:
  54:main.c        ****     LCD_ShowNum(i * 55, 20, allPlants[i].moisture[0].reading, 3, WHITE);
 198              		.loc 1 54 5 is_stmt 1 discriminator 3
 199 0040 33897903 		mul	s2,s3,s7
 200 0044 2686     		mv	a2,s1
 201 0046 0547     		li	a4,1
 202 0048 A286     		mv	a3,s0
 203 004a 8145     		li	a1,0
  52:main.c        ****   {
GAS LISTING /var/folders/rt/4gvqv631095f64jvm7jfj_000000gn/T//ccOUYlzQ.s 			page 6


 204              		.loc 1 52 40 is_stmt 0 discriminator 3
 205 004c 8509     		addi	s3,s3,1
 206              	.LVL19:
  54:main.c        ****     LCD_ShowNum(i * 55, 20, allPlants[i].moisture[0].reading, 3, WHITE);
 207              		.loc 1 54 5 discriminator 3
 208 004e 4A85     		mv	a0,s2
 209 0050 97000000 		call	LCD_ShowStr
 209      E7800000 
 210              	.LVL20:
  55:main.c        ****     LCD_ShowStr(i * 55 + 30, 20, "%", WHITE, TRANSPARENT);
 211              		.loc 1 55 5 is_stmt 1 discriminator 3
 212 0058 904C     		lw	a2,24(s1)
 213 005a 2287     		mv	a4,s0
 214 005c 8D46     		li	a3,3
 215 005e D145     		li	a1,20
 216 0060 4A85     		mv	a0,s2
 217 0062 97000000 		call	LCD_ShowNum
 217      E7800000 
 218              	.LVL21:
  56:main.c        ****     LCD_ShowNum(i * 55, 40, allPlants[i].sun[0].reading, 3, WHITE);
 219              		.loc 1 56 5 discriminator 3
 220 006a 930AE901 		addi	s5,s2,30
 221 006e 0547     		li	a4,1
 222 0070 A286     		mv	a3,s0
 223 0072 13060A00 		addi	a2,s4,%lo(.LC0)
 224 0076 D145     		li	a1,20
 225 0078 5685     		mv	a0,s5
 226 007a 97000000 		call	LCD_ShowStr
 226      E7800000 
 227              	.LVL22:
  57:main.c        ****     LCD_ShowStr(i * 55 + 30, 40, "%", WHITE, TRANSPARENT);
 228              		.loc 1 57 5 discriminator 3
 229 0082 03A68431 		lw	a2,792(s1)
 230 0086 2287     		mv	a4,s0
 231 0088 8D46     		li	a3,3
 232 008a 93058002 		li	a1,40
 233 008e 4A85     		mv	a0,s2
 234 0090 97000000 		call	LCD_ShowNum
 234      E7800000 
 235              	.LVL23:
  58:main.c        ****     LCD_ShowStr(i * 55, 60, allPlants[i].currentStatus, GBLUE, TRANSPARENT);
 236              		.loc 1 58 5 discriminator 3
 237 0098 0547     		li	a4,1
 238 009a A286     		mv	a3,s0
 239 009c 13060A00 		addi	a2,s4,%lo(.LC0)
 240 00a0 93058002 		li	a1,40
 241 00a4 5685     		mv	a0,s5
 242 00a6 97000000 		call	LCD_ShowStr
 242      E7800000 
 243              	.LVL24:
  59:main.c        ****   }
 244              		.loc 1 59 5 discriminator 3
 245 00ae 1386C460 		addi	a2,s1,1548
 246 00b2 0547     		li	a4,1
 247 00b4 9306F07F 		li	a3,2047
 248 00b8 9305C003 		li	a1,60
 249 00bc 4A85     		mv	a0,s2
GAS LISTING /var/folders/rt/4gvqv631095f64jvm7jfj_000000gn/T//ccOUYlzQ.s 			page 7


 250 00be 97000000 		call	LCD_ShowStr
 250      E7800000 
 251              	.LVL25:
 252 00c6 93848461 		addi	s1,s1,1560
 253 00ca B1BF     		j	.L5
 254              	.LBE11:
 255              		.cfi_endproc
 256              	.LFE7:
 258              		.section	.text.renderOnePlant,"ax",@progbits
 259              		.align	1
 260              		.globl	renderOnePlant
 262              	renderOnePlant:
 263              	.LFB8:
  62:main.c        **** 
  63:main.c        **** void renderOnePlant(Plant allPlants[], int numberOfPlants, char name[])
  64:main.c        **** {
 264              		.loc 1 64 1
 265              		.cfi_startproc
 266              	.LVL26:
  65:main.c        ****   for (int i = 0; i < numberOfPlants; i++)
 267              		.loc 1 65 3
 268              	.LBB12:
 269              		.loc 1 65 8
 270              	.LBE12:
  64:main.c        ****   for (int i = 0; i < numberOfPlants; i++)
 271              		.loc 1 64 1 is_stmt 0
 272 0000 7971     		addi	sp,sp,-48
 273              	.LCFI7:
 274              		.cfi_def_cfa_offset 48
 275 0002 22D4     		sw	s0,40(sp)
 276 0004 4AD0     		sw	s2,32(sp)
 277 0006 4ECE     		sw	s3,28(sp)
 278 0008 06D6     		sw	ra,44(sp)
 279 000a 26D2     		sw	s1,36(sp)
 280              		.cfi_offset 8, -8
 281              		.cfi_offset 18, -16
 282              		.cfi_offset 19, -20
 283              		.cfi_offset 1, -4
 284              		.cfi_offset 9, -12
  64:main.c        ****   for (int i = 0; i < numberOfPlants; i++)
 285              		.loc 1 64 1
 286 000c AE89     		mv	s3,a1
 287 000e 2A84     		mv	s0,a0
 288              	.LBB13:
 289              		.loc 1 65 12
 290 0010 0149     		li	s2,0
 291              	.LVL27:
 292              	.L9:
 293              		.loc 1 65 3 discriminator 1
 294 0012 634E3901 		blt	s2,s3,.L11
 295              	.LBE13:
  66:main.c        ****   {
  67:main.c        ****     if (strcmp(allPlants[i].name, name) == 0)
  68:main.c        ****     {
  69:main.c        ****       LCD_ShowStr(0, 0, allPlants[i].name, WHITE, TRANSPARENT);
  70:main.c        ****       LCD_ShowNum(0, 20, allPlants[i].moisture[0].reading, 3, WHITE);
  71:main.c        ****       LCD_ShowStr(0 + 30, 20, "%", WHITE, TRANSPARENT);
GAS LISTING /var/folders/rt/4gvqv631095f64jvm7jfj_000000gn/T//ccOUYlzQ.s 			page 8


  72:main.c        ****       LCD_ShowStr(50, 20, allPlants[i].moisture[0].timeStamp, WHITE, TRANSPARENT);
  73:main.c        ****       LCD_ShowNum(0, 40, allPlants[i].sun[0].reading, 3, WHITE);
  74:main.c        ****       LCD_ShowStr(0 + 30, 40, "%", WHITE, TRANSPARENT);
  75:main.c        ****       LCD_Fill(50, 40, 160, 53, BLACK); //Black out old reading before writing new
  76:main.c        ****       LCD_ShowStr(50, 40, allPlants[i].sun[0].timeStamp, WHITE, TRANSPARENT);
  77:main.c        ****       LCD_ShowStr(0, 60, allPlants[i].currentStatus, GBLUE, TRANSPARENT);
  78:main.c        ****       return;
  79:main.c        ****     }
  80:main.c        ****   }
  81:main.c        ****   LCD_ShowStr(50, 4, "NO SUCH PLANT", RED, TRANSPARENT);
 296              		.loc 1 81 3 is_stmt 1
 297 0016 C166     		li	a3,65536
 298 0018 37060000 		lui	a2,%hi(.LC1)
 299              	.LVL28:
 300 001c 0547     		li	a4,1
 301 001e 93860680 		addi	a3,a3,-2048
 302 0022 13060600 		addi	a2,a2,%lo(.LC1)
 303 0026 9145     		li	a1,4
 304 0028 13052003 		li	a0,50
 305 002c E5A0     		j	.L13
 306              	.LVL29:
 307              	.L11:
 308              	.LBB14:
  67:main.c        ****     {
 309              		.loc 1 67 5
  67:main.c        ****     {
 310              		.loc 1 67 9 is_stmt 0
 311 002e B285     		mv	a1,a2
 312 0030 2285     		mv	a0,s0
 313 0032 32C6     		sw	a2,12(sp)
 314 0034 97000000 		call	strcmp
 314      E7800000 
 315              	.LVL30:
  67:main.c        ****     {
 316              		.loc 1 67 25
 317 003c A284     		mv	s1,s0
  67:main.c        ****     {
 318              		.loc 1 67 8
 319 003e 3246     		lw	a2,12(sp)
 320 0040 13048461 		addi	s0,s0,1560
 321 0044 75E1     		bne	a0,zero,.L10
 322              	.LVL31:
  69:main.c        ****       LCD_ShowNum(0, 20, allPlants[i].moisture[0].reading, 3, WHITE);
 323              		.loc 1 69 7 is_stmt 1
 324 0046 4164     		li	s0,65536
 325 0048 0547     		li	a4,1
 326 004a 9306F4FF 		addi	a3,s0,-1
 327 004e 2686     		mv	a2,s1
 328              	.LVL32:
 329 0050 8145     		li	a1,0
 330 0052 97000000 		call	LCD_ShowStr
 330      E7800000 
 331              	.LVL33:
  70:main.c        ****       LCD_ShowStr(0 + 30, 20, "%", WHITE, TRANSPARENT);
 332              		.loc 1 70 7
 333 005a 904C     		lw	a2,24(s1)
 334 005c 1307F4FF 		addi	a4,s0,-1
GAS LISTING /var/folders/rt/4gvqv631095f64jvm7jfj_000000gn/T//ccOUYlzQ.s 			page 9


 335 0060 8D46     		li	a3,3
 336 0062 D145     		li	a1,20
 337 0064 0145     		li	a0,0
 338 0066 97000000 		call	LCD_ShowNum
 338      E7800000 
 339              	.LVL34:
  71:main.c        ****       LCD_ShowStr(50, 20, allPlants[i].moisture[0].timeStamp, WHITE, TRANSPARENT);
 340              		.loc 1 71 7
 341 006e 37090000 		lui	s2,%hi(.LC0)
 342              	.LVL35:
 343 0072 0547     		li	a4,1
 344 0074 9306F4FF 		addi	a3,s0,-1
 345 0078 13060900 		addi	a2,s2,%lo(.LC0)
 346 007c D145     		li	a1,20
 347 007e 7945     		li	a0,30
 348 0080 97000000 		call	LCD_ShowStr
 348      E7800000 
 349              	.LVL36:
  72:main.c        ****       LCD_ShowNum(0, 40, allPlants[i].sun[0].reading, 3, WHITE);
 350              		.loc 1 72 7
 351 0088 0547     		li	a4,1
 352 008a 9306F4FF 		addi	a3,s0,-1
 353 008e 1386C400 		addi	a2,s1,12
 354 0092 D145     		li	a1,20
 355 0094 13052003 		li	a0,50
 356 0098 97000000 		call	LCD_ShowStr
 356      E7800000 
 357              	.LVL37:
  73:main.c        ****       LCD_ShowStr(0 + 30, 40, "%", WHITE, TRANSPARENT);
 358              		.loc 1 73 7
 359 00a0 03A68431 		lw	a2,792(s1)
 360 00a4 1307F4FF 		addi	a4,s0,-1
 361 00a8 8D46     		li	a3,3
 362 00aa 93058002 		li	a1,40
 363 00ae 0145     		li	a0,0
 364 00b0 97000000 		call	LCD_ShowNum
 364      E7800000 
 365              	.LVL38:
  74:main.c        ****       LCD_Fill(50, 40, 160, 53, BLACK); //Black out old reading before writing new
 366              		.loc 1 74 7
 367 00b8 0547     		li	a4,1
 368 00ba 9306F4FF 		addi	a3,s0,-1
 369 00be 13060900 		addi	a2,s2,%lo(.LC0)
 370 00c2 93058002 		li	a1,40
 371 00c6 7945     		li	a0,30
 372 00c8 97000000 		call	LCD_ShowStr
 372      E7800000 
 373              	.LVL39:
  75:main.c        ****       LCD_ShowStr(50, 40, allPlants[i].sun[0].timeStamp, WHITE, TRANSPARENT);
 374              		.loc 1 75 7
 375 00d0 0147     		li	a4,0
 376 00d2 93065003 		li	a3,53
 377 00d6 1306000A 		li	a2,160
 378 00da 93058002 		li	a1,40
 379 00de 13052003 		li	a0,50
 380 00e2 97000000 		call	LCD_Fill
 380      E7800000 
GAS LISTING /var/folders/rt/4gvqv631095f64jvm7jfj_000000gn/T//ccOUYlzQ.s 			page 10


 381              	.LVL40:
  76:main.c        ****       LCD_ShowStr(0, 60, allPlants[i].currentStatus, GBLUE, TRANSPARENT);
 382              		.loc 1 76 7
 383 00ea 0547     		li	a4,1
 384 00ec 9306F4FF 		addi	a3,s0,-1
 385 00f0 1386C430 		addi	a2,s1,780
 386 00f4 93058002 		li	a1,40
 387 00f8 13052003 		li	a0,50
 388 00fc 97000000 		call	LCD_ShowStr
 388      E7800000 
 389              	.LVL41:
  77:main.c        ****       return;
 390              		.loc 1 77 7
 391 0104 0547     		li	a4,1
 392 0106 9306F07F 		li	a3,2047
 393 010a 1386C460 		addi	a2,s1,1548
 394 010e 9305C003 		li	a1,60
 395 0112 0145     		li	a0,0
 396              	.LVL42:
 397              	.L13:
 398              	.LBE14:
  82:main.c        **** }
 399              		.loc 1 82 1 is_stmt 0
 400 0114 2254     		lw	s0,40(sp)
 401              		.cfi_remember_state
 402              		.cfi_restore 8
 403 0116 B250     		lw	ra,44(sp)
 404              		.cfi_restore 1
 405 0118 9254     		lw	s1,36(sp)
 406              		.cfi_restore 9
 407 011a 0259     		lw	s2,32(sp)
 408              		.cfi_restore 18
 409 011c F249     		lw	s3,28(sp)
 410              		.cfi_restore 19
 411              	.LVL43:
 412 011e 4561     		addi	sp,sp,48
 413              	.LCFI8:
 414              		.cfi_def_cfa_offset 0
  81:main.c        **** }
 415              		.loc 1 81 3
 416 0120 17030000 		tail	LCD_ShowStr
 416      67000300 
 417              	.LVL44:
 418              	.L10:
 419              	.LCFI9:
 420              		.cfi_restore_state
 421              	.LBB15:
  65:main.c        ****   {
 422              		.loc 1 65 40 discriminator 2
 423 0128 0509     		addi	s2,s2,1
 424              	.LVL45:
 425 012a E5B5     		j	.L9
 426              	.LBE15:
 427              		.cfi_endproc
 428              	.LFE8:
 430              		.section	.text.fetchReading,"ax",@progbits
 431              		.align	1
GAS LISTING /var/folders/rt/4gvqv631095f64jvm7jfj_000000gn/T//ccOUYlzQ.s 			page 11


 432              		.globl	fetchReading
 434              	fetchReading:
 435              	.LFB9:
  83:main.c        **** 
  84:main.c        **** int fetchReading(uint32_t source, uint32_t EOC)
  85:main.c        **** {
 436              		.loc 1 85 1 is_stmt 1
 437              		.cfi_startproc
 438              	.LVL46:
  86:main.c        ****   adc_software_trigger_enable(source, ADC_REGULAR_CHANNEL);
 439              		.loc 1 86 3
  85:main.c        ****   adc_software_trigger_enable(source, ADC_REGULAR_CHANNEL);
 440              		.loc 1 85 1 is_stmt 0
 441 0000 0111     		addi	sp,sp,-32
 442              	.LCFI10:
 443              		.cfi_def_cfa_offset 32
 444 0002 26CA     		sw	s1,20(sp)
 445              		.cfi_offset 9, -12
 446 0004 AE84     		mv	s1,a1
 447              		.loc 1 86 3
 448 0006 8545     		li	a1,1
 449              	.LVL47:
  85:main.c        ****   adc_software_trigger_enable(source, ADC_REGULAR_CHANNEL);
 450              		.loc 1 85 1
 451 0008 22CC     		sw	s0,24(sp)
 452 000a 4AC8     		sw	s2,16(sp)
 453 000c 4EC6     		sw	s3,12(sp)
 454 000e 06CE     		sw	ra,28(sp)
 455              		.cfi_offset 8, -8
 456              		.cfi_offset 18, -16
 457              		.cfi_offset 19, -20
 458              		.cfi_offset 1, -4
  85:main.c        ****   adc_software_trigger_enable(source, ADC_REGULAR_CHANNEL);
 459              		.loc 1 85 1
 460 0010 2A84     		mv	s0,a0
  87:main.c        ****   int called = 0;
 461              		.loc 1 87 7
 462 0012 0149     		li	s2,0
  86:main.c        ****   adc_software_trigger_enable(source, ADC_REGULAR_CHANNEL);
 463              		.loc 1 86 3
 464 0014 97000000 		call	adc_software_trigger_enable
 464      E7800000 
 465              	.LVL48:
 466              		.loc 1 87 3 is_stmt 1
  88:main.c        ****   while (!adc_flag_get(source, EOC))
 467              		.loc 1 88 3
  89:main.c        ****   { // blocking
  90:main.c        ****     if (!called)
  91:main.c        ****     {
  92:main.c        ****       LCD_ShowStr(50, 4, "reads sensor", GREEN, TRANSPARENT);
 468              		.loc 1 92 7 is_stmt 0
 469 001c B7090000 		lui	s3,%hi(.LC2)
 470              	.LVL49:
 471              	.L16:
  88:main.c        ****   while (!adc_flag_get(source, EOC))
 472              		.loc 1 88 11
 473 0020 A685     		mv	a1,s1
GAS LISTING /var/folders/rt/4gvqv631095f64jvm7jfj_000000gn/T//ccOUYlzQ.s 			page 12


 474 0022 2285     		mv	a0,s0
 475 0024 97000000 		call	adc_flag_get
 475      E7800000 
 476              	.LVL50:
  88:main.c        ****   while (!adc_flag_get(source, EOC))
 477              		.loc 1 88 9
 478 002c 0DC5     		beq	a0,zero,.L17
  93:main.c        ****       called = 1;
  94:main.c        ****     }
  95:main.c        ****   }
  96:main.c        ****   int reading = adc_regular_data_read(source);
 479              		.loc 1 96 3 is_stmt 1
 480              		.loc 1 96 17 is_stmt 0
 481 002e 2285     		mv	a0,s0
 482 0030 97000000 		call	adc_regular_data_read
 482      E7800000 
 483              	.LVL51:
 484 0038 2A89     		mv	s2,a0
 485              	.LVL52:
  97:main.c        ****   adc_flag_clear(source, EOC);
 486              		.loc 1 97 3 is_stmt 1
 487 003a A685     		mv	a1,s1
 488 003c 2285     		mv	a0,s0
 489 003e 97000000 		call	adc_flag_clear
 489      E7800000 
 490              	.LVL53:
  98:main.c        ****   return reading;
 491              		.loc 1 98 3
  99:main.c        **** }
 492              		.loc 1 99 1 is_stmt 0
 493 0046 F240     		lw	ra,28(sp)
 494              		.cfi_remember_state
 495              		.cfi_restore 1
 496 0048 6244     		lw	s0,24(sp)
 497              		.cfi_restore 8
 498              	.LVL54:
 499 004a 4A85     		mv	a0,s2
 500 004c D244     		lw	s1,20(sp)
 501              		.cfi_restore 9
 502              	.LVL55:
 503 004e 4249     		lw	s2,16(sp)
 504              		.cfi_restore 18
 505              	.LVL56:
 506 0050 B249     		lw	s3,12(sp)
 507              		.cfi_restore 19
 508 0052 0561     		addi	sp,sp,32
 509              	.LCFI11:
 510              		.cfi_def_cfa_offset 0
 511 0054 8280     		jr	ra
 512              	.LVL57:
 513              	.L17:
 514              	.LCFI12:
 515              		.cfi_restore_state
  90:main.c        ****     {
 516              		.loc 1 90 5 is_stmt 1
  90:main.c        ****     {
 517              		.loc 1 90 8 is_stmt 0
GAS LISTING /var/folders/rt/4gvqv631095f64jvm7jfj_000000gn/T//ccOUYlzQ.s 			page 13


 518 0056 E31509FC 		bne	s2,zero,.L16
  92:main.c        ****       called = 1;
 519              		.loc 1 92 7 is_stmt 1
 520 005a 0547     		li	a4,1
 521 005c 9306007E 		li	a3,2016
 522 0060 13860900 		addi	a2,s3,%lo(.LC2)
 523 0064 9145     		li	a1,4
 524 0066 13052003 		li	a0,50
 525 006a 97000000 		call	LCD_ShowStr
 525      E7800000 
 526              	.LVL58:
  93:main.c        ****     }
 527              		.loc 1 93 7
  93:main.c        ****     }
 528              		.loc 1 93 14 is_stmt 0
 529 0072 0549     		li	s2,1
 530 0074 75B7     		j	.L16
 531              		.cfi_endproc
 532              	.LFE9:
 534              		.section	.text.updatePlantReading,"ax",@progbits
 535              		.align	1
 536              		.globl	updatePlantReading
 538              	updatePlantReading:
 539              	.LFB10:
 100:main.c        **** 
 101:main.c        **** void updatePlantReading(Plant allPlants[], int numberOfPlants, char name[], SensorType type)
 102:main.c        **** {
 540              		.loc 1 102 1 is_stmt 1
 541              		.cfi_startproc
 542              	.LVL59:
 103:main.c        ****   for (int i = 0; i < numberOfPlants; i++)
 543              		.loc 1 103 3
 544              	.LBB16:
 545              		.loc 1 103 8
 546              	.LBE16:
 102:main.c        ****   for (int i = 0; i < numberOfPlants; i++)
 547              		.loc 1 102 1 is_stmt 0
 548 0000 3971     		addi	sp,sp,-64
 549              	.LCFI13:
 550              		.cfi_def_cfa_offset 64
 551 0002 22DC     		sw	s0,56(sp)
 552 0004 26DA     		sw	s1,52(sp)
 553 0006 4AD8     		sw	s2,48(sp)
 554 0008 4ED6     		sw	s3,44(sp)
 555 000a 06DE     		sw	ra,60(sp)
 556              		.cfi_offset 8, -8
 557              		.cfi_offset 9, -12
 558              		.cfi_offset 18, -16
 559              		.cfi_offset 19, -20
 560              		.cfi_offset 1, -4
 102:main.c        ****   for (int i = 0; i < numberOfPlants; i++)
 561              		.loc 1 102 1
 562 000c 2E89     		mv	s2,a1
 563 000e 2A84     		mv	s0,a0
 564              	.LBB18:
 565              		.loc 1 103 12
 566 0010 8144     		li	s1,0
GAS LISTING /var/folders/rt/4gvqv631095f64jvm7jfj_000000gn/T//ccOUYlzQ.s 			page 14


 104:main.c        ****   {
 105:main.c        ****     if (strcmp(allPlants[i].name, name) == 0)
 106:main.c        ****     {
 107:main.c        ****       if (type == SUN)
 567              		.loc 1 107 10
 568 0012 8549     		li	s3,1
 569              	.LVL60:
 570              	.L21:
 103:main.c        ****   {
 571              		.loc 1 103 3 discriminator 1
 572 0014 63C22403 		blt	s1,s2,.L25
 573              	.LBE18:
 108:main.c        ****       {
 109:main.c        ****         int tempValue = fetchReading(ADC0, ADC_FLAG_EOC); // 300 ger hyfsat välkalibrerat ljus.
 110:main.c        ****         if (tempValue < 0) tempValue = 0; // guard för inkommande värde över 300
 111:main.c        ****         uint32_t currentTime = rtc_counter_get();
 112:main.c        ****         int hours = currentTime / 3600;
 113:main.c        ****         int min = (currentTime % 3600) / 60;
 114:main.c        ****         int sec = currentTime % 60;
 115:main.c        ****         char placeholder[12];
 116:main.c        ****         snprintf(placeholder, sizeof(placeholder), "%02dH:%02dM:%02dS", hours, min, sec);
 117:main.c        **** 
 118:main.c        ****         // I framtiden måste alla befintliga värden flyttas fram innan läggs på i [0], så att 
 119:main.c        ****         allPlants[i].sun[0].reading = tempValue; // i procent.
 120:main.c        ****         STR_COPY(allPlants[i].sun[0].timeStamp, placeholder);
 121:main.c        ****         return;
 122:main.c        ****       }
 123:main.c        ****     }
 124:main.c        ****   }
 125:main.c        ****   LCD_ShowStr(50, 4, "NO SUCH PLANT", RED, TRANSPARENT);
 574              		.loc 1 125 3 is_stmt 1
 575 0018 C166     		li	a3,65536
 576              	.LVL61:
 577 001a 37060000 		lui	a2,%hi(.LC1)
 578              	.LVL62:
 579 001e 0547     		li	a4,1
 580 0020 93860680 		addi	a3,a3,-2048
 581 0024 13060600 		addi	a2,a2,%lo(.LC1)
 582 0028 9145     		li	a1,4
 583 002a 13052003 		li	a0,50
 584 002e 97000000 		call	LCD_ShowStr
 584      E7800000 
 585              	.LVL63:
 586 0036 69A0     		j	.L20
 587              	.LVL64:
 588              	.L25:
 589              	.LBB19:
 105:main.c        ****     {
 590              		.loc 1 105 9 is_stmt 0
 591 0038 B285     		mv	a1,a2
 592 003a 2285     		mv	a0,s0
 593 003c 36C6     		sw	a3,12(sp)
 105:main.c        ****     {
 594              		.loc 1 105 5 is_stmt 1
 105:main.c        ****     {
 595              		.loc 1 105 9 is_stmt 0
 596 003e 32C4     		sw	a2,8(sp)
GAS LISTING /var/folders/rt/4gvqv631095f64jvm7jfj_000000gn/T//ccOUYlzQ.s 			page 15


 597 0040 97000000 		call	strcmp
 597      E7800000 
 598              	.LVL65:
 105:main.c        ****     {
 599              		.loc 1 105 8
 600 0048 2246     		lw	a2,8(sp)
 601 004a B246     		lw	a3,12(sp)
 602 004c 49E1     		bne	a0,zero,.L22
 603              	.LVL66:
 107:main.c        ****       {
 604              		.loc 1 107 7 is_stmt 1
 107:main.c        ****       {
 605              		.loc 1 107 10 is_stmt 0
 606 004e 63903609 		bne	a3,s3,.L22
 607              	.LBB17:
 109:main.c        ****         if (tempValue < 0) tempValue = 0; // guard för inkommande värde över 300
 608              		.loc 1 109 9 is_stmt 1
 109:main.c        ****         if (tempValue < 0) tempValue = 0; // guard för inkommande värde över 300
 609              		.loc 1 109 25 is_stmt 0
 610 0052 37250140 		li	a0,1073815552
 611 0056 8945     		li	a1,2
 612 0058 13050540 		addi	a0,a0,1024
 613 005c 97000000 		call	fetchReading
 613      E7800000 
 614              	.LVL67:
 615 0064 AA84     		mv	s1,a0
 616              	.LVL68:
 110:main.c        ****         uint32_t currentTime = rtc_counter_get();
 617              		.loc 1 110 9 is_stmt 1
 111:main.c        ****         int hours = currentTime / 3600;
 618              		.loc 1 111 9
 111:main.c        ****         int hours = currentTime / 3600;
 619              		.loc 1 111 32 is_stmt 0
 620 0066 97000000 		call	rtc_counter_get
 620      E7800000 
 621              	.LVL69:
 112:main.c        ****         int min = (currentTime % 3600) / 60;
 622              		.loc 1 112 9 is_stmt 1
 113:main.c        ****         int sec = currentTime % 60;
 623              		.loc 1 113 9
 114:main.c        ****         char placeholder[12];
 624              		.loc 1 114 9
 115:main.c        ****         snprintf(placeholder, sizeof(placeholder), "%02dH:%02dM:%02dS", hours, min, sec);
 625              		.loc 1 115 9
 116:main.c        **** 
 626              		.loc 1 116 9
 113:main.c        ****         int sec = currentTime % 60;
 627              		.loc 1 113 32 is_stmt 0
 628 006e 8566     		li	a3,4096
 629 0070 938606E1 		addi	a3,a3,-496
 630 0074 3376D502 		remu	a2,a0,a3
 114:main.c        ****         char placeholder[12];
 631              		.loc 1 114 31
 632 0078 1307C003 		li	a4,60
 116:main.c        **** 
 633              		.loc 1 116 9
 634 007c B145     		li	a1,12
GAS LISTING /var/folders/rt/4gvqv631095f64jvm7jfj_000000gn/T//ccOUYlzQ.s 			page 16


 635 007e B377E502 		remu	a5,a0,a4
 636              	.LVL70:
 637 0082 B356D502 		divu	a3,a0,a3
 638 0086 4808     		addi	a0,sp,20
 639              	.LVL71:
 640 0088 3357E602 		divu	a4,a2,a4
 641 008c 37060000 		lui	a2,%hi(.LC3)
 642 0090 13060600 		addi	a2,a2,%lo(.LC3)
 643 0094 97000000 		call	snprintf
 643      E7800000 
 644              	.LVL72:
 119:main.c        ****         STR_COPY(allPlants[i].sun[0].timeStamp, placeholder);
 645              		.loc 1 119 9 is_stmt 1
 119:main.c        ****         STR_COPY(allPlants[i].sun[0].timeStamp, placeholder);
 646              		.loc 1 119 37 is_stmt 0
 647 009c 2685     		mv	a0,s1
 648 009e 63D30400 		bge	s1,zero,.L23
 649 00a2 0145     		li	a0,0
 650              	.L23:
 120:main.c        ****         return;
 651              		.loc 1 120 9
 652 00a4 37060000 		lui	a2,%hi(.LC4)
 119:main.c        ****         STR_COPY(allPlants[i].sun[0].timeStamp, placeholder);
 653              		.loc 1 119 37
 654 00a8 232CA430 		sw	a0,792(s0)
 120:main.c        ****         return;
 655              		.loc 1 120 9 is_stmt 1
 656 00ac 5408     		addi	a3,sp,20
 657 00ae 13060600 		addi	a2,a2,%lo(.LC4)
 658 00b2 B145     		li	a1,12
 659 00b4 1305C430 		addi	a0,s0,780
 660 00b8 97000000 		call	snprintf
 660      E7800000 
 661              	.LVL73:
 121:main.c        ****       }
 662              		.loc 1 121 9
 663              	.L20:
 664              	.LBE17:
 665              	.LBE19:
 126:main.c        **** }
 666              		.loc 1 126 1 is_stmt 0
 667 00c0 F250     		lw	ra,60(sp)
 668              		.cfi_remember_state
 669              		.cfi_restore 1
 670 00c2 6254     		lw	s0,56(sp)
 671              		.cfi_restore 8
 672 00c4 D254     		lw	s1,52(sp)
 673              		.cfi_restore 9
 674 00c6 4259     		lw	s2,48(sp)
 675              		.cfi_restore 18
 676              	.LVL74:
 677 00c8 B259     		lw	s3,44(sp)
 678              		.cfi_restore 19
 679 00ca 2161     		addi	sp,sp,64
 680              	.LCFI14:
 681              		.cfi_def_cfa_offset 0
 682 00cc 8280     		jr	ra
GAS LISTING /var/folders/rt/4gvqv631095f64jvm7jfj_000000gn/T//ccOUYlzQ.s 			page 17


 683              	.LVL75:
 684              	.L22:
 685              	.LCFI15:
 686              		.cfi_restore_state
 687              	.LBB20:
 103:main.c        ****   {
 688              		.loc 1 103 40 discriminator 2
 689 00ce 8504     		addi	s1,s1,1
 690              	.LVL76:
 691 00d0 13048461 		addi	s0,s0,1560
 692 00d4 81B7     		j	.L21
 693              	.LBE20:
 694              		.cfi_endproc
 695              	.LFE10:
 697              		.section	.text.startup.main,"ax",@progbits
 698              		.align	1
 699              		.globl	main
 701              	main:
 702              	.LFB11:
 127:main.c        **** 
 128:main.c        **** int main(void)
 129:main.c        **** {
 703              		.loc 1 129 1 is_stmt 1
 704              		.cfi_startproc
 130:main.c        ****   int ms = 0, s = 0, idle = 0;
 705              		.loc 1 130 3
 706              	.LVL77:
 131:main.c        ****   // int lookUpTbl[16] = {1, 4, 7, 14, 2, 5, 8, 0, 3, 6, 9, 15, 10, 11, 12, 13};
 132:main.c        **** 
 133:main.c        ****   t5omsi();  // Initialize timer5 1kHz
 707              		.loc 1 133 3
 129:main.c        ****   int ms = 0, s = 0, idle = 0;
 708              		.loc 1 129 1 is_stmt 0
 709 0000 7D73     		li	t1,-4096
 710 0002 130101D9 		addi	sp,sp,-624
 711              	.LCFI16:
 712              		.cfi_def_cfa_offset 624
 713 0006 23261126 		sw	ra,620(sp)
 714 000a 23248126 		sw	s0,616(sp)
 715 000e 23229126 		sw	s1,612(sp)
 716 0012 23202127 		sw	s2,608(sp)
 717 0016 232E3125 		sw	s3,604(sp)
 718 001a 232C4125 		sw	s4,600(sp)
 719 001e 232A5125 		sw	s5,596(sp)
 720 0022 1A91     		add	sp,sp,t1
 721              	.LCFI17:
 722              		.cfi_def_cfa_offset 4720
 723              		.cfi_offset 1, -4
 724              		.cfi_offset 8, -8
 725              		.cfi_offset 9, -12
 726              		.cfi_offset 18, -16
 727              		.cfi_offset 19, -20
 728              		.cfi_offset 20, -24
 729              		.cfi_offset 21, -28
 730              		.loc 1 133 3
 731 0024 97000000 		call	t5omsi
 731      E7800000 
GAS LISTING /var/folders/rt/4gvqv631095f64jvm7jfj_000000gn/T//ccOUYlzQ.s 			page 18


 732              	.LVL78:
 134:main.c        ****   colinit(); // Initialize column toolbox
 733              		.loc 1 134 3 is_stmt 1
 734 002c 97000000 		call	colinit
 734      E7800000 
 735              	.LVL79:
 135:main.c        ****   l88init(); // Initialize 8*8 led toolbox
 736              		.loc 1 135 3
 737 0034 97000000 		call	l88init
 737      E7800000 
 738              	.LVL80:
 136:main.c        ****   // keyinit();          // Initialize keyboard toolbox
 137:main.c        ****   rtcInit(); // Initialize RTC
 739              		.loc 1 137 3
 740 003c 97000000 		call	rtcInit
 740      E7800000 
 741              	.LVL81:
 138:main.c        ****   rtc_counter_set(0);
 742              		.loc 1 138 3
 743 0044 0145     		li	a0,0
 744 0046 97000000 		call	rtc_counter_set
 744      E7800000 
 745              	.LVL82:
 139:main.c        ****   // eclic_global_interrupt_enable();
 140:main.c        ****   ADC3powerUpInit(0); // Initialize ADC0, Ch3
 746              		.loc 1 140 3
 747 004e 0145     		li	a0,0
 748 0050 97000000 		call	ADC3powerUpInit
 748      E7800000 
 749              	.LVL83:
 141:main.c        **** 
 142:main.c        ****   Lcd_SetType(LCD_INVERTED);
 750              		.loc 1 142 3
 751 0058 0545     		li	a0,1
 752 005a 97000000 		call	Lcd_SetType
 752      E7800000 
 753              	.LVL84:
 143:main.c        ****   Lcd_Init();
 754              		.loc 1 143 3
 755 0062 97000000 		call	Lcd_Init
 755      E7800000 
 756              	.LVL85:
 144:main.c        ****   LCD_Clear(BLACK);
 757              		.loc 1 144 3
 758 006a 0145     		li	a0,0
 759 006c 97000000 		call	LCD_Clear
 759      E7800000 
 760              	.LVL86:
 145:main.c        **** 
 146:main.c        ****   Plant allPlants[3];
 761              		.loc 1 146 3
 147:main.c        ****   int numberOfPlants = 0;
 762              		.loc 1 147 3
 763              		.loc 1 147 7 is_stmt 0
 764 0074 8567     		li	a5,4096
 765 0076 13870725 		addi	a4,a5,592
 766 007a FD74     		li	s1,-4096
GAS LISTING /var/folders/rt/4gvqv631095f64jvm7jfj_000000gn/T//ccOUYlzQ.s 			page 19


 767 007c 0A97     		add	a4,a4,sp
 768 007e B3099700 		add	s3,a4,s1
 148:main.c        ****   initPlant("Gurka", &numberOfPlants, allPlants);
 769              		.loc 1 148 3
 770 0082 13870725 		addi	a4,a5,592
 771 0086 0A97     		add	a4,a4,sp
 772 0088 138484DB 		addi	s0,s1,-584
 773 008c 938444DB 		addi	s1,s1,-588
 774 0090 BA94     		add	s1,a4,s1
 775 0092 3A94     		add	s0,a4,s0
 776 0094 37050000 		lui	a0,%hi(.LC5)
 777 0098 A685     		mv	a1,s1
 778 009a 2286     		mv	a2,s0
 779 009c 13050500 		addi	a0,a0,%lo(.LC5)
 149:main.c        ****   initPlant("Tomat", &numberOfPlants, allPlants);
 780              		.loc 1 149 3
 781 00a0 37090000 		lui	s2,%hi(.LC6)
 147:main.c        ****   int numberOfPlants = 0;
 782              		.loc 1 147 7
 783 00a4 23AA09DA 		sw	zero,-588(s3)
 148:main.c        ****   initPlant("Gurka", &numberOfPlants, allPlants);
 784              		.loc 1 148 3 is_stmt 1
 785 00a8 97000000 		call	initPlant
 785      E7800000 
 786              	.LVL87:
 787              		.loc 1 149 3
 788 00b0 A685     		mv	a1,s1
 789 00b2 13050900 		addi	a0,s2,%lo(.LC6)
 790 00b6 2286     		mv	a2,s0
 791 00b8 97000000 		call	initPlant
 791      E7800000 
 792              	.LVL88:
 150:main.c        ****   initPlant("Chili", &numberOfPlants, allPlants);
 793              		.loc 1 150 3
 794 00c0 37050000 		lui	a0,%hi(.LC7)
 795 00c4 A685     		mv	a1,s1
 796 00c6 2286     		mv	a2,s0
 797 00c8 13050500 		addi	a0,a0,%lo(.LC7)
 798 00cc CA84     		mv	s1,s2
 799 00ce 97000000 		call	initPlant
 799      E7800000 
 800              	.LVL89:
 130:main.c        ****   // int lookUpTbl[16] = {1, 4, 7, 14, 2, 5, 8, 0, 3, 6, 9, 15, 10, 11, 12, 13};
 801              		.loc 1 130 7 is_stmt 0
 802 00d6 014A     		li	s4,0
 151:main.c        **** 
 152:main.c        ****   while (1)
 153:main.c        ****   {
 154:main.c        ****     idle++; // Manage Async events
 155:main.c        **** 
 156:main.c        ****     if (t5expq())
 157:main.c        ****     {                   // Manage periodic tasks
 158:main.c        ****       l88row(colset()); // ...8*8LED and Keyboard
 159:main.c        ****       ms++;             // ...One second heart beat
 160:main.c        ****       if (ms == 1000)
 803              		.loc 1 160 10
 804 00d8 930A803E 		li	s5,1000
GAS LISTING /var/folders/rt/4gvqv631095f64jvm7jfj_000000gn/T//ccOUYlzQ.s 			page 20


 161:main.c        ****       {
 162:main.c        ****         //LCD_Clear(BLACK);
 163:main.c        ****         updatePlantReading(allPlants, numberOfPlants, "Tomat", SUN);
 805              		.loc 1 163 9
 806 00dc 4E89     		mv	s2,s3
 807              	.LVL90:
 808              	.L30:
 130:main.c        ****   // int lookUpTbl[16] = {1, 4, 7, 14, 2, 5, 8, 0, 3, 6, 9, 15, 10, 11, 12, 13};
 809              		.loc 1 130 7
 810 00de 8149     		li	s3,0
 811              	.LVL91:
 812              	.L28:
 152:main.c        ****   {
 813              		.loc 1 152 3 is_stmt 1
 154:main.c        **** 
 814              		.loc 1 154 5
 154:main.c        **** 
 815              		.loc 1 154 9 is_stmt 0
 816 00e0 8509     		addi	s3,s3,1
 817              	.LVL92:
 156:main.c        ****     {                   // Manage periodic tasks
 818              		.loc 1 156 5 is_stmt 1
 156:main.c        ****     {                   // Manage periodic tasks
 819              		.loc 1 156 9 is_stmt 0
 820 00e2 97000000 		call	t5expq
 820      E7800000 
 821              	.LVL93:
 156:main.c        ****     {                   // Manage periodic tasks
 822              		.loc 1 156 8
 823 00ea 7DD9     		beq	a0,zero,.L28
 158:main.c        ****       ms++;             // ...One second heart beat
 824              		.loc 1 158 7 is_stmt 1
 825 00ec 97000000 		call	colset
 825      E7800000 
 826              	.LVL94:
 159:main.c        ****       if (ms == 1000)
 827              		.loc 1 159 9 is_stmt 0
 828 00f4 050A     		addi	s4,s4,1
 829              	.LVL95:
 158:main.c        ****       ms++;             // ...One second heart beat
 830              		.loc 1 158 7
 831 00f6 97000000 		call	l88row
 831      E7800000 
 832              	.LVL96:
 159:main.c        ****       if (ms == 1000)
 833              		.loc 1 159 7 is_stmt 1
 160:main.c        ****       {
 834              		.loc 1 160 7
 160:main.c        ****       {
 835              		.loc 1 160 10 is_stmt 0
 836 00fe 63165A03 		bne	s4,s5,.L29
 837              		.loc 1 163 9 is_stmt 1
 838 0102 832549DB 		lw	a1,-588(s2)
 839 0106 8546     		li	a3,1
 840 0108 13860400 		addi	a2,s1,%lo(.LC6)
 841 010c 2285     		mv	a0,s0
 842 010e 97000000 		call	updatePlantReading
GAS LISTING /var/folders/rt/4gvqv631095f64jvm7jfj_000000gn/T//ccOUYlzQ.s 			page 21


 842      E7800000 
 843              	.LVL97:
 164:main.c        ****         //renderAllPlants(allPlants, numberOfPlants);
 165:main.c        ****         renderOnePlant(allPlants, numberOfPlants, "Tomat");
 844              		.loc 1 165 9
 845 0116 832549DB 		lw	a1,-588(s2)
 846 011a 13860400 		addi	a2,s1,%lo(.LC6)
 847 011e 2285     		mv	a0,s0
 848 0120 97000000 		call	renderOnePlant
 848      E7800000 
 849              	.LVL98:
 166:main.c        ****         //LCD_ShowNum(55, 40, rtc_counter_get(), 4, WHITE);
 167:main.c        **** 
 168:main.c        ****         ms = 0;
 850              		.loc 1 168 9
 851              		.loc 1 168 12 is_stmt 0
 852 0128 014A     		li	s4,0
 853              	.LVL99:
 854              	.L29:
 169:main.c        ****       }
 170:main.c        ****       l88mem(0, idle >> 8); // ...Performance monitor
 855              		.loc 1 170 7 is_stmt 1
 856 012a 93D58940 		srai	a1,s3,8
 857 012e 0145     		li	a0,0
 858 0130 97000000 		call	l88mem
 858      E7800000 
 859              	.LVL100:
 171:main.c        ****       l88mem(1, idle);
 860              		.loc 1 171 7
 861 0138 CE85     		mv	a1,s3
 862 013a 0545     		li	a0,1
 863 013c 97000000 		call	l88mem
 863      E7800000 
 864              	.LVL101:
 172:main.c        ****       idle = 0;
 865              		.loc 1 172 7
 866 0144 69BF     		j	.L30
 867              		.cfi_endproc
 868              	.LFE11:
 870              		.section	.rodata.fetchReading.str1.4,"aMS",@progbits,1
 871              		.align	2
 872              	.LC2:
 873 0000 72656164 		.string	"reads sensor"
 873      73207365 
 873      6E736F72 
 873      00
 874              		.section	.rodata.main.str1.4,"aMS",@progbits,1
 875              		.align	2
 876              	.LC5:
 877 0000 4775726B 		.string	"Gurka"
 877      6100
 878 0006 0000     		.zero	2
 879              	.LC6:
 880 0008 546F6D61 		.string	"Tomat"
 880      7400
 881 000e 0000     		.zero	2
 882              	.LC7:
GAS LISTING /var/folders/rt/4gvqv631095f64jvm7jfj_000000gn/T//ccOUYlzQ.s 			page 22


 883 0010 4368696C 		.string	"Chili"
 883      6900
 884              		.section	.rodata.renderAllPlants.str1.4,"aMS",@progbits,1
 885              		.align	2
 886              	.LC0:
 887 0000 2500     		.string	"%"
 888              		.section	.rodata.renderOnePlant.str1.4,"aMS",@progbits,1
 889              		.align	2
 890              	.LC1:
 891 0000 4E4F2053 		.string	"NO SUCH PLANT"
 891      55434820 
 891      504C414E 
 891      5400
 892              		.section	.rodata.updatePlantReading.str1.4,"aMS",@progbits,1
 893              		.align	2
 894              	.LC3:
 895 0000 25303264 		.string	"%02dH:%02dM:%02dS"
 895      483A2530 
 895      32644D3A 
 895      25303264 
 895      5300
 896 0012 0000     		.zero	2
 897              	.LC4:
 898 0014 257300   		.string	"%s"
 899              		.text
 900              	.Letext0:
 901              		.file 2 "/Users/alexstrae/toolchain-gd32v-v202-osx/compiler/riscv64-unknown-elf/include/machine/_d
 902              		.file 3 "/Users/alexstrae/toolchain-gd32v-v202-osx/compiler/riscv64-unknown-elf/include/sys/_stdin
 903              		.file 4 "../../firmware/GD32VF103_standard_peripheral/Include/gd32vf103_rcu.h"
 904              		.file 5 "/Users/alexstrae/toolchain-gd32v-v202-osx/compiler/lib/gcc/riscv64-unknown-elf/8.3.0/incl
 905              		.file 6 "/Users/alexstrae/toolchain-gd32v-v202-osx/compiler/riscv64-unknown-elf/include/sys/_types
 906              		.file 7 "/Users/alexstrae/toolchain-gd32v-v202-osx/compiler/riscv64-unknown-elf/include/sys/reent.
 907              		.file 8 "/Users/alexstrae/toolchain-gd32v-v202-osx/compiler/riscv64-unknown-elf/include/sys/lock.h
 908              		.file 9 "../../firmware/GD32VF103_standard_peripheral/system_gd32vf103.h"
 909              		.file 10 "/Users/alexstrae/toolchain-gd32v-v202-osx/compiler/riscv64-unknown-elf/include/stdlib.h"
 910              		.file 11 "lcd.h"
 911              		.file 12 "plant.h"
 912              		.file 13 "drivers.h"
 913              		.file 14 "../../firmware/GD32VF103_standard_peripheral/Include/gd32vf103_rtc.h"
 914              		.file 15 "adc.h"
 915              		.file 16 "/Users/alexstrae/toolchain-gd32v-v202-osx/compiler/riscv64-unknown-elf/include/stdio.h"
 916              		.file 17 "/Users/alexstrae/toolchain-gd32v-v202-osx/compiler/riscv64-unknown-elf/include/string.h"
 917              		.file 18 "../../firmware/GD32VF103_standard_peripheral/Include/gd32vf103_adc.h"
 918              		.file 19 "../../firmware/GD32VF103_standard_peripheral/Include/gd32vf103_pmu.h"
 919              		.file 20 "../../firmware/GD32VF103_standard_peripheral/Include/gd32vf103_bkp.h"
GAS LISTING /var/folders/rt/4gvqv631095f64jvm7jfj_000000gn/T//ccOUYlzQ.s 			page 23


DEFINED SYMBOLS
                            *ABS*:0000000000000000 main.c
/var/folders/rt/4gvqv631095f64jvm7jfj_000000gn/T//ccOUYlzQ.s:13     .text.rtcInit:0000000000000000 rtcInit
/var/folders/rt/4gvqv631095f64jvm7jfj_000000gn/T//ccOUYlzQ.s:17     .text.rtcInit:0000000000000000 .L0 
/var/folders/rt/4gvqv631095f64jvm7jfj_000000gn/T//ccOUYlzQ.s:18     .text.rtcInit:0000000000000000 .L0 
/var/folders/rt/4gvqv631095f64jvm7jfj_000000gn/T//ccOUYlzQ.s:19     .text.rtcInit:0000000000000000 .L0 
/var/folders/rt/4gvqv631095f64jvm7jfj_000000gn/T//ccOUYlzQ.s:20     .text.rtcInit:0000000000000000 .L0 
/var/folders/rt/4gvqv631095f64jvm7jfj_000000gn/T//ccOUYlzQ.s:22     .text.rtcInit:0000000000000002 .L0 
/var/folders/rt/4gvqv631095f64jvm7jfj_000000gn/T//ccOUYlzQ.s:24     .text.rtcInit:0000000000000002 .L0 
/var/folders/rt/4gvqv631095f64jvm7jfj_000000gn/T//ccOUYlzQ.s:26     .text.rtcInit:0000000000000006 .L0 
/var/folders/rt/4gvqv631095f64jvm7jfj_000000gn/T//ccOUYlzQ.s:27     .text.rtcInit:0000000000000008 .L0 
/var/folders/rt/4gvqv631095f64jvm7jfj_000000gn/T//ccOUYlzQ.s:29     .text.rtcInit:0000000000000008 .L0 
/var/folders/rt/4gvqv631095f64jvm7jfj_000000gn/T//ccOUYlzQ.s:32     .text.rtcInit:0000000000000010 .L0 
/var/folders/rt/4gvqv631095f64jvm7jfj_000000gn/T//ccOUYlzQ.s:35     .text.rtcInit:0000000000000018 .L0 
/var/folders/rt/4gvqv631095f64jvm7jfj_000000gn/T//ccOUYlzQ.s:39     .text.rtcInit:0000000000000024 .L0 
/var/folders/rt/4gvqv631095f64jvm7jfj_000000gn/T//ccOUYlzQ.s:42     .text.rtcInit:000000000000002c .L0 
/var/folders/rt/4gvqv631095f64jvm7jfj_000000gn/T//ccOUYlzQ.s:46     .text.rtcInit:0000000000000036 .L0 
/var/folders/rt/4gvqv631095f64jvm7jfj_000000gn/T//ccOUYlzQ.s:47     .text.rtcInit:0000000000000036 .L0 
/var/folders/rt/4gvqv631095f64jvm7jfj_000000gn/T//ccOUYlzQ.s:51     .text.rtcInit:0000000000000040 .L0 
/var/folders/rt/4gvqv631095f64jvm7jfj_000000gn/T//ccOUYlzQ.s:55     .text.rtcInit:0000000000000042 .L0 
/var/folders/rt/4gvqv631095f64jvm7jfj_000000gn/T//ccOUYlzQ.s:59     .text.rtcInit:000000000000004e .L0 
/var/folders/rt/4gvqv631095f64jvm7jfj_000000gn/T//ccOUYlzQ.s:64     .text.rtcInit:000000000000005c .L0 
/var/folders/rt/4gvqv631095f64jvm7jfj_000000gn/T//ccOUYlzQ.s:67     .text.rtcInit:0000000000000064 .L0 
/var/folders/rt/4gvqv631095f64jvm7jfj_000000gn/T//ccOUYlzQ.s:70     .text.rtcInit:000000000000006c .L0 
/var/folders/rt/4gvqv631095f64jvm7jfj_000000gn/T//ccOUYlzQ.s:75     .text.rtcInit:000000000000007a .L0 
/var/folders/rt/4gvqv631095f64jvm7jfj_000000gn/T//ccOUYlzQ.s:78     .text.rtcInit:0000000000000082 .L0 
/var/folders/rt/4gvqv631095f64jvm7jfj_000000gn/T//ccOUYlzQ.s:84     .text.rtcInit:000000000000008c .L0 
/var/folders/rt/4gvqv631095f64jvm7jfj_000000gn/T//ccOUYlzQ.s:85     .text.rtcInit:000000000000008c .L0 
/var/folders/rt/4gvqv631095f64jvm7jfj_000000gn/T//ccOUYlzQ.s:86     .text.rtcInit:000000000000008e .L0 
/var/folders/rt/4gvqv631095f64jvm7jfj_000000gn/T//ccOUYlzQ.s:87     .text.rtcInit:000000000000008e .L0 
/var/folders/rt/4gvqv631095f64jvm7jfj_000000gn/T//ccOUYlzQ.s:90     .text.rtcInit:0000000000000090 .L0 
/var/folders/rt/4gvqv631095f64jvm7jfj_000000gn/T//ccOUYlzQ.s:94     .text.rtcInit:0000000000000090 .L0 
/var/folders/rt/4gvqv631095f64jvm7jfj_000000gn/T//ccOUYlzQ.s:98     .text.rtcInit:0000000000000098 .L0 
/var/folders/rt/4gvqv631095f64jvm7jfj_000000gn/T//ccOUYlzQ.s:102    .text.rtcInit:0000000000000098 .L0 
/var/folders/rt/4gvqv631095f64jvm7jfj_000000gn/T//ccOUYlzQ.s:103    .text.rtcInit:000000000000009a .L0 
/var/folders/rt/4gvqv631095f64jvm7jfj_000000gn/T//ccOUYlzQ.s:106    .text.rtcInit:000000000000009c .L0 
/var/folders/rt/4gvqv631095f64jvm7jfj_000000gn/T//ccOUYlzQ.s:108    .text.rtcInit:000000000000009e .L0 
/var/folders/rt/4gvqv631095f64jvm7jfj_000000gn/T//ccOUYlzQ.s:115    .text.renderAllPlants:0000000000000000 renderAllPlants
/var/folders/rt/4gvqv631095f64jvm7jfj_000000gn/T//ccOUYlzQ.s:118    .text.renderAllPlants:0000000000000000 .L0 
/var/folders/rt/4gvqv631095f64jvm7jfj_000000gn/T//ccOUYlzQ.s:120    .text.renderAllPlants:0000000000000000 .L0 
/var/folders/rt/4gvqv631095f64jvm7jfj_000000gn/T//ccOUYlzQ.s:122    .text.renderAllPlants:0000000000000000 .L0 
/var/folders/rt/4gvqv631095f64jvm7jfj_000000gn/T//ccOUYlzQ.s:124    .text.renderAllPlants:0000000000000000 .L0 
/var/folders/rt/4gvqv631095f64jvm7jfj_000000gn/T//ccOUYlzQ.s:125    .text.renderAllPlants:0000000000000000 .L0 
/var/folders/rt/4gvqv631095f64jvm7jfj_000000gn/T//ccOUYlzQ.s:127    .text.renderAllPlants:0000000000000002 .L0 
/var/folders/rt/4gvqv631095f64jvm7jfj_000000gn/T//ccOUYlzQ.s:129    .text.renderAllPlants:0000000000000004 .L0 
/var/folders/rt/4gvqv631095f64jvm7jfj_000000gn/T//ccOUYlzQ.s:132    .text.renderAllPlants:0000000000000004 .L0 
/var/folders/rt/4gvqv631095f64jvm7jfj_000000gn/T//ccOUYlzQ.s:135    .text.renderAllPlants:0000000000000006 .L0 
/var/folders/rt/4gvqv631095f64jvm7jfj_000000gn/T//ccOUYlzQ.s:143    .text.renderAllPlants:0000000000000016 .L0 
/var/folders/rt/4gvqv631095f64jvm7jfj_000000gn/T//ccOUYlzQ.s:144    .text.renderAllPlants:0000000000000016 .L0 
/var/folders/rt/4gvqv631095f64jvm7jfj_000000gn/T//ccOUYlzQ.s:145    .text.renderAllPlants:0000000000000016 .L0 
/var/folders/rt/4gvqv631095f64jvm7jfj_000000gn/T//ccOUYlzQ.s:146    .text.renderAllPlants:0000000000000016 .L0 
/var/folders/rt/4gvqv631095f64jvm7jfj_000000gn/T//ccOUYlzQ.s:147    .text.renderAllPlants:0000000000000016 .L0 
/var/folders/rt/4gvqv631095f64jvm7jfj_000000gn/T//ccOUYlzQ.s:148    .text.renderAllPlants:0000000000000016 .L0 
/var/folders/rt/4gvqv631095f64jvm7jfj_000000gn/T//ccOUYlzQ.s:149    .text.renderAllPlants:0000000000000016 .L0 
/var/folders/rt/4gvqv631095f64jvm7jfj_000000gn/T//ccOUYlzQ.s:150    .text.renderAllPlants:0000000000000016 .L0 
/var/folders/rt/4gvqv631095f64jvm7jfj_000000gn/T//ccOUYlzQ.s:152    .text.renderAllPlants:0000000000000016 .L0 
/var/folders/rt/4gvqv631095f64jvm7jfj_000000gn/T//ccOUYlzQ.s:156    .text.renderAllPlants:000000000000001a .L0 
GAS LISTING /var/folders/rt/4gvqv631095f64jvm7jfj_000000gn/T//ccOUYlzQ.s 			page 24


/var/folders/rt/4gvqv631095f64jvm7jfj_000000gn/T//ccOUYlzQ.s:159    .text.renderAllPlants:0000000000000020 .L0 
/var/folders/rt/4gvqv631095f64jvm7jfj_000000gn/T//ccOUYlzQ.s:161    .text.renderAllPlants:0000000000000022 .L0 
/var/folders/rt/4gvqv631095f64jvm7jfj_000000gn/T//ccOUYlzQ.s:165    .text.renderAllPlants:0000000000000026 .L0 
/var/folders/rt/4gvqv631095f64jvm7jfj_000000gn/T//ccOUYlzQ.s:168    .text.renderAllPlants:000000000000002a .L0 
/var/folders/rt/4gvqv631095f64jvm7jfj_000000gn/T//ccOUYlzQ.s:169    .text.renderAllPlants:000000000000002c .L0 
/var/folders/rt/4gvqv631095f64jvm7jfj_000000gn/T//ccOUYlzQ.s:170    .text.renderAllPlants:000000000000002c .L0 
/var/folders/rt/4gvqv631095f64jvm7jfj_000000gn/T//ccOUYlzQ.s:172    .text.renderAllPlants:000000000000002e .L0 
/var/folders/rt/4gvqv631095f64jvm7jfj_000000gn/T//ccOUYlzQ.s:174    .text.renderAllPlants:0000000000000030 .L0 
/var/folders/rt/4gvqv631095f64jvm7jfj_000000gn/T//ccOUYlzQ.s:176    .text.renderAllPlants:0000000000000032 .L0 
/var/folders/rt/4gvqv631095f64jvm7jfj_000000gn/T//ccOUYlzQ.s:178    .text.renderAllPlants:0000000000000034 .L0 
/var/folders/rt/4gvqv631095f64jvm7jfj_000000gn/T//ccOUYlzQ.s:181    .text.renderAllPlants:0000000000000036 .L0 
/var/folders/rt/4gvqv631095f64jvm7jfj_000000gn/T//ccOUYlzQ.s:183    .text.renderAllPlants:0000000000000038 .L0 
/var/folders/rt/4gvqv631095f64jvm7jfj_000000gn/T//ccOUYlzQ.s:185    .text.renderAllPlants:000000000000003a .L0 
/var/folders/rt/4gvqv631095f64jvm7jfj_000000gn/T//ccOUYlzQ.s:188    .text.renderAllPlants:000000000000003c .L0 
/var/folders/rt/4gvqv631095f64jvm7jfj_000000gn/T//ccOUYlzQ.s:191    .text.renderAllPlants:000000000000003e .L0 
/var/folders/rt/4gvqv631095f64jvm7jfj_000000gn/T//ccOUYlzQ.s:196    .text.renderAllPlants:0000000000000040 .L0 
/var/folders/rt/4gvqv631095f64jvm7jfj_000000gn/T//ccOUYlzQ.s:199    .text.renderAllPlants:0000000000000040 .L0 
/var/folders/rt/4gvqv631095f64jvm7jfj_000000gn/T//ccOUYlzQ.s:205    .text.renderAllPlants:000000000000004c .L0 
/var/folders/rt/4gvqv631095f64jvm7jfj_000000gn/T//ccOUYlzQ.s:208    .text.renderAllPlants:000000000000004e .L0 
/var/folders/rt/4gvqv631095f64jvm7jfj_000000gn/T//ccOUYlzQ.s:212    .text.renderAllPlants:0000000000000058 .L0 
/var/folders/rt/4gvqv631095f64jvm7jfj_000000gn/T//ccOUYlzQ.s:220    .text.renderAllPlants:000000000000006a .L0 
/var/folders/rt/4gvqv631095f64jvm7jfj_000000gn/T//ccOUYlzQ.s:229    .text.renderAllPlants:0000000000000082 .L0 
/var/folders/rt/4gvqv631095f64jvm7jfj_000000gn/T//ccOUYlzQ.s:237    .text.renderAllPlants:0000000000000098 .L0 
/var/folders/rt/4gvqv631095f64jvm7jfj_000000gn/T//ccOUYlzQ.s:245    .text.renderAllPlants:00000000000000ae .L0 
/var/folders/rt/4gvqv631095f64jvm7jfj_000000gn/T//ccOUYlzQ.s:255    .text.renderAllPlants:00000000000000cc .L0 
/var/folders/rt/4gvqv631095f64jvm7jfj_000000gn/T//ccOUYlzQ.s:262    .text.renderOnePlant:0000000000000000 renderOnePlant
/var/folders/rt/4gvqv631095f64jvm7jfj_000000gn/T//ccOUYlzQ.s:265    .text.renderOnePlant:0000000000000000 .L0 
/var/folders/rt/4gvqv631095f64jvm7jfj_000000gn/T//ccOUYlzQ.s:267    .text.renderOnePlant:0000000000000000 .L0 
/var/folders/rt/4gvqv631095f64jvm7jfj_000000gn/T//ccOUYlzQ.s:269    .text.renderOnePlant:0000000000000000 .L0 
/var/folders/rt/4gvqv631095f64jvm7jfj_000000gn/T//ccOUYlzQ.s:271    .text.renderOnePlant:0000000000000000 .L0 
/var/folders/rt/4gvqv631095f64jvm7jfj_000000gn/T//ccOUYlzQ.s:272    .text.renderOnePlant:0000000000000000 .L0 
/var/folders/rt/4gvqv631095f64jvm7jfj_000000gn/T//ccOUYlzQ.s:274    .text.renderOnePlant:0000000000000002 .L0 
/var/folders/rt/4gvqv631095f64jvm7jfj_000000gn/T//ccOUYlzQ.s:280    .text.renderOnePlant:000000000000000c .L0 
/var/folders/rt/4gvqv631095f64jvm7jfj_000000gn/T//ccOUYlzQ.s:281    .text.renderOnePlant:000000000000000c .L0 
/var/folders/rt/4gvqv631095f64jvm7jfj_000000gn/T//ccOUYlzQ.s:282    .text.renderOnePlant:000000000000000c .L0 
/var/folders/rt/4gvqv631095f64jvm7jfj_000000gn/T//ccOUYlzQ.s:283    .text.renderOnePlant:000000000000000c .L0 
/var/folders/rt/4gvqv631095f64jvm7jfj_000000gn/T//ccOUYlzQ.s:284    .text.renderOnePlant:000000000000000c .L0 
/var/folders/rt/4gvqv631095f64jvm7jfj_000000gn/T//ccOUYlzQ.s:286    .text.renderOnePlant:000000000000000c .L0 
/var/folders/rt/4gvqv631095f64jvm7jfj_000000gn/T//ccOUYlzQ.s:290    .text.renderOnePlant:0000000000000010 .L0 
/var/folders/rt/4gvqv631095f64jvm7jfj_000000gn/T//ccOUYlzQ.s:294    .text.renderOnePlant:0000000000000012 .L0 
/var/folders/rt/4gvqv631095f64jvm7jfj_000000gn/T//ccOUYlzQ.s:297    .text.renderOnePlant:0000000000000016 .L0 
/var/folders/rt/4gvqv631095f64jvm7jfj_000000gn/T//ccOUYlzQ.s:310    .text.renderOnePlant:000000000000002e .L0 
/var/folders/rt/4gvqv631095f64jvm7jfj_000000gn/T//ccOUYlzQ.s:311    .text.renderOnePlant:000000000000002e .L0 
/var/folders/rt/4gvqv631095f64jvm7jfj_000000gn/T//ccOUYlzQ.s:317    .text.renderOnePlant:000000000000003c .L0 
/var/folders/rt/4gvqv631095f64jvm7jfj_000000gn/T//ccOUYlzQ.s:319    .text.renderOnePlant:000000000000003e .L0 
/var/folders/rt/4gvqv631095f64jvm7jfj_000000gn/T//ccOUYlzQ.s:324    .text.renderOnePlant:0000000000000046 .L0 
/var/folders/rt/4gvqv631095f64jvm7jfj_000000gn/T//ccOUYlzQ.s:333    .text.renderOnePlant:000000000000005a .L0 
/var/folders/rt/4gvqv631095f64jvm7jfj_000000gn/T//ccOUYlzQ.s:341    .text.renderOnePlant:000000000000006e .L0 
/var/folders/rt/4gvqv631095f64jvm7jfj_000000gn/T//ccOUYlzQ.s:351    .text.renderOnePlant:0000000000000088 .L0 
/var/folders/rt/4gvqv631095f64jvm7jfj_000000gn/T//ccOUYlzQ.s:359    .text.renderOnePlant:00000000000000a0 .L0 
/var/folders/rt/4gvqv631095f64jvm7jfj_000000gn/T//ccOUYlzQ.s:367    .text.renderOnePlant:00000000000000b8 .L0 
/var/folders/rt/4gvqv631095f64jvm7jfj_000000gn/T//ccOUYlzQ.s:375    .text.renderOnePlant:00000000000000d0 .L0 
/var/folders/rt/4gvqv631095f64jvm7jfj_000000gn/T//ccOUYlzQ.s:383    .text.renderOnePlant:00000000000000ea .L0 
/var/folders/rt/4gvqv631095f64jvm7jfj_000000gn/T//ccOUYlzQ.s:391    .text.renderOnePlant:0000000000000104 .L0 
/var/folders/rt/4gvqv631095f64jvm7jfj_000000gn/T//ccOUYlzQ.s:400    .text.renderOnePlant:0000000000000114 .L0 
/var/folders/rt/4gvqv631095f64jvm7jfj_000000gn/T//ccOUYlzQ.s:401    .text.renderOnePlant:0000000000000116 .L0 
/var/folders/rt/4gvqv631095f64jvm7jfj_000000gn/T//ccOUYlzQ.s:402    .text.renderOnePlant:0000000000000116 .L0 
GAS LISTING /var/folders/rt/4gvqv631095f64jvm7jfj_000000gn/T//ccOUYlzQ.s 			page 25


/var/folders/rt/4gvqv631095f64jvm7jfj_000000gn/T//ccOUYlzQ.s:404    .text.renderOnePlant:0000000000000118 .L0 
/var/folders/rt/4gvqv631095f64jvm7jfj_000000gn/T//ccOUYlzQ.s:406    .text.renderOnePlant:000000000000011a .L0 
/var/folders/rt/4gvqv631095f64jvm7jfj_000000gn/T//ccOUYlzQ.s:408    .text.renderOnePlant:000000000000011c .L0 
/var/folders/rt/4gvqv631095f64jvm7jfj_000000gn/T//ccOUYlzQ.s:410    .text.renderOnePlant:000000000000011e .L0 
/var/folders/rt/4gvqv631095f64jvm7jfj_000000gn/T//ccOUYlzQ.s:414    .text.renderOnePlant:0000000000000120 .L0 
/var/folders/rt/4gvqv631095f64jvm7jfj_000000gn/T//ccOUYlzQ.s:416    .text.renderOnePlant:0000000000000120 .L0 
/var/folders/rt/4gvqv631095f64jvm7jfj_000000gn/T//ccOUYlzQ.s:420    .text.renderOnePlant:0000000000000128 .L0 
/var/folders/rt/4gvqv631095f64jvm7jfj_000000gn/T//ccOUYlzQ.s:423    .text.renderOnePlant:0000000000000128 .L0 
/var/folders/rt/4gvqv631095f64jvm7jfj_000000gn/T//ccOUYlzQ.s:427    .text.renderOnePlant:000000000000012c .L0 
/var/folders/rt/4gvqv631095f64jvm7jfj_000000gn/T//ccOUYlzQ.s:434    .text.fetchReading:0000000000000000 fetchReading
/var/folders/rt/4gvqv631095f64jvm7jfj_000000gn/T//ccOUYlzQ.s:437    .text.fetchReading:0000000000000000 .L0 
/var/folders/rt/4gvqv631095f64jvm7jfj_000000gn/T//ccOUYlzQ.s:439    .text.fetchReading:0000000000000000 .L0 
/var/folders/rt/4gvqv631095f64jvm7jfj_000000gn/T//ccOUYlzQ.s:440    .text.fetchReading:0000000000000000 .L0 
/var/folders/rt/4gvqv631095f64jvm7jfj_000000gn/T//ccOUYlzQ.s:441    .text.fetchReading:0000000000000000 .L0 
/var/folders/rt/4gvqv631095f64jvm7jfj_000000gn/T//ccOUYlzQ.s:443    .text.fetchReading:0000000000000002 .L0 
/var/folders/rt/4gvqv631095f64jvm7jfj_000000gn/T//ccOUYlzQ.s:445    .text.fetchReading:0000000000000004 .L0 
/var/folders/rt/4gvqv631095f64jvm7jfj_000000gn/T//ccOUYlzQ.s:448    .text.fetchReading:0000000000000006 .L0 
/var/folders/rt/4gvqv631095f64jvm7jfj_000000gn/T//ccOUYlzQ.s:451    .text.fetchReading:0000000000000008 .L0 
/var/folders/rt/4gvqv631095f64jvm7jfj_000000gn/T//ccOUYlzQ.s:455    .text.fetchReading:0000000000000010 .L0 
/var/folders/rt/4gvqv631095f64jvm7jfj_000000gn/T//ccOUYlzQ.s:456    .text.fetchReading:0000000000000010 .L0 
/var/folders/rt/4gvqv631095f64jvm7jfj_000000gn/T//ccOUYlzQ.s:457    .text.fetchReading:0000000000000010 .L0 
/var/folders/rt/4gvqv631095f64jvm7jfj_000000gn/T//ccOUYlzQ.s:458    .text.fetchReading:0000000000000010 .L0 
/var/folders/rt/4gvqv631095f64jvm7jfj_000000gn/T//ccOUYlzQ.s:460    .text.fetchReading:0000000000000010 .L0 
/var/folders/rt/4gvqv631095f64jvm7jfj_000000gn/T//ccOUYlzQ.s:462    .text.fetchReading:0000000000000012 .L0 
/var/folders/rt/4gvqv631095f64jvm7jfj_000000gn/T//ccOUYlzQ.s:464    .text.fetchReading:0000000000000014 .L0 
/var/folders/rt/4gvqv631095f64jvm7jfj_000000gn/T//ccOUYlzQ.s:467    .text.fetchReading:000000000000001c .L0 
/var/folders/rt/4gvqv631095f64jvm7jfj_000000gn/T//ccOUYlzQ.s:468    .text.fetchReading:000000000000001c .L0 
/var/folders/rt/4gvqv631095f64jvm7jfj_000000gn/T//ccOUYlzQ.s:469    .text.fetchReading:000000000000001c .L0 
/var/folders/rt/4gvqv631095f64jvm7jfj_000000gn/T//ccOUYlzQ.s:473    .text.fetchReading:0000000000000020 .L0 
/var/folders/rt/4gvqv631095f64jvm7jfj_000000gn/T//ccOUYlzQ.s:478    .text.fetchReading:000000000000002c .L0 
/var/folders/rt/4gvqv631095f64jvm7jfj_000000gn/T//ccOUYlzQ.s:480    .text.fetchReading:000000000000002e .L0 
/var/folders/rt/4gvqv631095f64jvm7jfj_000000gn/T//ccOUYlzQ.s:481    .text.fetchReading:000000000000002e .L0 
/var/folders/rt/4gvqv631095f64jvm7jfj_000000gn/T//ccOUYlzQ.s:487    .text.fetchReading:000000000000003a .L0 
/var/folders/rt/4gvqv631095f64jvm7jfj_000000gn/T//ccOUYlzQ.s:492    .text.fetchReading:0000000000000046 .L0 
/var/folders/rt/4gvqv631095f64jvm7jfj_000000gn/T//ccOUYlzQ.s:493    .text.fetchReading:0000000000000046 .L0 
/var/folders/rt/4gvqv631095f64jvm7jfj_000000gn/T//ccOUYlzQ.s:494    .text.fetchReading:0000000000000048 .L0 
/var/folders/rt/4gvqv631095f64jvm7jfj_000000gn/T//ccOUYlzQ.s:495    .text.fetchReading:0000000000000048 .L0 
/var/folders/rt/4gvqv631095f64jvm7jfj_000000gn/T//ccOUYlzQ.s:497    .text.fetchReading:000000000000004a .L0 
/var/folders/rt/4gvqv631095f64jvm7jfj_000000gn/T//ccOUYlzQ.s:501    .text.fetchReading:000000000000004e .L0 
/var/folders/rt/4gvqv631095f64jvm7jfj_000000gn/T//ccOUYlzQ.s:504    .text.fetchReading:0000000000000050 .L0 
/var/folders/rt/4gvqv631095f64jvm7jfj_000000gn/T//ccOUYlzQ.s:507    .text.fetchReading:0000000000000052 .L0 
/var/folders/rt/4gvqv631095f64jvm7jfj_000000gn/T//ccOUYlzQ.s:510    .text.fetchReading:0000000000000054 .L0 
/var/folders/rt/4gvqv631095f64jvm7jfj_000000gn/T//ccOUYlzQ.s:515    .text.fetchReading:0000000000000056 .L0 
/var/folders/rt/4gvqv631095f64jvm7jfj_000000gn/T//ccOUYlzQ.s:517    .text.fetchReading:0000000000000056 .L0 
/var/folders/rt/4gvqv631095f64jvm7jfj_000000gn/T//ccOUYlzQ.s:518    .text.fetchReading:0000000000000056 .L0 
/var/folders/rt/4gvqv631095f64jvm7jfj_000000gn/T//ccOUYlzQ.s:520    .text.fetchReading:000000000000005a .L0 
/var/folders/rt/4gvqv631095f64jvm7jfj_000000gn/T//ccOUYlzQ.s:528    .text.fetchReading:0000000000000072 .L0 
/var/folders/rt/4gvqv631095f64jvm7jfj_000000gn/T//ccOUYlzQ.s:529    .text.fetchReading:0000000000000072 .L0 
/var/folders/rt/4gvqv631095f64jvm7jfj_000000gn/T//ccOUYlzQ.s:531    .text.fetchReading:0000000000000076 .L0 
/var/folders/rt/4gvqv631095f64jvm7jfj_000000gn/T//ccOUYlzQ.s:538    .text.updatePlantReading:0000000000000000 updatePlantReading
/var/folders/rt/4gvqv631095f64jvm7jfj_000000gn/T//ccOUYlzQ.s:541    .text.updatePlantReading:0000000000000000 .L0 
/var/folders/rt/4gvqv631095f64jvm7jfj_000000gn/T//ccOUYlzQ.s:543    .text.updatePlantReading:0000000000000000 .L0 
/var/folders/rt/4gvqv631095f64jvm7jfj_000000gn/T//ccOUYlzQ.s:545    .text.updatePlantReading:0000000000000000 .L0 
/var/folders/rt/4gvqv631095f64jvm7jfj_000000gn/T//ccOUYlzQ.s:547    .text.updatePlantReading:0000000000000000 .L0 
/var/folders/rt/4gvqv631095f64jvm7jfj_000000gn/T//ccOUYlzQ.s:548    .text.updatePlantReading:0000000000000000 .L0 
/var/folders/rt/4gvqv631095f64jvm7jfj_000000gn/T//ccOUYlzQ.s:550    .text.updatePlantReading:0000000000000002 .L0 
/var/folders/rt/4gvqv631095f64jvm7jfj_000000gn/T//ccOUYlzQ.s:556    .text.updatePlantReading:000000000000000c .L0 
GAS LISTING /var/folders/rt/4gvqv631095f64jvm7jfj_000000gn/T//ccOUYlzQ.s 			page 26


/var/folders/rt/4gvqv631095f64jvm7jfj_000000gn/T//ccOUYlzQ.s:557    .text.updatePlantReading:000000000000000c .L0 
/var/folders/rt/4gvqv631095f64jvm7jfj_000000gn/T//ccOUYlzQ.s:558    .text.updatePlantReading:000000000000000c .L0 
/var/folders/rt/4gvqv631095f64jvm7jfj_000000gn/T//ccOUYlzQ.s:559    .text.updatePlantReading:000000000000000c .L0 
/var/folders/rt/4gvqv631095f64jvm7jfj_000000gn/T//ccOUYlzQ.s:560    .text.updatePlantReading:000000000000000c .L0 
/var/folders/rt/4gvqv631095f64jvm7jfj_000000gn/T//ccOUYlzQ.s:562    .text.updatePlantReading:000000000000000c .L0 
/var/folders/rt/4gvqv631095f64jvm7jfj_000000gn/T//ccOUYlzQ.s:566    .text.updatePlantReading:0000000000000010 .L0 
/var/folders/rt/4gvqv631095f64jvm7jfj_000000gn/T//ccOUYlzQ.s:568    .text.updatePlantReading:0000000000000012 .L0 
/var/folders/rt/4gvqv631095f64jvm7jfj_000000gn/T//ccOUYlzQ.s:572    .text.updatePlantReading:0000000000000014 .L0 
/var/folders/rt/4gvqv631095f64jvm7jfj_000000gn/T//ccOUYlzQ.s:575    .text.updatePlantReading:0000000000000018 .L0 
/var/folders/rt/4gvqv631095f64jvm7jfj_000000gn/T//ccOUYlzQ.s:591    .text.updatePlantReading:0000000000000038 .L0 
/var/folders/rt/4gvqv631095f64jvm7jfj_000000gn/T//ccOUYlzQ.s:595    .text.updatePlantReading:000000000000003e .L0 
/var/folders/rt/4gvqv631095f64jvm7jfj_000000gn/T//ccOUYlzQ.s:596    .text.updatePlantReading:000000000000003e .L0 
/var/folders/rt/4gvqv631095f64jvm7jfj_000000gn/T//ccOUYlzQ.s:600    .text.updatePlantReading:0000000000000048 .L0 
/var/folders/rt/4gvqv631095f64jvm7jfj_000000gn/T//ccOUYlzQ.s:605    .text.updatePlantReading:000000000000004e .L0 
/var/folders/rt/4gvqv631095f64jvm7jfj_000000gn/T//ccOUYlzQ.s:606    .text.updatePlantReading:000000000000004e .L0 
/var/folders/rt/4gvqv631095f64jvm7jfj_000000gn/T//ccOUYlzQ.s:609    .text.updatePlantReading:0000000000000052 .L0 
/var/folders/rt/4gvqv631095f64jvm7jfj_000000gn/T//ccOUYlzQ.s:610    .text.updatePlantReading:0000000000000052 .L0 
/var/folders/rt/4gvqv631095f64jvm7jfj_000000gn/T//ccOUYlzQ.s:618    .text.updatePlantReading:0000000000000066 .L0 
/var/folders/rt/4gvqv631095f64jvm7jfj_000000gn/T//ccOUYlzQ.s:619    .text.updatePlantReading:0000000000000066 .L0 
/var/folders/rt/4gvqv631095f64jvm7jfj_000000gn/T//ccOUYlzQ.s:620    .text.updatePlantReading:0000000000000066 .L0 
/var/folders/rt/4gvqv631095f64jvm7jfj_000000gn/T//ccOUYlzQ.s:623    .text.updatePlantReading:000000000000006e .L0 
/var/folders/rt/4gvqv631095f64jvm7jfj_000000gn/T//ccOUYlzQ.s:624    .text.updatePlantReading:000000000000006e .L0 
/var/folders/rt/4gvqv631095f64jvm7jfj_000000gn/T//ccOUYlzQ.s:625    .text.updatePlantReading:000000000000006e .L0 
/var/folders/rt/4gvqv631095f64jvm7jfj_000000gn/T//ccOUYlzQ.s:626    .text.updatePlantReading:000000000000006e .L0 
/var/folders/rt/4gvqv631095f64jvm7jfj_000000gn/T//ccOUYlzQ.s:627    .text.updatePlantReading:000000000000006e .L0 
/var/folders/rt/4gvqv631095f64jvm7jfj_000000gn/T//ccOUYlzQ.s:628    .text.updatePlantReading:000000000000006e .L0 
/var/folders/rt/4gvqv631095f64jvm7jfj_000000gn/T//ccOUYlzQ.s:632    .text.updatePlantReading:0000000000000078 .L0 
/var/folders/rt/4gvqv631095f64jvm7jfj_000000gn/T//ccOUYlzQ.s:634    .text.updatePlantReading:000000000000007c .L0 
/var/folders/rt/4gvqv631095f64jvm7jfj_000000gn/T//ccOUYlzQ.s:646    .text.updatePlantReading:000000000000009c .L0 
/var/folders/rt/4gvqv631095f64jvm7jfj_000000gn/T//ccOUYlzQ.s:647    .text.updatePlantReading:000000000000009c .L0 
/var/folders/rt/4gvqv631095f64jvm7jfj_000000gn/T//ccOUYlzQ.s:652    .text.updatePlantReading:00000000000000a4 .L0 
/var/folders/rt/4gvqv631095f64jvm7jfj_000000gn/T//ccOUYlzQ.s:654    .text.updatePlantReading:00000000000000a8 .L0 
/var/folders/rt/4gvqv631095f64jvm7jfj_000000gn/T//ccOUYlzQ.s:656    .text.updatePlantReading:00000000000000ac .L0 
/var/folders/rt/4gvqv631095f64jvm7jfj_000000gn/T//ccOUYlzQ.s:666    .text.updatePlantReading:00000000000000c0 .L0 
/var/folders/rt/4gvqv631095f64jvm7jfj_000000gn/T//ccOUYlzQ.s:667    .text.updatePlantReading:00000000000000c0 .L0 
/var/folders/rt/4gvqv631095f64jvm7jfj_000000gn/T//ccOUYlzQ.s:668    .text.updatePlantReading:00000000000000c2 .L0 
/var/folders/rt/4gvqv631095f64jvm7jfj_000000gn/T//ccOUYlzQ.s:669    .text.updatePlantReading:00000000000000c2 .L0 
/var/folders/rt/4gvqv631095f64jvm7jfj_000000gn/T//ccOUYlzQ.s:671    .text.updatePlantReading:00000000000000c4 .L0 
/var/folders/rt/4gvqv631095f64jvm7jfj_000000gn/T//ccOUYlzQ.s:673    .text.updatePlantReading:00000000000000c6 .L0 
/var/folders/rt/4gvqv631095f64jvm7jfj_000000gn/T//ccOUYlzQ.s:675    .text.updatePlantReading:00000000000000c8 .L0 
/var/folders/rt/4gvqv631095f64jvm7jfj_000000gn/T//ccOUYlzQ.s:678    .text.updatePlantReading:00000000000000ca .L0 
/var/folders/rt/4gvqv631095f64jvm7jfj_000000gn/T//ccOUYlzQ.s:681    .text.updatePlantReading:00000000000000cc .L0 
/var/folders/rt/4gvqv631095f64jvm7jfj_000000gn/T//ccOUYlzQ.s:686    .text.updatePlantReading:00000000000000ce .L0 
/var/folders/rt/4gvqv631095f64jvm7jfj_000000gn/T//ccOUYlzQ.s:689    .text.updatePlantReading:00000000000000ce .L0 
/var/folders/rt/4gvqv631095f64jvm7jfj_000000gn/T//ccOUYlzQ.s:694    .text.updatePlantReading:00000000000000d6 .L0 
/var/folders/rt/4gvqv631095f64jvm7jfj_000000gn/T//ccOUYlzQ.s:701    .text.startup.main:0000000000000000 main
/var/folders/rt/4gvqv631095f64jvm7jfj_000000gn/T//ccOUYlzQ.s:704    .text.startup.main:0000000000000000 .L0 
/var/folders/rt/4gvqv631095f64jvm7jfj_000000gn/T//ccOUYlzQ.s:705    .text.startup.main:0000000000000000 .L0 
/var/folders/rt/4gvqv631095f64jvm7jfj_000000gn/T//ccOUYlzQ.s:707    .text.startup.main:0000000000000000 .L0 
/var/folders/rt/4gvqv631095f64jvm7jfj_000000gn/T//ccOUYlzQ.s:708    .text.startup.main:0000000000000000 .L0 
/var/folders/rt/4gvqv631095f64jvm7jfj_000000gn/T//ccOUYlzQ.s:709    .text.startup.main:0000000000000000 .L0 
/var/folders/rt/4gvqv631095f64jvm7jfj_000000gn/T//ccOUYlzQ.s:712    .text.startup.main:0000000000000006 .L0 
/var/folders/rt/4gvqv631095f64jvm7jfj_000000gn/T//ccOUYlzQ.s:722    .text.startup.main:0000000000000024 .L0 
/var/folders/rt/4gvqv631095f64jvm7jfj_000000gn/T//ccOUYlzQ.s:723    .text.startup.main:0000000000000024 .L0 
/var/folders/rt/4gvqv631095f64jvm7jfj_000000gn/T//ccOUYlzQ.s:724    .text.startup.main:0000000000000024 .L0 
/var/folders/rt/4gvqv631095f64jvm7jfj_000000gn/T//ccOUYlzQ.s:725    .text.startup.main:0000000000000024 .L0 
/var/folders/rt/4gvqv631095f64jvm7jfj_000000gn/T//ccOUYlzQ.s:726    .text.startup.main:0000000000000024 .L0 
GAS LISTING /var/folders/rt/4gvqv631095f64jvm7jfj_000000gn/T//ccOUYlzQ.s 			page 27


/var/folders/rt/4gvqv631095f64jvm7jfj_000000gn/T//ccOUYlzQ.s:727    .text.startup.main:0000000000000024 .L0 
/var/folders/rt/4gvqv631095f64jvm7jfj_000000gn/T//ccOUYlzQ.s:728    .text.startup.main:0000000000000024 .L0 
/var/folders/rt/4gvqv631095f64jvm7jfj_000000gn/T//ccOUYlzQ.s:729    .text.startup.main:0000000000000024 .L0 
/var/folders/rt/4gvqv631095f64jvm7jfj_000000gn/T//ccOUYlzQ.s:731    .text.startup.main:0000000000000024 .L0 
/var/folders/rt/4gvqv631095f64jvm7jfj_000000gn/T//ccOUYlzQ.s:734    .text.startup.main:000000000000002c .L0 
/var/folders/rt/4gvqv631095f64jvm7jfj_000000gn/T//ccOUYlzQ.s:737    .text.startup.main:0000000000000034 .L0 
/var/folders/rt/4gvqv631095f64jvm7jfj_000000gn/T//ccOUYlzQ.s:740    .text.startup.main:000000000000003c .L0 
/var/folders/rt/4gvqv631095f64jvm7jfj_000000gn/T//ccOUYlzQ.s:743    .text.startup.main:0000000000000044 .L0 
/var/folders/rt/4gvqv631095f64jvm7jfj_000000gn/T//ccOUYlzQ.s:747    .text.startup.main:000000000000004e .L0 
/var/folders/rt/4gvqv631095f64jvm7jfj_000000gn/T//ccOUYlzQ.s:751    .text.startup.main:0000000000000058 .L0 
/var/folders/rt/4gvqv631095f64jvm7jfj_000000gn/T//ccOUYlzQ.s:755    .text.startup.main:0000000000000062 .L0 
/var/folders/rt/4gvqv631095f64jvm7jfj_000000gn/T//ccOUYlzQ.s:758    .text.startup.main:000000000000006a .L0 
/var/folders/rt/4gvqv631095f64jvm7jfj_000000gn/T//ccOUYlzQ.s:762    .text.startup.main:0000000000000074 .L0 
/var/folders/rt/4gvqv631095f64jvm7jfj_000000gn/T//ccOUYlzQ.s:763    .text.startup.main:0000000000000074 .L0 
/var/folders/rt/4gvqv631095f64jvm7jfj_000000gn/T//ccOUYlzQ.s:764    .text.startup.main:0000000000000074 .L0 
/var/folders/rt/4gvqv631095f64jvm7jfj_000000gn/T//ccOUYlzQ.s:770    .text.startup.main:0000000000000082 .L0 
/var/folders/rt/4gvqv631095f64jvm7jfj_000000gn/T//ccOUYlzQ.s:781    .text.startup.main:00000000000000a0 .L0 
/var/folders/rt/4gvqv631095f64jvm7jfj_000000gn/T//ccOUYlzQ.s:783    .text.startup.main:00000000000000a4 .L0 
/var/folders/rt/4gvqv631095f64jvm7jfj_000000gn/T//ccOUYlzQ.s:785    .text.startup.main:00000000000000a8 .L0 
/var/folders/rt/4gvqv631095f64jvm7jfj_000000gn/T//ccOUYlzQ.s:788    .text.startup.main:00000000000000b0 .L0 
/var/folders/rt/4gvqv631095f64jvm7jfj_000000gn/T//ccOUYlzQ.s:794    .text.startup.main:00000000000000c0 .L0 
/var/folders/rt/4gvqv631095f64jvm7jfj_000000gn/T//ccOUYlzQ.s:802    .text.startup.main:00000000000000d6 .L0 
/var/folders/rt/4gvqv631095f64jvm7jfj_000000gn/T//ccOUYlzQ.s:804    .text.startup.main:00000000000000d8 .L0 
/var/folders/rt/4gvqv631095f64jvm7jfj_000000gn/T//ccOUYlzQ.s:806    .text.startup.main:00000000000000dc .L0 
/var/folders/rt/4gvqv631095f64jvm7jfj_000000gn/T//ccOUYlzQ.s:810    .text.startup.main:00000000000000de .L0 
/var/folders/rt/4gvqv631095f64jvm7jfj_000000gn/T//ccOUYlzQ.s:814    .text.startup.main:00000000000000e0 .L0 
/var/folders/rt/4gvqv631095f64jvm7jfj_000000gn/T//ccOUYlzQ.s:815    .text.startup.main:00000000000000e0 .L0 
/var/folders/rt/4gvqv631095f64jvm7jfj_000000gn/T//ccOUYlzQ.s:816    .text.startup.main:00000000000000e0 .L0 
/var/folders/rt/4gvqv631095f64jvm7jfj_000000gn/T//ccOUYlzQ.s:819    .text.startup.main:00000000000000e2 .L0 
/var/folders/rt/4gvqv631095f64jvm7jfj_000000gn/T//ccOUYlzQ.s:820    .text.startup.main:00000000000000e2 .L0 
/var/folders/rt/4gvqv631095f64jvm7jfj_000000gn/T//ccOUYlzQ.s:823    .text.startup.main:00000000000000ea .L0 
/var/folders/rt/4gvqv631095f64jvm7jfj_000000gn/T//ccOUYlzQ.s:825    .text.startup.main:00000000000000ec .L0 
/var/folders/rt/4gvqv631095f64jvm7jfj_000000gn/T//ccOUYlzQ.s:828    .text.startup.main:00000000000000f4 .L0 
/var/folders/rt/4gvqv631095f64jvm7jfj_000000gn/T//ccOUYlzQ.s:831    .text.startup.main:00000000000000f6 .L0 
/var/folders/rt/4gvqv631095f64jvm7jfj_000000gn/T//ccOUYlzQ.s:834    .text.startup.main:00000000000000fe .L0 
/var/folders/rt/4gvqv631095f64jvm7jfj_000000gn/T//ccOUYlzQ.s:835    .text.startup.main:00000000000000fe .L0 
/var/folders/rt/4gvqv631095f64jvm7jfj_000000gn/T//ccOUYlzQ.s:836    .text.startup.main:00000000000000fe .L0 
/var/folders/rt/4gvqv631095f64jvm7jfj_000000gn/T//ccOUYlzQ.s:838    .text.startup.main:0000000000000102 .L0 
/var/folders/rt/4gvqv631095f64jvm7jfj_000000gn/T//ccOUYlzQ.s:845    .text.startup.main:0000000000000116 .L0 
/var/folders/rt/4gvqv631095f64jvm7jfj_000000gn/T//ccOUYlzQ.s:851    .text.startup.main:0000000000000128 .L0 
/var/folders/rt/4gvqv631095f64jvm7jfj_000000gn/T//ccOUYlzQ.s:852    .text.startup.main:0000000000000128 .L0 
/var/folders/rt/4gvqv631095f64jvm7jfj_000000gn/T//ccOUYlzQ.s:856    .text.startup.main:000000000000012a .L0 
/var/folders/rt/4gvqv631095f64jvm7jfj_000000gn/T//ccOUYlzQ.s:861    .text.startup.main:0000000000000138 .L0 
/var/folders/rt/4gvqv631095f64jvm7jfj_000000gn/T//ccOUYlzQ.s:866    .text.startup.main:0000000000000144 .L0 
/var/folders/rt/4gvqv631095f64jvm7jfj_000000gn/T//ccOUYlzQ.s:867    .text.startup.main:0000000000000146 .L0 
/var/folders/rt/4gvqv631095f64jvm7jfj_000000gn/T//ccOUYlzQ.s:111    .text.rtcInit:000000000000009e .L0 
/var/folders/rt/4gvqv631095f64jvm7jfj_000000gn/T//ccOUYlzQ.s:258    .text.renderAllPlants:00000000000000cc .L0 
/var/folders/rt/4gvqv631095f64jvm7jfj_000000gn/T//ccOUYlzQ.s:430    .text.renderOnePlant:000000000000012c .L0 
/var/folders/rt/4gvqv631095f64jvm7jfj_000000gn/T//ccOUYlzQ.s:534    .text.fetchReading:0000000000000076 .L0 
/var/folders/rt/4gvqv631095f64jvm7jfj_000000gn/T//ccOUYlzQ.s:697    .text.updatePlantReading:00000000000000d6 .L0 
/var/folders/rt/4gvqv631095f64jvm7jfj_000000gn/T//ccOUYlzQ.s:870    .text.startup.main:0000000000000146 .L0 
                     .debug_frame:0000000000000000 .L0 
/var/folders/rt/4gvqv631095f64jvm7jfj_000000gn/T//ccOUYlzQ.s:96     .text.rtcInit:0000000000000098 .L1
/var/folders/rt/4gvqv631095f64jvm7jfj_000000gn/T//ccOUYlzQ.s:886    .rodata.renderAllPlants.str1.4:0000000000000000 .LC0
/var/folders/rt/4gvqv631095f64jvm7jfj_000000gn/T//ccOUYlzQ.s:194    .text.renderAllPlants:0000000000000040 .L6
/var/folders/rt/4gvqv631095f64jvm7jfj_000000gn/T//ccOUYlzQ.s:163    .text.renderAllPlants:0000000000000026 .L5
/var/folders/rt/4gvqv631095f64jvm7jfj_000000gn/T//ccOUYlzQ.s:890    .rodata.renderOnePlant.str1.4:0000000000000000 .LC1
GAS LISTING /var/folders/rt/4gvqv631095f64jvm7jfj_000000gn/T//ccOUYlzQ.s 			page 28


/var/folders/rt/4gvqv631095f64jvm7jfj_000000gn/T//ccOUYlzQ.s:307    .text.renderOnePlant:000000000000002e .L11
/var/folders/rt/4gvqv631095f64jvm7jfj_000000gn/T//ccOUYlzQ.s:397    .text.renderOnePlant:0000000000000114 .L13
/var/folders/rt/4gvqv631095f64jvm7jfj_000000gn/T//ccOUYlzQ.s:418    .text.renderOnePlant:0000000000000128 .L10
/var/folders/rt/4gvqv631095f64jvm7jfj_000000gn/T//ccOUYlzQ.s:292    .text.renderOnePlant:0000000000000012 .L9
/var/folders/rt/4gvqv631095f64jvm7jfj_000000gn/T//ccOUYlzQ.s:872    .rodata.fetchReading.str1.4:0000000000000000 .LC2
/var/folders/rt/4gvqv631095f64jvm7jfj_000000gn/T//ccOUYlzQ.s:513    .text.fetchReading:0000000000000056 .L17
/var/folders/rt/4gvqv631095f64jvm7jfj_000000gn/T//ccOUYlzQ.s:471    .text.fetchReading:0000000000000020 .L16
/var/folders/rt/4gvqv631095f64jvm7jfj_000000gn/T//ccOUYlzQ.s:894    .rodata.updatePlantReading.str1.4:0000000000000000 .LC3
/var/folders/rt/4gvqv631095f64jvm7jfj_000000gn/T//ccOUYlzQ.s:897    .rodata.updatePlantReading.str1.4:0000000000000014 .LC4
/var/folders/rt/4gvqv631095f64jvm7jfj_000000gn/T//ccOUYlzQ.s:588    .text.updatePlantReading:0000000000000038 .L25
/var/folders/rt/4gvqv631095f64jvm7jfj_000000gn/T//ccOUYlzQ.s:663    .text.updatePlantReading:00000000000000c0 .L20
/var/folders/rt/4gvqv631095f64jvm7jfj_000000gn/T//ccOUYlzQ.s:684    .text.updatePlantReading:00000000000000ce .L22
/var/folders/rt/4gvqv631095f64jvm7jfj_000000gn/T//ccOUYlzQ.s:650    .text.updatePlantReading:00000000000000a4 .L23
/var/folders/rt/4gvqv631095f64jvm7jfj_000000gn/T//ccOUYlzQ.s:570    .text.updatePlantReading:0000000000000014 .L21
/var/folders/rt/4gvqv631095f64jvm7jfj_000000gn/T//ccOUYlzQ.s:876    .rodata.main.str1.4:0000000000000000 .LC5
/var/folders/rt/4gvqv631095f64jvm7jfj_000000gn/T//ccOUYlzQ.s:879    .rodata.main.str1.4:0000000000000008 .LC6
/var/folders/rt/4gvqv631095f64jvm7jfj_000000gn/T//ccOUYlzQ.s:882    .rodata.main.str1.4:0000000000000010 .LC7
/var/folders/rt/4gvqv631095f64jvm7jfj_000000gn/T//ccOUYlzQ.s:812    .text.startup.main:00000000000000e0 .L28
/var/folders/rt/4gvqv631095f64jvm7jfj_000000gn/T//ccOUYlzQ.s:854    .text.startup.main:000000000000012a .L29
/var/folders/rt/4gvqv631095f64jvm7jfj_000000gn/T//ccOUYlzQ.s:808    .text.startup.main:00000000000000de .L30
/var/folders/rt/4gvqv631095f64jvm7jfj_000000gn/T//ccOUYlzQ.s:4186   .debug_abbrev:0000000000000000 .Ldebug_abbrev0
/var/folders/rt/4gvqv631095f64jvm7jfj_000000gn/T//ccOUYlzQ.s:6111   .debug_str:0000000000000784 .LASF228
/var/folders/rt/4gvqv631095f64jvm7jfj_000000gn/T//ccOUYlzQ.s:5931   .debug_str:00000000000003f6 .LASF229
/var/folders/rt/4gvqv631095f64jvm7jfj_000000gn/T//ccOUYlzQ.s:6115   .debug_str:0000000000000815 .LASF230
/var/folders/rt/4gvqv631095f64jvm7jfj_000000gn/T//ccOUYlzQ.s:5677   .debug_ranges:0000000000000000 .Ldebug_ranges0
/var/folders/rt/4gvqv631095f64jvm7jfj_000000gn/T//ccOUYlzQ.s:5729   .debug_line:0000000000000000 .Ldebug_line0
/var/folders/rt/4gvqv631095f64jvm7jfj_000000gn/T//ccOUYlzQ.s:6087   .debug_str:0000000000000708 .LASF0
/var/folders/rt/4gvqv631095f64jvm7jfj_000000gn/T//ccOUYlzQ.s:5799   .debug_str:0000000000000160 .LASF1
/var/folders/rt/4gvqv631095f64jvm7jfj_000000gn/T//ccOUYlzQ.s:5751   .debug_str:0000000000000059 .LASF6
/var/folders/rt/4gvqv631095f64jvm7jfj_000000gn/T//ccOUYlzQ.s:6011   .debug_str:00000000000005ae .LASF2
/var/folders/rt/4gvqv631095f64jvm7jfj_000000gn/T//ccOUYlzQ.s:6093   .debug_str:0000000000000729 .LASF3
/var/folders/rt/4gvqv631095f64jvm7jfj_000000gn/T//ccOUYlzQ.s:6119   .debug_str:0000000000000864 .LASF4
/var/folders/rt/4gvqv631095f64jvm7jfj_000000gn/T//ccOUYlzQ.s:5761   .debug_str:0000000000000085 .LASF5
/var/folders/rt/4gvqv631095f64jvm7jfj_000000gn/T//ccOUYlzQ.s:5865   .debug_str:00000000000002af .LASF7
/var/folders/rt/4gvqv631095f64jvm7jfj_000000gn/T//ccOUYlzQ.s:5895   .debug_str:000000000000034b .LASF8
/var/folders/rt/4gvqv631095f64jvm7jfj_000000gn/T//ccOUYlzQ.s:5845   .debug_str:0000000000000235 .LASF9
/var/folders/rt/4gvqv631095f64jvm7jfj_000000gn/T//ccOUYlzQ.s:5769   .debug_str:00000000000000b9 .LASF10
/var/folders/rt/4gvqv631095f64jvm7jfj_000000gn/T//ccOUYlzQ.s:6099   .debug_str:0000000000000744 .LASF11
/var/folders/rt/4gvqv631095f64jvm7jfj_000000gn/T//ccOUYlzQ.s:6137   .debug_str:00000000000008ce .LASF12
/var/folders/rt/4gvqv631095f64jvm7jfj_000000gn/T//ccOUYlzQ.s:5885   .debug_str:0000000000000308 .LASF166
/var/folders/rt/4gvqv631095f64jvm7jfj_000000gn/T//ccOUYlzQ.s:5739   .debug_str:0000000000000027 .LASF13
/var/folders/rt/4gvqv631095f64jvm7jfj_000000gn/T//ccOUYlzQ.s:5801   .debug_str:000000000000016c .LASF14
/var/folders/rt/4gvqv631095f64jvm7jfj_000000gn/T//ccOUYlzQ.s:5795   .debug_str:0000000000000151 .LASF15
/var/folders/rt/4gvqv631095f64jvm7jfj_000000gn/T//ccOUYlzQ.s:6091   .debug_str:0000000000000720 .LASF16
/var/folders/rt/4gvqv631095f64jvm7jfj_000000gn/T//ccOUYlzQ.s:5843   .debug_str:000000000000022b .LASF17
/var/folders/rt/4gvqv631095f64jvm7jfj_000000gn/T//ccOUYlzQ.s:5997   .debug_str:0000000000000564 .LASF18
/var/folders/rt/4gvqv631095f64jvm7jfj_000000gn/T//ccOUYlzQ.s:5999   .debug_str:000000000000056f .LASF19
/var/folders/rt/4gvqv631095f64jvm7jfj_000000gn/T//ccOUYlzQ.s:6001   .debug_str:000000000000057a .LASF20
/var/folders/rt/4gvqv631095f64jvm7jfj_000000gn/T//ccOUYlzQ.s:6003   .debug_str:0000000000000585 .LASF21
/var/folders/rt/4gvqv631095f64jvm7jfj_000000gn/T//ccOUYlzQ.s:6005   .debug_str:0000000000000590 .LASF22
/var/folders/rt/4gvqv631095f64jvm7jfj_000000gn/T//ccOUYlzQ.s:6007   .debug_str:000000000000059b .LASF23
/var/folders/rt/4gvqv631095f64jvm7jfj_000000gn/T//ccOUYlzQ.s:6109   .debug_str:000000000000077a .LASF24
/var/folders/rt/4gvqv631095f64jvm7jfj_000000gn/T//ccOUYlzQ.s:5735   .debug_str:0000000000000015 .LASF25
/var/folders/rt/4gvqv631095f64jvm7jfj_000000gn/T//ccOUYlzQ.s:5737   .debug_str:000000000000001e .LASF26
/var/folders/rt/4gvqv631095f64jvm7jfj_000000gn/T//ccOUYlzQ.s:5969   .debug_str:00000000000004bd .LASF27
/var/folders/rt/4gvqv631095f64jvm7jfj_000000gn/T//ccOUYlzQ.s:5971   .debug_str:00000000000004c8 .LASF28
/var/folders/rt/4gvqv631095f64jvm7jfj_000000gn/T//ccOUYlzQ.s:5771   .debug_str:00000000000000d0 .LASF29
GAS LISTING /var/folders/rt/4gvqv631095f64jvm7jfj_000000gn/T//ccOUYlzQ.s 			page 29


/var/folders/rt/4gvqv631095f64jvm7jfj_000000gn/T//ccOUYlzQ.s:5773   .debug_str:00000000000000da .LASF30
/var/folders/rt/4gvqv631095f64jvm7jfj_000000gn/T//ccOUYlzQ.s:6165   .debug_str:000000000000095e .LASF31
/var/folders/rt/4gvqv631095f64jvm7jfj_000000gn/T//ccOUYlzQ.s:6067   .debug_str:00000000000006b1 .LASF32
/var/folders/rt/4gvqv631095f64jvm7jfj_000000gn/T//ccOUYlzQ.s:5859   .debug_str:000000000000028b .LASF33
/var/folders/rt/4gvqv631095f64jvm7jfj_000000gn/T//ccOUYlzQ.s:5791   .debug_str:0000000000000141 .LASF34
/var/folders/rt/4gvqv631095f64jvm7jfj_000000gn/T//ccOUYlzQ.s:6075   .debug_str:00000000000006d8 .LASF35
/var/folders/rt/4gvqv631095f64jvm7jfj_000000gn/T//ccOUYlzQ.s:6131   .debug_str:00000000000008aa .LASF36
/var/folders/rt/4gvqv631095f64jvm7jfj_000000gn/T//ccOUYlzQ.s:5917   .debug_str:00000000000003b3 .LASF37
/var/folders/rt/4gvqv631095f64jvm7jfj_000000gn/T//ccOUYlzQ.s:5905   .debug_str:000000000000037c .LASF38
/var/folders/rt/4gvqv631095f64jvm7jfj_000000gn/T//ccOUYlzQ.s:5749   .debug_str:0000000000000052 .LASF39
/var/folders/rt/4gvqv631095f64jvm7jfj_000000gn/T//ccOUYlzQ.s:5777   .debug_str:00000000000000ec .LASF40
/var/folders/rt/4gvqv631095f64jvm7jfj_000000gn/T//ccOUYlzQ.s:5887   .debug_str:0000000000000318 .LASF41
/var/folders/rt/4gvqv631095f64jvm7jfj_000000gn/T//ccOUYlzQ.s:5889   .debug_str:0000000000000322 .LASF42
/var/folders/rt/4gvqv631095f64jvm7jfj_000000gn/T//ccOUYlzQ.s:5781   .debug_str:0000000000000101 .LASF43
/var/folders/rt/4gvqv631095f64jvm7jfj_000000gn/T//ccOUYlzQ.s:6149   .debug_str:0000000000000907 .LASF44
/var/folders/rt/4gvqv631095f64jvm7jfj_000000gn/T//ccOUYlzQ.s:5901   .debug_str:000000000000036a .LASF45
/var/folders/rt/4gvqv631095f64jvm7jfj_000000gn/T//ccOUYlzQ.s:5903   .debug_str:0000000000000373 .LASF46
/var/folders/rt/4gvqv631095f64jvm7jfj_000000gn/T//ccOUYlzQ.s:5995   .debug_str:0000000000000559 .LASF47
/var/folders/rt/4gvqv631095f64jvm7jfj_000000gn/T//ccOUYlzQ.s:5733   .debug_str:000000000000000c .LASF48
/var/folders/rt/4gvqv631095f64jvm7jfj_000000gn/T//ccOUYlzQ.s:5967   .debug_str:00000000000004b2 .LASF49
/var/folders/rt/4gvqv631095f64jvm7jfj_000000gn/T//ccOUYlzQ.s:5815   .debug_str:00000000000001a7 .LASF50
/var/folders/rt/4gvqv631095f64jvm7jfj_000000gn/T//ccOUYlzQ.s:6095   .debug_str:0000000000000733 .LASF51
/var/folders/rt/4gvqv631095f64jvm7jfj_000000gn/T//ccOUYlzQ.s:5939   .debug_str:0000000000000425 .LASF52
/var/folders/rt/4gvqv631095f64jvm7jfj_000000gn/T//ccOUYlzQ.s:6089   .debug_str:0000000000000715 .LASF53
/var/folders/rt/4gvqv631095f64jvm7jfj_000000gn/T//ccOUYlzQ.s:5825   .debug_str:00000000000001d5 .LASF54
/var/folders/rt/4gvqv631095f64jvm7jfj_000000gn/T//ccOUYlzQ.s:6183   .debug_str:00000000000009c6 .LASF55
/var/folders/rt/4gvqv631095f64jvm7jfj_000000gn/T//ccOUYlzQ.s:6129   .debug_str:000000000000089e .LASF56
/var/folders/rt/4gvqv631095f64jvm7jfj_000000gn/T//ccOUYlzQ.s:6077   .debug_str:00000000000006e1 .LASF57
/var/folders/rt/4gvqv631095f64jvm7jfj_000000gn/T//ccOUYlzQ.s:5987   .debug_str:0000000000000525 .LASF58
/var/folders/rt/4gvqv631095f64jvm7jfj_000000gn/T//ccOUYlzQ.s:5759   .debug_str:000000000000007e .LASF59
/var/folders/rt/4gvqv631095f64jvm7jfj_000000gn/T//ccOUYlzQ.s:6073   .debug_str:00000000000006d0 .LASF60
/var/folders/rt/4gvqv631095f64jvm7jfj_000000gn/T//ccOUYlzQ.s:6151   .debug_str:0000000000000911 .LASF61
/var/folders/rt/4gvqv631095f64jvm7jfj_000000gn/T//ccOUYlzQ.s:5929   .debug_str:00000000000003f0 .LASF62
/var/folders/rt/4gvqv631095f64jvm7jfj_000000gn/T//ccOUYlzQ.s:5883   .debug_str:0000000000000301 .LASF63
/var/folders/rt/4gvqv631095f64jvm7jfj_000000gn/T//ccOUYlzQ.s:6061   .debug_str:000000000000069b .LASF64
/var/folders/rt/4gvqv631095f64jvm7jfj_000000gn/T//ccOUYlzQ.s:6063   .debug_str:00000000000006a3 .LASF65
/var/folders/rt/4gvqv631095f64jvm7jfj_000000gn/T//ccOUYlzQ.s:5993   .debug_str:000000000000054e .LASF66
/var/folders/rt/4gvqv631095f64jvm7jfj_000000gn/T//ccOUYlzQ.s:6127   .debug_str:0000000000000896 .LASF67
/var/folders/rt/4gvqv631095f64jvm7jfj_000000gn/T//ccOUYlzQ.s:5913   .debug_str:0000000000000396 .LASF68
/var/folders/rt/4gvqv631095f64jvm7jfj_000000gn/T//ccOUYlzQ.s:6019   .debug_str:00000000000005d4 .LASF69
/var/folders/rt/4gvqv631095f64jvm7jfj_000000gn/T//ccOUYlzQ.s:5875   .debug_str:00000000000002e3 .LASF74
/var/folders/rt/4gvqv631095f64jvm7jfj_000000gn/T//ccOUYlzQ.s:6105   .debug_str:0000000000000767 .LASF70
/var/folders/rt/4gvqv631095f64jvm7jfj_000000gn/T//ccOUYlzQ.s:6055   .debug_str:0000000000000686 .LASF71
/var/folders/rt/4gvqv631095f64jvm7jfj_000000gn/T//ccOUYlzQ.s:5867   .debug_str:00000000000002ba .LASF72
/var/folders/rt/4gvqv631095f64jvm7jfj_000000gn/T//ccOUYlzQ.s:6145   .debug_str:00000000000008fc .LASF73
/var/folders/rt/4gvqv631095f64jvm7jfj_000000gn/T//ccOUYlzQ.s:5881   .debug_str:00000000000002fc .LASF75
/var/folders/rt/4gvqv631095f64jvm7jfj_000000gn/T//ccOUYlzQ.s:5789   .debug_str:0000000000000138 .LASF76
/var/folders/rt/4gvqv631095f64jvm7jfj_000000gn/T//ccOUYlzQ.s:6177   .debug_str:000000000000099e .LASF77
/var/folders/rt/4gvqv631095f64jvm7jfj_000000gn/T//ccOUYlzQ.s:5809   .debug_str:000000000000018a .LASF78
/var/folders/rt/4gvqv631095f64jvm7jfj_000000gn/T//ccOUYlzQ.s:6195   .debug_str:00000000000009fc .LASF79
/var/folders/rt/4gvqv631095f64jvm7jfj_000000gn/T//ccOUYlzQ.s:5959   .debug_str:0000000000000485 .LASF80
/var/folders/rt/4gvqv631095f64jvm7jfj_000000gn/T//ccOUYlzQ.s:5949   .debug_str:0000000000000456 .LASF81
/var/folders/rt/4gvqv631095f64jvm7jfj_000000gn/T//ccOUYlzQ.s:6071   .debug_str:00000000000006c6 .LASF82
/var/folders/rt/4gvqv631095f64jvm7jfj_000000gn/T//ccOUYlzQ.s:6021   .debug_str:00000000000005dd .LASF83
/var/folders/rt/4gvqv631095f64jvm7jfj_000000gn/T//ccOUYlzQ.s:6171   .debug_str:0000000000000975 .LASF84
/var/folders/rt/4gvqv631095f64jvm7jfj_000000gn/T//ccOUYlzQ.s:5813   .debug_str:0000000000000199 .LASF85
/var/folders/rt/4gvqv631095f64jvm7jfj_000000gn/T//ccOUYlzQ.s:5743   .debug_str:0000000000000037 .LASF86
GAS LISTING /var/folders/rt/4gvqv631095f64jvm7jfj_000000gn/T//ccOUYlzQ.s 			page 30


/var/folders/rt/4gvqv631095f64jvm7jfj_000000gn/T//ccOUYlzQ.s:5731   .debug_str:0000000000000000 .LASF87
/var/folders/rt/4gvqv631095f64jvm7jfj_000000gn/T//ccOUYlzQ.s:6113   .debug_str:000000000000080c .LASF88
/var/folders/rt/4gvqv631095f64jvm7jfj_000000gn/T//ccOUYlzQ.s:5833   .debug_str:00000000000001f9 .LASF89
/var/folders/rt/4gvqv631095f64jvm7jfj_000000gn/T//ccOUYlzQ.s:5973   .debug_str:00000000000004d3 .LASF90
/var/folders/rt/4gvqv631095f64jvm7jfj_000000gn/T//ccOUYlzQ.s:6045   .debug_str:000000000000064c .LASF91
/var/folders/rt/4gvqv631095f64jvm7jfj_000000gn/T//ccOUYlzQ.s:5863   .debug_str:00000000000002aa .LASF92
/var/folders/rt/4gvqv631095f64jvm7jfj_000000gn/T//ccOUYlzQ.s:6023   .debug_str:00000000000005e7 .LASF93
/var/folders/rt/4gvqv631095f64jvm7jfj_000000gn/T//ccOUYlzQ.s:5807   .debug_str:0000000000000184 .LASF94
/var/folders/rt/4gvqv631095f64jvm7jfj_000000gn/T//ccOUYlzQ.s:6085   .debug_str:0000000000000702 .LASF95
/var/folders/rt/4gvqv631095f64jvm7jfj_000000gn/T//ccOUYlzQ.s:6031   .debug_str:0000000000000604 .LASF96
/var/folders/rt/4gvqv631095f64jvm7jfj_000000gn/T//ccOUYlzQ.s:5831   .debug_str:00000000000001f2 .LASF97
/var/folders/rt/4gvqv631095f64jvm7jfj_000000gn/T//ccOUYlzQ.s:5897   .debug_str:000000000000035d .LASF98
/var/folders/rt/4gvqv631095f64jvm7jfj_000000gn/T//ccOUYlzQ.s:6193   .debug_str:00000000000009f3 .LASF99
/var/folders/rt/4gvqv631095f64jvm7jfj_000000gn/T//ccOUYlzQ.s:5819   .debug_str:00000000000001bb .LASF100
/var/folders/rt/4gvqv631095f64jvm7jfj_000000gn/T//ccOUYlzQ.s:5879   .debug_str:00000000000002f6 .LASF101
/var/folders/rt/4gvqv631095f64jvm7jfj_000000gn/T//ccOUYlzQ.s:5947   .debug_str:000000000000044f .LASF102
/var/folders/rt/4gvqv631095f64jvm7jfj_000000gn/T//ccOUYlzQ.s:6065   .debug_str:00000000000006ab .LASF103
/var/folders/rt/4gvqv631095f64jvm7jfj_000000gn/T//ccOUYlzQ.s:5797   .debug_str:0000000000000159 .LASF104
/var/folders/rt/4gvqv631095f64jvm7jfj_000000gn/T//ccOUYlzQ.s:5805   .debug_str:000000000000017e .LASF105
/var/folders/rt/4gvqv631095f64jvm7jfj_000000gn/T//ccOUYlzQ.s:6167   .debug_str:0000000000000967 .LASF106
/var/folders/rt/4gvqv631095f64jvm7jfj_000000gn/T//ccOUYlzQ.s:6083   .debug_str:00000000000006f9 .LASF107
/var/folders/rt/4gvqv631095f64jvm7jfj_000000gn/T//ccOUYlzQ.s:5955   .debug_str:0000000000000470 .LASF108
/var/folders/rt/4gvqv631095f64jvm7jfj_000000gn/T//ccOUYlzQ.s:5907   .debug_str:0000000000000384 .LASF109
/var/folders/rt/4gvqv631095f64jvm7jfj_000000gn/T//ccOUYlzQ.s:5935   .debug_str:0000000000000419 .LASF110
/var/folders/rt/4gvqv631095f64jvm7jfj_000000gn/T//ccOUYlzQ.s:6033   .debug_str:000000000000060c .LASF111
/var/folders/rt/4gvqv631095f64jvm7jfj_000000gn/T//ccOUYlzQ.s:6025   .debug_str:00000000000005ee .LASF112
/var/folders/rt/4gvqv631095f64jvm7jfj_000000gn/T//ccOUYlzQ.s:6057   .debug_str:000000000000068e .LASF113
/var/folders/rt/4gvqv631095f64jvm7jfj_000000gn/T//ccOUYlzQ.s:6079   .debug_str:00000000000006ed .LASF114
/var/folders/rt/4gvqv631095f64jvm7jfj_000000gn/T//ccOUYlzQ.s:5835   .debug_str:0000000000000201 .LASF115
/var/folders/rt/4gvqv631095f64jvm7jfj_000000gn/T//ccOUYlzQ.s:5847   .debug_str:0000000000000243 .LASF116
/var/folders/rt/4gvqv631095f64jvm7jfj_000000gn/T//ccOUYlzQ.s:5873   .debug_str:00000000000002db .LASF117
/var/folders/rt/4gvqv631095f64jvm7jfj_000000gn/T//ccOUYlzQ.s:6043   .debug_str:0000000000000647 .LASF118
/var/folders/rt/4gvqv631095f64jvm7jfj_000000gn/T//ccOUYlzQ.s:5747   .debug_str:0000000000000047 .LASF119
/var/folders/rt/4gvqv631095f64jvm7jfj_000000gn/T//ccOUYlzQ.s:6053   .debug_str:000000000000066d .LASF120
/var/folders/rt/4gvqv631095f64jvm7jfj_000000gn/T//ccOUYlzQ.s:6049   .debug_str:000000000000065b .LASF121
/var/folders/rt/4gvqv631095f64jvm7jfj_000000gn/T//ccOUYlzQ.s:5979   .debug_str:00000000000004f2 .LASF122
/var/folders/rt/4gvqv631095f64jvm7jfj_000000gn/T//ccOUYlzQ.s:6051   .debug_str:0000000000000663 .LASF123
/var/folders/rt/4gvqv631095f64jvm7jfj_000000gn/T//ccOUYlzQ.s:5927   .debug_str:00000000000003e8 .LASF124
/var/folders/rt/4gvqv631095f64jvm7jfj_000000gn/T//ccOUYlzQ.s:5839   .debug_str:000000000000021b .LASF125
/var/folders/rt/4gvqv631095f64jvm7jfj_000000gn/T//ccOUYlzQ.s:6189   .debug_str:00000000000009e9 .LASF126
/var/folders/rt/4gvqv631095f64jvm7jfj_000000gn/T//ccOUYlzQ.s:5991   .debug_str:0000000000000544 .LASF127
/var/folders/rt/4gvqv631095f64jvm7jfj_000000gn/T//ccOUYlzQ.s:5893   .debug_str:0000000000000343 .LASF128
/var/folders/rt/4gvqv631095f64jvm7jfj_000000gn/T//ccOUYlzQ.s:5849   .debug_str:000000000000024b .LASF129
/var/folders/rt/4gvqv631095f64jvm7jfj_000000gn/T//ccOUYlzQ.s:5829   .debug_str:00000000000001ed .LASF130
/var/folders/rt/4gvqv631095f64jvm7jfj_000000gn/T//ccOUYlzQ.s:5755   .debug_str:0000000000000070 .LASF131
/var/folders/rt/4gvqv631095f64jvm7jfj_000000gn/T//ccOUYlzQ.s:6157   .debug_str:0000000000000930 .LASF132
/var/folders/rt/4gvqv631095f64jvm7jfj_000000gn/T//ccOUYlzQ.s:5821   .debug_str:00000000000001c3 .LASF133
/var/folders/rt/4gvqv631095f64jvm7jfj_000000gn/T//ccOUYlzQ.s:5811   .debug_str:0000000000000194 .LASF134
/var/folders/rt/4gvqv631095f64jvm7jfj_000000gn/T//ccOUYlzQ.s:6081   .debug_str:00000000000006f4 .LASF135
/var/folders/rt/4gvqv631095f64jvm7jfj_000000gn/T//ccOUYlzQ.s:6029   .debug_str:00000000000005fd .LASF136
/var/folders/rt/4gvqv631095f64jvm7jfj_000000gn/T//ccOUYlzQ.s:6147   .debug_str:0000000000000901 .LASF137
/var/folders/rt/4gvqv631095f64jvm7jfj_000000gn/T//ccOUYlzQ.s:5909   .debug_str:000000000000038a .LASF138
/var/folders/rt/4gvqv631095f64jvm7jfj_000000gn/T//ccOUYlzQ.s:6013   .debug_str:00000000000005bc .LASF139
/var/folders/rt/4gvqv631095f64jvm7jfj_000000gn/T//ccOUYlzQ.s:5745   .debug_str:000000000000003f .LASF140
/var/folders/rt/4gvqv631095f64jvm7jfj_000000gn/T//ccOUYlzQ.s:6059   .debug_str:0000000000000695 .LASF141
/var/folders/rt/4gvqv631095f64jvm7jfj_000000gn/T//ccOUYlzQ.s:5937   .debug_str:000000000000041f .LASF142
/var/folders/rt/4gvqv631095f64jvm7jfj_000000gn/T//ccOUYlzQ.s:6123   .debug_str:000000000000088a .LASF143
GAS LISTING /var/folders/rt/4gvqv631095f64jvm7jfj_000000gn/T//ccOUYlzQ.s 			page 31


/var/folders/rt/4gvqv631095f64jvm7jfj_000000gn/T//ccOUYlzQ.s:6139   .debug_str:00000000000008d7 .LASF144
/var/folders/rt/4gvqv631095f64jvm7jfj_000000gn/T//ccOUYlzQ.s:6107   .debug_str:000000000000076d .LASF145
/var/folders/rt/4gvqv631095f64jvm7jfj_000000gn/T//ccOUYlzQ.s:5921   .debug_str:00000000000003c7 .LASF146
/var/folders/rt/4gvqv631095f64jvm7jfj_000000gn/T//ccOUYlzQ.s:6173   .debug_str:0000000000000980 .LASF147
/var/folders/rt/4gvqv631095f64jvm7jfj_000000gn/T//ccOUYlzQ.s:5981   .debug_str:00000000000004fd .LASF148
/var/folders/rt/4gvqv631095f64jvm7jfj_000000gn/T//ccOUYlzQ.s:5915   .debug_str:00000000000003a8 .LASF149
/var/folders/rt/4gvqv631095f64jvm7jfj_000000gn/T//ccOUYlzQ.s:5965   .debug_str:00000000000004ad .LASF150
/var/folders/rt/4gvqv631095f64jvm7jfj_000000gn/T//ccOUYlzQ.s:5977   .debug_str:00000000000004e5 .LASF151
/var/folders/rt/4gvqv631095f64jvm7jfj_000000gn/T//ccOUYlzQ.s:6187   .debug_str:00000000000009db .LASF152
/var/folders/rt/4gvqv631095f64jvm7jfj_000000gn/T//ccOUYlzQ.s:5787   .debug_str:000000000000012a .LASF153
/var/folders/rt/4gvqv631095f64jvm7jfj_000000gn/T//ccOUYlzQ.s:6153   .debug_str:000000000000091a .LASF154
/var/folders/rt/4gvqv631095f64jvm7jfj_000000gn/T//ccOUYlzQ.s:5919   .debug_str:00000000000003bb .LASF155
/var/folders/rt/4gvqv631095f64jvm7jfj_000000gn/T//ccOUYlzQ.s:5753   .debug_str:0000000000000063 .LASF156
/var/folders/rt/4gvqv631095f64jvm7jfj_000000gn/T//ccOUYlzQ.s:5857   .debug_str:000000000000027d .LASF157
/var/folders/rt/4gvqv631095f64jvm7jfj_000000gn/T//ccOUYlzQ.s:5785   .debug_str:000000000000011b .LASF158
/var/folders/rt/4gvqv631095f64jvm7jfj_000000gn/T//ccOUYlzQ.s:5855   .debug_str:000000000000026c .LASF159
/var/folders/rt/4gvqv631095f64jvm7jfj_000000gn/T//ccOUYlzQ.s:5763   .debug_str:000000000000008e .LASF160
/var/folders/rt/4gvqv631095f64jvm7jfj_000000gn/T//ccOUYlzQ.s:5765   .debug_str:000000000000009d .LASF161
/var/folders/rt/4gvqv631095f64jvm7jfj_000000gn/T//ccOUYlzQ.s:6017   .debug_str:00000000000005cb .LASF162
/var/folders/rt/4gvqv631095f64jvm7jfj_000000gn/T//ccOUYlzQ.s:5963   .debug_str:00000000000004a6 .LASF163
/var/folders/rt/4gvqv631095f64jvm7jfj_000000gn/T//ccOUYlzQ.s:5951   .debug_str:0000000000000460 .LASF164
/var/folders/rt/4gvqv631095f64jvm7jfj_000000gn/T//ccOUYlzQ.s:6169   .debug_str:000000000000096d .LASF165
/var/folders/rt/4gvqv631095f64jvm7jfj_000000gn/T//ccOUYlzQ.s:5779   .debug_str:00000000000000f6 .LASF231
/var/folders/rt/4gvqv631095f64jvm7jfj_000000gn/T//ccOUYlzQ.s:5871   .debug_str:00000000000002cf .LASF167
/var/folders/rt/4gvqv631095f64jvm7jfj_000000gn/T//ccOUYlzQ.s:6135   .debug_str:00000000000008bb .LASF168
/var/folders/rt/4gvqv631095f64jvm7jfj_000000gn/T//ccOUYlzQ.s:5975   .debug_str:00000000000004db .LASF169
/var/folders/rt/4gvqv631095f64jvm7jfj_000000gn/T//ccOUYlzQ.s:5767   .debug_str:00000000000000ae .LASF170
/var/folders/rt/4gvqv631095f64jvm7jfj_000000gn/T//ccOUYlzQ.s:6047   .debug_str:0000000000000651 .LASF171
/var/folders/rt/4gvqv631095f64jvm7jfj_000000gn/T//ccOUYlzQ.s:5775   .debug_str:00000000000000e4 .LASF172
/var/folders/rt/4gvqv631095f64jvm7jfj_000000gn/T//ccOUYlzQ.s:6039   .debug_str:000000000000062d .LASF173
/var/folders/rt/4gvqv631095f64jvm7jfj_000000gn/T//ccOUYlzQ.s:5911   .debug_str:0000000000000391 .LASF174
/var/folders/rt/4gvqv631095f64jvm7jfj_000000gn/T//ccOUYlzQ.s:5803   .debug_str:0000000000000175 .LASF175
/var/folders/rt/4gvqv631095f64jvm7jfj_000000gn/T//ccOUYlzQ.s:5853   .debug_str:000000000000025e .LASF176
/var/folders/rt/4gvqv631095f64jvm7jfj_000000gn/T//ccOUYlzQ.s:5841   .debug_str:0000000000000225 .LASF177
/var/folders/rt/4gvqv631095f64jvm7jfj_000000gn/T//ccOUYlzQ.s:6035   .debug_str:0000000000000615 .LASF178
/var/folders/rt/4gvqv631095f64jvm7jfj_000000gn/T//ccOUYlzQ.s:5877   .debug_str:00000000000002eb .LASF179
/var/folders/rt/4gvqv631095f64jvm7jfj_000000gn/T//ccOUYlzQ.s:6191   .debug_str:00000000000009ee .LASF188
/var/folders/rt/4gvqv631095f64jvm7jfj_000000gn/T//ccOUYlzQ.s:702    .text.startup.main:0000000000000000 .LFB11
/var/folders/rt/4gvqv631095f64jvm7jfj_000000gn/T//ccOUYlzQ.s:868    .text.startup.main:0000000000000146 .LFE11
/var/folders/rt/4gvqv631095f64jvm7jfj_000000gn/T//ccOUYlzQ.s:5016   .debug_loc:0000000000000000 .LLST26
/var/folders/rt/4gvqv631095f64jvm7jfj_000000gn/T//ccOUYlzQ.s:5034   .debug_loc:000000000000002e .LLST27
/var/folders/rt/4gvqv631095f64jvm7jfj_000000gn/T//ccOUYlzQ.s:6161   .debug_str:0000000000000944 .LASF180
/var/folders/rt/4gvqv631095f64jvm7jfj_000000gn/T//ccOUYlzQ.s:5065   .debug_loc:000000000000007c .LLST28
/var/folders/rt/4gvqv631095f64jvm7jfj_000000gn/T//ccOUYlzQ.s:5943   .debug_str:000000000000043f .LASF181
/var/folders/rt/4gvqv631095f64jvm7jfj_000000gn/T//ccOUYlzQ.s:6037   .debug_str:000000000000061e .LASF182
/var/folders/rt/4gvqv631095f64jvm7jfj_000000gn/T//ccOUYlzQ.s:732    .text.startup.main:000000000000002c .LVL78
/var/folders/rt/4gvqv631095f64jvm7jfj_000000gn/T//ccOUYlzQ.s:735    .text.startup.main:0000000000000034 .LVL79
/var/folders/rt/4gvqv631095f64jvm7jfj_000000gn/T//ccOUYlzQ.s:738    .text.startup.main:000000000000003c .LVL80
/var/folders/rt/4gvqv631095f64jvm7jfj_000000gn/T//ccOUYlzQ.s:741    .text.startup.main:0000000000000044 .LVL81
/var/folders/rt/4gvqv631095f64jvm7jfj_000000gn/T//ccOUYlzQ.s:745    .text.startup.main:000000000000004e .LVL82
/var/folders/rt/4gvqv631095f64jvm7jfj_000000gn/T//ccOUYlzQ.s:749    .text.startup.main:0000000000000058 .LVL83
/var/folders/rt/4gvqv631095f64jvm7jfj_000000gn/T//ccOUYlzQ.s:753    .text.startup.main:0000000000000062 .LVL84
/var/folders/rt/4gvqv631095f64jvm7jfj_000000gn/T//ccOUYlzQ.s:756    .text.startup.main:000000000000006a .LVL85
/var/folders/rt/4gvqv631095f64jvm7jfj_000000gn/T//ccOUYlzQ.s:760    .text.startup.main:0000000000000074 .LVL86
/var/folders/rt/4gvqv631095f64jvm7jfj_000000gn/T//ccOUYlzQ.s:786    .text.startup.main:00000000000000b0 .LVL87
/var/folders/rt/4gvqv631095f64jvm7jfj_000000gn/T//ccOUYlzQ.s:792    .text.startup.main:00000000000000c0 .LVL88
/var/folders/rt/4gvqv631095f64jvm7jfj_000000gn/T//ccOUYlzQ.s:800    .text.startup.main:00000000000000d6 .LVL89
GAS LISTING /var/folders/rt/4gvqv631095f64jvm7jfj_000000gn/T//ccOUYlzQ.s 			page 32


/var/folders/rt/4gvqv631095f64jvm7jfj_000000gn/T//ccOUYlzQ.s:821    .text.startup.main:00000000000000ea .LVL93
/var/folders/rt/4gvqv631095f64jvm7jfj_000000gn/T//ccOUYlzQ.s:826    .text.startup.main:00000000000000f4 .LVL94
/var/folders/rt/4gvqv631095f64jvm7jfj_000000gn/T//ccOUYlzQ.s:832    .text.startup.main:00000000000000fe .LVL96
/var/folders/rt/4gvqv631095f64jvm7jfj_000000gn/T//ccOUYlzQ.s:843    .text.startup.main:0000000000000116 .LVL97
/var/folders/rt/4gvqv631095f64jvm7jfj_000000gn/T//ccOUYlzQ.s:849    .text.startup.main:0000000000000128 .LVL98
/var/folders/rt/4gvqv631095f64jvm7jfj_000000gn/T//ccOUYlzQ.s:859    .text.startup.main:0000000000000138 .LVL100
/var/folders/rt/4gvqv631095f64jvm7jfj_000000gn/T//ccOUYlzQ.s:864    .text.startup.main:0000000000000144 .LVL101
/var/folders/rt/4gvqv631095f64jvm7jfj_000000gn/T//ccOUYlzQ.s:5837   .debug_str:0000000000000208 .LASF192
/var/folders/rt/4gvqv631095f64jvm7jfj_000000gn/T//ccOUYlzQ.s:539    .text.updatePlantReading:0000000000000000 .LFB10
/var/folders/rt/4gvqv631095f64jvm7jfj_000000gn/T//ccOUYlzQ.s:695    .text.updatePlantReading:00000000000000d6 .LFE10
/var/folders/rt/4gvqv631095f64jvm7jfj_000000gn/T//ccOUYlzQ.s:5082   .debug_loc:00000000000000a7 .LLST15
/var/folders/rt/4gvqv631095f64jvm7jfj_000000gn/T//ccOUYlzQ.s:5105   .debug_loc:00000000000000e1 .LLST16
/var/folders/rt/4gvqv631095f64jvm7jfj_000000gn/T//ccOUYlzQ.s:5119   .debug_loc:0000000000000102 .LLST17
/var/folders/rt/4gvqv631095f64jvm7jfj_000000gn/T//ccOUYlzQ.s:5141   .debug_loc:0000000000000139 .LLST18
/var/folders/rt/4gvqv631095f64jvm7jfj_000000gn/T//ccOUYlzQ.s:5757   .debug_str:0000000000000079 .LASF183
/var/folders/rt/4gvqv631095f64jvm7jfj_000000gn/T//ccOUYlzQ.s:5184   .debug_loc:00000000000001a1 .LLST19
/var/folders/rt/4gvqv631095f64jvm7jfj_000000gn/T//ccOUYlzQ.s:5227   .debug_loc:0000000000000209 .LLST20
/var/folders/rt/4gvqv631095f64jvm7jfj_000000gn/T//ccOUYlzQ.s:607    .text.updatePlantReading:0000000000000052 .LBB17
/var/folders/rt/4gvqv631095f64jvm7jfj_000000gn/T//ccOUYlzQ.s:664    .text.updatePlantReading:00000000000000c0 .LBE17
/var/folders/rt/4gvqv631095f64jvm7jfj_000000gn/T//ccOUYlzQ.s:5817   .debug_str:00000000000001b1 .LASF184
/var/folders/rt/4gvqv631095f64jvm7jfj_000000gn/T//ccOUYlzQ.s:5243   .debug_loc:0000000000000233 .LLST21
/var/folders/rt/4gvqv631095f64jvm7jfj_000000gn/T//ccOUYlzQ.s:6155   .debug_str:0000000000000924 .LASF185
/var/folders/rt/4gvqv631095f64jvm7jfj_000000gn/T//ccOUYlzQ.s:5261   .debug_loc:0000000000000252 .LLST22
/var/folders/rt/4gvqv631095f64jvm7jfj_000000gn/T//ccOUYlzQ.s:5945   .debug_str:0000000000000449 .LASF186
/var/folders/rt/4gvqv631095f64jvm7jfj_000000gn/T//ccOUYlzQ.s:5268   .debug_loc:0000000000000265 .LLST23
/var/folders/rt/4gvqv631095f64jvm7jfj_000000gn/T//ccOUYlzQ.s:5286   .debug_loc:0000000000000284 .LLST24
/var/folders/rt/4gvqv631095f64jvm7jfj_000000gn/T//ccOUYlzQ.s:5307   .debug_loc:00000000000002a6 .LLST25
/var/folders/rt/4gvqv631095f64jvm7jfj_000000gn/T//ccOUYlzQ.s:6069   .debug_str:00000000000006ba .LASF187
/var/folders/rt/4gvqv631095f64jvm7jfj_000000gn/T//ccOUYlzQ.s:614    .text.updatePlantReading:0000000000000064 .LVL67
/var/folders/rt/4gvqv631095f64jvm7jfj_000000gn/T//ccOUYlzQ.s:621    .text.updatePlantReading:000000000000006e .LVL69
/var/folders/rt/4gvqv631095f64jvm7jfj_000000gn/T//ccOUYlzQ.s:644    .text.updatePlantReading:000000000000009c .LVL72
/var/folders/rt/4gvqv631095f64jvm7jfj_000000gn/T//ccOUYlzQ.s:661    .text.updatePlantReading:00000000000000c0 .LVL73
/var/folders/rt/4gvqv631095f64jvm7jfj_000000gn/T//ccOUYlzQ.s:598    .text.updatePlantReading:0000000000000048 .LVL65
/var/folders/rt/4gvqv631095f64jvm7jfj_000000gn/T//ccOUYlzQ.s:585    .text.updatePlantReading:0000000000000036 .LVL63
/var/folders/rt/4gvqv631095f64jvm7jfj_000000gn/T//ccOUYlzQ.s:5957   .debug_str:0000000000000478 .LASF189
/var/folders/rt/4gvqv631095f64jvm7jfj_000000gn/T//ccOUYlzQ.s:435    .text.fetchReading:0000000000000000 .LFB9
/var/folders/rt/4gvqv631095f64jvm7jfj_000000gn/T//ccOUYlzQ.s:532    .text.fetchReading:0000000000000076 .LFE9
/var/folders/rt/4gvqv631095f64jvm7jfj_000000gn/T//ccOUYlzQ.s:5323   .debug_loc:00000000000002c9 .LLST10
/var/folders/rt/4gvqv631095f64jvm7jfj_000000gn/T//ccOUYlzQ.s:5953   .debug_str:0000000000000469 .LASF190
/var/folders/rt/4gvqv631095f64jvm7jfj_000000gn/T//ccOUYlzQ.s:5346   .debug_loc:0000000000000301 .LLST11
/var/folders/rt/4gvqv631095f64jvm7jfj_000000gn/T//ccOUYlzQ.s:5368   .debug_loc:0000000000000338 .LLST12
/var/folders/rt/4gvqv631095f64jvm7jfj_000000gn/T//ccOUYlzQ.s:5983   .debug_str:000000000000050c .LASF191
/var/folders/rt/4gvqv631095f64jvm7jfj_000000gn/T//ccOUYlzQ.s:5390   .debug_loc:000000000000036f .LLST13
/var/folders/rt/4gvqv631095f64jvm7jfj_000000gn/T//ccOUYlzQ.s:5411   .debug_loc:00000000000003a5 .LLST14
/var/folders/rt/4gvqv631095f64jvm7jfj_000000gn/T//ccOUYlzQ.s:465    .text.fetchReading:000000000000001c .LVL48
/var/folders/rt/4gvqv631095f64jvm7jfj_000000gn/T//ccOUYlzQ.s:476    .text.fetchReading:000000000000002c .LVL50
/var/folders/rt/4gvqv631095f64jvm7jfj_000000gn/T//ccOUYlzQ.s:483    .text.fetchReading:0000000000000038 .LVL51
/var/folders/rt/4gvqv631095f64jvm7jfj_000000gn/T//ccOUYlzQ.s:490    .text.fetchReading:0000000000000046 .LVL53
/var/folders/rt/4gvqv631095f64jvm7jfj_000000gn/T//ccOUYlzQ.s:526    .text.fetchReading:0000000000000072 .LVL58
/var/folders/rt/4gvqv631095f64jvm7jfj_000000gn/T//ccOUYlzQ.s:6103   .debug_str:0000000000000758 .LASF193
/var/folders/rt/4gvqv631095f64jvm7jfj_000000gn/T//ccOUYlzQ.s:263    .text.renderOnePlant:0000000000000000 .LFB8
/var/folders/rt/4gvqv631095f64jvm7jfj_000000gn/T//ccOUYlzQ.s:428    .text.renderOnePlant:000000000000012c .LFE8
/var/folders/rt/4gvqv631095f64jvm7jfj_000000gn/T//ccOUYlzQ.s:5423   .debug_loc:00000000000003be .LLST5
/var/folders/rt/4gvqv631095f64jvm7jfj_000000gn/T//ccOUYlzQ.s:5446   .debug_loc:00000000000003f6 .LLST6
/var/folders/rt/4gvqv631095f64jvm7jfj_000000gn/T//ccOUYlzQ.s:5460   .debug_loc:0000000000000417 .LLST7
/var/folders/rt/4gvqv631095f64jvm7jfj_000000gn/T//ccOUYlzQ.s:5482   .debug_loc:000000000000044e .LLST8
/var/folders/rt/4gvqv631095f64jvm7jfj_000000gn/T//ccOUYlzQ.s:5525   .debug_loc:00000000000004b6 .LLST9
GAS LISTING /var/folders/rt/4gvqv631095f64jvm7jfj_000000gn/T//ccOUYlzQ.s 			page 33


/var/folders/rt/4gvqv631095f64jvm7jfj_000000gn/T//ccOUYlzQ.s:315    .text.renderOnePlant:000000000000003c .LVL30
/var/folders/rt/4gvqv631095f64jvm7jfj_000000gn/T//ccOUYlzQ.s:331    .text.renderOnePlant:000000000000005a .LVL33
/var/folders/rt/4gvqv631095f64jvm7jfj_000000gn/T//ccOUYlzQ.s:339    .text.renderOnePlant:000000000000006e .LVL34
/var/folders/rt/4gvqv631095f64jvm7jfj_000000gn/T//ccOUYlzQ.s:349    .text.renderOnePlant:0000000000000088 .LVL36
/var/folders/rt/4gvqv631095f64jvm7jfj_000000gn/T//ccOUYlzQ.s:357    .text.renderOnePlant:00000000000000a0 .LVL37
/var/folders/rt/4gvqv631095f64jvm7jfj_000000gn/T//ccOUYlzQ.s:365    .text.renderOnePlant:00000000000000b8 .LVL38
/var/folders/rt/4gvqv631095f64jvm7jfj_000000gn/T//ccOUYlzQ.s:373    .text.renderOnePlant:00000000000000d0 .LVL39
/var/folders/rt/4gvqv631095f64jvm7jfj_000000gn/T//ccOUYlzQ.s:381    .text.renderOnePlant:00000000000000ea .LVL40
/var/folders/rt/4gvqv631095f64jvm7jfj_000000gn/T//ccOUYlzQ.s:389    .text.renderOnePlant:0000000000000104 .LVL41
/var/folders/rt/4gvqv631095f64jvm7jfj_000000gn/T//ccOUYlzQ.s:417    .text.renderOnePlant:0000000000000128 .LVL44
/var/folders/rt/4gvqv631095f64jvm7jfj_000000gn/T//ccOUYlzQ.s:5941   .debug_str:000000000000042f .LASF194
/var/folders/rt/4gvqv631095f64jvm7jfj_000000gn/T//ccOUYlzQ.s:116    .text.renderAllPlants:0000000000000000 .LFB7
/var/folders/rt/4gvqv631095f64jvm7jfj_000000gn/T//ccOUYlzQ.s:256    .text.renderAllPlants:00000000000000cc .LFE7
/var/folders/rt/4gvqv631095f64jvm7jfj_000000gn/T//ccOUYlzQ.s:5541   .debug_loc:00000000000004e0 .LLST1
/var/folders/rt/4gvqv631095f64jvm7jfj_000000gn/T//ccOUYlzQ.s:5564   .debug_loc:0000000000000518 .LLST2
/var/folders/rt/4gvqv631095f64jvm7jfj_000000gn/T//ccOUYlzQ.s:5578   .debug_loc:0000000000000539 .LLST3
/var/folders/rt/4gvqv631095f64jvm7jfj_000000gn/T//ccOUYlzQ.s:5600   .debug_loc:0000000000000570 .LLST4
/var/folders/rt/4gvqv631095f64jvm7jfj_000000gn/T//ccOUYlzQ.s:210    .text.renderAllPlants:0000000000000058 .LVL20
/var/folders/rt/4gvqv631095f64jvm7jfj_000000gn/T//ccOUYlzQ.s:218    .text.renderAllPlants:000000000000006a .LVL21
/var/folders/rt/4gvqv631095f64jvm7jfj_000000gn/T//ccOUYlzQ.s:227    .text.renderAllPlants:0000000000000082 .LVL22
/var/folders/rt/4gvqv631095f64jvm7jfj_000000gn/T//ccOUYlzQ.s:235    .text.renderAllPlants:0000000000000098 .LVL23
/var/folders/rt/4gvqv631095f64jvm7jfj_000000gn/T//ccOUYlzQ.s:243    .text.renderAllPlants:00000000000000ae .LVL24
/var/folders/rt/4gvqv631095f64jvm7jfj_000000gn/T//ccOUYlzQ.s:251    .text.renderAllPlants:00000000000000c6 .LVL25
/var/folders/rt/4gvqv631095f64jvm7jfj_000000gn/T//ccOUYlzQ.s:5925   .debug_str:00000000000003e0 .LASF232
/var/folders/rt/4gvqv631095f64jvm7jfj_000000gn/T//ccOUYlzQ.s:14     .text.rtcInit:0000000000000000 .LFB6
/var/folders/rt/4gvqv631095f64jvm7jfj_000000gn/T//ccOUYlzQ.s:109    .text.rtcInit:000000000000009e .LFE6
/var/folders/rt/4gvqv631095f64jvm7jfj_000000gn/T//ccOUYlzQ.s:5626   .debug_loc:00000000000005b2 .LLST0
/var/folders/rt/4gvqv631095f64jvm7jfj_000000gn/T//ccOUYlzQ.s:52     .text.rtcInit:0000000000000042 .LBB4
/var/folders/rt/4gvqv631095f64jvm7jfj_000000gn/T//ccOUYlzQ.s:57     .text.rtcInit:000000000000004e .LVL6
/var/folders/rt/4gvqv631095f64jvm7jfj_000000gn/T//ccOUYlzQ.s:62     .text.rtcInit:000000000000005c .LVL7
/var/folders/rt/4gvqv631095f64jvm7jfj_000000gn/T//ccOUYlzQ.s:65     .text.rtcInit:0000000000000064 .LVL8
/var/folders/rt/4gvqv631095f64jvm7jfj_000000gn/T//ccOUYlzQ.s:68     .text.rtcInit:000000000000006c .LVL9
/var/folders/rt/4gvqv631095f64jvm7jfj_000000gn/T//ccOUYlzQ.s:73     .text.rtcInit:000000000000007a .LVL10
/var/folders/rt/4gvqv631095f64jvm7jfj_000000gn/T//ccOUYlzQ.s:76     .text.rtcInit:0000000000000082 .LVL11
/var/folders/rt/4gvqv631095f64jvm7jfj_000000gn/T//ccOUYlzQ.s:80     .text.rtcInit:000000000000008c .LVL12
/var/folders/rt/4gvqv631095f64jvm7jfj_000000gn/T//ccOUYlzQ.s:95     .text.rtcInit:0000000000000098 .LVL13
/var/folders/rt/4gvqv631095f64jvm7jfj_000000gn/T//ccOUYlzQ.s:30     .text.rtcInit:0000000000000010 .LVL0
/var/folders/rt/4gvqv631095f64jvm7jfj_000000gn/T//ccOUYlzQ.s:33     .text.rtcInit:0000000000000018 .LVL1
/var/folders/rt/4gvqv631095f64jvm7jfj_000000gn/T//ccOUYlzQ.s:37     .text.rtcInit:0000000000000024 .LVL2
/var/folders/rt/4gvqv631095f64jvm7jfj_000000gn/T//ccOUYlzQ.s:40     .text.rtcInit:000000000000002c .LVL3
/var/folders/rt/4gvqv631095f64jvm7jfj_000000gn/T//ccOUYlzQ.s:44     .text.rtcInit:0000000000000036 .LVL4
/var/folders/rt/4gvqv631095f64jvm7jfj_000000gn/T//ccOUYlzQ.s:49     .text.rtcInit:0000000000000040 .LVL5
/var/folders/rt/4gvqv631095f64jvm7jfj_000000gn/T//ccOUYlzQ.s:6125   .debug_str:000000000000088f .LASF195
/var/folders/rt/4gvqv631095f64jvm7jfj_000000gn/T//ccOUYlzQ.s:6143   .debug_str:00000000000008f4 .LASF196
/var/folders/rt/4gvqv631095f64jvm7jfj_000000gn/T//ccOUYlzQ.s:6009   .debug_str:00000000000005a6 .LASF197
/var/folders/rt/4gvqv631095f64jvm7jfj_000000gn/T//ccOUYlzQ.s:6181   .debug_str:00000000000009b6 .LASF198
/var/folders/rt/4gvqv631095f64jvm7jfj_000000gn/T//ccOUYlzQ.s:6141   .debug_str:00000000000008e4 .LASF199
/var/folders/rt/4gvqv631095f64jvm7jfj_000000gn/T//ccOUYlzQ.s:6041   .debug_str:000000000000063b .LASF200
/var/folders/rt/4gvqv631095f64jvm7jfj_000000gn/T//ccOUYlzQ.s:6185   .debug_str:00000000000009d2 .LASF201
/var/folders/rt/4gvqv631095f64jvm7jfj_000000gn/T//ccOUYlzQ.s:5823   .debug_str:00000000000001cb .LASF202
/var/folders/rt/4gvqv631095f64jvm7jfj_000000gn/T//ccOUYlzQ.s:6159   .debug_str:000000000000093a .LASF203
/var/folders/rt/4gvqv631095f64jvm7jfj_000000gn/T//ccOUYlzQ.s:6027   .debug_str:00000000000005f6 .LASF204
/var/folders/rt/4gvqv631095f64jvm7jfj_000000gn/T//ccOUYlzQ.s:5793   .debug_str:000000000000014a .LASF205
/var/folders/rt/4gvqv631095f64jvm7jfj_000000gn/T//ccOUYlzQ.s:6097   .debug_str:000000000000073d .LASF206
/var/folders/rt/4gvqv631095f64jvm7jfj_000000gn/T//ccOUYlzQ.s:5899   .debug_str:0000000000000363 .LASF207
/var/folders/rt/4gvqv631095f64jvm7jfj_000000gn/T//ccOUYlzQ.s:5783   .debug_str:000000000000010b .LASF208
/var/folders/rt/4gvqv631095f64jvm7jfj_000000gn/T//ccOUYlzQ.s:6133   .debug_str:00000000000008b2 .LASF209
GAS LISTING /var/folders/rt/4gvqv631095f64jvm7jfj_000000gn/T//ccOUYlzQ.s 			page 34


/var/folders/rt/4gvqv631095f64jvm7jfj_000000gn/T//ccOUYlzQ.s:5741   .debug_str:0000000000000030 .LASF210
/var/folders/rt/4gvqv631095f64jvm7jfj_000000gn/T//ccOUYlzQ.s:6101   .debug_str:000000000000074c .LASF211
/var/folders/rt/4gvqv631095f64jvm7jfj_000000gn/T//ccOUYlzQ.s:5933   .debug_str:00000000000003fd .LASF212
/var/folders/rt/4gvqv631095f64jvm7jfj_000000gn/T//ccOUYlzQ.s:5827   .debug_str:00000000000001e0 .LASF213
/var/folders/rt/4gvqv631095f64jvm7jfj_000000gn/T//ccOUYlzQ.s:5861   .debug_str:0000000000000294 .LASF214
/var/folders/rt/4gvqv631095f64jvm7jfj_000000gn/T//ccOUYlzQ.s:6179   .debug_str:00000000000009a7 .LASF215
/var/folders/rt/4gvqv631095f64jvm7jfj_000000gn/T//ccOUYlzQ.s:6117   .debug_str:0000000000000858 .LASF216
/var/folders/rt/4gvqv631095f64jvm7jfj_000000gn/T//ccOUYlzQ.s:6015   .debug_str:00000000000005c2 .LASF217
/var/folders/rt/4gvqv631095f64jvm7jfj_000000gn/T//ccOUYlzQ.s:6163   .debug_str:0000000000000949 .LASF218
/var/folders/rt/4gvqv631095f64jvm7jfj_000000gn/T//ccOUYlzQ.s:5961   .debug_str:000000000000048e .LASF219
/var/folders/rt/4gvqv631095f64jvm7jfj_000000gn/T//ccOUYlzQ.s:5891   .debug_str:000000000000032c .LASF220
/var/folders/rt/4gvqv631095f64jvm7jfj_000000gn/T//ccOUYlzQ.s:6175   .debug_str:000000000000098f .LASF221
/var/folders/rt/4gvqv631095f64jvm7jfj_000000gn/T//ccOUYlzQ.s:5985   .debug_str:0000000000000513 .LASF222
/var/folders/rt/4gvqv631095f64jvm7jfj_000000gn/T//ccOUYlzQ.s:5869   .debug_str:00000000000002c0 .LASF223
/var/folders/rt/4gvqv631095f64jvm7jfj_000000gn/T//ccOUYlzQ.s:5989   .debug_str:000000000000052c .LASF224
/var/folders/rt/4gvqv631095f64jvm7jfj_000000gn/T//ccOUYlzQ.s:5851   .debug_str:0000000000000253 .LASF225
/var/folders/rt/4gvqv631095f64jvm7jfj_000000gn/T//ccOUYlzQ.s:5923   .debug_str:00000000000003d4 .LASF226
/var/folders/rt/4gvqv631095f64jvm7jfj_000000gn/T//ccOUYlzQ.s:6121   .debug_str:0000000000000877 .LASF227
/var/folders/rt/4gvqv631095f64jvm7jfj_000000gn/T//ccOUYlzQ.s:711    .text.startup.main:0000000000000006 .LCFI16
/var/folders/rt/4gvqv631095f64jvm7jfj_000000gn/T//ccOUYlzQ.s:721    .text.startup.main:0000000000000024 .LCFI17
/var/folders/rt/4gvqv631095f64jvm7jfj_000000gn/T//ccOUYlzQ.s:706    .text.startup.main:0000000000000000 .LVL77
/var/folders/rt/4gvqv631095f64jvm7jfj_000000gn/T//ccOUYlzQ.s:807    .text.startup.main:00000000000000de .LVL90
/var/folders/rt/4gvqv631095f64jvm7jfj_000000gn/T//ccOUYlzQ.s:811    .text.startup.main:00000000000000e0 .LVL91
/var/folders/rt/4gvqv631095f64jvm7jfj_000000gn/T//ccOUYlzQ.s:829    .text.startup.main:00000000000000f6 .LVL95
/var/folders/rt/4gvqv631095f64jvm7jfj_000000gn/T//ccOUYlzQ.s:853    .text.startup.main:000000000000012a .LVL99
/var/folders/rt/4gvqv631095f64jvm7jfj_000000gn/T//ccOUYlzQ.s:549    .text.updatePlantReading:0000000000000002 .LCFI13
/var/folders/rt/4gvqv631095f64jvm7jfj_000000gn/T//ccOUYlzQ.s:680    .text.updatePlantReading:00000000000000cc .LCFI14
/var/folders/rt/4gvqv631095f64jvm7jfj_000000gn/T//ccOUYlzQ.s:685    .text.updatePlantReading:00000000000000ce .LCFI15
/var/folders/rt/4gvqv631095f64jvm7jfj_000000gn/T//ccOUYlzQ.s:542    .text.updatePlantReading:0000000000000000 .LVL59
/var/folders/rt/4gvqv631095f64jvm7jfj_000000gn/T//ccOUYlzQ.s:569    .text.updatePlantReading:0000000000000014 .LVL60
/var/folders/rt/4gvqv631095f64jvm7jfj_000000gn/T//ccOUYlzQ.s:676    .text.updatePlantReading:00000000000000c8 .LVL74
/var/folders/rt/4gvqv631095f64jvm7jfj_000000gn/T//ccOUYlzQ.s:683    .text.updatePlantReading:00000000000000ce .LVL75
/var/folders/rt/4gvqv631095f64jvm7jfj_000000gn/T//ccOUYlzQ.s:578    .text.updatePlantReading:000000000000001e .LVL62
/var/folders/rt/4gvqv631095f64jvm7jfj_000000gn/T//ccOUYlzQ.s:587    .text.updatePlantReading:0000000000000038 .LVL64
/var/folders/rt/4gvqv631095f64jvm7jfj_000000gn/T//ccOUYlzQ.s:603    .text.updatePlantReading:000000000000004e .LVL66
/var/folders/rt/4gvqv631095f64jvm7jfj_000000gn/T//ccOUYlzQ.s:576    .text.updatePlantReading:000000000000001a .LVL61
/var/folders/rt/4gvqv631095f64jvm7jfj_000000gn/T//ccOUYlzQ.s:616    .text.updatePlantReading:0000000000000066 .LVL68
/var/folders/rt/4gvqv631095f64jvm7jfj_000000gn/T//ccOUYlzQ.s:639    .text.updatePlantReading:0000000000000088 .LVL71
/var/folders/rt/4gvqv631095f64jvm7jfj_000000gn/T//ccOUYlzQ.s:636    .text.updatePlantReading:0000000000000082 .LVL70
/var/folders/rt/4gvqv631095f64jvm7jfj_000000gn/T//ccOUYlzQ.s:442    .text.fetchReading:0000000000000002 .LCFI10
/var/folders/rt/4gvqv631095f64jvm7jfj_000000gn/T//ccOUYlzQ.s:509    .text.fetchReading:0000000000000054 .LCFI11
/var/folders/rt/4gvqv631095f64jvm7jfj_000000gn/T//ccOUYlzQ.s:514    .text.fetchReading:0000000000000056 .LCFI12
/var/folders/rt/4gvqv631095f64jvm7jfj_000000gn/T//ccOUYlzQ.s:438    .text.fetchReading:0000000000000000 .LVL46
/var/folders/rt/4gvqv631095f64jvm7jfj_000000gn/T//ccOUYlzQ.s:498    .text.fetchReading:000000000000004a .LVL54
/var/folders/rt/4gvqv631095f64jvm7jfj_000000gn/T//ccOUYlzQ.s:512    .text.fetchReading:0000000000000056 .LVL57
/var/folders/rt/4gvqv631095f64jvm7jfj_000000gn/T//ccOUYlzQ.s:449    .text.fetchReading:0000000000000008 .LVL47
/var/folders/rt/4gvqv631095f64jvm7jfj_000000gn/T//ccOUYlzQ.s:502    .text.fetchReading:000000000000004e .LVL55
/var/folders/rt/4gvqv631095f64jvm7jfj_000000gn/T//ccOUYlzQ.s:470    .text.fetchReading:0000000000000020 .LVL49
/var/folders/rt/4gvqv631095f64jvm7jfj_000000gn/T//ccOUYlzQ.s:485    .text.fetchReading:000000000000003a .LVL52
/var/folders/rt/4gvqv631095f64jvm7jfj_000000gn/T//ccOUYlzQ.s:505    .text.fetchReading:0000000000000050 .LVL56
/var/folders/rt/4gvqv631095f64jvm7jfj_000000gn/T//ccOUYlzQ.s:273    .text.renderOnePlant:0000000000000002 .LCFI7
/var/folders/rt/4gvqv631095f64jvm7jfj_000000gn/T//ccOUYlzQ.s:413    .text.renderOnePlant:0000000000000120 .LCFI8
/var/folders/rt/4gvqv631095f64jvm7jfj_000000gn/T//ccOUYlzQ.s:419    .text.renderOnePlant:0000000000000128 .LCFI9
/var/folders/rt/4gvqv631095f64jvm7jfj_000000gn/T//ccOUYlzQ.s:266    .text.renderOnePlant:0000000000000000 .LVL26
/var/folders/rt/4gvqv631095f64jvm7jfj_000000gn/T//ccOUYlzQ.s:291    .text.renderOnePlant:0000000000000012 .LVL27
/var/folders/rt/4gvqv631095f64jvm7jfj_000000gn/T//ccOUYlzQ.s:411    .text.renderOnePlant:000000000000011e .LVL43
/var/folders/rt/4gvqv631095f64jvm7jfj_000000gn/T//ccOUYlzQ.s:299    .text.renderOnePlant:000000000000001c .LVL28
GAS LISTING /var/folders/rt/4gvqv631095f64jvm7jfj_000000gn/T//ccOUYlzQ.s 			page 35


/var/folders/rt/4gvqv631095f64jvm7jfj_000000gn/T//ccOUYlzQ.s:306    .text.renderOnePlant:000000000000002e .LVL29
/var/folders/rt/4gvqv631095f64jvm7jfj_000000gn/T//ccOUYlzQ.s:322    .text.renderOnePlant:0000000000000046 .LVL31
/var/folders/rt/4gvqv631095f64jvm7jfj_000000gn/T//ccOUYlzQ.s:328    .text.renderOnePlant:0000000000000050 .LVL32
/var/folders/rt/4gvqv631095f64jvm7jfj_000000gn/T//ccOUYlzQ.s:396    .text.renderOnePlant:0000000000000114 .LVL42
/var/folders/rt/4gvqv631095f64jvm7jfj_000000gn/T//ccOUYlzQ.s:342    .text.renderOnePlant:0000000000000072 .LVL35
/var/folders/rt/4gvqv631095f64jvm7jfj_000000gn/T//ccOUYlzQ.s:126    .text.renderAllPlants:0000000000000002 .LCFI4
/var/folders/rt/4gvqv631095f64jvm7jfj_000000gn/T//ccOUYlzQ.s:190    .text.renderAllPlants:000000000000003e .LCFI5
/var/folders/rt/4gvqv631095f64jvm7jfj_000000gn/T//ccOUYlzQ.s:195    .text.renderAllPlants:0000000000000040 .LCFI6
/var/folders/rt/4gvqv631095f64jvm7jfj_000000gn/T//ccOUYlzQ.s:119    .text.renderAllPlants:0000000000000000 .LVL14
/var/folders/rt/4gvqv631095f64jvm7jfj_000000gn/T//ccOUYlzQ.s:162    .text.renderAllPlants:0000000000000026 .LVL15
/var/folders/rt/4gvqv631095f64jvm7jfj_000000gn/T//ccOUYlzQ.s:186    .text.renderAllPlants:000000000000003a .LVL17
/var/folders/rt/4gvqv631095f64jvm7jfj_000000gn/T//ccOUYlzQ.s:193    .text.renderAllPlants:0000000000000040 .LVL18
/var/folders/rt/4gvqv631095f64jvm7jfj_000000gn/T//ccOUYlzQ.s:179    .text.renderAllPlants:0000000000000034 .LVL16
/var/folders/rt/4gvqv631095f64jvm7jfj_000000gn/T//ccOUYlzQ.s:206    .text.renderAllPlants:000000000000004e .LVL19
/var/folders/rt/4gvqv631095f64jvm7jfj_000000gn/T//ccOUYlzQ.s:21     .text.rtcInit:0000000000000002 .LCFI0
/var/folders/rt/4gvqv631095f64jvm7jfj_000000gn/T//ccOUYlzQ.s:89     .text.rtcInit:0000000000000090 .LCFI1
/var/folders/rt/4gvqv631095f64jvm7jfj_000000gn/T//ccOUYlzQ.s:97     .text.rtcInit:0000000000000098 .LCFI2
/var/folders/rt/4gvqv631095f64jvm7jfj_000000gn/T//ccOUYlzQ.s:105    .text.rtcInit:000000000000009c .LCFI3
/var/folders/rt/4gvqv631095f64jvm7jfj_000000gn/T//ccOUYlzQ.s:921    .debug_info:0000000000000000 .Ldebug_info0
/var/folders/rt/4gvqv631095f64jvm7jfj_000000gn/T//ccOUYlzQ.s:83     .text.rtcInit:000000000000008c .LBE4
/var/folders/rt/4gvqv631095f64jvm7jfj_000000gn/T//ccOUYlzQ.s:91     .text.rtcInit:0000000000000090 .LBB7
/var/folders/rt/4gvqv631095f64jvm7jfj_000000gn/T//ccOUYlzQ.s:100    .text.rtcInit:0000000000000098 .LBE7
/var/folders/rt/4gvqv631095f64jvm7jfj_000000gn/T//ccOUYlzQ.s:121    .text.renderAllPlants:0000000000000000 .LBB8
/var/folders/rt/4gvqv631095f64jvm7jfj_000000gn/T//ccOUYlzQ.s:123    .text.renderAllPlants:0000000000000000 .LBE8
/var/folders/rt/4gvqv631095f64jvm7jfj_000000gn/T//ccOUYlzQ.s:130    .text.renderAllPlants:0000000000000004 .LBB9
/var/folders/rt/4gvqv631095f64jvm7jfj_000000gn/T//ccOUYlzQ.s:133    .text.renderAllPlants:0000000000000006 .LBE9
/var/folders/rt/4gvqv631095f64jvm7jfj_000000gn/T//ccOUYlzQ.s:154    .text.renderAllPlants:000000000000001a .LBB10
/var/folders/rt/4gvqv631095f64jvm7jfj_000000gn/T//ccOUYlzQ.s:166    .text.renderAllPlants:000000000000002a .LBE10
/var/folders/rt/4gvqv631095f64jvm7jfj_000000gn/T//ccOUYlzQ.s:197    .text.renderAllPlants:0000000000000040 .LBB11
/var/folders/rt/4gvqv631095f64jvm7jfj_000000gn/T//ccOUYlzQ.s:254    .text.renderAllPlants:00000000000000cc .LBE11
/var/folders/rt/4gvqv631095f64jvm7jfj_000000gn/T//ccOUYlzQ.s:268    .text.renderOnePlant:0000000000000000 .LBB12
/var/folders/rt/4gvqv631095f64jvm7jfj_000000gn/T//ccOUYlzQ.s:270    .text.renderOnePlant:0000000000000000 .LBE12
/var/folders/rt/4gvqv631095f64jvm7jfj_000000gn/T//ccOUYlzQ.s:288    .text.renderOnePlant:0000000000000010 .LBB13
/var/folders/rt/4gvqv631095f64jvm7jfj_000000gn/T//ccOUYlzQ.s:295    .text.renderOnePlant:0000000000000016 .LBE13
/var/folders/rt/4gvqv631095f64jvm7jfj_000000gn/T//ccOUYlzQ.s:308    .text.renderOnePlant:000000000000002e .LBB14
/var/folders/rt/4gvqv631095f64jvm7jfj_000000gn/T//ccOUYlzQ.s:398    .text.renderOnePlant:0000000000000114 .LBE14
/var/folders/rt/4gvqv631095f64jvm7jfj_000000gn/T//ccOUYlzQ.s:421    .text.renderOnePlant:0000000000000128 .LBB15
/var/folders/rt/4gvqv631095f64jvm7jfj_000000gn/T//ccOUYlzQ.s:426    .text.renderOnePlant:000000000000012c .LBE15
/var/folders/rt/4gvqv631095f64jvm7jfj_000000gn/T//ccOUYlzQ.s:544    .text.updatePlantReading:0000000000000000 .LBB16
/var/folders/rt/4gvqv631095f64jvm7jfj_000000gn/T//ccOUYlzQ.s:546    .text.updatePlantReading:0000000000000000 .LBE16
/var/folders/rt/4gvqv631095f64jvm7jfj_000000gn/T//ccOUYlzQ.s:564    .text.updatePlantReading:0000000000000010 .LBB18
/var/folders/rt/4gvqv631095f64jvm7jfj_000000gn/T//ccOUYlzQ.s:573    .text.updatePlantReading:0000000000000018 .LBE18
/var/folders/rt/4gvqv631095f64jvm7jfj_000000gn/T//ccOUYlzQ.s:589    .text.updatePlantReading:0000000000000038 .LBB19
/var/folders/rt/4gvqv631095f64jvm7jfj_000000gn/T//ccOUYlzQ.s:665    .text.updatePlantReading:00000000000000c0 .LBE19
/var/folders/rt/4gvqv631095f64jvm7jfj_000000gn/T//ccOUYlzQ.s:687    .text.updatePlantReading:00000000000000ce .LBB20
/var/folders/rt/4gvqv631095f64jvm7jfj_000000gn/T//ccOUYlzQ.s:693    .text.updatePlantReading:00000000000000d6 .LBE20

UNDEFINED SYMBOLS
rcu_periph_clock_enable
pmu_backup_write_enable
bkp_deinit
rcu_osci_on
rcu_osci_stab_wait
rcu_rtc_clock_config
rtc_register_sync_wait
rtc_lwoff_wait
rtc_prescaler_set
GAS LISTING /var/folders/rt/4gvqv631095f64jvm7jfj_000000gn/T//ccOUYlzQ.s 			page 36


rtc_flag_clear
LCD_ShowStr
LCD_ShowNum
strcmp
LCD_Fill
adc_software_trigger_enable
adc_flag_get
adc_regular_data_read
adc_flag_clear
rtc_counter_get
snprintf
t5omsi
colinit
l88init
rtc_counter_set
ADC3powerUpInit
Lcd_SetType
Lcd_Init
LCD_Clear
initPlant
t5expq
colset
l88row
l88mem
