GAS LISTING /var/folders/rt/4gvqv631095f64jvm7jfj_000000gn/T//ccu5ioPi.s 			page 1


   1              		.file	"main.c"
   2              		.option nopic
   3              		.attribute arch, "rv32i2p0_m2p0_a2p0_c2p0"
   4              		.attribute unaligned_access, 0
   5              		.attribute stack_align, 16
   6              		.text
   7              	.Ltext0:
   8              		.cfi_sections	.debug_frame
   9              		.section	.text.rtcInit,"ax",@progbits
  10              		.align	1
  11              		.globl	rtcInit
  13              	rtcInit:
  14              	.LFB6:
  15              		.file 1 "main.c"
   1:main.c        **** #include "gd32vf103.h"
   2:main.c        **** #include "drivers.h"
   3:main.c        **** #include "adc.h"
   4:main.c        **** #include "lcd.h"
   5:main.c        **** #include "plant.h"
   6:main.c        **** #include <string.h>
   7:main.c        **** #include <stdio.h>
   8:main.c        **** #define STR_COPY(dest, src) \
   9:main.c        ****   snprintf(dest, sizeof(dest), "%s", src) // AI. STR_COPY är en genväg för snprintf som i sin tu
  10:main.c        **** 
  11:main.c        **** #define EI 1
  12:main.c        **** #define DI 0
  13:main.c        **** 
  14:main.c        **** // KTH code was from: https://gms.tf/riscv-gd32vf103.html#realtime-clock-rtc
  15:main.c        **** void rtcInit(void)
  16:main.c        **** {
  16              		.loc 1 16 1
  17              		.cfi_startproc
  17:main.c        ****   rcu_periph_clock_enable(RCU_PMU); // enable power managemenet unit - perhaps enabled by default
  18              		.loc 1 17 3
  16:main.c        ****   rcu_periph_clock_enable(RCU_PMU); // enable power managemenet unit - perhaps enabled by default
  19              		.loc 1 16 1 is_stmt 0
  20 0000 4111     		addi	sp,sp,-16
  21              	.LCFI0:
  22              		.cfi_def_cfa_offset 16
  23              		.loc 1 17 3
  24 0002 1305C071 		li	a0,1820
  16:main.c        ****   rcu_periph_clock_enable(RCU_PMU); // enable power managemenet unit - perhaps enabled by default
  25              		.loc 1 16 1
  26 0006 06C6     		sw	ra,12(sp)
  27              		.cfi_offset 1, -4
  28              		.loc 1 17 3
  29 0008 97000000 		call	rcu_periph_clock_enable
  29      E7800000 
  30              	.LVL0:
  18:main.c        ****   // enable write access to the registers in the backup domain
  19:main.c        ****   pmu_backup_write_enable();
  31              		.loc 1 19 3 is_stmt 1
  32 0010 97000000 		call	pmu_backup_write_enable
  32      E7800000 
  33              	.LVL1:
  20:main.c        ****   // enable backup domain
  21:main.c        ****   rcu_periph_clock_enable(RCU_BKPI);
GAS LISTING /var/folders/rt/4gvqv631095f64jvm7jfj_000000gn/T//ccu5ioPi.s 			page 2


  34              		.loc 1 21 3
  35 0018 1305B071 		li	a0,1819
  36 001c 97000000 		call	rcu_periph_clock_enable
  36      E7800000 
  37              	.LVL2:
  22:main.c        ****   // reset backup domain registers
  23:main.c        ****   bkp_deinit();
  38              		.loc 1 23 3
  39 0024 97000000 		call	bkp_deinit
  39      E7800000 
  40              	.LVL3:
  24:main.c        ****   // set the results of a previous calibration procedure
  25:main.c        ****   // bkp_rtc_calibration_value_set(x);
  26:main.c        **** 
  27:main.c        ****   // setup RTC
  28:main.c        ****   // enable external low speed XO
  29:main.c        ****   rcu_osci_on(RCU_HXTAL);
  41              		.loc 1 29 3
  42 002c 4145     		li	a0,16
  43 002e 97000000 		call	rcu_osci_on
  43      E7800000 
  44              	.LVL4:
  30:main.c        ****   if (rcu_osci_stab_wait(RCU_HXTAL))
  45              		.loc 1 30 3
  46              		.loc 1 30 7 is_stmt 0
  47 0036 4145     		li	a0,16
  48 0038 97000000 		call	rcu_osci_stab_wait
  48      E7800000 
  49              	.LVL5:
  50              		.loc 1 30 6
  51 0040 21CD     		beq	a0,zero,.L1
  52              	.LBB4:
  53              	.LBB5:
  31:main.c        ****   {
  32:main.c        ****     // use external low speed oscillaotr, i.e. 32.768 kHz
  33:main.c        ****     rcu_rtc_clock_config(RCU_RTCSRC_HXTAL_DIV_128);
  54              		.loc 1 33 5 is_stmt 1
  55 0042 13050030 		li	a0,768
  56 0046 97000000 		call	rcu_rtc_clock_config
  56      E7800000 
  57              	.LVL6:
  34:main.c        ****     rcu_periph_clock_enable(RCU_RTC);
  58              		.loc 1 34 5
  59 004e 0565     		li	a0,4096
  60 0050 1305F580 		addi	a0,a0,-2033
  61 0054 97000000 		call	rcu_periph_clock_enable
  61      E7800000 
  62              	.LVL7:
  35:main.c        ****     // wait until shadow registers are synced from the backup domain
  36:main.c        ****     // over the APB bus
  37:main.c        ****     rtc_register_sync_wait();
  63              		.loc 1 37 5
  64 005c 97000000 		call	rtc_register_sync_wait
  64      E7800000 
  65              	.LVL8:
  38:main.c        ****     // wait until shadow register changes are synced over APB
  39:main.c        ****     // to the backup doamin
GAS LISTING /var/folders/rt/4gvqv631095f64jvm7jfj_000000gn/T//ccu5ioPi.s 			page 3


  40:main.c        ****     rtc_lwoff_wait();
  66              		.loc 1 40 5
  67 0064 97000000 		call	rtc_lwoff_wait
  67      E7800000 
  68              	.LVL9:
  41:main.c        ****     // prescale to 1 second
  42:main.c        ****     rtc_prescaler_set(62500 - 1);
  69              		.loc 1 42 5
  70 006c 3D65     		li	a0,61440
  71 006e 13053542 		addi	a0,a0,1059
  72 0072 97000000 		call	rtc_prescaler_set
  72      E7800000 
  73              	.LVL10:
  43:main.c        ****     rtc_lwoff_wait();
  74              		.loc 1 43 5
  75 007a 97000000 		call	rtc_lwoff_wait
  75      E7800000 
  76              	.LVL11:
  44:main.c        ****     rtc_flag_clear(RTC_INT_FLAG_SECOND);
  77              		.loc 1 44 5
  78 0082 0545     		li	a0,1
  79 0084 97000000 		call	rtc_flag_clear
  79      E7800000 
  80              	.LVL12:
  45:main.c        ****     // rtc_interrupt_enable(RTC_INT_SECOND);
  46:main.c        ****     rtc_lwoff_wait();
  81              		.loc 1 46 5
  82              	.LBE5:
  83              	.LBE4:
  47:main.c        ****   }
  48:main.c        **** }
  84              		.loc 1 48 1 is_stmt 0
  85 008c B240     		lw	ra,12(sp)
  86              		.cfi_remember_state
  87              		.cfi_restore 1
  88 008e 4101     		addi	sp,sp,16
  89              	.LCFI1:
  90              		.cfi_def_cfa_offset 0
  91              	.LBB7:
  92              	.LBB6:
  46:main.c        ****   }
  93              		.loc 1 46 5
  94 0090 17030000 		tail	rtc_lwoff_wait
  94      67000300 
  95              	.LVL13:
  96              	.L1:
  97              	.LCFI2:
  98              		.cfi_restore_state
  99              	.LBE6:
 100              	.LBE7:
 101              		.loc 1 48 1
 102 0098 B240     		lw	ra,12(sp)
 103              		.cfi_restore 1
 104 009a 4101     		addi	sp,sp,16
 105              	.LCFI3:
 106              		.cfi_def_cfa_offset 0
 107 009c 8280     		jr	ra
GAS LISTING /var/folders/rt/4gvqv631095f64jvm7jfj_000000gn/T//ccu5ioPi.s 			page 4


 108              		.cfi_endproc
 109              	.LFE6:
 111              		.section	.text.renderAllPlants,"ax",@progbits
 112              		.align	1
 113              		.globl	renderAllPlants
 115              	renderAllPlants:
 116              	.LFB7:
  49:main.c        **** 
  50:main.c        **** void renderAllPlants(Plant allPlants[], int numberOfPlants)
  51:main.c        **** {
 117              		.loc 1 51 1 is_stmt 1
 118              		.cfi_startproc
 119              	.LVL14:
  52:main.c        ****   for (int i = 0; i < numberOfPlants; i++)
 120              		.loc 1 52 3
 121              	.LBB8:
 122              		.loc 1 52 8
 123              	.LBE8:
  51:main.c        ****   for (int i = 0; i < numberOfPlants; i++)
 124              		.loc 1 51 1 is_stmt 0
 125 0000 7971     		addi	sp,sp,-48
 126              	.LCFI4:
 127              		.cfi_def_cfa_offset 48
 128 0002 22D4     		sw	s0,40(sp)
 129              		.cfi_offset 8, -8
 130              	.LBB9:
  53:main.c        ****   {
  54:main.c        ****     LCD_ShowStr(i * 55, 0, allPlants[i].name, WHITE, TRANSPARENT);
 131              		.loc 1 54 5
 132 0004 4164     		li	s0,65536
 133              	.LBE9:
  51:main.c        ****   for (int i = 0; i < numberOfPlants; i++)
 134              		.loc 1 51 1
 135 0006 26D2     		sw	s1,36(sp)
 136 0008 4ECE     		sw	s3,28(sp)
 137 000a 52CC     		sw	s4,24(sp)
 138 000c 5AC8     		sw	s6,16(sp)
 139 000e 5EC6     		sw	s7,12(sp)
 140 0010 06D6     		sw	ra,44(sp)
 141 0012 4AD0     		sw	s2,32(sp)
 142 0014 56CA     		sw	s5,20(sp)
 143              		.cfi_offset 9, -12
 144              		.cfi_offset 19, -20
 145              		.cfi_offset 20, -24
 146              		.cfi_offset 22, -32
 147              		.cfi_offset 23, -36
 148              		.cfi_offset 1, -4
 149              		.cfi_offset 18, -16
 150              		.cfi_offset 21, -28
  51:main.c        ****   for (int i = 0; i < numberOfPlants; i++)
 151              		.loc 1 51 1
 152 0016 2E8B     		mv	s6,a1
 153 0018 AA84     		mv	s1,a0
 154              	.LBB10:
  52:main.c        ****   {
 155              		.loc 1 52 12
 156 001a 8149     		li	s3,0
GAS LISTING /var/folders/rt/4gvqv631095f64jvm7jfj_000000gn/T//ccu5ioPi.s 			page 5


 157 001c 930B7003 		li	s7,55
 158              		.loc 1 54 5
 159 0020 7D14     		addi	s0,s0,-1
  55:main.c        ****     LCD_ShowNum(i * 55, 20, allPlants[i].moisture[0].reading, 3, WHITE);
  56:main.c        ****     LCD_ShowStr(i * 55 + 30, 20, "%", WHITE, TRANSPARENT);
 160              		.loc 1 56 5
 161 0022 370A0000 		lui	s4,%hi(.LC0)
 162              	.LVL15:
 163              	.L5:
  52:main.c        ****   {
 164              		.loc 1 52 3 discriminator 1
 165 0026 63CD6901 		blt	s3,s6,.L6
 166              	.LBE10:
  57:main.c        ****     LCD_ShowNum(i * 55, 40, allPlants[i].sun[0].reading, 3, WHITE);
  58:main.c        ****     LCD_ShowStr(i * 55 + 30, 40, "%", WHITE, TRANSPARENT);
  59:main.c        ****     LCD_ShowStr(i * 55, 60, allPlants[i].currentStatus, GBLUE, TRANSPARENT);
  60:main.c        ****   }
  61:main.c        **** }
 167              		.loc 1 61 1
 168 002a B250     		lw	ra,44(sp)
 169              		.cfi_remember_state
 170              		.cfi_restore 1
 171 002c 2254     		lw	s0,40(sp)
 172              		.cfi_restore 8
 173 002e 9254     		lw	s1,36(sp)
 174              		.cfi_restore 9
 175 0030 0259     		lw	s2,32(sp)
 176              		.cfi_restore 18
 177 0032 F249     		lw	s3,28(sp)
 178              		.cfi_restore 19
 179              	.LVL16:
 180 0034 624A     		lw	s4,24(sp)
 181              		.cfi_restore 20
 182 0036 D24A     		lw	s5,20(sp)
 183              		.cfi_restore 21
 184 0038 424B     		lw	s6,16(sp)
 185              		.cfi_restore 22
 186              	.LVL17:
 187 003a B24B     		lw	s7,12(sp)
 188              		.cfi_restore 23
 189 003c 4561     		addi	sp,sp,48
 190              	.LCFI5:
 191              		.cfi_def_cfa_offset 0
 192 003e 8280     		jr	ra
 193              	.LVL18:
 194              	.L6:
 195              	.LCFI6:
 196              		.cfi_restore_state
 197              	.LBB11:
  54:main.c        ****     LCD_ShowNum(i * 55, 20, allPlants[i].moisture[0].reading, 3, WHITE);
 198              		.loc 1 54 5 is_stmt 1 discriminator 3
 199 0040 33897903 		mul	s2,s3,s7
 200 0044 2686     		mv	a2,s1
 201 0046 0547     		li	a4,1
 202 0048 A286     		mv	a3,s0
 203 004a 8145     		li	a1,0
  52:main.c        ****   {
GAS LISTING /var/folders/rt/4gvqv631095f64jvm7jfj_000000gn/T//ccu5ioPi.s 			page 6


 204              		.loc 1 52 40 is_stmt 0 discriminator 3
 205 004c 8509     		addi	s3,s3,1
 206              	.LVL19:
  54:main.c        ****     LCD_ShowNum(i * 55, 20, allPlants[i].moisture[0].reading, 3, WHITE);
 207              		.loc 1 54 5 discriminator 3
 208 004e 4A85     		mv	a0,s2
 209 0050 97000000 		call	LCD_ShowStr
 209      E7800000 
 210              	.LVL20:
  55:main.c        ****     LCD_ShowStr(i * 55 + 30, 20, "%", WHITE, TRANSPARENT);
 211              		.loc 1 55 5 is_stmt 1 discriminator 3
 212 0058 904C     		lw	a2,24(s1)
 213 005a 2287     		mv	a4,s0
 214 005c 8D46     		li	a3,3
 215 005e D145     		li	a1,20
 216 0060 4A85     		mv	a0,s2
 217 0062 97000000 		call	LCD_ShowNum
 217      E7800000 
 218              	.LVL21:
  56:main.c        ****     LCD_ShowNum(i * 55, 40, allPlants[i].sun[0].reading, 3, WHITE);
 219              		.loc 1 56 5 discriminator 3
 220 006a 930AE901 		addi	s5,s2,30
 221 006e 0547     		li	a4,1
 222 0070 A286     		mv	a3,s0
 223 0072 13060A00 		addi	a2,s4,%lo(.LC0)
 224 0076 D145     		li	a1,20
 225 0078 5685     		mv	a0,s5
 226 007a 97000000 		call	LCD_ShowStr
 226      E7800000 
 227              	.LVL22:
  57:main.c        ****     LCD_ShowStr(i * 55 + 30, 40, "%", WHITE, TRANSPARENT);
 228              		.loc 1 57 5 discriminator 3
 229 0082 03A68431 		lw	a2,792(s1)
 230 0086 2287     		mv	a4,s0
 231 0088 8D46     		li	a3,3
 232 008a 93058002 		li	a1,40
 233 008e 4A85     		mv	a0,s2
 234 0090 97000000 		call	LCD_ShowNum
 234      E7800000 
 235              	.LVL23:
  58:main.c        ****     LCD_ShowStr(i * 55, 60, allPlants[i].currentStatus, GBLUE, TRANSPARENT);
 236              		.loc 1 58 5 discriminator 3
 237 0098 0547     		li	a4,1
 238 009a A286     		mv	a3,s0
 239 009c 13060A00 		addi	a2,s4,%lo(.LC0)
 240 00a0 93058002 		li	a1,40
 241 00a4 5685     		mv	a0,s5
 242 00a6 97000000 		call	LCD_ShowStr
 242      E7800000 
 243              	.LVL24:
  59:main.c        ****   }
 244              		.loc 1 59 5 discriminator 3
 245 00ae 1386C460 		addi	a2,s1,1548
 246 00b2 0547     		li	a4,1
 247 00b4 9306F07F 		li	a3,2047
 248 00b8 9305C003 		li	a1,60
 249 00bc 4A85     		mv	a0,s2
GAS LISTING /var/folders/rt/4gvqv631095f64jvm7jfj_000000gn/T//ccu5ioPi.s 			page 7


 250 00be 97000000 		call	LCD_ShowStr
 250      E7800000 
 251              	.LVL25:
 252 00c6 93848461 		addi	s1,s1,1560
 253 00ca B1BF     		j	.L5
 254              	.LBE11:
 255              		.cfi_endproc
 256              	.LFE7:
 258              		.section	.text.renderOnePlant,"ax",@progbits
 259              		.align	1
 260              		.globl	renderOnePlant
 262              	renderOnePlant:
 263              	.LFB8:
  62:main.c        **** 
  63:main.c        **** void renderOnePlant(Plant allPlants[], int numberOfPlants, char name[])
  64:main.c        **** {
 264              		.loc 1 64 1
 265              		.cfi_startproc
 266              	.LVL26:
  65:main.c        ****   for (int i = 0; i < numberOfPlants; i++)
 267              		.loc 1 65 3
 268              	.LBB12:
 269              		.loc 1 65 8
 270              	.LBE12:
  64:main.c        ****   for (int i = 0; i < numberOfPlants; i++)
 271              		.loc 1 64 1 is_stmt 0
 272 0000 7971     		addi	sp,sp,-48
 273              	.LCFI7:
 274              		.cfi_def_cfa_offset 48
 275 0002 22D4     		sw	s0,40(sp)
 276 0004 4AD0     		sw	s2,32(sp)
 277 0006 4ECE     		sw	s3,28(sp)
 278 0008 06D6     		sw	ra,44(sp)
 279 000a 26D2     		sw	s1,36(sp)
 280              		.cfi_offset 8, -8
 281              		.cfi_offset 18, -16
 282              		.cfi_offset 19, -20
 283              		.cfi_offset 1, -4
 284              		.cfi_offset 9, -12
  64:main.c        ****   for (int i = 0; i < numberOfPlants; i++)
 285              		.loc 1 64 1
 286 000c AE89     		mv	s3,a1
 287 000e 2A84     		mv	s0,a0
 288              	.LBB13:
 289              		.loc 1 65 12
 290 0010 0149     		li	s2,0
 291              	.LVL27:
 292              	.L9:
 293              		.loc 1 65 3 discriminator 1
 294 0012 634E3901 		blt	s2,s3,.L11
 295              	.LBE13:
  66:main.c        ****   {
  67:main.c        ****     if (strcmp(allPlants[i].name, name) == 0)
  68:main.c        ****     {
  69:main.c        ****       LCD_ShowStr(0, 0, allPlants[i].name, WHITE, TRANSPARENT);
  70:main.c        ****       LCD_ShowNum(0, 20, allPlants[i].moisture[0].reading, 3, WHITE);
  71:main.c        ****       LCD_ShowStr(0 + 30, 20, "%", WHITE, TRANSPARENT);
GAS LISTING /var/folders/rt/4gvqv631095f64jvm7jfj_000000gn/T//ccu5ioPi.s 			page 8


  72:main.c        ****       LCD_ShowStr(50, 20, allPlants[i].moisture[0].timeStamp, WHITE, TRANSPARENT);
  73:main.c        ****       LCD_ShowNum(0, 40, allPlants[i].sun[0].reading, 3, WHITE);
  74:main.c        ****       LCD_ShowStr(0 + 30, 40, "%", WHITE, TRANSPARENT);
  75:main.c        ****       LCD_ShowStr(50, 40, allPlants[i].sun[0].timeStamp, WHITE, TRANSPARENT);
  76:main.c        ****       LCD_ShowStr(0, 60, allPlants[i].currentStatus, GBLUE, TRANSPARENT);
  77:main.c        ****       return;
  78:main.c        ****     }
  79:main.c        ****   }
  80:main.c        ****   LCD_ShowStr(50, 4, "NO SUCH PLANT", RED, TRANSPARENT);
 296              		.loc 1 80 3 is_stmt 1
 297 0016 C166     		li	a3,65536
 298 0018 37060000 		lui	a2,%hi(.LC1)
 299              	.LVL28:
 300 001c 0547     		li	a4,1
 301 001e 93860680 		addi	a3,a3,-2048
 302 0022 13060600 		addi	a2,a2,%lo(.LC1)
 303 0026 9145     		li	a1,4
 304 0028 13052003 		li	a0,50
 305 002c F9A0     		j	.L13
 306              	.LVL29:
 307              	.L11:
 308              	.LBB14:
  67:main.c        ****     {
 309              		.loc 1 67 5
  67:main.c        ****     {
 310              		.loc 1 67 9 is_stmt 0
 311 002e B285     		mv	a1,a2
 312 0030 2285     		mv	a0,s0
 313 0032 32C6     		sw	a2,12(sp)
 314 0034 97000000 		call	strcmp
 314      E7800000 
 315              	.LVL30:
  67:main.c        ****     {
 316              		.loc 1 67 25
 317 003c A284     		mv	s1,s0
  67:main.c        ****     {
 318              		.loc 1 67 8
 319 003e 3246     		lw	a2,12(sp)
 320 0040 13048461 		addi	s0,s0,1560
 321 0044 69E5     		bne	a0,zero,.L10
 322              	.LVL31:
  69:main.c        ****       LCD_ShowNum(0, 20, allPlants[i].moisture[0].reading, 3, WHITE);
 323              		.loc 1 69 7 is_stmt 1
 324 0046 4164     		li	s0,65536
 325 0048 0547     		li	a4,1
 326 004a 9306F4FF 		addi	a3,s0,-1
 327 004e 2686     		mv	a2,s1
 328              	.LVL32:
 329 0050 8145     		li	a1,0
 330 0052 97000000 		call	LCD_ShowStr
 330      E7800000 
 331              	.LVL33:
  70:main.c        ****       LCD_ShowStr(0 + 30, 20, "%", WHITE, TRANSPARENT);
 332              		.loc 1 70 7
 333 005a 904C     		lw	a2,24(s1)
 334 005c 1307F4FF 		addi	a4,s0,-1
 335 0060 8D46     		li	a3,3
GAS LISTING /var/folders/rt/4gvqv631095f64jvm7jfj_000000gn/T//ccu5ioPi.s 			page 9


 336 0062 D145     		li	a1,20
 337 0064 0145     		li	a0,0
 338 0066 97000000 		call	LCD_ShowNum
 338      E7800000 
 339              	.LVL34:
  71:main.c        ****       LCD_ShowStr(50, 20, allPlants[i].moisture[0].timeStamp, WHITE, TRANSPARENT);
 340              		.loc 1 71 7
 341 006e 37090000 		lui	s2,%hi(.LC0)
 342              	.LVL35:
 343 0072 0547     		li	a4,1
 344 0074 9306F4FF 		addi	a3,s0,-1
 345 0078 13060900 		addi	a2,s2,%lo(.LC0)
 346 007c D145     		li	a1,20
 347 007e 7945     		li	a0,30
 348 0080 97000000 		call	LCD_ShowStr
 348      E7800000 
 349              	.LVL36:
  72:main.c        ****       LCD_ShowNum(0, 40, allPlants[i].sun[0].reading, 3, WHITE);
 350              		.loc 1 72 7
 351 0088 0547     		li	a4,1
 352 008a 9306F4FF 		addi	a3,s0,-1
 353 008e 1386C400 		addi	a2,s1,12
 354 0092 D145     		li	a1,20
 355 0094 13052003 		li	a0,50
 356 0098 97000000 		call	LCD_ShowStr
 356      E7800000 
 357              	.LVL37:
  73:main.c        ****       LCD_ShowStr(0 + 30, 40, "%", WHITE, TRANSPARENT);
 358              		.loc 1 73 7
 359 00a0 03A68431 		lw	a2,792(s1)
 360 00a4 1307F4FF 		addi	a4,s0,-1
 361 00a8 8D46     		li	a3,3
 362 00aa 93058002 		li	a1,40
 363 00ae 0145     		li	a0,0
 364 00b0 97000000 		call	LCD_ShowNum
 364      E7800000 
 365              	.LVL38:
  74:main.c        ****       LCD_ShowStr(50, 40, allPlants[i].sun[0].timeStamp, WHITE, TRANSPARENT);
 366              		.loc 1 74 7
 367 00b8 0547     		li	a4,1
 368 00ba 9306F4FF 		addi	a3,s0,-1
 369 00be 13060900 		addi	a2,s2,%lo(.LC0)
 370 00c2 93058002 		li	a1,40
 371 00c6 7945     		li	a0,30
 372 00c8 97000000 		call	LCD_ShowStr
 372      E7800000 
 373              	.LVL39:
  75:main.c        ****       LCD_ShowStr(0, 60, allPlants[i].currentStatus, GBLUE, TRANSPARENT);
 374              		.loc 1 75 7
 375 00d0 0547     		li	a4,1
 376 00d2 9306F4FF 		addi	a3,s0,-1
 377 00d6 1386C430 		addi	a2,s1,780
 378 00da 93058002 		li	a1,40
 379 00de 13052003 		li	a0,50
 380 00e2 97000000 		call	LCD_ShowStr
 380      E7800000 
 381              	.LVL40:
GAS LISTING /var/folders/rt/4gvqv631095f64jvm7jfj_000000gn/T//ccu5ioPi.s 			page 10


  76:main.c        ****       return;
 382              		.loc 1 76 7
 383 00ea 0547     		li	a4,1
 384 00ec 9306F07F 		li	a3,2047
 385 00f0 1386C460 		addi	a2,s1,1548
 386 00f4 9305C003 		li	a1,60
 387 00f8 0145     		li	a0,0
 388              	.LVL41:
 389              	.L13:
 390              	.LBE14:
  81:main.c        **** }
 391              		.loc 1 81 1 is_stmt 0
 392 00fa 2254     		lw	s0,40(sp)
 393              		.cfi_remember_state
 394              		.cfi_restore 8
 395 00fc B250     		lw	ra,44(sp)
 396              		.cfi_restore 1
 397 00fe 9254     		lw	s1,36(sp)
 398              		.cfi_restore 9
 399 0100 0259     		lw	s2,32(sp)
 400              		.cfi_restore 18
 401 0102 F249     		lw	s3,28(sp)
 402              		.cfi_restore 19
 403              	.LVL42:
 404 0104 4561     		addi	sp,sp,48
 405              	.LCFI8:
 406              		.cfi_def_cfa_offset 0
  80:main.c        **** }
 407              		.loc 1 80 3
 408 0106 17030000 		tail	LCD_ShowStr
 408      67000300 
 409              	.LVL43:
 410              	.L10:
 411              	.LCFI9:
 412              		.cfi_restore_state
 413              	.LBB15:
  65:main.c        ****   {
 414              		.loc 1 65 40 discriminator 2
 415 010e 0509     		addi	s2,s2,1
 416              	.LVL44:
 417 0110 09B7     		j	.L9
 418              	.LBE15:
 419              		.cfi_endproc
 420              	.LFE8:
 422              		.section	.text.fetchReading,"ax",@progbits
 423              		.align	1
 424              		.globl	fetchReading
 426              	fetchReading:
 427              	.LFB9:
  82:main.c        **** 
  83:main.c        **** int fetchReading(uint32_t source, uint32_t EOC)
  84:main.c        **** {
 428              		.loc 1 84 1 is_stmt 1
 429              		.cfi_startproc
 430              	.LVL45:
  85:main.c        ****   adc_software_trigger_enable(source, ADC_REGULAR_CHANNEL);
 431              		.loc 1 85 3
GAS LISTING /var/folders/rt/4gvqv631095f64jvm7jfj_000000gn/T//ccu5ioPi.s 			page 11


  84:main.c        ****   adc_software_trigger_enable(source, ADC_REGULAR_CHANNEL);
 432              		.loc 1 84 1 is_stmt 0
 433 0000 0111     		addi	sp,sp,-32
 434              	.LCFI10:
 435              		.cfi_def_cfa_offset 32
 436 0002 26CA     		sw	s1,20(sp)
 437              		.cfi_offset 9, -12
 438 0004 AE84     		mv	s1,a1
 439              		.loc 1 85 3
 440 0006 8545     		li	a1,1
 441              	.LVL46:
  84:main.c        ****   adc_software_trigger_enable(source, ADC_REGULAR_CHANNEL);
 442              		.loc 1 84 1
 443 0008 22CC     		sw	s0,24(sp)
 444 000a 4AC8     		sw	s2,16(sp)
 445 000c 4EC6     		sw	s3,12(sp)
 446 000e 06CE     		sw	ra,28(sp)
 447              		.cfi_offset 8, -8
 448              		.cfi_offset 18, -16
 449              		.cfi_offset 19, -20
 450              		.cfi_offset 1, -4
  84:main.c        ****   adc_software_trigger_enable(source, ADC_REGULAR_CHANNEL);
 451              		.loc 1 84 1
 452 0010 2A84     		mv	s0,a0
  86:main.c        ****   int called = 0;
 453              		.loc 1 86 7
 454 0012 0149     		li	s2,0
  85:main.c        ****   adc_software_trigger_enable(source, ADC_REGULAR_CHANNEL);
 455              		.loc 1 85 3
 456 0014 97000000 		call	adc_software_trigger_enable
 456      E7800000 
 457              	.LVL47:
 458              		.loc 1 86 3 is_stmt 1
  87:main.c        ****   while (!adc_flag_get(source, EOC))
 459              		.loc 1 87 3
  88:main.c        ****   { // blocking
  89:main.c        ****     if (!called)
  90:main.c        ****     {
  91:main.c        ****       LCD_ShowStr(50, 4, "reads sensor", GREEN, TRANSPARENT);
 460              		.loc 1 91 7 is_stmt 0
 461 001c B7090000 		lui	s3,%hi(.LC2)
 462              	.LVL48:
 463              	.L16:
  87:main.c        ****   while (!adc_flag_get(source, EOC))
 464              		.loc 1 87 11
 465 0020 A685     		mv	a1,s1
 466 0022 2285     		mv	a0,s0
 467 0024 97000000 		call	adc_flag_get
 467      E7800000 
 468              	.LVL49:
  87:main.c        ****   while (!adc_flag_get(source, EOC))
 469              		.loc 1 87 9
 470 002c 0DC5     		beq	a0,zero,.L17
  92:main.c        ****       called = 1;
  93:main.c        ****     }
  94:main.c        ****   }
  95:main.c        ****   int reading = adc_regular_data_read(source);
GAS LISTING /var/folders/rt/4gvqv631095f64jvm7jfj_000000gn/T//ccu5ioPi.s 			page 12


 471              		.loc 1 95 3 is_stmt 1
 472              		.loc 1 95 17 is_stmt 0
 473 002e 2285     		mv	a0,s0
 474 0030 97000000 		call	adc_regular_data_read
 474      E7800000 
 475              	.LVL50:
 476 0038 2A89     		mv	s2,a0
 477              	.LVL51:
  96:main.c        ****   adc_flag_clear(source, EOC);
 478              		.loc 1 96 3 is_stmt 1
 479 003a A685     		mv	a1,s1
 480 003c 2285     		mv	a0,s0
 481 003e 97000000 		call	adc_flag_clear
 481      E7800000 
 482              	.LVL52:
  97:main.c        ****   return reading;
 483              		.loc 1 97 3
  98:main.c        **** }
 484              		.loc 1 98 1 is_stmt 0
 485 0046 F240     		lw	ra,28(sp)
 486              		.cfi_remember_state
 487              		.cfi_restore 1
 488 0048 6244     		lw	s0,24(sp)
 489              		.cfi_restore 8
 490              	.LVL53:
 491 004a 4A85     		mv	a0,s2
 492 004c D244     		lw	s1,20(sp)
 493              		.cfi_restore 9
 494              	.LVL54:
 495 004e 4249     		lw	s2,16(sp)
 496              		.cfi_restore 18
 497              	.LVL55:
 498 0050 B249     		lw	s3,12(sp)
 499              		.cfi_restore 19
 500 0052 0561     		addi	sp,sp,32
 501              	.LCFI11:
 502              		.cfi_def_cfa_offset 0
 503 0054 8280     		jr	ra
 504              	.LVL56:
 505              	.L17:
 506              	.LCFI12:
 507              		.cfi_restore_state
  89:main.c        ****     {
 508              		.loc 1 89 5 is_stmt 1
  89:main.c        ****     {
 509              		.loc 1 89 8 is_stmt 0
 510 0056 E31509FC 		bne	s2,zero,.L16
  91:main.c        ****       called = 1;
 511              		.loc 1 91 7 is_stmt 1
 512 005a 0547     		li	a4,1
 513 005c 9306007E 		li	a3,2016
 514 0060 13860900 		addi	a2,s3,%lo(.LC2)
 515 0064 9145     		li	a1,4
 516 0066 13052003 		li	a0,50
 517 006a 97000000 		call	LCD_ShowStr
 517      E7800000 
 518              	.LVL57:
GAS LISTING /var/folders/rt/4gvqv631095f64jvm7jfj_000000gn/T//ccu5ioPi.s 			page 13


  92:main.c        ****     }
 519              		.loc 1 92 7
  92:main.c        ****     }
 520              		.loc 1 92 14 is_stmt 0
 521 0072 0549     		li	s2,1
 522 0074 75B7     		j	.L16
 523              		.cfi_endproc
 524              	.LFE9:
 526              		.section	.text.updatePlantReading,"ax",@progbits
 527              		.align	1
 528              		.globl	updatePlantReading
 530              	updatePlantReading:
 531              	.LFB10:
  99:main.c        **** 
 100:main.c        **** void updatePlantReading(Plant allPlants[], int numberOfPlants, char name[], SensorType type)
 101:main.c        **** {
 532              		.loc 1 101 1 is_stmt 1
 533              		.cfi_startproc
 534              	.LVL58:
 102:main.c        ****   for (int i = 0; i < numberOfPlants; i++)
 535              		.loc 1 102 3
 536              	.LBB16:
 537              		.loc 1 102 8
 538              	.LBE16:
 101:main.c        ****   for (int i = 0; i < numberOfPlants; i++)
 539              		.loc 1 101 1 is_stmt 0
 540 0000 3971     		addi	sp,sp,-64
 541              	.LCFI13:
 542              		.cfi_def_cfa_offset 64
 543 0002 22DC     		sw	s0,56(sp)
 544 0004 26DA     		sw	s1,52(sp)
 545 0006 4AD8     		sw	s2,48(sp)
 546 0008 4ED6     		sw	s3,44(sp)
 547 000a 06DE     		sw	ra,60(sp)
 548              		.cfi_offset 8, -8
 549              		.cfi_offset 9, -12
 550              		.cfi_offset 18, -16
 551              		.cfi_offset 19, -20
 552              		.cfi_offset 1, -4
 101:main.c        ****   for (int i = 0; i < numberOfPlants; i++)
 553              		.loc 1 101 1
 554 000c 2E89     		mv	s2,a1
 555 000e AA84     		mv	s1,a0
 556              	.LBB18:
 557              		.loc 1 102 12
 558 0010 0144     		li	s0,0
 103:main.c        ****   {
 104:main.c        ****     if (strcmp(allPlants[i].name, name) == 0)
 105:main.c        ****     {
 106:main.c        ****       if (type == SUN)
 559              		.loc 1 106 10
 560 0012 8549     		li	s3,1
 561              	.LVL59:
 562              	.L21:
 102:main.c        ****   {
 563              		.loc 1 102 3 discriminator 1
 564 0014 63422403 		blt	s0,s2,.L25
GAS LISTING /var/folders/rt/4gvqv631095f64jvm7jfj_000000gn/T//ccu5ioPi.s 			page 14


 565              	.LBE18:
 107:main.c        ****       {
 108:main.c        ****         int tempValue = 300 - fetchReading(ADC0, ADC_FLAG_EOC); // 300 ger hyfsat välkalibrerat lj
 109:main.c        ****         if (tempValue < 0) tempValue = 0; // guard för inkommande värde över 300
 110:main.c        ****         uint32_t currentTime = rtc_counter_get();
 111:main.c        ****         int hours = currentTime / 3600;
 112:main.c        ****         int min = (currentTime % 3600) / 60;
 113:main.c        ****         int sec = currentTime % 60;
 114:main.c        ****         char placeholder[12];
 115:main.c        ****         snprintf(placeholder, sizeof(placeholder), "%02dH:%02dM:%02dS", hours, min, sec);
 116:main.c        **** 
 117:main.c        ****         // I framtiden måste alla befintliga värden flyttas fram innan läggs på i [0], så att 
 118:main.c        ****         allPlants[i].sun[0].reading = tempValue / 3; // i procent.
 119:main.c        ****         STR_COPY(allPlants[i].sun[0].timeStamp, placeholder);
 120:main.c        ****         return;
 121:main.c        ****       }
 122:main.c        ****     }
 123:main.c        ****   }
 124:main.c        ****   LCD_ShowStr(50, 4, "NO SUCH PLANT", RED, TRANSPARENT);
 566              		.loc 1 124 3 is_stmt 1
 567 0018 C166     		li	a3,65536
 568              	.LVL60:
 569 001a 37060000 		lui	a2,%hi(.LC1)
 570              	.LVL61:
 571 001e 0547     		li	a4,1
 572 0020 93860680 		addi	a3,a3,-2048
 573 0024 13060600 		addi	a2,a2,%lo(.LC1)
 574 0028 9145     		li	a1,4
 575 002a 13052003 		li	a0,50
 576 002e 97000000 		call	LCD_ShowStr
 576      E7800000 
 577              	.LVL62:
 578 0036 51A8     		j	.L20
 579              	.LVL63:
 580              	.L25:
 581              	.LBB19:
 104:main.c        ****     {
 582              		.loc 1 104 9 is_stmt 0
 583 0038 B285     		mv	a1,a2
 584 003a 2685     		mv	a0,s1
 585 003c 36C6     		sw	a3,12(sp)
 104:main.c        ****     {
 586              		.loc 1 104 5 is_stmt 1
 104:main.c        ****     {
 587              		.loc 1 104 9 is_stmt 0
 588 003e 32C4     		sw	a2,8(sp)
 589 0040 97000000 		call	strcmp
 589      E7800000 
 590              	.LVL64:
 104:main.c        ****     {
 591              		.loc 1 104 8
 592 0048 2246     		lw	a2,8(sp)
 593 004a B246     		lw	a3,12(sp)
 594 004c 51E5     		bne	a0,zero,.L22
 595              	.LVL65:
 106:main.c        ****       {
 596              		.loc 1 106 7 is_stmt 1
GAS LISTING /var/folders/rt/4gvqv631095f64jvm7jfj_000000gn/T//ccu5ioPi.s 			page 15


 106:main.c        ****       {
 597              		.loc 1 106 10 is_stmt 0
 598 004e 63953609 		bne	a3,s3,.L22
 599              	.LBB17:
 108:main.c        ****         if (tempValue < 0) tempValue = 0; // guard för inkommande värde över 300
 600              		.loc 1 108 9 is_stmt 1
 108:main.c        ****         if (tempValue < 0) tempValue = 0; // guard för inkommande värde över 300
 601              		.loc 1 108 31 is_stmt 0
 602 0052 37250140 		li	a0,1073815552
 603 0056 8945     		li	a1,2
 604 0058 13050540 		addi	a0,a0,1024
 605 005c 97000000 		call	fetchReading
 605      E7800000 
 606              	.LVL66:
 108:main.c        ****         if (tempValue < 0) tempValue = 0; // guard för inkommande värde över 300
 607              		.loc 1 108 13
 608 0064 1304C012 		li	s0,300
 609              	.LVL67:
 610 0068 098C     		sub	s0,s0,a0
 611              	.LVL68:
 109:main.c        ****         uint32_t currentTime = rtc_counter_get();
 612              		.loc 1 109 9 is_stmt 1
 110:main.c        ****         int hours = currentTime / 3600;
 613              		.loc 1 110 9
 110:main.c        ****         int hours = currentTime / 3600;
 614              		.loc 1 110 32 is_stmt 0
 615 006a 97000000 		call	rtc_counter_get
 615      E7800000 
 616              	.LVL69:
 111:main.c        ****         int min = (currentTime % 3600) / 60;
 617              		.loc 1 111 9 is_stmt 1
 112:main.c        ****         int sec = currentTime % 60;
 618              		.loc 1 112 9
 113:main.c        ****         char placeholder[12];
 619              		.loc 1 113 9
 114:main.c        ****         snprintf(placeholder, sizeof(placeholder), "%02dH:%02dM:%02dS", hours, min, sec);
 620              		.loc 1 114 9
 115:main.c        **** 
 621              		.loc 1 115 9
 112:main.c        ****         int sec = currentTime % 60;
 622              		.loc 1 112 32 is_stmt 0
 623 0072 8566     		li	a3,4096
 624 0074 938606E1 		addi	a3,a3,-496
 625 0078 3376D502 		remu	a2,a0,a3
 113:main.c        ****         char placeholder[12];
 626              		.loc 1 113 31
 627 007c 1307C003 		li	a4,60
 115:main.c        **** 
 628              		.loc 1 115 9
 629 0080 B145     		li	a1,12
 630 0082 B377E502 		remu	a5,a0,a4
 631              	.LVL70:
 632 0086 B356D502 		divu	a3,a0,a3
 633 008a 4808     		addi	a0,sp,20
 634              	.LVL71:
 635 008c 3357E602 		divu	a4,a2,a4
 636 0090 37060000 		lui	a2,%hi(.LC3)
GAS LISTING /var/folders/rt/4gvqv631095f64jvm7jfj_000000gn/T//ccu5ioPi.s 			page 16


 637 0094 13060600 		addi	a2,a2,%lo(.LC3)
 638 0098 97000000 		call	snprintf
 638      E7800000 
 639              	.LVL72:
 118:main.c        ****         STR_COPY(allPlants[i].sun[0].timeStamp, placeholder);
 640              		.loc 1 118 9 is_stmt 1
 118:main.c        ****         STR_COPY(allPlants[i].sun[0].timeStamp, placeholder);
 641              		.loc 1 118 49 is_stmt 0
 642 00a0 2285     		mv	a0,s0
 643 00a2 63530400 		bge	s0,zero,.L23
 644 00a6 0145     		li	a0,0
 645              	.L23:
 646 00a8 8D47     		li	a5,3
 647 00aa 3345F502 		div	a0,a0,a5
 119:main.c        ****         return;
 648              		.loc 1 119 9
 649 00ae 37060000 		lui	a2,%hi(.LC4)
 650 00b2 5408     		addi	a3,sp,20
 651 00b4 13060600 		addi	a2,a2,%lo(.LC4)
 652 00b8 B145     		li	a1,12
 118:main.c        ****         STR_COPY(allPlants[i].sun[0].timeStamp, placeholder);
 653              		.loc 1 118 37
 654 00ba 23ACA430 		sw	a0,792(s1)
 119:main.c        ****         return;
 655              		.loc 1 119 9 is_stmt 1
 656 00be 1385C430 		addi	a0,s1,780
 657 00c2 97000000 		call	snprintf
 657      E7800000 
 658              	.LVL73:
 120:main.c        ****       }
 659              		.loc 1 120 9
 660              	.L20:
 661              	.LBE17:
 662              	.LBE19:
 125:main.c        **** }
 663              		.loc 1 125 1 is_stmt 0
 664 00ca F250     		lw	ra,60(sp)
 665              		.cfi_remember_state
 666              		.cfi_restore 1
 667 00cc 6254     		lw	s0,56(sp)
 668              		.cfi_restore 8
 669 00ce D254     		lw	s1,52(sp)
 670              		.cfi_restore 9
 671 00d0 4259     		lw	s2,48(sp)
 672              		.cfi_restore 18
 673              	.LVL74:
 674 00d2 B259     		lw	s3,44(sp)
 675              		.cfi_restore 19
 676 00d4 2161     		addi	sp,sp,64
 677              	.LCFI14:
 678              		.cfi_def_cfa_offset 0
 679 00d6 8280     		jr	ra
 680              	.LVL75:
 681              	.L22:
 682              	.LCFI15:
 683              		.cfi_restore_state
 684              	.LBB20:
GAS LISTING /var/folders/rt/4gvqv631095f64jvm7jfj_000000gn/T//ccu5ioPi.s 			page 17


 102:main.c        ****   {
 685              		.loc 1 102 40 discriminator 2
 686 00d8 0504     		addi	s0,s0,1
 687              	.LVL76:
 688 00da 93848461 		addi	s1,s1,1560
 689 00de 1DBF     		j	.L21
 690              	.LBE20:
 691              		.cfi_endproc
 692              	.LFE10:
 694              		.section	.text.startup.main,"ax",@progbits
 695              		.align	1
 696              		.globl	main
 698              	main:
 699              	.LFB11:
 126:main.c        **** 
 127:main.c        **** int main(void)
 128:main.c        **** {
 700              		.loc 1 128 1 is_stmt 1
 701              		.cfi_startproc
 129:main.c        ****   int ms = 0, s = 0, idle = 0;
 702              		.loc 1 129 3
 703              	.LVL77:
 130:main.c        ****   // int lookUpTbl[16] = {1, 4, 7, 14, 2, 5, 8, 0, 3, 6, 9, 15, 10, 11, 12, 13};
 131:main.c        **** 
 132:main.c        ****   t5omsi();  // Initialize timer5 1kHz
 704              		.loc 1 132 3
 128:main.c        ****   int ms = 0, s = 0, idle = 0;
 705              		.loc 1 128 1 is_stmt 0
 706 0000 7D73     		li	t1,-4096
 707 0002 130101D9 		addi	sp,sp,-624
 708              	.LCFI16:
 709              		.cfi_def_cfa_offset 624
 710 0006 23261126 		sw	ra,620(sp)
 711 000a 23248126 		sw	s0,616(sp)
 712 000e 23229126 		sw	s1,612(sp)
 713 0012 23202127 		sw	s2,608(sp)
 714 0016 232E3125 		sw	s3,604(sp)
 715 001a 232C4125 		sw	s4,600(sp)
 716 001e 232A5125 		sw	s5,596(sp)
 717 0022 1A91     		add	sp,sp,t1
 718              	.LCFI17:
 719              		.cfi_def_cfa_offset 4720
 720              		.cfi_offset 1, -4
 721              		.cfi_offset 8, -8
 722              		.cfi_offset 9, -12
 723              		.cfi_offset 18, -16
 724              		.cfi_offset 19, -20
 725              		.cfi_offset 20, -24
 726              		.cfi_offset 21, -28
 727              		.loc 1 132 3
 728 0024 97000000 		call	t5omsi
 728      E7800000 
 729              	.LVL78:
 133:main.c        ****   colinit(); // Initialize column toolbox
 730              		.loc 1 133 3 is_stmt 1
 731 002c 97000000 		call	colinit
 731      E7800000 
GAS LISTING /var/folders/rt/4gvqv631095f64jvm7jfj_000000gn/T//ccu5ioPi.s 			page 18


 732              	.LVL79:
 134:main.c        ****   l88init(); // Initialize 8*8 led toolbox
 733              		.loc 1 134 3
 734 0034 97000000 		call	l88init
 734      E7800000 
 735              	.LVL80:
 135:main.c        ****   // keyinit();          // Initialize keyboard toolbox
 136:main.c        ****   rtcInit(); // Initialize RTC
 736              		.loc 1 136 3
 737 003c 97000000 		call	rtcInit
 737      E7800000 
 738              	.LVL81:
 137:main.c        ****   rtc_counter_set(0);
 739              		.loc 1 137 3
 740 0044 0145     		li	a0,0
 741 0046 97000000 		call	rtc_counter_set
 741      E7800000 
 742              	.LVL82:
 138:main.c        ****   // eclic_global_interrupt_enable();
 139:main.c        ****   ADC3powerUpInit(0); // Initialize ADC0, Ch3
 743              		.loc 1 139 3
 744 004e 0145     		li	a0,0
 745 0050 97000000 		call	ADC3powerUpInit
 745      E7800000 
 746              	.LVL83:
 140:main.c        **** 
 141:main.c        ****   Lcd_SetType(LCD_INVERTED);
 747              		.loc 1 141 3
 748 0058 0545     		li	a0,1
 749 005a 97000000 		call	Lcd_SetType
 749      E7800000 
 750              	.LVL84:
 142:main.c        ****   Lcd_Init();
 751              		.loc 1 142 3
 752 0062 97000000 		call	Lcd_Init
 752      E7800000 
 753              	.LVL85:
 143:main.c        ****   LCD_Clear(BLACK);
 754              		.loc 1 143 3
 755 006a 0145     		li	a0,0
 756 006c 97000000 		call	LCD_Clear
 756      E7800000 
 757              	.LVL86:
 144:main.c        **** 
 145:main.c        ****   Plant allPlants[3];
 758              		.loc 1 145 3
 146:main.c        ****   int numberOfPlants = 0;
 759              		.loc 1 146 3
 760              		.loc 1 146 7 is_stmt 0
 761 0074 8567     		li	a5,4096
 762 0076 13870725 		addi	a4,a5,592
 763 007a FD74     		li	s1,-4096
 764 007c 0A97     		add	a4,a4,sp
 765 007e B3099700 		add	s3,a4,s1
 147:main.c        ****   initPlant("Gurka", &numberOfPlants, allPlants);
 766              		.loc 1 147 3
 767 0082 13870725 		addi	a4,a5,592
GAS LISTING /var/folders/rt/4gvqv631095f64jvm7jfj_000000gn/T//ccu5ioPi.s 			page 19


 768 0086 0A97     		add	a4,a4,sp
 769 0088 138484DB 		addi	s0,s1,-584
 770 008c 938444DB 		addi	s1,s1,-588
 771 0090 BA94     		add	s1,a4,s1
 772 0092 3A94     		add	s0,a4,s0
 773 0094 37050000 		lui	a0,%hi(.LC5)
 774 0098 A685     		mv	a1,s1
 775 009a 2286     		mv	a2,s0
 776 009c 13050500 		addi	a0,a0,%lo(.LC5)
 148:main.c        ****   initPlant("Tomat", &numberOfPlants, allPlants);
 777              		.loc 1 148 3
 778 00a0 37090000 		lui	s2,%hi(.LC6)
 146:main.c        ****   int numberOfPlants = 0;
 779              		.loc 1 146 7
 780 00a4 23AA09DA 		sw	zero,-588(s3)
 147:main.c        ****   initPlant("Gurka", &numberOfPlants, allPlants);
 781              		.loc 1 147 3 is_stmt 1
 782 00a8 97000000 		call	initPlant
 782      E7800000 
 783              	.LVL87:
 784              		.loc 1 148 3
 785 00b0 A685     		mv	a1,s1
 786 00b2 13050900 		addi	a0,s2,%lo(.LC6)
 787 00b6 2286     		mv	a2,s0
 788 00b8 97000000 		call	initPlant
 788      E7800000 
 789              	.LVL88:
 149:main.c        ****   initPlant("Chili", &numberOfPlants, allPlants);
 790              		.loc 1 149 3
 791 00c0 37050000 		lui	a0,%hi(.LC7)
 792 00c4 A685     		mv	a1,s1
 793 00c6 2286     		mv	a2,s0
 794 00c8 13050500 		addi	a0,a0,%lo(.LC7)
 795 00cc CA84     		mv	s1,s2
 796 00ce 97000000 		call	initPlant
 796      E7800000 
 797              	.LVL89:
 129:main.c        ****   // int lookUpTbl[16] = {1, 4, 7, 14, 2, 5, 8, 0, 3, 6, 9, 15, 10, 11, 12, 13};
 798              		.loc 1 129 7 is_stmt 0
 799 00d6 014A     		li	s4,0
 150:main.c        **** 
 151:main.c        ****   while (1)
 152:main.c        ****   {
 153:main.c        ****     idle++; // Manage Async events
 154:main.c        **** 
 155:main.c        ****     if (t5expq())
 156:main.c        ****     {                   // Manage periodic tasks
 157:main.c        ****       l88row(colset()); // ...8*8LED and Keyboard
 158:main.c        ****       ms++;             // ...One second heart beat
 159:main.c        ****       if (ms == 1000)
 800              		.loc 1 159 10
 801 00d8 930A803E 		li	s5,1000
 160:main.c        ****       {
 161:main.c        ****         LCD_Clear(BLACK);
 162:main.c        ****         updatePlantReading(allPlants, numberOfPlants, "Tomat", SUN);
 802              		.loc 1 162 9
 803 00dc 4E89     		mv	s2,s3
GAS LISTING /var/folders/rt/4gvqv631095f64jvm7jfj_000000gn/T//ccu5ioPi.s 			page 20


 804              	.LVL90:
 805              	.L30:
 129:main.c        ****   // int lookUpTbl[16] = {1, 4, 7, 14, 2, 5, 8, 0, 3, 6, 9, 15, 10, 11, 12, 13};
 806              		.loc 1 129 7
 807 00de 8149     		li	s3,0
 808              	.LVL91:
 809              	.L28:
 151:main.c        ****   {
 810              		.loc 1 151 3 is_stmt 1
 153:main.c        **** 
 811              		.loc 1 153 5
 153:main.c        **** 
 812              		.loc 1 153 9 is_stmt 0
 813 00e0 8509     		addi	s3,s3,1
 814              	.LVL92:
 155:main.c        ****     {                   // Manage periodic tasks
 815              		.loc 1 155 5 is_stmt 1
 155:main.c        ****     {                   // Manage periodic tasks
 816              		.loc 1 155 9 is_stmt 0
 817 00e2 97000000 		call	t5expq
 817      E7800000 
 818              	.LVL93:
 155:main.c        ****     {                   // Manage periodic tasks
 819              		.loc 1 155 8
 820 00ea 7DD9     		beq	a0,zero,.L28
 157:main.c        ****       ms++;             // ...One second heart beat
 821              		.loc 1 157 7 is_stmt 1
 822 00ec 97000000 		call	colset
 822      E7800000 
 823              	.LVL94:
 158:main.c        ****       if (ms == 1000)
 824              		.loc 1 158 9 is_stmt 0
 825 00f4 050A     		addi	s4,s4,1
 826              	.LVL95:
 157:main.c        ****       ms++;             // ...One second heart beat
 827              		.loc 1 157 7
 828 00f6 97000000 		call	l88row
 828      E7800000 
 829              	.LVL96:
 158:main.c        ****       if (ms == 1000)
 830              		.loc 1 158 7 is_stmt 1
 159:main.c        ****       {
 831              		.loc 1 159 7
 159:main.c        ****       {
 832              		.loc 1 159 10 is_stmt 0
 833 00fe 631B5A03 		bne	s4,s5,.L29
 161:main.c        ****         updatePlantReading(allPlants, numberOfPlants, "Tomat", SUN);
 834              		.loc 1 161 9 is_stmt 1
 835 0102 0145     		li	a0,0
 836 0104 97000000 		call	LCD_Clear
 836      E7800000 
 837              	.LVL97:
 838              		.loc 1 162 9
 839 010c 832549DB 		lw	a1,-588(s2)
 840 0110 8546     		li	a3,1
 841 0112 13860400 		addi	a2,s1,%lo(.LC6)
 842 0116 2285     		mv	a0,s0
GAS LISTING /var/folders/rt/4gvqv631095f64jvm7jfj_000000gn/T//ccu5ioPi.s 			page 21


 843 0118 97000000 		call	updatePlantReading
 843      E7800000 
 844              	.LVL98:
 163:main.c        ****         //renderAllPlants(allPlants, numberOfPlants);
 164:main.c        ****         renderOnePlant(allPlants, numberOfPlants, "Tomat");
 845              		.loc 1 164 9
 846 0120 832549DB 		lw	a1,-588(s2)
 847 0124 13860400 		addi	a2,s1,%lo(.LC6)
 848 0128 2285     		mv	a0,s0
 849 012a 97000000 		call	renderOnePlant
 849      E7800000 
 850              	.LVL99:
 165:main.c        ****         //LCD_ShowNum(55, 40, rtc_counter_get(), 4, WHITE);
 166:main.c        **** 
 167:main.c        ****         ms = 0;
 851              		.loc 1 167 9
 852              		.loc 1 167 12 is_stmt 0
 853 0132 014A     		li	s4,0
 854              	.LVL100:
 855              	.L29:
 168:main.c        ****       }
 169:main.c        ****       l88mem(0, idle >> 8); // ...Performance monitor
 856              		.loc 1 169 7 is_stmt 1
 857 0134 93D58940 		srai	a1,s3,8
 858 0138 0145     		li	a0,0
 859 013a 97000000 		call	l88mem
 859      E7800000 
 860              	.LVL101:
 170:main.c        ****       l88mem(1, idle);
 861              		.loc 1 170 7
 862 0142 CE85     		mv	a1,s3
 863 0144 0545     		li	a0,1
 864 0146 97000000 		call	l88mem
 864      E7800000 
 865              	.LVL102:
 171:main.c        ****       idle = 0;
 866              		.loc 1 171 7
 867 014e 41BF     		j	.L30
 868              		.cfi_endproc
 869              	.LFE11:
 871              		.section	.rodata.fetchReading.str1.4,"aMS",@progbits,1
 872              		.align	2
 873              	.LC2:
 874 0000 72656164 		.string	"reads sensor"
 874      73207365 
 874      6E736F72 
 874      00
 875              		.section	.rodata.main.str1.4,"aMS",@progbits,1
 876              		.align	2
 877              	.LC5:
 878 0000 4775726B 		.string	"Gurka"
 878      6100
 879 0006 0000     		.zero	2
 880              	.LC6:
 881 0008 546F6D61 		.string	"Tomat"
 881      7400
 882 000e 0000     		.zero	2
GAS LISTING /var/folders/rt/4gvqv631095f64jvm7jfj_000000gn/T//ccu5ioPi.s 			page 22


 883              	.LC7:
 884 0010 4368696C 		.string	"Chili"
 884      6900
 885              		.section	.rodata.renderAllPlants.str1.4,"aMS",@progbits,1
 886              		.align	2
 887              	.LC0:
 888 0000 2500     		.string	"%"
 889              		.section	.rodata.renderOnePlant.str1.4,"aMS",@progbits,1
 890              		.align	2
 891              	.LC1:
 892 0000 4E4F2053 		.string	"NO SUCH PLANT"
 892      55434820 
 892      504C414E 
 892      5400
 893              		.section	.rodata.updatePlantReading.str1.4,"aMS",@progbits,1
 894              		.align	2
 895              	.LC3:
 896 0000 25303264 		.string	"%02dH:%02dM:%02dS"
 896      483A2530 
 896      32644D3A 
 896      25303264 
 896      5300
 897 0012 0000     		.zero	2
 898              	.LC4:
 899 0014 257300   		.string	"%s"
 900              		.text
 901              	.Letext0:
 902              		.file 2 "/Users/alexstrae/toolchain-gd32v-v202-osx/compiler/riscv64-unknown-elf/include/machine/_d
 903              		.file 3 "/Users/alexstrae/toolchain-gd32v-v202-osx/compiler/riscv64-unknown-elf/include/sys/_stdin
 904              		.file 4 "../../firmware/GD32VF103_standard_peripheral/Include/gd32vf103_rcu.h"
 905              		.file 5 "/Users/alexstrae/toolchain-gd32v-v202-osx/compiler/lib/gcc/riscv64-unknown-elf/8.3.0/incl
 906              		.file 6 "/Users/alexstrae/toolchain-gd32v-v202-osx/compiler/riscv64-unknown-elf/include/sys/_types
 907              		.file 7 "/Users/alexstrae/toolchain-gd32v-v202-osx/compiler/riscv64-unknown-elf/include/sys/reent.
 908              		.file 8 "/Users/alexstrae/toolchain-gd32v-v202-osx/compiler/riscv64-unknown-elf/include/sys/lock.h
 909              		.file 9 "../../firmware/GD32VF103_standard_peripheral/system_gd32vf103.h"
 910              		.file 10 "/Users/alexstrae/toolchain-gd32v-v202-osx/compiler/riscv64-unknown-elf/include/stdlib.h"
 911              		.file 11 "lcd.h"
 912              		.file 12 "plant.h"
 913              		.file 13 "drivers.h"
 914              		.file 14 "../../firmware/GD32VF103_standard_peripheral/Include/gd32vf103_rtc.h"
 915              		.file 15 "adc.h"
 916              		.file 16 "/Users/alexstrae/toolchain-gd32v-v202-osx/compiler/riscv64-unknown-elf/include/stdio.h"
 917              		.file 17 "/Users/alexstrae/toolchain-gd32v-v202-osx/compiler/riscv64-unknown-elf/include/string.h"
 918              		.file 18 "../../firmware/GD32VF103_standard_peripheral/Include/gd32vf103_adc.h"
 919              		.file 19 "../../firmware/GD32VF103_standard_peripheral/Include/gd32vf103_pmu.h"
 920              		.file 20 "../../firmware/GD32VF103_standard_peripheral/Include/gd32vf103_bkp.h"
GAS LISTING /var/folders/rt/4gvqv631095f64jvm7jfj_000000gn/T//ccu5ioPi.s 			page 23


DEFINED SYMBOLS
                            *ABS*:0000000000000000 main.c
/var/folders/rt/4gvqv631095f64jvm7jfj_000000gn/T//ccu5ioPi.s:13     .text.rtcInit:0000000000000000 rtcInit
/var/folders/rt/4gvqv631095f64jvm7jfj_000000gn/T//ccu5ioPi.s:17     .text.rtcInit:0000000000000000 .L0 
/var/folders/rt/4gvqv631095f64jvm7jfj_000000gn/T//ccu5ioPi.s:18     .text.rtcInit:0000000000000000 .L0 
/var/folders/rt/4gvqv631095f64jvm7jfj_000000gn/T//ccu5ioPi.s:19     .text.rtcInit:0000000000000000 .L0 
/var/folders/rt/4gvqv631095f64jvm7jfj_000000gn/T//ccu5ioPi.s:20     .text.rtcInit:0000000000000000 .L0 
/var/folders/rt/4gvqv631095f64jvm7jfj_000000gn/T//ccu5ioPi.s:22     .text.rtcInit:0000000000000002 .L0 
/var/folders/rt/4gvqv631095f64jvm7jfj_000000gn/T//ccu5ioPi.s:24     .text.rtcInit:0000000000000002 .L0 
/var/folders/rt/4gvqv631095f64jvm7jfj_000000gn/T//ccu5ioPi.s:26     .text.rtcInit:0000000000000006 .L0 
/var/folders/rt/4gvqv631095f64jvm7jfj_000000gn/T//ccu5ioPi.s:27     .text.rtcInit:0000000000000008 .L0 
/var/folders/rt/4gvqv631095f64jvm7jfj_000000gn/T//ccu5ioPi.s:29     .text.rtcInit:0000000000000008 .L0 
/var/folders/rt/4gvqv631095f64jvm7jfj_000000gn/T//ccu5ioPi.s:32     .text.rtcInit:0000000000000010 .L0 
/var/folders/rt/4gvqv631095f64jvm7jfj_000000gn/T//ccu5ioPi.s:35     .text.rtcInit:0000000000000018 .L0 
/var/folders/rt/4gvqv631095f64jvm7jfj_000000gn/T//ccu5ioPi.s:39     .text.rtcInit:0000000000000024 .L0 
/var/folders/rt/4gvqv631095f64jvm7jfj_000000gn/T//ccu5ioPi.s:42     .text.rtcInit:000000000000002c .L0 
/var/folders/rt/4gvqv631095f64jvm7jfj_000000gn/T//ccu5ioPi.s:46     .text.rtcInit:0000000000000036 .L0 
/var/folders/rt/4gvqv631095f64jvm7jfj_000000gn/T//ccu5ioPi.s:47     .text.rtcInit:0000000000000036 .L0 
/var/folders/rt/4gvqv631095f64jvm7jfj_000000gn/T//ccu5ioPi.s:51     .text.rtcInit:0000000000000040 .L0 
/var/folders/rt/4gvqv631095f64jvm7jfj_000000gn/T//ccu5ioPi.s:55     .text.rtcInit:0000000000000042 .L0 
/var/folders/rt/4gvqv631095f64jvm7jfj_000000gn/T//ccu5ioPi.s:59     .text.rtcInit:000000000000004e .L0 
/var/folders/rt/4gvqv631095f64jvm7jfj_000000gn/T//ccu5ioPi.s:64     .text.rtcInit:000000000000005c .L0 
/var/folders/rt/4gvqv631095f64jvm7jfj_000000gn/T//ccu5ioPi.s:67     .text.rtcInit:0000000000000064 .L0 
/var/folders/rt/4gvqv631095f64jvm7jfj_000000gn/T//ccu5ioPi.s:70     .text.rtcInit:000000000000006c .L0 
/var/folders/rt/4gvqv631095f64jvm7jfj_000000gn/T//ccu5ioPi.s:75     .text.rtcInit:000000000000007a .L0 
/var/folders/rt/4gvqv631095f64jvm7jfj_000000gn/T//ccu5ioPi.s:78     .text.rtcInit:0000000000000082 .L0 
/var/folders/rt/4gvqv631095f64jvm7jfj_000000gn/T//ccu5ioPi.s:84     .text.rtcInit:000000000000008c .L0 
/var/folders/rt/4gvqv631095f64jvm7jfj_000000gn/T//ccu5ioPi.s:85     .text.rtcInit:000000000000008c .L0 
/var/folders/rt/4gvqv631095f64jvm7jfj_000000gn/T//ccu5ioPi.s:86     .text.rtcInit:000000000000008e .L0 
/var/folders/rt/4gvqv631095f64jvm7jfj_000000gn/T//ccu5ioPi.s:87     .text.rtcInit:000000000000008e .L0 
/var/folders/rt/4gvqv631095f64jvm7jfj_000000gn/T//ccu5ioPi.s:90     .text.rtcInit:0000000000000090 .L0 
/var/folders/rt/4gvqv631095f64jvm7jfj_000000gn/T//ccu5ioPi.s:94     .text.rtcInit:0000000000000090 .L0 
/var/folders/rt/4gvqv631095f64jvm7jfj_000000gn/T//ccu5ioPi.s:98     .text.rtcInit:0000000000000098 .L0 
/var/folders/rt/4gvqv631095f64jvm7jfj_000000gn/T//ccu5ioPi.s:102    .text.rtcInit:0000000000000098 .L0 
/var/folders/rt/4gvqv631095f64jvm7jfj_000000gn/T//ccu5ioPi.s:103    .text.rtcInit:000000000000009a .L0 
/var/folders/rt/4gvqv631095f64jvm7jfj_000000gn/T//ccu5ioPi.s:106    .text.rtcInit:000000000000009c .L0 
/var/folders/rt/4gvqv631095f64jvm7jfj_000000gn/T//ccu5ioPi.s:108    .text.rtcInit:000000000000009e .L0 
/var/folders/rt/4gvqv631095f64jvm7jfj_000000gn/T//ccu5ioPi.s:115    .text.renderAllPlants:0000000000000000 renderAllPlants
/var/folders/rt/4gvqv631095f64jvm7jfj_000000gn/T//ccu5ioPi.s:118    .text.renderAllPlants:0000000000000000 .L0 
/var/folders/rt/4gvqv631095f64jvm7jfj_000000gn/T//ccu5ioPi.s:120    .text.renderAllPlants:0000000000000000 .L0 
/var/folders/rt/4gvqv631095f64jvm7jfj_000000gn/T//ccu5ioPi.s:122    .text.renderAllPlants:0000000000000000 .L0 
/var/folders/rt/4gvqv631095f64jvm7jfj_000000gn/T//ccu5ioPi.s:124    .text.renderAllPlants:0000000000000000 .L0 
/var/folders/rt/4gvqv631095f64jvm7jfj_000000gn/T//ccu5ioPi.s:125    .text.renderAllPlants:0000000000000000 .L0 
/var/folders/rt/4gvqv631095f64jvm7jfj_000000gn/T//ccu5ioPi.s:127    .text.renderAllPlants:0000000000000002 .L0 
/var/folders/rt/4gvqv631095f64jvm7jfj_000000gn/T//ccu5ioPi.s:129    .text.renderAllPlants:0000000000000004 .L0 
/var/folders/rt/4gvqv631095f64jvm7jfj_000000gn/T//ccu5ioPi.s:132    .text.renderAllPlants:0000000000000004 .L0 
/var/folders/rt/4gvqv631095f64jvm7jfj_000000gn/T//ccu5ioPi.s:135    .text.renderAllPlants:0000000000000006 .L0 
/var/folders/rt/4gvqv631095f64jvm7jfj_000000gn/T//ccu5ioPi.s:143    .text.renderAllPlants:0000000000000016 .L0 
/var/folders/rt/4gvqv631095f64jvm7jfj_000000gn/T//ccu5ioPi.s:144    .text.renderAllPlants:0000000000000016 .L0 
/var/folders/rt/4gvqv631095f64jvm7jfj_000000gn/T//ccu5ioPi.s:145    .text.renderAllPlants:0000000000000016 .L0 
/var/folders/rt/4gvqv631095f64jvm7jfj_000000gn/T//ccu5ioPi.s:146    .text.renderAllPlants:0000000000000016 .L0 
/var/folders/rt/4gvqv631095f64jvm7jfj_000000gn/T//ccu5ioPi.s:147    .text.renderAllPlants:0000000000000016 .L0 
/var/folders/rt/4gvqv631095f64jvm7jfj_000000gn/T//ccu5ioPi.s:148    .text.renderAllPlants:0000000000000016 .L0 
/var/folders/rt/4gvqv631095f64jvm7jfj_000000gn/T//ccu5ioPi.s:149    .text.renderAllPlants:0000000000000016 .L0 
/var/folders/rt/4gvqv631095f64jvm7jfj_000000gn/T//ccu5ioPi.s:150    .text.renderAllPlants:0000000000000016 .L0 
/var/folders/rt/4gvqv631095f64jvm7jfj_000000gn/T//ccu5ioPi.s:152    .text.renderAllPlants:0000000000000016 .L0 
/var/folders/rt/4gvqv631095f64jvm7jfj_000000gn/T//ccu5ioPi.s:156    .text.renderAllPlants:000000000000001a .L0 
GAS LISTING /var/folders/rt/4gvqv631095f64jvm7jfj_000000gn/T//ccu5ioPi.s 			page 24


/var/folders/rt/4gvqv631095f64jvm7jfj_000000gn/T//ccu5ioPi.s:159    .text.renderAllPlants:0000000000000020 .L0 
/var/folders/rt/4gvqv631095f64jvm7jfj_000000gn/T//ccu5ioPi.s:161    .text.renderAllPlants:0000000000000022 .L0 
/var/folders/rt/4gvqv631095f64jvm7jfj_000000gn/T//ccu5ioPi.s:165    .text.renderAllPlants:0000000000000026 .L0 
/var/folders/rt/4gvqv631095f64jvm7jfj_000000gn/T//ccu5ioPi.s:168    .text.renderAllPlants:000000000000002a .L0 
/var/folders/rt/4gvqv631095f64jvm7jfj_000000gn/T//ccu5ioPi.s:169    .text.renderAllPlants:000000000000002c .L0 
/var/folders/rt/4gvqv631095f64jvm7jfj_000000gn/T//ccu5ioPi.s:170    .text.renderAllPlants:000000000000002c .L0 
/var/folders/rt/4gvqv631095f64jvm7jfj_000000gn/T//ccu5ioPi.s:172    .text.renderAllPlants:000000000000002e .L0 
/var/folders/rt/4gvqv631095f64jvm7jfj_000000gn/T//ccu5ioPi.s:174    .text.renderAllPlants:0000000000000030 .L0 
/var/folders/rt/4gvqv631095f64jvm7jfj_000000gn/T//ccu5ioPi.s:176    .text.renderAllPlants:0000000000000032 .L0 
/var/folders/rt/4gvqv631095f64jvm7jfj_000000gn/T//ccu5ioPi.s:178    .text.renderAllPlants:0000000000000034 .L0 
/var/folders/rt/4gvqv631095f64jvm7jfj_000000gn/T//ccu5ioPi.s:181    .text.renderAllPlants:0000000000000036 .L0 
/var/folders/rt/4gvqv631095f64jvm7jfj_000000gn/T//ccu5ioPi.s:183    .text.renderAllPlants:0000000000000038 .L0 
/var/folders/rt/4gvqv631095f64jvm7jfj_000000gn/T//ccu5ioPi.s:185    .text.renderAllPlants:000000000000003a .L0 
/var/folders/rt/4gvqv631095f64jvm7jfj_000000gn/T//ccu5ioPi.s:188    .text.renderAllPlants:000000000000003c .L0 
/var/folders/rt/4gvqv631095f64jvm7jfj_000000gn/T//ccu5ioPi.s:191    .text.renderAllPlants:000000000000003e .L0 
/var/folders/rt/4gvqv631095f64jvm7jfj_000000gn/T//ccu5ioPi.s:196    .text.renderAllPlants:0000000000000040 .L0 
/var/folders/rt/4gvqv631095f64jvm7jfj_000000gn/T//ccu5ioPi.s:199    .text.renderAllPlants:0000000000000040 .L0 
/var/folders/rt/4gvqv631095f64jvm7jfj_000000gn/T//ccu5ioPi.s:205    .text.renderAllPlants:000000000000004c .L0 
/var/folders/rt/4gvqv631095f64jvm7jfj_000000gn/T//ccu5ioPi.s:208    .text.renderAllPlants:000000000000004e .L0 
/var/folders/rt/4gvqv631095f64jvm7jfj_000000gn/T//ccu5ioPi.s:212    .text.renderAllPlants:0000000000000058 .L0 
/var/folders/rt/4gvqv631095f64jvm7jfj_000000gn/T//ccu5ioPi.s:220    .text.renderAllPlants:000000000000006a .L0 
/var/folders/rt/4gvqv631095f64jvm7jfj_000000gn/T//ccu5ioPi.s:229    .text.renderAllPlants:0000000000000082 .L0 
/var/folders/rt/4gvqv631095f64jvm7jfj_000000gn/T//ccu5ioPi.s:237    .text.renderAllPlants:0000000000000098 .L0 
/var/folders/rt/4gvqv631095f64jvm7jfj_000000gn/T//ccu5ioPi.s:245    .text.renderAllPlants:00000000000000ae .L0 
/var/folders/rt/4gvqv631095f64jvm7jfj_000000gn/T//ccu5ioPi.s:255    .text.renderAllPlants:00000000000000cc .L0 
/var/folders/rt/4gvqv631095f64jvm7jfj_000000gn/T//ccu5ioPi.s:262    .text.renderOnePlant:0000000000000000 renderOnePlant
/var/folders/rt/4gvqv631095f64jvm7jfj_000000gn/T//ccu5ioPi.s:265    .text.renderOnePlant:0000000000000000 .L0 
/var/folders/rt/4gvqv631095f64jvm7jfj_000000gn/T//ccu5ioPi.s:267    .text.renderOnePlant:0000000000000000 .L0 
/var/folders/rt/4gvqv631095f64jvm7jfj_000000gn/T//ccu5ioPi.s:269    .text.renderOnePlant:0000000000000000 .L0 
/var/folders/rt/4gvqv631095f64jvm7jfj_000000gn/T//ccu5ioPi.s:271    .text.renderOnePlant:0000000000000000 .L0 
/var/folders/rt/4gvqv631095f64jvm7jfj_000000gn/T//ccu5ioPi.s:272    .text.renderOnePlant:0000000000000000 .L0 
/var/folders/rt/4gvqv631095f64jvm7jfj_000000gn/T//ccu5ioPi.s:274    .text.renderOnePlant:0000000000000002 .L0 
/var/folders/rt/4gvqv631095f64jvm7jfj_000000gn/T//ccu5ioPi.s:280    .text.renderOnePlant:000000000000000c .L0 
/var/folders/rt/4gvqv631095f64jvm7jfj_000000gn/T//ccu5ioPi.s:281    .text.renderOnePlant:000000000000000c .L0 
/var/folders/rt/4gvqv631095f64jvm7jfj_000000gn/T//ccu5ioPi.s:282    .text.renderOnePlant:000000000000000c .L0 
/var/folders/rt/4gvqv631095f64jvm7jfj_000000gn/T//ccu5ioPi.s:283    .text.renderOnePlant:000000000000000c .L0 
/var/folders/rt/4gvqv631095f64jvm7jfj_000000gn/T//ccu5ioPi.s:284    .text.renderOnePlant:000000000000000c .L0 
/var/folders/rt/4gvqv631095f64jvm7jfj_000000gn/T//ccu5ioPi.s:286    .text.renderOnePlant:000000000000000c .L0 
/var/folders/rt/4gvqv631095f64jvm7jfj_000000gn/T//ccu5ioPi.s:290    .text.renderOnePlant:0000000000000010 .L0 
/var/folders/rt/4gvqv631095f64jvm7jfj_000000gn/T//ccu5ioPi.s:294    .text.renderOnePlant:0000000000000012 .L0 
/var/folders/rt/4gvqv631095f64jvm7jfj_000000gn/T//ccu5ioPi.s:297    .text.renderOnePlant:0000000000000016 .L0 
/var/folders/rt/4gvqv631095f64jvm7jfj_000000gn/T//ccu5ioPi.s:310    .text.renderOnePlant:000000000000002e .L0 
/var/folders/rt/4gvqv631095f64jvm7jfj_000000gn/T//ccu5ioPi.s:311    .text.renderOnePlant:000000000000002e .L0 
/var/folders/rt/4gvqv631095f64jvm7jfj_000000gn/T//ccu5ioPi.s:317    .text.renderOnePlant:000000000000003c .L0 
/var/folders/rt/4gvqv631095f64jvm7jfj_000000gn/T//ccu5ioPi.s:319    .text.renderOnePlant:000000000000003e .L0 
/var/folders/rt/4gvqv631095f64jvm7jfj_000000gn/T//ccu5ioPi.s:324    .text.renderOnePlant:0000000000000046 .L0 
/var/folders/rt/4gvqv631095f64jvm7jfj_000000gn/T//ccu5ioPi.s:333    .text.renderOnePlant:000000000000005a .L0 
/var/folders/rt/4gvqv631095f64jvm7jfj_000000gn/T//ccu5ioPi.s:341    .text.renderOnePlant:000000000000006e .L0 
/var/folders/rt/4gvqv631095f64jvm7jfj_000000gn/T//ccu5ioPi.s:351    .text.renderOnePlant:0000000000000088 .L0 
/var/folders/rt/4gvqv631095f64jvm7jfj_000000gn/T//ccu5ioPi.s:359    .text.renderOnePlant:00000000000000a0 .L0 
/var/folders/rt/4gvqv631095f64jvm7jfj_000000gn/T//ccu5ioPi.s:367    .text.renderOnePlant:00000000000000b8 .L0 
/var/folders/rt/4gvqv631095f64jvm7jfj_000000gn/T//ccu5ioPi.s:375    .text.renderOnePlant:00000000000000d0 .L0 
/var/folders/rt/4gvqv631095f64jvm7jfj_000000gn/T//ccu5ioPi.s:383    .text.renderOnePlant:00000000000000ea .L0 
/var/folders/rt/4gvqv631095f64jvm7jfj_000000gn/T//ccu5ioPi.s:392    .text.renderOnePlant:00000000000000fa .L0 
/var/folders/rt/4gvqv631095f64jvm7jfj_000000gn/T//ccu5ioPi.s:393    .text.renderOnePlant:00000000000000fc .L0 
/var/folders/rt/4gvqv631095f64jvm7jfj_000000gn/T//ccu5ioPi.s:394    .text.renderOnePlant:00000000000000fc .L0 
/var/folders/rt/4gvqv631095f64jvm7jfj_000000gn/T//ccu5ioPi.s:396    .text.renderOnePlant:00000000000000fe .L0 
GAS LISTING /var/folders/rt/4gvqv631095f64jvm7jfj_000000gn/T//ccu5ioPi.s 			page 25


/var/folders/rt/4gvqv631095f64jvm7jfj_000000gn/T//ccu5ioPi.s:398    .text.renderOnePlant:0000000000000100 .L0 
/var/folders/rt/4gvqv631095f64jvm7jfj_000000gn/T//ccu5ioPi.s:400    .text.renderOnePlant:0000000000000102 .L0 
/var/folders/rt/4gvqv631095f64jvm7jfj_000000gn/T//ccu5ioPi.s:402    .text.renderOnePlant:0000000000000104 .L0 
/var/folders/rt/4gvqv631095f64jvm7jfj_000000gn/T//ccu5ioPi.s:406    .text.renderOnePlant:0000000000000106 .L0 
/var/folders/rt/4gvqv631095f64jvm7jfj_000000gn/T//ccu5ioPi.s:408    .text.renderOnePlant:0000000000000106 .L0 
/var/folders/rt/4gvqv631095f64jvm7jfj_000000gn/T//ccu5ioPi.s:412    .text.renderOnePlant:000000000000010e .L0 
/var/folders/rt/4gvqv631095f64jvm7jfj_000000gn/T//ccu5ioPi.s:415    .text.renderOnePlant:000000000000010e .L0 
/var/folders/rt/4gvqv631095f64jvm7jfj_000000gn/T//ccu5ioPi.s:419    .text.renderOnePlant:0000000000000112 .L0 
/var/folders/rt/4gvqv631095f64jvm7jfj_000000gn/T//ccu5ioPi.s:426    .text.fetchReading:0000000000000000 fetchReading
/var/folders/rt/4gvqv631095f64jvm7jfj_000000gn/T//ccu5ioPi.s:429    .text.fetchReading:0000000000000000 .L0 
/var/folders/rt/4gvqv631095f64jvm7jfj_000000gn/T//ccu5ioPi.s:431    .text.fetchReading:0000000000000000 .L0 
/var/folders/rt/4gvqv631095f64jvm7jfj_000000gn/T//ccu5ioPi.s:432    .text.fetchReading:0000000000000000 .L0 
/var/folders/rt/4gvqv631095f64jvm7jfj_000000gn/T//ccu5ioPi.s:433    .text.fetchReading:0000000000000000 .L0 
/var/folders/rt/4gvqv631095f64jvm7jfj_000000gn/T//ccu5ioPi.s:435    .text.fetchReading:0000000000000002 .L0 
/var/folders/rt/4gvqv631095f64jvm7jfj_000000gn/T//ccu5ioPi.s:437    .text.fetchReading:0000000000000004 .L0 
/var/folders/rt/4gvqv631095f64jvm7jfj_000000gn/T//ccu5ioPi.s:440    .text.fetchReading:0000000000000006 .L0 
/var/folders/rt/4gvqv631095f64jvm7jfj_000000gn/T//ccu5ioPi.s:443    .text.fetchReading:0000000000000008 .L0 
/var/folders/rt/4gvqv631095f64jvm7jfj_000000gn/T//ccu5ioPi.s:447    .text.fetchReading:0000000000000010 .L0 
/var/folders/rt/4gvqv631095f64jvm7jfj_000000gn/T//ccu5ioPi.s:448    .text.fetchReading:0000000000000010 .L0 
/var/folders/rt/4gvqv631095f64jvm7jfj_000000gn/T//ccu5ioPi.s:449    .text.fetchReading:0000000000000010 .L0 
/var/folders/rt/4gvqv631095f64jvm7jfj_000000gn/T//ccu5ioPi.s:450    .text.fetchReading:0000000000000010 .L0 
/var/folders/rt/4gvqv631095f64jvm7jfj_000000gn/T//ccu5ioPi.s:452    .text.fetchReading:0000000000000010 .L0 
/var/folders/rt/4gvqv631095f64jvm7jfj_000000gn/T//ccu5ioPi.s:454    .text.fetchReading:0000000000000012 .L0 
/var/folders/rt/4gvqv631095f64jvm7jfj_000000gn/T//ccu5ioPi.s:456    .text.fetchReading:0000000000000014 .L0 
/var/folders/rt/4gvqv631095f64jvm7jfj_000000gn/T//ccu5ioPi.s:459    .text.fetchReading:000000000000001c .L0 
/var/folders/rt/4gvqv631095f64jvm7jfj_000000gn/T//ccu5ioPi.s:460    .text.fetchReading:000000000000001c .L0 
/var/folders/rt/4gvqv631095f64jvm7jfj_000000gn/T//ccu5ioPi.s:461    .text.fetchReading:000000000000001c .L0 
/var/folders/rt/4gvqv631095f64jvm7jfj_000000gn/T//ccu5ioPi.s:465    .text.fetchReading:0000000000000020 .L0 
/var/folders/rt/4gvqv631095f64jvm7jfj_000000gn/T//ccu5ioPi.s:470    .text.fetchReading:000000000000002c .L0 
/var/folders/rt/4gvqv631095f64jvm7jfj_000000gn/T//ccu5ioPi.s:472    .text.fetchReading:000000000000002e .L0 
/var/folders/rt/4gvqv631095f64jvm7jfj_000000gn/T//ccu5ioPi.s:473    .text.fetchReading:000000000000002e .L0 
/var/folders/rt/4gvqv631095f64jvm7jfj_000000gn/T//ccu5ioPi.s:479    .text.fetchReading:000000000000003a .L0 
/var/folders/rt/4gvqv631095f64jvm7jfj_000000gn/T//ccu5ioPi.s:484    .text.fetchReading:0000000000000046 .L0 
/var/folders/rt/4gvqv631095f64jvm7jfj_000000gn/T//ccu5ioPi.s:485    .text.fetchReading:0000000000000046 .L0 
/var/folders/rt/4gvqv631095f64jvm7jfj_000000gn/T//ccu5ioPi.s:486    .text.fetchReading:0000000000000048 .L0 
/var/folders/rt/4gvqv631095f64jvm7jfj_000000gn/T//ccu5ioPi.s:487    .text.fetchReading:0000000000000048 .L0 
/var/folders/rt/4gvqv631095f64jvm7jfj_000000gn/T//ccu5ioPi.s:489    .text.fetchReading:000000000000004a .L0 
/var/folders/rt/4gvqv631095f64jvm7jfj_000000gn/T//ccu5ioPi.s:493    .text.fetchReading:000000000000004e .L0 
/var/folders/rt/4gvqv631095f64jvm7jfj_000000gn/T//ccu5ioPi.s:496    .text.fetchReading:0000000000000050 .L0 
/var/folders/rt/4gvqv631095f64jvm7jfj_000000gn/T//ccu5ioPi.s:499    .text.fetchReading:0000000000000052 .L0 
/var/folders/rt/4gvqv631095f64jvm7jfj_000000gn/T//ccu5ioPi.s:502    .text.fetchReading:0000000000000054 .L0 
/var/folders/rt/4gvqv631095f64jvm7jfj_000000gn/T//ccu5ioPi.s:507    .text.fetchReading:0000000000000056 .L0 
/var/folders/rt/4gvqv631095f64jvm7jfj_000000gn/T//ccu5ioPi.s:509    .text.fetchReading:0000000000000056 .L0 
/var/folders/rt/4gvqv631095f64jvm7jfj_000000gn/T//ccu5ioPi.s:510    .text.fetchReading:0000000000000056 .L0 
/var/folders/rt/4gvqv631095f64jvm7jfj_000000gn/T//ccu5ioPi.s:512    .text.fetchReading:000000000000005a .L0 
/var/folders/rt/4gvqv631095f64jvm7jfj_000000gn/T//ccu5ioPi.s:520    .text.fetchReading:0000000000000072 .L0 
/var/folders/rt/4gvqv631095f64jvm7jfj_000000gn/T//ccu5ioPi.s:521    .text.fetchReading:0000000000000072 .L0 
/var/folders/rt/4gvqv631095f64jvm7jfj_000000gn/T//ccu5ioPi.s:523    .text.fetchReading:0000000000000076 .L0 
/var/folders/rt/4gvqv631095f64jvm7jfj_000000gn/T//ccu5ioPi.s:530    .text.updatePlantReading:0000000000000000 updatePlantReading
/var/folders/rt/4gvqv631095f64jvm7jfj_000000gn/T//ccu5ioPi.s:533    .text.updatePlantReading:0000000000000000 .L0 
/var/folders/rt/4gvqv631095f64jvm7jfj_000000gn/T//ccu5ioPi.s:535    .text.updatePlantReading:0000000000000000 .L0 
/var/folders/rt/4gvqv631095f64jvm7jfj_000000gn/T//ccu5ioPi.s:537    .text.updatePlantReading:0000000000000000 .L0 
/var/folders/rt/4gvqv631095f64jvm7jfj_000000gn/T//ccu5ioPi.s:539    .text.updatePlantReading:0000000000000000 .L0 
/var/folders/rt/4gvqv631095f64jvm7jfj_000000gn/T//ccu5ioPi.s:540    .text.updatePlantReading:0000000000000000 .L0 
/var/folders/rt/4gvqv631095f64jvm7jfj_000000gn/T//ccu5ioPi.s:542    .text.updatePlantReading:0000000000000002 .L0 
/var/folders/rt/4gvqv631095f64jvm7jfj_000000gn/T//ccu5ioPi.s:548    .text.updatePlantReading:000000000000000c .L0 
/var/folders/rt/4gvqv631095f64jvm7jfj_000000gn/T//ccu5ioPi.s:549    .text.updatePlantReading:000000000000000c .L0 
GAS LISTING /var/folders/rt/4gvqv631095f64jvm7jfj_000000gn/T//ccu5ioPi.s 			page 26


/var/folders/rt/4gvqv631095f64jvm7jfj_000000gn/T//ccu5ioPi.s:550    .text.updatePlantReading:000000000000000c .L0 
/var/folders/rt/4gvqv631095f64jvm7jfj_000000gn/T//ccu5ioPi.s:551    .text.updatePlantReading:000000000000000c .L0 
/var/folders/rt/4gvqv631095f64jvm7jfj_000000gn/T//ccu5ioPi.s:552    .text.updatePlantReading:000000000000000c .L0 
/var/folders/rt/4gvqv631095f64jvm7jfj_000000gn/T//ccu5ioPi.s:554    .text.updatePlantReading:000000000000000c .L0 
/var/folders/rt/4gvqv631095f64jvm7jfj_000000gn/T//ccu5ioPi.s:558    .text.updatePlantReading:0000000000000010 .L0 
/var/folders/rt/4gvqv631095f64jvm7jfj_000000gn/T//ccu5ioPi.s:560    .text.updatePlantReading:0000000000000012 .L0 
/var/folders/rt/4gvqv631095f64jvm7jfj_000000gn/T//ccu5ioPi.s:564    .text.updatePlantReading:0000000000000014 .L0 
/var/folders/rt/4gvqv631095f64jvm7jfj_000000gn/T//ccu5ioPi.s:567    .text.updatePlantReading:0000000000000018 .L0 
/var/folders/rt/4gvqv631095f64jvm7jfj_000000gn/T//ccu5ioPi.s:583    .text.updatePlantReading:0000000000000038 .L0 
/var/folders/rt/4gvqv631095f64jvm7jfj_000000gn/T//ccu5ioPi.s:587    .text.updatePlantReading:000000000000003e .L0 
/var/folders/rt/4gvqv631095f64jvm7jfj_000000gn/T//ccu5ioPi.s:588    .text.updatePlantReading:000000000000003e .L0 
/var/folders/rt/4gvqv631095f64jvm7jfj_000000gn/T//ccu5ioPi.s:592    .text.updatePlantReading:0000000000000048 .L0 
/var/folders/rt/4gvqv631095f64jvm7jfj_000000gn/T//ccu5ioPi.s:597    .text.updatePlantReading:000000000000004e .L0 
/var/folders/rt/4gvqv631095f64jvm7jfj_000000gn/T//ccu5ioPi.s:598    .text.updatePlantReading:000000000000004e .L0 
/var/folders/rt/4gvqv631095f64jvm7jfj_000000gn/T//ccu5ioPi.s:601    .text.updatePlantReading:0000000000000052 .L0 
/var/folders/rt/4gvqv631095f64jvm7jfj_000000gn/T//ccu5ioPi.s:602    .text.updatePlantReading:0000000000000052 .L0 
/var/folders/rt/4gvqv631095f64jvm7jfj_000000gn/T//ccu5ioPi.s:608    .text.updatePlantReading:0000000000000064 .L0 
/var/folders/rt/4gvqv631095f64jvm7jfj_000000gn/T//ccu5ioPi.s:613    .text.updatePlantReading:000000000000006a .L0 
/var/folders/rt/4gvqv631095f64jvm7jfj_000000gn/T//ccu5ioPi.s:614    .text.updatePlantReading:000000000000006a .L0 
/var/folders/rt/4gvqv631095f64jvm7jfj_000000gn/T//ccu5ioPi.s:615    .text.updatePlantReading:000000000000006a .L0 
/var/folders/rt/4gvqv631095f64jvm7jfj_000000gn/T//ccu5ioPi.s:618    .text.updatePlantReading:0000000000000072 .L0 
/var/folders/rt/4gvqv631095f64jvm7jfj_000000gn/T//ccu5ioPi.s:619    .text.updatePlantReading:0000000000000072 .L0 
/var/folders/rt/4gvqv631095f64jvm7jfj_000000gn/T//ccu5ioPi.s:620    .text.updatePlantReading:0000000000000072 .L0 
/var/folders/rt/4gvqv631095f64jvm7jfj_000000gn/T//ccu5ioPi.s:621    .text.updatePlantReading:0000000000000072 .L0 
/var/folders/rt/4gvqv631095f64jvm7jfj_000000gn/T//ccu5ioPi.s:622    .text.updatePlantReading:0000000000000072 .L0 
/var/folders/rt/4gvqv631095f64jvm7jfj_000000gn/T//ccu5ioPi.s:623    .text.updatePlantReading:0000000000000072 .L0 
/var/folders/rt/4gvqv631095f64jvm7jfj_000000gn/T//ccu5ioPi.s:627    .text.updatePlantReading:000000000000007c .L0 
/var/folders/rt/4gvqv631095f64jvm7jfj_000000gn/T//ccu5ioPi.s:629    .text.updatePlantReading:0000000000000080 .L0 
/var/folders/rt/4gvqv631095f64jvm7jfj_000000gn/T//ccu5ioPi.s:641    .text.updatePlantReading:00000000000000a0 .L0 
/var/folders/rt/4gvqv631095f64jvm7jfj_000000gn/T//ccu5ioPi.s:642    .text.updatePlantReading:00000000000000a0 .L0 
/var/folders/rt/4gvqv631095f64jvm7jfj_000000gn/T//ccu5ioPi.s:649    .text.updatePlantReading:00000000000000ae .L0 
/var/folders/rt/4gvqv631095f64jvm7jfj_000000gn/T//ccu5ioPi.s:654    .text.updatePlantReading:00000000000000ba .L0 
/var/folders/rt/4gvqv631095f64jvm7jfj_000000gn/T//ccu5ioPi.s:656    .text.updatePlantReading:00000000000000be .L0 
/var/folders/rt/4gvqv631095f64jvm7jfj_000000gn/T//ccu5ioPi.s:663    .text.updatePlantReading:00000000000000ca .L0 
/var/folders/rt/4gvqv631095f64jvm7jfj_000000gn/T//ccu5ioPi.s:664    .text.updatePlantReading:00000000000000ca .L0 
/var/folders/rt/4gvqv631095f64jvm7jfj_000000gn/T//ccu5ioPi.s:665    .text.updatePlantReading:00000000000000cc .L0 
/var/folders/rt/4gvqv631095f64jvm7jfj_000000gn/T//ccu5ioPi.s:666    .text.updatePlantReading:00000000000000cc .L0 
/var/folders/rt/4gvqv631095f64jvm7jfj_000000gn/T//ccu5ioPi.s:668    .text.updatePlantReading:00000000000000ce .L0 
/var/folders/rt/4gvqv631095f64jvm7jfj_000000gn/T//ccu5ioPi.s:670    .text.updatePlantReading:00000000000000d0 .L0 
/var/folders/rt/4gvqv631095f64jvm7jfj_000000gn/T//ccu5ioPi.s:672    .text.updatePlantReading:00000000000000d2 .L0 
/var/folders/rt/4gvqv631095f64jvm7jfj_000000gn/T//ccu5ioPi.s:675    .text.updatePlantReading:00000000000000d4 .L0 
/var/folders/rt/4gvqv631095f64jvm7jfj_000000gn/T//ccu5ioPi.s:678    .text.updatePlantReading:00000000000000d6 .L0 
/var/folders/rt/4gvqv631095f64jvm7jfj_000000gn/T//ccu5ioPi.s:683    .text.updatePlantReading:00000000000000d8 .L0 
/var/folders/rt/4gvqv631095f64jvm7jfj_000000gn/T//ccu5ioPi.s:686    .text.updatePlantReading:00000000000000d8 .L0 
/var/folders/rt/4gvqv631095f64jvm7jfj_000000gn/T//ccu5ioPi.s:691    .text.updatePlantReading:00000000000000e0 .L0 
/var/folders/rt/4gvqv631095f64jvm7jfj_000000gn/T//ccu5ioPi.s:698    .text.startup.main:0000000000000000 main
/var/folders/rt/4gvqv631095f64jvm7jfj_000000gn/T//ccu5ioPi.s:701    .text.startup.main:0000000000000000 .L0 
/var/folders/rt/4gvqv631095f64jvm7jfj_000000gn/T//ccu5ioPi.s:702    .text.startup.main:0000000000000000 .L0 
/var/folders/rt/4gvqv631095f64jvm7jfj_000000gn/T//ccu5ioPi.s:704    .text.startup.main:0000000000000000 .L0 
/var/folders/rt/4gvqv631095f64jvm7jfj_000000gn/T//ccu5ioPi.s:705    .text.startup.main:0000000000000000 .L0 
/var/folders/rt/4gvqv631095f64jvm7jfj_000000gn/T//ccu5ioPi.s:706    .text.startup.main:0000000000000000 .L0 
/var/folders/rt/4gvqv631095f64jvm7jfj_000000gn/T//ccu5ioPi.s:709    .text.startup.main:0000000000000006 .L0 
/var/folders/rt/4gvqv631095f64jvm7jfj_000000gn/T//ccu5ioPi.s:719    .text.startup.main:0000000000000024 .L0 
/var/folders/rt/4gvqv631095f64jvm7jfj_000000gn/T//ccu5ioPi.s:720    .text.startup.main:0000000000000024 .L0 
/var/folders/rt/4gvqv631095f64jvm7jfj_000000gn/T//ccu5ioPi.s:721    .text.startup.main:0000000000000024 .L0 
/var/folders/rt/4gvqv631095f64jvm7jfj_000000gn/T//ccu5ioPi.s:722    .text.startup.main:0000000000000024 .L0 
/var/folders/rt/4gvqv631095f64jvm7jfj_000000gn/T//ccu5ioPi.s:723    .text.startup.main:0000000000000024 .L0 
GAS LISTING /var/folders/rt/4gvqv631095f64jvm7jfj_000000gn/T//ccu5ioPi.s 			page 27


/var/folders/rt/4gvqv631095f64jvm7jfj_000000gn/T//ccu5ioPi.s:724    .text.startup.main:0000000000000024 .L0 
/var/folders/rt/4gvqv631095f64jvm7jfj_000000gn/T//ccu5ioPi.s:725    .text.startup.main:0000000000000024 .L0 
/var/folders/rt/4gvqv631095f64jvm7jfj_000000gn/T//ccu5ioPi.s:726    .text.startup.main:0000000000000024 .L0 
/var/folders/rt/4gvqv631095f64jvm7jfj_000000gn/T//ccu5ioPi.s:728    .text.startup.main:0000000000000024 .L0 
/var/folders/rt/4gvqv631095f64jvm7jfj_000000gn/T//ccu5ioPi.s:731    .text.startup.main:000000000000002c .L0 
/var/folders/rt/4gvqv631095f64jvm7jfj_000000gn/T//ccu5ioPi.s:734    .text.startup.main:0000000000000034 .L0 
/var/folders/rt/4gvqv631095f64jvm7jfj_000000gn/T//ccu5ioPi.s:737    .text.startup.main:000000000000003c .L0 
/var/folders/rt/4gvqv631095f64jvm7jfj_000000gn/T//ccu5ioPi.s:740    .text.startup.main:0000000000000044 .L0 
/var/folders/rt/4gvqv631095f64jvm7jfj_000000gn/T//ccu5ioPi.s:744    .text.startup.main:000000000000004e .L0 
/var/folders/rt/4gvqv631095f64jvm7jfj_000000gn/T//ccu5ioPi.s:748    .text.startup.main:0000000000000058 .L0 
/var/folders/rt/4gvqv631095f64jvm7jfj_000000gn/T//ccu5ioPi.s:752    .text.startup.main:0000000000000062 .L0 
/var/folders/rt/4gvqv631095f64jvm7jfj_000000gn/T//ccu5ioPi.s:755    .text.startup.main:000000000000006a .L0 
/var/folders/rt/4gvqv631095f64jvm7jfj_000000gn/T//ccu5ioPi.s:759    .text.startup.main:0000000000000074 .L0 
/var/folders/rt/4gvqv631095f64jvm7jfj_000000gn/T//ccu5ioPi.s:760    .text.startup.main:0000000000000074 .L0 
/var/folders/rt/4gvqv631095f64jvm7jfj_000000gn/T//ccu5ioPi.s:761    .text.startup.main:0000000000000074 .L0 
/var/folders/rt/4gvqv631095f64jvm7jfj_000000gn/T//ccu5ioPi.s:767    .text.startup.main:0000000000000082 .L0 
/var/folders/rt/4gvqv631095f64jvm7jfj_000000gn/T//ccu5ioPi.s:778    .text.startup.main:00000000000000a0 .L0 
/var/folders/rt/4gvqv631095f64jvm7jfj_000000gn/T//ccu5ioPi.s:780    .text.startup.main:00000000000000a4 .L0 
/var/folders/rt/4gvqv631095f64jvm7jfj_000000gn/T//ccu5ioPi.s:782    .text.startup.main:00000000000000a8 .L0 
/var/folders/rt/4gvqv631095f64jvm7jfj_000000gn/T//ccu5ioPi.s:785    .text.startup.main:00000000000000b0 .L0 
/var/folders/rt/4gvqv631095f64jvm7jfj_000000gn/T//ccu5ioPi.s:791    .text.startup.main:00000000000000c0 .L0 
/var/folders/rt/4gvqv631095f64jvm7jfj_000000gn/T//ccu5ioPi.s:799    .text.startup.main:00000000000000d6 .L0 
/var/folders/rt/4gvqv631095f64jvm7jfj_000000gn/T//ccu5ioPi.s:801    .text.startup.main:00000000000000d8 .L0 
/var/folders/rt/4gvqv631095f64jvm7jfj_000000gn/T//ccu5ioPi.s:803    .text.startup.main:00000000000000dc .L0 
/var/folders/rt/4gvqv631095f64jvm7jfj_000000gn/T//ccu5ioPi.s:807    .text.startup.main:00000000000000de .L0 
/var/folders/rt/4gvqv631095f64jvm7jfj_000000gn/T//ccu5ioPi.s:811    .text.startup.main:00000000000000e0 .L0 
/var/folders/rt/4gvqv631095f64jvm7jfj_000000gn/T//ccu5ioPi.s:812    .text.startup.main:00000000000000e0 .L0 
/var/folders/rt/4gvqv631095f64jvm7jfj_000000gn/T//ccu5ioPi.s:813    .text.startup.main:00000000000000e0 .L0 
/var/folders/rt/4gvqv631095f64jvm7jfj_000000gn/T//ccu5ioPi.s:816    .text.startup.main:00000000000000e2 .L0 
/var/folders/rt/4gvqv631095f64jvm7jfj_000000gn/T//ccu5ioPi.s:817    .text.startup.main:00000000000000e2 .L0 
/var/folders/rt/4gvqv631095f64jvm7jfj_000000gn/T//ccu5ioPi.s:820    .text.startup.main:00000000000000ea .L0 
/var/folders/rt/4gvqv631095f64jvm7jfj_000000gn/T//ccu5ioPi.s:822    .text.startup.main:00000000000000ec .L0 
/var/folders/rt/4gvqv631095f64jvm7jfj_000000gn/T//ccu5ioPi.s:825    .text.startup.main:00000000000000f4 .L0 
/var/folders/rt/4gvqv631095f64jvm7jfj_000000gn/T//ccu5ioPi.s:828    .text.startup.main:00000000000000f6 .L0 
/var/folders/rt/4gvqv631095f64jvm7jfj_000000gn/T//ccu5ioPi.s:831    .text.startup.main:00000000000000fe .L0 
/var/folders/rt/4gvqv631095f64jvm7jfj_000000gn/T//ccu5ioPi.s:832    .text.startup.main:00000000000000fe .L0 
/var/folders/rt/4gvqv631095f64jvm7jfj_000000gn/T//ccu5ioPi.s:833    .text.startup.main:00000000000000fe .L0 
/var/folders/rt/4gvqv631095f64jvm7jfj_000000gn/T//ccu5ioPi.s:835    .text.startup.main:0000000000000102 .L0 
/var/folders/rt/4gvqv631095f64jvm7jfj_000000gn/T//ccu5ioPi.s:839    .text.startup.main:000000000000010c .L0 
/var/folders/rt/4gvqv631095f64jvm7jfj_000000gn/T//ccu5ioPi.s:846    .text.startup.main:0000000000000120 .L0 
/var/folders/rt/4gvqv631095f64jvm7jfj_000000gn/T//ccu5ioPi.s:852    .text.startup.main:0000000000000132 .L0 
/var/folders/rt/4gvqv631095f64jvm7jfj_000000gn/T//ccu5ioPi.s:853    .text.startup.main:0000000000000132 .L0 
/var/folders/rt/4gvqv631095f64jvm7jfj_000000gn/T//ccu5ioPi.s:857    .text.startup.main:0000000000000134 .L0 
/var/folders/rt/4gvqv631095f64jvm7jfj_000000gn/T//ccu5ioPi.s:862    .text.startup.main:0000000000000142 .L0 
/var/folders/rt/4gvqv631095f64jvm7jfj_000000gn/T//ccu5ioPi.s:867    .text.startup.main:000000000000014e .L0 
/var/folders/rt/4gvqv631095f64jvm7jfj_000000gn/T//ccu5ioPi.s:868    .text.startup.main:0000000000000150 .L0 
/var/folders/rt/4gvqv631095f64jvm7jfj_000000gn/T//ccu5ioPi.s:111    .text.rtcInit:000000000000009e .L0 
/var/folders/rt/4gvqv631095f64jvm7jfj_000000gn/T//ccu5ioPi.s:258    .text.renderAllPlants:00000000000000cc .L0 
/var/folders/rt/4gvqv631095f64jvm7jfj_000000gn/T//ccu5ioPi.s:422    .text.renderOnePlant:0000000000000112 .L0 
/var/folders/rt/4gvqv631095f64jvm7jfj_000000gn/T//ccu5ioPi.s:526    .text.fetchReading:0000000000000076 .L0 
/var/folders/rt/4gvqv631095f64jvm7jfj_000000gn/T//ccu5ioPi.s:694    .text.updatePlantReading:00000000000000e0 .L0 
/var/folders/rt/4gvqv631095f64jvm7jfj_000000gn/T//ccu5ioPi.s:871    .text.startup.main:0000000000000150 .L0 
                     .debug_frame:0000000000000000 .L0 
/var/folders/rt/4gvqv631095f64jvm7jfj_000000gn/T//ccu5ioPi.s:96     .text.rtcInit:0000000000000098 .L1
/var/folders/rt/4gvqv631095f64jvm7jfj_000000gn/T//ccu5ioPi.s:887    .rodata.renderAllPlants.str1.4:0000000000000000 .LC0
/var/folders/rt/4gvqv631095f64jvm7jfj_000000gn/T//ccu5ioPi.s:194    .text.renderAllPlants:0000000000000040 .L6
/var/folders/rt/4gvqv631095f64jvm7jfj_000000gn/T//ccu5ioPi.s:163    .text.renderAllPlants:0000000000000026 .L5
GAS LISTING /var/folders/rt/4gvqv631095f64jvm7jfj_000000gn/T//ccu5ioPi.s 			page 28


/var/folders/rt/4gvqv631095f64jvm7jfj_000000gn/T//ccu5ioPi.s:891    .rodata.renderOnePlant.str1.4:0000000000000000 .LC1
/var/folders/rt/4gvqv631095f64jvm7jfj_000000gn/T//ccu5ioPi.s:307    .text.renderOnePlant:000000000000002e .L11
/var/folders/rt/4gvqv631095f64jvm7jfj_000000gn/T//ccu5ioPi.s:389    .text.renderOnePlant:00000000000000fa .L13
/var/folders/rt/4gvqv631095f64jvm7jfj_000000gn/T//ccu5ioPi.s:410    .text.renderOnePlant:000000000000010e .L10
/var/folders/rt/4gvqv631095f64jvm7jfj_000000gn/T//ccu5ioPi.s:292    .text.renderOnePlant:0000000000000012 .L9
/var/folders/rt/4gvqv631095f64jvm7jfj_000000gn/T//ccu5ioPi.s:873    .rodata.fetchReading.str1.4:0000000000000000 .LC2
/var/folders/rt/4gvqv631095f64jvm7jfj_000000gn/T//ccu5ioPi.s:505    .text.fetchReading:0000000000000056 .L17
/var/folders/rt/4gvqv631095f64jvm7jfj_000000gn/T//ccu5ioPi.s:463    .text.fetchReading:0000000000000020 .L16
/var/folders/rt/4gvqv631095f64jvm7jfj_000000gn/T//ccu5ioPi.s:895    .rodata.updatePlantReading.str1.4:0000000000000000 .LC3
/var/folders/rt/4gvqv631095f64jvm7jfj_000000gn/T//ccu5ioPi.s:898    .rodata.updatePlantReading.str1.4:0000000000000014 .LC4
/var/folders/rt/4gvqv631095f64jvm7jfj_000000gn/T//ccu5ioPi.s:580    .text.updatePlantReading:0000000000000038 .L25
/var/folders/rt/4gvqv631095f64jvm7jfj_000000gn/T//ccu5ioPi.s:660    .text.updatePlantReading:00000000000000ca .L20
/var/folders/rt/4gvqv631095f64jvm7jfj_000000gn/T//ccu5ioPi.s:681    .text.updatePlantReading:00000000000000d8 .L22
/var/folders/rt/4gvqv631095f64jvm7jfj_000000gn/T//ccu5ioPi.s:645    .text.updatePlantReading:00000000000000a8 .L23
/var/folders/rt/4gvqv631095f64jvm7jfj_000000gn/T//ccu5ioPi.s:562    .text.updatePlantReading:0000000000000014 .L21
/var/folders/rt/4gvqv631095f64jvm7jfj_000000gn/T//ccu5ioPi.s:877    .rodata.main.str1.4:0000000000000000 .LC5
/var/folders/rt/4gvqv631095f64jvm7jfj_000000gn/T//ccu5ioPi.s:880    .rodata.main.str1.4:0000000000000008 .LC6
/var/folders/rt/4gvqv631095f64jvm7jfj_000000gn/T//ccu5ioPi.s:883    .rodata.main.str1.4:0000000000000010 .LC7
/var/folders/rt/4gvqv631095f64jvm7jfj_000000gn/T//ccu5ioPi.s:809    .text.startup.main:00000000000000e0 .L28
/var/folders/rt/4gvqv631095f64jvm7jfj_000000gn/T//ccu5ioPi.s:855    .text.startup.main:0000000000000134 .L29
/var/folders/rt/4gvqv631095f64jvm7jfj_000000gn/T//ccu5ioPi.s:805    .text.startup.main:00000000000000de .L30
/var/folders/rt/4gvqv631095f64jvm7jfj_000000gn/T//ccu5ioPi.s:4155   .debug_abbrev:0000000000000000 .Ldebug_abbrev0
/var/folders/rt/4gvqv631095f64jvm7jfj_000000gn/T//ccu5ioPi.s:6078   .debug_str:000000000000077b .LASF227
/var/folders/rt/4gvqv631095f64jvm7jfj_000000gn/T//ccu5ioPi.s:5900   .debug_str:00000000000003f6 .LASF228
/var/folders/rt/4gvqv631095f64jvm7jfj_000000gn/T//ccu5ioPi.s:6082   .debug_str:000000000000080c .LASF229
/var/folders/rt/4gvqv631095f64jvm7jfj_000000gn/T//ccu5ioPi.s:5646   .debug_ranges:0000000000000000 .Ldebug_ranges0
/var/folders/rt/4gvqv631095f64jvm7jfj_000000gn/T//ccu5ioPi.s:5698   .debug_line:0000000000000000 .Ldebug_line0
/var/folders/rt/4gvqv631095f64jvm7jfj_000000gn/T//ccu5ioPi.s:6054   .debug_str:00000000000006ff .LASF0
/var/folders/rt/4gvqv631095f64jvm7jfj_000000gn/T//ccu5ioPi.s:5768   .debug_str:0000000000000160 .LASF1
/var/folders/rt/4gvqv631095f64jvm7jfj_000000gn/T//ccu5ioPi.s:5720   .debug_str:0000000000000059 .LASF6
/var/folders/rt/4gvqv631095f64jvm7jfj_000000gn/T//ccu5ioPi.s:5978   .debug_str:000000000000059c .LASF2
/var/folders/rt/4gvqv631095f64jvm7jfj_000000gn/T//ccu5ioPi.s:6060   .debug_str:0000000000000720 .LASF3
/var/folders/rt/4gvqv631095f64jvm7jfj_000000gn/T//ccu5ioPi.s:6086   .debug_str:000000000000085b .LASF4
/var/folders/rt/4gvqv631095f64jvm7jfj_000000gn/T//ccu5ioPi.s:5730   .debug_str:0000000000000085 .LASF5
/var/folders/rt/4gvqv631095f64jvm7jfj_000000gn/T//ccu5ioPi.s:5834   .debug_str:00000000000002af .LASF7
/var/folders/rt/4gvqv631095f64jvm7jfj_000000gn/T//ccu5ioPi.s:5864   .debug_str:000000000000034b .LASF8
/var/folders/rt/4gvqv631095f64jvm7jfj_000000gn/T//ccu5ioPi.s:5814   .debug_str:0000000000000235 .LASF9
/var/folders/rt/4gvqv631095f64jvm7jfj_000000gn/T//ccu5ioPi.s:5738   .debug_str:00000000000000b9 .LASF10
/var/folders/rt/4gvqv631095f64jvm7jfj_000000gn/T//ccu5ioPi.s:6066   .debug_str:000000000000073b .LASF11
/var/folders/rt/4gvqv631095f64jvm7jfj_000000gn/T//ccu5ioPi.s:6104   .debug_str:00000000000008c5 .LASF12
/var/folders/rt/4gvqv631095f64jvm7jfj_000000gn/T//ccu5ioPi.s:5854   .debug_str:0000000000000308 .LASF166
/var/folders/rt/4gvqv631095f64jvm7jfj_000000gn/T//ccu5ioPi.s:5708   .debug_str:0000000000000027 .LASF13
/var/folders/rt/4gvqv631095f64jvm7jfj_000000gn/T//ccu5ioPi.s:5770   .debug_str:000000000000016c .LASF14
/var/folders/rt/4gvqv631095f64jvm7jfj_000000gn/T//ccu5ioPi.s:5764   .debug_str:0000000000000151 .LASF15
/var/folders/rt/4gvqv631095f64jvm7jfj_000000gn/T//ccu5ioPi.s:6058   .debug_str:0000000000000717 .LASF16
/var/folders/rt/4gvqv631095f64jvm7jfj_000000gn/T//ccu5ioPi.s:5812   .debug_str:000000000000022b .LASF17
/var/folders/rt/4gvqv631095f64jvm7jfj_000000gn/T//ccu5ioPi.s:5964   .debug_str:0000000000000552 .LASF18
/var/folders/rt/4gvqv631095f64jvm7jfj_000000gn/T//ccu5ioPi.s:5966   .debug_str:000000000000055d .LASF19
/var/folders/rt/4gvqv631095f64jvm7jfj_000000gn/T//ccu5ioPi.s:5968   .debug_str:0000000000000568 .LASF20
/var/folders/rt/4gvqv631095f64jvm7jfj_000000gn/T//ccu5ioPi.s:5970   .debug_str:0000000000000573 .LASF21
/var/folders/rt/4gvqv631095f64jvm7jfj_000000gn/T//ccu5ioPi.s:5972   .debug_str:000000000000057e .LASF22
/var/folders/rt/4gvqv631095f64jvm7jfj_000000gn/T//ccu5ioPi.s:5974   .debug_str:0000000000000589 .LASF23
/var/folders/rt/4gvqv631095f64jvm7jfj_000000gn/T//ccu5ioPi.s:6076   .debug_str:0000000000000771 .LASF24
/var/folders/rt/4gvqv631095f64jvm7jfj_000000gn/T//ccu5ioPi.s:5704   .debug_str:0000000000000015 .LASF25
/var/folders/rt/4gvqv631095f64jvm7jfj_000000gn/T//ccu5ioPi.s:5706   .debug_str:000000000000001e .LASF26
/var/folders/rt/4gvqv631095f64jvm7jfj_000000gn/T//ccu5ioPi.s:5938   .debug_str:00000000000004bd .LASF27
/var/folders/rt/4gvqv631095f64jvm7jfj_000000gn/T//ccu5ioPi.s:5940   .debug_str:00000000000004c8 .LASF28
GAS LISTING /var/folders/rt/4gvqv631095f64jvm7jfj_000000gn/T//ccu5ioPi.s 			page 29


/var/folders/rt/4gvqv631095f64jvm7jfj_000000gn/T//ccu5ioPi.s:5740   .debug_str:00000000000000d0 .LASF29
/var/folders/rt/4gvqv631095f64jvm7jfj_000000gn/T//ccu5ioPi.s:5742   .debug_str:00000000000000da .LASF30
/var/folders/rt/4gvqv631095f64jvm7jfj_000000gn/T//ccu5ioPi.s:6132   .debug_str:0000000000000955 .LASF31
/var/folders/rt/4gvqv631095f64jvm7jfj_000000gn/T//ccu5ioPi.s:6034   .debug_str:00000000000006a8 .LASF32
/var/folders/rt/4gvqv631095f64jvm7jfj_000000gn/T//ccu5ioPi.s:5828   .debug_str:000000000000028b .LASF33
/var/folders/rt/4gvqv631095f64jvm7jfj_000000gn/T//ccu5ioPi.s:5760   .debug_str:0000000000000141 .LASF34
/var/folders/rt/4gvqv631095f64jvm7jfj_000000gn/T//ccu5ioPi.s:6042   .debug_str:00000000000006cf .LASF35
/var/folders/rt/4gvqv631095f64jvm7jfj_000000gn/T//ccu5ioPi.s:6098   .debug_str:00000000000008a1 .LASF36
/var/folders/rt/4gvqv631095f64jvm7jfj_000000gn/T//ccu5ioPi.s:5886   .debug_str:00000000000003b3 .LASF37
/var/folders/rt/4gvqv631095f64jvm7jfj_000000gn/T//ccu5ioPi.s:5874   .debug_str:000000000000037c .LASF38
/var/folders/rt/4gvqv631095f64jvm7jfj_000000gn/T//ccu5ioPi.s:5718   .debug_str:0000000000000052 .LASF39
/var/folders/rt/4gvqv631095f64jvm7jfj_000000gn/T//ccu5ioPi.s:5746   .debug_str:00000000000000ec .LASF40
/var/folders/rt/4gvqv631095f64jvm7jfj_000000gn/T//ccu5ioPi.s:5856   .debug_str:0000000000000318 .LASF41
/var/folders/rt/4gvqv631095f64jvm7jfj_000000gn/T//ccu5ioPi.s:5858   .debug_str:0000000000000322 .LASF42
/var/folders/rt/4gvqv631095f64jvm7jfj_000000gn/T//ccu5ioPi.s:5750   .debug_str:0000000000000101 .LASF43
/var/folders/rt/4gvqv631095f64jvm7jfj_000000gn/T//ccu5ioPi.s:6116   .debug_str:00000000000008fe .LASF44
/var/folders/rt/4gvqv631095f64jvm7jfj_000000gn/T//ccu5ioPi.s:5870   .debug_str:000000000000036a .LASF45
/var/folders/rt/4gvqv631095f64jvm7jfj_000000gn/T//ccu5ioPi.s:5872   .debug_str:0000000000000373 .LASF46
/var/folders/rt/4gvqv631095f64jvm7jfj_000000gn/T//ccu5ioPi.s:5962   .debug_str:0000000000000547 .LASF47
/var/folders/rt/4gvqv631095f64jvm7jfj_000000gn/T//ccu5ioPi.s:5702   .debug_str:000000000000000c .LASF48
/var/folders/rt/4gvqv631095f64jvm7jfj_000000gn/T//ccu5ioPi.s:5936   .debug_str:00000000000004b2 .LASF49
/var/folders/rt/4gvqv631095f64jvm7jfj_000000gn/T//ccu5ioPi.s:5784   .debug_str:00000000000001a7 .LASF50
/var/folders/rt/4gvqv631095f64jvm7jfj_000000gn/T//ccu5ioPi.s:6062   .debug_str:000000000000072a .LASF51
/var/folders/rt/4gvqv631095f64jvm7jfj_000000gn/T//ccu5ioPi.s:5908   .debug_str:0000000000000425 .LASF52
/var/folders/rt/4gvqv631095f64jvm7jfj_000000gn/T//ccu5ioPi.s:6056   .debug_str:000000000000070c .LASF53
/var/folders/rt/4gvqv631095f64jvm7jfj_000000gn/T//ccu5ioPi.s:5794   .debug_str:00000000000001d5 .LASF54
/var/folders/rt/4gvqv631095f64jvm7jfj_000000gn/T//ccu5ioPi.s:6150   .debug_str:00000000000009bd .LASF55
/var/folders/rt/4gvqv631095f64jvm7jfj_000000gn/T//ccu5ioPi.s:6096   .debug_str:0000000000000895 .LASF56
/var/folders/rt/4gvqv631095f64jvm7jfj_000000gn/T//ccu5ioPi.s:6044   .debug_str:00000000000006d8 .LASF57
/var/folders/rt/4gvqv631095f64jvm7jfj_000000gn/T//ccu5ioPi.s:5954   .debug_str:0000000000000513 .LASF58
/var/folders/rt/4gvqv631095f64jvm7jfj_000000gn/T//ccu5ioPi.s:5728   .debug_str:000000000000007e .LASF59
/var/folders/rt/4gvqv631095f64jvm7jfj_000000gn/T//ccu5ioPi.s:6040   .debug_str:00000000000006c7 .LASF60
/var/folders/rt/4gvqv631095f64jvm7jfj_000000gn/T//ccu5ioPi.s:6118   .debug_str:0000000000000908 .LASF61
/var/folders/rt/4gvqv631095f64jvm7jfj_000000gn/T//ccu5ioPi.s:5898   .debug_str:00000000000003f0 .LASF62
/var/folders/rt/4gvqv631095f64jvm7jfj_000000gn/T//ccu5ioPi.s:5852   .debug_str:0000000000000301 .LASF63
/var/folders/rt/4gvqv631095f64jvm7jfj_000000gn/T//ccu5ioPi.s:6028   .debug_str:0000000000000692 .LASF64
/var/folders/rt/4gvqv631095f64jvm7jfj_000000gn/T//ccu5ioPi.s:6030   .debug_str:000000000000069a .LASF65
/var/folders/rt/4gvqv631095f64jvm7jfj_000000gn/T//ccu5ioPi.s:5960   .debug_str:000000000000053c .LASF66
/var/folders/rt/4gvqv631095f64jvm7jfj_000000gn/T//ccu5ioPi.s:6094   .debug_str:000000000000088d .LASF67
/var/folders/rt/4gvqv631095f64jvm7jfj_000000gn/T//ccu5ioPi.s:5882   .debug_str:0000000000000396 .LASF68
/var/folders/rt/4gvqv631095f64jvm7jfj_000000gn/T//ccu5ioPi.s:5986   .debug_str:00000000000005cb .LASF69
/var/folders/rt/4gvqv631095f64jvm7jfj_000000gn/T//ccu5ioPi.s:5844   .debug_str:00000000000002e3 .LASF74
/var/folders/rt/4gvqv631095f64jvm7jfj_000000gn/T//ccu5ioPi.s:6072   .debug_str:000000000000075e .LASF70
/var/folders/rt/4gvqv631095f64jvm7jfj_000000gn/T//ccu5ioPi.s:6022   .debug_str:000000000000067d .LASF71
/var/folders/rt/4gvqv631095f64jvm7jfj_000000gn/T//ccu5ioPi.s:5836   .debug_str:00000000000002ba .LASF72
/var/folders/rt/4gvqv631095f64jvm7jfj_000000gn/T//ccu5ioPi.s:6112   .debug_str:00000000000008f3 .LASF73
/var/folders/rt/4gvqv631095f64jvm7jfj_000000gn/T//ccu5ioPi.s:5850   .debug_str:00000000000002fc .LASF75
/var/folders/rt/4gvqv631095f64jvm7jfj_000000gn/T//ccu5ioPi.s:5758   .debug_str:0000000000000138 .LASF76
/var/folders/rt/4gvqv631095f64jvm7jfj_000000gn/T//ccu5ioPi.s:6144   .debug_str:0000000000000995 .LASF77
/var/folders/rt/4gvqv631095f64jvm7jfj_000000gn/T//ccu5ioPi.s:5778   .debug_str:000000000000018a .LASF78
/var/folders/rt/4gvqv631095f64jvm7jfj_000000gn/T//ccu5ioPi.s:6162   .debug_str:00000000000009f3 .LASF79
/var/folders/rt/4gvqv631095f64jvm7jfj_000000gn/T//ccu5ioPi.s:5928   .debug_str:0000000000000485 .LASF80
/var/folders/rt/4gvqv631095f64jvm7jfj_000000gn/T//ccu5ioPi.s:5918   .debug_str:0000000000000456 .LASF81
/var/folders/rt/4gvqv631095f64jvm7jfj_000000gn/T//ccu5ioPi.s:6038   .debug_str:00000000000006bd .LASF82
/var/folders/rt/4gvqv631095f64jvm7jfj_000000gn/T//ccu5ioPi.s:5988   .debug_str:00000000000005d4 .LASF83
/var/folders/rt/4gvqv631095f64jvm7jfj_000000gn/T//ccu5ioPi.s:6138   .debug_str:000000000000096c .LASF84
/var/folders/rt/4gvqv631095f64jvm7jfj_000000gn/T//ccu5ioPi.s:5782   .debug_str:0000000000000199 .LASF85
GAS LISTING /var/folders/rt/4gvqv631095f64jvm7jfj_000000gn/T//ccu5ioPi.s 			page 30


/var/folders/rt/4gvqv631095f64jvm7jfj_000000gn/T//ccu5ioPi.s:5712   .debug_str:0000000000000037 .LASF86
/var/folders/rt/4gvqv631095f64jvm7jfj_000000gn/T//ccu5ioPi.s:5700   .debug_str:0000000000000000 .LASF87
/var/folders/rt/4gvqv631095f64jvm7jfj_000000gn/T//ccu5ioPi.s:6080   .debug_str:0000000000000803 .LASF88
/var/folders/rt/4gvqv631095f64jvm7jfj_000000gn/T//ccu5ioPi.s:5802   .debug_str:00000000000001f9 .LASF89
/var/folders/rt/4gvqv631095f64jvm7jfj_000000gn/T//ccu5ioPi.s:5942   .debug_str:00000000000004d3 .LASF90
/var/folders/rt/4gvqv631095f64jvm7jfj_000000gn/T//ccu5ioPi.s:6012   .debug_str:0000000000000643 .LASF91
/var/folders/rt/4gvqv631095f64jvm7jfj_000000gn/T//ccu5ioPi.s:5832   .debug_str:00000000000002aa .LASF92
/var/folders/rt/4gvqv631095f64jvm7jfj_000000gn/T//ccu5ioPi.s:5990   .debug_str:00000000000005de .LASF93
/var/folders/rt/4gvqv631095f64jvm7jfj_000000gn/T//ccu5ioPi.s:5776   .debug_str:0000000000000184 .LASF94
/var/folders/rt/4gvqv631095f64jvm7jfj_000000gn/T//ccu5ioPi.s:6052   .debug_str:00000000000006f9 .LASF95
/var/folders/rt/4gvqv631095f64jvm7jfj_000000gn/T//ccu5ioPi.s:5998   .debug_str:00000000000005fb .LASF96
/var/folders/rt/4gvqv631095f64jvm7jfj_000000gn/T//ccu5ioPi.s:5800   .debug_str:00000000000001f2 .LASF97
/var/folders/rt/4gvqv631095f64jvm7jfj_000000gn/T//ccu5ioPi.s:5866   .debug_str:000000000000035d .LASF98
/var/folders/rt/4gvqv631095f64jvm7jfj_000000gn/T//ccu5ioPi.s:6160   .debug_str:00000000000009ea .LASF99
/var/folders/rt/4gvqv631095f64jvm7jfj_000000gn/T//ccu5ioPi.s:5788   .debug_str:00000000000001bb .LASF100
/var/folders/rt/4gvqv631095f64jvm7jfj_000000gn/T//ccu5ioPi.s:5848   .debug_str:00000000000002f6 .LASF101
/var/folders/rt/4gvqv631095f64jvm7jfj_000000gn/T//ccu5ioPi.s:5916   .debug_str:000000000000044f .LASF102
/var/folders/rt/4gvqv631095f64jvm7jfj_000000gn/T//ccu5ioPi.s:6032   .debug_str:00000000000006a2 .LASF103
/var/folders/rt/4gvqv631095f64jvm7jfj_000000gn/T//ccu5ioPi.s:5766   .debug_str:0000000000000159 .LASF104
/var/folders/rt/4gvqv631095f64jvm7jfj_000000gn/T//ccu5ioPi.s:5774   .debug_str:000000000000017e .LASF105
/var/folders/rt/4gvqv631095f64jvm7jfj_000000gn/T//ccu5ioPi.s:6134   .debug_str:000000000000095e .LASF106
/var/folders/rt/4gvqv631095f64jvm7jfj_000000gn/T//ccu5ioPi.s:6050   .debug_str:00000000000006f0 .LASF107
/var/folders/rt/4gvqv631095f64jvm7jfj_000000gn/T//ccu5ioPi.s:5924   .debug_str:0000000000000470 .LASF108
/var/folders/rt/4gvqv631095f64jvm7jfj_000000gn/T//ccu5ioPi.s:5876   .debug_str:0000000000000384 .LASF109
/var/folders/rt/4gvqv631095f64jvm7jfj_000000gn/T//ccu5ioPi.s:5904   .debug_str:0000000000000419 .LASF110
/var/folders/rt/4gvqv631095f64jvm7jfj_000000gn/T//ccu5ioPi.s:6000   .debug_str:0000000000000603 .LASF111
/var/folders/rt/4gvqv631095f64jvm7jfj_000000gn/T//ccu5ioPi.s:5992   .debug_str:00000000000005e5 .LASF112
/var/folders/rt/4gvqv631095f64jvm7jfj_000000gn/T//ccu5ioPi.s:6024   .debug_str:0000000000000685 .LASF113
/var/folders/rt/4gvqv631095f64jvm7jfj_000000gn/T//ccu5ioPi.s:6046   .debug_str:00000000000006e4 .LASF114
/var/folders/rt/4gvqv631095f64jvm7jfj_000000gn/T//ccu5ioPi.s:5804   .debug_str:0000000000000201 .LASF115
/var/folders/rt/4gvqv631095f64jvm7jfj_000000gn/T//ccu5ioPi.s:5816   .debug_str:0000000000000243 .LASF116
/var/folders/rt/4gvqv631095f64jvm7jfj_000000gn/T//ccu5ioPi.s:5842   .debug_str:00000000000002db .LASF117
/var/folders/rt/4gvqv631095f64jvm7jfj_000000gn/T//ccu5ioPi.s:6010   .debug_str:000000000000063e .LASF118
/var/folders/rt/4gvqv631095f64jvm7jfj_000000gn/T//ccu5ioPi.s:5716   .debug_str:0000000000000047 .LASF119
/var/folders/rt/4gvqv631095f64jvm7jfj_000000gn/T//ccu5ioPi.s:6020   .debug_str:0000000000000664 .LASF120
/var/folders/rt/4gvqv631095f64jvm7jfj_000000gn/T//ccu5ioPi.s:6016   .debug_str:0000000000000652 .LASF121
/var/folders/rt/4gvqv631095f64jvm7jfj_000000gn/T//ccu5ioPi.s:5948   .debug_str:00000000000004f2 .LASF122
/var/folders/rt/4gvqv631095f64jvm7jfj_000000gn/T//ccu5ioPi.s:6018   .debug_str:000000000000065a .LASF123
/var/folders/rt/4gvqv631095f64jvm7jfj_000000gn/T//ccu5ioPi.s:5896   .debug_str:00000000000003e8 .LASF124
/var/folders/rt/4gvqv631095f64jvm7jfj_000000gn/T//ccu5ioPi.s:5808   .debug_str:000000000000021b .LASF125
/var/folders/rt/4gvqv631095f64jvm7jfj_000000gn/T//ccu5ioPi.s:6156   .debug_str:00000000000009e0 .LASF126
/var/folders/rt/4gvqv631095f64jvm7jfj_000000gn/T//ccu5ioPi.s:5958   .debug_str:0000000000000532 .LASF127
/var/folders/rt/4gvqv631095f64jvm7jfj_000000gn/T//ccu5ioPi.s:5862   .debug_str:0000000000000343 .LASF128
/var/folders/rt/4gvqv631095f64jvm7jfj_000000gn/T//ccu5ioPi.s:5818   .debug_str:000000000000024b .LASF129
/var/folders/rt/4gvqv631095f64jvm7jfj_000000gn/T//ccu5ioPi.s:5798   .debug_str:00000000000001ed .LASF130
/var/folders/rt/4gvqv631095f64jvm7jfj_000000gn/T//ccu5ioPi.s:5724   .debug_str:0000000000000070 .LASF131
/var/folders/rt/4gvqv631095f64jvm7jfj_000000gn/T//ccu5ioPi.s:6124   .debug_str:0000000000000927 .LASF132
/var/folders/rt/4gvqv631095f64jvm7jfj_000000gn/T//ccu5ioPi.s:5790   .debug_str:00000000000001c3 .LASF133
/var/folders/rt/4gvqv631095f64jvm7jfj_000000gn/T//ccu5ioPi.s:5780   .debug_str:0000000000000194 .LASF134
/var/folders/rt/4gvqv631095f64jvm7jfj_000000gn/T//ccu5ioPi.s:6048   .debug_str:00000000000006eb .LASF135
/var/folders/rt/4gvqv631095f64jvm7jfj_000000gn/T//ccu5ioPi.s:5996   .debug_str:00000000000005f4 .LASF136
/var/folders/rt/4gvqv631095f64jvm7jfj_000000gn/T//ccu5ioPi.s:6114   .debug_str:00000000000008f8 .LASF137
/var/folders/rt/4gvqv631095f64jvm7jfj_000000gn/T//ccu5ioPi.s:5878   .debug_str:000000000000038a .LASF138
/var/folders/rt/4gvqv631095f64jvm7jfj_000000gn/T//ccu5ioPi.s:5980   .debug_str:00000000000005aa .LASF139
/var/folders/rt/4gvqv631095f64jvm7jfj_000000gn/T//ccu5ioPi.s:5714   .debug_str:000000000000003f .LASF140
/var/folders/rt/4gvqv631095f64jvm7jfj_000000gn/T//ccu5ioPi.s:6026   .debug_str:000000000000068c .LASF141
/var/folders/rt/4gvqv631095f64jvm7jfj_000000gn/T//ccu5ioPi.s:5906   .debug_str:000000000000041f .LASF142
GAS LISTING /var/folders/rt/4gvqv631095f64jvm7jfj_000000gn/T//ccu5ioPi.s 			page 31


/var/folders/rt/4gvqv631095f64jvm7jfj_000000gn/T//ccu5ioPi.s:6090   .debug_str:0000000000000881 .LASF143
/var/folders/rt/4gvqv631095f64jvm7jfj_000000gn/T//ccu5ioPi.s:6106   .debug_str:00000000000008ce .LASF144
/var/folders/rt/4gvqv631095f64jvm7jfj_000000gn/T//ccu5ioPi.s:6074   .debug_str:0000000000000764 .LASF145
/var/folders/rt/4gvqv631095f64jvm7jfj_000000gn/T//ccu5ioPi.s:5890   .debug_str:00000000000003c7 .LASF146
/var/folders/rt/4gvqv631095f64jvm7jfj_000000gn/T//ccu5ioPi.s:6140   .debug_str:0000000000000977 .LASF147
/var/folders/rt/4gvqv631095f64jvm7jfj_000000gn/T//ccu5ioPi.s:5950   .debug_str:00000000000004fd .LASF148
/var/folders/rt/4gvqv631095f64jvm7jfj_000000gn/T//ccu5ioPi.s:5884   .debug_str:00000000000003a8 .LASF149
/var/folders/rt/4gvqv631095f64jvm7jfj_000000gn/T//ccu5ioPi.s:5934   .debug_str:00000000000004ad .LASF150
/var/folders/rt/4gvqv631095f64jvm7jfj_000000gn/T//ccu5ioPi.s:5946   .debug_str:00000000000004e5 .LASF151
/var/folders/rt/4gvqv631095f64jvm7jfj_000000gn/T//ccu5ioPi.s:6154   .debug_str:00000000000009d2 .LASF152
/var/folders/rt/4gvqv631095f64jvm7jfj_000000gn/T//ccu5ioPi.s:5756   .debug_str:000000000000012a .LASF153
/var/folders/rt/4gvqv631095f64jvm7jfj_000000gn/T//ccu5ioPi.s:6120   .debug_str:0000000000000911 .LASF154
/var/folders/rt/4gvqv631095f64jvm7jfj_000000gn/T//ccu5ioPi.s:5888   .debug_str:00000000000003bb .LASF155
/var/folders/rt/4gvqv631095f64jvm7jfj_000000gn/T//ccu5ioPi.s:5722   .debug_str:0000000000000063 .LASF156
/var/folders/rt/4gvqv631095f64jvm7jfj_000000gn/T//ccu5ioPi.s:5826   .debug_str:000000000000027d .LASF157
/var/folders/rt/4gvqv631095f64jvm7jfj_000000gn/T//ccu5ioPi.s:5754   .debug_str:000000000000011b .LASF158
/var/folders/rt/4gvqv631095f64jvm7jfj_000000gn/T//ccu5ioPi.s:5824   .debug_str:000000000000026c .LASF159
/var/folders/rt/4gvqv631095f64jvm7jfj_000000gn/T//ccu5ioPi.s:5732   .debug_str:000000000000008e .LASF160
/var/folders/rt/4gvqv631095f64jvm7jfj_000000gn/T//ccu5ioPi.s:5734   .debug_str:000000000000009d .LASF161
/var/folders/rt/4gvqv631095f64jvm7jfj_000000gn/T//ccu5ioPi.s:5984   .debug_str:00000000000005c2 .LASF162
/var/folders/rt/4gvqv631095f64jvm7jfj_000000gn/T//ccu5ioPi.s:5932   .debug_str:00000000000004a6 .LASF163
/var/folders/rt/4gvqv631095f64jvm7jfj_000000gn/T//ccu5ioPi.s:5920   .debug_str:0000000000000460 .LASF164
/var/folders/rt/4gvqv631095f64jvm7jfj_000000gn/T//ccu5ioPi.s:6136   .debug_str:0000000000000964 .LASF165
/var/folders/rt/4gvqv631095f64jvm7jfj_000000gn/T//ccu5ioPi.s:5748   .debug_str:00000000000000f6 .LASF230
/var/folders/rt/4gvqv631095f64jvm7jfj_000000gn/T//ccu5ioPi.s:5840   .debug_str:00000000000002cf .LASF167
/var/folders/rt/4gvqv631095f64jvm7jfj_000000gn/T//ccu5ioPi.s:6102   .debug_str:00000000000008b2 .LASF168
/var/folders/rt/4gvqv631095f64jvm7jfj_000000gn/T//ccu5ioPi.s:5944   .debug_str:00000000000004db .LASF169
/var/folders/rt/4gvqv631095f64jvm7jfj_000000gn/T//ccu5ioPi.s:5736   .debug_str:00000000000000ae .LASF170
/var/folders/rt/4gvqv631095f64jvm7jfj_000000gn/T//ccu5ioPi.s:6014   .debug_str:0000000000000648 .LASF171
/var/folders/rt/4gvqv631095f64jvm7jfj_000000gn/T//ccu5ioPi.s:5744   .debug_str:00000000000000e4 .LASF172
/var/folders/rt/4gvqv631095f64jvm7jfj_000000gn/T//ccu5ioPi.s:6006   .debug_str:0000000000000624 .LASF173
/var/folders/rt/4gvqv631095f64jvm7jfj_000000gn/T//ccu5ioPi.s:5880   .debug_str:0000000000000391 .LASF174
/var/folders/rt/4gvqv631095f64jvm7jfj_000000gn/T//ccu5ioPi.s:5772   .debug_str:0000000000000175 .LASF175
/var/folders/rt/4gvqv631095f64jvm7jfj_000000gn/T//ccu5ioPi.s:5822   .debug_str:000000000000025e .LASF176
/var/folders/rt/4gvqv631095f64jvm7jfj_000000gn/T//ccu5ioPi.s:5810   .debug_str:0000000000000225 .LASF177
/var/folders/rt/4gvqv631095f64jvm7jfj_000000gn/T//ccu5ioPi.s:6002   .debug_str:000000000000060c .LASF178
/var/folders/rt/4gvqv631095f64jvm7jfj_000000gn/T//ccu5ioPi.s:5846   .debug_str:00000000000002eb .LASF179
/var/folders/rt/4gvqv631095f64jvm7jfj_000000gn/T//ccu5ioPi.s:6158   .debug_str:00000000000009e5 .LASF188
/var/folders/rt/4gvqv631095f64jvm7jfj_000000gn/T//ccu5ioPi.s:699    .text.startup.main:0000000000000000 .LFB11
/var/folders/rt/4gvqv631095f64jvm7jfj_000000gn/T//ccu5ioPi.s:869    .text.startup.main:0000000000000150 .LFE11
/var/folders/rt/4gvqv631095f64jvm7jfj_000000gn/T//ccu5ioPi.s:4985   .debug_loc:0000000000000000 .LLST26
/var/folders/rt/4gvqv631095f64jvm7jfj_000000gn/T//ccu5ioPi.s:5003   .debug_loc:000000000000002e .LLST27
/var/folders/rt/4gvqv631095f64jvm7jfj_000000gn/T//ccu5ioPi.s:6128   .debug_str:000000000000093b .LASF180
/var/folders/rt/4gvqv631095f64jvm7jfj_000000gn/T//ccu5ioPi.s:5034   .debug_loc:000000000000007c .LLST28
/var/folders/rt/4gvqv631095f64jvm7jfj_000000gn/T//ccu5ioPi.s:5912   .debug_str:000000000000043f .LASF181
/var/folders/rt/4gvqv631095f64jvm7jfj_000000gn/T//ccu5ioPi.s:6004   .debug_str:0000000000000615 .LASF182
/var/folders/rt/4gvqv631095f64jvm7jfj_000000gn/T//ccu5ioPi.s:729    .text.startup.main:000000000000002c .LVL78
/var/folders/rt/4gvqv631095f64jvm7jfj_000000gn/T//ccu5ioPi.s:732    .text.startup.main:0000000000000034 .LVL79
/var/folders/rt/4gvqv631095f64jvm7jfj_000000gn/T//ccu5ioPi.s:735    .text.startup.main:000000000000003c .LVL80
/var/folders/rt/4gvqv631095f64jvm7jfj_000000gn/T//ccu5ioPi.s:738    .text.startup.main:0000000000000044 .LVL81
/var/folders/rt/4gvqv631095f64jvm7jfj_000000gn/T//ccu5ioPi.s:742    .text.startup.main:000000000000004e .LVL82
/var/folders/rt/4gvqv631095f64jvm7jfj_000000gn/T//ccu5ioPi.s:746    .text.startup.main:0000000000000058 .LVL83
/var/folders/rt/4gvqv631095f64jvm7jfj_000000gn/T//ccu5ioPi.s:750    .text.startup.main:0000000000000062 .LVL84
/var/folders/rt/4gvqv631095f64jvm7jfj_000000gn/T//ccu5ioPi.s:753    .text.startup.main:000000000000006a .LVL85
/var/folders/rt/4gvqv631095f64jvm7jfj_000000gn/T//ccu5ioPi.s:757    .text.startup.main:0000000000000074 .LVL86
/var/folders/rt/4gvqv631095f64jvm7jfj_000000gn/T//ccu5ioPi.s:783    .text.startup.main:00000000000000b0 .LVL87
/var/folders/rt/4gvqv631095f64jvm7jfj_000000gn/T//ccu5ioPi.s:789    .text.startup.main:00000000000000c0 .LVL88
GAS LISTING /var/folders/rt/4gvqv631095f64jvm7jfj_000000gn/T//ccu5ioPi.s 			page 32


/var/folders/rt/4gvqv631095f64jvm7jfj_000000gn/T//ccu5ioPi.s:797    .text.startup.main:00000000000000d6 .LVL89
/var/folders/rt/4gvqv631095f64jvm7jfj_000000gn/T//ccu5ioPi.s:818    .text.startup.main:00000000000000ea .LVL93
/var/folders/rt/4gvqv631095f64jvm7jfj_000000gn/T//ccu5ioPi.s:823    .text.startup.main:00000000000000f4 .LVL94
/var/folders/rt/4gvqv631095f64jvm7jfj_000000gn/T//ccu5ioPi.s:829    .text.startup.main:00000000000000fe .LVL96
/var/folders/rt/4gvqv631095f64jvm7jfj_000000gn/T//ccu5ioPi.s:837    .text.startup.main:000000000000010c .LVL97
/var/folders/rt/4gvqv631095f64jvm7jfj_000000gn/T//ccu5ioPi.s:844    .text.startup.main:0000000000000120 .LVL98
/var/folders/rt/4gvqv631095f64jvm7jfj_000000gn/T//ccu5ioPi.s:850    .text.startup.main:0000000000000132 .LVL99
/var/folders/rt/4gvqv631095f64jvm7jfj_000000gn/T//ccu5ioPi.s:860    .text.startup.main:0000000000000142 .LVL101
/var/folders/rt/4gvqv631095f64jvm7jfj_000000gn/T//ccu5ioPi.s:865    .text.startup.main:000000000000014e .LVL102
/var/folders/rt/4gvqv631095f64jvm7jfj_000000gn/T//ccu5ioPi.s:5806   .debug_str:0000000000000208 .LASF192
/var/folders/rt/4gvqv631095f64jvm7jfj_000000gn/T//ccu5ioPi.s:531    .text.updatePlantReading:0000000000000000 .LFB10
/var/folders/rt/4gvqv631095f64jvm7jfj_000000gn/T//ccu5ioPi.s:692    .text.updatePlantReading:00000000000000e0 .LFE10
/var/folders/rt/4gvqv631095f64jvm7jfj_000000gn/T//ccu5ioPi.s:5051   .debug_loc:00000000000000a7 .LLST15
/var/folders/rt/4gvqv631095f64jvm7jfj_000000gn/T//ccu5ioPi.s:5074   .debug_loc:00000000000000e1 .LLST16
/var/folders/rt/4gvqv631095f64jvm7jfj_000000gn/T//ccu5ioPi.s:5088   .debug_loc:0000000000000102 .LLST17
/var/folders/rt/4gvqv631095f64jvm7jfj_000000gn/T//ccu5ioPi.s:5110   .debug_loc:0000000000000139 .LLST18
/var/folders/rt/4gvqv631095f64jvm7jfj_000000gn/T//ccu5ioPi.s:5726   .debug_str:0000000000000079 .LASF183
/var/folders/rt/4gvqv631095f64jvm7jfj_000000gn/T//ccu5ioPi.s:5153   .debug_loc:00000000000001a1 .LLST19
/var/folders/rt/4gvqv631095f64jvm7jfj_000000gn/T//ccu5ioPi.s:5196   .debug_loc:0000000000000209 .LLST20
/var/folders/rt/4gvqv631095f64jvm7jfj_000000gn/T//ccu5ioPi.s:599    .text.updatePlantReading:0000000000000052 .LBB17
/var/folders/rt/4gvqv631095f64jvm7jfj_000000gn/T//ccu5ioPi.s:661    .text.updatePlantReading:00000000000000ca .LBE17
/var/folders/rt/4gvqv631095f64jvm7jfj_000000gn/T//ccu5ioPi.s:5786   .debug_str:00000000000001b1 .LASF184
/var/folders/rt/4gvqv631095f64jvm7jfj_000000gn/T//ccu5ioPi.s:5212   .debug_loc:0000000000000233 .LLST21
/var/folders/rt/4gvqv631095f64jvm7jfj_000000gn/T//ccu5ioPi.s:6122   .debug_str:000000000000091b .LASF185
/var/folders/rt/4gvqv631095f64jvm7jfj_000000gn/T//ccu5ioPi.s:5230   .debug_loc:0000000000000252 .LLST22
/var/folders/rt/4gvqv631095f64jvm7jfj_000000gn/T//ccu5ioPi.s:5914   .debug_str:0000000000000449 .LASF186
/var/folders/rt/4gvqv631095f64jvm7jfj_000000gn/T//ccu5ioPi.s:5237   .debug_loc:0000000000000265 .LLST23
/var/folders/rt/4gvqv631095f64jvm7jfj_000000gn/T//ccu5ioPi.s:5255   .debug_loc:0000000000000284 .LLST24
/var/folders/rt/4gvqv631095f64jvm7jfj_000000gn/T//ccu5ioPi.s:5276   .debug_loc:00000000000002a6 .LLST25
/var/folders/rt/4gvqv631095f64jvm7jfj_000000gn/T//ccu5ioPi.s:6036   .debug_str:00000000000006b1 .LASF187
/var/folders/rt/4gvqv631095f64jvm7jfj_000000gn/T//ccu5ioPi.s:606    .text.updatePlantReading:0000000000000064 .LVL66
/var/folders/rt/4gvqv631095f64jvm7jfj_000000gn/T//ccu5ioPi.s:616    .text.updatePlantReading:0000000000000072 .LVL69
/var/folders/rt/4gvqv631095f64jvm7jfj_000000gn/T//ccu5ioPi.s:639    .text.updatePlantReading:00000000000000a0 .LVL72
/var/folders/rt/4gvqv631095f64jvm7jfj_000000gn/T//ccu5ioPi.s:658    .text.updatePlantReading:00000000000000ca .LVL73
/var/folders/rt/4gvqv631095f64jvm7jfj_000000gn/T//ccu5ioPi.s:590    .text.updatePlantReading:0000000000000048 .LVL64
/var/folders/rt/4gvqv631095f64jvm7jfj_000000gn/T//ccu5ioPi.s:577    .text.updatePlantReading:0000000000000036 .LVL62
/var/folders/rt/4gvqv631095f64jvm7jfj_000000gn/T//ccu5ioPi.s:5926   .debug_str:0000000000000478 .LASF189
/var/folders/rt/4gvqv631095f64jvm7jfj_000000gn/T//ccu5ioPi.s:427    .text.fetchReading:0000000000000000 .LFB9
/var/folders/rt/4gvqv631095f64jvm7jfj_000000gn/T//ccu5ioPi.s:524    .text.fetchReading:0000000000000076 .LFE9
/var/folders/rt/4gvqv631095f64jvm7jfj_000000gn/T//ccu5ioPi.s:5292   .debug_loc:00000000000002c9 .LLST10
/var/folders/rt/4gvqv631095f64jvm7jfj_000000gn/T//ccu5ioPi.s:5922   .debug_str:0000000000000469 .LASF190
/var/folders/rt/4gvqv631095f64jvm7jfj_000000gn/T//ccu5ioPi.s:5315   .debug_loc:0000000000000301 .LLST11
/var/folders/rt/4gvqv631095f64jvm7jfj_000000gn/T//ccu5ioPi.s:5337   .debug_loc:0000000000000338 .LLST12
/var/folders/rt/4gvqv631095f64jvm7jfj_000000gn/T//ccu5ioPi.s:5952   .debug_str:000000000000050c .LASF191
/var/folders/rt/4gvqv631095f64jvm7jfj_000000gn/T//ccu5ioPi.s:5359   .debug_loc:000000000000036f .LLST13
/var/folders/rt/4gvqv631095f64jvm7jfj_000000gn/T//ccu5ioPi.s:5380   .debug_loc:00000000000003a5 .LLST14
/var/folders/rt/4gvqv631095f64jvm7jfj_000000gn/T//ccu5ioPi.s:457    .text.fetchReading:000000000000001c .LVL47
/var/folders/rt/4gvqv631095f64jvm7jfj_000000gn/T//ccu5ioPi.s:468    .text.fetchReading:000000000000002c .LVL49
/var/folders/rt/4gvqv631095f64jvm7jfj_000000gn/T//ccu5ioPi.s:475    .text.fetchReading:0000000000000038 .LVL50
/var/folders/rt/4gvqv631095f64jvm7jfj_000000gn/T//ccu5ioPi.s:482    .text.fetchReading:0000000000000046 .LVL52
/var/folders/rt/4gvqv631095f64jvm7jfj_000000gn/T//ccu5ioPi.s:518    .text.fetchReading:0000000000000072 .LVL57
/var/folders/rt/4gvqv631095f64jvm7jfj_000000gn/T//ccu5ioPi.s:6070   .debug_str:000000000000074f .LASF193
/var/folders/rt/4gvqv631095f64jvm7jfj_000000gn/T//ccu5ioPi.s:263    .text.renderOnePlant:0000000000000000 .LFB8
/var/folders/rt/4gvqv631095f64jvm7jfj_000000gn/T//ccu5ioPi.s:420    .text.renderOnePlant:0000000000000112 .LFE8
/var/folders/rt/4gvqv631095f64jvm7jfj_000000gn/T//ccu5ioPi.s:5392   .debug_loc:00000000000003be .LLST5
/var/folders/rt/4gvqv631095f64jvm7jfj_000000gn/T//ccu5ioPi.s:5415   .debug_loc:00000000000003f6 .LLST6
/var/folders/rt/4gvqv631095f64jvm7jfj_000000gn/T//ccu5ioPi.s:5429   .debug_loc:0000000000000417 .LLST7
GAS LISTING /var/folders/rt/4gvqv631095f64jvm7jfj_000000gn/T//ccu5ioPi.s 			page 33


/var/folders/rt/4gvqv631095f64jvm7jfj_000000gn/T//ccu5ioPi.s:5451   .debug_loc:000000000000044e .LLST8
/var/folders/rt/4gvqv631095f64jvm7jfj_000000gn/T//ccu5ioPi.s:5494   .debug_loc:00000000000004b6 .LLST9
/var/folders/rt/4gvqv631095f64jvm7jfj_000000gn/T//ccu5ioPi.s:315    .text.renderOnePlant:000000000000003c .LVL30
/var/folders/rt/4gvqv631095f64jvm7jfj_000000gn/T//ccu5ioPi.s:331    .text.renderOnePlant:000000000000005a .LVL33
/var/folders/rt/4gvqv631095f64jvm7jfj_000000gn/T//ccu5ioPi.s:339    .text.renderOnePlant:000000000000006e .LVL34
/var/folders/rt/4gvqv631095f64jvm7jfj_000000gn/T//ccu5ioPi.s:349    .text.renderOnePlant:0000000000000088 .LVL36
/var/folders/rt/4gvqv631095f64jvm7jfj_000000gn/T//ccu5ioPi.s:357    .text.renderOnePlant:00000000000000a0 .LVL37
/var/folders/rt/4gvqv631095f64jvm7jfj_000000gn/T//ccu5ioPi.s:365    .text.renderOnePlant:00000000000000b8 .LVL38
/var/folders/rt/4gvqv631095f64jvm7jfj_000000gn/T//ccu5ioPi.s:373    .text.renderOnePlant:00000000000000d0 .LVL39
/var/folders/rt/4gvqv631095f64jvm7jfj_000000gn/T//ccu5ioPi.s:381    .text.renderOnePlant:00000000000000ea .LVL40
/var/folders/rt/4gvqv631095f64jvm7jfj_000000gn/T//ccu5ioPi.s:409    .text.renderOnePlant:000000000000010e .LVL43
/var/folders/rt/4gvqv631095f64jvm7jfj_000000gn/T//ccu5ioPi.s:5910   .debug_str:000000000000042f .LASF194
/var/folders/rt/4gvqv631095f64jvm7jfj_000000gn/T//ccu5ioPi.s:116    .text.renderAllPlants:0000000000000000 .LFB7
/var/folders/rt/4gvqv631095f64jvm7jfj_000000gn/T//ccu5ioPi.s:256    .text.renderAllPlants:00000000000000cc .LFE7
/var/folders/rt/4gvqv631095f64jvm7jfj_000000gn/T//ccu5ioPi.s:5510   .debug_loc:00000000000004e0 .LLST1
/var/folders/rt/4gvqv631095f64jvm7jfj_000000gn/T//ccu5ioPi.s:5533   .debug_loc:0000000000000518 .LLST2
/var/folders/rt/4gvqv631095f64jvm7jfj_000000gn/T//ccu5ioPi.s:5547   .debug_loc:0000000000000539 .LLST3
/var/folders/rt/4gvqv631095f64jvm7jfj_000000gn/T//ccu5ioPi.s:5569   .debug_loc:0000000000000570 .LLST4
/var/folders/rt/4gvqv631095f64jvm7jfj_000000gn/T//ccu5ioPi.s:210    .text.renderAllPlants:0000000000000058 .LVL20
/var/folders/rt/4gvqv631095f64jvm7jfj_000000gn/T//ccu5ioPi.s:218    .text.renderAllPlants:000000000000006a .LVL21
/var/folders/rt/4gvqv631095f64jvm7jfj_000000gn/T//ccu5ioPi.s:227    .text.renderAllPlants:0000000000000082 .LVL22
/var/folders/rt/4gvqv631095f64jvm7jfj_000000gn/T//ccu5ioPi.s:235    .text.renderAllPlants:0000000000000098 .LVL23
/var/folders/rt/4gvqv631095f64jvm7jfj_000000gn/T//ccu5ioPi.s:243    .text.renderAllPlants:00000000000000ae .LVL24
/var/folders/rt/4gvqv631095f64jvm7jfj_000000gn/T//ccu5ioPi.s:251    .text.renderAllPlants:00000000000000c6 .LVL25
/var/folders/rt/4gvqv631095f64jvm7jfj_000000gn/T//ccu5ioPi.s:5894   .debug_str:00000000000003e0 .LASF231
/var/folders/rt/4gvqv631095f64jvm7jfj_000000gn/T//ccu5ioPi.s:14     .text.rtcInit:0000000000000000 .LFB6
/var/folders/rt/4gvqv631095f64jvm7jfj_000000gn/T//ccu5ioPi.s:109    .text.rtcInit:000000000000009e .LFE6
/var/folders/rt/4gvqv631095f64jvm7jfj_000000gn/T//ccu5ioPi.s:5595   .debug_loc:00000000000005b2 .LLST0
/var/folders/rt/4gvqv631095f64jvm7jfj_000000gn/T//ccu5ioPi.s:52     .text.rtcInit:0000000000000042 .LBB4
/var/folders/rt/4gvqv631095f64jvm7jfj_000000gn/T//ccu5ioPi.s:57     .text.rtcInit:000000000000004e .LVL6
/var/folders/rt/4gvqv631095f64jvm7jfj_000000gn/T//ccu5ioPi.s:62     .text.rtcInit:000000000000005c .LVL7
/var/folders/rt/4gvqv631095f64jvm7jfj_000000gn/T//ccu5ioPi.s:65     .text.rtcInit:0000000000000064 .LVL8
/var/folders/rt/4gvqv631095f64jvm7jfj_000000gn/T//ccu5ioPi.s:68     .text.rtcInit:000000000000006c .LVL9
/var/folders/rt/4gvqv631095f64jvm7jfj_000000gn/T//ccu5ioPi.s:73     .text.rtcInit:000000000000007a .LVL10
/var/folders/rt/4gvqv631095f64jvm7jfj_000000gn/T//ccu5ioPi.s:76     .text.rtcInit:0000000000000082 .LVL11
/var/folders/rt/4gvqv631095f64jvm7jfj_000000gn/T//ccu5ioPi.s:80     .text.rtcInit:000000000000008c .LVL12
/var/folders/rt/4gvqv631095f64jvm7jfj_000000gn/T//ccu5ioPi.s:95     .text.rtcInit:0000000000000098 .LVL13
/var/folders/rt/4gvqv631095f64jvm7jfj_000000gn/T//ccu5ioPi.s:30     .text.rtcInit:0000000000000010 .LVL0
/var/folders/rt/4gvqv631095f64jvm7jfj_000000gn/T//ccu5ioPi.s:33     .text.rtcInit:0000000000000018 .LVL1
/var/folders/rt/4gvqv631095f64jvm7jfj_000000gn/T//ccu5ioPi.s:37     .text.rtcInit:0000000000000024 .LVL2
/var/folders/rt/4gvqv631095f64jvm7jfj_000000gn/T//ccu5ioPi.s:40     .text.rtcInit:000000000000002c .LVL3
/var/folders/rt/4gvqv631095f64jvm7jfj_000000gn/T//ccu5ioPi.s:44     .text.rtcInit:0000000000000036 .LVL4
/var/folders/rt/4gvqv631095f64jvm7jfj_000000gn/T//ccu5ioPi.s:49     .text.rtcInit:0000000000000040 .LVL5
/var/folders/rt/4gvqv631095f64jvm7jfj_000000gn/T//ccu5ioPi.s:6092   .debug_str:0000000000000886 .LASF195
/var/folders/rt/4gvqv631095f64jvm7jfj_000000gn/T//ccu5ioPi.s:6110   .debug_str:00000000000008eb .LASF196
/var/folders/rt/4gvqv631095f64jvm7jfj_000000gn/T//ccu5ioPi.s:5976   .debug_str:0000000000000594 .LASF197
/var/folders/rt/4gvqv631095f64jvm7jfj_000000gn/T//ccu5ioPi.s:6148   .debug_str:00000000000009ad .LASF198
/var/folders/rt/4gvqv631095f64jvm7jfj_000000gn/T//ccu5ioPi.s:6108   .debug_str:00000000000008db .LASF199
/var/folders/rt/4gvqv631095f64jvm7jfj_000000gn/T//ccu5ioPi.s:6008   .debug_str:0000000000000632 .LASF200
/var/folders/rt/4gvqv631095f64jvm7jfj_000000gn/T//ccu5ioPi.s:6152   .debug_str:00000000000009c9 .LASF201
/var/folders/rt/4gvqv631095f64jvm7jfj_000000gn/T//ccu5ioPi.s:5792   .debug_str:00000000000001cb .LASF202
/var/folders/rt/4gvqv631095f64jvm7jfj_000000gn/T//ccu5ioPi.s:6126   .debug_str:0000000000000931 .LASF203
/var/folders/rt/4gvqv631095f64jvm7jfj_000000gn/T//ccu5ioPi.s:5994   .debug_str:00000000000005ed .LASF204
/var/folders/rt/4gvqv631095f64jvm7jfj_000000gn/T//ccu5ioPi.s:5762   .debug_str:000000000000014a .LASF205
/var/folders/rt/4gvqv631095f64jvm7jfj_000000gn/T//ccu5ioPi.s:6064   .debug_str:0000000000000734 .LASF206
/var/folders/rt/4gvqv631095f64jvm7jfj_000000gn/T//ccu5ioPi.s:5868   .debug_str:0000000000000363 .LASF207
/var/folders/rt/4gvqv631095f64jvm7jfj_000000gn/T//ccu5ioPi.s:5752   .debug_str:000000000000010b .LASF208
GAS LISTING /var/folders/rt/4gvqv631095f64jvm7jfj_000000gn/T//ccu5ioPi.s 			page 34


/var/folders/rt/4gvqv631095f64jvm7jfj_000000gn/T//ccu5ioPi.s:6100   .debug_str:00000000000008a9 .LASF209
/var/folders/rt/4gvqv631095f64jvm7jfj_000000gn/T//ccu5ioPi.s:5710   .debug_str:0000000000000030 .LASF210
/var/folders/rt/4gvqv631095f64jvm7jfj_000000gn/T//ccu5ioPi.s:6068   .debug_str:0000000000000743 .LASF211
/var/folders/rt/4gvqv631095f64jvm7jfj_000000gn/T//ccu5ioPi.s:5902   .debug_str:00000000000003fd .LASF212
/var/folders/rt/4gvqv631095f64jvm7jfj_000000gn/T//ccu5ioPi.s:5796   .debug_str:00000000000001e0 .LASF213
/var/folders/rt/4gvqv631095f64jvm7jfj_000000gn/T//ccu5ioPi.s:5830   .debug_str:0000000000000294 .LASF214
/var/folders/rt/4gvqv631095f64jvm7jfj_000000gn/T//ccu5ioPi.s:6146   .debug_str:000000000000099e .LASF215
/var/folders/rt/4gvqv631095f64jvm7jfj_000000gn/T//ccu5ioPi.s:6084   .debug_str:000000000000084f .LASF216
/var/folders/rt/4gvqv631095f64jvm7jfj_000000gn/T//ccu5ioPi.s:6130   .debug_str:0000000000000940 .LASF217
/var/folders/rt/4gvqv631095f64jvm7jfj_000000gn/T//ccu5ioPi.s:5930   .debug_str:000000000000048e .LASF218
/var/folders/rt/4gvqv631095f64jvm7jfj_000000gn/T//ccu5ioPi.s:5860   .debug_str:000000000000032c .LASF219
/var/folders/rt/4gvqv631095f64jvm7jfj_000000gn/T//ccu5ioPi.s:6142   .debug_str:0000000000000986 .LASF220
/var/folders/rt/4gvqv631095f64jvm7jfj_000000gn/T//ccu5ioPi.s:5982   .debug_str:00000000000005b0 .LASF221
/var/folders/rt/4gvqv631095f64jvm7jfj_000000gn/T//ccu5ioPi.s:5838   .debug_str:00000000000002c0 .LASF222
/var/folders/rt/4gvqv631095f64jvm7jfj_000000gn/T//ccu5ioPi.s:5956   .debug_str:000000000000051a .LASF223
/var/folders/rt/4gvqv631095f64jvm7jfj_000000gn/T//ccu5ioPi.s:5820   .debug_str:0000000000000253 .LASF224
/var/folders/rt/4gvqv631095f64jvm7jfj_000000gn/T//ccu5ioPi.s:5892   .debug_str:00000000000003d4 .LASF225
/var/folders/rt/4gvqv631095f64jvm7jfj_000000gn/T//ccu5ioPi.s:6088   .debug_str:000000000000086e .LASF226
/var/folders/rt/4gvqv631095f64jvm7jfj_000000gn/T//ccu5ioPi.s:708    .text.startup.main:0000000000000006 .LCFI16
/var/folders/rt/4gvqv631095f64jvm7jfj_000000gn/T//ccu5ioPi.s:718    .text.startup.main:0000000000000024 .LCFI17
/var/folders/rt/4gvqv631095f64jvm7jfj_000000gn/T//ccu5ioPi.s:703    .text.startup.main:0000000000000000 .LVL77
/var/folders/rt/4gvqv631095f64jvm7jfj_000000gn/T//ccu5ioPi.s:804    .text.startup.main:00000000000000de .LVL90
/var/folders/rt/4gvqv631095f64jvm7jfj_000000gn/T//ccu5ioPi.s:808    .text.startup.main:00000000000000e0 .LVL91
/var/folders/rt/4gvqv631095f64jvm7jfj_000000gn/T//ccu5ioPi.s:826    .text.startup.main:00000000000000f6 .LVL95
/var/folders/rt/4gvqv631095f64jvm7jfj_000000gn/T//ccu5ioPi.s:854    .text.startup.main:0000000000000134 .LVL100
/var/folders/rt/4gvqv631095f64jvm7jfj_000000gn/T//ccu5ioPi.s:541    .text.updatePlantReading:0000000000000002 .LCFI13
/var/folders/rt/4gvqv631095f64jvm7jfj_000000gn/T//ccu5ioPi.s:677    .text.updatePlantReading:00000000000000d6 .LCFI14
/var/folders/rt/4gvqv631095f64jvm7jfj_000000gn/T//ccu5ioPi.s:682    .text.updatePlantReading:00000000000000d8 .LCFI15
/var/folders/rt/4gvqv631095f64jvm7jfj_000000gn/T//ccu5ioPi.s:534    .text.updatePlantReading:0000000000000000 .LVL58
/var/folders/rt/4gvqv631095f64jvm7jfj_000000gn/T//ccu5ioPi.s:561    .text.updatePlantReading:0000000000000014 .LVL59
/var/folders/rt/4gvqv631095f64jvm7jfj_000000gn/T//ccu5ioPi.s:673    .text.updatePlantReading:00000000000000d2 .LVL74
/var/folders/rt/4gvqv631095f64jvm7jfj_000000gn/T//ccu5ioPi.s:680    .text.updatePlantReading:00000000000000d8 .LVL75
/var/folders/rt/4gvqv631095f64jvm7jfj_000000gn/T//ccu5ioPi.s:570    .text.updatePlantReading:000000000000001e .LVL61
/var/folders/rt/4gvqv631095f64jvm7jfj_000000gn/T//ccu5ioPi.s:579    .text.updatePlantReading:0000000000000038 .LVL63
/var/folders/rt/4gvqv631095f64jvm7jfj_000000gn/T//ccu5ioPi.s:595    .text.updatePlantReading:000000000000004e .LVL65
/var/folders/rt/4gvqv631095f64jvm7jfj_000000gn/T//ccu5ioPi.s:568    .text.updatePlantReading:000000000000001a .LVL60
/var/folders/rt/4gvqv631095f64jvm7jfj_000000gn/T//ccu5ioPi.s:609    .text.updatePlantReading:0000000000000068 .LVL67
/var/folders/rt/4gvqv631095f64jvm7jfj_000000gn/T//ccu5ioPi.s:611    .text.updatePlantReading:000000000000006a .LVL68
/var/folders/rt/4gvqv631095f64jvm7jfj_000000gn/T//ccu5ioPi.s:634    .text.updatePlantReading:000000000000008c .LVL71
/var/folders/rt/4gvqv631095f64jvm7jfj_000000gn/T//ccu5ioPi.s:631    .text.updatePlantReading:0000000000000086 .LVL70
/var/folders/rt/4gvqv631095f64jvm7jfj_000000gn/T//ccu5ioPi.s:434    .text.fetchReading:0000000000000002 .LCFI10
/var/folders/rt/4gvqv631095f64jvm7jfj_000000gn/T//ccu5ioPi.s:501    .text.fetchReading:0000000000000054 .LCFI11
/var/folders/rt/4gvqv631095f64jvm7jfj_000000gn/T//ccu5ioPi.s:506    .text.fetchReading:0000000000000056 .LCFI12
/var/folders/rt/4gvqv631095f64jvm7jfj_000000gn/T//ccu5ioPi.s:430    .text.fetchReading:0000000000000000 .LVL45
/var/folders/rt/4gvqv631095f64jvm7jfj_000000gn/T//ccu5ioPi.s:490    .text.fetchReading:000000000000004a .LVL53
/var/folders/rt/4gvqv631095f64jvm7jfj_000000gn/T//ccu5ioPi.s:504    .text.fetchReading:0000000000000056 .LVL56
/var/folders/rt/4gvqv631095f64jvm7jfj_000000gn/T//ccu5ioPi.s:441    .text.fetchReading:0000000000000008 .LVL46
/var/folders/rt/4gvqv631095f64jvm7jfj_000000gn/T//ccu5ioPi.s:494    .text.fetchReading:000000000000004e .LVL54
/var/folders/rt/4gvqv631095f64jvm7jfj_000000gn/T//ccu5ioPi.s:462    .text.fetchReading:0000000000000020 .LVL48
/var/folders/rt/4gvqv631095f64jvm7jfj_000000gn/T//ccu5ioPi.s:477    .text.fetchReading:000000000000003a .LVL51
/var/folders/rt/4gvqv631095f64jvm7jfj_000000gn/T//ccu5ioPi.s:497    .text.fetchReading:0000000000000050 .LVL55
/var/folders/rt/4gvqv631095f64jvm7jfj_000000gn/T//ccu5ioPi.s:273    .text.renderOnePlant:0000000000000002 .LCFI7
/var/folders/rt/4gvqv631095f64jvm7jfj_000000gn/T//ccu5ioPi.s:405    .text.renderOnePlant:0000000000000106 .LCFI8
/var/folders/rt/4gvqv631095f64jvm7jfj_000000gn/T//ccu5ioPi.s:411    .text.renderOnePlant:000000000000010e .LCFI9
/var/folders/rt/4gvqv631095f64jvm7jfj_000000gn/T//ccu5ioPi.s:266    .text.renderOnePlant:0000000000000000 .LVL26
/var/folders/rt/4gvqv631095f64jvm7jfj_000000gn/T//ccu5ioPi.s:291    .text.renderOnePlant:0000000000000012 .LVL27
/var/folders/rt/4gvqv631095f64jvm7jfj_000000gn/T//ccu5ioPi.s:403    .text.renderOnePlant:0000000000000104 .LVL42
GAS LISTING /var/folders/rt/4gvqv631095f64jvm7jfj_000000gn/T//ccu5ioPi.s 			page 35


/var/folders/rt/4gvqv631095f64jvm7jfj_000000gn/T//ccu5ioPi.s:299    .text.renderOnePlant:000000000000001c .LVL28
/var/folders/rt/4gvqv631095f64jvm7jfj_000000gn/T//ccu5ioPi.s:306    .text.renderOnePlant:000000000000002e .LVL29
/var/folders/rt/4gvqv631095f64jvm7jfj_000000gn/T//ccu5ioPi.s:322    .text.renderOnePlant:0000000000000046 .LVL31
/var/folders/rt/4gvqv631095f64jvm7jfj_000000gn/T//ccu5ioPi.s:328    .text.renderOnePlant:0000000000000050 .LVL32
/var/folders/rt/4gvqv631095f64jvm7jfj_000000gn/T//ccu5ioPi.s:388    .text.renderOnePlant:00000000000000fa .LVL41
/var/folders/rt/4gvqv631095f64jvm7jfj_000000gn/T//ccu5ioPi.s:342    .text.renderOnePlant:0000000000000072 .LVL35
/var/folders/rt/4gvqv631095f64jvm7jfj_000000gn/T//ccu5ioPi.s:126    .text.renderAllPlants:0000000000000002 .LCFI4
/var/folders/rt/4gvqv631095f64jvm7jfj_000000gn/T//ccu5ioPi.s:190    .text.renderAllPlants:000000000000003e .LCFI5
/var/folders/rt/4gvqv631095f64jvm7jfj_000000gn/T//ccu5ioPi.s:195    .text.renderAllPlants:0000000000000040 .LCFI6
/var/folders/rt/4gvqv631095f64jvm7jfj_000000gn/T//ccu5ioPi.s:119    .text.renderAllPlants:0000000000000000 .LVL14
/var/folders/rt/4gvqv631095f64jvm7jfj_000000gn/T//ccu5ioPi.s:162    .text.renderAllPlants:0000000000000026 .LVL15
/var/folders/rt/4gvqv631095f64jvm7jfj_000000gn/T//ccu5ioPi.s:186    .text.renderAllPlants:000000000000003a .LVL17
/var/folders/rt/4gvqv631095f64jvm7jfj_000000gn/T//ccu5ioPi.s:193    .text.renderAllPlants:0000000000000040 .LVL18
/var/folders/rt/4gvqv631095f64jvm7jfj_000000gn/T//ccu5ioPi.s:179    .text.renderAllPlants:0000000000000034 .LVL16
/var/folders/rt/4gvqv631095f64jvm7jfj_000000gn/T//ccu5ioPi.s:206    .text.renderAllPlants:000000000000004e .LVL19
/var/folders/rt/4gvqv631095f64jvm7jfj_000000gn/T//ccu5ioPi.s:21     .text.rtcInit:0000000000000002 .LCFI0
/var/folders/rt/4gvqv631095f64jvm7jfj_000000gn/T//ccu5ioPi.s:89     .text.rtcInit:0000000000000090 .LCFI1
/var/folders/rt/4gvqv631095f64jvm7jfj_000000gn/T//ccu5ioPi.s:97     .text.rtcInit:0000000000000098 .LCFI2
/var/folders/rt/4gvqv631095f64jvm7jfj_000000gn/T//ccu5ioPi.s:105    .text.rtcInit:000000000000009c .LCFI3
/var/folders/rt/4gvqv631095f64jvm7jfj_000000gn/T//ccu5ioPi.s:922    .debug_info:0000000000000000 .Ldebug_info0
/var/folders/rt/4gvqv631095f64jvm7jfj_000000gn/T//ccu5ioPi.s:83     .text.rtcInit:000000000000008c .LBE4
/var/folders/rt/4gvqv631095f64jvm7jfj_000000gn/T//ccu5ioPi.s:91     .text.rtcInit:0000000000000090 .LBB7
/var/folders/rt/4gvqv631095f64jvm7jfj_000000gn/T//ccu5ioPi.s:100    .text.rtcInit:0000000000000098 .LBE7
/var/folders/rt/4gvqv631095f64jvm7jfj_000000gn/T//ccu5ioPi.s:121    .text.renderAllPlants:0000000000000000 .LBB8
/var/folders/rt/4gvqv631095f64jvm7jfj_000000gn/T//ccu5ioPi.s:123    .text.renderAllPlants:0000000000000000 .LBE8
/var/folders/rt/4gvqv631095f64jvm7jfj_000000gn/T//ccu5ioPi.s:130    .text.renderAllPlants:0000000000000004 .LBB9
/var/folders/rt/4gvqv631095f64jvm7jfj_000000gn/T//ccu5ioPi.s:133    .text.renderAllPlants:0000000000000006 .LBE9
/var/folders/rt/4gvqv631095f64jvm7jfj_000000gn/T//ccu5ioPi.s:154    .text.renderAllPlants:000000000000001a .LBB10
/var/folders/rt/4gvqv631095f64jvm7jfj_000000gn/T//ccu5ioPi.s:166    .text.renderAllPlants:000000000000002a .LBE10
/var/folders/rt/4gvqv631095f64jvm7jfj_000000gn/T//ccu5ioPi.s:197    .text.renderAllPlants:0000000000000040 .LBB11
/var/folders/rt/4gvqv631095f64jvm7jfj_000000gn/T//ccu5ioPi.s:254    .text.renderAllPlants:00000000000000cc .LBE11
/var/folders/rt/4gvqv631095f64jvm7jfj_000000gn/T//ccu5ioPi.s:268    .text.renderOnePlant:0000000000000000 .LBB12
/var/folders/rt/4gvqv631095f64jvm7jfj_000000gn/T//ccu5ioPi.s:270    .text.renderOnePlant:0000000000000000 .LBE12
/var/folders/rt/4gvqv631095f64jvm7jfj_000000gn/T//ccu5ioPi.s:288    .text.renderOnePlant:0000000000000010 .LBB13
/var/folders/rt/4gvqv631095f64jvm7jfj_000000gn/T//ccu5ioPi.s:295    .text.renderOnePlant:0000000000000016 .LBE13
/var/folders/rt/4gvqv631095f64jvm7jfj_000000gn/T//ccu5ioPi.s:308    .text.renderOnePlant:000000000000002e .LBB14
/var/folders/rt/4gvqv631095f64jvm7jfj_000000gn/T//ccu5ioPi.s:390    .text.renderOnePlant:00000000000000fa .LBE14
/var/folders/rt/4gvqv631095f64jvm7jfj_000000gn/T//ccu5ioPi.s:413    .text.renderOnePlant:000000000000010e .LBB15
/var/folders/rt/4gvqv631095f64jvm7jfj_000000gn/T//ccu5ioPi.s:418    .text.renderOnePlant:0000000000000112 .LBE15
/var/folders/rt/4gvqv631095f64jvm7jfj_000000gn/T//ccu5ioPi.s:536    .text.updatePlantReading:0000000000000000 .LBB16
/var/folders/rt/4gvqv631095f64jvm7jfj_000000gn/T//ccu5ioPi.s:538    .text.updatePlantReading:0000000000000000 .LBE16
/var/folders/rt/4gvqv631095f64jvm7jfj_000000gn/T//ccu5ioPi.s:556    .text.updatePlantReading:0000000000000010 .LBB18
/var/folders/rt/4gvqv631095f64jvm7jfj_000000gn/T//ccu5ioPi.s:565    .text.updatePlantReading:0000000000000018 .LBE18
/var/folders/rt/4gvqv631095f64jvm7jfj_000000gn/T//ccu5ioPi.s:581    .text.updatePlantReading:0000000000000038 .LBB19
/var/folders/rt/4gvqv631095f64jvm7jfj_000000gn/T//ccu5ioPi.s:662    .text.updatePlantReading:00000000000000ca .LBE19
/var/folders/rt/4gvqv631095f64jvm7jfj_000000gn/T//ccu5ioPi.s:684    .text.updatePlantReading:00000000000000d8 .LBB20
/var/folders/rt/4gvqv631095f64jvm7jfj_000000gn/T//ccu5ioPi.s:690    .text.updatePlantReading:00000000000000e0 .LBE20

UNDEFINED SYMBOLS
rcu_periph_clock_enable
pmu_backup_write_enable
bkp_deinit
rcu_osci_on
rcu_osci_stab_wait
rcu_rtc_clock_config
rtc_register_sync_wait
rtc_lwoff_wait
GAS LISTING /var/folders/rt/4gvqv631095f64jvm7jfj_000000gn/T//ccu5ioPi.s 			page 36


rtc_prescaler_set
rtc_flag_clear
LCD_ShowStr
LCD_ShowNum
strcmp
adc_software_trigger_enable
adc_flag_get
adc_regular_data_read
adc_flag_clear
rtc_counter_get
snprintf
t5omsi
colinit
l88init
rtc_counter_set
ADC3powerUpInit
Lcd_SetType
Lcd_Init
LCD_Clear
initPlant
t5expq
colset
l88row
l88mem
