GAS LISTING /var/folders/rt/4gvqv631095f64jvm7jfj_000000gn/T//ccYBEDSz.s 			page 1


   1              		.file	"main.c"
   2              		.option nopic
   3              		.attribute arch, "rv32i2p0_m2p0_a2p0_c2p0"
   4              		.attribute unaligned_access, 0
   5              		.attribute stack_align, 16
   6              		.text
   7              	.Ltext0:
   8              		.cfi_sections	.debug_frame
   9              		.section	.text.renderLCD,"ax",@progbits
  10              		.align	1
  11              		.globl	renderLCD
  13              	renderLCD:
  14              	.LFB6:
  15              		.file 1 "main.c"
   1:main.c        **** #include "gd32vf103.h"
   2:main.c        **** #include "drivers.h"
   3:main.c        **** #include "adc.h"
   4:main.c        **** #include "lcd.h"
   5:main.c        **** #include "plant.h"
   6:main.c        **** #include <string.h>
   7:main.c        **** #include <stdio.h>
   8:main.c        **** #define EI 1
   9:main.c        **** #define DI 0
  10:main.c        **** 
  11:main.c        **** // KTH code was from: https://gms.tf/riscv-gd32vf103.html#realtime-clock-rtc
  12:main.c        **** // Byter till annan klocka.
  13:main.c        **** 
  14:main.c        **** 
  15:main.c        **** void renderLCD(Plant allPlants[], int numberOfPlants)
  16:main.c        **** {
  16              		.loc 1 16 1
  17              		.cfi_startproc
  18              	.LVL0:
  17:main.c        ****   for (int i = 0; i < numberOfPlants; i++)
  19              		.loc 1 17 3
  20              	.LBB4:
  21              		.loc 1 17 8
  22              	.LBE4:
  16:main.c        ****   for (int i = 0; i < numberOfPlants; i++)
  23              		.loc 1 16 1 is_stmt 0
  24 0000 7971     		addi	sp,sp,-48
  25              	.LCFI0:
  26              		.cfi_def_cfa_offset 48
  27 0002 22D4     		sw	s0,40(sp)
  28              		.cfi_offset 8, -8
  29              	.LBB5:
  18:main.c        ****   {
  19:main.c        ****     LCD_ShowStr(i * 55, 0, allPlants[i].name, WHITE, TRANSPARENT);
  30              		.loc 1 19 5
  31 0004 4164     		li	s0,65536
  32              	.LBE5:
  16:main.c        ****   for (int i = 0; i < numberOfPlants; i++)
  33              		.loc 1 16 1
  34 0006 26D2     		sw	s1,36(sp)
  35 0008 4ECE     		sw	s3,28(sp)
  36 000a 52CC     		sw	s4,24(sp)
  37 000c 5AC8     		sw	s6,16(sp)
GAS LISTING /var/folders/rt/4gvqv631095f64jvm7jfj_000000gn/T//ccYBEDSz.s 			page 2


  38 000e 5EC6     		sw	s7,12(sp)
  39 0010 06D6     		sw	ra,44(sp)
  40 0012 4AD0     		sw	s2,32(sp)
  41 0014 56CA     		sw	s5,20(sp)
  42              		.cfi_offset 9, -12
  43              		.cfi_offset 19, -20
  44              		.cfi_offset 20, -24
  45              		.cfi_offset 22, -32
  46              		.cfi_offset 23, -36
  47              		.cfi_offset 1, -4
  48              		.cfi_offset 18, -16
  49              		.cfi_offset 21, -28
  16:main.c        ****   for (int i = 0; i < numberOfPlants; i++)
  50              		.loc 1 16 1
  51 0016 2E8B     		mv	s6,a1
  52 0018 AA84     		mv	s1,a0
  53              	.LBB6:
  17:main.c        ****   {
  54              		.loc 1 17 12
  55 001a 8149     		li	s3,0
  56 001c 930B7003 		li	s7,55
  57              		.loc 1 19 5
  58 0020 7D14     		addi	s0,s0,-1
  20:main.c        ****     LCD_ShowNum(i * 55, 20, allPlants[i].moisture[0].reading, 3, WHITE);
  21:main.c        ****     LCD_ShowStr(i * 55 + 30, 20, "%", WHITE, TRANSPARENT);
  59              		.loc 1 21 5
  60 0022 370A0000 		lui	s4,%hi(.LC0)
  61              	.LVL1:
  62              	.L2:
  17:main.c        ****   {
  63              		.loc 1 17 3 discriminator 1
  64 0026 63CD6901 		blt	s3,s6,.L3
  65              	.LBE6:
  22:main.c        ****     LCD_ShowNum(i * 55, 40, allPlants[i].sun[0].reading, 3, WHITE);
  23:main.c        ****     LCD_ShowStr(i * 55 + 30, 40, "%", WHITE, TRANSPARENT);
  24:main.c        ****     LCD_ShowStr(i * 55, 60, allPlants[i].currentStatus, GBLUE, TRANSPARENT);
  25:main.c        ****   }
  26:main.c        **** }
  66              		.loc 1 26 1
  67 002a B250     		lw	ra,44(sp)
  68              		.cfi_remember_state
  69              		.cfi_restore 1
  70 002c 2254     		lw	s0,40(sp)
  71              		.cfi_restore 8
  72 002e 9254     		lw	s1,36(sp)
  73              		.cfi_restore 9
  74 0030 0259     		lw	s2,32(sp)
  75              		.cfi_restore 18
  76 0032 F249     		lw	s3,28(sp)
  77              		.cfi_restore 19
  78              	.LVL2:
  79 0034 624A     		lw	s4,24(sp)
  80              		.cfi_restore 20
  81 0036 D24A     		lw	s5,20(sp)
  82              		.cfi_restore 21
  83 0038 424B     		lw	s6,16(sp)
  84              		.cfi_restore 22
GAS LISTING /var/folders/rt/4gvqv631095f64jvm7jfj_000000gn/T//ccYBEDSz.s 			page 3


  85              	.LVL3:
  86 003a B24B     		lw	s7,12(sp)
  87              		.cfi_restore 23
  88 003c 4561     		addi	sp,sp,48
  89              	.LCFI1:
  90              		.cfi_def_cfa_offset 0
  91 003e 8280     		jr	ra
  92              	.LVL4:
  93              	.L3:
  94              	.LCFI2:
  95              		.cfi_restore_state
  96              	.LBB7:
  19:main.c        ****     LCD_ShowNum(i * 55, 20, allPlants[i].moisture[0].reading, 3, WHITE);
  97              		.loc 1 19 5 is_stmt 1 discriminator 3
  98 0040 33897903 		mul	s2,s3,s7
  99 0044 2686     		mv	a2,s1
 100 0046 0547     		li	a4,1
 101 0048 A286     		mv	a3,s0
 102 004a 8145     		li	a1,0
  17:main.c        ****   {
 103              		.loc 1 17 40 is_stmt 0 discriminator 3
 104 004c 8509     		addi	s3,s3,1
 105              	.LVL5:
  19:main.c        ****     LCD_ShowNum(i * 55, 20, allPlants[i].moisture[0].reading, 3, WHITE);
 106              		.loc 1 19 5 discriminator 3
 107 004e 4A85     		mv	a0,s2
 108 0050 97000000 		call	LCD_ShowStr
 108      E7800000 
 109              	.LVL6:
  20:main.c        ****     LCD_ShowStr(i * 55 + 30, 20, "%", WHITE, TRANSPARENT);
 110              		.loc 1 20 5 is_stmt 1 discriminator 3
 111 0058 D04C     		lw	a2,28(s1)
 112 005a 2287     		mv	a4,s0
 113 005c 8D46     		li	a3,3
 114 005e D145     		li	a1,20
 115 0060 4A85     		mv	a0,s2
 116 0062 97000000 		call	LCD_ShowNum
 116      E7800000 
 117              	.LVL7:
  21:main.c        ****     LCD_ShowNum(i * 55, 40, allPlants[i].sun[0].reading, 3, WHITE);
 118              		.loc 1 21 5 discriminator 3
 119 006a 930AE901 		addi	s5,s2,30
 120 006e 0547     		li	a4,1
 121 0070 A286     		mv	a3,s0
 122 0072 13060A00 		addi	a2,s4,%lo(.LC0)
 123 0076 D145     		li	a1,20
 124 0078 5685     		mv	a0,s5
 125 007a 97000000 		call	LCD_ShowStr
 125      E7800000 
 126              	.LVL8:
  22:main.c        ****     LCD_ShowStr(i * 55 + 30, 40, "%", WHITE, TRANSPARENT);
 127              		.loc 1 22 5 discriminator 3
 128 0082 03A6C43D 		lw	a2,988(s1)
 129 0086 2287     		mv	a4,s0
 130 0088 8D46     		li	a3,3
 131 008a 93058002 		li	a1,40
 132 008e 4A85     		mv	a0,s2
GAS LISTING /var/folders/rt/4gvqv631095f64jvm7jfj_000000gn/T//ccYBEDSz.s 			page 4


 133 0090 97000000 		call	LCD_ShowNum
 133      E7800000 
 134              	.LVL9:
  23:main.c        ****     LCD_ShowStr(i * 55, 60, allPlants[i].currentStatus, GBLUE, TRANSPARENT);
 135              		.loc 1 23 5 discriminator 3
 136 0098 0547     		li	a4,1
 137 009a A286     		mv	a3,s0
 138 009c 13060A00 		addi	a2,s4,%lo(.LC0)
 139 00a0 93058002 		li	a1,40
 140 00a4 5685     		mv	a0,s5
 141 00a6 97000000 		call	LCD_ShowStr
 141      E7800000 
 142              	.LVL10:
  24:main.c        ****   }
 143              		.loc 1 24 5 discriminator 3
 144 00ae 1386C478 		addi	a2,s1,1932
 145 00b2 0547     		li	a4,1
 146 00b4 9306F07F 		li	a3,2047
 147 00b8 9305C003 		li	a1,60
 148 00bc 4A85     		mv	a0,s2
 149 00be 97000000 		call	LCD_ShowStr
 149      E7800000 
 150              	.LVL11:
 151 00c6 93848479 		addi	s1,s1,1944
 152 00ca B1BF     		j	.L2
 153              	.LBE7:
 154              		.cfi_endproc
 155              	.LFE6:
 157              		.section	.text.fetchReading,"ax",@progbits
 158              		.align	1
 159              		.globl	fetchReading
 161              	fetchReading:
 162              	.LFB7:
  27:main.c        **** 
  28:main.c        **** int fetchReading(uint32_t source, uint32_t EOC)
  29:main.c        **** {
 163              		.loc 1 29 1
 164              		.cfi_startproc
 165              	.LVL12:
  30:main.c        ****   adc_software_trigger_enable(source, ADC_REGULAR_CHANNEL);
 166              		.loc 1 30 3
  29:main.c        ****   adc_software_trigger_enable(source, ADC_REGULAR_CHANNEL);
 167              		.loc 1 29 1 is_stmt 0
 168 0000 0111     		addi	sp,sp,-32
 169              	.LCFI3:
 170              		.cfi_def_cfa_offset 32
 171 0002 26CA     		sw	s1,20(sp)
 172              		.cfi_offset 9, -12
 173 0004 AE84     		mv	s1,a1
 174              		.loc 1 30 3
 175 0006 8545     		li	a1,1
 176              	.LVL13:
  29:main.c        ****   adc_software_trigger_enable(source, ADC_REGULAR_CHANNEL);
 177              		.loc 1 29 1
 178 0008 22CC     		sw	s0,24(sp)
 179 000a 4AC8     		sw	s2,16(sp)
 180 000c 4EC6     		sw	s3,12(sp)
GAS LISTING /var/folders/rt/4gvqv631095f64jvm7jfj_000000gn/T//ccYBEDSz.s 			page 5


 181 000e 06CE     		sw	ra,28(sp)
 182              		.cfi_offset 8, -8
 183              		.cfi_offset 18, -16
 184              		.cfi_offset 19, -20
 185              		.cfi_offset 1, -4
  29:main.c        ****   adc_software_trigger_enable(source, ADC_REGULAR_CHANNEL);
 186              		.loc 1 29 1
 187 0010 2A84     		mv	s0,a0
  31:main.c        ****   int called = 0;
 188              		.loc 1 31 7
 189 0012 0149     		li	s2,0
  30:main.c        ****   adc_software_trigger_enable(source, ADC_REGULAR_CHANNEL);
 190              		.loc 1 30 3
 191 0014 97000000 		call	adc_software_trigger_enable
 191      E7800000 
 192              	.LVL14:
 193              		.loc 1 31 3 is_stmt 1
  32:main.c        ****   while (!adc_flag_get(source, EOC))
 194              		.loc 1 32 3
  33:main.c        ****   { // blocking
  34:main.c        ****     if (!called)
  35:main.c        ****     {
  36:main.c        ****       LCD_ShowStr(50, 4, "reads sensor", GREEN, TRANSPARENT);
 195              		.loc 1 36 7 is_stmt 0
 196 001c B7090000 		lui	s3,%hi(.LC1)
 197              	.LVL15:
 198              	.L7:
  32:main.c        ****   while (!adc_flag_get(source, EOC))
 199              		.loc 1 32 11
 200 0020 A685     		mv	a1,s1
 201 0022 2285     		mv	a0,s0
 202 0024 97000000 		call	adc_flag_get
 202      E7800000 
 203              	.LVL16:
  32:main.c        ****   while (!adc_flag_get(source, EOC))
 204              		.loc 1 32 9
 205 002c 0DC5     		beq	a0,zero,.L8
  37:main.c        ****       called = 1;
  38:main.c        ****     }
  39:main.c        ****   }
  40:main.c        ****   int reading = adc_regular_data_read(source);
 206              		.loc 1 40 3 is_stmt 1
 207              		.loc 1 40 17 is_stmt 0
 208 002e 2285     		mv	a0,s0
 209 0030 97000000 		call	adc_regular_data_read
 209      E7800000 
 210              	.LVL17:
 211 0038 2A89     		mv	s2,a0
 212              	.LVL18:
  41:main.c        ****   adc_flag_clear(source, EOC);
 213              		.loc 1 41 3 is_stmt 1
 214 003a A685     		mv	a1,s1
 215 003c 2285     		mv	a0,s0
 216 003e 97000000 		call	adc_flag_clear
 216      E7800000 
 217              	.LVL19:
  42:main.c        ****   return reading;
GAS LISTING /var/folders/rt/4gvqv631095f64jvm7jfj_000000gn/T//ccYBEDSz.s 			page 6


 218              		.loc 1 42 3
  43:main.c        **** }
 219              		.loc 1 43 1 is_stmt 0
 220 0046 F240     		lw	ra,28(sp)
 221              		.cfi_remember_state
 222              		.cfi_restore 1
 223 0048 6244     		lw	s0,24(sp)
 224              		.cfi_restore 8
 225              	.LVL20:
 226 004a 4A85     		mv	a0,s2
 227 004c D244     		lw	s1,20(sp)
 228              		.cfi_restore 9
 229              	.LVL21:
 230 004e 4249     		lw	s2,16(sp)
 231              		.cfi_restore 18
 232              	.LVL22:
 233 0050 B249     		lw	s3,12(sp)
 234              		.cfi_restore 19
 235 0052 0561     		addi	sp,sp,32
 236              	.LCFI4:
 237              		.cfi_def_cfa_offset 0
 238 0054 8280     		jr	ra
 239              	.LVL23:
 240              	.L8:
 241              	.LCFI5:
 242              		.cfi_restore_state
  34:main.c        ****     {
 243              		.loc 1 34 5 is_stmt 1
  34:main.c        ****     {
 244              		.loc 1 34 8 is_stmt 0
 245 0056 E31509FC 		bne	s2,zero,.L7
  36:main.c        ****       called = 1;
 246              		.loc 1 36 7 is_stmt 1
 247 005a 0547     		li	a4,1
 248 005c 9306007E 		li	a3,2016
 249 0060 13860900 		addi	a2,s3,%lo(.LC1)
 250 0064 9145     		li	a1,4
 251 0066 13052003 		li	a0,50
 252 006a 97000000 		call	LCD_ShowStr
 252      E7800000 
 253              	.LVL24:
  37:main.c        ****     }
 254              		.loc 1 37 7
  37:main.c        ****     }
 255              		.loc 1 37 14 is_stmt 0
 256 0072 0549     		li	s2,1
 257 0074 75B7     		j	.L7
 258              		.cfi_endproc
 259              	.LFE7:
 261              		.globl	__floatsidf
 262              		.globl	__divdf3
 263              		.globl	__fixdfsi
 264              		.section	.text.updatePlantReading,"ax",@progbits
 265              		.align	1
 266              		.globl	updatePlantReading
 268              	updatePlantReading:
 269              	.LFB8:
GAS LISTING /var/folders/rt/4gvqv631095f64jvm7jfj_000000gn/T//ccYBEDSz.s 			page 7


  44:main.c        **** 
  45:main.c        **** void updatePlantReading(Plant allPlants[], int numberOfPlants, char name[], SensorType type)
  46:main.c        **** {
 270              		.loc 1 46 1 is_stmt 1
 271              		.cfi_startproc
 272              	.LVL25:
 273 0000 7971     		addi	sp,sp,-48
 274              	.LCFI6:
 275              		.cfi_def_cfa_offset 48
 276 0002 22D4     		sw	s0,40(sp)
 277 0004 26D2     		sw	s1,36(sp)
 278 0006 4AD0     		sw	s2,32(sp)
 279 0008 4ECE     		sw	s3,28(sp)
 280 000a 06D6     		sw	ra,44(sp)
 281              		.cfi_offset 8, -8
 282              		.cfi_offset 9, -12
 283              		.cfi_offset 18, -16
 284              		.cfi_offset 19, -20
 285              		.cfi_offset 1, -4
 286              		.loc 1 46 1 is_stmt 0
 287 000c 2E89     		mv	s2,a1
  47:main.c        ****   for (int i = 0; i < numberOfPlants; i++)
 288              		.loc 1 47 3 is_stmt 1
 289              	.LBB14:
 290              		.loc 1 47 8
 291              	.LVL26:
 292 000e 2A84     		mv	s0,a0
 293              		.loc 1 47 12 is_stmt 0
 294 0010 8144     		li	s1,0
  48:main.c        ****   {
  49:main.c        ****     if (strcmp(allPlants[i].name, name) == 0)
  50:main.c        ****     {
  51:main.c        ****       if (type == SUN)
 295              		.loc 1 51 10
 296 0012 8549     		li	s3,1
 297              	.LVL27:
 298              	.L12:
  47:main.c        ****   for (int i = 0; i < numberOfPlants; i++)
 299              		.loc 1 47 3 discriminator 1
 300 0014 63C72403 		blt	s1,s2,.L15
 301              	.LVL28:
 302              	.LBE14:
 303              	.LBB16:
 304              	.LBB17:
  52:main.c        ****       {
  53:main.c        ****         int tempValue = 360 - fetchReading(ADC0, ADC_FLAG_EOC); // 360 verkar vara maxvärde i full
  54:main.c        ****         allPlants[i].sun[0].reading = tempValue / 3.6;          // i procent.
  55:main.c        ****                                                                 // I framtiden måste alla befintli
  56:main.c        ****         return;
  57:main.c        ****       }
  58:main.c        ****     }
  59:main.c        ****   }
  60:main.c        ****   LCD_ShowStr(50, 4, "NO SUCH PLANT", RED, TRANSPARENT);
 305              		.loc 1 60 3 is_stmt 1
 306              	.LBE17:
 307              	.LBE16:
  61:main.c        **** }
GAS LISTING /var/folders/rt/4gvqv631095f64jvm7jfj_000000gn/T//ccYBEDSz.s 			page 8


 308              		.loc 1 61 1 is_stmt 0
 309 0018 2254     		lw	s0,40(sp)
 310              		.cfi_remember_state
 311              		.cfi_restore 8
 312 001a B250     		lw	ra,44(sp)
 313              		.cfi_restore 1
 314 001c 9254     		lw	s1,36(sp)
 315              		.cfi_restore 9
 316              	.LVL29:
 317 001e 0259     		lw	s2,32(sp)
 318              		.cfi_restore 18
 319              	.LVL30:
 320 0020 F249     		lw	s3,28(sp)
 321              		.cfi_restore 19
 322              	.LBB21:
 323              	.LBB18:
  60:main.c        **** }
 324              		.loc 1 60 3
 325 0022 C166     		li	a3,65536
 326              	.LVL31:
 327 0024 37060000 		lui	a2,%hi(.LC3)
 328              	.LVL32:
 329              	.LBE18:
 330              	.LBE21:
 331              		.loc 1 61 1
 332              	.LBB22:
 333              	.LBB19:
  60:main.c        **** }
 334              		.loc 1 60 3
 335 0028 0547     		li	a4,1
 336 002a 93860680 		addi	a3,a3,-2048
 337 002e 13060600 		addi	a2,a2,%lo(.LC3)
 338 0032 9145     		li	a1,4
 339 0034 13052003 		li	a0,50
 340              	.LBE19:
 341              	.LBE22:
 342              		.loc 1 61 1
 343 0038 4561     		addi	sp,sp,48
 344              	.LCFI7:
 345              		.cfi_def_cfa_offset 0
 346              	.LBB23:
 347              	.LBB20:
  60:main.c        **** }
 348              		.loc 1 60 3
 349 003a 17030000 		tail	LCD_ShowStr
 349      67000300 
 350              	.LVL33:
 351              	.L15:
 352              	.LCFI8:
 353              		.cfi_restore_state
 354              	.LBE20:
 355              	.LBE23:
 356              	.LBB24:
  49:main.c        ****     {
 357              		.loc 1 49 9
 358 0042 B285     		mv	a1,a2
 359 0044 2285     		mv	a0,s0
GAS LISTING /var/folders/rt/4gvqv631095f64jvm7jfj_000000gn/T//ccYBEDSz.s 			page 9


 360 0046 36C6     		sw	a3,12(sp)
  49:main.c        ****     {
 361              		.loc 1 49 5 is_stmt 1
  49:main.c        ****     {
 362              		.loc 1 49 9 is_stmt 0
 363 0048 32C4     		sw	a2,8(sp)
 364 004a 97000000 		call	strcmp
 364      E7800000 
 365              	.LVL34:
  49:main.c        ****     {
 366              		.loc 1 49 8
 367 0052 2246     		lw	a2,8(sp)
 368 0054 B246     		lw	a3,12(sp)
 369 0056 39E9     		bne	a0,zero,.L13
 370              	.LVL35:
  51:main.c        ****       {
 371              		.loc 1 51 7 is_stmt 1
  51:main.c        ****       {
 372              		.loc 1 51 10 is_stmt 0
 373 0058 639A3605 		bne	a3,s3,.L13
 374              	.LBB15:
  53:main.c        ****         allPlants[i].sun[0].reading = tempValue / 3.6;          // i procent.
 375              		.loc 1 53 9 is_stmt 1
  53:main.c        ****         allPlants[i].sun[0].reading = tempValue / 3.6;          // i procent.
 376              		.loc 1 53 31 is_stmt 0
 377 005c 37250140 		li	a0,1073815552
 378 0060 8945     		li	a1,2
 379 0062 13050540 		addi	a0,a0,1024
 380 0066 97000000 		call	fetchReading
 380      E7800000 
 381              	.LVL36:
  54:main.c        ****                                                                 // I framtiden måste alla befintli
 382              		.loc 1 54 9 is_stmt 1
  54:main.c        ****                                                                 // I framtiden måste alla befintli
 383              		.loc 1 54 49 is_stmt 0
 384 006e 93078016 		li	a5,360
 385 0072 3385A740 		sub	a0,a5,a0
 386              	.LVL37:
 387 0076 97000000 		call	__floatsidf
 387      E7800000 
 388              	.LVL38:
 389 007e B7070000 		lui	a5,%hi(.LC2)
 390 0082 03A60700 		lw	a2,%lo(.LC2)(a5)
 391 0086 83A64700 		lw	a3,%lo(.LC2+4)(a5)
 392 008a 97000000 		call	__divdf3
 392      E7800000 
 393              	.LVL39:
  54:main.c        ****                                                                 // I framtiden måste alla befintli
 394              		.loc 1 54 37
 395 0092 97000000 		call	__fixdfsi
 395      E7800000 
 396              	.LVL40:
 397 009a 232EA43C 		sw	a0,988(s0)
  56:main.c        ****       }
 398              		.loc 1 56 9 is_stmt 1
 399              	.LBE15:
 400              	.LBE24:
GAS LISTING /var/folders/rt/4gvqv631095f64jvm7jfj_000000gn/T//ccYBEDSz.s 			page 10


 401              		.loc 1 61 1 is_stmt 0
 402 009e B250     		lw	ra,44(sp)
 403              		.cfi_remember_state
 404              		.cfi_restore 1
 405 00a0 2254     		lw	s0,40(sp)
 406              		.cfi_restore 8
 407 00a2 9254     		lw	s1,36(sp)
 408              		.cfi_restore 9
 409              	.LVL41:
 410 00a4 0259     		lw	s2,32(sp)
 411              		.cfi_restore 18
 412              	.LVL42:
 413 00a6 F249     		lw	s3,28(sp)
 414              		.cfi_restore 19
 415 00a8 4561     		addi	sp,sp,48
 416              	.LCFI9:
 417              		.cfi_def_cfa_offset 0
 418              	.LVL43:
 419 00aa 8280     		jr	ra
 420              	.LVL44:
 421              	.L13:
 422              	.LCFI10:
 423              		.cfi_restore_state
 424              	.LBB25:
  47:main.c        ****   {
 425              		.loc 1 47 40 discriminator 2
 426 00ac 8504     		addi	s1,s1,1
 427              	.LVL45:
 428 00ae 13048479 		addi	s0,s0,1944
 429 00b2 8DB7     		j	.L12
 430              	.LBE25:
 431              		.cfi_endproc
 432              	.LFE8:
 434              		.section	.text.startup.main,"ax",@progbits
 435              		.align	1
 436              		.globl	main
 438              	main:
 439              	.LFB9:
  62:main.c        **** 
  63:main.c        **** 
  64:main.c        **** int main(void)
  65:main.c        **** {
 440              		.loc 1 65 1 is_stmt 1
 441              		.cfi_startproc
  66:main.c        ****   int ms = 0, s = 0, idle = 0;
 442              		.loc 1 66 3
 443              	.LVL46:
  67:main.c        ****   // int lookUpTbl[16] = {1, 4, 7, 14, 2, 5, 8, 0, 3, 6, 9, 15, 10, 11, 12, 13};
  68:main.c        **** 
  69:main.c        ****   t5omsi();  // Initialize timer5 1kHz
 444              		.loc 1 69 3
  65:main.c        ****   int ms = 0, s = 0, idle = 0;
 445              		.loc 1 65 1 is_stmt 0
 446 0000 7D73     		li	t1,-4096
 447 0002 13010191 		addi	sp,sp,-1776
 448              	.LCFI11:
 449              		.cfi_def_cfa_offset 1776
GAS LISTING /var/folders/rt/4gvqv631095f64jvm7jfj_000000gn/T//ccYBEDSz.s 			page 11


 450 0006 2326116E 		sw	ra,1772(sp)
 451 000a 2324816E 		sw	s0,1768(sp)
 452 000e 2322916E 		sw	s1,1764(sp)
 453 0012 2320216F 		sw	s2,1760(sp)
 454 0016 232E316D 		sw	s3,1756(sp)
 455 001a 232C416D 		sw	s4,1752(sp)
 456 001e 232A516D 		sw	s5,1748(sp)
 457 0022 1A91     		add	sp,sp,t1
 458              	.LCFI12:
 459              		.cfi_def_cfa_offset 5872
 460              		.cfi_offset 1, -4
 461              		.cfi_offset 8, -8
 462              		.cfi_offset 9, -12
 463              		.cfi_offset 18, -16
 464              		.cfi_offset 19, -20
 465              		.cfi_offset 20, -24
 466              		.cfi_offset 21, -28
 467              		.loc 1 69 3
 468 0024 97000000 		call	t5omsi
 468      E7800000 
 469              	.LVL47:
  70:main.c        ****   colinit(); // Initialize column toolbox
 470              		.loc 1 70 3 is_stmt 1
 471 002c 97000000 		call	colinit
 471      E7800000 
 472              	.LVL48:
  71:main.c        ****   l88init(); // Initialize 8*8 led toolbox
 473              		.loc 1 71 3
 474 0034 97000000 		call	l88init
 474      E7800000 
 475              	.LVL49:
  72:main.c        ****   // keyinit();          // Initialize keyboard toolbox
  73:main.c        ****   //eclic_global_interrupt_enable();
  74:main.c        **** 
  75:main.c        ****   ADC3powerUpInit(0); // Initialize ADC0, Ch3
 476              		.loc 1 75 3
 477 003c 0145     		li	a0,0
 478 003e 97000000 		call	ADC3powerUpInit
 478      E7800000 
 479              	.LVL50:
  76:main.c        **** 
  77:main.c        ****   Lcd_SetType(LCD_INVERTED); 
 480              		.loc 1 77 3
 481 0046 0545     		li	a0,1
 482 0048 97000000 		call	Lcd_SetType
 482      E7800000 
 483              	.LVL51:
  78:main.c        ****   Lcd_Init();
 484              		.loc 1 78 3
 485 0050 97000000 		call	Lcd_Init
 485      E7800000 
 486              	.LVL52:
  79:main.c        ****   LCD_Clear(BLACK);
 487              		.loc 1 79 3
 488 0058 0145     		li	a0,0
 489 005a 97000000 		call	LCD_Clear
 489      E7800000 
GAS LISTING /var/folders/rt/4gvqv631095f64jvm7jfj_000000gn/T//ccYBEDSz.s 			page 12


 490              	.LVL53:
  80:main.c        **** 
  81:main.c        ****   Plant allPlants[3];
 491              		.loc 1 81 3
  82:main.c        ****   int numberOfPlants = 0;
 492              		.loc 1 82 3
 493              		.loc 1 82 7 is_stmt 0
 494 0062 8567     		li	a5,4096
 495 0064 1387076D 		addi	a4,a5,1744
 496 0068 FD74     		li	s1,-4096
 497 006a 0A97     		add	a4,a4,sp
 498 006c 33099700 		add	s2,a4,s1
  83:main.c        ****   initPlant("Gurka", &numberOfPlants, allPlants);
 499              		.loc 1 83 3
 500 0070 1387076D 		addi	a4,a5,1744
 501 0074 0A97     		add	a4,a4,sp
 502 0076 13848493 		addi	s0,s1,-1736
 503 007a 93844493 		addi	s1,s1,-1740
 504 007e BA94     		add	s1,a4,s1
 505 0080 3A94     		add	s0,a4,s0
 506 0082 37050000 		lui	a0,%hi(.LC4)
 507 0086 A685     		mv	a1,s1
 508 0088 2286     		mv	a2,s0
 509 008a 13050500 		addi	a0,a0,%lo(.LC4)
  82:main.c        ****   int numberOfPlants = 0;
 510              		.loc 1 82 7
 511 008e 232A0992 		sw	zero,-1740(s2)
 512              		.loc 1 83 3 is_stmt 1
  84:main.c        ****   initPlant("Tomat", &numberOfPlants, allPlants);
 513              		.loc 1 84 3 is_stmt 0
 514 0092 370A0000 		lui	s4,%hi(.LC5)
  83:main.c        ****   initPlant("Gurka", &numberOfPlants, allPlants);
 515              		.loc 1 83 3
 516 0096 97000000 		call	initPlant
 516      E7800000 
 517              	.LVL54:
 518              		.loc 1 84 3 is_stmt 1
 519 009e A685     		mv	a1,s1
 520 00a0 2286     		mv	a2,s0
 521 00a2 13050A00 		addi	a0,s4,%lo(.LC5)
 522 00a6 97000000 		call	initPlant
 522      E7800000 
 523              	.LVL55:
  85:main.c        ****   initPlant("Chili", &numberOfPlants, allPlants);
 524              		.loc 1 85 3
 525 00ae 37050000 		lui	a0,%hi(.LC6)
 526 00b2 A685     		mv	a1,s1
 527 00b4 2286     		mv	a2,s0
 528 00b6 13050500 		addi	a0,a0,%lo(.LC6)
 529 00ba 97000000 		call	initPlant
 529      E7800000 
 530              	.LVL56:
  66:main.c        ****   // int lookUpTbl[16] = {1, 4, 7, 14, 2, 5, 8, 0, 3, 6, 9, 15, 10, 11, 12, 13};
 531              		.loc 1 66 7 is_stmt 0
 532 00c2 8149     		li	s3,0
  86:main.c        **** 
  87:main.c        ****   while (1)
GAS LISTING /var/folders/rt/4gvqv631095f64jvm7jfj_000000gn/T//ccYBEDSz.s 			page 13


  88:main.c        ****   {
  89:main.c        ****     idle++; // Manage Async events
  90:main.c        ****     
  91:main.c        ****     if (t5expq())
  92:main.c        ****     {                   // Manage periodic tasks
  93:main.c        ****       l88row(colset()); // ...8*8LED and Keyboard
  94:main.c        ****       ms++;             // ...One second heart beat
  95:main.c        ****       if (ms == 1000)
 533              		.loc 1 95 10
 534 00c4 930A803E 		li	s5,1000
  96:main.c        ****       {
  97:main.c        ****         updatePlantReading(allPlants, numberOfPlants, "Tomat", SUN);
 535              		.loc 1 97 9
 536 00c8 CA84     		mv	s1,s2
 537              	.LVL57:
 538              	.L21:
  66:main.c        ****   // int lookUpTbl[16] = {1, 4, 7, 14, 2, 5, 8, 0, 3, 6, 9, 15, 10, 11, 12, 13};
 539              		.loc 1 66 7
 540 00ca 0149     		li	s2,0
 541              	.LVL58:
 542              	.L19:
  87:main.c        ****   {
 543              		.loc 1 87 3 is_stmt 1
  89:main.c        ****     
 544              		.loc 1 89 5
  89:main.c        ****     
 545              		.loc 1 89 9 is_stmt 0
 546 00cc 0509     		addi	s2,s2,1
 547              	.LVL59:
  91:main.c        ****     {                   // Manage periodic tasks
 548              		.loc 1 91 5 is_stmt 1
  91:main.c        ****     {                   // Manage periodic tasks
 549              		.loc 1 91 9 is_stmt 0
 550 00ce 97000000 		call	t5expq
 550      E7800000 
 551              	.LVL60:
  91:main.c        ****     {                   // Manage periodic tasks
 552              		.loc 1 91 8
 553 00d6 7DD9     		beq	a0,zero,.L19
  93:main.c        ****       ms++;             // ...One second heart beat
 554              		.loc 1 93 7 is_stmt 1
 555 00d8 97000000 		call	colset
 555      E7800000 
 556              	.LVL61:
  94:main.c        ****       if (ms == 1000)
 557              		.loc 1 94 9 is_stmt 0
 558 00e0 8509     		addi	s3,s3,1
 559              	.LVL62:
  93:main.c        ****       ms++;             // ...One second heart beat
 560              		.loc 1 93 7
 561 00e2 97000000 		call	l88row
 561      E7800000 
 562              	.LVL63:
  94:main.c        ****       if (ms == 1000)
 563              		.loc 1 94 7 is_stmt 1
  95:main.c        ****       {
 564              		.loc 1 95 7
GAS LISTING /var/folders/rt/4gvqv631095f64jvm7jfj_000000gn/T//ccYBEDSz.s 			page 14


  95:main.c        ****       {
 565              		.loc 1 95 10 is_stmt 0
 566 00ea 63945903 		bne	s3,s5,.L20
 567              		.loc 1 97 9 is_stmt 1
 568 00ee 83A54493 		lw	a1,-1740(s1)
 569 00f2 8546     		li	a3,1
 570 00f4 13060A00 		addi	a2,s4,%lo(.LC5)
 571 00f8 2285     		mv	a0,s0
 572 00fa 97000000 		call	updatePlantReading
 572      E7800000 
 573              	.LVL64:
  98:main.c        ****         renderLCD(allPlants, numberOfPlants);
 574              		.loc 1 98 9
 575 0102 83A54493 		lw	a1,-1740(s1)
 576 0106 2285     		mv	a0,s0
  99:main.c        ****         ms = 0;
 577              		.loc 1 99 12 is_stmt 0
 578 0108 8149     		li	s3,0
 579              	.LVL65:
  98:main.c        ****         renderLCD(allPlants, numberOfPlants);
 580              		.loc 1 98 9
 581 010a 97000000 		call	renderLCD
 581      E7800000 
 582              	.LVL66:
 583              		.loc 1 99 9 is_stmt 1
 584              	.L20:
 100:main.c        ****       }
 101:main.c        ****       l88mem(0, idle >> 8); // ...Performance monitor
 585              		.loc 1 101 7
 586 0112 93558940 		srai	a1,s2,8
 587 0116 0145     		li	a0,0
 588 0118 97000000 		call	l88mem
 588      E7800000 
 589              	.LVL67:
 102:main.c        ****       l88mem(1, idle);
 590              		.loc 1 102 7
 591 0120 CA85     		mv	a1,s2
 592 0122 0545     		li	a0,1
 593 0124 97000000 		call	l88mem
 593      E7800000 
 594              	.LVL68:
 103:main.c        ****       idle = 0;
 595              		.loc 1 103 7
 596 012c 79BF     		j	.L21
 597              		.cfi_endproc
 598              	.LFE9:
 600              		.section	.rodata.fetchReading.str1.4,"aMS",@progbits,1
 601              		.align	2
 602              	.LC1:
 603 0000 72656164 		.string	"reads sensor"
 603      73207365 
 603      6E736F72 
 603      00
 604              		.section	.rodata.main.str1.4,"aMS",@progbits,1
 605              		.align	2
 606              	.LC4:
 607 0000 4775726B 		.string	"Gurka"
GAS LISTING /var/folders/rt/4gvqv631095f64jvm7jfj_000000gn/T//ccYBEDSz.s 			page 15


 607      6100
 608 0006 0000     		.zero	2
 609              	.LC5:
 610 0008 546F6D61 		.string	"Tomat"
 610      7400
 611 000e 0000     		.zero	2
 612              	.LC6:
 613 0010 4368696C 		.string	"Chili"
 613      6900
 614              		.section	.rodata.renderLCD.str1.4,"aMS",@progbits,1
 615              		.align	2
 616              	.LC0:
 617 0000 2500     		.string	"%"
 618              		.section	.rodata.updatePlantReading.cst8,"aM",@progbits,8
 619              		.align	3
 620              	.LC2:
 621 0000 CDCCCCCC 		.word	3435973837
 622 0004 CCCC0C40 		.word	1074580684
 623              		.section	.rodata.updatePlantReading.str1.4,"aMS",@progbits,1
 624              		.align	2
 625              	.LC3:
 626 0000 4E4F2053 		.string	"NO SUCH PLANT"
 626      55434820 
 626      504C414E 
 626      5400
 627              		.text
 628              	.Letext0:
 629              		.file 2 "/Users/alexstrae/toolchain-gd32v-v202-osx/compiler/riscv64-unknown-elf/include/machine/_d
 630              		.file 3 "/Users/alexstrae/toolchain-gd32v-v202-osx/compiler/riscv64-unknown-elf/include/sys/_stdin
 631              		.file 4 "/Users/alexstrae/toolchain-gd32v-v202-osx/compiler/lib/gcc/riscv64-unknown-elf/8.3.0/incl
 632              		.file 5 "/Users/alexstrae/toolchain-gd32v-v202-osx/compiler/riscv64-unknown-elf/include/sys/_types
 633              		.file 6 "/Users/alexstrae/toolchain-gd32v-v202-osx/compiler/riscv64-unknown-elf/include/sys/reent.
 634              		.file 7 "/Users/alexstrae/toolchain-gd32v-v202-osx/compiler/riscv64-unknown-elf/include/sys/lock.h
 635              		.file 8 "../../firmware/GD32VF103_standard_peripheral/system_gd32vf103.h"
 636              		.file 9 "/Users/alexstrae/toolchain-gd32v-v202-osx/compiler/riscv64-unknown-elf/include/stdlib.h"
 637              		.file 10 "lcd.h"
 638              		.file 11 "plant.h"
 639              		.file 12 "drivers.h"
 640              		.file 13 "adc.h"
 641              		.file 14 "../../firmware/GD32VF103_standard_peripheral/Include/gd32vf103_adc.h"
 642              		.file 15 "/Users/alexstrae/toolchain-gd32v-v202-osx/compiler/riscv64-unknown-elf/include/string.h"
GAS LISTING /var/folders/rt/4gvqv631095f64jvm7jfj_000000gn/T//ccYBEDSz.s 			page 16


DEFINED SYMBOLS
                            *ABS*:0000000000000000 main.c
/var/folders/rt/4gvqv631095f64jvm7jfj_000000gn/T//ccYBEDSz.s:13     .text.renderLCD:0000000000000000 renderLCD
/var/folders/rt/4gvqv631095f64jvm7jfj_000000gn/T//ccYBEDSz.s:17     .text.renderLCD:0000000000000000 .L0 
/var/folders/rt/4gvqv631095f64jvm7jfj_000000gn/T//ccYBEDSz.s:19     .text.renderLCD:0000000000000000 .L0 
/var/folders/rt/4gvqv631095f64jvm7jfj_000000gn/T//ccYBEDSz.s:21     .text.renderLCD:0000000000000000 .L0 
/var/folders/rt/4gvqv631095f64jvm7jfj_000000gn/T//ccYBEDSz.s:23     .text.renderLCD:0000000000000000 .L0 
/var/folders/rt/4gvqv631095f64jvm7jfj_000000gn/T//ccYBEDSz.s:24     .text.renderLCD:0000000000000000 .L0 
/var/folders/rt/4gvqv631095f64jvm7jfj_000000gn/T//ccYBEDSz.s:26     .text.renderLCD:0000000000000002 .L0 
/var/folders/rt/4gvqv631095f64jvm7jfj_000000gn/T//ccYBEDSz.s:28     .text.renderLCD:0000000000000004 .L0 
/var/folders/rt/4gvqv631095f64jvm7jfj_000000gn/T//ccYBEDSz.s:31     .text.renderLCD:0000000000000004 .L0 
/var/folders/rt/4gvqv631095f64jvm7jfj_000000gn/T//ccYBEDSz.s:34     .text.renderLCD:0000000000000006 .L0 
/var/folders/rt/4gvqv631095f64jvm7jfj_000000gn/T//ccYBEDSz.s:42     .text.renderLCD:0000000000000016 .L0 
/var/folders/rt/4gvqv631095f64jvm7jfj_000000gn/T//ccYBEDSz.s:43     .text.renderLCD:0000000000000016 .L0 
/var/folders/rt/4gvqv631095f64jvm7jfj_000000gn/T//ccYBEDSz.s:44     .text.renderLCD:0000000000000016 .L0 
/var/folders/rt/4gvqv631095f64jvm7jfj_000000gn/T//ccYBEDSz.s:45     .text.renderLCD:0000000000000016 .L0 
/var/folders/rt/4gvqv631095f64jvm7jfj_000000gn/T//ccYBEDSz.s:46     .text.renderLCD:0000000000000016 .L0 
/var/folders/rt/4gvqv631095f64jvm7jfj_000000gn/T//ccYBEDSz.s:47     .text.renderLCD:0000000000000016 .L0 
/var/folders/rt/4gvqv631095f64jvm7jfj_000000gn/T//ccYBEDSz.s:48     .text.renderLCD:0000000000000016 .L0 
/var/folders/rt/4gvqv631095f64jvm7jfj_000000gn/T//ccYBEDSz.s:49     .text.renderLCD:0000000000000016 .L0 
/var/folders/rt/4gvqv631095f64jvm7jfj_000000gn/T//ccYBEDSz.s:51     .text.renderLCD:0000000000000016 .L0 
/var/folders/rt/4gvqv631095f64jvm7jfj_000000gn/T//ccYBEDSz.s:55     .text.renderLCD:000000000000001a .L0 
/var/folders/rt/4gvqv631095f64jvm7jfj_000000gn/T//ccYBEDSz.s:58     .text.renderLCD:0000000000000020 .L0 
/var/folders/rt/4gvqv631095f64jvm7jfj_000000gn/T//ccYBEDSz.s:60     .text.renderLCD:0000000000000022 .L0 
/var/folders/rt/4gvqv631095f64jvm7jfj_000000gn/T//ccYBEDSz.s:64     .text.renderLCD:0000000000000026 .L0 
/var/folders/rt/4gvqv631095f64jvm7jfj_000000gn/T//ccYBEDSz.s:67     .text.renderLCD:000000000000002a .L0 
/var/folders/rt/4gvqv631095f64jvm7jfj_000000gn/T//ccYBEDSz.s:68     .text.renderLCD:000000000000002c .L0 
/var/folders/rt/4gvqv631095f64jvm7jfj_000000gn/T//ccYBEDSz.s:69     .text.renderLCD:000000000000002c .L0 
/var/folders/rt/4gvqv631095f64jvm7jfj_000000gn/T//ccYBEDSz.s:71     .text.renderLCD:000000000000002e .L0 
/var/folders/rt/4gvqv631095f64jvm7jfj_000000gn/T//ccYBEDSz.s:73     .text.renderLCD:0000000000000030 .L0 
/var/folders/rt/4gvqv631095f64jvm7jfj_000000gn/T//ccYBEDSz.s:75     .text.renderLCD:0000000000000032 .L0 
/var/folders/rt/4gvqv631095f64jvm7jfj_000000gn/T//ccYBEDSz.s:77     .text.renderLCD:0000000000000034 .L0 
/var/folders/rt/4gvqv631095f64jvm7jfj_000000gn/T//ccYBEDSz.s:80     .text.renderLCD:0000000000000036 .L0 
/var/folders/rt/4gvqv631095f64jvm7jfj_000000gn/T//ccYBEDSz.s:82     .text.renderLCD:0000000000000038 .L0 
/var/folders/rt/4gvqv631095f64jvm7jfj_000000gn/T//ccYBEDSz.s:84     .text.renderLCD:000000000000003a .L0 
/var/folders/rt/4gvqv631095f64jvm7jfj_000000gn/T//ccYBEDSz.s:87     .text.renderLCD:000000000000003c .L0 
/var/folders/rt/4gvqv631095f64jvm7jfj_000000gn/T//ccYBEDSz.s:90     .text.renderLCD:000000000000003e .L0 
/var/folders/rt/4gvqv631095f64jvm7jfj_000000gn/T//ccYBEDSz.s:95     .text.renderLCD:0000000000000040 .L0 
/var/folders/rt/4gvqv631095f64jvm7jfj_000000gn/T//ccYBEDSz.s:98     .text.renderLCD:0000000000000040 .L0 
/var/folders/rt/4gvqv631095f64jvm7jfj_000000gn/T//ccYBEDSz.s:104    .text.renderLCD:000000000000004c .L0 
/var/folders/rt/4gvqv631095f64jvm7jfj_000000gn/T//ccYBEDSz.s:107    .text.renderLCD:000000000000004e .L0 
/var/folders/rt/4gvqv631095f64jvm7jfj_000000gn/T//ccYBEDSz.s:111    .text.renderLCD:0000000000000058 .L0 
/var/folders/rt/4gvqv631095f64jvm7jfj_000000gn/T//ccYBEDSz.s:119    .text.renderLCD:000000000000006a .L0 
/var/folders/rt/4gvqv631095f64jvm7jfj_000000gn/T//ccYBEDSz.s:128    .text.renderLCD:0000000000000082 .L0 
/var/folders/rt/4gvqv631095f64jvm7jfj_000000gn/T//ccYBEDSz.s:136    .text.renderLCD:0000000000000098 .L0 
/var/folders/rt/4gvqv631095f64jvm7jfj_000000gn/T//ccYBEDSz.s:144    .text.renderLCD:00000000000000ae .L0 
/var/folders/rt/4gvqv631095f64jvm7jfj_000000gn/T//ccYBEDSz.s:154    .text.renderLCD:00000000000000cc .L0 
/var/folders/rt/4gvqv631095f64jvm7jfj_000000gn/T//ccYBEDSz.s:161    .text.fetchReading:0000000000000000 fetchReading
/var/folders/rt/4gvqv631095f64jvm7jfj_000000gn/T//ccYBEDSz.s:164    .text.fetchReading:0000000000000000 .L0 
/var/folders/rt/4gvqv631095f64jvm7jfj_000000gn/T//ccYBEDSz.s:166    .text.fetchReading:0000000000000000 .L0 
/var/folders/rt/4gvqv631095f64jvm7jfj_000000gn/T//ccYBEDSz.s:167    .text.fetchReading:0000000000000000 .L0 
/var/folders/rt/4gvqv631095f64jvm7jfj_000000gn/T//ccYBEDSz.s:168    .text.fetchReading:0000000000000000 .L0 
/var/folders/rt/4gvqv631095f64jvm7jfj_000000gn/T//ccYBEDSz.s:170    .text.fetchReading:0000000000000002 .L0 
/var/folders/rt/4gvqv631095f64jvm7jfj_000000gn/T//ccYBEDSz.s:172    .text.fetchReading:0000000000000004 .L0 
/var/folders/rt/4gvqv631095f64jvm7jfj_000000gn/T//ccYBEDSz.s:175    .text.fetchReading:0000000000000006 .L0 
/var/folders/rt/4gvqv631095f64jvm7jfj_000000gn/T//ccYBEDSz.s:178    .text.fetchReading:0000000000000008 .L0 
/var/folders/rt/4gvqv631095f64jvm7jfj_000000gn/T//ccYBEDSz.s:182    .text.fetchReading:0000000000000010 .L0 
GAS LISTING /var/folders/rt/4gvqv631095f64jvm7jfj_000000gn/T//ccYBEDSz.s 			page 17


/var/folders/rt/4gvqv631095f64jvm7jfj_000000gn/T//ccYBEDSz.s:183    .text.fetchReading:0000000000000010 .L0 
/var/folders/rt/4gvqv631095f64jvm7jfj_000000gn/T//ccYBEDSz.s:184    .text.fetchReading:0000000000000010 .L0 
/var/folders/rt/4gvqv631095f64jvm7jfj_000000gn/T//ccYBEDSz.s:185    .text.fetchReading:0000000000000010 .L0 
/var/folders/rt/4gvqv631095f64jvm7jfj_000000gn/T//ccYBEDSz.s:187    .text.fetchReading:0000000000000010 .L0 
/var/folders/rt/4gvqv631095f64jvm7jfj_000000gn/T//ccYBEDSz.s:189    .text.fetchReading:0000000000000012 .L0 
/var/folders/rt/4gvqv631095f64jvm7jfj_000000gn/T//ccYBEDSz.s:191    .text.fetchReading:0000000000000014 .L0 
/var/folders/rt/4gvqv631095f64jvm7jfj_000000gn/T//ccYBEDSz.s:194    .text.fetchReading:000000000000001c .L0 
/var/folders/rt/4gvqv631095f64jvm7jfj_000000gn/T//ccYBEDSz.s:195    .text.fetchReading:000000000000001c .L0 
/var/folders/rt/4gvqv631095f64jvm7jfj_000000gn/T//ccYBEDSz.s:196    .text.fetchReading:000000000000001c .L0 
/var/folders/rt/4gvqv631095f64jvm7jfj_000000gn/T//ccYBEDSz.s:200    .text.fetchReading:0000000000000020 .L0 
/var/folders/rt/4gvqv631095f64jvm7jfj_000000gn/T//ccYBEDSz.s:205    .text.fetchReading:000000000000002c .L0 
/var/folders/rt/4gvqv631095f64jvm7jfj_000000gn/T//ccYBEDSz.s:207    .text.fetchReading:000000000000002e .L0 
/var/folders/rt/4gvqv631095f64jvm7jfj_000000gn/T//ccYBEDSz.s:208    .text.fetchReading:000000000000002e .L0 
/var/folders/rt/4gvqv631095f64jvm7jfj_000000gn/T//ccYBEDSz.s:214    .text.fetchReading:000000000000003a .L0 
/var/folders/rt/4gvqv631095f64jvm7jfj_000000gn/T//ccYBEDSz.s:219    .text.fetchReading:0000000000000046 .L0 
/var/folders/rt/4gvqv631095f64jvm7jfj_000000gn/T//ccYBEDSz.s:220    .text.fetchReading:0000000000000046 .L0 
/var/folders/rt/4gvqv631095f64jvm7jfj_000000gn/T//ccYBEDSz.s:221    .text.fetchReading:0000000000000048 .L0 
/var/folders/rt/4gvqv631095f64jvm7jfj_000000gn/T//ccYBEDSz.s:222    .text.fetchReading:0000000000000048 .L0 
/var/folders/rt/4gvqv631095f64jvm7jfj_000000gn/T//ccYBEDSz.s:224    .text.fetchReading:000000000000004a .L0 
/var/folders/rt/4gvqv631095f64jvm7jfj_000000gn/T//ccYBEDSz.s:228    .text.fetchReading:000000000000004e .L0 
/var/folders/rt/4gvqv631095f64jvm7jfj_000000gn/T//ccYBEDSz.s:231    .text.fetchReading:0000000000000050 .L0 
/var/folders/rt/4gvqv631095f64jvm7jfj_000000gn/T//ccYBEDSz.s:234    .text.fetchReading:0000000000000052 .L0 
/var/folders/rt/4gvqv631095f64jvm7jfj_000000gn/T//ccYBEDSz.s:237    .text.fetchReading:0000000000000054 .L0 
/var/folders/rt/4gvqv631095f64jvm7jfj_000000gn/T//ccYBEDSz.s:242    .text.fetchReading:0000000000000056 .L0 
/var/folders/rt/4gvqv631095f64jvm7jfj_000000gn/T//ccYBEDSz.s:244    .text.fetchReading:0000000000000056 .L0 
/var/folders/rt/4gvqv631095f64jvm7jfj_000000gn/T//ccYBEDSz.s:245    .text.fetchReading:0000000000000056 .L0 
/var/folders/rt/4gvqv631095f64jvm7jfj_000000gn/T//ccYBEDSz.s:247    .text.fetchReading:000000000000005a .L0 
/var/folders/rt/4gvqv631095f64jvm7jfj_000000gn/T//ccYBEDSz.s:255    .text.fetchReading:0000000000000072 .L0 
/var/folders/rt/4gvqv631095f64jvm7jfj_000000gn/T//ccYBEDSz.s:256    .text.fetchReading:0000000000000072 .L0 
/var/folders/rt/4gvqv631095f64jvm7jfj_000000gn/T//ccYBEDSz.s:258    .text.fetchReading:0000000000000076 .L0 
/var/folders/rt/4gvqv631095f64jvm7jfj_000000gn/T//ccYBEDSz.s:268    .text.updatePlantReading:0000000000000000 updatePlantReading
/var/folders/rt/4gvqv631095f64jvm7jfj_000000gn/T//ccYBEDSz.s:271    .text.updatePlantReading:0000000000000000 .L0 
/var/folders/rt/4gvqv631095f64jvm7jfj_000000gn/T//ccYBEDSz.s:273    .text.updatePlantReading:0000000000000000 .L0 
/var/folders/rt/4gvqv631095f64jvm7jfj_000000gn/T//ccYBEDSz.s:275    .text.updatePlantReading:0000000000000002 .L0 
/var/folders/rt/4gvqv631095f64jvm7jfj_000000gn/T//ccYBEDSz.s:281    .text.updatePlantReading:000000000000000c .L0 
/var/folders/rt/4gvqv631095f64jvm7jfj_000000gn/T//ccYBEDSz.s:282    .text.updatePlantReading:000000000000000c .L0 
/var/folders/rt/4gvqv631095f64jvm7jfj_000000gn/T//ccYBEDSz.s:283    .text.updatePlantReading:000000000000000c .L0 
/var/folders/rt/4gvqv631095f64jvm7jfj_000000gn/T//ccYBEDSz.s:284    .text.updatePlantReading:000000000000000c .L0 
/var/folders/rt/4gvqv631095f64jvm7jfj_000000gn/T//ccYBEDSz.s:285    .text.updatePlantReading:000000000000000c .L0 
/var/folders/rt/4gvqv631095f64jvm7jfj_000000gn/T//ccYBEDSz.s:287    .text.updatePlantReading:000000000000000c .L0 
/var/folders/rt/4gvqv631095f64jvm7jfj_000000gn/T//ccYBEDSz.s:290    .text.updatePlantReading:000000000000000e .L0 
/var/folders/rt/4gvqv631095f64jvm7jfj_000000gn/T//ccYBEDSz.s:292    .text.updatePlantReading:000000000000000e .L0 
/var/folders/rt/4gvqv631095f64jvm7jfj_000000gn/T//ccYBEDSz.s:294    .text.updatePlantReading:0000000000000010 .L0 
/var/folders/rt/4gvqv631095f64jvm7jfj_000000gn/T//ccYBEDSz.s:296    .text.updatePlantReading:0000000000000012 .L0 
/var/folders/rt/4gvqv631095f64jvm7jfj_000000gn/T//ccYBEDSz.s:300    .text.updatePlantReading:0000000000000014 .L0 
/var/folders/rt/4gvqv631095f64jvm7jfj_000000gn/T//ccYBEDSz.s:308    .text.updatePlantReading:0000000000000018 .L0 
/var/folders/rt/4gvqv631095f64jvm7jfj_000000gn/T//ccYBEDSz.s:309    .text.updatePlantReading:0000000000000018 .L0 
/var/folders/rt/4gvqv631095f64jvm7jfj_000000gn/T//ccYBEDSz.s:310    .text.updatePlantReading:000000000000001a .L0 
/var/folders/rt/4gvqv631095f64jvm7jfj_000000gn/T//ccYBEDSz.s:311    .text.updatePlantReading:000000000000001a .L0 
/var/folders/rt/4gvqv631095f64jvm7jfj_000000gn/T//ccYBEDSz.s:313    .text.updatePlantReading:000000000000001c .L0 
/var/folders/rt/4gvqv631095f64jvm7jfj_000000gn/T//ccYBEDSz.s:315    .text.updatePlantReading:000000000000001e .L0 
/var/folders/rt/4gvqv631095f64jvm7jfj_000000gn/T//ccYBEDSz.s:318    .text.updatePlantReading:0000000000000020 .L0 
/var/folders/rt/4gvqv631095f64jvm7jfj_000000gn/T//ccYBEDSz.s:321    .text.updatePlantReading:0000000000000022 .L0 
/var/folders/rt/4gvqv631095f64jvm7jfj_000000gn/T//ccYBEDSz.s:325    .text.updatePlantReading:0000000000000022 .L0 
/var/folders/rt/4gvqv631095f64jvm7jfj_000000gn/T//ccYBEDSz.s:334    .text.updatePlantReading:0000000000000028 .L0 
/var/folders/rt/4gvqv631095f64jvm7jfj_000000gn/T//ccYBEDSz.s:335    .text.updatePlantReading:0000000000000028 .L0 
/var/folders/rt/4gvqv631095f64jvm7jfj_000000gn/T//ccYBEDSz.s:343    .text.updatePlantReading:0000000000000038 .L0 
GAS LISTING /var/folders/rt/4gvqv631095f64jvm7jfj_000000gn/T//ccYBEDSz.s 			page 18


/var/folders/rt/4gvqv631095f64jvm7jfj_000000gn/T//ccYBEDSz.s:345    .text.updatePlantReading:000000000000003a .L0 
/var/folders/rt/4gvqv631095f64jvm7jfj_000000gn/T//ccYBEDSz.s:349    .text.updatePlantReading:000000000000003a .L0 
/var/folders/rt/4gvqv631095f64jvm7jfj_000000gn/T//ccYBEDSz.s:353    .text.updatePlantReading:0000000000000042 .L0 
/var/folders/rt/4gvqv631095f64jvm7jfj_000000gn/T//ccYBEDSz.s:358    .text.updatePlantReading:0000000000000042 .L0 
/var/folders/rt/4gvqv631095f64jvm7jfj_000000gn/T//ccYBEDSz.s:362    .text.updatePlantReading:0000000000000048 .L0 
/var/folders/rt/4gvqv631095f64jvm7jfj_000000gn/T//ccYBEDSz.s:363    .text.updatePlantReading:0000000000000048 .L0 
/var/folders/rt/4gvqv631095f64jvm7jfj_000000gn/T//ccYBEDSz.s:367    .text.updatePlantReading:0000000000000052 .L0 
/var/folders/rt/4gvqv631095f64jvm7jfj_000000gn/T//ccYBEDSz.s:372    .text.updatePlantReading:0000000000000058 .L0 
/var/folders/rt/4gvqv631095f64jvm7jfj_000000gn/T//ccYBEDSz.s:373    .text.updatePlantReading:0000000000000058 .L0 
/var/folders/rt/4gvqv631095f64jvm7jfj_000000gn/T//ccYBEDSz.s:376    .text.updatePlantReading:000000000000005c .L0 
/var/folders/rt/4gvqv631095f64jvm7jfj_000000gn/T//ccYBEDSz.s:377    .text.updatePlantReading:000000000000005c .L0 
/var/folders/rt/4gvqv631095f64jvm7jfj_000000gn/T//ccYBEDSz.s:383    .text.updatePlantReading:000000000000006e .L0 
/var/folders/rt/4gvqv631095f64jvm7jfj_000000gn/T//ccYBEDSz.s:384    .text.updatePlantReading:000000000000006e .L0 
/var/folders/rt/4gvqv631095f64jvm7jfj_000000gn/T//ccYBEDSz.s:395    .text.updatePlantReading:0000000000000092 .L0 
/var/folders/rt/4gvqv631095f64jvm7jfj_000000gn/T//ccYBEDSz.s:401    .text.updatePlantReading:000000000000009e .L0 
/var/folders/rt/4gvqv631095f64jvm7jfj_000000gn/T//ccYBEDSz.s:402    .text.updatePlantReading:000000000000009e .L0 
/var/folders/rt/4gvqv631095f64jvm7jfj_000000gn/T//ccYBEDSz.s:403    .text.updatePlantReading:00000000000000a0 .L0 
/var/folders/rt/4gvqv631095f64jvm7jfj_000000gn/T//ccYBEDSz.s:404    .text.updatePlantReading:00000000000000a0 .L0 
/var/folders/rt/4gvqv631095f64jvm7jfj_000000gn/T//ccYBEDSz.s:406    .text.updatePlantReading:00000000000000a2 .L0 
/var/folders/rt/4gvqv631095f64jvm7jfj_000000gn/T//ccYBEDSz.s:408    .text.updatePlantReading:00000000000000a4 .L0 
/var/folders/rt/4gvqv631095f64jvm7jfj_000000gn/T//ccYBEDSz.s:411    .text.updatePlantReading:00000000000000a6 .L0 
/var/folders/rt/4gvqv631095f64jvm7jfj_000000gn/T//ccYBEDSz.s:414    .text.updatePlantReading:00000000000000a8 .L0 
/var/folders/rt/4gvqv631095f64jvm7jfj_000000gn/T//ccYBEDSz.s:417    .text.updatePlantReading:00000000000000aa .L0 
/var/folders/rt/4gvqv631095f64jvm7jfj_000000gn/T//ccYBEDSz.s:423    .text.updatePlantReading:00000000000000ac .L0 
/var/folders/rt/4gvqv631095f64jvm7jfj_000000gn/T//ccYBEDSz.s:426    .text.updatePlantReading:00000000000000ac .L0 
/var/folders/rt/4gvqv631095f64jvm7jfj_000000gn/T//ccYBEDSz.s:431    .text.updatePlantReading:00000000000000b4 .L0 
/var/folders/rt/4gvqv631095f64jvm7jfj_000000gn/T//ccYBEDSz.s:438    .text.startup.main:0000000000000000 main
/var/folders/rt/4gvqv631095f64jvm7jfj_000000gn/T//ccYBEDSz.s:441    .text.startup.main:0000000000000000 .L0 
/var/folders/rt/4gvqv631095f64jvm7jfj_000000gn/T//ccYBEDSz.s:442    .text.startup.main:0000000000000000 .L0 
/var/folders/rt/4gvqv631095f64jvm7jfj_000000gn/T//ccYBEDSz.s:444    .text.startup.main:0000000000000000 .L0 
/var/folders/rt/4gvqv631095f64jvm7jfj_000000gn/T//ccYBEDSz.s:445    .text.startup.main:0000000000000000 .L0 
/var/folders/rt/4gvqv631095f64jvm7jfj_000000gn/T//ccYBEDSz.s:446    .text.startup.main:0000000000000000 .L0 
/var/folders/rt/4gvqv631095f64jvm7jfj_000000gn/T//ccYBEDSz.s:449    .text.startup.main:0000000000000006 .L0 
/var/folders/rt/4gvqv631095f64jvm7jfj_000000gn/T//ccYBEDSz.s:459    .text.startup.main:0000000000000024 .L0 
/var/folders/rt/4gvqv631095f64jvm7jfj_000000gn/T//ccYBEDSz.s:460    .text.startup.main:0000000000000024 .L0 
/var/folders/rt/4gvqv631095f64jvm7jfj_000000gn/T//ccYBEDSz.s:461    .text.startup.main:0000000000000024 .L0 
/var/folders/rt/4gvqv631095f64jvm7jfj_000000gn/T//ccYBEDSz.s:462    .text.startup.main:0000000000000024 .L0 
/var/folders/rt/4gvqv631095f64jvm7jfj_000000gn/T//ccYBEDSz.s:463    .text.startup.main:0000000000000024 .L0 
/var/folders/rt/4gvqv631095f64jvm7jfj_000000gn/T//ccYBEDSz.s:464    .text.startup.main:0000000000000024 .L0 
/var/folders/rt/4gvqv631095f64jvm7jfj_000000gn/T//ccYBEDSz.s:465    .text.startup.main:0000000000000024 .L0 
/var/folders/rt/4gvqv631095f64jvm7jfj_000000gn/T//ccYBEDSz.s:466    .text.startup.main:0000000000000024 .L0 
/var/folders/rt/4gvqv631095f64jvm7jfj_000000gn/T//ccYBEDSz.s:468    .text.startup.main:0000000000000024 .L0 
/var/folders/rt/4gvqv631095f64jvm7jfj_000000gn/T//ccYBEDSz.s:471    .text.startup.main:000000000000002c .L0 
/var/folders/rt/4gvqv631095f64jvm7jfj_000000gn/T//ccYBEDSz.s:474    .text.startup.main:0000000000000034 .L0 
/var/folders/rt/4gvqv631095f64jvm7jfj_000000gn/T//ccYBEDSz.s:477    .text.startup.main:000000000000003c .L0 
/var/folders/rt/4gvqv631095f64jvm7jfj_000000gn/T//ccYBEDSz.s:481    .text.startup.main:0000000000000046 .L0 
/var/folders/rt/4gvqv631095f64jvm7jfj_000000gn/T//ccYBEDSz.s:485    .text.startup.main:0000000000000050 .L0 
/var/folders/rt/4gvqv631095f64jvm7jfj_000000gn/T//ccYBEDSz.s:488    .text.startup.main:0000000000000058 .L0 
/var/folders/rt/4gvqv631095f64jvm7jfj_000000gn/T//ccYBEDSz.s:492    .text.startup.main:0000000000000062 .L0 
/var/folders/rt/4gvqv631095f64jvm7jfj_000000gn/T//ccYBEDSz.s:493    .text.startup.main:0000000000000062 .L0 
/var/folders/rt/4gvqv631095f64jvm7jfj_000000gn/T//ccYBEDSz.s:494    .text.startup.main:0000000000000062 .L0 
/var/folders/rt/4gvqv631095f64jvm7jfj_000000gn/T//ccYBEDSz.s:500    .text.startup.main:0000000000000070 .L0 
/var/folders/rt/4gvqv631095f64jvm7jfj_000000gn/T//ccYBEDSz.s:511    .text.startup.main:000000000000008e .L0 
/var/folders/rt/4gvqv631095f64jvm7jfj_000000gn/T//ccYBEDSz.s:513    .text.startup.main:0000000000000092 .L0 
/var/folders/rt/4gvqv631095f64jvm7jfj_000000gn/T//ccYBEDSz.s:514    .text.startup.main:0000000000000092 .L0 
/var/folders/rt/4gvqv631095f64jvm7jfj_000000gn/T//ccYBEDSz.s:516    .text.startup.main:0000000000000096 .L0 
/var/folders/rt/4gvqv631095f64jvm7jfj_000000gn/T//ccYBEDSz.s:519    .text.startup.main:000000000000009e .L0 
GAS LISTING /var/folders/rt/4gvqv631095f64jvm7jfj_000000gn/T//ccYBEDSz.s 			page 19


/var/folders/rt/4gvqv631095f64jvm7jfj_000000gn/T//ccYBEDSz.s:525    .text.startup.main:00000000000000ae .L0 
/var/folders/rt/4gvqv631095f64jvm7jfj_000000gn/T//ccYBEDSz.s:532    .text.startup.main:00000000000000c2 .L0 
/var/folders/rt/4gvqv631095f64jvm7jfj_000000gn/T//ccYBEDSz.s:534    .text.startup.main:00000000000000c4 .L0 
/var/folders/rt/4gvqv631095f64jvm7jfj_000000gn/T//ccYBEDSz.s:536    .text.startup.main:00000000000000c8 .L0 
/var/folders/rt/4gvqv631095f64jvm7jfj_000000gn/T//ccYBEDSz.s:540    .text.startup.main:00000000000000ca .L0 
/var/folders/rt/4gvqv631095f64jvm7jfj_000000gn/T//ccYBEDSz.s:544    .text.startup.main:00000000000000cc .L0 
/var/folders/rt/4gvqv631095f64jvm7jfj_000000gn/T//ccYBEDSz.s:545    .text.startup.main:00000000000000cc .L0 
/var/folders/rt/4gvqv631095f64jvm7jfj_000000gn/T//ccYBEDSz.s:546    .text.startup.main:00000000000000cc .L0 
/var/folders/rt/4gvqv631095f64jvm7jfj_000000gn/T//ccYBEDSz.s:549    .text.startup.main:00000000000000ce .L0 
/var/folders/rt/4gvqv631095f64jvm7jfj_000000gn/T//ccYBEDSz.s:550    .text.startup.main:00000000000000ce .L0 
/var/folders/rt/4gvqv631095f64jvm7jfj_000000gn/T//ccYBEDSz.s:553    .text.startup.main:00000000000000d6 .L0 
/var/folders/rt/4gvqv631095f64jvm7jfj_000000gn/T//ccYBEDSz.s:555    .text.startup.main:00000000000000d8 .L0 
/var/folders/rt/4gvqv631095f64jvm7jfj_000000gn/T//ccYBEDSz.s:558    .text.startup.main:00000000000000e0 .L0 
/var/folders/rt/4gvqv631095f64jvm7jfj_000000gn/T//ccYBEDSz.s:561    .text.startup.main:00000000000000e2 .L0 
/var/folders/rt/4gvqv631095f64jvm7jfj_000000gn/T//ccYBEDSz.s:564    .text.startup.main:00000000000000ea .L0 
/var/folders/rt/4gvqv631095f64jvm7jfj_000000gn/T//ccYBEDSz.s:565    .text.startup.main:00000000000000ea .L0 
/var/folders/rt/4gvqv631095f64jvm7jfj_000000gn/T//ccYBEDSz.s:566    .text.startup.main:00000000000000ea .L0 
/var/folders/rt/4gvqv631095f64jvm7jfj_000000gn/T//ccYBEDSz.s:568    .text.startup.main:00000000000000ee .L0 
/var/folders/rt/4gvqv631095f64jvm7jfj_000000gn/T//ccYBEDSz.s:575    .text.startup.main:0000000000000102 .L0 
/var/folders/rt/4gvqv631095f64jvm7jfj_000000gn/T//ccYBEDSz.s:578    .text.startup.main:0000000000000108 .L0 
/var/folders/rt/4gvqv631095f64jvm7jfj_000000gn/T//ccYBEDSz.s:581    .text.startup.main:000000000000010a .L0 
/var/folders/rt/4gvqv631095f64jvm7jfj_000000gn/T//ccYBEDSz.s:585    .text.startup.main:0000000000000112 .L0 
/var/folders/rt/4gvqv631095f64jvm7jfj_000000gn/T//ccYBEDSz.s:586    .text.startup.main:0000000000000112 .L0 
/var/folders/rt/4gvqv631095f64jvm7jfj_000000gn/T//ccYBEDSz.s:591    .text.startup.main:0000000000000120 .L0 
/var/folders/rt/4gvqv631095f64jvm7jfj_000000gn/T//ccYBEDSz.s:596    .text.startup.main:000000000000012c .L0 
/var/folders/rt/4gvqv631095f64jvm7jfj_000000gn/T//ccYBEDSz.s:597    .text.startup.main:000000000000012e .L0 
/var/folders/rt/4gvqv631095f64jvm7jfj_000000gn/T//ccYBEDSz.s:157    .text.renderLCD:00000000000000cc .L0 
/var/folders/rt/4gvqv631095f64jvm7jfj_000000gn/T//ccYBEDSz.s:264    .text.fetchReading:0000000000000076 .L0 
/var/folders/rt/4gvqv631095f64jvm7jfj_000000gn/T//ccYBEDSz.s:434    .text.updatePlantReading:00000000000000b4 .L0 
/var/folders/rt/4gvqv631095f64jvm7jfj_000000gn/T//ccYBEDSz.s:600    .text.startup.main:000000000000012e .L0 
                     .debug_frame:0000000000000000 .L0 
/var/folders/rt/4gvqv631095f64jvm7jfj_000000gn/T//ccYBEDSz.s:616    .rodata.renderLCD.str1.4:0000000000000000 .LC0
/var/folders/rt/4gvqv631095f64jvm7jfj_000000gn/T//ccYBEDSz.s:93     .text.renderLCD:0000000000000040 .L3
/var/folders/rt/4gvqv631095f64jvm7jfj_000000gn/T//ccYBEDSz.s:62     .text.renderLCD:0000000000000026 .L2
/var/folders/rt/4gvqv631095f64jvm7jfj_000000gn/T//ccYBEDSz.s:602    .rodata.fetchReading.str1.4:0000000000000000 .LC1
/var/folders/rt/4gvqv631095f64jvm7jfj_000000gn/T//ccYBEDSz.s:240    .text.fetchReading:0000000000000056 .L8
/var/folders/rt/4gvqv631095f64jvm7jfj_000000gn/T//ccYBEDSz.s:198    .text.fetchReading:0000000000000020 .L7
/var/folders/rt/4gvqv631095f64jvm7jfj_000000gn/T//ccYBEDSz.s:625    .rodata.updatePlantReading.str1.4:0000000000000000 .LC3
/var/folders/rt/4gvqv631095f64jvm7jfj_000000gn/T//ccYBEDSz.s:620    .rodata.updatePlantReading.cst8:0000000000000000 .LC2
/var/folders/rt/4gvqv631095f64jvm7jfj_000000gn/T//ccYBEDSz.s:351    .text.updatePlantReading:0000000000000042 .L15
/var/folders/rt/4gvqv631095f64jvm7jfj_000000gn/T//ccYBEDSz.s:421    .text.updatePlantReading:00000000000000ac .L13
/var/folders/rt/4gvqv631095f64jvm7jfj_000000gn/T//ccYBEDSz.s:298    .text.updatePlantReading:0000000000000014 .L12
/var/folders/rt/4gvqv631095f64jvm7jfj_000000gn/T//ccYBEDSz.s:606    .rodata.main.str1.4:0000000000000000 .LC4
/var/folders/rt/4gvqv631095f64jvm7jfj_000000gn/T//ccYBEDSz.s:609    .rodata.main.str1.4:0000000000000008 .LC5
/var/folders/rt/4gvqv631095f64jvm7jfj_000000gn/T//ccYBEDSz.s:612    .rodata.main.str1.4:0000000000000010 .LC6
/var/folders/rt/4gvqv631095f64jvm7jfj_000000gn/T//ccYBEDSz.s:542    .text.startup.main:00000000000000cc .L19
/var/folders/rt/4gvqv631095f64jvm7jfj_000000gn/T//ccYBEDSz.s:584    .text.startup.main:0000000000000112 .L20
/var/folders/rt/4gvqv631095f64jvm7jfj_000000gn/T//ccYBEDSz.s:538    .text.startup.main:00000000000000ca .L21
/var/folders/rt/4gvqv631095f64jvm7jfj_000000gn/T//ccYBEDSz.s:3139   .debug_abbrev:0000000000000000 .Ldebug_abbrev0
/var/folders/rt/4gvqv631095f64jvm7jfj_000000gn/T//ccYBEDSz.s:4844   .debug_str:0000000000000540 .LASF164
/var/folders/rt/4gvqv631095f64jvm7jfj_000000gn/T//ccYBEDSz.s:4710   .debug_str:00000000000002cb .LASF165
/var/folders/rt/4gvqv631095f64jvm7jfj_000000gn/T//ccYBEDSz.s:4848   .debug_str:00000000000005d1 .LASF166
/var/folders/rt/4gvqv631095f64jvm7jfj_000000gn/T//ccYBEDSz.s:4524   .debug_ranges:0000000000000000 .Ldebug_ranges0
/var/folders/rt/4gvqv631095f64jvm7jfj_000000gn/T//ccYBEDSz.s:4564   .debug_line:0000000000000000 .Ldebug_line0
/var/folders/rt/4gvqv631095f64jvm7jfj_000000gn/T//ccYBEDSz.s:4832   .debug_str:0000000000000505 .LASF0
/var/folders/rt/4gvqv631095f64jvm7jfj_000000gn/T//ccYBEDSz.s:4610   .debug_str:00000000000000e9 .LASF1
/var/folders/rt/4gvqv631095f64jvm7jfj_000000gn/T//ccYBEDSz.s:4578   .debug_str:0000000000000038 .LASF6
GAS LISTING /var/folders/rt/4gvqv631095f64jvm7jfj_000000gn/T//ccYBEDSz.s 			page 20


/var/folders/rt/4gvqv631095f64jvm7jfj_000000gn/T//ccYBEDSz.s:4762   .debug_str:00000000000003c8 .LASF2
/var/folders/rt/4gvqv631095f64jvm7jfj_000000gn/T//ccYBEDSz.s:4568   .debug_str:000000000000000c .LASF3
/var/folders/rt/4gvqv631095f64jvm7jfj_000000gn/T//ccYBEDSz.s:4852   .debug_str:0000000000000620 .LASF4
/var/folders/rt/4gvqv631095f64jvm7jfj_000000gn/T//ccYBEDSz.s:4584   .debug_str:0000000000000050 .LASF5
/var/folders/rt/4gvqv631095f64jvm7jfj_000000gn/T//ccYBEDSz.s:4664   .debug_str:00000000000001fe .LASF7
/var/folders/rt/4gvqv631095f64jvm7jfj_000000gn/T//ccYBEDSz.s:4688   .debug_str:0000000000000268 .LASF8
/var/folders/rt/4gvqv631095f64jvm7jfj_000000gn/T//ccYBEDSz.s:4648   .debug_str:0000000000000198 .LASF9
/var/folders/rt/4gvqv631095f64jvm7jfj_000000gn/T//ccYBEDSz.s:4592   .debug_str:0000000000000084 .LASF10
/var/folders/rt/4gvqv631095f64jvm7jfj_000000gn/T//ccYBEDSz.s:4836   .debug_str:0000000000000519 .LASF11
/var/folders/rt/4gvqv631095f64jvm7jfj_000000gn/T//ccYBEDSz.s:4864   .debug_str:0000000000000667 .LASF12
/var/folders/rt/4gvqv631095f64jvm7jfj_000000gn/T//ccYBEDSz.s:4682   .debug_str:0000000000000248 .LASF122
/var/folders/rt/4gvqv631095f64jvm7jfj_000000gn/T//ccYBEDSz.s:4822   .debug_str:00000000000004de .LASF13
/var/folders/rt/4gvqv631095f64jvm7jfj_000000gn/T//ccYBEDSz.s:4748   .debug_str:0000000000000387 .LASF14
/var/folders/rt/4gvqv631095f64jvm7jfj_000000gn/T//ccYBEDSz.s:4606   .debug_str:00000000000000db .LASF15
/var/folders/rt/4gvqv631095f64jvm7jfj_000000gn/T//ccYBEDSz.s:4820   .debug_str:00000000000004d6 .LASF16
/var/folders/rt/4gvqv631095f64jvm7jfj_000000gn/T//ccYBEDSz.s:4874   .debug_str:0000000000000698 .LASF17
/var/folders/rt/4gvqv631095f64jvm7jfj_000000gn/T//ccYBEDSz.s:4708   .debug_str:00000000000002c5 .LASF18
/var/folders/rt/4gvqv631095f64jvm7jfj_000000gn/T//ccYBEDSz.s:4680   .debug_str:0000000000000241 .LASF19
/var/folders/rt/4gvqv631095f64jvm7jfj_000000gn/T//ccYBEDSz.s:4812   .debug_str:00000000000004b6 .LASF20
/var/folders/rt/4gvqv631095f64jvm7jfj_000000gn/T//ccYBEDSz.s:4814   .debug_str:00000000000004be .LASF21
/var/folders/rt/4gvqv631095f64jvm7jfj_000000gn/T//ccYBEDSz.s:4754   .debug_str:000000000000039d .LASF22
/var/folders/rt/4gvqv631095f64jvm7jfj_000000gn/T//ccYBEDSz.s:4858   .debug_str:000000000000063f .LASF23
/var/folders/rt/4gvqv631095f64jvm7jfj_000000gn/T//ccYBEDSz.s:4758   .debug_str:00000000000003ae .LASF24
/var/folders/rt/4gvqv631095f64jvm7jfj_000000gn/T//ccYBEDSz.s:4768   .debug_str:00000000000003e5 .LASF25
/var/folders/rt/4gvqv631095f64jvm7jfj_000000gn/T//ccYBEDSz.s:4672   .debug_str:0000000000000223 .LASF30
/var/folders/rt/4gvqv631095f64jvm7jfj_000000gn/T//ccYBEDSz.s:4840   .debug_str:000000000000052d .LASF26
/var/folders/rt/4gvqv631095f64jvm7jfj_000000gn/T//ccYBEDSz.s:4804   .debug_str:0000000000000497 .LASF27
/var/folders/rt/4gvqv631095f64jvm7jfj_000000gn/T//ccYBEDSz.s:4666   .debug_str:0000000000000209 .LASF28
/var/folders/rt/4gvqv631095f64jvm7jfj_000000gn/T//ccYBEDSz.s:4870   .debug_str:000000000000068d .LASF29
/var/folders/rt/4gvqv631095f64jvm7jfj_000000gn/T//ccYBEDSz.s:4678   .debug_str:000000000000023c .LASF31
/var/folders/rt/4gvqv631095f64jvm7jfj_000000gn/T//ccYBEDSz.s:4602   .debug_str:00000000000000cb .LASF32
/var/folders/rt/4gvqv631095f64jvm7jfj_000000gn/T//ccYBEDSz.s:4890   .debug_str:00000000000006e7 .LASF33
/var/folders/rt/4gvqv631095f64jvm7jfj_000000gn/T//ccYBEDSz.s:4618   .debug_str:000000000000010a .LASF34
/var/folders/rt/4gvqv631095f64jvm7jfj_000000gn/T//ccYBEDSz.s:4904   .debug_str:0000000000000729 .LASF35
/var/folders/rt/4gvqv631095f64jvm7jfj_000000gn/T//ccYBEDSz.s:4734   .debug_str:000000000000033e .LASF36
/var/folders/rt/4gvqv631095f64jvm7jfj_000000gn/T//ccYBEDSz.s:4722   .debug_str:000000000000030b .LASF37
/var/folders/rt/4gvqv631095f64jvm7jfj_000000gn/T//ccYBEDSz.s:4818   .debug_str:00000000000004cc .LASF38
/var/folders/rt/4gvqv631095f64jvm7jfj_000000gn/T//ccYBEDSz.s:4770   .debug_str:00000000000003ee .LASF39
/var/folders/rt/4gvqv631095f64jvm7jfj_000000gn/T//ccYBEDSz.s:4886   .debug_str:00000000000006cd .LASF40
/var/folders/rt/4gvqv631095f64jvm7jfj_000000gn/T//ccYBEDSz.s:4622   .debug_str:0000000000000119 .LASF41
/var/folders/rt/4gvqv631095f64jvm7jfj_000000gn/T//ccYBEDSz.s:4572   .debug_str:000000000000001d .LASF42
/var/folders/rt/4gvqv631095f64jvm7jfj_000000gn/T//ccYBEDSz.s:4566   .debug_str:0000000000000000 .LASF43
/var/folders/rt/4gvqv631095f64jvm7jfj_000000gn/T//ccYBEDSz.s:4846   .debug_str:00000000000005c8 .LASF44
/var/folders/rt/4gvqv631095f64jvm7jfj_000000gn/T//ccYBEDSz.s:4640   .debug_str:000000000000016c .LASF45
/var/folders/rt/4gvqv631095f64jvm7jfj_000000gn/T//ccYBEDSz.s:4736   .debug_str:0000000000000347 .LASF46
/var/folders/rt/4gvqv631095f64jvm7jfj_000000gn/T//ccYBEDSz.s:4794   .debug_str:000000000000045d .LASF47
/var/folders/rt/4gvqv631095f64jvm7jfj_000000gn/T//ccYBEDSz.s:4662   .debug_str:00000000000001f9 .LASF48
/var/folders/rt/4gvqv631095f64jvm7jfj_000000gn/T//ccYBEDSz.s:4772   .debug_str:00000000000003f8 .LASF49
/var/folders/rt/4gvqv631095f64jvm7jfj_000000gn/T//ccYBEDSz.s:4616   .debug_str:0000000000000104 .LASF50
/var/folders/rt/4gvqv631095f64jvm7jfj_000000gn/T//ccYBEDSz.s:4830   .debug_str:00000000000004ff .LASF51
/var/folders/rt/4gvqv631095f64jvm7jfj_000000gn/T//ccYBEDSz.s:4780   .debug_str:0000000000000415 .LASF52
/var/folders/rt/4gvqv631095f64jvm7jfj_000000gn/T//ccYBEDSz.s:4638   .debug_str:0000000000000165 .LASF53
/var/folders/rt/4gvqv631095f64jvm7jfj_000000gn/T//ccYBEDSz.s:4690   .debug_str:000000000000027a .LASF54
/var/folders/rt/4gvqv631095f64jvm7jfj_000000gn/T//ccYBEDSz.s:4902   .debug_str:0000000000000720 .LASF55
/var/folders/rt/4gvqv631095f64jvm7jfj_000000gn/T//ccYBEDSz.s:4628   .debug_str:0000000000000139 .LASF56
/var/folders/rt/4gvqv631095f64jvm7jfj_000000gn/T//ccYBEDSz.s:4676   .debug_str:0000000000000236 .LASF57
/var/folders/rt/4gvqv631095f64jvm7jfj_000000gn/T//ccYBEDSz.s:4720   .debug_str:0000000000000304 .LASF58
GAS LISTING /var/folders/rt/4gvqv631095f64jvm7jfj_000000gn/T//ccYBEDSz.s 			page 21


/var/folders/rt/4gvqv631095f64jvm7jfj_000000gn/T//ccYBEDSz.s:4816   .debug_str:00000000000004c6 .LASF59
/var/folders/rt/4gvqv631095f64jvm7jfj_000000gn/T//ccYBEDSz.s:4608   .debug_str:00000000000000e2 .LASF60
/var/folders/rt/4gvqv631095f64jvm7jfj_000000gn/T//ccYBEDSz.s:4614   .debug_str:00000000000000fe .LASF61
/var/folders/rt/4gvqv631095f64jvm7jfj_000000gn/T//ccYBEDSz.s:4882   .debug_str:00000000000006bf .LASF62
/var/folders/rt/4gvqv631095f64jvm7jfj_000000gn/T//ccYBEDSz.s:4828   .debug_str:00000000000004f6 .LASF63
/var/folders/rt/4gvqv631095f64jvm7jfj_000000gn/T//ccYBEDSz.s:4652   .debug_str:00000000000001ae .LASF64
/var/folders/rt/4gvqv631095f64jvm7jfj_000000gn/T//ccYBEDSz.s:4696   .debug_str:000000000000028c .LASF65
/var/folders/rt/4gvqv631095f64jvm7jfj_000000gn/T//ccYBEDSz.s:4714   .debug_str:00000000000002ee .LASF66
/var/folders/rt/4gvqv631095f64jvm7jfj_000000gn/T//ccYBEDSz.s:4782   .debug_str:000000000000041d .LASF67
/var/folders/rt/4gvqv631095f64jvm7jfj_000000gn/T//ccYBEDSz.s:4774   .debug_str:00000000000003ff .LASF68
/var/folders/rt/4gvqv631095f64jvm7jfj_000000gn/T//ccYBEDSz.s:4806   .debug_str:000000000000049f .LASF69
/var/folders/rt/4gvqv631095f64jvm7jfj_000000gn/T//ccYBEDSz.s:4824   .debug_str:00000000000004ea .LASF70
/var/folders/rt/4gvqv631095f64jvm7jfj_000000gn/T//ccYBEDSz.s:4642   .debug_str:0000000000000174 .LASF71
/var/folders/rt/4gvqv631095f64jvm7jfj_000000gn/T//ccYBEDSz.s:4684   .debug_str:0000000000000258 .LASF72
/var/folders/rt/4gvqv631095f64jvm7jfj_000000gn/T//ccYBEDSz.s:4670   .debug_str:000000000000021b .LASF73
/var/folders/rt/4gvqv631095f64jvm7jfj_000000gn/T//ccYBEDSz.s:4792   .debug_str:0000000000000458 .LASF74
/var/folders/rt/4gvqv631095f64jvm7jfj_000000gn/T//ccYBEDSz.s:4576   .debug_str:000000000000002d .LASF75
/var/folders/rt/4gvqv631095f64jvm7jfj_000000gn/T//ccYBEDSz.s:4802   .debug_str:000000000000047e .LASF76
/var/folders/rt/4gvqv631095f64jvm7jfj_000000gn/T//ccYBEDSz.s:4798   .debug_str:000000000000046c .LASF77
/var/folders/rt/4gvqv631095f64jvm7jfj_000000gn/T//ccYBEDSz.s:4742   .debug_str:0000000000000366 .LASF78
/var/folders/rt/4gvqv631095f64jvm7jfj_000000gn/T//ccYBEDSz.s:4800   .debug_str:0000000000000474 .LASF79
/var/folders/rt/4gvqv631095f64jvm7jfj_000000gn/T//ccYBEDSz.s:4706   .debug_str:00000000000002bd .LASF80
/var/folders/rt/4gvqv631095f64jvm7jfj_000000gn/T//ccYBEDSz.s:4646   .debug_str:000000000000018e .LASF81
/var/folders/rt/4gvqv631095f64jvm7jfj_000000gn/T//ccYBEDSz.s:4898   .debug_str:0000000000000716 .LASF82
/var/folders/rt/4gvqv631095f64jvm7jfj_000000gn/T//ccYBEDSz.s:4752   .debug_str:0000000000000393 .LASF83
/var/folders/rt/4gvqv631095f64jvm7jfj_000000gn/T//ccYBEDSz.s:4686   .debug_str:0000000000000260 .LASF84
/var/folders/rt/4gvqv631095f64jvm7jfj_000000gn/T//ccYBEDSz.s:4650   .debug_str:00000000000001a6 .LASF85
/var/folders/rt/4gvqv631095f64jvm7jfj_000000gn/T//ccYBEDSz.s:4636   .debug_str:0000000000000160 .LASF86
/var/folders/rt/4gvqv631095f64jvm7jfj_000000gn/T//ccYBEDSz.s:4580   .debug_str:0000000000000042 .LASF87
/var/folders/rt/4gvqv631095f64jvm7jfj_000000gn/T//ccYBEDSz.s:4878   .debug_str:00000000000006ab .LASF88
/var/folders/rt/4gvqv631095f64jvm7jfj_000000gn/T//ccYBEDSz.s:4630   .debug_str:0000000000000141 .LASF89
/var/folders/rt/4gvqv631095f64jvm7jfj_000000gn/T//ccYBEDSz.s:4620   .debug_str:0000000000000114 .LASF90
/var/folders/rt/4gvqv631095f64jvm7jfj_000000gn/T//ccYBEDSz.s:4826   .debug_str:00000000000004f1 .LASF91
/var/folders/rt/4gvqv631095f64jvm7jfj_000000gn/T//ccYBEDSz.s:4778   .debug_str:000000000000040e .LASF92
/var/folders/rt/4gvqv631095f64jvm7jfj_000000gn/T//ccYBEDSz.s:4872   .debug_str:0000000000000692 .LASF93
/var/folders/rt/4gvqv631095f64jvm7jfj_000000gn/T//ccYBEDSz.s:4698   .debug_str:0000000000000292 .LASF94
/var/folders/rt/4gvqv631095f64jvm7jfj_000000gn/T//ccYBEDSz.s:4764   .debug_str:00000000000003d6 .LASF95
/var/folders/rt/4gvqv631095f64jvm7jfj_000000gn/T//ccYBEDSz.s:4574   .debug_str:0000000000000025 .LASF96
/var/folders/rt/4gvqv631095f64jvm7jfj_000000gn/T//ccYBEDSz.s:4808   .debug_str:00000000000004a6 .LASF97
/var/folders/rt/4gvqv631095f64jvm7jfj_000000gn/T//ccYBEDSz.s:4716   .debug_str:00000000000002f4 .LASF98
/var/folders/rt/4gvqv631095f64jvm7jfj_000000gn/T//ccYBEDSz.s:4854   .debug_str:0000000000000633 .LASF99
/var/folders/rt/4gvqv631095f64jvm7jfj_000000gn/T//ccYBEDSz.s:4866   .debug_str:0000000000000670 .LASF100
/var/folders/rt/4gvqv631095f64jvm7jfj_000000gn/T//ccYBEDSz.s:4842   .debug_str:0000000000000533 .LASF101
/var/folders/rt/4gvqv631095f64jvm7jfj_000000gn/T//ccYBEDSz.s:4704   .debug_str:00000000000002b0 .LASF102
/var/folders/rt/4gvqv631095f64jvm7jfj_000000gn/T//ccYBEDSz.s:4888   .debug_str:00000000000006d8 .LASF103
/var/folders/rt/4gvqv631095f64jvm7jfj_000000gn/T//ccYBEDSz.s:4744   .debug_str:0000000000000371 .LASF104
/var/folders/rt/4gvqv631095f64jvm7jfj_000000gn/T//ccYBEDSz.s:4700   .debug_str:0000000000000299 .LASF105
/var/folders/rt/4gvqv631095f64jvm7jfj_000000gn/T//ccYBEDSz.s:4732   .debug_str:0000000000000339 .LASF106
/var/folders/rt/4gvqv631095f64jvm7jfj_000000gn/T//ccYBEDSz.s:4740   .debug_str:0000000000000359 .LASF107
/var/folders/rt/4gvqv631095f64jvm7jfj_000000gn/T//ccYBEDSz.s:4896   .debug_str:0000000000000708 .LASF108
/var/folders/rt/4gvqv631095f64jvm7jfj_000000gn/T//ccYBEDSz.s:4600   .debug_str:00000000000000bd .LASF109
/var/folders/rt/4gvqv631095f64jvm7jfj_000000gn/T//ccYBEDSz.s:4876   .debug_str:00000000000006a1 .LASF110
/var/folders/rt/4gvqv631095f64jvm7jfj_000000gn/T//ccYBEDSz.s:4702   .debug_str:00000000000002a4 .LASF111
/var/folders/rt/4gvqv631095f64jvm7jfj_000000gn/T//ccYBEDSz.s:4860   .debug_str:0000000000000647 .LASF112
/var/folders/rt/4gvqv631095f64jvm7jfj_000000gn/T//ccYBEDSz.s:4658   .debug_str:00000000000001d5 .LASF113
/var/folders/rt/4gvqv631095f64jvm7jfj_000000gn/T//ccYBEDSz.s:4598   .debug_str:00000000000000ae .LASF114
/var/folders/rt/4gvqv631095f64jvm7jfj_000000gn/T//ccYBEDSz.s:4656   .debug_str:00000000000001c4 .LASF115
GAS LISTING /var/folders/rt/4gvqv631095f64jvm7jfj_000000gn/T//ccYBEDSz.s 			page 22


/var/folders/rt/4gvqv631095f64jvm7jfj_000000gn/T//ccYBEDSz.s:4586   .debug_str:0000000000000059 .LASF116
/var/folders/rt/4gvqv631095f64jvm7jfj_000000gn/T//ccYBEDSz.s:4588   .debug_str:0000000000000068 .LASF117
/var/folders/rt/4gvqv631095f64jvm7jfj_000000gn/T//ccYBEDSz.s:4766   .debug_str:00000000000003dc .LASF118
/var/folders/rt/4gvqv631095f64jvm7jfj_000000gn/T//ccYBEDSz.s:4730   .debug_str:0000000000000332 .LASF119
/var/folders/rt/4gvqv631095f64jvm7jfj_000000gn/T//ccYBEDSz.s:4724   .debug_str:0000000000000315 .LASF120
/var/folders/rt/4gvqv631095f64jvm7jfj_000000gn/T//ccYBEDSz.s:4884   .debug_str:00000000000006c5 .LASF121
/var/folders/rt/4gvqv631095f64jvm7jfj_000000gn/T//ccYBEDSz.s:4596   .debug_str:00000000000000a3 .LASF167
/var/folders/rt/4gvqv631095f64jvm7jfj_000000gn/T//ccYBEDSz.s:4668   .debug_str:000000000000020f .LASF123
/var/folders/rt/4gvqv631095f64jvm7jfj_000000gn/T//ccYBEDSz.s:4862   .debug_str:0000000000000654 .LASF124
/var/folders/rt/4gvqv631095f64jvm7jfj_000000gn/T//ccYBEDSz.s:4738   .debug_str:000000000000034f .LASF125
/var/folders/rt/4gvqv631095f64jvm7jfj_000000gn/T//ccYBEDSz.s:4590   .debug_str:0000000000000079 .LASF126
/var/folders/rt/4gvqv631095f64jvm7jfj_000000gn/T//ccYBEDSz.s:4796   .debug_str:0000000000000462 .LASF127
/var/folders/rt/4gvqv631095f64jvm7jfj_000000gn/T//ccYBEDSz.s:4594   .debug_str:000000000000009b .LASF128
/var/folders/rt/4gvqv631095f64jvm7jfj_000000gn/T//ccYBEDSz.s:4788   .debug_str:000000000000043e .LASF129
/var/folders/rt/4gvqv631095f64jvm7jfj_000000gn/T//ccYBEDSz.s:4694   .debug_str:0000000000000287 .LASF130
/var/folders/rt/4gvqv631095f64jvm7jfj_000000gn/T//ccYBEDSz.s:4612   .debug_str:00000000000000f5 .LASF131
/var/folders/rt/4gvqv631095f64jvm7jfj_000000gn/T//ccYBEDSz.s:4654   .debug_str:00000000000001b6 .LASF132
/var/folders/rt/4gvqv631095f64jvm7jfj_000000gn/T//ccYBEDSz.s:4756   .debug_str:00000000000003a8 .LASF133
/var/folders/rt/4gvqv631095f64jvm7jfj_000000gn/T//ccYBEDSz.s:4784   .debug_str:0000000000000426 .LASF134
/var/folders/rt/4gvqv631095f64jvm7jfj_000000gn/T//ccYBEDSz.s:4674   .debug_str:000000000000022b .LASF135
/var/folders/rt/4gvqv631095f64jvm7jfj_000000gn/T//ccYBEDSz.s:4900   .debug_str:000000000000071b .LASF141
/var/folders/rt/4gvqv631095f64jvm7jfj_000000gn/T//ccYBEDSz.s:439    .text.startup.main:0000000000000000 .LFB9
/var/folders/rt/4gvqv631095f64jvm7jfj_000000gn/T//ccYBEDSz.s:598    .text.startup.main:000000000000012e .LFE9
/var/folders/rt/4gvqv631095f64jvm7jfj_000000gn/T//ccYBEDSz.s:4009   .debug_loc:0000000000000000 .LLST20
/var/folders/rt/4gvqv631095f64jvm7jfj_000000gn/T//ccYBEDSz.s:4027   .debug_loc:000000000000002e .LLST21
/var/folders/rt/4gvqv631095f64jvm7jfj_000000gn/T//ccYBEDSz.s:4750   .debug_str:000000000000038e .LASF136
/var/folders/rt/4gvqv631095f64jvm7jfj_000000gn/T//ccYBEDSz.s:4053   .debug_loc:0000000000000070 .LLST22
/var/folders/rt/4gvqv631095f64jvm7jfj_000000gn/T//ccYBEDSz.s:4718   .debug_str:00000000000002fa .LASF137
/var/folders/rt/4gvqv631095f64jvm7jfj_000000gn/T//ccYBEDSz.s:4786   .debug_str:000000000000042f .LASF138
/var/folders/rt/4gvqv631095f64jvm7jfj_000000gn/T//ccYBEDSz.s:469    .text.startup.main:000000000000002c .LVL47
/var/folders/rt/4gvqv631095f64jvm7jfj_000000gn/T//ccYBEDSz.s:472    .text.startup.main:0000000000000034 .LVL48
/var/folders/rt/4gvqv631095f64jvm7jfj_000000gn/T//ccYBEDSz.s:475    .text.startup.main:000000000000003c .LVL49
/var/folders/rt/4gvqv631095f64jvm7jfj_000000gn/T//ccYBEDSz.s:479    .text.startup.main:0000000000000046 .LVL50
/var/folders/rt/4gvqv631095f64jvm7jfj_000000gn/T//ccYBEDSz.s:483    .text.startup.main:0000000000000050 .LVL51
/var/folders/rt/4gvqv631095f64jvm7jfj_000000gn/T//ccYBEDSz.s:486    .text.startup.main:0000000000000058 .LVL52
/var/folders/rt/4gvqv631095f64jvm7jfj_000000gn/T//ccYBEDSz.s:490    .text.startup.main:0000000000000062 .LVL53
/var/folders/rt/4gvqv631095f64jvm7jfj_000000gn/T//ccYBEDSz.s:517    .text.startup.main:000000000000009e .LVL54
/var/folders/rt/4gvqv631095f64jvm7jfj_000000gn/T//ccYBEDSz.s:523    .text.startup.main:00000000000000ae .LVL55
/var/folders/rt/4gvqv631095f64jvm7jfj_000000gn/T//ccYBEDSz.s:530    .text.startup.main:00000000000000c2 .LVL56
/var/folders/rt/4gvqv631095f64jvm7jfj_000000gn/T//ccYBEDSz.s:551    .text.startup.main:00000000000000d6 .LVL60
/var/folders/rt/4gvqv631095f64jvm7jfj_000000gn/T//ccYBEDSz.s:556    .text.startup.main:00000000000000e0 .LVL61
/var/folders/rt/4gvqv631095f64jvm7jfj_000000gn/T//ccYBEDSz.s:562    .text.startup.main:00000000000000ea .LVL63
/var/folders/rt/4gvqv631095f64jvm7jfj_000000gn/T//ccYBEDSz.s:573    .text.startup.main:0000000000000102 .LVL64
/var/folders/rt/4gvqv631095f64jvm7jfj_000000gn/T//ccYBEDSz.s:582    .text.startup.main:0000000000000112 .LVL66
/var/folders/rt/4gvqv631095f64jvm7jfj_000000gn/T//ccYBEDSz.s:589    .text.startup.main:0000000000000120 .LVL67
/var/folders/rt/4gvqv631095f64jvm7jfj_000000gn/T//ccYBEDSz.s:594    .text.startup.main:000000000000012c .LVL68
/var/folders/rt/4gvqv631095f64jvm7jfj_000000gn/T//ccYBEDSz.s:4644   .debug_str:000000000000017b .LASF168
/var/folders/rt/4gvqv631095f64jvm7jfj_000000gn/T//ccYBEDSz.s:4582   .debug_str:000000000000004b .LASF139
/var/folders/rt/4gvqv631095f64jvm7jfj_000000gn/T//ccYBEDSz.s:4626   .debug_str:000000000000012f .LASF140
/var/folders/rt/4gvqv631095f64jvm7jfj_000000gn/T//ccYBEDSz.s:4728   .debug_str:0000000000000325 .LASF142
/var/folders/rt/4gvqv631095f64jvm7jfj_000000gn/T//ccYBEDSz.s:162    .text.fetchReading:0000000000000000 .LFB7
/var/folders/rt/4gvqv631095f64jvm7jfj_000000gn/T//ccYBEDSz.s:259    .text.fetchReading:0000000000000076 .LFE7
/var/folders/rt/4gvqv631095f64jvm7jfj_000000gn/T//ccYBEDSz.s:4070   .debug_loc:000000000000009b .LLST4
/var/folders/rt/4gvqv631095f64jvm7jfj_000000gn/T//ccYBEDSz.s:4726   .debug_str:000000000000031e .LASF143
/var/folders/rt/4gvqv631095f64jvm7jfj_000000gn/T//ccYBEDSz.s:4093   .debug_loc:00000000000000d3 .LLST5
/var/folders/rt/4gvqv631095f64jvm7jfj_000000gn/T//ccYBEDSz.s:4115   .debug_loc:000000000000010a .LLST6
/var/folders/rt/4gvqv631095f64jvm7jfj_000000gn/T//ccYBEDSz.s:4746   .debug_str:0000000000000380 .LASF144
GAS LISTING /var/folders/rt/4gvqv631095f64jvm7jfj_000000gn/T//ccYBEDSz.s 			page 23


/var/folders/rt/4gvqv631095f64jvm7jfj_000000gn/T//ccYBEDSz.s:4137   .debug_loc:0000000000000141 .LLST7
/var/folders/rt/4gvqv631095f64jvm7jfj_000000gn/T//ccYBEDSz.s:4158   .debug_loc:0000000000000177 .LLST8
/var/folders/rt/4gvqv631095f64jvm7jfj_000000gn/T//ccYBEDSz.s:192    .text.fetchReading:000000000000001c .LVL14
/var/folders/rt/4gvqv631095f64jvm7jfj_000000gn/T//ccYBEDSz.s:203    .text.fetchReading:000000000000002c .LVL16
/var/folders/rt/4gvqv631095f64jvm7jfj_000000gn/T//ccYBEDSz.s:210    .text.fetchReading:0000000000000038 .LVL17
/var/folders/rt/4gvqv631095f64jvm7jfj_000000gn/T//ccYBEDSz.s:217    .text.fetchReading:0000000000000046 .LVL19
/var/folders/rt/4gvqv631095f64jvm7jfj_000000gn/T//ccYBEDSz.s:253    .text.fetchReading:0000000000000072 .LVL24
/var/folders/rt/4gvqv631095f64jvm7jfj_000000gn/T//ccYBEDSz.s:4810   .debug_str:00000000000004ac .LASF169
/var/folders/rt/4gvqv631095f64jvm7jfj_000000gn/T//ccYBEDSz.s:14     .text.renderLCD:0000000000000000 .LFB6
/var/folders/rt/4gvqv631095f64jvm7jfj_000000gn/T//ccYBEDSz.s:155    .text.renderLCD:00000000000000cc .LFE6
/var/folders/rt/4gvqv631095f64jvm7jfj_000000gn/T//ccYBEDSz.s:4170   .debug_loc:0000000000000190 .LLST0
/var/folders/rt/4gvqv631095f64jvm7jfj_000000gn/T//ccYBEDSz.s:4193   .debug_loc:00000000000001c8 .LLST1
/var/folders/rt/4gvqv631095f64jvm7jfj_000000gn/T//ccYBEDSz.s:4207   .debug_loc:00000000000001e9 .LLST2
/var/folders/rt/4gvqv631095f64jvm7jfj_000000gn/T//ccYBEDSz.s:4229   .debug_loc:0000000000000220 .LLST3
/var/folders/rt/4gvqv631095f64jvm7jfj_000000gn/T//ccYBEDSz.s:109    .text.renderLCD:0000000000000058 .LVL6
/var/folders/rt/4gvqv631095f64jvm7jfj_000000gn/T//ccYBEDSz.s:117    .text.renderLCD:000000000000006a .LVL7
/var/folders/rt/4gvqv631095f64jvm7jfj_000000gn/T//ccYBEDSz.s:126    .text.renderLCD:0000000000000082 .LVL8
/var/folders/rt/4gvqv631095f64jvm7jfj_000000gn/T//ccYBEDSz.s:134    .text.renderLCD:0000000000000098 .LVL9
/var/folders/rt/4gvqv631095f64jvm7jfj_000000gn/T//ccYBEDSz.s:142    .text.renderLCD:00000000000000ae .LVL10
/var/folders/rt/4gvqv631095f64jvm7jfj_000000gn/T//ccYBEDSz.s:150    .text.renderLCD:00000000000000c6 .LVL11
/var/folders/rt/4gvqv631095f64jvm7jfj_000000gn/T//ccYBEDSz.s:269    .text.updatePlantReading:0000000000000000 .LFB8
/var/folders/rt/4gvqv631095f64jvm7jfj_000000gn/T//ccYBEDSz.s:432    .text.updatePlantReading:00000000000000b4 .LFE8
/var/folders/rt/4gvqv631095f64jvm7jfj_000000gn/T//ccYBEDSz.s:4255   .debug_loc:0000000000000262 .LLST9
/var/folders/rt/4gvqv631095f64jvm7jfj_000000gn/T//ccYBEDSz.s:4288   .debug_loc:00000000000002b2 .LLST10
/var/folders/rt/4gvqv631095f64jvm7jfj_000000gn/T//ccYBEDSz.s:4302   .debug_loc:00000000000002d3 .LLST11
/var/folders/rt/4gvqv631095f64jvm7jfj_000000gn/T//ccYBEDSz.s:4335   .debug_loc:0000000000000323 .LLST12
/var/folders/rt/4gvqv631095f64jvm7jfj_000000gn/T//ccYBEDSz.s:4376   .debug_loc:0000000000000389 .LLST13
/var/folders/rt/4gvqv631095f64jvm7jfj_000000gn/T//ccYBEDSz.s:4417   .debug_loc:00000000000003ef .LLST14
/var/folders/rt/4gvqv631095f64jvm7jfj_000000gn/T//ccYBEDSz.s:374    .text.updatePlantReading:000000000000005c .LBB15
/var/folders/rt/4gvqv631095f64jvm7jfj_000000gn/T//ccYBEDSz.s:399    .text.updatePlantReading:000000000000009e .LBE15
/var/folders/rt/4gvqv631095f64jvm7jfj_000000gn/T//ccYBEDSz.s:4437   .debug_loc:0000000000000424 .LLST15
/var/folders/rt/4gvqv631095f64jvm7jfj_000000gn/T//ccYBEDSz.s:381    .text.updatePlantReading:000000000000006e .LVL36
/var/folders/rt/4gvqv631095f64jvm7jfj_000000gn/T//ccYBEDSz.s:365    .text.updatePlantReading:0000000000000052 .LVL34
/var/folders/rt/4gvqv631095f64jvm7jfj_000000gn/T//ccYBEDSz.s:303    .text.updatePlantReading:0000000000000018 .LBB16
/var/folders/rt/4gvqv631095f64jvm7jfj_000000gn/T//ccYBEDSz.s:4453   .debug_loc:0000000000000448 .LLST16
/var/folders/rt/4gvqv631095f64jvm7jfj_000000gn/T//ccYBEDSz.s:4463   .debug_loc:000000000000045e .LLST17
/var/folders/rt/4gvqv631095f64jvm7jfj_000000gn/T//ccYBEDSz.s:4477   .debug_loc:000000000000047f .LLST18
/var/folders/rt/4gvqv631095f64jvm7jfj_000000gn/T//ccYBEDSz.s:4491   .debug_loc:00000000000004a0 .LLST19
/var/folders/rt/4gvqv631095f64jvm7jfj_000000gn/T//ccYBEDSz.s:350    .text.updatePlantReading:0000000000000042 .LVL33
/var/folders/rt/4gvqv631095f64jvm7jfj_000000gn/T//ccYBEDSz.s:4856   .debug_str:0000000000000638 .LASF145
/var/folders/rt/4gvqv631095f64jvm7jfj_000000gn/T//ccYBEDSz.s:4624   .debug_str:0000000000000127 .LASF146
/var/folders/rt/4gvqv631095f64jvm7jfj_000000gn/T//ccYBEDSz.s:4760   .debug_str:00000000000003c0 .LASF147
/var/folders/rt/4gvqv631095f64jvm7jfj_000000gn/T//ccYBEDSz.s:4868   .debug_str:000000000000067d .LASF148
/var/folders/rt/4gvqv631095f64jvm7jfj_000000gn/T//ccYBEDSz.s:4790   .debug_str:000000000000044c .LASF149
/var/folders/rt/4gvqv631095f64jvm7jfj_000000gn/T//ccYBEDSz.s:4894   .debug_str:00000000000006ff .LASF150
/var/folders/rt/4gvqv631095f64jvm7jfj_000000gn/T//ccYBEDSz.s:4632   .debug_str:0000000000000149 .LASF151
/var/folders/rt/4gvqv631095f64jvm7jfj_000000gn/T//ccYBEDSz.s:4880   .debug_str:00000000000006b5 .LASF152
/var/folders/rt/4gvqv631095f64jvm7jfj_000000gn/T//ccYBEDSz.s:4776   .debug_str:0000000000000407 .LASF153
/var/folders/rt/4gvqv631095f64jvm7jfj_000000gn/T//ccYBEDSz.s:4604   .debug_str:00000000000000d4 .LASF154
/var/folders/rt/4gvqv631095f64jvm7jfj_000000gn/T//ccYBEDSz.s:4834   .debug_str:0000000000000512 .LASF155
/var/folders/rt/4gvqv631095f64jvm7jfj_000000gn/T//ccYBEDSz.s:4692   .debug_str:0000000000000280 .LASF156
/var/folders/rt/4gvqv631095f64jvm7jfj_000000gn/T//ccYBEDSz.s:4712   .debug_str:00000000000002d2 .LASF157
/var/folders/rt/4gvqv631095f64jvm7jfj_000000gn/T//ccYBEDSz.s:4634   .debug_str:0000000000000153 .LASF158
/var/folders/rt/4gvqv631095f64jvm7jfj_000000gn/T//ccYBEDSz.s:4660   .debug_str:00000000000001e3 .LASF159
/var/folders/rt/4gvqv631095f64jvm7jfj_000000gn/T//ccYBEDSz.s:4892   .debug_str:00000000000006f0 .LASF160
/var/folders/rt/4gvqv631095f64jvm7jfj_000000gn/T//ccYBEDSz.s:4838   .debug_str:0000000000000521 .LASF161
/var/folders/rt/4gvqv631095f64jvm7jfj_000000gn/T//ccYBEDSz.s:4850   .debug_str:0000000000000614 .LASF162
GAS LISTING /var/folders/rt/4gvqv631095f64jvm7jfj_000000gn/T//ccYBEDSz.s 			page 24


/var/folders/rt/4gvqv631095f64jvm7jfj_000000gn/T//ccYBEDSz.s:4570   .debug_str:0000000000000016 .LASF163
/var/folders/rt/4gvqv631095f64jvm7jfj_000000gn/T//ccYBEDSz.s:448    .text.startup.main:0000000000000006 .LCFI11
/var/folders/rt/4gvqv631095f64jvm7jfj_000000gn/T//ccYBEDSz.s:458    .text.startup.main:0000000000000024 .LCFI12
/var/folders/rt/4gvqv631095f64jvm7jfj_000000gn/T//ccYBEDSz.s:443    .text.startup.main:0000000000000000 .LVL46
/var/folders/rt/4gvqv631095f64jvm7jfj_000000gn/T//ccYBEDSz.s:537    .text.startup.main:00000000000000ca .LVL57
/var/folders/rt/4gvqv631095f64jvm7jfj_000000gn/T//ccYBEDSz.s:541    .text.startup.main:00000000000000cc .LVL58
/var/folders/rt/4gvqv631095f64jvm7jfj_000000gn/T//ccYBEDSz.s:559    .text.startup.main:00000000000000e2 .LVL62
/var/folders/rt/4gvqv631095f64jvm7jfj_000000gn/T//ccYBEDSz.s:579    .text.startup.main:000000000000010a .LVL65
/var/folders/rt/4gvqv631095f64jvm7jfj_000000gn/T//ccYBEDSz.s:169    .text.fetchReading:0000000000000002 .LCFI3
/var/folders/rt/4gvqv631095f64jvm7jfj_000000gn/T//ccYBEDSz.s:236    .text.fetchReading:0000000000000054 .LCFI4
/var/folders/rt/4gvqv631095f64jvm7jfj_000000gn/T//ccYBEDSz.s:241    .text.fetchReading:0000000000000056 .LCFI5
/var/folders/rt/4gvqv631095f64jvm7jfj_000000gn/T//ccYBEDSz.s:165    .text.fetchReading:0000000000000000 .LVL12
/var/folders/rt/4gvqv631095f64jvm7jfj_000000gn/T//ccYBEDSz.s:225    .text.fetchReading:000000000000004a .LVL20
/var/folders/rt/4gvqv631095f64jvm7jfj_000000gn/T//ccYBEDSz.s:239    .text.fetchReading:0000000000000056 .LVL23
/var/folders/rt/4gvqv631095f64jvm7jfj_000000gn/T//ccYBEDSz.s:176    .text.fetchReading:0000000000000008 .LVL13
/var/folders/rt/4gvqv631095f64jvm7jfj_000000gn/T//ccYBEDSz.s:229    .text.fetchReading:000000000000004e .LVL21
/var/folders/rt/4gvqv631095f64jvm7jfj_000000gn/T//ccYBEDSz.s:197    .text.fetchReading:0000000000000020 .LVL15
/var/folders/rt/4gvqv631095f64jvm7jfj_000000gn/T//ccYBEDSz.s:212    .text.fetchReading:000000000000003a .LVL18
/var/folders/rt/4gvqv631095f64jvm7jfj_000000gn/T//ccYBEDSz.s:232    .text.fetchReading:0000000000000050 .LVL22
/var/folders/rt/4gvqv631095f64jvm7jfj_000000gn/T//ccYBEDSz.s:25     .text.renderLCD:0000000000000002 .LCFI0
/var/folders/rt/4gvqv631095f64jvm7jfj_000000gn/T//ccYBEDSz.s:89     .text.renderLCD:000000000000003e .LCFI1
/var/folders/rt/4gvqv631095f64jvm7jfj_000000gn/T//ccYBEDSz.s:94     .text.renderLCD:0000000000000040 .LCFI2
/var/folders/rt/4gvqv631095f64jvm7jfj_000000gn/T//ccYBEDSz.s:18     .text.renderLCD:0000000000000000 .LVL0
/var/folders/rt/4gvqv631095f64jvm7jfj_000000gn/T//ccYBEDSz.s:61     .text.renderLCD:0000000000000026 .LVL1
/var/folders/rt/4gvqv631095f64jvm7jfj_000000gn/T//ccYBEDSz.s:85     .text.renderLCD:000000000000003a .LVL3
/var/folders/rt/4gvqv631095f64jvm7jfj_000000gn/T//ccYBEDSz.s:92     .text.renderLCD:0000000000000040 .LVL4
/var/folders/rt/4gvqv631095f64jvm7jfj_000000gn/T//ccYBEDSz.s:78     .text.renderLCD:0000000000000034 .LVL2
/var/folders/rt/4gvqv631095f64jvm7jfj_000000gn/T//ccYBEDSz.s:105    .text.renderLCD:000000000000004e .LVL5
/var/folders/rt/4gvqv631095f64jvm7jfj_000000gn/T//ccYBEDSz.s:274    .text.updatePlantReading:0000000000000002 .LCFI6
/var/folders/rt/4gvqv631095f64jvm7jfj_000000gn/T//ccYBEDSz.s:344    .text.updatePlantReading:000000000000003a .LCFI7
/var/folders/rt/4gvqv631095f64jvm7jfj_000000gn/T//ccYBEDSz.s:352    .text.updatePlantReading:0000000000000042 .LCFI8
/var/folders/rt/4gvqv631095f64jvm7jfj_000000gn/T//ccYBEDSz.s:416    .text.updatePlantReading:00000000000000aa .LCFI9
/var/folders/rt/4gvqv631095f64jvm7jfj_000000gn/T//ccYBEDSz.s:422    .text.updatePlantReading:00000000000000ac .LCFI10
/var/folders/rt/4gvqv631095f64jvm7jfj_000000gn/T//ccYBEDSz.s:272    .text.updatePlantReading:0000000000000000 .LVL25
/var/folders/rt/4gvqv631095f64jvm7jfj_000000gn/T//ccYBEDSz.s:297    .text.updatePlantReading:0000000000000014 .LVL27
/var/folders/rt/4gvqv631095f64jvm7jfj_000000gn/T//ccYBEDSz.s:319    .text.updatePlantReading:0000000000000020 .LVL30
/var/folders/rt/4gvqv631095f64jvm7jfj_000000gn/T//ccYBEDSz.s:412    .text.updatePlantReading:00000000000000a6 .LVL42
/var/folders/rt/4gvqv631095f64jvm7jfj_000000gn/T//ccYBEDSz.s:420    .text.updatePlantReading:00000000000000ac .LVL44
/var/folders/rt/4gvqv631095f64jvm7jfj_000000gn/T//ccYBEDSz.s:328    .text.updatePlantReading:0000000000000028 .LVL32
/var/folders/rt/4gvqv631095f64jvm7jfj_000000gn/T//ccYBEDSz.s:370    .text.updatePlantReading:0000000000000058 .LVL35
/var/folders/rt/4gvqv631095f64jvm7jfj_000000gn/T//ccYBEDSz.s:418    .text.updatePlantReading:00000000000000aa .LVL43
/var/folders/rt/4gvqv631095f64jvm7jfj_000000gn/T//ccYBEDSz.s:326    .text.updatePlantReading:0000000000000024 .LVL31
/var/folders/rt/4gvqv631095f64jvm7jfj_000000gn/T//ccYBEDSz.s:291    .text.updatePlantReading:000000000000000e .LVL26
/var/folders/rt/4gvqv631095f64jvm7jfj_000000gn/T//ccYBEDSz.s:316    .text.updatePlantReading:000000000000001e .LVL29
/var/folders/rt/4gvqv631095f64jvm7jfj_000000gn/T//ccYBEDSz.s:409    .text.updatePlantReading:00000000000000a4 .LVL41
/var/folders/rt/4gvqv631095f64jvm7jfj_000000gn/T//ccYBEDSz.s:386    .text.updatePlantReading:0000000000000076 .LVL37
/var/folders/rt/4gvqv631095f64jvm7jfj_000000gn/T//ccYBEDSz.s:388    .text.updatePlantReading:000000000000007e .LVL38
/var/folders/rt/4gvqv631095f64jvm7jfj_000000gn/T//ccYBEDSz.s:301    .text.updatePlantReading:0000000000000018 .LVL28
/var/folders/rt/4gvqv631095f64jvm7jfj_000000gn/T//ccYBEDSz.s:644    .debug_info:0000000000000000 .Ldebug_info0
/var/folders/rt/4gvqv631095f64jvm7jfj_000000gn/T//ccYBEDSz.s:20     .text.renderLCD:0000000000000000 .LBB4
/var/folders/rt/4gvqv631095f64jvm7jfj_000000gn/T//ccYBEDSz.s:22     .text.renderLCD:0000000000000000 .LBE4
/var/folders/rt/4gvqv631095f64jvm7jfj_000000gn/T//ccYBEDSz.s:29     .text.renderLCD:0000000000000004 .LBB5
/var/folders/rt/4gvqv631095f64jvm7jfj_000000gn/T//ccYBEDSz.s:32     .text.renderLCD:0000000000000006 .LBE5
/var/folders/rt/4gvqv631095f64jvm7jfj_000000gn/T//ccYBEDSz.s:53     .text.renderLCD:000000000000001a .LBB6
/var/folders/rt/4gvqv631095f64jvm7jfj_000000gn/T//ccYBEDSz.s:65     .text.renderLCD:000000000000002a .LBE6
/var/folders/rt/4gvqv631095f64jvm7jfj_000000gn/T//ccYBEDSz.s:96     .text.renderLCD:0000000000000040 .LBB7
/var/folders/rt/4gvqv631095f64jvm7jfj_000000gn/T//ccYBEDSz.s:153    .text.renderLCD:00000000000000cc .LBE7
GAS LISTING /var/folders/rt/4gvqv631095f64jvm7jfj_000000gn/T//ccYBEDSz.s 			page 25


/var/folders/rt/4gvqv631095f64jvm7jfj_000000gn/T//ccYBEDSz.s:289    .text.updatePlantReading:000000000000000e .LBB14
/var/folders/rt/4gvqv631095f64jvm7jfj_000000gn/T//ccYBEDSz.s:302    .text.updatePlantReading:0000000000000018 .LBE14
/var/folders/rt/4gvqv631095f64jvm7jfj_000000gn/T//ccYBEDSz.s:356    .text.updatePlantReading:0000000000000042 .LBB24
/var/folders/rt/4gvqv631095f64jvm7jfj_000000gn/T//ccYBEDSz.s:400    .text.updatePlantReading:000000000000009e .LBE24
/var/folders/rt/4gvqv631095f64jvm7jfj_000000gn/T//ccYBEDSz.s:424    .text.updatePlantReading:00000000000000ac .LBB25
/var/folders/rt/4gvqv631095f64jvm7jfj_000000gn/T//ccYBEDSz.s:430    .text.updatePlantReading:00000000000000b4 .LBE25
/var/folders/rt/4gvqv631095f64jvm7jfj_000000gn/T//ccYBEDSz.s:307    .text.updatePlantReading:0000000000000018 .LBE16
/var/folders/rt/4gvqv631095f64jvm7jfj_000000gn/T//ccYBEDSz.s:322    .text.updatePlantReading:0000000000000022 .LBB21
/var/folders/rt/4gvqv631095f64jvm7jfj_000000gn/T//ccYBEDSz.s:330    .text.updatePlantReading:0000000000000028 .LBE21
/var/folders/rt/4gvqv631095f64jvm7jfj_000000gn/T//ccYBEDSz.s:332    .text.updatePlantReading:0000000000000028 .LBB22
/var/folders/rt/4gvqv631095f64jvm7jfj_000000gn/T//ccYBEDSz.s:341    .text.updatePlantReading:0000000000000038 .LBE22
/var/folders/rt/4gvqv631095f64jvm7jfj_000000gn/T//ccYBEDSz.s:346    .text.updatePlantReading:000000000000003a .LBB23
/var/folders/rt/4gvqv631095f64jvm7jfj_000000gn/T//ccYBEDSz.s:355    .text.updatePlantReading:0000000000000042 .LBE23

UNDEFINED SYMBOLS
LCD_ShowStr
LCD_ShowNum
adc_software_trigger_enable
adc_flag_get
adc_regular_data_read
adc_flag_clear
__floatsidf
__divdf3
__fixdfsi
strcmp
t5omsi
colinit
l88init
ADC3powerUpInit
Lcd_SetType
Lcd_Init
LCD_Clear
initPlant
t5expq
colset
l88row
l88mem
