GAS LISTING /var/folders/rt/4gvqv631095f64jvm7jfj_000000gn/T//cc0EWEBo.s 			page 1


   1              		.file	"main.c"
   2              		.option nopic
   3              		.attribute arch, "rv32i2p0_m2p0_a2p0_c2p0"
   4              		.attribute unaligned_access, 0
   5              		.attribute stack_align, 16
   6              		.text
   7              	.Ltext0:
   8              		.cfi_sections	.debug_frame
   9              		.section	.text.rtcInit,"ax",@progbits
  10              		.align	1
  11              		.globl	rtcInit
  13              	rtcInit:
  14              	.LFB2:
  15              		.file 1 "main.c"
   1:main.c        **** #include "gd32vf103.h"
   2:main.c        **** #include "drivers.h"
   3:main.c        **** #include "adc.h"
   4:main.c        **** #include "lcd.h"
   5:main.c        **** #include "usart.h"
   6:main.c        **** #define EI 1
   7:main.c        **** #define DI 0
   8:main.c        **** 
   9:main.c        **** void rtcInit(void){
  16              		.loc 1 9 19
  17              		.cfi_startproc
  10:main.c        ****    
  11:main.c        ****    rcu_periph_clock_enable(RCU_PMU); // enable power managemenet unit - perhaps enabled by default
  18              		.loc 1 11 4
   9:main.c        ****    
  19              		.loc 1 9 19 is_stmt 0
  20 0000 4111     		addi	sp,sp,-16
  21              	.LCFI0:
  22              		.cfi_def_cfa_offset 16
  23              		.loc 1 11 4
  24 0002 1305C071 		li	a0,1820
   9:main.c        ****    
  25              		.loc 1 9 19
  26 0006 06C6     		sw	ra,12(sp)
  27              		.cfi_offset 1, -4
  28              		.loc 1 11 4
  29 0008 97000000 		call	rcu_periph_clock_enable
  29      E7800000 
  30              	.LVL0:
  12:main.c        ****    // enable write access to the registers in the backup domain
  13:main.c        ****    pmu_backup_write_enable();
  31              		.loc 1 13 4 is_stmt 1
  32 0010 97000000 		call	pmu_backup_write_enable
  32      E7800000 
  33              	.LVL1:
  14:main.c        ****    // enable backup domain
  15:main.c        ****    rcu_periph_clock_enable(RCU_BKPI);
  34              		.loc 1 15 4
  35 0018 1305B071 		li	a0,1819
  36 001c 97000000 		call	rcu_periph_clock_enable
  36      E7800000 
  37              	.LVL2:
  16:main.c        ****    // reset backup domain registers
GAS LISTING /var/folders/rt/4gvqv631095f64jvm7jfj_000000gn/T//cc0EWEBo.s 			page 2


  17:main.c        ****    bkp_deinit();
  38              		.loc 1 17 4
  39 0024 97000000 		call	bkp_deinit
  39      E7800000 
  40              	.LVL3:
  18:main.c        ****    // set the results of a previous calibration procedure
  19:main.c        ****    // bkp_rtc_calibration_value_set(x);
  20:main.c        **** 
  21:main.c        ****    // setup RTC
  22:main.c        ****    // enable external low speed XO
  23:main.c        ****    //rcu_osci_on(RCU_LXTAL);
  24:main.c        ****    if (rcu_osci_stab_wait(RCU_HXTAL)) {
  41              		.loc 1 24 4
  42              		.loc 1 24 8 is_stmt 0
  43 002c 4145     		li	a0,16
  44 002e 97000000 		call	rcu_osci_stab_wait
  44      E7800000 
  45              	.LVL4:
  46              		.loc 1 24 7
  47 0036 21CD     		beq	a0,zero,.L1
  25:main.c        ****      // use external low speed oscillaotr, i.e. 32.768 kHz
  26:main.c        ****      rcu_rtc_clock_config(RCU_RTCSRC_HXTAL_DIV_128);
  48              		.loc 1 26 6 is_stmt 1
  49 0038 13050030 		li	a0,768
  50 003c 97000000 		call	rcu_rtc_clock_config
  50      E7800000 
  51              	.LVL5:
  27:main.c        ****      rcu_periph_clock_enable(RCU_RTC);
  52              		.loc 1 27 6
  53 0044 0565     		li	a0,4096
  54 0046 1305F580 		addi	a0,a0,-2033
  55 004a 97000000 		call	rcu_periph_clock_enable
  55      E7800000 
  56              	.LVL6:
  28:main.c        ****      // wait until shadow registers are synced from the backup domain
  29:main.c        ****      // over the APB bus
  30:main.c        ****      rtc_register_sync_wait();
  57              		.loc 1 30 6
  58 0052 97000000 		call	rtc_register_sync_wait
  58      E7800000 
  59              	.LVL7:
  31:main.c        ****      // wait until shadow register changes are synced over APB
  32:main.c        ****      // to the backup doamin
  33:main.c        ****      rtc_lwoff_wait();
  60              		.loc 1 33 6
  61 005a 97000000 		call	rtc_lwoff_wait
  61      E7800000 
  62              	.LVL8:
  34:main.c        ****      // prescale to 1 second
  35:main.c        ****      rtc_prescaler_set(62500 - 1);
  63              		.loc 1 35 6
  64 0062 3D65     		li	a0,61440
  65 0064 13053542 		addi	a0,a0,1059
  66 0068 97000000 		call	rtc_prescaler_set
  66      E7800000 
  67              	.LVL9:
  36:main.c        ****      rtc_lwoff_wait();
GAS LISTING /var/folders/rt/4gvqv631095f64jvm7jfj_000000gn/T//cc0EWEBo.s 			page 3


  68              		.loc 1 36 6
  69 0070 97000000 		call	rtc_lwoff_wait
  69      E7800000 
  70              	.LVL10:
  37:main.c        ****      rtc_flag_clear(RTC_INT_FLAG_SECOND);
  71              		.loc 1 37 6
  72 0078 0545     		li	a0,1
  73 007a 97000000 		call	rtc_flag_clear
  73      E7800000 
  74              	.LVL11:
  38:main.c        ****      //rtc_interrupt_enable(RTC_INT_SECOND);
  39:main.c        ****      rtc_lwoff_wait();
  75              		.loc 1 39 6
  40:main.c        ****    }
  41:main.c        **** }
  76              		.loc 1 41 1 is_stmt 0
  77 0082 B240     		lw	ra,12(sp)
  78              		.cfi_remember_state
  79              		.cfi_restore 1
  80 0084 4101     		addi	sp,sp,16
  81              	.LCFI1:
  82              		.cfi_def_cfa_offset 0
  39:main.c        ****    }
  83              		.loc 1 39 6
  84 0086 17030000 		tail	rtc_lwoff_wait
  84      67000300 
  85              	.LVL12:
  86              	.L1:
  87              	.LCFI2:
  88              		.cfi_restore_state
  89              		.loc 1 41 1
  90 008e B240     		lw	ra,12(sp)
  91              		.cfi_restore 1
  92 0090 4101     		addi	sp,sp,16
  93              	.LCFI3:
  94              		.cfi_def_cfa_offset 0
  95 0092 8280     		jr	ra
  96              		.cfi_endproc
  97              	.LFE2:
  99              		.section	.text.startup.main,"ax",@progbits
 100              		.align	1
 101              		.globl	main
 103              	main:
 104              	.LFB3:
  42:main.c        **** 
  43:main.c        **** int main(void){
 105              		.loc 1 43 15 is_stmt 1
 106              		.cfi_startproc
  44:main.c        ****     int ms=0, s=0, key, pKey=-1, c=0, idle=0, rtc, hh, mm, ss;
 107              		.loc 1 44 5
 108              	.LVL13:
  45:main.c        ****     int lookUpTbl[16]={1,4,7,14,2,5,8,0,3,6,9,15,10,11,12,13};
 109              		.loc 1 45 5
  46:main.c        ****     int dac=0, speed=-100;
 110              		.loc 1 46 5
  47:main.c        ****     int adcr, tmpr;
 111              		.loc 1 47 5
GAS LISTING /var/folders/rt/4gvqv631095f64jvm7jfj_000000gn/T//cc0EWEBo.s 			page 4


  48:main.c        **** 
  49:main.c        **** 
  50:main.c        ****     t5omsi();                               // Initialize timer5 1kHz
 112              		.loc 1 50 5
  43:main.c        ****     int ms=0, s=0, key, pKey=-1, c=0, idle=0, rtc, hh, mm, ss;
 113              		.loc 1 43 15 is_stmt 0
 114 0000 0111     		addi	sp,sp,-32
 115              	.LCFI4:
 116              		.cfi_def_cfa_offset 32
 117 0002 06CE     		sw	ra,28(sp)
 118 0004 26CA     		sw	s1,20(sp)
 119 0006 4AC8     		sw	s2,16(sp)
 120 0008 4EC6     		sw	s3,12(sp)
 121 000a 52C4     		sw	s4,8(sp)
 122 000c 56C2     		sw	s5,4(sp)
 123 000e 22CC     		sw	s0,24(sp)
 124              		.cfi_offset 1, -4
 125              		.cfi_offset 9, -12
 126              		.cfi_offset 18, -16
 127              		.cfi_offset 19, -20
 128              		.cfi_offset 20, -24
 129              		.cfi_offset 21, -28
 130              		.cfi_offset 8, -8
 131              		.loc 1 50 5
 132 0010 97000000 		call	t5omsi
 132      E7800000 
 133              	.LVL14:
  51:main.c        ****     colinit();                              // Initialize column toolbox
 134              		.loc 1 51 5 is_stmt 1
 135 0018 97000000 		call	colinit
 135      E7800000 
 136              	.LVL15:
  52:main.c        ****     l88init();                              // Initialize 8*8 led toolbox
 137              		.loc 1 52 5
 138 0020 97000000 		call	l88init
 138      E7800000 
 139              	.LVL16:
  53:main.c        ****     keyinit();                              // Initialize keyboard toolbox
 140              		.loc 1 53 5
 141 0028 97000000 		call	keyinit
 141      E7800000 
 142              	.LVL17:
  54:main.c        ****     ADC3powerUpInit(1);                     // Initialize ADC0, Ch3
 143              		.loc 1 54 5
 144 0030 0545     		li	a0,1
 145 0032 97000000 		call	ADC3powerUpInit
 145      E7800000 
 146              	.LVL18:
  55:main.c        ****     Lcd_SetType(LCD_INVERTED);                // or use LCD_INVERTED!
 147              		.loc 1 55 5
 148 003a 0545     		li	a0,1
 149 003c 97000000 		call	Lcd_SetType
 149      E7800000 
 150              	.LVL19:
  56:main.c        ****     Lcd_Init();
 151              		.loc 1 56 5
 152 0044 97000000 		call	Lcd_Init
GAS LISTING /var/folders/rt/4gvqv631095f64jvm7jfj_000000gn/T//cc0EWEBo.s 			page 5


 152      E7800000 
 153              	.LVL20:
  57:main.c        ****     LCD_Clear(BLACK);
 154              		.loc 1 57 5
 155 004c 0145     		li	a0,0
 156 004e 97000000 		call	LCD_Clear
 156      E7800000 
 157              	.LVL21:
  58:main.c        ****     
  59:main.c        ****     //rtcInit();                              // Initialize RTC
  60:main.c        ****     //rtc_counter_set(3600+60+1);
  61:main.c        ****     u0init(EI);                               // Initialize USART0 toolbox
 158              		.loc 1 61 5
 159 0056 0545     		li	a0,1
  62:main.c        ****     //eclic_global_interrupt_enable();          // !!! INTERRUPT ENABLED !!!
  63:main.c        **** 
  64:main.c        ****     while (1) {
  65:main.c        ****         idle++;                               // Manage Async events
  66:main.c        **** 
  67:main.c        ****         if (t5expq()) {                         // Manage periodic tasks
  68:main.c        ****             l88row(colset());                   // ...8*8LED and Keyboard
  69:main.c        ****             ms++;                               // ...One second heart beat
  70:main.c        ****             if (ms==1000){
  71:main.c        ****               ms=0;
  72:main.c        ****               LCD_ShowStr(0, 0, "Plantii v0.1", WHITE, TRANSPARENT);
 160              		.loc 1 72 15 is_stmt 0
 161 0058 C169     		li	s3,65536
  73:main.c        ****             }
  74:main.c        ****             l88mem(2,idle>>8);                  // ...Performance monitor
  75:main.c        ****             l88mem(3,idle); idle=0;
  76:main.c        ****             adc_software_trigger_enable(ADC0,   // Trigger another ADC conversion!
 162              		.loc 1 76 13
 163 005a 37290140 		li	s2,1073815552
  61:main.c        ****     //eclic_global_interrupt_enable();          // !!! INTERRUPT ENABLED !!!
 164              		.loc 1 61 5
 165 005e 97000000 		call	u0init
 165      E7800000 
 166              	.LVL22:
  44:main.c        ****     int lookUpTbl[16]={1,4,7,14,2,5,8,0,3,6,9,15,10,11,12,13};
 167              		.loc 1 44 9
 168 0066 8144     		li	s1,0
  70:main.c        ****               ms=0;
 169              		.loc 1 70 16
 170 0068 130A803E 		li	s4,1000
  72:main.c        ****             }
 171              		.loc 1 72 15
 172 006c FD19     		addi	s3,s3,-1
 173 006e B70A0000 		lui	s5,%hi(.LC1)
 174              		.loc 1 76 13
 175 0072 13090940 		addi	s2,s2,1024
 176              	.LVL23:
 177              	.L7:
  44:main.c        ****     int lookUpTbl[16]={1,4,7,14,2,5,8,0,3,6,9,15,10,11,12,13};
 178              		.loc 1 44 9
 179 0076 0144     		li	s0,0
 180              	.LVL24:
 181              	.L5:
GAS LISTING /var/folders/rt/4gvqv631095f64jvm7jfj_000000gn/T//cc0EWEBo.s 			page 6


  64:main.c        ****         idle++;                               // Manage Async events
 182              		.loc 1 64 5 is_stmt 1
  65:main.c        **** 
 183              		.loc 1 65 9
  65:main.c        **** 
 184              		.loc 1 65 13 is_stmt 0
 185 0078 0504     		addi	s0,s0,1
 186              	.LVL25:
  67:main.c        ****             l88row(colset());                   // ...8*8LED and Keyboard
 187              		.loc 1 67 9 is_stmt 1
  67:main.c        ****             l88row(colset());                   // ...8*8LED and Keyboard
 188              		.loc 1 67 13 is_stmt 0
 189 007a 97000000 		call	t5expq
 189      E7800000 
 190              	.LVL26:
  67:main.c        ****             l88row(colset());                   // ...8*8LED and Keyboard
 191              		.loc 1 67 12
 192 0082 7DD9     		beq	a0,zero,.L5
  68:main.c        ****             ms++;                               // ...One second heart beat
 193              		.loc 1 68 13 is_stmt 1
 194 0084 97000000 		call	colset
 194      E7800000 
 195              	.LVL27:
  69:main.c        ****             if (ms==1000){
 196              		.loc 1 69 15 is_stmt 0
 197 008c 8504     		addi	s1,s1,1
 198              	.LVL28:
  68:main.c        ****             ms++;                               // ...One second heart beat
 199              		.loc 1 68 13
 200 008e 97000000 		call	l88row
 200      E7800000 
 201              	.LVL29:
  69:main.c        ****             if (ms==1000){
 202              		.loc 1 69 13 is_stmt 1
  70:main.c        ****               ms=0;
 203              		.loc 1 70 13
  70:main.c        ****               ms=0;
 204              		.loc 1 70 16 is_stmt 0
 205 0096 639D4401 		bne	s1,s4,.L6
  71:main.c        ****               LCD_ShowStr(0, 0, "Plantii v0.1", WHITE, TRANSPARENT);
 206              		.loc 1 71 15 is_stmt 1
 207              	.LVL30:
  72:main.c        ****             }
 208              		.loc 1 72 15
 209 009a 0547     		li	a4,1
 210 009c CE86     		mv	a3,s3
 211 009e 13860A00 		addi	a2,s5,%lo(.LC1)
 212 00a2 8145     		li	a1,0
 213 00a4 0145     		li	a0,0
 214 00a6 97000000 		call	LCD_ShowStr
 214      E7800000 
 215              	.LVL31:
  71:main.c        ****               LCD_ShowStr(0, 0, "Plantii v0.1", WHITE, TRANSPARENT);
 216              		.loc 1 71 17 is_stmt 0
 217 00ae 8144     		li	s1,0
 218              	.LVL32:
 219              	.L6:
GAS LISTING /var/folders/rt/4gvqv631095f64jvm7jfj_000000gn/T//cc0EWEBo.s 			page 7


  74:main.c        ****             l88mem(3,idle); idle=0;
 220              		.loc 1 74 13 is_stmt 1
 221 00b0 93558440 		srai	a1,s0,8
 222 00b4 0945     		li	a0,2
 223 00b6 97000000 		call	l88mem
 223      E7800000 
 224              	.LVL33:
  75:main.c        ****             adc_software_trigger_enable(ADC0,   // Trigger another ADC conversion!
 225              		.loc 1 75 13
 226 00be A285     		mv	a1,s0
 227 00c0 0D45     		li	a0,3
 228 00c2 97000000 		call	l88mem
 228      E7800000 
 229              	.LVL34:
  75:main.c        ****             adc_software_trigger_enable(ADC0,   // Trigger another ADC conversion!
 230              		.loc 1 75 29
 231              		.loc 1 76 13
 232 00ca 8545     		li	a1,1
 233 00cc 4A85     		mv	a0,s2
 234 00ce 97000000 		call	adc_software_trigger_enable
 234      E7800000 
 235              	.LVL35:
 236 00d6 45B7     		j	.L7
 237              		.cfi_endproc
 238              	.LFE3:
 240              		.section	.rodata.main.str1.4,"aMS",@progbits,1
 241              		.align	2
 242              	.LC1:
 243 0000 506C616E 		.string	"Plantii v0.1"
 243      74696920 
 243      76302E31 
 243      00
 244              		.text
 245              	.Letext0:
 246              		.file 2 "/Users/alexstrae/toolchain-gd32v-v202-osx/compiler/riscv64-unknown-elf/include/machine/_d
 247              		.file 3 "/Users/alexstrae/toolchain-gd32v-v202-osx/compiler/riscv64-unknown-elf/include/sys/_stdin
 248              		.file 4 "../../firmware/GD32VF103_standard_peripheral/Include/gd32vf103_rcu.h"
 249              		.file 5 "/Users/alexstrae/toolchain-gd32v-v202-osx/compiler/lib/gcc/riscv64-unknown-elf/8.3.0/incl
 250              		.file 6 "/Users/alexstrae/toolchain-gd32v-v202-osx/compiler/riscv64-unknown-elf/include/sys/_types
 251              		.file 7 "/Users/alexstrae/toolchain-gd32v-v202-osx/compiler/riscv64-unknown-elf/include/sys/reent.
 252              		.file 8 "/Users/alexstrae/toolchain-gd32v-v202-osx/compiler/riscv64-unknown-elf/include/sys/lock.h
 253              		.file 9 "../../firmware/GD32VF103_standard_peripheral/system_gd32vf103.h"
 254              		.file 10 "/Users/alexstrae/toolchain-gd32v-v202-osx/compiler/riscv64-unknown-elf/include/stdlib.h"
 255              		.file 11 "lcd.h"
 256              		.file 12 "drivers.h"
 257              		.file 13 "adc.h"
 258              		.file 14 "usart.h"
 259              		.file 15 "../../firmware/GD32VF103_standard_peripheral/Include/gd32vf103_adc.h"
 260              		.file 16 "../../firmware/GD32VF103_standard_peripheral/Include/gd32vf103_pmu.h"
 261              		.file 17 "../../firmware/GD32VF103_standard_peripheral/Include/gd32vf103_bkp.h"
 262              		.file 18 "../../firmware/GD32VF103_standard_peripheral/Include/gd32vf103_rtc.h"
GAS LISTING /var/folders/rt/4gvqv631095f64jvm7jfj_000000gn/T//cc0EWEBo.s 			page 8


DEFINED SYMBOLS
                            *ABS*:0000000000000000 main.c
/var/folders/rt/4gvqv631095f64jvm7jfj_000000gn/T//cc0EWEBo.s:13     .text.rtcInit:0000000000000000 rtcInit
/var/folders/rt/4gvqv631095f64jvm7jfj_000000gn/T//cc0EWEBo.s:17     .text.rtcInit:0000000000000000 .L0 
/var/folders/rt/4gvqv631095f64jvm7jfj_000000gn/T//cc0EWEBo.s:18     .text.rtcInit:0000000000000000 .L0 
/var/folders/rt/4gvqv631095f64jvm7jfj_000000gn/T//cc0EWEBo.s:19     .text.rtcInit:0000000000000000 .L0 
/var/folders/rt/4gvqv631095f64jvm7jfj_000000gn/T//cc0EWEBo.s:20     .text.rtcInit:0000000000000000 .L0 
/var/folders/rt/4gvqv631095f64jvm7jfj_000000gn/T//cc0EWEBo.s:22     .text.rtcInit:0000000000000002 .L0 
/var/folders/rt/4gvqv631095f64jvm7jfj_000000gn/T//cc0EWEBo.s:24     .text.rtcInit:0000000000000002 .L0 
/var/folders/rt/4gvqv631095f64jvm7jfj_000000gn/T//cc0EWEBo.s:26     .text.rtcInit:0000000000000006 .L0 
/var/folders/rt/4gvqv631095f64jvm7jfj_000000gn/T//cc0EWEBo.s:27     .text.rtcInit:0000000000000008 .L0 
/var/folders/rt/4gvqv631095f64jvm7jfj_000000gn/T//cc0EWEBo.s:29     .text.rtcInit:0000000000000008 .L0 
/var/folders/rt/4gvqv631095f64jvm7jfj_000000gn/T//cc0EWEBo.s:32     .text.rtcInit:0000000000000010 .L0 
/var/folders/rt/4gvqv631095f64jvm7jfj_000000gn/T//cc0EWEBo.s:35     .text.rtcInit:0000000000000018 .L0 
/var/folders/rt/4gvqv631095f64jvm7jfj_000000gn/T//cc0EWEBo.s:39     .text.rtcInit:0000000000000024 .L0 
/var/folders/rt/4gvqv631095f64jvm7jfj_000000gn/T//cc0EWEBo.s:42     .text.rtcInit:000000000000002c .L0 
/var/folders/rt/4gvqv631095f64jvm7jfj_000000gn/T//cc0EWEBo.s:43     .text.rtcInit:000000000000002c .L0 
/var/folders/rt/4gvqv631095f64jvm7jfj_000000gn/T//cc0EWEBo.s:47     .text.rtcInit:0000000000000036 .L0 
/var/folders/rt/4gvqv631095f64jvm7jfj_000000gn/T//cc0EWEBo.s:49     .text.rtcInit:0000000000000038 .L0 
/var/folders/rt/4gvqv631095f64jvm7jfj_000000gn/T//cc0EWEBo.s:53     .text.rtcInit:0000000000000044 .L0 
/var/folders/rt/4gvqv631095f64jvm7jfj_000000gn/T//cc0EWEBo.s:58     .text.rtcInit:0000000000000052 .L0 
/var/folders/rt/4gvqv631095f64jvm7jfj_000000gn/T//cc0EWEBo.s:61     .text.rtcInit:000000000000005a .L0 
/var/folders/rt/4gvqv631095f64jvm7jfj_000000gn/T//cc0EWEBo.s:64     .text.rtcInit:0000000000000062 .L0 
/var/folders/rt/4gvqv631095f64jvm7jfj_000000gn/T//cc0EWEBo.s:69     .text.rtcInit:0000000000000070 .L0 
/var/folders/rt/4gvqv631095f64jvm7jfj_000000gn/T//cc0EWEBo.s:72     .text.rtcInit:0000000000000078 .L0 
/var/folders/rt/4gvqv631095f64jvm7jfj_000000gn/T//cc0EWEBo.s:76     .text.rtcInit:0000000000000082 .L0 
/var/folders/rt/4gvqv631095f64jvm7jfj_000000gn/T//cc0EWEBo.s:77     .text.rtcInit:0000000000000082 .L0 
/var/folders/rt/4gvqv631095f64jvm7jfj_000000gn/T//cc0EWEBo.s:78     .text.rtcInit:0000000000000084 .L0 
/var/folders/rt/4gvqv631095f64jvm7jfj_000000gn/T//cc0EWEBo.s:79     .text.rtcInit:0000000000000084 .L0 
/var/folders/rt/4gvqv631095f64jvm7jfj_000000gn/T//cc0EWEBo.s:82     .text.rtcInit:0000000000000086 .L0 
/var/folders/rt/4gvqv631095f64jvm7jfj_000000gn/T//cc0EWEBo.s:84     .text.rtcInit:0000000000000086 .L0 
/var/folders/rt/4gvqv631095f64jvm7jfj_000000gn/T//cc0EWEBo.s:88     .text.rtcInit:000000000000008e .L0 
/var/folders/rt/4gvqv631095f64jvm7jfj_000000gn/T//cc0EWEBo.s:90     .text.rtcInit:000000000000008e .L0 
/var/folders/rt/4gvqv631095f64jvm7jfj_000000gn/T//cc0EWEBo.s:91     .text.rtcInit:0000000000000090 .L0 
/var/folders/rt/4gvqv631095f64jvm7jfj_000000gn/T//cc0EWEBo.s:94     .text.rtcInit:0000000000000092 .L0 
/var/folders/rt/4gvqv631095f64jvm7jfj_000000gn/T//cc0EWEBo.s:96     .text.rtcInit:0000000000000094 .L0 
/var/folders/rt/4gvqv631095f64jvm7jfj_000000gn/T//cc0EWEBo.s:103    .text.startup.main:0000000000000000 main
/var/folders/rt/4gvqv631095f64jvm7jfj_000000gn/T//cc0EWEBo.s:106    .text.startup.main:0000000000000000 .L0 
/var/folders/rt/4gvqv631095f64jvm7jfj_000000gn/T//cc0EWEBo.s:107    .text.startup.main:0000000000000000 .L0 
/var/folders/rt/4gvqv631095f64jvm7jfj_000000gn/T//cc0EWEBo.s:109    .text.startup.main:0000000000000000 .L0 
/var/folders/rt/4gvqv631095f64jvm7jfj_000000gn/T//cc0EWEBo.s:110    .text.startup.main:0000000000000000 .L0 
/var/folders/rt/4gvqv631095f64jvm7jfj_000000gn/T//cc0EWEBo.s:111    .text.startup.main:0000000000000000 .L0 
/var/folders/rt/4gvqv631095f64jvm7jfj_000000gn/T//cc0EWEBo.s:112    .text.startup.main:0000000000000000 .L0 
/var/folders/rt/4gvqv631095f64jvm7jfj_000000gn/T//cc0EWEBo.s:113    .text.startup.main:0000000000000000 .L0 
/var/folders/rt/4gvqv631095f64jvm7jfj_000000gn/T//cc0EWEBo.s:114    .text.startup.main:0000000000000000 .L0 
/var/folders/rt/4gvqv631095f64jvm7jfj_000000gn/T//cc0EWEBo.s:116    .text.startup.main:0000000000000002 .L0 
/var/folders/rt/4gvqv631095f64jvm7jfj_000000gn/T//cc0EWEBo.s:124    .text.startup.main:0000000000000010 .L0 
/var/folders/rt/4gvqv631095f64jvm7jfj_000000gn/T//cc0EWEBo.s:125    .text.startup.main:0000000000000010 .L0 
/var/folders/rt/4gvqv631095f64jvm7jfj_000000gn/T//cc0EWEBo.s:126    .text.startup.main:0000000000000010 .L0 
/var/folders/rt/4gvqv631095f64jvm7jfj_000000gn/T//cc0EWEBo.s:127    .text.startup.main:0000000000000010 .L0 
/var/folders/rt/4gvqv631095f64jvm7jfj_000000gn/T//cc0EWEBo.s:128    .text.startup.main:0000000000000010 .L0 
/var/folders/rt/4gvqv631095f64jvm7jfj_000000gn/T//cc0EWEBo.s:129    .text.startup.main:0000000000000010 .L0 
/var/folders/rt/4gvqv631095f64jvm7jfj_000000gn/T//cc0EWEBo.s:130    .text.startup.main:0000000000000010 .L0 
/var/folders/rt/4gvqv631095f64jvm7jfj_000000gn/T//cc0EWEBo.s:132    .text.startup.main:0000000000000010 .L0 
/var/folders/rt/4gvqv631095f64jvm7jfj_000000gn/T//cc0EWEBo.s:135    .text.startup.main:0000000000000018 .L0 
/var/folders/rt/4gvqv631095f64jvm7jfj_000000gn/T//cc0EWEBo.s:138    .text.startup.main:0000000000000020 .L0 
/var/folders/rt/4gvqv631095f64jvm7jfj_000000gn/T//cc0EWEBo.s:141    .text.startup.main:0000000000000028 .L0 
GAS LISTING /var/folders/rt/4gvqv631095f64jvm7jfj_000000gn/T//cc0EWEBo.s 			page 9


/var/folders/rt/4gvqv631095f64jvm7jfj_000000gn/T//cc0EWEBo.s:144    .text.startup.main:0000000000000030 .L0 
/var/folders/rt/4gvqv631095f64jvm7jfj_000000gn/T//cc0EWEBo.s:148    .text.startup.main:000000000000003a .L0 
/var/folders/rt/4gvqv631095f64jvm7jfj_000000gn/T//cc0EWEBo.s:152    .text.startup.main:0000000000000044 .L0 
/var/folders/rt/4gvqv631095f64jvm7jfj_000000gn/T//cc0EWEBo.s:155    .text.startup.main:000000000000004c .L0 
/var/folders/rt/4gvqv631095f64jvm7jfj_000000gn/T//cc0EWEBo.s:159    .text.startup.main:0000000000000056 .L0 
/var/folders/rt/4gvqv631095f64jvm7jfj_000000gn/T//cc0EWEBo.s:161    .text.startup.main:0000000000000058 .L0 
/var/folders/rt/4gvqv631095f64jvm7jfj_000000gn/T//cc0EWEBo.s:163    .text.startup.main:000000000000005a .L0 
/var/folders/rt/4gvqv631095f64jvm7jfj_000000gn/T//cc0EWEBo.s:165    .text.startup.main:000000000000005e .L0 
/var/folders/rt/4gvqv631095f64jvm7jfj_000000gn/T//cc0EWEBo.s:168    .text.startup.main:0000000000000066 .L0 
/var/folders/rt/4gvqv631095f64jvm7jfj_000000gn/T//cc0EWEBo.s:170    .text.startup.main:0000000000000068 .L0 
/var/folders/rt/4gvqv631095f64jvm7jfj_000000gn/T//cc0EWEBo.s:172    .text.startup.main:000000000000006c .L0 
/var/folders/rt/4gvqv631095f64jvm7jfj_000000gn/T//cc0EWEBo.s:175    .text.startup.main:0000000000000072 .L0 
/var/folders/rt/4gvqv631095f64jvm7jfj_000000gn/T//cc0EWEBo.s:179    .text.startup.main:0000000000000076 .L0 
/var/folders/rt/4gvqv631095f64jvm7jfj_000000gn/T//cc0EWEBo.s:183    .text.startup.main:0000000000000078 .L0 
/var/folders/rt/4gvqv631095f64jvm7jfj_000000gn/T//cc0EWEBo.s:184    .text.startup.main:0000000000000078 .L0 
/var/folders/rt/4gvqv631095f64jvm7jfj_000000gn/T//cc0EWEBo.s:185    .text.startup.main:0000000000000078 .L0 
/var/folders/rt/4gvqv631095f64jvm7jfj_000000gn/T//cc0EWEBo.s:188    .text.startup.main:000000000000007a .L0 
/var/folders/rt/4gvqv631095f64jvm7jfj_000000gn/T//cc0EWEBo.s:189    .text.startup.main:000000000000007a .L0 
/var/folders/rt/4gvqv631095f64jvm7jfj_000000gn/T//cc0EWEBo.s:192    .text.startup.main:0000000000000082 .L0 
/var/folders/rt/4gvqv631095f64jvm7jfj_000000gn/T//cc0EWEBo.s:194    .text.startup.main:0000000000000084 .L0 
/var/folders/rt/4gvqv631095f64jvm7jfj_000000gn/T//cc0EWEBo.s:197    .text.startup.main:000000000000008c .L0 
/var/folders/rt/4gvqv631095f64jvm7jfj_000000gn/T//cc0EWEBo.s:200    .text.startup.main:000000000000008e .L0 
/var/folders/rt/4gvqv631095f64jvm7jfj_000000gn/T//cc0EWEBo.s:203    .text.startup.main:0000000000000096 .L0 
/var/folders/rt/4gvqv631095f64jvm7jfj_000000gn/T//cc0EWEBo.s:204    .text.startup.main:0000000000000096 .L0 
/var/folders/rt/4gvqv631095f64jvm7jfj_000000gn/T//cc0EWEBo.s:205    .text.startup.main:0000000000000096 .L0 
/var/folders/rt/4gvqv631095f64jvm7jfj_000000gn/T//cc0EWEBo.s:208    .text.startup.main:000000000000009a .L0 
/var/folders/rt/4gvqv631095f64jvm7jfj_000000gn/T//cc0EWEBo.s:209    .text.startup.main:000000000000009a .L0 
/var/folders/rt/4gvqv631095f64jvm7jfj_000000gn/T//cc0EWEBo.s:217    .text.startup.main:00000000000000ae .L0 
/var/folders/rt/4gvqv631095f64jvm7jfj_000000gn/T//cc0EWEBo.s:221    .text.startup.main:00000000000000b0 .L0 
/var/folders/rt/4gvqv631095f64jvm7jfj_000000gn/T//cc0EWEBo.s:226    .text.startup.main:00000000000000be .L0 
/var/folders/rt/4gvqv631095f64jvm7jfj_000000gn/T//cc0EWEBo.s:231    .text.startup.main:00000000000000ca .L0 
/var/folders/rt/4gvqv631095f64jvm7jfj_000000gn/T//cc0EWEBo.s:232    .text.startup.main:00000000000000ca .L0 
/var/folders/rt/4gvqv631095f64jvm7jfj_000000gn/T//cc0EWEBo.s:237    .text.startup.main:00000000000000d8 .L0 
/var/folders/rt/4gvqv631095f64jvm7jfj_000000gn/T//cc0EWEBo.s:99     .text.rtcInit:0000000000000094 .L0 
/var/folders/rt/4gvqv631095f64jvm7jfj_000000gn/T//cc0EWEBo.s:240    .text.startup.main:00000000000000d8 .L0 
                     .debug_frame:0000000000000000 .L0 
/var/folders/rt/4gvqv631095f64jvm7jfj_000000gn/T//cc0EWEBo.s:86     .text.rtcInit:000000000000008e .L1
/var/folders/rt/4gvqv631095f64jvm7jfj_000000gn/T//cc0EWEBo.s:242    .rodata.main.str1.4:0000000000000000 .LC1
/var/folders/rt/4gvqv631095f64jvm7jfj_000000gn/T//cc0EWEBo.s:181    .text.startup.main:0000000000000078 .L5
/var/folders/rt/4gvqv631095f64jvm7jfj_000000gn/T//cc0EWEBo.s:219    .text.startup.main:00000000000000b0 .L6
/var/folders/rt/4gvqv631095f64jvm7jfj_000000gn/T//cc0EWEBo.s:177    .text.startup.main:0000000000000076 .L7
/var/folders/rt/4gvqv631095f64jvm7jfj_000000gn/T//cc0EWEBo.s:2418   .debug_abbrev:0000000000000000 .Ldebug_abbrev0
/var/folders/rt/4gvqv631095f64jvm7jfj_000000gn/T//cc0EWEBo.s:3567   .debug_str:0000000000000678 .LASF201
/var/folders/rt/4gvqv631095f64jvm7jfj_000000gn/T//cc0EWEBo.s:3413   .debug_str:000000000000036e .LASF202
/var/folders/rt/4gvqv631095f64jvm7jfj_000000gn/T//cc0EWEBo.s:3571   .debug_str:0000000000000709 .LASF203
/var/folders/rt/4gvqv631095f64jvm7jfj_000000gn/T//cc0EWEBo.s:3223   .debug_ranges:0000000000000000 .Ldebug_ranges0
/var/folders/rt/4gvqv631095f64jvm7jfj_000000gn/T//cc0EWEBo.s:3231   .debug_line:0000000000000000 .Ldebug_line0
/var/folders/rt/4gvqv631095f64jvm7jfj_000000gn/T//cc0EWEBo.s:3545   .debug_str:000000000000060b .LASF0
/var/folders/rt/4gvqv631095f64jvm7jfj_000000gn/T//cc0EWEBo.s:3301   .debug_str:000000000000015f .LASF1
/var/folders/rt/4gvqv631095f64jvm7jfj_000000gn/T//cc0EWEBo.s:3253   .debug_str:000000000000005d .LASF6
/var/folders/rt/4gvqv631095f64jvm7jfj_000000gn/T//cc0EWEBo.s:3477   .debug_str:00000000000004d9 .LASF2
/var/folders/rt/4gvqv631095f64jvm7jfj_000000gn/T//cc0EWEBo.s:3551   .debug_str:000000000000062c .LASF3
/var/folders/rt/4gvqv631095f64jvm7jfj_000000gn/T//cc0EWEBo.s:3573   .debug_str:000000000000074c .LASF4
/var/folders/rt/4gvqv631095f64jvm7jfj_000000gn/T//cc0EWEBo.s:3261   .debug_str:0000000000000084 .LASF5
/var/folders/rt/4gvqv631095f64jvm7jfj_000000gn/T//cc0EWEBo.s:3355   .debug_str:0000000000000253 .LASF7
/var/folders/rt/4gvqv631095f64jvm7jfj_000000gn/T//cc0EWEBo.s:3385   .debug_str:00000000000002ee .LASF8
/var/folders/rt/4gvqv631095f64jvm7jfj_000000gn/T//cc0EWEBo.s:3335   .debug_str:00000000000001f1 .LASF9
GAS LISTING /var/folders/rt/4gvqv631095f64jvm7jfj_000000gn/T//cc0EWEBo.s 			page 10


/var/folders/rt/4gvqv631095f64jvm7jfj_000000gn/T//cc0EWEBo.s:3269   .debug_str:00000000000000b8 .LASF10
/var/folders/rt/4gvqv631095f64jvm7jfj_000000gn/T//cc0EWEBo.s:3557   .debug_str:0000000000000647 .LASF11
/var/folders/rt/4gvqv631095f64jvm7jfj_000000gn/T//cc0EWEBo.s:3589   .debug_str:00000000000007ad .LASF12
/var/folders/rt/4gvqv631095f64jvm7jfj_000000gn/T//cc0EWEBo.s:3375   .debug_str:00000000000002ab .LASF166
/var/folders/rt/4gvqv631095f64jvm7jfj_000000gn/T//cc0EWEBo.s:3241   .debug_str:0000000000000027 .LASF13
/var/folders/rt/4gvqv631095f64jvm7jfj_000000gn/T//cc0EWEBo.s:3303   .debug_str:000000000000016b .LASF14
/var/folders/rt/4gvqv631095f64jvm7jfj_000000gn/T//cc0EWEBo.s:3297   .debug_str:0000000000000150 .LASF15
/var/folders/rt/4gvqv631095f64jvm7jfj_000000gn/T//cc0EWEBo.s:3549   .debug_str:0000000000000623 .LASF16
/var/folders/rt/4gvqv631095f64jvm7jfj_000000gn/T//cc0EWEBo.s:3333   .debug_str:00000000000001e7 .LASF17
/var/folders/rt/4gvqv631095f64jvm7jfj_000000gn/T//cc0EWEBo.s:3461   .debug_str:0000000000000489 .LASF18
/var/folders/rt/4gvqv631095f64jvm7jfj_000000gn/T//cc0EWEBo.s:3463   .debug_str:0000000000000494 .LASF19
/var/folders/rt/4gvqv631095f64jvm7jfj_000000gn/T//cc0EWEBo.s:3465   .debug_str:000000000000049f .LASF20
/var/folders/rt/4gvqv631095f64jvm7jfj_000000gn/T//cc0EWEBo.s:3467   .debug_str:00000000000004aa .LASF21
/var/folders/rt/4gvqv631095f64jvm7jfj_000000gn/T//cc0EWEBo.s:3469   .debug_str:00000000000004b5 .LASF22
/var/folders/rt/4gvqv631095f64jvm7jfj_000000gn/T//cc0EWEBo.s:3471   .debug_str:00000000000004c0 .LASF23
/var/folders/rt/4gvqv631095f64jvm7jfj_000000gn/T//cc0EWEBo.s:3565   .debug_str:000000000000066e .LASF24
/var/folders/rt/4gvqv631095f64jvm7jfj_000000gn/T//cc0EWEBo.s:3237   .debug_str:0000000000000015 .LASF25
/var/folders/rt/4gvqv631095f64jvm7jfj_000000gn/T//cc0EWEBo.s:3239   .debug_str:000000000000001e .LASF26
/var/folders/rt/4gvqv631095f64jvm7jfj_000000gn/T//cc0EWEBo.s:3439   .debug_str:0000000000000406 .LASF27
/var/folders/rt/4gvqv631095f64jvm7jfj_000000gn/T//cc0EWEBo.s:3441   .debug_str:0000000000000411 .LASF28
/var/folders/rt/4gvqv631095f64jvm7jfj_000000gn/T//cc0EWEBo.s:3271   .debug_str:00000000000000cf .LASF29
/var/folders/rt/4gvqv631095f64jvm7jfj_000000gn/T//cc0EWEBo.s:3273   .debug_str:00000000000000d9 .LASF30
/var/folders/rt/4gvqv631095f64jvm7jfj_000000gn/T//cc0EWEBo.s:3609   .debug_str:0000000000000815 .LASF31
/var/folders/rt/4gvqv631095f64jvm7jfj_000000gn/T//cc0EWEBo.s:3527   .debug_str:00000000000005c0 .LASF32
/var/folders/rt/4gvqv631095f64jvm7jfj_000000gn/T//cc0EWEBo.s:3347   .debug_str:0000000000000236 .LASF33
/var/folders/rt/4gvqv631095f64jvm7jfj_000000gn/T//cc0EWEBo.s:3293   .debug_str:0000000000000140 .LASF34
/var/folders/rt/4gvqv631095f64jvm7jfj_000000gn/T//cc0EWEBo.s:3533   .debug_str:00000000000005db .LASF35
/var/folders/rt/4gvqv631095f64jvm7jfj_000000gn/T//cc0EWEBo.s:3585   .debug_str:0000000000000792 .LASF36
/var/folders/rt/4gvqv631095f64jvm7jfj_000000gn/T//cc0EWEBo.s:3403   .debug_str:000000000000033f .LASF37
/var/folders/rt/4gvqv631095f64jvm7jfj_000000gn/T//cc0EWEBo.s:3395   .debug_str:000000000000031f .LASF38
/var/folders/rt/4gvqv631095f64jvm7jfj_000000gn/T//cc0EWEBo.s:3251   .debug_str:0000000000000056 .LASF39
/var/folders/rt/4gvqv631095f64jvm7jfj_000000gn/T//cc0EWEBo.s:3277   .debug_str:00000000000000ec .LASF40
/var/folders/rt/4gvqv631095f64jvm7jfj_000000gn/T//cc0EWEBo.s:3377   .debug_str:00000000000002bb .LASF41
/var/folders/rt/4gvqv631095f64jvm7jfj_000000gn/T//cc0EWEBo.s:3379   .debug_str:00000000000002c5 .LASF42
/var/folders/rt/4gvqv631095f64jvm7jfj_000000gn/T//cc0EWEBo.s:3283   .debug_str:0000000000000106 .LASF43
/var/folders/rt/4gvqv631095f64jvm7jfj_000000gn/T//cc0EWEBo.s:3285   .debug_str:0000000000000110 .LASF44
/var/folders/rt/4gvqv631095f64jvm7jfj_000000gn/T//cc0EWEBo.s:3391   .debug_str:000000000000030d .LASF45
/var/folders/rt/4gvqv631095f64jvm7jfj_000000gn/T//cc0EWEBo.s:3393   .debug_str:0000000000000316 .LASF46
/var/folders/rt/4gvqv631095f64jvm7jfj_000000gn/T//cc0EWEBo.s:3459   .debug_str:000000000000047e .LASF47
/var/folders/rt/4gvqv631095f64jvm7jfj_000000gn/T//cc0EWEBo.s:3235   .debug_str:000000000000000c .LASF48
/var/folders/rt/4gvqv631095f64jvm7jfj_000000gn/T//cc0EWEBo.s:3437   .debug_str:00000000000003fb .LASF49
/var/folders/rt/4gvqv631095f64jvm7jfj_000000gn/T//cc0EWEBo.s:3351   .debug_str:0000000000000244 .LASF50
/var/folders/rt/4gvqv631095f64jvm7jfj_000000gn/T//cc0EWEBo.s:3553   .debug_str:0000000000000636 .LASF51
/var/folders/rt/4gvqv631095f64jvm7jfj_000000gn/T//cc0EWEBo.s:3421   .debug_str:000000000000039d .LASF52
/var/folders/rt/4gvqv631095f64jvm7jfj_000000gn/T//cc0EWEBo.s:3547   .debug_str:0000000000000618 .LASF53
/var/folders/rt/4gvqv631095f64jvm7jfj_000000gn/T//cc0EWEBo.s:3323   .debug_str:00000000000001c1 .LASF54
/var/folders/rt/4gvqv631095f64jvm7jfj_000000gn/T//cc0EWEBo.s:3627   .debug_str:0000000000000869 .LASF55
/var/folders/rt/4gvqv631095f64jvm7jfj_000000gn/T//cc0EWEBo.s:3583   .debug_str:0000000000000786 .LASF56
/var/folders/rt/4gvqv631095f64jvm7jfj_000000gn/T//cc0EWEBo.s:3535   .debug_str:00000000000005e4 .LASF57
/var/folders/rt/4gvqv631095f64jvm7jfj_000000gn/T//cc0EWEBo.s:3453   .debug_str:0000000000000455 .LASF58
/var/folders/rt/4gvqv631095f64jvm7jfj_000000gn/T//cc0EWEBo.s:3259   .debug_str:000000000000007d .LASF59
/var/folders/rt/4gvqv631095f64jvm7jfj_000000gn/T//cc0EWEBo.s:3531   .debug_str:00000000000005d3 .LASF60
/var/folders/rt/4gvqv631095f64jvm7jfj_000000gn/T//cc0EWEBo.s:3599   .debug_str:00000000000007de .LASF61
/var/folders/rt/4gvqv631095f64jvm7jfj_000000gn/T//cc0EWEBo.s:3411   .debug_str:0000000000000368 .LASF62
/var/folders/rt/4gvqv631095f64jvm7jfj_000000gn/T//cc0EWEBo.s:3373   .debug_str:00000000000002a4 .LASF63
/var/folders/rt/4gvqv631095f64jvm7jfj_000000gn/T//cc0EWEBo.s:3521   .debug_str:00000000000005aa .LASF64
/var/folders/rt/4gvqv631095f64jvm7jfj_000000gn/T//cc0EWEBo.s:3523   .debug_str:00000000000005b2 .LASF65
GAS LISTING /var/folders/rt/4gvqv631095f64jvm7jfj_000000gn/T//cc0EWEBo.s 			page 11


/var/folders/rt/4gvqv631095f64jvm7jfj_000000gn/T//cc0EWEBo.s:3495   .debug_str:0000000000000526 .LASF66
/var/folders/rt/4gvqv631095f64jvm7jfj_000000gn/T//cc0EWEBo.s:3581   .debug_str:000000000000077e .LASF67
/var/folders/rt/4gvqv631095f64jvm7jfj_000000gn/T//cc0EWEBo.s:3429   .debug_str:00000000000003c1 .LASF68
/var/folders/rt/4gvqv631095f64jvm7jfj_000000gn/T//cc0EWEBo.s:3483   .debug_str:00000000000004f6 .LASF69
/var/folders/rt/4gvqv631095f64jvm7jfj_000000gn/T//cc0EWEBo.s:3365   .debug_str:0000000000000287 .LASF74
/var/folders/rt/4gvqv631095f64jvm7jfj_000000gn/T//cc0EWEBo.s:3561   .debug_str:000000000000065b .LASF70
/var/folders/rt/4gvqv631095f64jvm7jfj_000000gn/T//cc0EWEBo.s:3515   .debug_str:0000000000000595 .LASF71
/var/folders/rt/4gvqv631095f64jvm7jfj_000000gn/T//cc0EWEBo.s:3357   .debug_str:000000000000025e .LASF72
/var/folders/rt/4gvqv631095f64jvm7jfj_000000gn/T//cc0EWEBo.s:3595   .debug_str:00000000000007d3 .LASF73
/var/folders/rt/4gvqv631095f64jvm7jfj_000000gn/T//cc0EWEBo.s:3371   .debug_str:000000000000029f .LASF75
/var/folders/rt/4gvqv631095f64jvm7jfj_000000gn/T//cc0EWEBo.s:3291   .debug_str:0000000000000137 .LASF76
/var/folders/rt/4gvqv631095f64jvm7jfj_000000gn/T//cc0EWEBo.s:3623   .debug_str:000000000000085b .LASF77
/var/folders/rt/4gvqv631095f64jvm7jfj_000000gn/T//cc0EWEBo.s:3309   .debug_str:0000000000000182 .LASF78
/var/folders/rt/4gvqv631095f64jvm7jfj_000000gn/T//cc0EWEBo.s:3643   .debug_str:00000000000008ad .LASF79
/var/folders/rt/4gvqv631095f64jvm7jfj_000000gn/T//cc0EWEBo.s:3431   .debug_str:00000000000003d3 .LASF80
/var/folders/rt/4gvqv631095f64jvm7jfj_000000gn/T//cc0EWEBo.s:3425   .debug_str:00000000000003ae .LASF81
/var/folders/rt/4gvqv631095f64jvm7jfj_000000gn/T//cc0EWEBo.s:3529   .debug_str:00000000000005c9 .LASF82
/var/folders/rt/4gvqv631095f64jvm7jfj_000000gn/T//cc0EWEBo.s:3485   .debug_str:00000000000004ff .LASF83
/var/folders/rt/4gvqv631095f64jvm7jfj_000000gn/T//cc0EWEBo.s:3617   .debug_str:0000000000000832 .LASF84
/var/folders/rt/4gvqv631095f64jvm7jfj_000000gn/T//cc0EWEBo.s:3313   .debug_str:0000000000000191 .LASF85
/var/folders/rt/4gvqv631095f64jvm7jfj_000000gn/T//cc0EWEBo.s:3243   .debug_str:0000000000000030 .LASF86
/var/folders/rt/4gvqv631095f64jvm7jfj_000000gn/T//cc0EWEBo.s:3233   .debug_str:0000000000000000 .LASF87
/var/folders/rt/4gvqv631095f64jvm7jfj_000000gn/T//cc0EWEBo.s:3569   .debug_str:0000000000000700 .LASF88
/var/folders/rt/4gvqv631095f64jvm7jfj_000000gn/T//cc0EWEBo.s:3329   .debug_str:00000000000001d8 .LASF89
/var/folders/rt/4gvqv631095f64jvm7jfj_000000gn/T//cc0EWEBo.s:3443   .debug_str:000000000000041c .LASF90
/var/folders/rt/4gvqv631095f64jvm7jfj_000000gn/T//cc0EWEBo.s:3507   .debug_str:0000000000000565 .LASF91
/var/folders/rt/4gvqv631095f64jvm7jfj_000000gn/T//cc0EWEBo.s:3353   .debug_str:000000000000024e .LASF92
/var/folders/rt/4gvqv631095f64jvm7jfj_000000gn/T//cc0EWEBo.s:3487   .debug_str:0000000000000509 .LASF93
/var/folders/rt/4gvqv631095f64jvm7jfj_000000gn/T//cc0EWEBo.s:3475   .debug_str:00000000000004d3 .LASF94
/var/folders/rt/4gvqv631095f64jvm7jfj_000000gn/T//cc0EWEBo.s:3543   .debug_str:0000000000000605 .LASF95
/var/folders/rt/4gvqv631095f64jvm7jfj_000000gn/T//cc0EWEBo.s:3497   .debug_str:0000000000000531 .LASF96
/var/folders/rt/4gvqv631095f64jvm7jfj_000000gn/T//cc0EWEBo.s:3327   .debug_str:00000000000001d1 .LASF97
/var/folders/rt/4gvqv631095f64jvm7jfj_000000gn/T//cc0EWEBo.s:3387   .debug_str:0000000000000300 .LASF98
/var/folders/rt/4gvqv631095f64jvm7jfj_000000gn/T//cc0EWEBo.s:3275   .debug_str:00000000000000e3 .LASF99
/var/folders/rt/4gvqv631095f64jvm7jfj_000000gn/T//cc0EWEBo.s:3317   .debug_str:00000000000001a7 .LASF100
/var/folders/rt/4gvqv631095f64jvm7jfj_000000gn/T//cc0EWEBo.s:3367   .debug_str:000000000000028f .LASF101
/var/folders/rt/4gvqv631095f64jvm7jfj_000000gn/T//cc0EWEBo.s:3423   .debug_str:00000000000003a7 .LASF102
/var/folders/rt/4gvqv631095f64jvm7jfj_000000gn/T//cc0EWEBo.s:3525   .debug_str:00000000000005ba .LASF103
/var/folders/rt/4gvqv631095f64jvm7jfj_000000gn/T//cc0EWEBo.s:3299   .debug_str:0000000000000158 .LASF104
/var/folders/rt/4gvqv631095f64jvm7jfj_000000gn/T//cc0EWEBo.s:3305   .debug_str:0000000000000174 .LASF105
/var/folders/rt/4gvqv631095f64jvm7jfj_000000gn/T//cc0EWEBo.s:3611   .debug_str:000000000000081e .LASF106
/var/folders/rt/4gvqv631095f64jvm7jfj_000000gn/T//cc0EWEBo.s:3541   .debug_str:00000000000005fc .LASF107
/var/folders/rt/4gvqv631095f64jvm7jfj_000000gn/T//cc0EWEBo.s:3341   .debug_str:000000000000020f .LASF108
/var/folders/rt/4gvqv631095f64jvm7jfj_000000gn/T//cc0EWEBo.s:3397   .debug_str:0000000000000327 .LASF109
/var/folders/rt/4gvqv631095f64jvm7jfj_000000gn/T//cc0EWEBo.s:3417   .debug_str:0000000000000391 .LASF110
/var/folders/rt/4gvqv631095f64jvm7jfj_000000gn/T//cc0EWEBo.s:3499   .debug_str:0000000000000539 .LASF111
/var/folders/rt/4gvqv631095f64jvm7jfj_000000gn/T//cc0EWEBo.s:3489   .debug_str:0000000000000510 .LASF112
/var/folders/rt/4gvqv631095f64jvm7jfj_000000gn/T//cc0EWEBo.s:3517   .debug_str:000000000000059d .LASF113
/var/folders/rt/4gvqv631095f64jvm7jfj_000000gn/T//cc0EWEBo.s:3537   .debug_str:00000000000005f0 .LASF114
/var/folders/rt/4gvqv631095f64jvm7jfj_000000gn/T//cc0EWEBo.s:3331   .debug_str:00000000000001e0 .LASF115
/var/folders/rt/4gvqv631095f64jvm7jfj_000000gn/T//cc0EWEBo.s:3337   .debug_str:00000000000001ff .LASF116
/var/folders/rt/4gvqv631095f64jvm7jfj_000000gn/T//cc0EWEBo.s:3363   .debug_str:000000000000027f .LASF117
/var/folders/rt/4gvqv631095f64jvm7jfj_000000gn/T//cc0EWEBo.s:3505   .debug_str:0000000000000560 .LASF118
/var/folders/rt/4gvqv631095f64jvm7jfj_000000gn/T//cc0EWEBo.s:3249   .debug_str:000000000000004b .LASF119
/var/folders/rt/4gvqv631095f64jvm7jfj_000000gn/T//cc0EWEBo.s:3513   .debug_str:000000000000057c .LASF120
/var/folders/rt/4gvqv631095f64jvm7jfj_000000gn/T//cc0EWEBo.s:3509   .debug_str:000000000000056a .LASF121
/var/folders/rt/4gvqv631095f64jvm7jfj_000000gn/T//cc0EWEBo.s:3449   .debug_str:000000000000043b .LASF122
GAS LISTING /var/folders/rt/4gvqv631095f64jvm7jfj_000000gn/T//cc0EWEBo.s 			page 12


/var/folders/rt/4gvqv631095f64jvm7jfj_000000gn/T//cc0EWEBo.s:3511   .debug_str:0000000000000572 .LASF123
/var/folders/rt/4gvqv631095f64jvm7jfj_000000gn/T//cc0EWEBo.s:3409   .debug_str:0000000000000360 .LASF124
/var/folders/rt/4gvqv631095f64jvm7jfj_000000gn/T//cc0EWEBo.s:3369   .debug_str:0000000000000295 .LASF125
/var/folders/rt/4gvqv631095f64jvm7jfj_000000gn/T//cc0EWEBo.s:3635   .debug_str:0000000000000896 .LASF126
/var/folders/rt/4gvqv631095f64jvm7jfj_000000gn/T//cc0EWEBo.s:3457   .debug_str:0000000000000474 .LASF127
/var/folders/rt/4gvqv631095f64jvm7jfj_000000gn/T//cc0EWEBo.s:3383   .debug_str:00000000000002e6 .LASF128
/var/folders/rt/4gvqv631095f64jvm7jfj_000000gn/T//cc0EWEBo.s:3339   .debug_str:0000000000000207 .LASF129
/var/folders/rt/4gvqv631095f64jvm7jfj_000000gn/T//cc0EWEBo.s:3325   .debug_str:00000000000001cc .LASF130
/var/folders/rt/4gvqv631095f64jvm7jfj_000000gn/T//cc0EWEBo.s:3257   .debug_str:0000000000000074 .LASF131
/var/folders/rt/4gvqv631095f64jvm7jfj_000000gn/T//cc0EWEBo.s:3603   .debug_str:00000000000007f1 .LASF132
/var/folders/rt/4gvqv631095f64jvm7jfj_000000gn/T//cc0EWEBo.s:3319   .debug_str:00000000000001af .LASF133
/var/folders/rt/4gvqv631095f64jvm7jfj_000000gn/T//cc0EWEBo.s:3311   .debug_str:000000000000018c .LASF134
/var/folders/rt/4gvqv631095f64jvm7jfj_000000gn/T//cc0EWEBo.s:3539   .debug_str:00000000000005f7 .LASF135
/var/folders/rt/4gvqv631095f64jvm7jfj_000000gn/T//cc0EWEBo.s:3493   .debug_str:000000000000051f .LASF136
/var/folders/rt/4gvqv631095f64jvm7jfj_000000gn/T//cc0EWEBo.s:3597   .debug_str:00000000000007d8 .LASF137
/var/folders/rt/4gvqv631095f64jvm7jfj_000000gn/T//cc0EWEBo.s:3399   .debug_str:000000000000032d .LASF138
/var/folders/rt/4gvqv631095f64jvm7jfj_000000gn/T//cc0EWEBo.s:3479   .debug_str:00000000000004e7 .LASF139
/var/folders/rt/4gvqv631095f64jvm7jfj_000000gn/T//cc0EWEBo.s:3247   .debug_str:0000000000000043 .LASF140
/var/folders/rt/4gvqv631095f64jvm7jfj_000000gn/T//cc0EWEBo.s:3519   .debug_str:00000000000005a4 .LASF141
/var/folders/rt/4gvqv631095f64jvm7jfj_000000gn/T//cc0EWEBo.s:3419   .debug_str:0000000000000397 .LASF142
/var/folders/rt/4gvqv631095f64jvm7jfj_000000gn/T//cc0EWEBo.s:3577   .debug_str:0000000000000772 .LASF143
/var/folders/rt/4gvqv631095f64jvm7jfj_000000gn/T//cc0EWEBo.s:3591   .debug_str:00000000000007b6 .LASF144
/var/folders/rt/4gvqv631095f64jvm7jfj_000000gn/T//cc0EWEBo.s:3563   .debug_str:0000000000000661 .LASF145
/var/folders/rt/4gvqv631095f64jvm7jfj_000000gn/T//cc0EWEBo.s:3407   .debug_str:0000000000000353 .LASF146
/var/folders/rt/4gvqv631095f64jvm7jfj_000000gn/T//cc0EWEBo.s:3619   .debug_str:000000000000083d .LASF147
/var/folders/rt/4gvqv631095f64jvm7jfj_000000gn/T//cc0EWEBo.s:3451   .debug_str:0000000000000446 .LASF148
/var/folders/rt/4gvqv631095f64jvm7jfj_000000gn/T//cc0EWEBo.s:3401   .debug_str:0000000000000334 .LASF149
/var/folders/rt/4gvqv631095f64jvm7jfj_000000gn/T//cc0EWEBo.s:3625   .debug_str:0000000000000864 .LASF150
/var/folders/rt/4gvqv631095f64jvm7jfj_000000gn/T//cc0EWEBo.s:3447   .debug_str:000000000000042e .LASF151
/var/folders/rt/4gvqv631095f64jvm7jfj_000000gn/T//cc0EWEBo.s:3633   .debug_str:0000000000000888 .LASF152
/var/folders/rt/4gvqv631095f64jvm7jfj_000000gn/T//cc0EWEBo.s:3289   .debug_str:0000000000000129 .LASF153
/var/folders/rt/4gvqv631095f64jvm7jfj_000000gn/T//cc0EWEBo.s:3601   .debug_str:00000000000007e7 .LASF154
/var/folders/rt/4gvqv631095f64jvm7jfj_000000gn/T//cc0EWEBo.s:3405   .debug_str:0000000000000347 .LASF155
/var/folders/rt/4gvqv631095f64jvm7jfj_000000gn/T//cc0EWEBo.s:3255   .debug_str:0000000000000067 .LASF156
/var/folders/rt/4gvqv631095f64jvm7jfj_000000gn/T//cc0EWEBo.s:3345   .debug_str:0000000000000228 .LASF157
/var/folders/rt/4gvqv631095f64jvm7jfj_000000gn/T//cc0EWEBo.s:3287   .debug_str:000000000000011a .LASF158
/var/folders/rt/4gvqv631095f64jvm7jfj_000000gn/T//cc0EWEBo.s:3343   .debug_str:0000000000000217 .LASF159
/var/folders/rt/4gvqv631095f64jvm7jfj_000000gn/T//cc0EWEBo.s:3263   .debug_str:000000000000008d .LASF160
/var/folders/rt/4gvqv631095f64jvm7jfj_000000gn/T//cc0EWEBo.s:3265   .debug_str:000000000000009c .LASF161
/var/folders/rt/4gvqv631095f64jvm7jfj_000000gn/T//cc0EWEBo.s:3481   .debug_str:00000000000004ed .LASF162
/var/folders/rt/4gvqv631095f64jvm7jfj_000000gn/T//cc0EWEBo.s:3435   .debug_str:00000000000003f4 .LASF163
/var/folders/rt/4gvqv631095f64jvm7jfj_000000gn/T//cc0EWEBo.s:3427   .debug_str:00000000000003b8 .LASF164
/var/folders/rt/4gvqv631095f64jvm7jfj_000000gn/T//cc0EWEBo.s:3613   .debug_str:0000000000000824 .LASF165
/var/folders/rt/4gvqv631095f64jvm7jfj_000000gn/T//cc0EWEBo.s:3279   .debug_str:00000000000000f6 .LASF204
/var/folders/rt/4gvqv631095f64jvm7jfj_000000gn/T//cc0EWEBo.s:3361   .debug_str:0000000000000273 .LASF167
/var/folders/rt/4gvqv631095f64jvm7jfj_000000gn/T//cc0EWEBo.s:3587   .debug_str:000000000000079a .LASF168
/var/folders/rt/4gvqv631095f64jvm7jfj_000000gn/T//cc0EWEBo.s:3445   .debug_str:0000000000000424 .LASF169
/var/folders/rt/4gvqv631095f64jvm7jfj_000000gn/T//cc0EWEBo.s:3267   .debug_str:00000000000000ad .LASF170
/var/folders/rt/4gvqv631095f64jvm7jfj_000000gn/T//cc0EWEBo.s:3639   .debug_str:00000000000008a0 .LASF205
/var/folders/rt/4gvqv631095f64jvm7jfj_000000gn/T//cc0EWEBo.s:104    .text.startup.main:0000000000000000 .LFB3
/var/folders/rt/4gvqv631095f64jvm7jfj_000000gn/T//cc0EWEBo.s:238    .text.startup.main:00000000000000d8 .LFE3
/var/folders/rt/4gvqv631095f64jvm7jfj_000000gn/T//cc0EWEBo.s:3119   .debug_loc:0000000000000000 .LLST1
/var/folders/rt/4gvqv631095f64jvm7jfj_000000gn/T//cc0EWEBo.s:3132   .debug_loc:0000000000000020 .LLST2
/var/folders/rt/4gvqv631095f64jvm7jfj_000000gn/T//cc0EWEBo.s:3281   .debug_str:0000000000000101 .LASF171
/var/folders/rt/4gvqv631095f64jvm7jfj_000000gn/T//cc0EWEBo.s:3605   .debug_str:00000000000007fb .LASF172
/var/folders/rt/4gvqv631095f64jvm7jfj_000000gn/T//cc0EWEBo.s:3163   .debug_loc:000000000000006e .LLST3
/var/folders/rt/4gvqv631095f64jvm7jfj_000000gn/T//cc0EWEBo.s:3629   .debug_str:0000000000000875 .LASF173
GAS LISTING /var/folders/rt/4gvqv631095f64jvm7jfj_000000gn/T//cc0EWEBo.s 			page 13


/var/folders/rt/4gvqv631095f64jvm7jfj_000000gn/T//cc0EWEBo.s:3615   .debug_str:000000000000082c .LASF174
/var/folders/rt/4gvqv631095f64jvm7jfj_000000gn/T//cc0EWEBo.s:3637   .debug_str:000000000000089b .LASF175
/var/folders/rt/4gvqv631095f64jvm7jfj_000000gn/T//cc0EWEBo.s:3349   .debug_str:000000000000023f .LASF176
/var/folders/rt/4gvqv631095f64jvm7jfj_000000gn/T//cc0EWEBo.s:133    .text.startup.main:0000000000000018 .LVL14
/var/folders/rt/4gvqv631095f64jvm7jfj_000000gn/T//cc0EWEBo.s:136    .text.startup.main:0000000000000020 .LVL15
/var/folders/rt/4gvqv631095f64jvm7jfj_000000gn/T//cc0EWEBo.s:139    .text.startup.main:0000000000000028 .LVL16
/var/folders/rt/4gvqv631095f64jvm7jfj_000000gn/T//cc0EWEBo.s:142    .text.startup.main:0000000000000030 .LVL17
/var/folders/rt/4gvqv631095f64jvm7jfj_000000gn/T//cc0EWEBo.s:146    .text.startup.main:000000000000003a .LVL18
/var/folders/rt/4gvqv631095f64jvm7jfj_000000gn/T//cc0EWEBo.s:150    .text.startup.main:0000000000000044 .LVL19
/var/folders/rt/4gvqv631095f64jvm7jfj_000000gn/T//cc0EWEBo.s:153    .text.startup.main:000000000000004c .LVL20
/var/folders/rt/4gvqv631095f64jvm7jfj_000000gn/T//cc0EWEBo.s:157    .text.startup.main:0000000000000056 .LVL21
/var/folders/rt/4gvqv631095f64jvm7jfj_000000gn/T//cc0EWEBo.s:166    .text.startup.main:0000000000000066 .LVL22
/var/folders/rt/4gvqv631095f64jvm7jfj_000000gn/T//cc0EWEBo.s:190    .text.startup.main:0000000000000082 .LVL26
/var/folders/rt/4gvqv631095f64jvm7jfj_000000gn/T//cc0EWEBo.s:195    .text.startup.main:000000000000008c .LVL27
/var/folders/rt/4gvqv631095f64jvm7jfj_000000gn/T//cc0EWEBo.s:201    .text.startup.main:0000000000000096 .LVL29
/var/folders/rt/4gvqv631095f64jvm7jfj_000000gn/T//cc0EWEBo.s:215    .text.startup.main:00000000000000ae .LVL31
/var/folders/rt/4gvqv631095f64jvm7jfj_000000gn/T//cc0EWEBo.s:224    .text.startup.main:00000000000000be .LVL33
/var/folders/rt/4gvqv631095f64jvm7jfj_000000gn/T//cc0EWEBo.s:229    .text.startup.main:00000000000000ca .LVL34
/var/folders/rt/4gvqv631095f64jvm7jfj_000000gn/T//cc0EWEBo.s:235    .text.startup.main:00000000000000d6 .LVL35
/var/folders/rt/4gvqv631095f64jvm7jfj_000000gn/T//cc0EWEBo.s:3641   .debug_str:00000000000008a5 .LASF206
/var/folders/rt/4gvqv631095f64jvm7jfj_000000gn/T//cc0EWEBo.s:14     .text.rtcInit:0000000000000000 .LFB2
/var/folders/rt/4gvqv631095f64jvm7jfj_000000gn/T//cc0EWEBo.s:97     .text.rtcInit:0000000000000094 .LFE2
/var/folders/rt/4gvqv631095f64jvm7jfj_000000gn/T//cc0EWEBo.s:3180   .debug_loc:0000000000000099 .LLST0
/var/folders/rt/4gvqv631095f64jvm7jfj_000000gn/T//cc0EWEBo.s:30     .text.rtcInit:0000000000000010 .LVL0
/var/folders/rt/4gvqv631095f64jvm7jfj_000000gn/T//cc0EWEBo.s:33     .text.rtcInit:0000000000000018 .LVL1
/var/folders/rt/4gvqv631095f64jvm7jfj_000000gn/T//cc0EWEBo.s:37     .text.rtcInit:0000000000000024 .LVL2
/var/folders/rt/4gvqv631095f64jvm7jfj_000000gn/T//cc0EWEBo.s:40     .text.rtcInit:000000000000002c .LVL3
/var/folders/rt/4gvqv631095f64jvm7jfj_000000gn/T//cc0EWEBo.s:45     .text.rtcInit:0000000000000036 .LVL4
/var/folders/rt/4gvqv631095f64jvm7jfj_000000gn/T//cc0EWEBo.s:51     .text.rtcInit:0000000000000044 .LVL5
/var/folders/rt/4gvqv631095f64jvm7jfj_000000gn/T//cc0EWEBo.s:56     .text.rtcInit:0000000000000052 .LVL6
/var/folders/rt/4gvqv631095f64jvm7jfj_000000gn/T//cc0EWEBo.s:59     .text.rtcInit:000000000000005a .LVL7
/var/folders/rt/4gvqv631095f64jvm7jfj_000000gn/T//cc0EWEBo.s:62     .text.rtcInit:0000000000000062 .LVL8
/var/folders/rt/4gvqv631095f64jvm7jfj_000000gn/T//cc0EWEBo.s:67     .text.rtcInit:0000000000000070 .LVL9
/var/folders/rt/4gvqv631095f64jvm7jfj_000000gn/T//cc0EWEBo.s:70     .text.rtcInit:0000000000000078 .LVL10
/var/folders/rt/4gvqv631095f64jvm7jfj_000000gn/T//cc0EWEBo.s:74     .text.rtcInit:0000000000000082 .LVL11
/var/folders/rt/4gvqv631095f64jvm7jfj_000000gn/T//cc0EWEBo.s:85     .text.rtcInit:000000000000008e .LVL12
/var/folders/rt/4gvqv631095f64jvm7jfj_000000gn/T//cc0EWEBo.s:3579   .debug_str:0000000000000777 .LASF177
/var/folders/rt/4gvqv631095f64jvm7jfj_000000gn/T//cc0EWEBo.s:3315   .debug_str:000000000000019f .LASF178
/var/folders/rt/4gvqv631095f64jvm7jfj_000000gn/T//cc0EWEBo.s:3473   .debug_str:00000000000004cb .LASF179
/var/folders/rt/4gvqv631095f64jvm7jfj_000000gn/T//cc0EWEBo.s:3307   .debug_str:000000000000017a .LASF180
/var/folders/rt/4gvqv631095f64jvm7jfj_000000gn/T//cc0EWEBo.s:3593   .debug_str:00000000000007c3 .LASF181
/var/folders/rt/4gvqv631095f64jvm7jfj_000000gn/T//cc0EWEBo.s:3503   .debug_str:0000000000000554 .LASF182
/var/folders/rt/4gvqv631095f64jvm7jfj_000000gn/T//cc0EWEBo.s:3631   .debug_str:000000000000087f .LASF183
/var/folders/rt/4gvqv631095f64jvm7jfj_000000gn/T//cc0EWEBo.s:3321   .debug_str:00000000000001b7 .LASF184
/var/folders/rt/4gvqv631095f64jvm7jfj_000000gn/T//cc0EWEBo.s:3645   .debug_str:00000000000008b7 .LASF185
/var/folders/rt/4gvqv631095f64jvm7jfj_000000gn/T//cc0EWEBo.s:3491   .debug_str:0000000000000518 .LASF186
/var/folders/rt/4gvqv631095f64jvm7jfj_000000gn/T//cc0EWEBo.s:3295   .debug_str:0000000000000149 .LASF187
/var/folders/rt/4gvqv631095f64jvm7jfj_000000gn/T//cc0EWEBo.s:3555   .debug_str:0000000000000640 .LASF188
/var/folders/rt/4gvqv631095f64jvm7jfj_000000gn/T//cc0EWEBo.s:3559   .debug_str:000000000000064f .LASF189
/var/folders/rt/4gvqv631095f64jvm7jfj_000000gn/T//cc0EWEBo.s:3389   .debug_str:0000000000000306 .LASF190
/var/folders/rt/4gvqv631095f64jvm7jfj_000000gn/T//cc0EWEBo.s:3415   .debug_str:0000000000000375 .LASF191
/var/folders/rt/4gvqv631095f64jvm7jfj_000000gn/T//cc0EWEBo.s:3433   .debug_str:00000000000003dc .LASF192
/var/folders/rt/4gvqv631095f64jvm7jfj_000000gn/T//cc0EWEBo.s:3455   .debug_str:000000000000045c .LASF193
/var/folders/rt/4gvqv631095f64jvm7jfj_000000gn/T//cc0EWEBo.s:3245   .debug_str:0000000000000038 .LASF194
/var/folders/rt/4gvqv631095f64jvm7jfj_000000gn/T//cc0EWEBo.s:3575   .debug_str:000000000000075f .LASF195
/var/folders/rt/4gvqv631095f64jvm7jfj_000000gn/T//cc0EWEBo.s:3607   .debug_str:0000000000000800 .LASF196
/var/folders/rt/4gvqv631095f64jvm7jfj_000000gn/T//cc0EWEBo.s:3381   .debug_str:00000000000002cf .LASF197
GAS LISTING /var/folders/rt/4gvqv631095f64jvm7jfj_000000gn/T//cc0EWEBo.s 			page 14


/var/folders/rt/4gvqv631095f64jvm7jfj_000000gn/T//cc0EWEBo.s:3621   .debug_str:000000000000084c .LASF198
/var/folders/rt/4gvqv631095f64jvm7jfj_000000gn/T//cc0EWEBo.s:3501   .debug_str:0000000000000542 .LASF199
/var/folders/rt/4gvqv631095f64jvm7jfj_000000gn/T//cc0EWEBo.s:3359   .debug_str:0000000000000264 .LASF200
/var/folders/rt/4gvqv631095f64jvm7jfj_000000gn/T//cc0EWEBo.s:115    .text.startup.main:0000000000000002 .LCFI4
/var/folders/rt/4gvqv631095f64jvm7jfj_000000gn/T//cc0EWEBo.s:108    .text.startup.main:0000000000000000 .LVL13
/var/folders/rt/4gvqv631095f64jvm7jfj_000000gn/T//cc0EWEBo.s:176    .text.startup.main:0000000000000076 .LVL23
/var/folders/rt/4gvqv631095f64jvm7jfj_000000gn/T//cc0EWEBo.s:180    .text.startup.main:0000000000000078 .LVL24
/var/folders/rt/4gvqv631095f64jvm7jfj_000000gn/T//cc0EWEBo.s:198    .text.startup.main:000000000000008e .LVL28
/var/folders/rt/4gvqv631095f64jvm7jfj_000000gn/T//cc0EWEBo.s:207    .text.startup.main:000000000000009a .LVL30
/var/folders/rt/4gvqv631095f64jvm7jfj_000000gn/T//cc0EWEBo.s:218    .text.startup.main:00000000000000b0 .LVL32
/var/folders/rt/4gvqv631095f64jvm7jfj_000000gn/T//cc0EWEBo.s:21     .text.rtcInit:0000000000000002 .LCFI0
/var/folders/rt/4gvqv631095f64jvm7jfj_000000gn/T//cc0EWEBo.s:81     .text.rtcInit:0000000000000086 .LCFI1
/var/folders/rt/4gvqv631095f64jvm7jfj_000000gn/T//cc0EWEBo.s:87     .text.rtcInit:000000000000008e .LCFI2
/var/folders/rt/4gvqv631095f64jvm7jfj_000000gn/T//cc0EWEBo.s:93     .text.rtcInit:0000000000000092 .LCFI3
/var/folders/rt/4gvqv631095f64jvm7jfj_000000gn/T//cc0EWEBo.s:264    .debug_info:0000000000000000 .Ldebug_info0

UNDEFINED SYMBOLS
rcu_periph_clock_enable
pmu_backup_write_enable
bkp_deinit
rcu_osci_stab_wait
rcu_rtc_clock_config
rtc_register_sync_wait
rtc_lwoff_wait
rtc_prescaler_set
rtc_flag_clear
t5omsi
colinit
l88init
keyinit
ADC3powerUpInit
Lcd_SetType
Lcd_Init
LCD_Clear
u0init
t5expq
colset
l88row
LCD_ShowStr
l88mem
adc_software_trigger_enable
