GAS LISTING /var/folders/rt/4gvqv631095f64jvm7jfj_000000gn/T//ccOoU9OL.s 			page 1


   1              		.file	"main.c"
   2              		.option nopic
   3              		.attribute arch, "rv32i2p0_m2p0_a2p0_c2p0"
   4              		.attribute unaligned_access, 0
   5              		.attribute stack_align, 16
   6              		.text
   7              	.Ltext0:
   8              		.cfi_sections	.debug_frame
   9              		.section	.text.rtcInit,"ax",@progbits
  10              		.align	1
  11              		.globl	rtcInit
  13              	rtcInit:
  14              	.LFB2:
  15              		.file 1 "main.c"
   1:main.c        **** #include "gd32vf103.h"
   2:main.c        **** #include "drivers.h"
   3:main.c        **** #include "adc.h"
   4:main.c        **** #include "lcd.h"
   5:main.c        **** #include "usart.h"
   6:main.c        **** #define EI 1
   7:main.c        **** #define DI 0
   8:main.c        **** #define STR_COPY(dest, src) \
   9:main.c        ****     snprintf(dest, sizeof(dest), "%s", src) // AI. STR_COPY är en genväg för snprintf som i sin 
  10:main.c        **** 
  11:main.c        **** void rtcInit(void){
  16              		.loc 1 11 19
  17              		.cfi_startproc
  12:main.c        ****    
  13:main.c        ****    rcu_periph_clock_enable(RCU_PMU); // enable power managemenet unit - perhaps enabled by default
  18              		.loc 1 13 4
  11:main.c        ****    
  19              		.loc 1 11 19 is_stmt 0
  20 0000 4111     		addi	sp,sp,-16
  21              	.LCFI0:
  22              		.cfi_def_cfa_offset 16
  23              		.loc 1 13 4
  24 0002 1305C071 		li	a0,1820
  11:main.c        ****    
  25              		.loc 1 11 19
  26 0006 06C6     		sw	ra,12(sp)
  27              		.cfi_offset 1, -4
  28              		.loc 1 13 4
  29 0008 97000000 		call	rcu_periph_clock_enable
  29      E7800000 
  30              	.LVL0:
  14:main.c        ****    // enable write access to the registers in the backup domain
  15:main.c        ****    pmu_backup_write_enable();
  31              		.loc 1 15 4 is_stmt 1
  32 0010 97000000 		call	pmu_backup_write_enable
  32      E7800000 
  33              	.LVL1:
  16:main.c        ****    // enable backup domain
  17:main.c        ****    rcu_periph_clock_enable(RCU_BKPI);
  34              		.loc 1 17 4
  35 0018 1305B071 		li	a0,1819
  36 001c 97000000 		call	rcu_periph_clock_enable
  36      E7800000 
GAS LISTING /var/folders/rt/4gvqv631095f64jvm7jfj_000000gn/T//ccOoU9OL.s 			page 2


  37              	.LVL2:
  18:main.c        ****    // reset backup domain registers
  19:main.c        ****    bkp_deinit();
  38              		.loc 1 19 4
  39 0024 97000000 		call	bkp_deinit
  39      E7800000 
  40              	.LVL3:
  20:main.c        ****    // set the results of a previous calibration procedure
  21:main.c        ****    // bkp_rtc_calibration_value_set(x);
  22:main.c        **** 
  23:main.c        ****    // setup RTC
  24:main.c        ****    // enable external low speed XO
  25:main.c        ****    //rcu_osci_on(RCU_LXTAL);
  26:main.c        ****    if (rcu_osci_stab_wait(RCU_HXTAL)) {
  41              		.loc 1 26 4
  42              		.loc 1 26 8 is_stmt 0
  43 002c 4145     		li	a0,16
  44 002e 97000000 		call	rcu_osci_stab_wait
  44      E7800000 
  45              	.LVL4:
  46              		.loc 1 26 7
  47 0036 21CD     		beq	a0,zero,.L1
  27:main.c        ****      // use external low speed oscillaotr, i.e. 32.768 kHz
  28:main.c        ****      rcu_rtc_clock_config(RCU_RTCSRC_HXTAL_DIV_128);
  48              		.loc 1 28 6 is_stmt 1
  49 0038 13050030 		li	a0,768
  50 003c 97000000 		call	rcu_rtc_clock_config
  50      E7800000 
  51              	.LVL5:
  29:main.c        ****      rcu_periph_clock_enable(RCU_RTC);
  52              		.loc 1 29 6
  53 0044 0565     		li	a0,4096
  54 0046 1305F580 		addi	a0,a0,-2033
  55 004a 97000000 		call	rcu_periph_clock_enable
  55      E7800000 
  56              	.LVL6:
  30:main.c        ****      // wait until shadow registers are synced from the backup domain
  31:main.c        ****      // over the APB bus
  32:main.c        ****      rtc_register_sync_wait();
  57              		.loc 1 32 6
  58 0052 97000000 		call	rtc_register_sync_wait
  58      E7800000 
  59              	.LVL7:
  33:main.c        ****      // wait until shadow register changes are synced over APB
  34:main.c        ****      // to the backup doamin
  35:main.c        ****      rtc_lwoff_wait();
  60              		.loc 1 35 6
  61 005a 97000000 		call	rtc_lwoff_wait
  61      E7800000 
  62              	.LVL8:
  36:main.c        ****      // prescale to 1 second
  37:main.c        ****      rtc_prescaler_set(62500 - 1);
  63              		.loc 1 37 6
  64 0062 3D65     		li	a0,61440
  65 0064 13053542 		addi	a0,a0,1059
  66 0068 97000000 		call	rtc_prescaler_set
  66      E7800000 
GAS LISTING /var/folders/rt/4gvqv631095f64jvm7jfj_000000gn/T//ccOoU9OL.s 			page 3


  67              	.LVL9:
  38:main.c        ****      rtc_lwoff_wait();
  68              		.loc 1 38 6
  69 0070 97000000 		call	rtc_lwoff_wait
  69      E7800000 
  70              	.LVL10:
  39:main.c        ****      rtc_flag_clear(RTC_INT_FLAG_SECOND);
  71              		.loc 1 39 6
  72 0078 0545     		li	a0,1
  73 007a 97000000 		call	rtc_flag_clear
  73      E7800000 
  74              	.LVL11:
  40:main.c        ****      //rtc_interrupt_enable(RTC_INT_SECOND);
  41:main.c        ****      rtc_lwoff_wait();
  75              		.loc 1 41 6
  42:main.c        ****    }
  43:main.c        **** }
  76              		.loc 1 43 1 is_stmt 0
  77 0082 B240     		lw	ra,12(sp)
  78              		.cfi_remember_state
  79              		.cfi_restore 1
  80 0084 4101     		addi	sp,sp,16
  81              	.LCFI1:
  82              		.cfi_def_cfa_offset 0
  41:main.c        ****    }
  83              		.loc 1 41 6
  84 0086 17030000 		tail	rtc_lwoff_wait
  84      67000300 
  85              	.LVL12:
  86              	.L1:
  87              	.LCFI2:
  88              		.cfi_restore_state
  89              		.loc 1 43 1
  90 008e B240     		lw	ra,12(sp)
  91              		.cfi_restore 1
  92 0090 4101     		addi	sp,sp,16
  93              	.LCFI3:
  94              		.cfi_def_cfa_offset 0
  95 0092 8280     		jr	ra
  96              		.cfi_endproc
  97              	.LFE2:
  99              		.section	.text.initSensorReading,"ax",@progbits
 100              		.align	1
 101              		.globl	initSensorReading
 103              	initSensorReading:
 104              	.LFB3:
  44:main.c        **** 
  45:main.c        **** typedef struct
  46:main.c        **** {
  47:main.c        ****     char timeStamp[15];
  48:main.c        ****     int reading;
  49:main.c        **** } SensorReading;
  50:main.c        **** 
  51:main.c        **** SensorReading initSensorReading(char timeStamp[], int inReading) {
 105              		.loc 1 51 66 is_stmt 1
 106              		.cfi_startproc
 107              	.LVL13:
GAS LISTING /var/folders/rt/4gvqv631095f64jvm7jfj_000000gn/T//ccOoU9OL.s 			page 4


  52:main.c        ****   SensorReading newReading;
 108              		.loc 1 52 3
  53:main.c        ****   STR_COPY(newReading.timeStamp, timeStamp);
 109              		.loc 1 53 3
  51:main.c        ****   SensorReading newReading;
 110              		.loc 1 51 66 is_stmt 0
 111 0000 7971     		addi	sp,sp,-48
 112              	.LCFI4:
 113              		.cfi_def_cfa_offset 48
 114 0002 26D2     		sw	s1,36(sp)
 115              		.cfi_offset 9, -12
 116 0004 B284     		mv	s1,a2
 117              		.loc 1 53 3
 118 0006 37060000 		lui	a2,%hi(.LC1)
 119              	.LVL14:
  51:main.c        ****   SensorReading newReading;
 120              		.loc 1 51 66
 121 000a 22D4     		sw	s0,40(sp)
 122              		.loc 1 53 3
 123 000c AE86     		mv	a3,a1
 124              		.cfi_offset 8, -8
  51:main.c        ****   SensorReading newReading;
 125              		.loc 1 51 66
 126 000e 2A84     		mv	s0,a0
 127              		.loc 1 53 3
 128 0010 13060600 		addi	a2,a2,%lo(.LC1)
 129 0014 BD45     		li	a1,15
 130              	.LVL15:
 131 0016 6800     		addi	a0,sp,12
 132              	.LVL16:
  51:main.c        ****   SensorReading newReading;
 133              		.loc 1 51 66
 134 0018 06D6     		sw	ra,44(sp)
 135              		.cfi_offset 1, -4
 136              		.loc 1 53 3
 137 001a 97000000 		call	snprintf
 137      E7800000 
 138              	.LVL17:
  54:main.c        ****   newReading.reading = inReading;
 139              		.loc 1 54 3 is_stmt 1
  55:main.c        ****   return newReading;
 140              		.loc 1 55 10 is_stmt 0
 141 0022 6C00     		addi	a1,sp,12
 142 0024 2285     		mv	a0,s0
 143 0026 5146     		li	a2,20
  54:main.c        ****   newReading.reading = inReading;
 144              		.loc 1 54 22
 145 0028 26CE     		sw	s1,28(sp)
 146              		.loc 1 55 3 is_stmt 1
 147              		.loc 1 55 10 is_stmt 0
 148 002a 97000000 		call	memcpy
 148      E7800000 
 149              	.LVL18:
  56:main.c        **** }
 150              		.loc 1 56 1
 151 0032 2285     		mv	a0,s0
 152 0034 B250     		lw	ra,44(sp)
GAS LISTING /var/folders/rt/4gvqv631095f64jvm7jfj_000000gn/T//ccOoU9OL.s 			page 5


 153              		.cfi_restore 1
 154 0036 2254     		lw	s0,40(sp)
 155              		.cfi_restore 8
 156              	.LVL19:
 157 0038 9254     		lw	s1,36(sp)
 158              		.cfi_restore 9
 159              	.LVL20:
 160 003a 4561     		addi	sp,sp,48
 161              	.LCFI5:
 162              		.cfi_def_cfa_offset 0
 163 003c 8280     		jr	ra
 164              		.cfi_endproc
 165              	.LFE3:
 167              		.section	.text.initPlant,"ax",@progbits
 168              		.align	1
 169              		.globl	initPlant
 171              	initPlant:
 172              	.LFB4:
  57:main.c        **** 
  58:main.c        **** typedef struct
  59:main.c        **** {
  60:main.c        ****     char name[10];
  61:main.c        ****     SensorReading dampReading;
  62:main.c        ****     SensorReading sunReading;
  63:main.c        ****     char currentStatus[10];
  64:main.c        **** } Plant;
  65:main.c        **** 
  66:main.c        **** Plant initPlant(char inName[]) {
 173              		.loc 1 66 32 is_stmt 1
 174              		.cfi_startproc
 175              	.LVL21:
  67:main.c        ****   Plant newPlant;
 176              		.loc 1 67 3
  68:main.c        ****   SensorReading defaultReading = initSensorReading("20250401-1200", 50);
 177              		.loc 1 68 3
  66:main.c        ****   Plant newPlant;
 178              		.loc 1 66 32 is_stmt 0
 179 0000 1971     		addi	sp,sp,-128
 180              	.LCFI6:
 181              		.cfi_def_cfa_offset 128
 182 0002 2EC6     		sw	a1,12(sp)
 183              		.loc 1 68 34
 184 0004 B7050000 		lui	a1,%hi(.LC2)
 185              	.LVL22:
  66:main.c        ****   Plant newPlant;
 186              		.loc 1 66 32
 187 0008 A2DC     		sw	s0,120(sp)
 188              		.loc 1 68 34
 189 000a 13062003 		li	a2,50
 190              		.cfi_offset 8, -8
  66:main.c        ****   Plant newPlant;
 191              		.loc 1 66 32
 192 000e 2A84     		mv	s0,a0
 193              		.loc 1 68 34
 194 0010 93850500 		addi	a1,a1,%lo(.LC2)
 195 0014 6808     		addi	a0,sp,28
 196              	.LVL23:
GAS LISTING /var/folders/rt/4gvqv631095f64jvm7jfj_000000gn/T//ccOoU9OL.s 			page 6


  66:main.c        ****   Plant newPlant;
 197              		.loc 1 66 32
 198 0016 86DE     		sw	ra,124(sp)
 199              		.cfi_offset 1, -4
 200              		.loc 1 68 34
 201 0018 97000000 		call	initSensorReading
 201      E7800000 
 202              	.LVL24:
  69:main.c        **** 
  70:main.c        ****   STR_COPY(newPlant.name, inName);
 203              		.loc 1 70 3 is_stmt 1
 204 0020 B246     		lw	a3,12(sp)
 205 0022 37060000 		lui	a2,%hi(.LC1)
 206 0026 13060600 		addi	a2,a2,%lo(.LC1)
 207 002a A945     		li	a1,10
 208 002c 0818     		addi	a0,sp,48
 209 002e 97000000 		call	snprintf
 209      E7800000 
 210              	.LVL25:
  71:main.c        ****   STR_COPY(newPlant.currentStatus, "OK");
 211              		.loc 1 71 3
 212 0036 B7050000 		lui	a1,%hi(.LC3)
 213 003a 93850500 		addi	a1,a1,%lo(.LC3)
 214 003e C810     		addi	a0,sp,100
 215 0040 97000000 		call	strcpy
 215      E7800000 
 216              	.LVL26:
  72:main.c        ****   newPlant.dampReading = defaultReading;
 217              		.loc 1 72 3
 218              		.loc 1 72 24 is_stmt 0
 219 0048 6C08     		addi	a1,sp,28
 220 004a 5146     		li	a2,20
 221 004c 6818     		addi	a0,sp,60
 222 004e 97000000 		call	memcpy
 222      E7800000 
 223              	.LVL27:
  73:main.c        ****   newPlant.sunReading = defaultReading;
 224              		.loc 1 73 3 is_stmt 1
 225              		.loc 1 73 23 is_stmt 0
 226 0056 6C08     		addi	a1,sp,28
 227 0058 5146     		li	a2,20
 228 005a 8808     		addi	a0,sp,80
 229 005c 97000000 		call	memcpy
 229      E7800000 
 230              	.LVL28:
  74:main.c        ****   return newPlant;
 231              		.loc 1 74 3 is_stmt 1
 232              		.loc 1 74 10 is_stmt 0
 233 0064 0C18     		addi	a1,sp,48
 234 0066 2285     		mv	a0,s0
 235 0068 13060004 		li	a2,64
 236 006c 97000000 		call	memcpy
 236      E7800000 
 237              	.LVL29:
  75:main.c        **** }
 238              		.loc 1 75 1
 239 0074 2285     		mv	a0,s0
GAS LISTING /var/folders/rt/4gvqv631095f64jvm7jfj_000000gn/T//ccOoU9OL.s 			page 7


 240 0076 F650     		lw	ra,124(sp)
 241              		.cfi_restore 1
 242 0078 6654     		lw	s0,120(sp)
 243              		.cfi_restore 8
 244              	.LVL30:
 245 007a 0961     		addi	sp,sp,128
 246              	.LCFI7:
 247              		.cfi_def_cfa_offset 0
 248              	.LVL31:
 249 007c 8280     		jr	ra
 250              		.cfi_endproc
 251              	.LFE4:
 253              		.section	.text.renderLCD,"ax",@progbits
 254              		.align	1
 255              		.globl	renderLCD
 257              	renderLCD:
 258              	.LFB5:
  76:main.c        **** 
  77:main.c        **** void renderLCD(Plant plant1, Plant plant2) {
 259              		.loc 1 77 44 is_stmt 1
 260              		.cfi_startproc
  78:main.c        ****     LCD_ShowStr(80, 0, "PlantiiOS", GREEN, TRANSPARENT);
 261              		.loc 1 78 5
  77:main.c        ****     LCD_ShowStr(80, 0, "PlantiiOS", GREEN, TRANSPARENT);
 262              		.loc 1 77 44 is_stmt 0
 263 0000 4111     		addi	sp,sp,-16
 264              	.LCFI8:
 265              		.cfi_def_cfa_offset 16
 266              		.loc 1 78 5
 267 0002 37060000 		lui	a2,%hi(.LC4)
  77:main.c        ****     LCD_ShowStr(80, 0, "PlantiiOS", GREEN, TRANSPARENT);
 268              		.loc 1 77 44
 269 0006 22C4     		sw	s0,8(sp)
 270              		.loc 1 78 5
 271 0008 0547     		li	a4,1
 272              		.cfi_offset 8, -8
  77:main.c        ****     LCD_ShowStr(80, 0, "PlantiiOS", GREEN, TRANSPARENT);
 273              		.loc 1 77 44
 274 000a 2A84     		mv	s0,a0
 275              		.loc 1 78 5
 276 000c 9306007E 		li	a3,2016
 277 0010 13060600 		addi	a2,a2,%lo(.LC4)
 278 0014 8145     		li	a1,0
 279 0016 13050005 		li	a0,80
  77:main.c        ****     LCD_ShowStr(80, 0, "PlantiiOS", GREEN, TRANSPARENT);
 280              		.loc 1 77 44
 281 001a 06C6     		sw	ra,12(sp)
 282 001c 26C2     		sw	s1,4(sp)
 283              		.cfi_offset 1, -4
 284              		.cfi_offset 9, -12
 285              		.loc 1 78 5
 286 001e 97000000 		call	LCD_ShowStr
 286      E7800000 
 287              	.LVL32:
  79:main.c        ****     LCD_ShowStr(0, 0, plant1.name, WHITE, TRANSPARENT);
 288              		.loc 1 79 5 is_stmt 1
 289 0026 C164     		li	s1,65536
GAS LISTING /var/folders/rt/4gvqv631095f64jvm7jfj_000000gn/T//ccOoU9OL.s 			page 8


 290 0028 9386F4FF 		addi	a3,s1,-1
 291 002c 2286     		mv	a2,s0
 292 002e 0547     		li	a4,1
 293 0030 8145     		li	a1,0
 294 0032 0145     		li	a0,0
 295 0034 97000000 		call	LCD_ShowStr
 295      E7800000 
 296              	.LVL33:
  80:main.c        ****     LCD_ShowNum(0, 20, plant1.dampReading.reading, 2, WHITE);
 297              		.loc 1 80 5
 298 003c 504C     		lw	a2,28(s0)
 299 003e 1387F4FF 		addi	a4,s1,-1
 300 0042 8946     		li	a3,2
 301 0044 D145     		li	a1,20
 302 0046 0145     		li	a0,0
 303 0048 97000000 		call	LCD_ShowNum
 303      E7800000 
 304              	.LVL34:
  81:main.c        ****     LCD_ShowNum(0, 40, plant1.sunReading.reading, 2, WHITE);
 305              		.loc 1 81 5
 306 0050 1058     		lw	a2,48(s0)
 307 0052 1387F4FF 		addi	a4,s1,-1
 308 0056 8946     		li	a3,2
 309 0058 93058002 		li	a1,40
 310 005c 0145     		li	a0,0
 311 005e 97000000 		call	LCD_ShowNum
 311      E7800000 
 312              	.LVL35:
  82:main.c        ****     LCD_ShowStr(0, 60, plant1.currentStatus, GBLUE, TRANSPARENT);
 313              		.loc 1 82 5
 314 0066 13064403 		addi	a2,s0,52
 315 006a 0547     		li	a4,1
 316 006c 9306F07F 		li	a3,2047
 317 0070 9305C003 		li	a1,60
 318 0074 0145     		li	a0,0
 319 0076 97000000 		call	LCD_ShowStr
 319      E7800000 
 320              	.LVL36:
  83:main.c        **** }
 321              		.loc 1 83 1 is_stmt 0
 322 007e B240     		lw	ra,12(sp)
 323              		.cfi_restore 1
 324 0080 2244     		lw	s0,8(sp)
 325              		.cfi_restore 8
 326 0082 9244     		lw	s1,4(sp)
 327              		.cfi_restore 9
 328 0084 4101     		addi	sp,sp,16
 329              	.LCFI9:
 330              		.cfi_def_cfa_offset 0
 331 0086 8280     		jr	ra
 332              		.cfi_endproc
 333              	.LFE5:
 335              		.section	.text.startup.main,"ax",@progbits
 336              		.align	1
 337              		.globl	main
 339              	main:
 340              	.LFB6:
GAS LISTING /var/folders/rt/4gvqv631095f64jvm7jfj_000000gn/T//ccOoU9OL.s 			page 9


  84:main.c        **** 
  85:main.c        **** int main(void){
 341              		.loc 1 85 15 is_stmt 1
 342              		.cfi_startproc
  86:main.c        ****     int ms=0, s=0, key, pKey=-1, c=0, idle=0, rtc, hh, mm, ss;
 343              		.loc 1 86 5
 344              	.LVL37:
  87:main.c        ****     int lookUpTbl[16]={1,4,7,14,2,5,8,0,3,6,9,15,10,11,12,13};
 345              		.loc 1 87 5
  88:main.c        ****     int dac=0, speed=-100;
 346              		.loc 1 88 5
  89:main.c        ****     int adcr, tmpr;
 347              		.loc 1 89 5
  90:main.c        **** 
  91:main.c        ****     Plant gurka = initPlant("Gurka");
 348              		.loc 1 91 5
  85:main.c        ****     int ms=0, s=0, key, pKey=-1, c=0, idle=0, rtc, hh, mm, ss;
 349              		.loc 1 85 15 is_stmt 0
 350 0000 6D71     		addi	sp,sp,-272
 351              	.LCFI10:
 352              		.cfi_def_cfa_offset 272
 353              		.loc 1 91 19
 354 0002 B7050000 		lui	a1,%hi(.LC5)
 355 0006 93850500 		addi	a1,a1,%lo(.LC5)
 356 000a 0801     		addi	a0,sp,128
  85:main.c        ****     int ms=0, s=0, key, pKey=-1, c=0, idle=0, rtc, hh, mm, ss;
 357              		.loc 1 85 15
 358 000c 23261110 		sw	ra,268(sp)
 359 0010 23229110 		sw	s1,260(sp)
 360 0014 23202111 		sw	s2,256(sp)
 361 0018 23248110 		sw	s0,264(sp)
 362              		.cfi_offset 1, -4
 363              		.cfi_offset 9, -12
 364              		.cfi_offset 18, -16
 365              		.cfi_offset 8, -8
 366              		.loc 1 91 19
 367 001c 97000000 		call	initPlant
 367      E7800000 
 368              	.LVL38:
  92:main.c        ****     Plant tomat = initPlant("Tomat");
 369              		.loc 1 92 5 is_stmt 1
 370              		.loc 1 92 19 is_stmt 0
 371 0024 B7050000 		lui	a1,%hi(.LC6)
 372 0028 93850500 		addi	a1,a1,%lo(.LC6)
 373 002c 8801     		addi	a0,sp,192
 374 002e 97000000 		call	initPlant
 374      E7800000 
 375              	.LVL39:
  93:main.c        **** 
  94:main.c        ****     t5omsi();                               // Initialize timer5 1kHz
 376              		.loc 1 94 5 is_stmt 1
 377 0036 97000000 		call	t5omsi
 377      E7800000 
 378              	.LVL40:
  95:main.c        ****     colinit();                              // Initialize column toolbox
 379              		.loc 1 95 5
 380 003e 97000000 		call	colinit
GAS LISTING /var/folders/rt/4gvqv631095f64jvm7jfj_000000gn/T//ccOoU9OL.s 			page 10


 380      E7800000 
 381              	.LVL41:
  96:main.c        ****     l88init();                              // Initialize 8*8 led toolbox
 382              		.loc 1 96 5
 383 0046 97000000 		call	l88init
 383      E7800000 
 384              	.LVL42:
  97:main.c        ****     keyinit();                              // Initialize keyboard toolbox
 385              		.loc 1 97 5
 386 004e 97000000 		call	keyinit
 386      E7800000 
 387              	.LVL43:
  98:main.c        ****     //ADC3powerUpInit(1);                     // Initialize ADC0, Ch3
  99:main.c        ****     Lcd_SetType(LCD_INVERTED);                // or use LCD_INVERTED!
 388              		.loc 1 99 5
 389 0056 0545     		li	a0,1
 390 0058 97000000 		call	Lcd_SetType
 390      E7800000 
 391              	.LVL44:
 100:main.c        ****     Lcd_Init();
 392              		.loc 1 100 5
 393 0060 97000000 		call	Lcd_Init
 393      E7800000 
 394              	.LVL45:
 101:main.c        ****     LCD_Clear(BLACK);
 395              		.loc 1 101 5
 396 0068 0145     		li	a0,0
 397 006a 97000000 		call	LCD_Clear
 397      E7800000 
 398              	.LVL46:
 102:main.c        **** 
 103:main.c        ****     //rtcInit();                              // Initialize RTC
 104:main.c        ****     //rtc_counter_set(3600+60+1);
 105:main.c        ****     //u0init(EI);                               // Initialize USART0 toolbox
 106:main.c        ****     //eclic_global_interrupt_enable();          // !!! INTERRUPT ENABLED !!!
 107:main.c        ****     renderLCD(gurka, tomat);
 399              		.loc 1 107 5
 400 0072 13060004 		li	a2,64
 401 0076 0C01     		addi	a1,sp,128
 402 0078 8800     		addi	a0,sp,64
 403 007a 97000000 		call	memcpy
 403      E7800000 
 404              	.LVL47:
 405 0082 13060004 		li	a2,64
 406 0086 8C01     		addi	a1,sp,192
 407 0088 0A85     		mv	a0,sp
 408 008a 97000000 		call	memcpy
 408      E7800000 
 409              	.LVL48:
 410 0092 8A85     		mv	a1,sp
 411 0094 8800     		addi	a0,sp,64
 412 0096 97000000 		call	renderLCD
 412      E7800000 
 413              	.LVL49:
  86:main.c        ****     int lookUpTbl[16]={1,4,7,14,2,5,8,0,3,6,9,15,10,11,12,13};
 414              		.loc 1 86 9 is_stmt 0
 415 009e 8144     		li	s1,0
GAS LISTING /var/folders/rt/4gvqv631095f64jvm7jfj_000000gn/T//ccOoU9OL.s 			page 11


 108:main.c        ****     while (1) {
 109:main.c        ****         idle++;                               // Manage Async events
 110:main.c        **** 
 111:main.c        ****         if (t5expq()) {                         // Manage periodic tasks
 112:main.c        ****             l88row(colset());                   // ...8*8LED and Keyboard
 113:main.c        ****             ms++;                               // ...One second heart beat
 114:main.c        ****             if (ms==1000){
 416              		.loc 1 114 16
 417 00a0 1309803E 		li	s2,1000
 418              	.LVL50:
 419              	.L13:
  86:main.c        ****     int lookUpTbl[16]={1,4,7,14,2,5,8,0,3,6,9,15,10,11,12,13};
 420              		.loc 1 86 9
 421 00a4 0144     		li	s0,0
 422              	.LVL51:
 423              	.L11:
 108:main.c        ****     while (1) {
 424              		.loc 1 108 5 is_stmt 1
 109:main.c        **** 
 425              		.loc 1 109 9
 109:main.c        **** 
 426              		.loc 1 109 13 is_stmt 0
 427 00a6 0504     		addi	s0,s0,1
 428              	.LVL52:
 111:main.c        ****             l88row(colset());                   // ...8*8LED and Keyboard
 429              		.loc 1 111 9 is_stmt 1
 111:main.c        ****             l88row(colset());                   // ...8*8LED and Keyboard
 430              		.loc 1 111 13 is_stmt 0
 431 00a8 97000000 		call	t5expq
 431      E7800000 
 432              	.LVL53:
 111:main.c        ****             l88row(colset());                   // ...8*8LED and Keyboard
 433              		.loc 1 111 12
 434 00b0 7DD9     		beq	a0,zero,.L11
 112:main.c        ****             ms++;                               // ...One second heart beat
 435              		.loc 1 112 13 is_stmt 1
 436 00b2 97000000 		call	colset
 436      E7800000 
 437              	.LVL54:
 113:main.c        ****             if (ms==1000){
 438              		.loc 1 113 15 is_stmt 0
 439 00ba 8504     		addi	s1,s1,1
 440              	.LVL55:
 112:main.c        ****             ms++;                               // ...One second heart beat
 441              		.loc 1 112 13
 442 00bc 97000000 		call	l88row
 442      E7800000 
 443              	.LVL56:
 113:main.c        ****             if (ms==1000){
 444              		.loc 1 113 13 is_stmt 1
 445              		.loc 1 114 13
 446              		.loc 1 114 16 is_stmt 0
 447 00c4 63932401 		bne	s1,s2,.L12
 115:main.c        ****               ms=0;
 448              		.loc 1 115 17
 449 00c8 8144     		li	s1,0
 450              	.LVL57:
GAS LISTING /var/folders/rt/4gvqv631095f64jvm7jfj_000000gn/T//ccOoU9OL.s 			page 12


 451              	.L12:
 116:main.c        ****               
 117:main.c        ****             }
 118:main.c        ****             l88mem(2,idle>>8);                  // ...Performance monitor
 452              		.loc 1 118 13 is_stmt 1
 453 00ca 93558440 		srai	a1,s0,8
 454 00ce 0945     		li	a0,2
 455 00d0 97000000 		call	l88mem
 455      E7800000 
 456              	.LVL58:
 119:main.c        ****             l88mem(3,idle); idle=0;
 457              		.loc 1 119 13
 458 00d8 A285     		mv	a1,s0
 459 00da 0D45     		li	a0,3
 460 00dc 97000000 		call	l88mem
 460      E7800000 
 461              	.LVL59:
 462              		.loc 1 119 29
 463 00e4 C1B7     		j	.L13
 464              		.cfi_endproc
 465              	.LFE6:
 467              		.section	.rodata.initPlant.str1.4,"aMS",@progbits,1
 468              		.align	2
 469              	.LC2:
 470 0000 32303235 		.string	"20250401-1200"
 470      30343031 
 470      2D313230 
 470      3000
 471 000e 0000     		.zero	2
 472              	.LC3:
 473 0010 4F4B00   		.string	"OK"
 474              		.section	.rodata.initSensorReading.str1.4,"aMS",@progbits,1
 475              		.align	2
 476              	.LC1:
 477 0000 257300   		.string	"%s"
 478              		.section	.rodata.main.str1.4,"aMS",@progbits,1
 479              		.align	2
 480              	.LC5:
 481 0000 4775726B 		.string	"Gurka"
 481      6100
 482 0006 0000     		.zero	2
 483              	.LC6:
 484 0008 546F6D61 		.string	"Tomat"
 484      7400
 485              		.section	.rodata.renderLCD.str1.4,"aMS",@progbits,1
 486              		.align	2
 487              	.LC4:
 488 0000 506C616E 		.string	"PlantiiOS"
 488      7469694F 
 488      5300
 489              		.text
 490              	.Letext0:
 491              		.file 2 "/Users/alexstrae/toolchain-gd32v-v202-osx/compiler/riscv64-unknown-elf/include/machine/_d
 492              		.file 3 "/Users/alexstrae/toolchain-gd32v-v202-osx/compiler/riscv64-unknown-elf/include/sys/_stdin
 493              		.file 4 "../../firmware/GD32VF103_standard_peripheral/Include/gd32vf103_rcu.h"
 494              		.file 5 "/Users/alexstrae/toolchain-gd32v-v202-osx/compiler/lib/gcc/riscv64-unknown-elf/8.3.0/incl
 495              		.file 6 "/Users/alexstrae/toolchain-gd32v-v202-osx/compiler/riscv64-unknown-elf/include/sys/_types
GAS LISTING /var/folders/rt/4gvqv631095f64jvm7jfj_000000gn/T//ccOoU9OL.s 			page 13


 496              		.file 7 "/Users/alexstrae/toolchain-gd32v-v202-osx/compiler/riscv64-unknown-elf/include/sys/reent.
 497              		.file 8 "/Users/alexstrae/toolchain-gd32v-v202-osx/compiler/riscv64-unknown-elf/include/sys/lock.h
 498              		.file 9 "../../firmware/GD32VF103_standard_peripheral/system_gd32vf103.h"
 499              		.file 10 "/Users/alexstrae/toolchain-gd32v-v202-osx/compiler/riscv64-unknown-elf/include/stdlib.h"
 500              		.file 11 "lcd.h"
 501              		.file 12 "<built-in>"
 502              		.file 13 "drivers.h"
 503              		.file 14 "../../firmware/GD32VF103_standard_peripheral/Include/gd32vf103_pmu.h"
 504              		.file 15 "../../firmware/GD32VF103_standard_peripheral/Include/gd32vf103_bkp.h"
 505              		.file 16 "../../firmware/GD32VF103_standard_peripheral/Include/gd32vf103_rtc.h"
GAS LISTING /var/folders/rt/4gvqv631095f64jvm7jfj_000000gn/T//ccOoU9OL.s 			page 14


DEFINED SYMBOLS
                            *ABS*:0000000000000000 main.c
/var/folders/rt/4gvqv631095f64jvm7jfj_000000gn/T//ccOoU9OL.s:13     .text.rtcInit:0000000000000000 rtcInit
/var/folders/rt/4gvqv631095f64jvm7jfj_000000gn/T//ccOoU9OL.s:17     .text.rtcInit:0000000000000000 .L0 
/var/folders/rt/4gvqv631095f64jvm7jfj_000000gn/T//ccOoU9OL.s:18     .text.rtcInit:0000000000000000 .L0 
/var/folders/rt/4gvqv631095f64jvm7jfj_000000gn/T//ccOoU9OL.s:19     .text.rtcInit:0000000000000000 .L0 
/var/folders/rt/4gvqv631095f64jvm7jfj_000000gn/T//ccOoU9OL.s:20     .text.rtcInit:0000000000000000 .L0 
/var/folders/rt/4gvqv631095f64jvm7jfj_000000gn/T//ccOoU9OL.s:22     .text.rtcInit:0000000000000002 .L0 
/var/folders/rt/4gvqv631095f64jvm7jfj_000000gn/T//ccOoU9OL.s:24     .text.rtcInit:0000000000000002 .L0 
/var/folders/rt/4gvqv631095f64jvm7jfj_000000gn/T//ccOoU9OL.s:26     .text.rtcInit:0000000000000006 .L0 
/var/folders/rt/4gvqv631095f64jvm7jfj_000000gn/T//ccOoU9OL.s:27     .text.rtcInit:0000000000000008 .L0 
/var/folders/rt/4gvqv631095f64jvm7jfj_000000gn/T//ccOoU9OL.s:29     .text.rtcInit:0000000000000008 .L0 
/var/folders/rt/4gvqv631095f64jvm7jfj_000000gn/T//ccOoU9OL.s:32     .text.rtcInit:0000000000000010 .L0 
/var/folders/rt/4gvqv631095f64jvm7jfj_000000gn/T//ccOoU9OL.s:35     .text.rtcInit:0000000000000018 .L0 
/var/folders/rt/4gvqv631095f64jvm7jfj_000000gn/T//ccOoU9OL.s:39     .text.rtcInit:0000000000000024 .L0 
/var/folders/rt/4gvqv631095f64jvm7jfj_000000gn/T//ccOoU9OL.s:42     .text.rtcInit:000000000000002c .L0 
/var/folders/rt/4gvqv631095f64jvm7jfj_000000gn/T//ccOoU9OL.s:43     .text.rtcInit:000000000000002c .L0 
/var/folders/rt/4gvqv631095f64jvm7jfj_000000gn/T//ccOoU9OL.s:47     .text.rtcInit:0000000000000036 .L0 
/var/folders/rt/4gvqv631095f64jvm7jfj_000000gn/T//ccOoU9OL.s:49     .text.rtcInit:0000000000000038 .L0 
/var/folders/rt/4gvqv631095f64jvm7jfj_000000gn/T//ccOoU9OL.s:53     .text.rtcInit:0000000000000044 .L0 
/var/folders/rt/4gvqv631095f64jvm7jfj_000000gn/T//ccOoU9OL.s:58     .text.rtcInit:0000000000000052 .L0 
/var/folders/rt/4gvqv631095f64jvm7jfj_000000gn/T//ccOoU9OL.s:61     .text.rtcInit:000000000000005a .L0 
/var/folders/rt/4gvqv631095f64jvm7jfj_000000gn/T//ccOoU9OL.s:64     .text.rtcInit:0000000000000062 .L0 
/var/folders/rt/4gvqv631095f64jvm7jfj_000000gn/T//ccOoU9OL.s:69     .text.rtcInit:0000000000000070 .L0 
/var/folders/rt/4gvqv631095f64jvm7jfj_000000gn/T//ccOoU9OL.s:72     .text.rtcInit:0000000000000078 .L0 
/var/folders/rt/4gvqv631095f64jvm7jfj_000000gn/T//ccOoU9OL.s:76     .text.rtcInit:0000000000000082 .L0 
/var/folders/rt/4gvqv631095f64jvm7jfj_000000gn/T//ccOoU9OL.s:77     .text.rtcInit:0000000000000082 .L0 
/var/folders/rt/4gvqv631095f64jvm7jfj_000000gn/T//ccOoU9OL.s:78     .text.rtcInit:0000000000000084 .L0 
/var/folders/rt/4gvqv631095f64jvm7jfj_000000gn/T//ccOoU9OL.s:79     .text.rtcInit:0000000000000084 .L0 
/var/folders/rt/4gvqv631095f64jvm7jfj_000000gn/T//ccOoU9OL.s:82     .text.rtcInit:0000000000000086 .L0 
/var/folders/rt/4gvqv631095f64jvm7jfj_000000gn/T//ccOoU9OL.s:84     .text.rtcInit:0000000000000086 .L0 
/var/folders/rt/4gvqv631095f64jvm7jfj_000000gn/T//ccOoU9OL.s:88     .text.rtcInit:000000000000008e .L0 
/var/folders/rt/4gvqv631095f64jvm7jfj_000000gn/T//ccOoU9OL.s:90     .text.rtcInit:000000000000008e .L0 
/var/folders/rt/4gvqv631095f64jvm7jfj_000000gn/T//ccOoU9OL.s:91     .text.rtcInit:0000000000000090 .L0 
/var/folders/rt/4gvqv631095f64jvm7jfj_000000gn/T//ccOoU9OL.s:94     .text.rtcInit:0000000000000092 .L0 
/var/folders/rt/4gvqv631095f64jvm7jfj_000000gn/T//ccOoU9OL.s:96     .text.rtcInit:0000000000000094 .L0 
/var/folders/rt/4gvqv631095f64jvm7jfj_000000gn/T//ccOoU9OL.s:103    .text.initSensorReading:0000000000000000 initSensorReading
/var/folders/rt/4gvqv631095f64jvm7jfj_000000gn/T//ccOoU9OL.s:106    .text.initSensorReading:0000000000000000 .L0 
/var/folders/rt/4gvqv631095f64jvm7jfj_000000gn/T//ccOoU9OL.s:108    .text.initSensorReading:0000000000000000 .L0 
/var/folders/rt/4gvqv631095f64jvm7jfj_000000gn/T//ccOoU9OL.s:109    .text.initSensorReading:0000000000000000 .L0 
/var/folders/rt/4gvqv631095f64jvm7jfj_000000gn/T//ccOoU9OL.s:110    .text.initSensorReading:0000000000000000 .L0 
/var/folders/rt/4gvqv631095f64jvm7jfj_000000gn/T//ccOoU9OL.s:111    .text.initSensorReading:0000000000000000 .L0 
/var/folders/rt/4gvqv631095f64jvm7jfj_000000gn/T//ccOoU9OL.s:113    .text.initSensorReading:0000000000000002 .L0 
/var/folders/rt/4gvqv631095f64jvm7jfj_000000gn/T//ccOoU9OL.s:115    .text.initSensorReading:0000000000000004 .L0 
/var/folders/rt/4gvqv631095f64jvm7jfj_000000gn/T//ccOoU9OL.s:118    .text.initSensorReading:0000000000000006 .L0 
/var/folders/rt/4gvqv631095f64jvm7jfj_000000gn/T//ccOoU9OL.s:121    .text.initSensorReading:000000000000000a .L0 
/var/folders/rt/4gvqv631095f64jvm7jfj_000000gn/T//ccOoU9OL.s:123    .text.initSensorReading:000000000000000c .L0 
/var/folders/rt/4gvqv631095f64jvm7jfj_000000gn/T//ccOoU9OL.s:124    .text.initSensorReading:000000000000000e .L0 
/var/folders/rt/4gvqv631095f64jvm7jfj_000000gn/T//ccOoU9OL.s:126    .text.initSensorReading:000000000000000e .L0 
/var/folders/rt/4gvqv631095f64jvm7jfj_000000gn/T//ccOoU9OL.s:128    .text.initSensorReading:0000000000000010 .L0 
/var/folders/rt/4gvqv631095f64jvm7jfj_000000gn/T//ccOoU9OL.s:134    .text.initSensorReading:0000000000000018 .L0 
/var/folders/rt/4gvqv631095f64jvm7jfj_000000gn/T//ccOoU9OL.s:135    .text.initSensorReading:000000000000001a .L0 
/var/folders/rt/4gvqv631095f64jvm7jfj_000000gn/T//ccOoU9OL.s:137    .text.initSensorReading:000000000000001a .L0 
/var/folders/rt/4gvqv631095f64jvm7jfj_000000gn/T//ccOoU9OL.s:140    .text.initSensorReading:0000000000000022 .L0 
/var/folders/rt/4gvqv631095f64jvm7jfj_000000gn/T//ccOoU9OL.s:141    .text.initSensorReading:0000000000000022 .L0 
/var/folders/rt/4gvqv631095f64jvm7jfj_000000gn/T//ccOoU9OL.s:145    .text.initSensorReading:0000000000000028 .L0 
/var/folders/rt/4gvqv631095f64jvm7jfj_000000gn/T//ccOoU9OL.s:147    .text.initSensorReading:000000000000002a .L0 
GAS LISTING /var/folders/rt/4gvqv631095f64jvm7jfj_000000gn/T//ccOoU9OL.s 			page 15


/var/folders/rt/4gvqv631095f64jvm7jfj_000000gn/T//ccOoU9OL.s:148    .text.initSensorReading:000000000000002a .L0 
/var/folders/rt/4gvqv631095f64jvm7jfj_000000gn/T//ccOoU9OL.s:151    .text.initSensorReading:0000000000000032 .L0 
/var/folders/rt/4gvqv631095f64jvm7jfj_000000gn/T//ccOoU9OL.s:153    .text.initSensorReading:0000000000000036 .L0 
/var/folders/rt/4gvqv631095f64jvm7jfj_000000gn/T//ccOoU9OL.s:155    .text.initSensorReading:0000000000000038 .L0 
/var/folders/rt/4gvqv631095f64jvm7jfj_000000gn/T//ccOoU9OL.s:158    .text.initSensorReading:000000000000003a .L0 
/var/folders/rt/4gvqv631095f64jvm7jfj_000000gn/T//ccOoU9OL.s:162    .text.initSensorReading:000000000000003c .L0 
/var/folders/rt/4gvqv631095f64jvm7jfj_000000gn/T//ccOoU9OL.s:164    .text.initSensorReading:000000000000003e .L0 
/var/folders/rt/4gvqv631095f64jvm7jfj_000000gn/T//ccOoU9OL.s:171    .text.initPlant:0000000000000000 initPlant
/var/folders/rt/4gvqv631095f64jvm7jfj_000000gn/T//ccOoU9OL.s:174    .text.initPlant:0000000000000000 .L0 
/var/folders/rt/4gvqv631095f64jvm7jfj_000000gn/T//ccOoU9OL.s:176    .text.initPlant:0000000000000000 .L0 
/var/folders/rt/4gvqv631095f64jvm7jfj_000000gn/T//ccOoU9OL.s:177    .text.initPlant:0000000000000000 .L0 
/var/folders/rt/4gvqv631095f64jvm7jfj_000000gn/T//ccOoU9OL.s:178    .text.initPlant:0000000000000000 .L0 
/var/folders/rt/4gvqv631095f64jvm7jfj_000000gn/T//ccOoU9OL.s:179    .text.initPlant:0000000000000000 .L0 
/var/folders/rt/4gvqv631095f64jvm7jfj_000000gn/T//ccOoU9OL.s:181    .text.initPlant:0000000000000002 .L0 
/var/folders/rt/4gvqv631095f64jvm7jfj_000000gn/T//ccOoU9OL.s:184    .text.initPlant:0000000000000004 .L0 
/var/folders/rt/4gvqv631095f64jvm7jfj_000000gn/T//ccOoU9OL.s:187    .text.initPlant:0000000000000008 .L0 
/var/folders/rt/4gvqv631095f64jvm7jfj_000000gn/T//ccOoU9OL.s:189    .text.initPlant:000000000000000a .L0 
/var/folders/rt/4gvqv631095f64jvm7jfj_000000gn/T//ccOoU9OL.s:190    .text.initPlant:000000000000000e .L0 
/var/folders/rt/4gvqv631095f64jvm7jfj_000000gn/T//ccOoU9OL.s:192    .text.initPlant:000000000000000e .L0 
/var/folders/rt/4gvqv631095f64jvm7jfj_000000gn/T//ccOoU9OL.s:194    .text.initPlant:0000000000000010 .L0 
/var/folders/rt/4gvqv631095f64jvm7jfj_000000gn/T//ccOoU9OL.s:198    .text.initPlant:0000000000000016 .L0 
/var/folders/rt/4gvqv631095f64jvm7jfj_000000gn/T//ccOoU9OL.s:199    .text.initPlant:0000000000000018 .L0 
/var/folders/rt/4gvqv631095f64jvm7jfj_000000gn/T//ccOoU9OL.s:201    .text.initPlant:0000000000000018 .L0 
/var/folders/rt/4gvqv631095f64jvm7jfj_000000gn/T//ccOoU9OL.s:204    .text.initPlant:0000000000000020 .L0 
/var/folders/rt/4gvqv631095f64jvm7jfj_000000gn/T//ccOoU9OL.s:212    .text.initPlant:0000000000000036 .L0 
/var/folders/rt/4gvqv631095f64jvm7jfj_000000gn/T//ccOoU9OL.s:218    .text.initPlant:0000000000000048 .L0 
/var/folders/rt/4gvqv631095f64jvm7jfj_000000gn/T//ccOoU9OL.s:219    .text.initPlant:0000000000000048 .L0 
/var/folders/rt/4gvqv631095f64jvm7jfj_000000gn/T//ccOoU9OL.s:225    .text.initPlant:0000000000000056 .L0 
/var/folders/rt/4gvqv631095f64jvm7jfj_000000gn/T//ccOoU9OL.s:226    .text.initPlant:0000000000000056 .L0 
/var/folders/rt/4gvqv631095f64jvm7jfj_000000gn/T//ccOoU9OL.s:232    .text.initPlant:0000000000000064 .L0 
/var/folders/rt/4gvqv631095f64jvm7jfj_000000gn/T//ccOoU9OL.s:233    .text.initPlant:0000000000000064 .L0 
/var/folders/rt/4gvqv631095f64jvm7jfj_000000gn/T//ccOoU9OL.s:239    .text.initPlant:0000000000000074 .L0 
/var/folders/rt/4gvqv631095f64jvm7jfj_000000gn/T//ccOoU9OL.s:241    .text.initPlant:0000000000000078 .L0 
/var/folders/rt/4gvqv631095f64jvm7jfj_000000gn/T//ccOoU9OL.s:243    .text.initPlant:000000000000007a .L0 
/var/folders/rt/4gvqv631095f64jvm7jfj_000000gn/T//ccOoU9OL.s:247    .text.initPlant:000000000000007c .L0 
/var/folders/rt/4gvqv631095f64jvm7jfj_000000gn/T//ccOoU9OL.s:250    .text.initPlant:000000000000007e .L0 
/var/folders/rt/4gvqv631095f64jvm7jfj_000000gn/T//ccOoU9OL.s:257    .text.renderLCD:0000000000000000 renderLCD
/var/folders/rt/4gvqv631095f64jvm7jfj_000000gn/T//ccOoU9OL.s:260    .text.renderLCD:0000000000000000 .L0 
/var/folders/rt/4gvqv631095f64jvm7jfj_000000gn/T//ccOoU9OL.s:261    .text.renderLCD:0000000000000000 .L0 
/var/folders/rt/4gvqv631095f64jvm7jfj_000000gn/T//ccOoU9OL.s:262    .text.renderLCD:0000000000000000 .L0 
/var/folders/rt/4gvqv631095f64jvm7jfj_000000gn/T//ccOoU9OL.s:263    .text.renderLCD:0000000000000000 .L0 
/var/folders/rt/4gvqv631095f64jvm7jfj_000000gn/T//ccOoU9OL.s:265    .text.renderLCD:0000000000000002 .L0 
/var/folders/rt/4gvqv631095f64jvm7jfj_000000gn/T//ccOoU9OL.s:267    .text.renderLCD:0000000000000002 .L0 
/var/folders/rt/4gvqv631095f64jvm7jfj_000000gn/T//ccOoU9OL.s:269    .text.renderLCD:0000000000000006 .L0 
/var/folders/rt/4gvqv631095f64jvm7jfj_000000gn/T//ccOoU9OL.s:271    .text.renderLCD:0000000000000008 .L0 
/var/folders/rt/4gvqv631095f64jvm7jfj_000000gn/T//ccOoU9OL.s:272    .text.renderLCD:000000000000000a .L0 
/var/folders/rt/4gvqv631095f64jvm7jfj_000000gn/T//ccOoU9OL.s:274    .text.renderLCD:000000000000000a .L0 
/var/folders/rt/4gvqv631095f64jvm7jfj_000000gn/T//ccOoU9OL.s:276    .text.renderLCD:000000000000000c .L0 
/var/folders/rt/4gvqv631095f64jvm7jfj_000000gn/T//ccOoU9OL.s:281    .text.renderLCD:000000000000001a .L0 
/var/folders/rt/4gvqv631095f64jvm7jfj_000000gn/T//ccOoU9OL.s:283    .text.renderLCD:000000000000001e .L0 
/var/folders/rt/4gvqv631095f64jvm7jfj_000000gn/T//ccOoU9OL.s:284    .text.renderLCD:000000000000001e .L0 
/var/folders/rt/4gvqv631095f64jvm7jfj_000000gn/T//ccOoU9OL.s:286    .text.renderLCD:000000000000001e .L0 
/var/folders/rt/4gvqv631095f64jvm7jfj_000000gn/T//ccOoU9OL.s:289    .text.renderLCD:0000000000000026 .L0 
/var/folders/rt/4gvqv631095f64jvm7jfj_000000gn/T//ccOoU9OL.s:298    .text.renderLCD:000000000000003c .L0 
/var/folders/rt/4gvqv631095f64jvm7jfj_000000gn/T//ccOoU9OL.s:306    .text.renderLCD:0000000000000050 .L0 
/var/folders/rt/4gvqv631095f64jvm7jfj_000000gn/T//ccOoU9OL.s:314    .text.renderLCD:0000000000000066 .L0 
/var/folders/rt/4gvqv631095f64jvm7jfj_000000gn/T//ccOoU9OL.s:322    .text.renderLCD:000000000000007e .L0 
GAS LISTING /var/folders/rt/4gvqv631095f64jvm7jfj_000000gn/T//ccOoU9OL.s 			page 16


/var/folders/rt/4gvqv631095f64jvm7jfj_000000gn/T//ccOoU9OL.s:323    .text.renderLCD:0000000000000080 .L0 
/var/folders/rt/4gvqv631095f64jvm7jfj_000000gn/T//ccOoU9OL.s:325    .text.renderLCD:0000000000000082 .L0 
/var/folders/rt/4gvqv631095f64jvm7jfj_000000gn/T//ccOoU9OL.s:327    .text.renderLCD:0000000000000084 .L0 
/var/folders/rt/4gvqv631095f64jvm7jfj_000000gn/T//ccOoU9OL.s:330    .text.renderLCD:0000000000000086 .L0 
/var/folders/rt/4gvqv631095f64jvm7jfj_000000gn/T//ccOoU9OL.s:332    .text.renderLCD:0000000000000088 .L0 
/var/folders/rt/4gvqv631095f64jvm7jfj_000000gn/T//ccOoU9OL.s:339    .text.startup.main:0000000000000000 main
/var/folders/rt/4gvqv631095f64jvm7jfj_000000gn/T//ccOoU9OL.s:342    .text.startup.main:0000000000000000 .L0 
/var/folders/rt/4gvqv631095f64jvm7jfj_000000gn/T//ccOoU9OL.s:343    .text.startup.main:0000000000000000 .L0 
/var/folders/rt/4gvqv631095f64jvm7jfj_000000gn/T//ccOoU9OL.s:345    .text.startup.main:0000000000000000 .L0 
/var/folders/rt/4gvqv631095f64jvm7jfj_000000gn/T//ccOoU9OL.s:346    .text.startup.main:0000000000000000 .L0 
/var/folders/rt/4gvqv631095f64jvm7jfj_000000gn/T//ccOoU9OL.s:347    .text.startup.main:0000000000000000 .L0 
/var/folders/rt/4gvqv631095f64jvm7jfj_000000gn/T//ccOoU9OL.s:348    .text.startup.main:0000000000000000 .L0 
/var/folders/rt/4gvqv631095f64jvm7jfj_000000gn/T//ccOoU9OL.s:349    .text.startup.main:0000000000000000 .L0 
/var/folders/rt/4gvqv631095f64jvm7jfj_000000gn/T//ccOoU9OL.s:350    .text.startup.main:0000000000000000 .L0 
/var/folders/rt/4gvqv631095f64jvm7jfj_000000gn/T//ccOoU9OL.s:352    .text.startup.main:0000000000000002 .L0 
/var/folders/rt/4gvqv631095f64jvm7jfj_000000gn/T//ccOoU9OL.s:354    .text.startup.main:0000000000000002 .L0 
/var/folders/rt/4gvqv631095f64jvm7jfj_000000gn/T//ccOoU9OL.s:358    .text.startup.main:000000000000000c .L0 
/var/folders/rt/4gvqv631095f64jvm7jfj_000000gn/T//ccOoU9OL.s:362    .text.startup.main:000000000000001c .L0 
/var/folders/rt/4gvqv631095f64jvm7jfj_000000gn/T//ccOoU9OL.s:363    .text.startup.main:000000000000001c .L0 
/var/folders/rt/4gvqv631095f64jvm7jfj_000000gn/T//ccOoU9OL.s:364    .text.startup.main:000000000000001c .L0 
/var/folders/rt/4gvqv631095f64jvm7jfj_000000gn/T//ccOoU9OL.s:365    .text.startup.main:000000000000001c .L0 
/var/folders/rt/4gvqv631095f64jvm7jfj_000000gn/T//ccOoU9OL.s:367    .text.startup.main:000000000000001c .L0 
/var/folders/rt/4gvqv631095f64jvm7jfj_000000gn/T//ccOoU9OL.s:370    .text.startup.main:0000000000000024 .L0 
/var/folders/rt/4gvqv631095f64jvm7jfj_000000gn/T//ccOoU9OL.s:371    .text.startup.main:0000000000000024 .L0 
/var/folders/rt/4gvqv631095f64jvm7jfj_000000gn/T//ccOoU9OL.s:377    .text.startup.main:0000000000000036 .L0 
/var/folders/rt/4gvqv631095f64jvm7jfj_000000gn/T//ccOoU9OL.s:380    .text.startup.main:000000000000003e .L0 
/var/folders/rt/4gvqv631095f64jvm7jfj_000000gn/T//ccOoU9OL.s:383    .text.startup.main:0000000000000046 .L0 
/var/folders/rt/4gvqv631095f64jvm7jfj_000000gn/T//ccOoU9OL.s:386    .text.startup.main:000000000000004e .L0 
/var/folders/rt/4gvqv631095f64jvm7jfj_000000gn/T//ccOoU9OL.s:389    .text.startup.main:0000000000000056 .L0 
/var/folders/rt/4gvqv631095f64jvm7jfj_000000gn/T//ccOoU9OL.s:393    .text.startup.main:0000000000000060 .L0 
/var/folders/rt/4gvqv631095f64jvm7jfj_000000gn/T//ccOoU9OL.s:396    .text.startup.main:0000000000000068 .L0 
/var/folders/rt/4gvqv631095f64jvm7jfj_000000gn/T//ccOoU9OL.s:400    .text.startup.main:0000000000000072 .L0 
/var/folders/rt/4gvqv631095f64jvm7jfj_000000gn/T//ccOoU9OL.s:415    .text.startup.main:000000000000009e .L0 
/var/folders/rt/4gvqv631095f64jvm7jfj_000000gn/T//ccOoU9OL.s:417    .text.startup.main:00000000000000a0 .L0 
/var/folders/rt/4gvqv631095f64jvm7jfj_000000gn/T//ccOoU9OL.s:421    .text.startup.main:00000000000000a4 .L0 
/var/folders/rt/4gvqv631095f64jvm7jfj_000000gn/T//ccOoU9OL.s:425    .text.startup.main:00000000000000a6 .L0 
/var/folders/rt/4gvqv631095f64jvm7jfj_000000gn/T//ccOoU9OL.s:426    .text.startup.main:00000000000000a6 .L0 
/var/folders/rt/4gvqv631095f64jvm7jfj_000000gn/T//ccOoU9OL.s:427    .text.startup.main:00000000000000a6 .L0 
/var/folders/rt/4gvqv631095f64jvm7jfj_000000gn/T//ccOoU9OL.s:430    .text.startup.main:00000000000000a8 .L0 
/var/folders/rt/4gvqv631095f64jvm7jfj_000000gn/T//ccOoU9OL.s:431    .text.startup.main:00000000000000a8 .L0 
/var/folders/rt/4gvqv631095f64jvm7jfj_000000gn/T//ccOoU9OL.s:434    .text.startup.main:00000000000000b0 .L0 
/var/folders/rt/4gvqv631095f64jvm7jfj_000000gn/T//ccOoU9OL.s:436    .text.startup.main:00000000000000b2 .L0 
/var/folders/rt/4gvqv631095f64jvm7jfj_000000gn/T//ccOoU9OL.s:439    .text.startup.main:00000000000000ba .L0 
/var/folders/rt/4gvqv631095f64jvm7jfj_000000gn/T//ccOoU9OL.s:442    .text.startup.main:00000000000000bc .L0 
/var/folders/rt/4gvqv631095f64jvm7jfj_000000gn/T//ccOoU9OL.s:445    .text.startup.main:00000000000000c4 .L0 
/var/folders/rt/4gvqv631095f64jvm7jfj_000000gn/T//ccOoU9OL.s:446    .text.startup.main:00000000000000c4 .L0 
/var/folders/rt/4gvqv631095f64jvm7jfj_000000gn/T//ccOoU9OL.s:447    .text.startup.main:00000000000000c4 .L0 
/var/folders/rt/4gvqv631095f64jvm7jfj_000000gn/T//ccOoU9OL.s:449    .text.startup.main:00000000000000c8 .L0 
/var/folders/rt/4gvqv631095f64jvm7jfj_000000gn/T//ccOoU9OL.s:453    .text.startup.main:00000000000000ca .L0 
/var/folders/rt/4gvqv631095f64jvm7jfj_000000gn/T//ccOoU9OL.s:458    .text.startup.main:00000000000000d8 .L0 
/var/folders/rt/4gvqv631095f64jvm7jfj_000000gn/T//ccOoU9OL.s:463    .text.startup.main:00000000000000e4 .L0 
/var/folders/rt/4gvqv631095f64jvm7jfj_000000gn/T//ccOoU9OL.s:464    .text.startup.main:00000000000000e6 .L0 
/var/folders/rt/4gvqv631095f64jvm7jfj_000000gn/T//ccOoU9OL.s:99     .text.rtcInit:0000000000000094 .L0 
/var/folders/rt/4gvqv631095f64jvm7jfj_000000gn/T//ccOoU9OL.s:167    .text.initSensorReading:000000000000003e .L0 
/var/folders/rt/4gvqv631095f64jvm7jfj_000000gn/T//ccOoU9OL.s:253    .text.initPlant:000000000000007e .L0 
/var/folders/rt/4gvqv631095f64jvm7jfj_000000gn/T//ccOoU9OL.s:335    .text.renderLCD:0000000000000088 .L0 
/var/folders/rt/4gvqv631095f64jvm7jfj_000000gn/T//ccOoU9OL.s:467    .text.startup.main:00000000000000e6 .L0 
GAS LISTING /var/folders/rt/4gvqv631095f64jvm7jfj_000000gn/T//ccOoU9OL.s 			page 17


                     .debug_frame:0000000000000000 .L0 
/var/folders/rt/4gvqv631095f64jvm7jfj_000000gn/T//ccOoU9OL.s:86     .text.rtcInit:000000000000008e .L1
/var/folders/rt/4gvqv631095f64jvm7jfj_000000gn/T//ccOoU9OL.s:476    .rodata.initSensorReading.str1.4:0000000000000000 .LC1
/var/folders/rt/4gvqv631095f64jvm7jfj_000000gn/T//ccOoU9OL.s:469    .rodata.initPlant.str1.4:0000000000000000 .LC2
/var/folders/rt/4gvqv631095f64jvm7jfj_000000gn/T//ccOoU9OL.s:472    .rodata.initPlant.str1.4:0000000000000010 .LC3
/var/folders/rt/4gvqv631095f64jvm7jfj_000000gn/T//ccOoU9OL.s:487    .rodata.renderLCD.str1.4:0000000000000000 .LC4
/var/folders/rt/4gvqv631095f64jvm7jfj_000000gn/T//ccOoU9OL.s:480    .rodata.main.str1.4:0000000000000000 .LC5
/var/folders/rt/4gvqv631095f64jvm7jfj_000000gn/T//ccOoU9OL.s:483    .rodata.main.str1.4:0000000000000008 .LC6
/var/folders/rt/4gvqv631095f64jvm7jfj_000000gn/T//ccOoU9OL.s:423    .text.startup.main:00000000000000a6 .L11
/var/folders/rt/4gvqv631095f64jvm7jfj_000000gn/T//ccOoU9OL.s:451    .text.startup.main:00000000000000ca .L12
/var/folders/rt/4gvqv631095f64jvm7jfj_000000gn/T//ccOoU9OL.s:419    .text.startup.main:00000000000000a4 .L13
/var/folders/rt/4gvqv631095f64jvm7jfj_000000gn/T//ccOoU9OL.s:3271   .debug_abbrev:0000000000000000 .Ldebug_abbrev0
/var/folders/rt/4gvqv631095f64jvm7jfj_000000gn/T//ccOoU9OL.s:4660   .debug_str:000000000000071e .LASF224
/var/folders/rt/4gvqv631095f64jvm7jfj_000000gn/T//ccOoU9OL.s:4484   .debug_str:00000000000003b7 .LASF225
/var/folders/rt/4gvqv631095f64jvm7jfj_000000gn/T//ccOoU9OL.s:4664   .debug_str:00000000000007af .LASF226
/var/folders/rt/4gvqv631095f64jvm7jfj_000000gn/T//ccOoU9OL.s:4274   .debug_ranges:0000000000000000 .Ldebug_ranges0
/var/folders/rt/4gvqv631095f64jvm7jfj_000000gn/T//ccOoU9OL.s:4288   .debug_line:0000000000000000 .Ldebug_line0
/var/folders/rt/4gvqv631095f64jvm7jfj_000000gn/T//ccOoU9OL.s:4638   .debug_str:00000000000006b1 .LASF0
/var/folders/rt/4gvqv631095f64jvm7jfj_000000gn/T//ccOoU9OL.s:4360   .debug_str:0000000000000168 .LASF1
/var/folders/rt/4gvqv631095f64jvm7jfj_000000gn/T//ccOoU9OL.s:4562   .debug_str:0000000000000556 .LASF2
/var/folders/rt/4gvqv631095f64jvm7jfj_000000gn/T//ccOoU9OL.s:4644   .debug_str:00000000000006d2 .LASF3
/var/folders/rt/4gvqv631095f64jvm7jfj_000000gn/T//ccOoU9OL.s:4668   .debug_str:00000000000007fe .LASF4
/var/folders/rt/4gvqv631095f64jvm7jfj_000000gn/T//ccOoU9OL.s:4318   .debug_str:0000000000000082 .LASF5
/var/folders/rt/4gvqv631095f64jvm7jfj_000000gn/T//ccOoU9OL.s:4418   .debug_str:000000000000027f .LASF9
/var/folders/rt/4gvqv631095f64jvm7jfj_000000gn/T//ccOoU9OL.s:4448   .debug_str:000000000000031a .LASF6
/var/folders/rt/4gvqv631095f64jvm7jfj_000000gn/T//ccOoU9OL.s:4394   .debug_str:0000000000000204 .LASF7
/var/folders/rt/4gvqv631095f64jvm7jfj_000000gn/T//ccOoU9OL.s:4328   .debug_str:00000000000000c2 .LASF8
/var/folders/rt/4gvqv631095f64jvm7jfj_000000gn/T//ccOoU9OL.s:4688   .debug_str:0000000000000877 .LASF10
/var/folders/rt/4gvqv631095f64jvm7jfj_000000gn/T//ccOoU9OL.s:4438   .debug_str:00000000000002d7 .LASF164
/var/folders/rt/4gvqv631095f64jvm7jfj_000000gn/T//ccOoU9OL.s:4298   .debug_str:0000000000000027 .LASF11
/var/folders/rt/4gvqv631095f64jvm7jfj_000000gn/T//ccOoU9OL.s:4362   .debug_str:0000000000000174 .LASF12
/var/folders/rt/4gvqv631095f64jvm7jfj_000000gn/T//ccOoU9OL.s:4356   .debug_str:0000000000000159 .LASF13
/var/folders/rt/4gvqv631095f64jvm7jfj_000000gn/T//ccOoU9OL.s:4642   .debug_str:00000000000006c9 .LASF14
/var/folders/rt/4gvqv631095f64jvm7jfj_000000gn/T//ccOoU9OL.s:4392   .debug_str:00000000000001fa .LASF15
/var/folders/rt/4gvqv631095f64jvm7jfj_000000gn/T//ccOoU9OL.s:4546   .debug_str:0000000000000506 .LASF16
/var/folders/rt/4gvqv631095f64jvm7jfj_000000gn/T//ccOoU9OL.s:4548   .debug_str:0000000000000511 .LASF17
/var/folders/rt/4gvqv631095f64jvm7jfj_000000gn/T//ccOoU9OL.s:4550   .debug_str:000000000000051c .LASF18
/var/folders/rt/4gvqv631095f64jvm7jfj_000000gn/T//ccOoU9OL.s:4552   .debug_str:0000000000000527 .LASF19
/var/folders/rt/4gvqv631095f64jvm7jfj_000000gn/T//ccOoU9OL.s:4554   .debug_str:0000000000000532 .LASF20
/var/folders/rt/4gvqv631095f64jvm7jfj_000000gn/T//ccOoU9OL.s:4556   .debug_str:000000000000053d .LASF21
/var/folders/rt/4gvqv631095f64jvm7jfj_000000gn/T//ccOoU9OL.s:4658   .debug_str:0000000000000714 .LASF22
/var/folders/rt/4gvqv631095f64jvm7jfj_000000gn/T//ccOoU9OL.s:4294   .debug_str:0000000000000015 .LASF23
/var/folders/rt/4gvqv631095f64jvm7jfj_000000gn/T//ccOoU9OL.s:4296   .debug_str:000000000000001e .LASF24
/var/folders/rt/4gvqv631095f64jvm7jfj_000000gn/T//ccOoU9OL.s:4522   .debug_str:0000000000000479 .LASF25
/var/folders/rt/4gvqv631095f64jvm7jfj_000000gn/T//ccOoU9OL.s:4524   .debug_str:0000000000000484 .LASF26
/var/folders/rt/4gvqv631095f64jvm7jfj_000000gn/T//ccOoU9OL.s:4330   .debug_str:00000000000000d9 .LASF27
/var/folders/rt/4gvqv631095f64jvm7jfj_000000gn/T//ccOoU9OL.s:4332   .debug_str:00000000000000e3 .LASF28
/var/folders/rt/4gvqv631095f64jvm7jfj_000000gn/T//ccOoU9OL.s:4708   .debug_str:00000000000008d9 .LASF29
/var/folders/rt/4gvqv631095f64jvm7jfj_000000gn/T//ccOoU9OL.s:4620   .debug_str:0000000000000665 .LASF30
/var/folders/rt/4gvqv631095f64jvm7jfj_000000gn/T//ccOoU9OL.s:4408   .debug_str:0000000000000257 .LASF31
/var/folders/rt/4gvqv631095f64jvm7jfj_000000gn/T//ccOoU9OL.s:4352   .debug_str:0000000000000149 .LASF32
/var/folders/rt/4gvqv631095f64jvm7jfj_000000gn/T//ccOoU9OL.s:4626   .debug_str:0000000000000681 .LASF33
/var/folders/rt/4gvqv631095f64jvm7jfj_000000gn/T//ccOoU9OL.s:4680   .debug_str:0000000000000844 .LASF34
/var/folders/rt/4gvqv631095f64jvm7jfj_000000gn/T//ccOoU9OL.s:4470   .debug_str:000000000000037b .LASF35
/var/folders/rt/4gvqv631095f64jvm7jfj_000000gn/T//ccOoU9OL.s:4458   .debug_str:000000000000034b .LASF36
/var/folders/rt/4gvqv631095f64jvm7jfj_000000gn/T//ccOoU9OL.s:4308   .debug_str:0000000000000056 .LASF37
/var/folders/rt/4gvqv631095f64jvm7jfj_000000gn/T//ccOoU9OL.s:4336   .debug_str:00000000000000f5 .LASF38
GAS LISTING /var/folders/rt/4gvqv631095f64jvm7jfj_000000gn/T//ccOoU9OL.s 			page 18


/var/folders/rt/4gvqv631095f64jvm7jfj_000000gn/T//ccOoU9OL.s:4440   .debug_str:00000000000002e7 .LASF39
/var/folders/rt/4gvqv631095f64jvm7jfj_000000gn/T//ccOoU9OL.s:4442   .debug_str:00000000000002f1 .LASF40
/var/folders/rt/4gvqv631095f64jvm7jfj_000000gn/T//ccOoU9OL.s:4342   .debug_str:000000000000010f .LASF41
/var/folders/rt/4gvqv631095f64jvm7jfj_000000gn/T//ccOoU9OL.s:4344   .debug_str:0000000000000119 .LASF42
/var/folders/rt/4gvqv631095f64jvm7jfj_000000gn/T//ccOoU9OL.s:4454   .debug_str:0000000000000339 .LASF43
/var/folders/rt/4gvqv631095f64jvm7jfj_000000gn/T//ccOoU9OL.s:4456   .debug_str:0000000000000342 .LASF44
/var/folders/rt/4gvqv631095f64jvm7jfj_000000gn/T//ccOoU9OL.s:4544   .debug_str:00000000000004fb .LASF45
/var/folders/rt/4gvqv631095f64jvm7jfj_000000gn/T//ccOoU9OL.s:4292   .debug_str:000000000000000c .LASF46
/var/folders/rt/4gvqv631095f64jvm7jfj_000000gn/T//ccOoU9OL.s:4520   .debug_str:000000000000046e .LASF47
/var/folders/rt/4gvqv631095f64jvm7jfj_000000gn/T//ccOoU9OL.s:4414   .debug_str:0000000000000270 .LASF48
/var/folders/rt/4gvqv631095f64jvm7jfj_000000gn/T//ccOoU9OL.s:4646   .debug_str:00000000000006dc .LASF49
/var/folders/rt/4gvqv631095f64jvm7jfj_000000gn/T//ccOoU9OL.s:4496   .debug_str:00000000000003e7 .LASF50
/var/folders/rt/4gvqv631095f64jvm7jfj_000000gn/T//ccOoU9OL.s:4640   .debug_str:00000000000006be .LASF51
/var/folders/rt/4gvqv631095f64jvm7jfj_000000gn/T//ccOoU9OL.s:4382   .debug_str:00000000000001ca .LASF52
/var/folders/rt/4gvqv631095f64jvm7jfj_000000gn/T//ccOoU9OL.s:4726   .debug_str:000000000000092d .LASF53
/var/folders/rt/4gvqv631095f64jvm7jfj_000000gn/T//ccOoU9OL.s:4678   .debug_str:0000000000000838 .LASF54
/var/folders/rt/4gvqv631095f64jvm7jfj_000000gn/T//ccOoU9OL.s:4628   .debug_str:000000000000068a .LASF55
/var/folders/rt/4gvqv631095f64jvm7jfj_000000gn/T//ccOoU9OL.s:4536   .debug_str:00000000000004c8 .LASF56
/var/folders/rt/4gvqv631095f64jvm7jfj_000000gn/T//ccOoU9OL.s:4316   .debug_str:000000000000007b .LASF57
/var/folders/rt/4gvqv631095f64jvm7jfj_000000gn/T//ccOoU9OL.s:4512   .debug_str:0000000000000435 .LASF58
/var/folders/rt/4gvqv631095f64jvm7jfj_000000gn/T//ccOoU9OL.s:4696   .debug_str:0000000000000898 .LASF59
/var/folders/rt/4gvqv631095f64jvm7jfj_000000gn/T//ccOoU9OL.s:4480   .debug_str:00000000000003aa .LASF60
/var/folders/rt/4gvqv631095f64jvm7jfj_000000gn/T//ccOoU9OL.s:4436   .debug_str:00000000000002d0 .LASF61
/var/folders/rt/4gvqv631095f64jvm7jfj_000000gn/T//ccOoU9OL.s:4614   .debug_str:000000000000064f .LASF62
/var/folders/rt/4gvqv631095f64jvm7jfj_000000gn/T//ccOoU9OL.s:4616   .debug_str:0000000000000657 .LASF63
/var/folders/rt/4gvqv631095f64jvm7jfj_000000gn/T//ccOoU9OL.s:4580   .debug_str:00000000000005a3 .LASF64
/var/folders/rt/4gvqv631095f64jvm7jfj_000000gn/T//ccOoU9OL.s:4676   .debug_str:0000000000000830 .LASF65
/var/folders/rt/4gvqv631095f64jvm7jfj_000000gn/T//ccOoU9OL.s:4506   .debug_str:0000000000000413 .LASF66
/var/folders/rt/4gvqv631095f64jvm7jfj_000000gn/T//ccOoU9OL.s:4568   .debug_str:0000000000000573 .LASF67
/var/folders/rt/4gvqv631095f64jvm7jfj_000000gn/T//ccOoU9OL.s:4428   .debug_str:00000000000002b3 .LASF72
/var/folders/rt/4gvqv631095f64jvm7jfj_000000gn/T//ccOoU9OL.s:4654   .debug_str:0000000000000701 .LASF68
/var/folders/rt/4gvqv631095f64jvm7jfj_000000gn/T//ccOoU9OL.s:4604   .debug_str:000000000000062a .LASF69
/var/folders/rt/4gvqv631095f64jvm7jfj_000000gn/T//ccOoU9OL.s:4420   .debug_str:000000000000028a .LASF70
/var/folders/rt/4gvqv631095f64jvm7jfj_000000gn/T//ccOoU9OL.s:4692   .debug_str:000000000000088d .LASF71
/var/folders/rt/4gvqv631095f64jvm7jfj_000000gn/T//ccOoU9OL.s:4434   .debug_str:00000000000002cb .LASF73
/var/folders/rt/4gvqv631095f64jvm7jfj_000000gn/T//ccOoU9OL.s:4350   .debug_str:0000000000000140 .LASF74
/var/folders/rt/4gvqv631095f64jvm7jfj_000000gn/T//ccOoU9OL.s:4722   .debug_str:000000000000091f .LASF75
/var/folders/rt/4gvqv631095f64jvm7jfj_000000gn/T//ccOoU9OL.s:4368   .debug_str:000000000000018b .LASF76
/var/folders/rt/4gvqv631095f64jvm7jfj_000000gn/T//ccOoU9OL.s:4744   .debug_str:0000000000000978 .LASF77
/var/folders/rt/4gvqv631095f64jvm7jfj_000000gn/T//ccOoU9OL.s:4510   .debug_str:000000000000042c .LASF78
/var/folders/rt/4gvqv631095f64jvm7jfj_000000gn/T//ccOoU9OL.s:4500   .debug_str:00000000000003f8 .LASF79
/var/folders/rt/4gvqv631095f64jvm7jfj_000000gn/T//ccOoU9OL.s:4622   .debug_str:000000000000066e .LASF80
/var/folders/rt/4gvqv631095f64jvm7jfj_000000gn/T//ccOoU9OL.s:4570   .debug_str:000000000000057c .LASF81
/var/folders/rt/4gvqv631095f64jvm7jfj_000000gn/T//ccOoU9OL.s:4716   .debug_str:00000000000008f6 .LASF82
/var/folders/rt/4gvqv631095f64jvm7jfj_000000gn/T//ccOoU9OL.s:4372   .debug_str:000000000000019a .LASF83
/var/folders/rt/4gvqv631095f64jvm7jfj_000000gn/T//ccOoU9OL.s:4300   .debug_str:0000000000000030 .LASF84
/var/folders/rt/4gvqv631095f64jvm7jfj_000000gn/T//ccOoU9OL.s:4290   .debug_str:0000000000000000 .LASF85
/var/folders/rt/4gvqv631095f64jvm7jfj_000000gn/T//ccOoU9OL.s:4662   .debug_str:00000000000007a6 .LASF86
/var/folders/rt/4gvqv631095f64jvm7jfj_000000gn/T//ccOoU9OL.s:4652   .debug_str:00000000000006f9 .LASF87
/var/folders/rt/4gvqv631095f64jvm7jfj_000000gn/T//ccOoU9OL.s:4526   .debug_str:000000000000048f .LASF88
/var/folders/rt/4gvqv631095f64jvm7jfj_000000gn/T//ccOoU9OL.s:4594   .debug_str:00000000000005f0 .LASF89
/var/folders/rt/4gvqv631095f64jvm7jfj_000000gn/T//ccOoU9OL.s:4416   .debug_str:000000000000027a .LASF90
/var/folders/rt/4gvqv631095f64jvm7jfj_000000gn/T//ccOoU9OL.s:4572   .debug_str:0000000000000586 .LASF91
/var/folders/rt/4gvqv631095f64jvm7jfj_000000gn/T//ccOoU9OL.s:4560   .debug_str:0000000000000550 .LASF92
/var/folders/rt/4gvqv631095f64jvm7jfj_000000gn/T//ccOoU9OL.s:4636   .debug_str:00000000000006ab .LASF93
/var/folders/rt/4gvqv631095f64jvm7jfj_000000gn/T//ccOoU9OL.s:4582   .debug_str:00000000000005ae .LASF94
/var/folders/rt/4gvqv631095f64jvm7jfj_000000gn/T//ccOoU9OL.s:4384   .debug_str:00000000000001d5 .LASF95
GAS LISTING /var/folders/rt/4gvqv631095f64jvm7jfj_000000gn/T//ccOoU9OL.s 			page 19


/var/folders/rt/4gvqv631095f64jvm7jfj_000000gn/T//ccOoU9OL.s:4450   .debug_str:000000000000032c .LASF96
/var/folders/rt/4gvqv631095f64jvm7jfj_000000gn/T//ccOoU9OL.s:4742   .debug_str:000000000000096f .LASF97
/var/folders/rt/4gvqv631095f64jvm7jfj_000000gn/T//ccOoU9OL.s:4376   .debug_str:00000000000001b0 .LASF98
/var/folders/rt/4gvqv631095f64jvm7jfj_000000gn/T//ccOoU9OL.s:4430   .debug_str:00000000000002bb .LASF99
/var/folders/rt/4gvqv631095f64jvm7jfj_000000gn/T//ccOoU9OL.s:4498   .debug_str:00000000000003f1 .LASF100
/var/folders/rt/4gvqv631095f64jvm7jfj_000000gn/T//ccOoU9OL.s:4618   .debug_str:000000000000065f .LASF101
/var/folders/rt/4gvqv631095f64jvm7jfj_000000gn/T//ccOoU9OL.s:4358   .debug_str:0000000000000161 .LASF102
/var/folders/rt/4gvqv631095f64jvm7jfj_000000gn/T//ccOoU9OL.s:4364   .debug_str:000000000000017d .LASF103
/var/folders/rt/4gvqv631095f64jvm7jfj_000000gn/T//ccOoU9OL.s:4710   .debug_str:00000000000008e2 .LASF104
/var/folders/rt/4gvqv631095f64jvm7jfj_000000gn/T//ccOoU9OL.s:4634   .debug_str:00000000000006a2 .LASF105
/var/folders/rt/4gvqv631095f64jvm7jfj_000000gn/T//ccOoU9OL.s:4400   .debug_str:0000000000000222 .LASF106
/var/folders/rt/4gvqv631095f64jvm7jfj_000000gn/T//ccOoU9OL.s:4460   .debug_str:0000000000000353 .LASF107
/var/folders/rt/4gvqv631095f64jvm7jfj_000000gn/T//ccOoU9OL.s:4492   .debug_str:00000000000003db .LASF108
/var/folders/rt/4gvqv631095f64jvm7jfj_000000gn/T//ccOoU9OL.s:4584   .debug_str:00000000000005b6 .LASF109
/var/folders/rt/4gvqv631095f64jvm7jfj_000000gn/T//ccOoU9OL.s:4574   .debug_str:000000000000058d .LASF110
/var/folders/rt/4gvqv631095f64jvm7jfj_000000gn/T//ccOoU9OL.s:4606   .debug_str:0000000000000632 .LASF111
/var/folders/rt/4gvqv631095f64jvm7jfj_000000gn/T//ccOoU9OL.s:4630   .debug_str:0000000000000696 .LASF112
/var/folders/rt/4gvqv631095f64jvm7jfj_000000gn/T//ccOoU9OL.s:4388   .debug_str:00000000000001ed .LASF113
/var/folders/rt/4gvqv631095f64jvm7jfj_000000gn/T//ccOoU9OL.s:4396   .debug_str:0000000000000212 .LASF114
/var/folders/rt/4gvqv631095f64jvm7jfj_000000gn/T//ccOoU9OL.s:4426   .debug_str:00000000000002ab .LASF115
/var/folders/rt/4gvqv631095f64jvm7jfj_000000gn/T//ccOoU9OL.s:4592   .debug_str:00000000000005eb .LASF116
/var/folders/rt/4gvqv631095f64jvm7jfj_000000gn/T//ccOoU9OL.s:4306   .debug_str:000000000000004b .LASF117
/var/folders/rt/4gvqv631095f64jvm7jfj_000000gn/T//ccOoU9OL.s:4602   .debug_str:0000000000000611 .LASF118
/var/folders/rt/4gvqv631095f64jvm7jfj_000000gn/T//ccOoU9OL.s:4598   .debug_str:00000000000005ff .LASF119
/var/folders/rt/4gvqv631095f64jvm7jfj_000000gn/T//ccOoU9OL.s:4532   .debug_str:00000000000004ae .LASF120
/var/folders/rt/4gvqv631095f64jvm7jfj_000000gn/T//ccOoU9OL.s:4600   .debug_str:0000000000000607 .LASF121
/var/folders/rt/4gvqv631095f64jvm7jfj_000000gn/T//ccOoU9OL.s:4502   .debug_str:0000000000000402 .LASF122
/var/folders/rt/4gvqv631095f64jvm7jfj_000000gn/T//ccOoU9OL.s:4432   .debug_str:00000000000002c1 .LASF123
/var/folders/rt/4gvqv631095f64jvm7jfj_000000gn/T//ccOoU9OL.s:4734   .debug_str:000000000000095a .LASF124
/var/folders/rt/4gvqv631095f64jvm7jfj_000000gn/T//ccOoU9OL.s:4542   .debug_str:00000000000004f1 .LASF125
/var/folders/rt/4gvqv631095f64jvm7jfj_000000gn/T//ccOoU9OL.s:4446   .debug_str:0000000000000312 .LASF126
/var/folders/rt/4gvqv631095f64jvm7jfj_000000gn/T//ccOoU9OL.s:4398   .debug_str:000000000000021a .LASF127
/var/folders/rt/4gvqv631095f64jvm7jfj_000000gn/T//ccOoU9OL.s:4486   .debug_str:00000000000003be .LASF128
/var/folders/rt/4gvqv631095f64jvm7jfj_000000gn/T//ccOoU9OL.s:4314   .debug_str:0000000000000072 .LASF129
/var/folders/rt/4gvqv631095f64jvm7jfj_000000gn/T//ccOoU9OL.s:4700   .debug_str:00000000000008ab .LASF130
/var/folders/rt/4gvqv631095f64jvm7jfj_000000gn/T//ccOoU9OL.s:4378   .debug_str:00000000000001b8 .LASF131
/var/folders/rt/4gvqv631095f64jvm7jfj_000000gn/T//ccOoU9OL.s:4370   .debug_str:0000000000000195 .LASF132
/var/folders/rt/4gvqv631095f64jvm7jfj_000000gn/T//ccOoU9OL.s:4632   .debug_str:000000000000069d .LASF133
/var/folders/rt/4gvqv631095f64jvm7jfj_000000gn/T//ccOoU9OL.s:4578   .debug_str:000000000000059c .LASF134
/var/folders/rt/4gvqv631095f64jvm7jfj_000000gn/T//ccOoU9OL.s:4694   .debug_str:0000000000000892 .LASF135
/var/folders/rt/4gvqv631095f64jvm7jfj_000000gn/T//ccOoU9OL.s:4462   .debug_str:0000000000000359 .LASF136
/var/folders/rt/4gvqv631095f64jvm7jfj_000000gn/T//ccOoU9OL.s:4564   .debug_str:0000000000000564 .LASF137
/var/folders/rt/4gvqv631095f64jvm7jfj_000000gn/T//ccOoU9OL.s:4304   .debug_str:0000000000000043 .LASF138
/var/folders/rt/4gvqv631095f64jvm7jfj_000000gn/T//ccOoU9OL.s:4608   .debug_str:0000000000000639 .LASF139
/var/folders/rt/4gvqv631095f64jvm7jfj_000000gn/T//ccOoU9OL.s:4494   .debug_str:00000000000003e1 .LASF140
/var/folders/rt/4gvqv631095f64jvm7jfj_000000gn/T//ccOoU9OL.s:4672   .debug_str:0000000000000824 .LASF141
/var/folders/rt/4gvqv631095f64jvm7jfj_000000gn/T//ccOoU9OL.s:4690   .debug_str:0000000000000880 .LASF142
/var/folders/rt/4gvqv631095f64jvm7jfj_000000gn/T//ccOoU9OL.s:4656   .debug_str:0000000000000707 .LASF143
/var/folders/rt/4gvqv631095f64jvm7jfj_000000gn/T//ccOoU9OL.s:4474   .debug_str:000000000000038f .LASF144
/var/folders/rt/4gvqv631095f64jvm7jfj_000000gn/T//ccOoU9OL.s:4718   .debug_str:0000000000000901 .LASF145
/var/folders/rt/4gvqv631095f64jvm7jfj_000000gn/T//ccOoU9OL.s:4534   .debug_str:00000000000004b9 .LASF146
/var/folders/rt/4gvqv631095f64jvm7jfj_000000gn/T//ccOoU9OL.s:4468   .debug_str:0000000000000370 .LASF147
/var/folders/rt/4gvqv631095f64jvm7jfj_000000gn/T//ccOoU9OL.s:4724   .debug_str:0000000000000928 .LASF148
/var/folders/rt/4gvqv631095f64jvm7jfj_000000gn/T//ccOoU9OL.s:4530   .debug_str:00000000000004a1 .LASF149
/var/folders/rt/4gvqv631095f64jvm7jfj_000000gn/T//ccOoU9OL.s:4732   .debug_str:000000000000094c .LASF150
/var/folders/rt/4gvqv631095f64jvm7jfj_000000gn/T//ccOoU9OL.s:4348   .debug_str:0000000000000132 .LASF151
/var/folders/rt/4gvqv631095f64jvm7jfj_000000gn/T//ccOoU9OL.s:4698   .debug_str:00000000000008a1 .LASF152
GAS LISTING /var/folders/rt/4gvqv631095f64jvm7jfj_000000gn/T//ccOoU9OL.s 			page 20


/var/folders/rt/4gvqv631095f64jvm7jfj_000000gn/T//ccOoU9OL.s:4472   .debug_str:0000000000000383 .LASF153
/var/folders/rt/4gvqv631095f64jvm7jfj_000000gn/T//ccOoU9OL.s:4312   .debug_str:0000000000000065 .LASF154
/var/folders/rt/4gvqv631095f64jvm7jfj_000000gn/T//ccOoU9OL.s:4406   .debug_str:0000000000000249 .LASF155
/var/folders/rt/4gvqv631095f64jvm7jfj_000000gn/T//ccOoU9OL.s:4346   .debug_str:0000000000000123 .LASF156
/var/folders/rt/4gvqv631095f64jvm7jfj_000000gn/T//ccOoU9OL.s:4404   .debug_str:0000000000000238 .LASF157
/var/folders/rt/4gvqv631095f64jvm7jfj_000000gn/T//ccOoU9OL.s:4320   .debug_str:000000000000008b .LASF158
/var/folders/rt/4gvqv631095f64jvm7jfj_000000gn/T//ccOoU9OL.s:4324   .debug_str:00000000000000a6 .LASF159
/var/folders/rt/4gvqv631095f64jvm7jfj_000000gn/T//ccOoU9OL.s:4566   .debug_str:000000000000056a .LASF160
/var/folders/rt/4gvqv631095f64jvm7jfj_000000gn/T//ccOoU9OL.s:4516   .debug_str:0000000000000455 .LASF161
/var/folders/rt/4gvqv631095f64jvm7jfj_000000gn/T//ccOoU9OL.s:4504   .debug_str:000000000000040a .LASF162
/var/folders/rt/4gvqv631095f64jvm7jfj_000000gn/T//ccOoU9OL.s:4712   .debug_str:00000000000008e8 .LASF163
/var/folders/rt/4gvqv631095f64jvm7jfj_000000gn/T//ccOoU9OL.s:4338   .debug_str:00000000000000ff .LASF227
/var/folders/rt/4gvqv631095f64jvm7jfj_000000gn/T//ccOoU9OL.s:4424   .debug_str:000000000000029f .LASF165
/var/folders/rt/4gvqv631095f64jvm7jfj_000000gn/T//ccOoU9OL.s:4686   .debug_str:0000000000000864 .LASF166
/var/folders/rt/4gvqv631095f64jvm7jfj_000000gn/T//ccOoU9OL.s:4528   .debug_str:0000000000000497 .LASF167
/var/folders/rt/4gvqv631095f64jvm7jfj_000000gn/T//ccOoU9OL.s:4326   .debug_str:00000000000000b7 .LASF168
/var/folders/rt/4gvqv631095f64jvm7jfj_000000gn/T//ccOoU9OL.s:4596   .debug_str:00000000000005f5 .LASF169
/var/folders/rt/4gvqv631095f64jvm7jfj_000000gn/T//ccOoU9OL.s:4334   .debug_str:00000000000000ed .LASF170
/var/folders/rt/4gvqv631095f64jvm7jfj_000000gn/T//ccOoU9OL.s:4588   .debug_str:00000000000005d1 .LASF171
/var/folders/rt/4gvqv631095f64jvm7jfj_000000gn/T//ccOoU9OL.s:4466   .debug_str:000000000000036b .LASF172
/var/folders/rt/4gvqv631095f64jvm7jfj_000000gn/T//ccOoU9OL.s:4322   .debug_str:000000000000009a .LASF173
/var/folders/rt/4gvqv631095f64jvm7jfj_000000gn/T//ccOoU9OL.s:4464   .debug_str:0000000000000360 .LASF174
/var/folders/rt/4gvqv631095f64jvm7jfj_000000gn/T//ccOoU9OL.s:4402   .debug_str:000000000000022a .LASF175
/var/folders/rt/4gvqv631095f64jvm7jfj_000000gn/T//ccOoU9OL.s:4390   .debug_str:00000000000001f4 .LASF176
/var/folders/rt/4gvqv631095f64jvm7jfj_000000gn/T//ccOoU9OL.s:4740   .debug_str:000000000000096a .LASF187
/var/folders/rt/4gvqv631095f64jvm7jfj_000000gn/T//ccOoU9OL.s:340    .text.startup.main:0000000000000000 .LFB6
/var/folders/rt/4gvqv631095f64jvm7jfj_000000gn/T//ccOoU9OL.s:465    .text.startup.main:00000000000000e6 .LFE6
/var/folders/rt/4gvqv631095f64jvm7jfj_000000gn/T//ccOoU9OL.s:4066   .debug_loc:0000000000000000 .LLST7
/var/folders/rt/4gvqv631095f64jvm7jfj_000000gn/T//ccOoU9OL.s:4079   .debug_loc:0000000000000021 .LLST8
/var/folders/rt/4gvqv631095f64jvm7jfj_000000gn/T//ccOoU9OL.s:4340   .debug_str:000000000000010a .LASF177
/var/folders/rt/4gvqv631095f64jvm7jfj_000000gn/T//ccOoU9OL.s:4704   .debug_str:00000000000008bf .LASF178
/var/folders/rt/4gvqv631095f64jvm7jfj_000000gn/T//ccOoU9OL.s:4101   .debug_loc:0000000000000058 .LLST9
/var/folders/rt/4gvqv631095f64jvm7jfj_000000gn/T//ccOoU9OL.s:4728   .debug_str:0000000000000939 .LASF179
/var/folders/rt/4gvqv631095f64jvm7jfj_000000gn/T//ccOoU9OL.s:4714   .debug_str:00000000000008f0 .LASF180
/var/folders/rt/4gvqv631095f64jvm7jfj_000000gn/T//ccOoU9OL.s:4736   .debug_str:000000000000095f .LASF181
/var/folders/rt/4gvqv631095f64jvm7jfj_000000gn/T//ccOoU9OL.s:4410   .debug_str:0000000000000260 .LASF182
/var/folders/rt/4gvqv631095f64jvm7jfj_000000gn/T//ccOoU9OL.s:4738   .debug_str:0000000000000964 .LASF183
/var/folders/rt/4gvqv631095f64jvm7jfj_000000gn/T//ccOoU9OL.s:4612   .debug_str:0000000000000649 .LASF184
/var/folders/rt/4gvqv631095f64jvm7jfj_000000gn/T//ccOoU9OL.s:368    .text.startup.main:0000000000000024 .LVL38
/var/folders/rt/4gvqv631095f64jvm7jfj_000000gn/T//ccOoU9OL.s:375    .text.startup.main:0000000000000036 .LVL39
/var/folders/rt/4gvqv631095f64jvm7jfj_000000gn/T//ccOoU9OL.s:378    .text.startup.main:000000000000003e .LVL40
/var/folders/rt/4gvqv631095f64jvm7jfj_000000gn/T//ccOoU9OL.s:381    .text.startup.main:0000000000000046 .LVL41
/var/folders/rt/4gvqv631095f64jvm7jfj_000000gn/T//ccOoU9OL.s:384    .text.startup.main:000000000000004e .LVL42
/var/folders/rt/4gvqv631095f64jvm7jfj_000000gn/T//ccOoU9OL.s:387    .text.startup.main:0000000000000056 .LVL43
/var/folders/rt/4gvqv631095f64jvm7jfj_000000gn/T//ccOoU9OL.s:391    .text.startup.main:0000000000000060 .LVL44
/var/folders/rt/4gvqv631095f64jvm7jfj_000000gn/T//ccOoU9OL.s:394    .text.startup.main:0000000000000068 .LVL45
/var/folders/rt/4gvqv631095f64jvm7jfj_000000gn/T//ccOoU9OL.s:398    .text.startup.main:0000000000000072 .LVL46
/var/folders/rt/4gvqv631095f64jvm7jfj_000000gn/T//ccOoU9OL.s:404    .text.startup.main:0000000000000082 .LVL47
/var/folders/rt/4gvqv631095f64jvm7jfj_000000gn/T//ccOoU9OL.s:409    .text.startup.main:0000000000000092 .LVL48
/var/folders/rt/4gvqv631095f64jvm7jfj_000000gn/T//ccOoU9OL.s:413    .text.startup.main:000000000000009e .LVL49
/var/folders/rt/4gvqv631095f64jvm7jfj_000000gn/T//ccOoU9OL.s:432    .text.startup.main:00000000000000b0 .LVL53
/var/folders/rt/4gvqv631095f64jvm7jfj_000000gn/T//ccOoU9OL.s:437    .text.startup.main:00000000000000ba .LVL54
/var/folders/rt/4gvqv631095f64jvm7jfj_000000gn/T//ccOoU9OL.s:443    .text.startup.main:00000000000000c4 .LVL56
/var/folders/rt/4gvqv631095f64jvm7jfj_000000gn/T//ccOoU9OL.s:456    .text.startup.main:00000000000000d8 .LVL58
/var/folders/rt/4gvqv631095f64jvm7jfj_000000gn/T//ccOoU9OL.s:461    .text.startup.main:00000000000000e4 .LVL59
/var/folders/rt/4gvqv631095f64jvm7jfj_000000gn/T//ccOoU9OL.s:4610   .debug_str:000000000000063f .LASF196
/var/folders/rt/4gvqv631095f64jvm7jfj_000000gn/T//ccOoU9OL.s:258    .text.renderLCD:0000000000000000 .LFB5
GAS LISTING /var/folders/rt/4gvqv631095f64jvm7jfj_000000gn/T//ccOoU9OL.s 			page 21


/var/folders/rt/4gvqv631095f64jvm7jfj_000000gn/T//ccOoU9OL.s:333    .text.renderLCD:0000000000000088 .LFE5
/var/folders/rt/4gvqv631095f64jvm7jfj_000000gn/T//ccOoU9OL.s:4118   .debug_loc:0000000000000083 .LLST6
/var/folders/rt/4gvqv631095f64jvm7jfj_000000gn/T//ccOoU9OL.s:4476   .debug_str:000000000000039c .LASF185
/var/folders/rt/4gvqv631095f64jvm7jfj_000000gn/T//ccOoU9OL.s:4478   .debug_str:00000000000003a3 .LASF186
/var/folders/rt/4gvqv631095f64jvm7jfj_000000gn/T//ccOoU9OL.s:287    .text.renderLCD:0000000000000026 .LVL32
/var/folders/rt/4gvqv631095f64jvm7jfj_000000gn/T//ccOoU9OL.s:296    .text.renderLCD:000000000000003c .LVL33
/var/folders/rt/4gvqv631095f64jvm7jfj_000000gn/T//ccOoU9OL.s:304    .text.renderLCD:0000000000000050 .LVL34
/var/folders/rt/4gvqv631095f64jvm7jfj_000000gn/T//ccOoU9OL.s:312    .text.renderLCD:0000000000000066 .LVL35
/var/folders/rt/4gvqv631095f64jvm7jfj_000000gn/T//ccOoU9OL.s:320    .text.renderLCD:000000000000007e .LVL36
/var/folders/rt/4gvqv631095f64jvm7jfj_000000gn/T//ccOoU9OL.s:4702   .debug_str:00000000000008b5 .LASF188
/var/folders/rt/4gvqv631095f64jvm7jfj_000000gn/T//ccOoU9OL.s:172    .text.initPlant:0000000000000000 .LFB4
/var/folders/rt/4gvqv631095f64jvm7jfj_000000gn/T//ccOoU9OL.s:251    .text.initPlant:000000000000007e .LFE4
/var/folders/rt/4gvqv631095f64jvm7jfj_000000gn/T//ccOoU9OL.s:4136   .debug_loc:00000000000000af .LLST4
/var/folders/rt/4gvqv631095f64jvm7jfj_000000gn/T//ccOoU9OL.s:4508   .debug_str:0000000000000425 .LASF189
/var/folders/rt/4gvqv631095f64jvm7jfj_000000gn/T//ccOoU9OL.s:4154   .debug_loc:00000000000000dc .LLST5
/var/folders/rt/4gvqv631095f64jvm7jfj_000000gn/T//ccOoU9OL.s:4624   .debug_str:0000000000000678 .LASF190
/var/folders/rt/4gvqv631095f64jvm7jfj_000000gn/T//ccOoU9OL.s:4684   .debug_str:0000000000000855 .LASF191
/var/folders/rt/4gvqv631095f64jvm7jfj_000000gn/T//ccOoU9OL.s:4682   .debug_str:000000000000084c .LASF195
/var/folders/rt/4gvqv631095f64jvm7jfj_000000gn/T//ccOoU9OL.s:202    .text.initPlant:0000000000000020 .LVL24
/var/folders/rt/4gvqv631095f64jvm7jfj_000000gn/T//ccOoU9OL.s:210    .text.initPlant:0000000000000036 .LVL25
/var/folders/rt/4gvqv631095f64jvm7jfj_000000gn/T//ccOoU9OL.s:216    .text.initPlant:0000000000000048 .LVL26
/var/folders/rt/4gvqv631095f64jvm7jfj_000000gn/T//ccOoU9OL.s:223    .text.initPlant:0000000000000056 .LVL27
/var/folders/rt/4gvqv631095f64jvm7jfj_000000gn/T//ccOoU9OL.s:230    .text.initPlant:0000000000000064 .LVL28
/var/folders/rt/4gvqv631095f64jvm7jfj_000000gn/T//ccOoU9OL.s:237    .text.initPlant:0000000000000074 .LVL29
/var/folders/rt/4gvqv631095f64jvm7jfj_000000gn/T//ccOoU9OL.s:4518   .debug_str:000000000000045c .LASF192
/var/folders/rt/4gvqv631095f64jvm7jfj_000000gn/T//ccOoU9OL.s:104    .text.initSensorReading:0000000000000000 .LFB3
/var/folders/rt/4gvqv631095f64jvm7jfj_000000gn/T//ccOoU9OL.s:165    .text.initSensorReading:000000000000003e .LFE3
/var/folders/rt/4gvqv631095f64jvm7jfj_000000gn/T//ccOoU9OL.s:4171   .debug_loc:0000000000000109 .LLST1
/var/folders/rt/4gvqv631095f64jvm7jfj_000000gn/T//ccOoU9OL.s:4189   .debug_loc:0000000000000135 .LLST2
/var/folders/rt/4gvqv631095f64jvm7jfj_000000gn/T//ccOoU9OL.s:4538   .debug_str:00000000000004cf .LASF193
/var/folders/rt/4gvqv631095f64jvm7jfj_000000gn/T//ccOoU9OL.s:4207   .debug_loc:0000000000000161 .LLST3
/var/folders/rt/4gvqv631095f64jvm7jfj_000000gn/T//ccOoU9OL.s:4412   .debug_str:0000000000000265 .LASF194
/var/folders/rt/4gvqv631095f64jvm7jfj_000000gn/T//ccOoU9OL.s:138    .text.initSensorReading:0000000000000022 .LVL17
/var/folders/rt/4gvqv631095f64jvm7jfj_000000gn/T//ccOoU9OL.s:149    .text.initSensorReading:0000000000000032 .LVL18
/var/folders/rt/4gvqv631095f64jvm7jfj_000000gn/T//ccOoU9OL.s:4310   .debug_str:000000000000005d .LASF197
/var/folders/rt/4gvqv631095f64jvm7jfj_000000gn/T//ccOoU9OL.s:14     .text.rtcInit:0000000000000000 .LFB2
/var/folders/rt/4gvqv631095f64jvm7jfj_000000gn/T//ccOoU9OL.s:97     .text.rtcInit:0000000000000094 .LFE2
/var/folders/rt/4gvqv631095f64jvm7jfj_000000gn/T//ccOoU9OL.s:4225   .debug_loc:000000000000018d .LLST0
/var/folders/rt/4gvqv631095f64jvm7jfj_000000gn/T//ccOoU9OL.s:30     .text.rtcInit:0000000000000010 .LVL0
/var/folders/rt/4gvqv631095f64jvm7jfj_000000gn/T//ccOoU9OL.s:33     .text.rtcInit:0000000000000018 .LVL1
/var/folders/rt/4gvqv631095f64jvm7jfj_000000gn/T//ccOoU9OL.s:37     .text.rtcInit:0000000000000024 .LVL2
/var/folders/rt/4gvqv631095f64jvm7jfj_000000gn/T//ccOoU9OL.s:40     .text.rtcInit:000000000000002c .LVL3
/var/folders/rt/4gvqv631095f64jvm7jfj_000000gn/T//ccOoU9OL.s:45     .text.rtcInit:0000000000000036 .LVL4
/var/folders/rt/4gvqv631095f64jvm7jfj_000000gn/T//ccOoU9OL.s:51     .text.rtcInit:0000000000000044 .LVL5
/var/folders/rt/4gvqv631095f64jvm7jfj_000000gn/T//ccOoU9OL.s:56     .text.rtcInit:0000000000000052 .LVL6
/var/folders/rt/4gvqv631095f64jvm7jfj_000000gn/T//ccOoU9OL.s:59     .text.rtcInit:000000000000005a .LVL7
/var/folders/rt/4gvqv631095f64jvm7jfj_000000gn/T//ccOoU9OL.s:62     .text.rtcInit:0000000000000062 .LVL8
/var/folders/rt/4gvqv631095f64jvm7jfj_000000gn/T//ccOoU9OL.s:67     .text.rtcInit:0000000000000070 .LVL9
/var/folders/rt/4gvqv631095f64jvm7jfj_000000gn/T//ccOoU9OL.s:70     .text.rtcInit:0000000000000078 .LVL10
/var/folders/rt/4gvqv631095f64jvm7jfj_000000gn/T//ccOoU9OL.s:74     .text.rtcInit:0000000000000082 .LVL11
/var/folders/rt/4gvqv631095f64jvm7jfj_000000gn/T//ccOoU9OL.s:85     .text.rtcInit:000000000000008e .LVL12
/var/folders/rt/4gvqv631095f64jvm7jfj_000000gn/T//ccOoU9OL.s:4674   .debug_str:0000000000000829 .LASF198
/var/folders/rt/4gvqv631095f64jvm7jfj_000000gn/T//ccOoU9OL.s:4374   .debug_str:00000000000001a8 .LASF199
/var/folders/rt/4gvqv631095f64jvm7jfj_000000gn/T//ccOoU9OL.s:4558   .debug_str:0000000000000548 .LASF200
/var/folders/rt/4gvqv631095f64jvm7jfj_000000gn/T//ccOoU9OL.s:4366   .debug_str:0000000000000183 .LASF201
/var/folders/rt/4gvqv631095f64jvm7jfj_000000gn/T//ccOoU9OL.s:4590   .debug_str:00000000000005df .LASF202
/var/folders/rt/4gvqv631095f64jvm7jfj_000000gn/T//ccOoU9OL.s:4730   .debug_str:0000000000000943 .LASF203
GAS LISTING /var/folders/rt/4gvqv631095f64jvm7jfj_000000gn/T//ccOoU9OL.s 			page 22


/var/folders/rt/4gvqv631095f64jvm7jfj_000000gn/T//ccOoU9OL.s:4380   .debug_str:00000000000001c0 .LASF204
/var/folders/rt/4gvqv631095f64jvm7jfj_000000gn/T//ccOoU9OL.s:4482   .debug_str:00000000000003b0 .LASF211
/var/folders/rt/4gvqv631095f64jvm7jfj_000000gn/T//ccOoU9OL.s:4490   .debug_str:00000000000003ca .LASF212
/var/folders/rt/4gvqv631095f64jvm7jfj_000000gn/T//ccOoU9OL.s:4576   .debug_str:0000000000000595 .LASF205
/var/folders/rt/4gvqv631095f64jvm7jfj_000000gn/T//ccOoU9OL.s:4354   .debug_str:0000000000000152 .LASF206
/var/folders/rt/4gvqv631095f64jvm7jfj_000000gn/T//ccOoU9OL.s:4648   .debug_str:00000000000006e6 .LASF207
/var/folders/rt/4gvqv631095f64jvm7jfj_000000gn/T//ccOoU9OL.s:4452   .debug_str:0000000000000332 .LASF208
/var/folders/rt/4gvqv631095f64jvm7jfj_000000gn/T//ccOoU9OL.s:4650   .debug_str:00000000000006ed .LASF209
/var/folders/rt/4gvqv631095f64jvm7jfj_000000gn/T//ccOoU9OL.s:4666   .debug_str:00000000000007f2 .LASF210
/var/folders/rt/4gvqv631095f64jvm7jfj_000000gn/T//ccOoU9OL.s:4488   .debug_str:00000000000003c3 .LASF213
/var/folders/rt/4gvqv631095f64jvm7jfj_000000gn/T//ccOoU9OL.s:4386   .debug_str:00000000000001dc .LASF214
/var/folders/rt/4gvqv631095f64jvm7jfj_000000gn/T//ccOoU9OL.s:4514   .debug_str:000000000000043d .LASF215
/var/folders/rt/4gvqv631095f64jvm7jfj_000000gn/T//ccOoU9OL.s:4540   .debug_str:00000000000004d9 .LASF216
/var/folders/rt/4gvqv631095f64jvm7jfj_000000gn/T//ccOoU9OL.s:4302   .debug_str:0000000000000038 .LASF217
/var/folders/rt/4gvqv631095f64jvm7jfj_000000gn/T//ccOoU9OL.s:4670   .debug_str:0000000000000811 .LASF218
/var/folders/rt/4gvqv631095f64jvm7jfj_000000gn/T//ccOoU9OL.s:4706   .debug_str:00000000000008c4 .LASF219
/var/folders/rt/4gvqv631095f64jvm7jfj_000000gn/T//ccOoU9OL.s:4444   .debug_str:00000000000002fb .LASF220
/var/folders/rt/4gvqv631095f64jvm7jfj_000000gn/T//ccOoU9OL.s:4720   .debug_str:0000000000000910 .LASF221
/var/folders/rt/4gvqv631095f64jvm7jfj_000000gn/T//ccOoU9OL.s:4586   .debug_str:00000000000005bf .LASF222
/var/folders/rt/4gvqv631095f64jvm7jfj_000000gn/T//ccOoU9OL.s:4422   .debug_str:0000000000000290 .LASF223
/var/folders/rt/4gvqv631095f64jvm7jfj_000000gn/T//ccOoU9OL.s:351    .text.startup.main:0000000000000002 .LCFI10
/var/folders/rt/4gvqv631095f64jvm7jfj_000000gn/T//ccOoU9OL.s:344    .text.startup.main:0000000000000000 .LVL37
/var/folders/rt/4gvqv631095f64jvm7jfj_000000gn/T//ccOoU9OL.s:418    .text.startup.main:00000000000000a4 .LVL50
/var/folders/rt/4gvqv631095f64jvm7jfj_000000gn/T//ccOoU9OL.s:422    .text.startup.main:00000000000000a6 .LVL51
/var/folders/rt/4gvqv631095f64jvm7jfj_000000gn/T//ccOoU9OL.s:440    .text.startup.main:00000000000000bc .LVL55
/var/folders/rt/4gvqv631095f64jvm7jfj_000000gn/T//ccOoU9OL.s:264    .text.renderLCD:0000000000000002 .LCFI8
/var/folders/rt/4gvqv631095f64jvm7jfj_000000gn/T//ccOoU9OL.s:329    .text.renderLCD:0000000000000086 .LCFI9
/var/folders/rt/4gvqv631095f64jvm7jfj_000000gn/T//ccOoU9OL.s:180    .text.initPlant:0000000000000002 .LCFI6
/var/folders/rt/4gvqv631095f64jvm7jfj_000000gn/T//ccOoU9OL.s:246    .text.initPlant:000000000000007c .LCFI7
/var/folders/rt/4gvqv631095f64jvm7jfj_000000gn/T//ccOoU9OL.s:175    .text.initPlant:0000000000000000 .LVL21
/var/folders/rt/4gvqv631095f64jvm7jfj_000000gn/T//ccOoU9OL.s:185    .text.initPlant:0000000000000008 .LVL22
/var/folders/rt/4gvqv631095f64jvm7jfj_000000gn/T//ccOoU9OL.s:248    .text.initPlant:000000000000007c .LVL31
/var/folders/rt/4gvqv631095f64jvm7jfj_000000gn/T//ccOoU9OL.s:112    .text.initSensorReading:0000000000000002 .LCFI4
/var/folders/rt/4gvqv631095f64jvm7jfj_000000gn/T//ccOoU9OL.s:161    .text.initSensorReading:000000000000003c .LCFI5
/var/folders/rt/4gvqv631095f64jvm7jfj_000000gn/T//ccOoU9OL.s:107    .text.initSensorReading:0000000000000000 .LVL13
/var/folders/rt/4gvqv631095f64jvm7jfj_000000gn/T//ccOoU9OL.s:130    .text.initSensorReading:0000000000000016 .LVL15
/var/folders/rt/4gvqv631095f64jvm7jfj_000000gn/T//ccOoU9OL.s:119    .text.initSensorReading:000000000000000a .LVL14
/var/folders/rt/4gvqv631095f64jvm7jfj_000000gn/T//ccOoU9OL.s:159    .text.initSensorReading:000000000000003a .LVL20
/var/folders/rt/4gvqv631095f64jvm7jfj_000000gn/T//ccOoU9OL.s:21     .text.rtcInit:0000000000000002 .LCFI0
/var/folders/rt/4gvqv631095f64jvm7jfj_000000gn/T//ccOoU9OL.s:81     .text.rtcInit:0000000000000086 .LCFI1
/var/folders/rt/4gvqv631095f64jvm7jfj_000000gn/T//ccOoU9OL.s:87     .text.rtcInit:000000000000008e .LCFI2
/var/folders/rt/4gvqv631095f64jvm7jfj_000000gn/T//ccOoU9OL.s:93     .text.rtcInit:0000000000000092 .LCFI3
/var/folders/rt/4gvqv631095f64jvm7jfj_000000gn/T//ccOoU9OL.s:507    .debug_info:0000000000000000 .Ldebug_info0

UNDEFINED SYMBOLS
rcu_periph_clock_enable
pmu_backup_write_enable
bkp_deinit
rcu_osci_stab_wait
rcu_rtc_clock_config
rtc_register_sync_wait
rtc_lwoff_wait
rtc_prescaler_set
rtc_flag_clear
snprintf
memcpy
strcpy
GAS LISTING /var/folders/rt/4gvqv631095f64jvm7jfj_000000gn/T//ccOoU9OL.s 			page 23


LCD_ShowStr
LCD_ShowNum
t5omsi
colinit
l88init
keyinit
Lcd_SetType
Lcd_Init
LCD_Clear
t5expq
colset
l88row
l88mem
