GAS LISTING /var/folders/rt/4gvqv631095f64jvm7jfj_000000gn/T//ccnu1rXG.s 			page 1


   1              		.file	"main.c"
   2              		.option nopic
   3              		.attribute arch, "rv32i2p0_m2p0_a2p0_c2p0"
   4              		.attribute unaligned_access, 0
   5              		.attribute stack_align, 16
   6              		.text
   7              	.Ltext0:
   8              		.cfi_sections	.debug_frame
   9              		.section	.text.renderAllPlants,"ax",@progbits
  10              		.align	1
  11              		.globl	renderAllPlants
  13              	renderAllPlants:
  14              	.LFB6:
  15              		.file 1 "main.c"
   1:main.c        **** #include "gd32vf103.h"
   2:main.c        **** #include "drivers.h"
   3:main.c        **** #include "adc.h"
   4:main.c        **** #include "lcd.h"
   5:main.c        **** #include "plant.h"
   6:main.c        **** #include "utilities.h"
   7:main.c        **** #include "usart.h"
   8:main.c        **** #include <string.h>
   9:main.c        **** #include <stdio.h>
  10:main.c        **** #define STR_COPY(dest, src) \
  11:main.c        ****   snprintf(dest, sizeof(dest), "%s", src) // AI. STR_COPY Ă¤r en genvĂ¤g fĂ¶r snprintf som i sin tu
  12:main.c        **** 
  13:main.c        **** #define EI 1
  14:main.c        **** #define DI 0
  15:main.c        **** #define MAXIMUM_NUMBER_OF_PLANTS
  16:main.c        **** 
  17:main.c        **** void renderAllPlants(Plant allPlants[], int numberOfPlants)
  18:main.c        **** {
  16              		.loc 1 18 1
  17              		.cfi_startproc
  18              	.LVL0:
  19:main.c        ****   for (int i = 0; i < numberOfPlants; i++)
  19              		.loc 1 19 3
  20              	.LBB2:
  21              		.loc 1 19 8
  22              	.LBE2:
  18:main.c        ****   for (int i = 0; i < numberOfPlants; i++)
  23              		.loc 1 18 1 is_stmt 0
  24 0000 7971     		addi	sp,sp,-48
  25              	.LCFI0:
  26              		.cfi_def_cfa_offset 48
  27 0002 26D2     		sw	s1,36(sp)
  28              		.cfi_offset 9, -12
  29              	.LBB3:
  20:main.c        ****   {
  21:main.c        ****     LCD_ShowStr(i * 55, 0, allPlants[i].name, WHITE, TRANSPARENT);
  30              		.loc 1 21 5
  31 0004 C164     		li	s1,65536
  32              	.LBE3:
  18:main.c        ****   for (int i = 0; i < numberOfPlants; i++)
  33              		.loc 1 18 1
  34 0006 22D4     		sw	s0,40(sp)
  35 0008 4ECE     		sw	s3,28(sp)
GAS LISTING /var/folders/rt/4gvqv631095f64jvm7jfj_000000gn/T//ccnu1rXG.s 			page 2


  36 000a 52CC     		sw	s4,24(sp)
  37 000c 5AC8     		sw	s6,16(sp)
  38 000e 5EC6     		sw	s7,12(sp)
  39 0010 06D6     		sw	ra,44(sp)
  40 0012 4AD0     		sw	s2,32(sp)
  41 0014 56CA     		sw	s5,20(sp)
  42              		.cfi_offset 8, -8
  43              		.cfi_offset 19, -20
  44              		.cfi_offset 20, -24
  45              		.cfi_offset 22, -32
  46              		.cfi_offset 23, -36
  47              		.cfi_offset 1, -4
  48              		.cfi_offset 18, -16
  49              		.cfi_offset 21, -28
  18:main.c        ****   for (int i = 0; i < numberOfPlants; i++)
  50              		.loc 1 18 1
  51 0016 2E8B     		mv	s6,a1
  52 0018 2A84     		mv	s0,a0
  53              	.LBB4:
  19:main.c        ****   {
  54              		.loc 1 19 12
  55 001a 014A     		li	s4,0
  56 001c 930B7003 		li	s7,55
  57              		.loc 1 21 5
  58 0020 FD14     		addi	s1,s1,-1
  22:main.c        ****     LCD_ShowNum(i * 55, 20, allPlants[i].moisture[allPlants[i].numberOfMoistureReadings-1].reading,
  23:main.c        ****     LCD_ShowStr(i * 55 + 30, 20, "%", WHITE, TRANSPARENT);
  59              		.loc 1 23 5
  60 0022 B7090000 		lui	s3,%hi(.LC0)
  61              	.LVL1:
  62              	.L2:
  19:main.c        ****   {
  63              		.loc 1 19 3 discriminator 1
  64 0026 634D6A01 		blt	s4,s6,.L3
  65              	.LBE4:
  24:main.c        ****     LCD_ShowNum(i * 55, 40, allPlants[i].sun[allPlants[i].numberOfSunReadings-1].reading, 3, WHITE)
  25:main.c        ****     LCD_ShowStr(i * 55 + 30, 40, "%", WHITE, TRANSPARENT);
  26:main.c        ****     LCD_ShowStr(i * 55, 60, allPlants[i].currentStatus, GBLUE, TRANSPARENT);
  27:main.c        ****   }
  28:main.c        **** }
  66              		.loc 1 28 1
  67 002a B250     		lw	ra,44(sp)
  68              		.cfi_remember_state
  69              		.cfi_restore 1
  70 002c 2254     		lw	s0,40(sp)
  71              		.cfi_restore 8
  72 002e 9254     		lw	s1,36(sp)
  73              		.cfi_restore 9
  74 0030 0259     		lw	s2,32(sp)
  75              		.cfi_restore 18
  76 0032 F249     		lw	s3,28(sp)
  77              		.cfi_restore 19
  78 0034 624A     		lw	s4,24(sp)
  79              		.cfi_restore 20
  80              	.LVL2:
  81 0036 D24A     		lw	s5,20(sp)
  82              		.cfi_restore 21
GAS LISTING /var/folders/rt/4gvqv631095f64jvm7jfj_000000gn/T//ccnu1rXG.s 			page 3


  83 0038 424B     		lw	s6,16(sp)
  84              		.cfi_restore 22
  85              	.LVL3:
  86 003a B24B     		lw	s7,12(sp)
  87              		.cfi_restore 23
  88 003c 4561     		addi	sp,sp,48
  89              	.LCFI1:
  90              		.cfi_def_cfa_offset 0
  91 003e 8280     		jr	ra
  92              	.LVL4:
  93              	.L3:
  94              	.LCFI2:
  95              		.cfi_restore_state
  96              	.LBB5:
  21:main.c        ****     LCD_ShowNum(i * 55, 20, allPlants[i].moisture[allPlants[i].numberOfMoistureReadings-1].reading,
  97              		.loc 1 21 5 is_stmt 1 discriminator 3
  98 0040 33097A03 		mul	s2,s4,s7
  99 0044 2286     		mv	a2,s0
 100 0046 0547     		li	a4,1
 101 0048 A686     		mv	a3,s1
 102 004a 8145     		li	a1,0
  19:main.c        ****   {
 103              		.loc 1 19 40 is_stmt 0 discriminator 3
 104 004c 050A     		addi	s4,s4,1
 105              	.LVL5:
  21:main.c        ****     LCD_ShowNum(i * 55, 20, allPlants[i].moisture[allPlants[i].numberOfMoistureReadings-1].reading,
 106              		.loc 1 21 5 discriminator 3
 107 004e 4A85     		mv	a0,s2
 108 0050 97000000 		call	LCD_ShowStr
 108      E7800000 
 109              	.LVL6:
  22:main.c        ****     LCD_ShowStr(i * 55 + 30, 20, "%", WHITE, TRANSPARENT);
 110              		.loc 1 22 5 is_stmt 1 discriminator 3
  22:main.c        ****     LCD_ShowStr(i * 55 + 30, 20, "%", WHITE, TRANSPARENT);
 111              		.loc 1 22 91 is_stmt 0 discriminator 3
 112 0058 83270462 		lw	a5,1568(s0)
  22:main.c        ****     LCD_ShowStr(i * 55 + 30, 20, "%", WHITE, TRANSPARENT);
 113              		.loc 1 22 5 discriminator 3
 114 005c 2687     		mv	a4,s1
 115 005e 8D46     		li	a3,3
  22:main.c        ****     LCD_ShowStr(i * 55 + 30, 20, "%", WHITE, TRANSPARENT);
 116              		.loc 1 22 91 discriminator 3
 117 0060 8507     		addi	a5,a5,1
 118 0062 9207     		slli	a5,a5,4
 119 0064 A297     		add	a5,s0,a5
  22:main.c        ****     LCD_ShowStr(i * 55 + 30, 20, "%", WHITE, TRANSPARENT);
 120              		.loc 1 22 5 discriminator 3
 121 0066 D047     		lw	a2,12(a5)
 122 0068 D145     		li	a1,20
 123 006a 4A85     		mv	a0,s2
 124 006c 97000000 		call	LCD_ShowNum
 124      E7800000 
 125              	.LVL7:
  23:main.c        ****     LCD_ShowNum(i * 55, 40, allPlants[i].sun[allPlants[i].numberOfSunReadings-1].reading, 3, WHITE)
 126              		.loc 1 23 5 is_stmt 1 discriminator 3
 127 0074 930AE901 		addi	s5,s2,30
 128 0078 0547     		li	a4,1
GAS LISTING /var/folders/rt/4gvqv631095f64jvm7jfj_000000gn/T//ccnu1rXG.s 			page 4


 129 007a A686     		mv	a3,s1
 130 007c 13860900 		addi	a2,s3,%lo(.LC0)
 131 0080 D145     		li	a1,20
 132 0082 5685     		mv	a0,s5
 133 0084 97000000 		call	LCD_ShowStr
 133      E7800000 
 134              	.LVL8:
  24:main.c        ****     LCD_ShowStr(i * 55 + 30, 40, "%", WHITE, TRANSPARENT);
 135              		.loc 1 24 5 discriminator 3
  24:main.c        ****     LCD_ShowStr(i * 55 + 30, 40, "%", WHITE, TRANSPARENT);
 136              		.loc 1 24 81 is_stmt 0 discriminator 3
 137 008c 83274462 		lw	a5,1572(s0)
  24:main.c        ****     LCD_ShowStr(i * 55 + 30, 40, "%", WHITE, TRANSPARENT);
 138              		.loc 1 24 5 discriminator 3
 139 0090 2687     		mv	a4,s1
 140 0092 8D46     		li	a3,3
  24:main.c        ****     LCD_ShowStr(i * 55 + 30, 40, "%", WHITE, TRANSPARENT);
 141              		.loc 1 24 81 discriminator 3
 142 0094 E507     		addi	a5,a5,25
 143 0096 9207     		slli	a5,a5,4
 144 0098 A297     		add	a5,s0,a5
  24:main.c        ****     LCD_ShowStr(i * 55 + 30, 40, "%", WHITE, TRANSPARENT);
 145              		.loc 1 24 5 discriminator 3
 146 009a D047     		lw	a2,12(a5)
 147 009c 93058002 		li	a1,40
 148 00a0 4A85     		mv	a0,s2
 149 00a2 97000000 		call	LCD_ShowNum
 149      E7800000 
 150              	.LVL9:
  25:main.c        ****     LCD_ShowStr(i * 55, 60, allPlants[i].currentStatus, GBLUE, TRANSPARENT);
 151              		.loc 1 25 5 is_stmt 1 discriminator 3
 152 00aa 0547     		li	a4,1
 153 00ac A686     		mv	a3,s1
 154 00ae 13860900 		addi	a2,s3,%lo(.LC0)
 155 00b2 93058002 		li	a1,40
 156 00b6 5685     		mv	a0,s5
 157 00b8 97000000 		call	LCD_ShowStr
 157      E7800000 
 158              	.LVL10:
  26:main.c        ****   }
 159              		.loc 1 26 5 discriminator 3
 160 00c0 1306F400 		addi	a2,s0,15
 161 00c4 0547     		li	a4,1
 162 00c6 9306F07F 		li	a3,2047
 163 00ca 9305C003 		li	a1,60
 164 00ce 4A85     		mv	a0,s2
 165 00d0 97000000 		call	LCD_ShowStr
 165      E7800000 
 166              	.LVL11:
 167 00d8 1304047D 		addi	s0,s0,2000
 168 00dc A9B7     		j	.L2
 169              	.LBE5:
 170              		.cfi_endproc
 171              	.LFE6:
 173              		.section	.text.renderOnePlant,"ax",@progbits
 174              		.align	1
 175              		.globl	renderOnePlant
GAS LISTING /var/folders/rt/4gvqv631095f64jvm7jfj_000000gn/T//ccnu1rXG.s 			page 5


 177              	renderOnePlant:
 178              	.LFB7:
  29:main.c        **** 
  30:main.c        **** void renderOnePlant(Plant allPlants[], int numberOfPlants, char name[])
  31:main.c        **** {
 179              		.loc 1 31 1
 180              		.cfi_startproc
 181              	.LVL12:
  32:main.c        ****   for (int i = 0; i < numberOfPlants; i++)
 182              		.loc 1 32 3
 183              	.LBB6:
 184              		.loc 1 32 8
 185              	.LBE6:
  31:main.c        ****   for (int i = 0; i < numberOfPlants; i++)
 186              		.loc 1 31 1 is_stmt 0
 187 0000 7971     		addi	sp,sp,-48
 188              	.LCFI3:
 189              		.cfi_def_cfa_offset 48
 190 0002 26D2     		sw	s1,36(sp)
 191 0004 4AD0     		sw	s2,32(sp)
 192 0006 4ECE     		sw	s3,28(sp)
 193 0008 06D6     		sw	ra,44(sp)
 194 000a 22D4     		sw	s0,40(sp)
 195              		.cfi_offset 9, -12
 196              		.cfi_offset 18, -16
 197              		.cfi_offset 19, -20
 198              		.cfi_offset 1, -4
 199              		.cfi_offset 8, -8
  31:main.c        ****   for (int i = 0; i < numberOfPlants; i++)
 200              		.loc 1 31 1
 201 000c AE89     		mv	s3,a1
 202 000e AA84     		mv	s1,a0
 203              	.LBB7:
 204              		.loc 1 32 12
 205 0010 0149     		li	s2,0
 206              	.LVL13:
 207              	.L6:
 208              		.loc 1 32 3 discriminator 1
 209 0012 634E3901 		blt	s2,s3,.L8
 210              	.LBE7:
  33:main.c        ****   {
  34:main.c        ****     if (strcmp(allPlants[i].name, name) == 0)
  35:main.c        ****     {
  36:main.c        ****       LCD_ShowStr(0, 0, allPlants[i].name, WHITE, TRANSPARENT);
  37:main.c        ****       LCD_ShowNum(0, 20, allPlants[i].moisture[allPlants[i].numberOfMoistureReadings - 1].reading, 
  38:main.c        ****       LCD_ShowStr(0 + 30, 20, "%", WHITE, TRANSPARENT);
  39:main.c        ****       LCD_ShowStr(50, 20, allPlants[i].moisture[allPlants[i].numberOfMoistureReadings - 1].timeStam
  40:main.c        ****       LCD_ShowNum(0, 40, allPlants[i].sun[allPlants[i].numberOfSunReadings - 1].reading, 3, WHITE);
  41:main.c        ****       LCD_ShowStr(0 + 30, 40, "%", WHITE, TRANSPARENT);
  42:main.c        ****       LCD_Fill(50, 40, 160, 53, BLACK); // Black out old reading before writing new
  43:main.c        ****       LCD_ShowStr(50, 40, allPlants[i].sun[allPlants[i].numberOfSunReadings - 1].timeStamp, WHITE, 
  44:main.c        ****       LCD_ShowStr(0, 60, allPlants[i].currentStatus, GBLUE, TRANSPARENT);
  45:main.c        ****       return;
  46:main.c        ****     }
  47:main.c        ****   }
  48:main.c        ****   LCD_ShowStr(50, 4, "NO SUCH PLANT", RED, TRANSPARENT);
 211              		.loc 1 48 3 is_stmt 1
GAS LISTING /var/folders/rt/4gvqv631095f64jvm7jfj_000000gn/T//ccnu1rXG.s 			page 6


 212 0016 C166     		li	a3,65536
 213 0018 37060000 		lui	a2,%hi(.LC1)
 214              	.LVL14:
 215 001c 0547     		li	a4,1
 216 001e 93860680 		addi	a3,a3,-2048
 217 0022 13060600 		addi	a2,a2,%lo(.LC1)
 218 0026 9145     		li	a1,4
 219 0028 13052003 		li	a0,50
 220 002c 21A2     		j	.L10
 221              	.LVL15:
 222              	.L8:
 223              	.LBB8:
  34:main.c        ****     {
 224              		.loc 1 34 5
  34:main.c        ****     {
 225              		.loc 1 34 9 is_stmt 0
 226 002e B285     		mv	a1,a2
 227 0030 2685     		mv	a0,s1
 228 0032 32C6     		sw	a2,12(sp)
 229 0034 97000000 		call	strcmp
 229      E7800000 
 230              	.LVL16:
  34:main.c        ****     {
 231              		.loc 1 34 25
 232 003c 2684     		mv	s0,s1
  34:main.c        ****     {
 233              		.loc 1 34 8
 234 003e 3246     		lw	a2,12(sp)
 235 0040 9384047D 		addi	s1,s1,2000
 236 0044 63120510 		bne	a0,zero,.L7
 237              	.LVL17:
  36:main.c        ****       LCD_ShowNum(0, 20, allPlants[i].moisture[allPlants[i].numberOfMoistureReadings - 1].reading, 
 238              		.loc 1 36 7 is_stmt 1
 239 0048 C164     		li	s1,65536
 240 004a 0547     		li	a4,1
 241 004c 9386F4FF 		addi	a3,s1,-1
 242 0050 2286     		mv	a2,s0
 243              	.LVL18:
 244 0052 8145     		li	a1,0
 245 0054 97000000 		call	LCD_ShowStr
 245      E7800000 
 246              	.LVL19:
  37:main.c        ****       LCD_ShowStr(0 + 30, 20, "%", WHITE, TRANSPARENT);
 247              		.loc 1 37 7
  37:main.c        ****       LCD_ShowStr(0 + 30, 20, "%", WHITE, TRANSPARENT);
 248              		.loc 1 37 90 is_stmt 0
 249 005c 83270462 		lw	a5,1568(s0)
  37:main.c        ****       LCD_ShowStr(0 + 30, 20, "%", WHITE, TRANSPARENT);
 250              		.loc 1 37 7
 251 0060 1387F4FF 		addi	a4,s1,-1
 252 0064 8D46     		li	a3,3
  37:main.c        ****       LCD_ShowStr(0 + 30, 20, "%", WHITE, TRANSPARENT);
 253              		.loc 1 37 90
 254 0066 8507     		addi	a5,a5,1
 255 0068 9207     		slli	a5,a5,4
 256 006a A297     		add	a5,s0,a5
  37:main.c        ****       LCD_ShowStr(0 + 30, 20, "%", WHITE, TRANSPARENT);
GAS LISTING /var/folders/rt/4gvqv631095f64jvm7jfj_000000gn/T//ccnu1rXG.s 			page 7


 257              		.loc 1 37 7
 258 006c D047     		lw	a2,12(a5)
 259 006e D145     		li	a1,20
 260 0070 0145     		li	a0,0
 261 0072 97000000 		call	LCD_ShowNum
 261      E7800000 
 262              	.LVL20:
  38:main.c        ****       LCD_ShowStr(50, 20, allPlants[i].moisture[allPlants[i].numberOfMoistureReadings - 1].timeStam
 263              		.loc 1 38 7 is_stmt 1
 264 007a 37090000 		lui	s2,%hi(.LC0)
 265              	.LVL21:
 266 007e 0547     		li	a4,1
 267 0080 9386F4FF 		addi	a3,s1,-1
 268 0084 13060900 		addi	a2,s2,%lo(.LC0)
 269 0088 D145     		li	a1,20
 270 008a 7945     		li	a0,30
 271 008c 97000000 		call	LCD_ShowStr
 271      E7800000 
 272              	.LVL22:
  39:main.c        ****       LCD_ShowNum(0, 40, allPlants[i].sun[allPlants[i].numberOfSunReadings - 1].reading, 3, WHITE);
 273              		.loc 1 39 7
  39:main.c        ****       LCD_ShowNum(0, 40, allPlants[i].sun[allPlants[i].numberOfSunReadings - 1].reading, 3, WHITE);
 274              		.loc 1 39 91 is_stmt 0
 275 0094 03260462 		lw	a2,1568(s0)
  39:main.c        ****       LCD_ShowNum(0, 40, allPlants[i].sun[allPlants[i].numberOfSunReadings - 1].reading, 3, WHITE);
 276              		.loc 1 39 7
 277 0098 0547     		li	a4,1
 278 009a 9386F4FF 		addi	a3,s1,-1
  39:main.c        ****       LCD_ShowNum(0, 40, allPlants[i].sun[allPlants[i].numberOfSunReadings - 1].reading, 3, WHITE);
 279              		.loc 1 39 91
 280 009e 0506     		addi	a2,a2,1
 281 00a0 1206     		slli	a2,a2,4
  39:main.c        ****       LCD_ShowNum(0, 40, allPlants[i].sun[allPlants[i].numberOfSunReadings - 1].reading, 3, WHITE);
 282              		.loc 1 39 7
 283 00a2 2296     		add	a2,s0,a2
 284 00a4 D145     		li	a1,20
 285 00a6 13052003 		li	a0,50
 286 00aa 97000000 		call	LCD_ShowStr
 286      E7800000 
 287              	.LVL23:
  40:main.c        ****       LCD_ShowStr(0 + 30, 40, "%", WHITE, TRANSPARENT);
 288              		.loc 1 40 7 is_stmt 1
  40:main.c        ****       LCD_ShowStr(0 + 30, 40, "%", WHITE, TRANSPARENT);
 289              		.loc 1 40 80 is_stmt 0
 290 00b2 83274462 		lw	a5,1572(s0)
  40:main.c        ****       LCD_ShowStr(0 + 30, 40, "%", WHITE, TRANSPARENT);
 291              		.loc 1 40 7
 292 00b6 1387F4FF 		addi	a4,s1,-1
 293 00ba 8D46     		li	a3,3
  40:main.c        ****       LCD_ShowStr(0 + 30, 40, "%", WHITE, TRANSPARENT);
 294              		.loc 1 40 80
 295 00bc E507     		addi	a5,a5,25
 296 00be 9207     		slli	a5,a5,4
 297 00c0 A297     		add	a5,s0,a5
  40:main.c        ****       LCD_ShowStr(0 + 30, 40, "%", WHITE, TRANSPARENT);
 298              		.loc 1 40 7
 299 00c2 D047     		lw	a2,12(a5)
GAS LISTING /var/folders/rt/4gvqv631095f64jvm7jfj_000000gn/T//ccnu1rXG.s 			page 8


 300 00c4 93058002 		li	a1,40
 301 00c8 0145     		li	a0,0
 302 00ca 97000000 		call	LCD_ShowNum
 302      E7800000 
 303              	.LVL24:
  41:main.c        ****       LCD_Fill(50, 40, 160, 53, BLACK); // Black out old reading before writing new
 304              		.loc 1 41 7 is_stmt 1
 305 00d2 0547     		li	a4,1
 306 00d4 9386F4FF 		addi	a3,s1,-1
 307 00d8 13060900 		addi	a2,s2,%lo(.LC0)
 308 00dc 93058002 		li	a1,40
 309 00e0 7945     		li	a0,30
 310 00e2 97000000 		call	LCD_ShowStr
 310      E7800000 
 311              	.LVL25:
  42:main.c        ****       LCD_ShowStr(50, 40, allPlants[i].sun[allPlants[i].numberOfSunReadings - 1].timeStamp, WHITE, 
 312              		.loc 1 42 7
 313 00ea 0147     		li	a4,0
 314 00ec 93065003 		li	a3,53
 315 00f0 1306000A 		li	a2,160
 316 00f4 93058002 		li	a1,40
 317 00f8 13052003 		li	a0,50
 318 00fc 97000000 		call	LCD_Fill
 318      E7800000 
 319              	.LVL26:
  43:main.c        ****       LCD_ShowStr(0, 60, allPlants[i].currentStatus, GBLUE, TRANSPARENT);
 320              		.loc 1 43 7
  43:main.c        ****       LCD_ShowStr(0, 60, allPlants[i].currentStatus, GBLUE, TRANSPARENT);
 321              		.loc 1 43 81 is_stmt 0
 322 0104 03264462 		lw	a2,1572(s0)
  43:main.c        ****       LCD_ShowStr(0, 60, allPlants[i].currentStatus, GBLUE, TRANSPARENT);
 323              		.loc 1 43 7
 324 0108 0547     		li	a4,1
 325 010a 9386F4FF 		addi	a3,s1,-1
  43:main.c        ****       LCD_ShowStr(0, 60, allPlants[i].currentStatus, GBLUE, TRANSPARENT);
 326              		.loc 1 43 81
 327 010e 6506     		addi	a2,a2,25
 328 0110 1206     		slli	a2,a2,4
  43:main.c        ****       LCD_ShowStr(0, 60, allPlants[i].currentStatus, GBLUE, TRANSPARENT);
 329              		.loc 1 43 7
 330 0112 2296     		add	a2,s0,a2
 331 0114 93058002 		li	a1,40
 332 0118 13052003 		li	a0,50
 333 011c 97000000 		call	LCD_ShowStr
 333      E7800000 
 334              	.LVL27:
  44:main.c        ****       return;
 335              		.loc 1 44 7 is_stmt 1
 336 0124 0547     		li	a4,1
 337 0126 9306F07F 		li	a3,2047
 338 012a 1306F400 		addi	a2,s0,15
 339 012e 9305C003 		li	a1,60
 340 0132 0145     		li	a0,0
 341              	.LVL28:
 342              	.L10:
 343              	.LBE8:
  49:main.c        **** }
GAS LISTING /var/folders/rt/4gvqv631095f64jvm7jfj_000000gn/T//ccnu1rXG.s 			page 9


 344              		.loc 1 49 1 is_stmt 0
 345 0134 2254     		lw	s0,40(sp)
 346              		.cfi_remember_state
 347              		.cfi_restore 8
 348 0136 B250     		lw	ra,44(sp)
 349              		.cfi_restore 1
 350 0138 9254     		lw	s1,36(sp)
 351              		.cfi_restore 9
 352 013a 0259     		lw	s2,32(sp)
 353              		.cfi_restore 18
 354 013c F249     		lw	s3,28(sp)
 355              		.cfi_restore 19
 356              	.LVL29:
 357 013e 4561     		addi	sp,sp,48
 358              	.LCFI4:
 359              		.cfi_def_cfa_offset 0
  48:main.c        **** }
 360              		.loc 1 48 3
 361 0140 17030000 		tail	LCD_ShowStr
 361      67000300 
 362              	.LVL30:
 363              	.L7:
 364              	.LCFI5:
 365              		.cfi_restore_state
 366              	.LBB9:
  32:main.c        ****   {
 367              		.loc 1 32 40 discriminator 2
 368 0148 0509     		addi	s2,s2,1
 369              	.LVL31:
 370 014a E1B5     		j	.L6
 371              	.LBE9:
 372              		.cfi_endproc
 373              	.LFE7:
 375              		.section	.text.updatePlantStatus,"ax",@progbits
 376              		.align	1
 377              		.globl	updatePlantStatus
 379              	updatePlantStatus:
 380              	.LFB8:
  50:main.c        **** 
  51:main.c        **** void updatePlantStatus(Plant plantToUpdate)
  52:main.c        **** {
 381              		.loc 1 52 1 is_stmt 1
 382              		.cfi_startproc
  53:main.c        ****   // WIP : LOOPA IGENOM TIDIGARE READINGS, GĂ–R EN AVERAGE, TA REDA PĂ… STATUS. BEHĂ–VER LJUS? BEHĂ
  54:main.c        **** }
 383              		.loc 1 54 1
 384 0000 8280     		ret
 385              		.cfi_endproc
 386              	.LFE8:
 388              		.section	.text.updatePlantReading,"ax",@progbits
 389              		.align	1
 390              		.globl	updatePlantReading
 392              	updatePlantReading:
 393              	.LFB9:
  55:main.c        **** 
  56:main.c        **** void updatePlantReading(Plant allPlants[], int numberOfPlants, char name[], SensorType type)
  57:main.c        **** {
GAS LISTING /var/folders/rt/4gvqv631095f64jvm7jfj_000000gn/T//ccnu1rXG.s 			page 10


 394              		.loc 1 57 1
 395              		.cfi_startproc
 396              	.LVL32:
  58:main.c        ****   for (int i = 0; i < numberOfPlants; i++)
 397              		.loc 1 58 3
 398              	.LBB10:
 399              		.loc 1 58 8
 400              	.LBE10:
  57:main.c        ****   for (int i = 0; i < numberOfPlants; i++)
 401              		.loc 1 57 1 is_stmt 0
 402 0000 3971     		addi	sp,sp,-64
 403              	.LCFI6:
 404              		.cfi_def_cfa_offset 64
 405 0002 22DC     		sw	s0,56(sp)
 406 0004 26DA     		sw	s1,52(sp)
 407 0006 4AD8     		sw	s2,48(sp)
 408 0008 4ED6     		sw	s3,44(sp)
 409 000a 06DE     		sw	ra,60(sp)
 410              		.cfi_offset 8, -8
 411              		.cfi_offset 9, -12
 412              		.cfi_offset 18, -16
 413              		.cfi_offset 19, -20
 414              		.cfi_offset 1, -4
  57:main.c        ****   for (int i = 0; i < numberOfPlants; i++)
 415              		.loc 1 57 1
 416 000c 2E89     		mv	s2,a1
 417 000e 2A84     		mv	s0,a0
 418              	.LBB13:
 419              		.loc 1 58 12
 420 0010 8144     		li	s1,0
  59:main.c        ****   {
  60:main.c        ****     if (strcmp(allPlants[i].name, name) == 0)
  61:main.c        ****     {
  62:main.c        ****       if (type == SUN)
 421              		.loc 1 62 10
 422 0012 8549     		li	s3,1
 423              	.LVL33:
 424              	.L13:
  58:main.c        ****   {
 425              		.loc 1 58 3 discriminator 1
 426 0014 63C92403 		blt	s1,s2,.L19
 427              	.LBE13:
  63:main.c        ****       {
  64:main.c        ****         char fillWithTimeStamp[9];
  65:main.c        ****         generateTimeStamp(fillWithTimeStamp);
  66:main.c        ****         int currentValue = readSensor(ADC0, ADC_FLAG_EOC);
  67:main.c        ****         if (currentValue < 0)
  68:main.c        ****           currentValue = 0;
  69:main.c        ****         if (allPlants[i].numberOfSunReadings < MAX_SUN_READINGS)
  70:main.c        ****         {
  71:main.c        ****           allPlants[i].sun[allPlants[i].numberOfSunReadings].reading = currentValue;
  72:main.c        ****           STR_COPY(allPlants[i].sun[allPlants[i].numberOfSunReadings].timeStamp, fillWithTimeStamp)
  73:main.c        ****           (allPlants[i].numberOfSunReadings)++;
  74:main.c        ****         }
  75:main.c        ****         else
  76:main.c        ****         {
  77:main.c        ****           LCD_Fill(0, 0, 160, 80, BLACK);
GAS LISTING /var/folders/rt/4gvqv631095f64jvm7jfj_000000gn/T//ccnu1rXG.s 			page 11


  78:main.c        ****           LCD_ShowStr(0, 10, "SUN READINGS FULL", RED, TRANSPARENT);
  79:main.c        ****         }
  80:main.c        ****         return;
  81:main.c        ****       }
  82:main.c        ****     }
  83:main.c        ****   }
  84:main.c        ****   LCD_Fill(0, 0, 160, 80, BLACK);
 428              		.loc 1 84 3 is_stmt 1
 429 0018 0147     		li	a4,0
 430 001a 93060005 		li	a3,80
 431              	.LVL34:
 432 001e 1306000A 		li	a2,160
 433              	.LVL35:
 434 0022 8145     		li	a1,0
 435 0024 0145     		li	a0,0
 436 0026 97000000 		call	LCD_Fill
 436      E7800000 
 437              	.LVL36:
  85:main.c        ****   LCD_ShowStr(50, 4, "NO SUCH PLANT", RED, TRANSPARENT);
 438              		.loc 1 85 3
 439 002e C166     		li	a3,65536
 440 0030 37060000 		lui	a2,%hi(.LC1)
 441 0034 0547     		li	a4,1
 442 0036 93860680 		addi	a3,a3,-2048
 443 003a 13060600 		addi	a2,a2,%lo(.LC1)
 444 003e 9145     		li	a1,4
 445 0040 13052003 		li	a0,50
 446 0044 45A8     		j	.L21
 447              	.LVL37:
 448              	.L19:
 449              	.LBB14:
  60:main.c        ****     {
 450              		.loc 1 60 9 is_stmt 0
 451 0046 B285     		mv	a1,a2
 452 0048 2285     		mv	a0,s0
 453 004a 36C6     		sw	a3,12(sp)
  60:main.c        ****     {
 454              		.loc 1 60 5 is_stmt 1
  60:main.c        ****     {
 455              		.loc 1 60 9 is_stmt 0
 456 004c 32C4     		sw	a2,8(sp)
 457 004e 97000000 		call	strcmp
 457      E7800000 
 458              	.LVL38:
  60:main.c        ****     {
 459              		.loc 1 60 8
 460 0056 2246     		lw	a2,8(sp)
 461 0058 B246     		lw	a3,12(sp)
 462 005a 55E1     		bne	a0,zero,.L14
 463              	.LVL39:
  62:main.c        ****       {
 464              		.loc 1 62 7 is_stmt 1
  62:main.c        ****       {
 465              		.loc 1 62 10 is_stmt 0
 466 005c 6391360B 		bne	a3,s3,.L14
 467              	.LBB11:
  64:main.c        ****         generateTimeStamp(fillWithTimeStamp);
GAS LISTING /var/folders/rt/4gvqv631095f64jvm7jfj_000000gn/T//ccnu1rXG.s 			page 12


 468              		.loc 1 64 9 is_stmt 1
  65:main.c        ****         int currentValue = readSensor(ADC0, ADC_FLAG_EOC);
 469              		.loc 1 65 9
 470 0060 4808     		addi	a0,sp,20
 471 0062 97000000 		call	generateTimeStamp
 471      E7800000 
 472              	.LVL40:
  66:main.c        ****         if (currentValue < 0)
 473              		.loc 1 66 9
  66:main.c        ****         if (currentValue < 0)
 474              		.loc 1 66 28 is_stmt 0
 475 006a 37250140 		li	a0,1073815552
 476 006e 8945     		li	a1,2
 477 0070 13050540 		addi	a0,a0,1024
 478 0074 97000000 		call	readSensor
 478      E7800000 
 479              	.LVL41:
  67:main.c        ****           currentValue = 0;
 480              		.loc 1 67 9 is_stmt 1
  69:main.c        ****         {
 481              		.loc 1 69 9
  69:main.c        ****         {
 482              		.loc 1 69 25 is_stmt 0
 483 007c 83274462 		lw	a5,1572(s0)
  69:main.c        ****         {
 484              		.loc 1 69 12
 485 0080 1307F002 		li	a4,47
 486 0084 6343F704 		bgt	a5,a4,.L15
  71:main.c        ****           STR_COPY(allPlants[i].sun[allPlants[i].numberOfSunReadings].timeStamp, fillWithTimeStamp)
 487              		.loc 1 71 11 is_stmt 1
  71:main.c        ****           STR_COPY(allPlants[i].sun[allPlants[i].numberOfSunReadings].timeStamp, fillWithTimeStamp)
 488              		.loc 1 71 70 is_stmt 0
 489 0088 E907     		addi	a5,a5,26
 490 008a 13974700 		slli	a4,a5,4
 491 008e 2297     		add	a4,s0,a4
 492 0090 63530500 		bge	a0,zero,.L16
 493 0094 0145     		li	a0,0
 494              	.LVL42:
 495              	.L16:
 496 0096 48C7     		sw	a0,12(a4)
  72:main.c        ****           (allPlants[i].numberOfSunReadings)++;
 497              		.loc 1 72 11 is_stmt 1
 498 0098 37060000 		lui	a2,%hi(.LC2)
 499 009c 13954700 		slli	a0,a5,4
 500 00a0 5408     		addi	a3,sp,20
 501 00a2 13060600 		addi	a2,a2,%lo(.LC2)
 502 00a6 A945     		li	a1,10
 503 00a8 2295     		add	a0,s0,a0
 504 00aa 97000000 		call	snprintf
 504      E7800000 
 505              	.LVL43:
  73:main.c        ****         }
 506              		.loc 1 73 11
  73:main.c        ****         }
 507              		.loc 1 73 45 is_stmt 0
 508 00b2 83274462 		lw	a5,1572(s0)
 509 00b6 8507     		addi	a5,a5,1
GAS LISTING /var/folders/rt/4gvqv631095f64jvm7jfj_000000gn/T//ccnu1rXG.s 			page 13


 510 00b8 2322F462 		sw	a5,1572(s0)
 511              	.LVL44:
 512              	.L12:
 513              	.LBE11:
 514              	.LBE14:
  86:main.c        **** }
 515              		.loc 1 86 1
 516 00bc F250     		lw	ra,60(sp)
 517              		.cfi_remember_state
 518              		.cfi_restore 1
 519 00be 6254     		lw	s0,56(sp)
 520              		.cfi_restore 8
 521 00c0 D254     		lw	s1,52(sp)
 522              		.cfi_restore 9
 523              	.LVL45:
 524 00c2 4259     		lw	s2,48(sp)
 525              		.cfi_restore 18
 526              	.LVL46:
 527 00c4 B259     		lw	s3,44(sp)
 528              		.cfi_restore 19
 529 00c6 2161     		addi	sp,sp,64
 530              	.LCFI7:
 531              		.cfi_def_cfa_offset 0
 532 00c8 8280     		jr	ra
 533              	.LVL47:
 534              	.L15:
 535              	.LCFI8:
 536              		.cfi_restore_state
 537              	.LBB15:
 538              	.LBB12:
  77:main.c        ****           LCD_ShowStr(0, 10, "SUN READINGS FULL", RED, TRANSPARENT);
 539              		.loc 1 77 11 is_stmt 1
 540 00ca 0147     		li	a4,0
 541 00cc 93060005 		li	a3,80
 542 00d0 1306000A 		li	a2,160
 543 00d4 8145     		li	a1,0
 544 00d6 0145     		li	a0,0
 545              	.LVL48:
 546 00d8 97000000 		call	LCD_Fill
 546      E7800000 
 547              	.LVL49:
  78:main.c        ****         }
 548              		.loc 1 78 11
 549 00e0 C166     		li	a3,65536
 550 00e2 37060000 		lui	a2,%hi(.LC3)
 551 00e6 0547     		li	a4,1
 552 00e8 93860680 		addi	a3,a3,-2048
 553 00ec 13060600 		addi	a2,a2,%lo(.LC3)
 554 00f0 A945     		li	a1,10
 555 00f2 0145     		li	a0,0
 556              	.LVL50:
 557              	.L21:
 558              	.LBE12:
 559              	.LBE15:
  85:main.c        **** }
 560              		.loc 1 85 3 is_stmt 0
 561 00f4 97000000 		call	LCD_ShowStr
GAS LISTING /var/folders/rt/4gvqv631095f64jvm7jfj_000000gn/T//ccnu1rXG.s 			page 14


 561      E7800000 
 562              	.LVL51:
 563 00fc C1B7     		j	.L12
 564              	.LVL52:
 565              	.L14:
 566              	.LBB16:
  58:main.c        ****   {
 567              		.loc 1 58 40 discriminator 2
 568 00fe 8504     		addi	s1,s1,1
 569              	.LVL53:
 570 0100 1304047D 		addi	s0,s0,2000
 571 0104 01BF     		j	.L13
 572              	.LBE16:
 573              		.cfi_endproc
 574              	.LFE9:
 576              		.section	.text.jsonAllPlants,"ax",@progbits
 577              		.align	1
 578              		.globl	jsonAllPlants
 580              	jsonAllPlants:
 581              	.LFB10:
  87:main.c        **** 
  88:main.c        **** void jsonAllPlants(char *out, Plant allPlants[], int numberOfPlants) {
 582              		.loc 1 88 70 is_stmt 1
 583              		.cfi_startproc
 584              	.LVL54:
  89:main.c        ****     sprintf(out,
 585              		.loc 1 89 5
 586 0000 03A30562 		lw	t1,1568(a1)
 587 0004 03A74562 		lw	a4,1572(a1)
 588 0008 8567     		li	a5,4096
 589 000a 0503     		addi	t1,t1,1
 590 000c 6507     		addi	a4,a4,25
 591 000e 1203     		slli	t1,t1,4
 592 0010 1207     		slli	a4,a4,4
  88:main.c        ****     sprintf(out,
 593              		.loc 1 88 70 is_stmt 0
 594 0012 2E86     		mv	a2,a1
 595              	.LVL55:
 596              		.loc 1 89 5
 597 0014 2E93     		add	t1,a1,t1
 598 0016 2E97     		add	a4,a1,a4
 599 0018 BE95     		add	a1,a1,a5
 600              	.LVL56:
 601 001a 83A6055C 		lw	a3,1472(a1)
  88:main.c        ****     sprintf(out,
 602              		.loc 1 88 70
 603 001e 7971     		addi	sp,sp,-48
 604              	.LCFI9:
 605              		.cfi_def_cfa_offset 48
 606              		.loc 1 89 5
 607 0020 938707FA 		addi	a5,a5,-96
 608 0024 8506     		addi	a3,a3,1
 609 0026 9206     		slli	a3,a3,4
 610 0028 AE96     		add	a3,a1,a3
 611 002a 83A6C6FA 		lw	a3,-84(a3)
 612 002e B297     		add	a5,a2,a5
 613 0030 9308F67D 		addi	a7,a2,2015
GAS LISTING /var/folders/rt/4gvqv631095f64jvm7jfj_000000gn/T//ccnu1rXG.s 			page 15


 614 0034 36CA     		sw	a3,20(sp)
 615 0036 83A6455C 		lw	a3,1476(a1)
 616 003a 1308067D 		addi	a6,a2,2000
  88:main.c        ****     sprintf(out,
 617              		.loc 1 88 70
 618 003e 06D6     		sw	ra,44(sp)
 619              		.cfi_offset 1, -4
 620              		.loc 1 89 5
 621 0040 E506     		addi	a3,a3,25
 622 0042 9206     		slli	a3,a3,4
 623 0044 AE96     		add	a3,a1,a3
 624 0046 83A6C6FA 		lw	a3,-84(a3)
 625 004a 3EC4     		sw	a5,8(sp)
 626 004c 36C8     		sw	a3,16(sp)
 627 004e 9386F700 		addi	a3,a5,15
 628 0052 36C6     		sw	a3,12(sp)
 629 0054 83A705DF 		lw	a5,-528(a1)
 630 0058 9306F600 		addi	a3,a2,15
 631 005c 8507     		addi	a5,a5,1
 632 005e 9207     		slli	a5,a5,4
 633 0060 B297     		add	a5,a2,a5
 634 0062 83A7C77D 		lw	a5,2012(a5)
 635 0066 3EC2     		sw	a5,4(sp)
 636 0068 83A745DF 		lw	a5,-524(a1)
 637 006c B7050000 		lui	a1,%hi(.LC4)
 638 0070 93850500 		addi	a1,a1,%lo(.LC4)
 639 0074 E507     		addi	a5,a5,25
 640 0076 9207     		slli	a5,a5,4
 641 0078 B297     		add	a5,a2,a5
 642 007a 83A7C77D 		lw	a5,2012(a5)
 643 007e 3EC0     		sw	a5,0(sp)
 644 0080 8327C300 		lw	a5,12(t1)
 645 0084 5847     		lw	a4,12(a4)
 646 0086 97000000 		call	sprintf
 646      E7800000 
 647              	.LVL57:
  90:main.c        ****         "["
  91:main.c        ****         "{\"name\":\"%s\",\"status\":\"%s\",\"currentSun\":%d,\"currentMoisture\":%d},"
  92:main.c        ****         "{\"name\":\"%s\",\"status\":\"%s\",\"currentSun\":%d,\"currentMoisture\":%d},"
  93:main.c        ****         "{\"name\":\"%s\",\"status\":\"%s\",\"currentSun\":%d,\"currentMoisture\":%d}"
  94:main.c        ****         "]\n",
  95:main.c        ****         allPlants[0].name,
  96:main.c        ****         allPlants[0].currentStatus,
  97:main.c        ****         allPlants[0].sun[allPlants[0].numberOfSunReadings-1].reading,
  98:main.c        ****         allPlants[0].moisture[allPlants[0].numberOfMoistureReadings-1].reading,
  99:main.c        ****         allPlants[1].name,
 100:main.c        ****         allPlants[1].currentStatus,
 101:main.c        ****         allPlants[1].sun[allPlants[1].numberOfSunReadings-1].reading,
 102:main.c        ****         allPlants[1].moisture[allPlants[1].numberOfMoistureReadings-1].reading,
 103:main.c        ****         allPlants[2].name,
 104:main.c        ****         allPlants[2].currentStatus,
 105:main.c        ****         allPlants[2].sun[allPlants[2].numberOfSunReadings-1].reading,
 106:main.c        ****         allPlants[2].moisture[allPlants[2].numberOfMoistureReadings-1].reading
 107:main.c        ****     );
 108:main.c        **** }
 648              		.loc 1 108 1
 649 008e B250     		lw	ra,44(sp)
GAS LISTING /var/folders/rt/4gvqv631095f64jvm7jfj_000000gn/T//ccnu1rXG.s 			page 16


 650              		.cfi_restore 1
 651 0090 4561     		addi	sp,sp,48
 652              	.LCFI10:
 653              		.cfi_def_cfa_offset 0
 654 0092 8280     		jr	ra
 655              		.cfi_endproc
 656              	.LFE10:
 658              		.section	.text.receiveCommands,"ax",@progbits
 659              		.align	1
 660              		.globl	receiveCommands
 662              	receiveCommands:
 663              	.LFB11:
 109:main.c        **** 
 110:main.c        **** void receiveCommands(Plant allPlants[], int *numberOfPlants)
 111:main.c        **** {
 664              		.loc 1 111 1 is_stmt 1
 665              		.cfi_startproc
 666              	.LVL58:
 112:main.c        ****   LCD_Clear(BLACK);
 667              		.loc 1 112 3
 111:main.c        ****   LCD_Clear(BLACK);
 668              		.loc 1 111 1 is_stmt 0
 669 0000 130101DE 		addi	sp,sp,-544
 670              	.LCFI11:
 671              		.cfi_def_cfa_offset 544
 672 0004 232A9120 		sw	s1,532(sp)
 673              		.cfi_offset 9, -12
 674 0008 AA84     		mv	s1,a0
 675              		.loc 1 112 3
 676 000a 0145     		li	a0,0
 677              	.LVL59:
 111:main.c        ****   LCD_Clear(BLACK);
 678              		.loc 1 111 1
 679 000c 232E1120 		sw	ra,540(sp)
 680 0010 232C8120 		sw	s0,536(sp)
 681 0014 23282121 		sw	s2,528(sp)
 682 0018 23263121 		sw	s3,524(sp)
 683              		.cfi_offset 1, -4
 684              		.cfi_offset 8, -8
 685              		.cfi_offset 18, -16
 686              		.cfi_offset 19, -20
 111:main.c        ****   LCD_Clear(BLACK);
 687              		.loc 1 111 1
 688 001c 2E89     		mv	s2,a1
 689              		.loc 1 112 3
 690 001e 97000000 		call	LCD_Clear
 690      E7800000 
 691              	.LVL60:
 113:main.c        ****   LCD_ShowStr(0, 0, "in receive commands", WHITE, TRANSPARENT);
 692              		.loc 1 113 3 is_stmt 1
 693 0026 C166     		li	a3,65536
 694 0028 37060000 		lui	a2,%hi(.LC5)
 695 002c 0547     		li	a4,1
 696 002e 13060600 		addi	a2,a2,%lo(.LC5)
 697 0032 8145     		li	a1,0
 698 0034 FD16     		addi	a3,a3,-1
 699 0036 0145     		li	a0,0
GAS LISTING /var/folders/rt/4gvqv631095f64jvm7jfj_000000gn/T//ccnu1rXG.s 			page 17


 700 0038 97000000 		call	LCD_ShowStr
 700      E7800000 
 701              	.LVL61:
 114:main.c        ****   for (int j = 0; j < commandBufferIndex; j++)
 702              		.loc 1 114 3
 703              	.LBB17:
 704              		.loc 1 114 8
 705              		.loc 1 114 21 is_stmt 0
 706 0040 37070000 		lui	a4,%hi(commandBufferIndex)
 115:main.c        ****   {
 116:main.c        ****     if (commandBuffer[j] == '\n')
 707              		.loc 1 116 22
 708 0044 37040000 		lui	s0,%hi(commandBuffer)
 114:main.c        ****   for (int j = 0; j < commandBufferIndex; j++)
 709              		.loc 1 114 12
 710 0048 8147     		li	a5,0
 711 004a BA89     		mv	s3,a4
 712              		.loc 1 116 22
 713 004c 13060400 		addi	a2,s0,%lo(commandBuffer)
 714              		.loc 1 116 8
 715 0050 A945     		li	a1,10
 716              	.LVL62:
 717              	.L25:
 114:main.c        ****   for (int j = 0; j < commandBufferIndex; j++)
 718              		.loc 1 114 21 discriminator 1
 719 0052 83260700 		lw	a3,%lo(commandBufferIndex)(a4)
 114:main.c        ****   for (int j = 0; j < commandBufferIndex; j++)
 720              		.loc 1 114 3 discriminator 1
 721 0056 63D2D704 		ble	a3,a5,.L24
 722              		.loc 1 116 5 is_stmt 1
 723              		.loc 1 116 22 is_stmt 0
 724 005a B306F600 		add	a3,a2,a5
 725 005e 03C50600 		lbu	a0,0(a3)
 726              		.loc 1 116 8
 727 0062 6394A50E 		bne	a1,a0,.L26
 117:main.c        ****     {
 118:main.c        ****       commandBuffer[j] = '\0';
 728              		.loc 1 118 7 is_stmt 1
 119:main.c        ****       if (!strcmp((char *)commandBuffer, "renderAllPlants"))
 729              		.loc 1 119 12 is_stmt 0
 730 0066 B7050000 		lui	a1,%hi(.LC6)
 731 006a 93850500 		addi	a1,a1,%lo(.LC6)
 732 006e 13050400 		addi	a0,s0,%lo(commandBuffer)
 118:main.c        ****       if (!strcmp((char *)commandBuffer, "renderAllPlants"))
 733              		.loc 1 118 24
 734 0072 23800600 		sb	zero,0(a3)
 735              		.loc 1 119 7 is_stmt 1
 736              		.loc 1 119 12 is_stmt 0
 737 0076 97000000 		call	strcmp
 737      E7800000 
 738              	.LVL63:
 739              		.loc 1 119 10
 740 007e 1DE9     		bne	a0,zero,.L27
 120:main.c        ****       {
 121:main.c        ****         LCD_Clear(BLACK);
 741              		.loc 1 121 9 is_stmt 1
 742 0080 97000000 		call	LCD_Clear
GAS LISTING /var/folders/rt/4gvqv631095f64jvm7jfj_000000gn/T//ccnu1rXG.s 			page 18


 742      E7800000 
 743              	.LVL64:
 122:main.c        ****         renderAllPlants(allPlants, *numberOfPlants);
 744              		.loc 1 122 9
 745 0088 83250900 		lw	a1,0(s2)
 746 008c 2685     		mv	a0,s1
 747 008e 97000000 		call	renderAllPlants
 747      E7800000 
 748              	.LVL65:
 749              	.L28:
 123:main.c        ****       } 
 124:main.c        ****       
 125:main.c        ****       
 126:main.c        ****       else if (!strcmp((char *)commandBuffer, "getAllPlants")){
 127:main.c        ****         LCD_Clear(BLACK);
 128:main.c        ****         LCD_ShowStr(0, 0, "transmit in session", WHITE, TRANSPARENT);
 129:main.c        **** 
 130:main.c        ****         char data[512];
 131:main.c        ****         jsonAllPlants(data, allPlants, *numberOfPlants);
 132:main.c        ****         putstr(data);
 133:main.c        ****       } 
 134:main.c        **** 
 135:main.c        ****       else {
 136:main.c        ****         LCD_Clear(BLACK);
 137:main.c        ****         LCD_ShowStr(0, 0, "BAD COMMAND:", WHITE, TRANSPARENT);
 138:main.c        ****         LCD_ShowStr(0, 13, (char *)commandBuffer, WHITE, TRANSPARENT);
 139:main.c        ****         putstr((char *)commandBuffer);
 140:main.c        ****       }
 141:main.c        ****       commandBufferIndex = 0;
 750              		.loc 1 141 7
 751              		.loc 1 141 26 is_stmt 0
 752 0096 23A00900 		sw	zero,%lo(commandBufferIndex)(s3)
 142:main.c        ****       break;
 753              		.loc 1 142 7 is_stmt 1
 754              	.L24:
 755              	.LBE17:
 143:main.c        ****     }
 144:main.c        ****   }
 145:main.c        **** }
 756              		.loc 1 145 1 is_stmt 0
 757 009a 8320C121 		lw	ra,540(sp)
 758              		.cfi_remember_state
 759              		.cfi_restore 1
 760 009e 03248121 		lw	s0,536(sp)
 761              		.cfi_restore 8
 762 00a2 83244121 		lw	s1,532(sp)
 763              		.cfi_restore 9
 764 00a6 03290121 		lw	s2,528(sp)
 765              		.cfi_restore 18
 766              	.LVL66:
 767 00aa 8329C120 		lw	s3,524(sp)
 768              		.cfi_restore 19
 769 00ae 13010122 		addi	sp,sp,544
 770              	.LCFI12:
 771              		.cfi_def_cfa_offset 0
 772 00b2 8280     		jr	ra
 773              	.LVL67:
GAS LISTING /var/folders/rt/4gvqv631095f64jvm7jfj_000000gn/T//ccnu1rXG.s 			page 19


 774              	.L27:
 775              	.LCFI13:
 776              		.cfi_restore_state
 777              	.LBB19:
 126:main.c        ****         LCD_Clear(BLACK);
 778              		.loc 1 126 12 is_stmt 1
 126:main.c        ****         LCD_Clear(BLACK);
 779              		.loc 1 126 17 is_stmt 0
 780 00b4 B7050000 		lui	a1,%hi(.LC7)
 781 00b8 93850500 		addi	a1,a1,%lo(.LC7)
 782 00bc 13050400 		addi	a0,s0,%lo(commandBuffer)
 783 00c0 97000000 		call	strcmp
 783      E7800000 
 784              	.LVL68:
 126:main.c        ****         LCD_Clear(BLACK);
 785              		.loc 1 126 15
 786 00c8 21E1     		bne	a0,zero,.L29
 787              	.LBB18:
 127:main.c        ****         LCD_ShowStr(0, 0, "transmit in session", WHITE, TRANSPARENT);
 788              		.loc 1 127 9 is_stmt 1
 789 00ca 97000000 		call	LCD_Clear
 789      E7800000 
 790              	.LVL69:
 128:main.c        **** 
 791              		.loc 1 128 9
 792 00d2 C166     		li	a3,65536
 793 00d4 37060000 		lui	a2,%hi(.LC8)
 794 00d8 0547     		li	a4,1
 795 00da FD16     		addi	a3,a3,-1
 796 00dc 13060600 		addi	a2,a2,%lo(.LC8)
 797 00e0 8145     		li	a1,0
 798 00e2 0145     		li	a0,0
 799 00e4 97000000 		call	LCD_ShowStr
 799      E7800000 
 800              	.LVL70:
 130:main.c        ****         jsonAllPlants(data, allPlants, *numberOfPlants);
 801              		.loc 1 130 9
 131:main.c        ****         putstr(data);
 802              		.loc 1 131 9
 803 00ec 03260900 		lw	a2,0(s2)
 804 00f0 0A85     		mv	a0,sp
 805 00f2 A685     		mv	a1,s1
 806 00f4 97000000 		call	jsonAllPlants
 806      E7800000 
 807              	.LVL71:
 132:main.c        ****       } 
 808              		.loc 1 132 9
 809 00fc 0A85     		mv	a0,sp
 810              	.LVL72:
 811              	.L33:
 812              	.LBE18:
 139:main.c        ****       }
 813              		.loc 1 139 9 is_stmt 0
 814 00fe 97000000 		call	putstr
 814      E7800000 
 815              	.LVL73:
 816 0106 41BF     		j	.L28
GAS LISTING /var/folders/rt/4gvqv631095f64jvm7jfj_000000gn/T//ccnu1rXG.s 			page 20


 817              	.LVL74:
 818              	.L29:
 136:main.c        ****         LCD_ShowStr(0, 0, "BAD COMMAND:", WHITE, TRANSPARENT);
 819              		.loc 1 136 9 is_stmt 1
 820 0108 0145     		li	a0,0
 821 010a 97000000 		call	LCD_Clear
 821      E7800000 
 822              	.LVL75:
 137:main.c        ****         LCD_ShowStr(0, 13, (char *)commandBuffer, WHITE, TRANSPARENT);
 823              		.loc 1 137 9
 824 0112 C164     		li	s1,65536
 825              	.LVL76:
 826 0114 37060000 		lui	a2,%hi(.LC9)
 827 0118 0547     		li	a4,1
 828 011a 9386F4FF 		addi	a3,s1,-1
 829 011e 13060600 		addi	a2,a2,%lo(.LC9)
 830 0122 8145     		li	a1,0
 831 0124 0145     		li	a0,0
 832 0126 97000000 		call	LCD_ShowStr
 832      E7800000 
 833              	.LVL77:
 138:main.c        ****         putstr((char *)commandBuffer);
 834              		.loc 1 138 9
 835 012e 0145     		li	a0,0
 836 0130 0547     		li	a4,1
 837 0132 9386F4FF 		addi	a3,s1,-1
 838 0136 13060400 		addi	a2,s0,%lo(commandBuffer)
 839 013a B545     		li	a1,13
 840 013c 97000000 		call	LCD_ShowStr
 840      E7800000 
 841              	.LVL78:
 139:main.c        ****       }
 842              		.loc 1 139 9
 843 0144 13050400 		addi	a0,s0,%lo(commandBuffer)
 844 0148 5DBF     		j	.L33
 845              	.LVL79:
 846              	.L26:
 114:main.c        ****   {
 847              		.loc 1 114 44 is_stmt 0 discriminator 2
 848 014a 8507     		addi	a5,a5,1
 849              	.LVL80:
 850 014c 19B7     		j	.L25
 851              	.LBE19:
 852              		.cfi_endproc
 853              	.LFE11:
 855              		.section	.text.startup.main,"ax",@progbits
 856              		.align	1
 857              		.globl	main
 859              	main:
 860              	.LFB12:
 146:main.c        **** 
 147:main.c        **** int main(void)
 148:main.c        **** {
 861              		.loc 1 148 1 is_stmt 1
 862              		.cfi_startproc
 149:main.c        ****   int ms = 0, s = 0, idle = 0;
 863              		.loc 1 149 3
GAS LISTING /var/folders/rt/4gvqv631095f64jvm7jfj_000000gn/T//ccnu1rXG.s 			page 21


 864              	.LVL81:
 150:main.c        **** 
 151:main.c        ****   Plant allPlants[3];
 865              		.loc 1 151 3
 152:main.c        ****   int numberOfPlants = 0;
 866              		.loc 1 152 3
 148:main.c        ****   int ms = 0, s = 0, idle = 0;
 867              		.loc 1 148 1 is_stmt 0
 868 0000 7D73     		li	t1,-4096
 869 0002 13010184 		addi	sp,sp,-1984
 870              	.LCFI14:
 871              		.cfi_def_cfa_offset 1984
 872              		.loc 1 152 7
 873 0006 0565     		li	a0,4096
 148:main.c        ****   int ms = 0, s = 0, idle = 0;
 874              		.loc 1 148 1
 875 0008 232E117A 		sw	ra,1980(sp)
 876 000c 232C817A 		sw	s0,1976(sp)
 877 0010 232A917A 		sw	s1,1972(sp)
 878 0014 2328217B 		sw	s2,1968(sp)
 879 0018 2326317B 		sw	s3,1964(sp)
 880 001c 2324417B 		sw	s4,1960(sp)
 881 0020 2322517B 		sw	s5,1956(sp)
 882              		.loc 1 152 7
 883 0024 9307057A 		addi	a5,a0,1952
 148:main.c        ****   int ms = 0, s = 0, idle = 0;
 884              		.loc 1 148 1
 885 0028 1A91     		add	sp,sp,t1
 886              	.LCFI15:
 887              		.cfi_def_cfa_offset 6080
 888              		.cfi_offset 1, -4
 889              		.cfi_offset 8, -8
 890              		.cfi_offset 9, -12
 891              		.cfi_offset 18, -16
 892              		.cfi_offset 19, -20
 893              		.cfi_offset 20, -24
 894              		.cfi_offset 21, -28
 895              		.loc 1 152 7
 896 002a FD75     		li	a1,-4096
 897 002c 8A97     		add	a5,a5,sp
 898 002e 3389B700 		add	s2,a5,a1
 153:main.c        ****   initPlant("Gurka", &numberOfPlants, allPlants,
 899              		.loc 1 153 3
 900 0032 9307057A 		addi	a5,a0,1952
 901 0036 13840589 		addi	s0,a1,-1904
 902 003a 8A97     		add	a5,a5,sp
 152:main.c        ****   int numberOfPlants = 0;
 903              		.loc 1 152 7
 904 003c 23260988 		sw	zero,-1908(s2)
 905              		.loc 1 153 3 is_stmt 1
 906 0040 3E94     		add	s0,a5,s0
 907 0042 F147     		li	a5,28
 908 0044 3ECC     		sw	a5,24(sp)
 909 0046 CD47     		li	a5,19
 910 0048 3ECA     		sw	a5,20(sp)
 911 004a DD47     		li	a5,23
 912 004c 3EC8     		sw	a5,16(sp)
GAS LISTING /var/folders/rt/4gvqv631095f64jvm7jfj_000000gn/T//ccnu1rXG.s 			page 22


 913 004e 93076004 		li	a5,70
 914 0052 3EC6     		sw	a5,12(sp)
 915 0054 D147     		li	a5,20
 916 0056 3EC4     		sw	a5,8(sp)
 917 0058 1305057A 		addi	a0,a0,1952
 918 005c 93072003 		li	a5,50
 919 0060 3EC2     		sw	a5,4(sp)
 920 0062 0A95     		add	a0,a0,sp
 921 0064 9307A005 		li	a5,90
 922 0068 9385C588 		addi	a1,a1,-1908
 923 006c B7090000 		lui	s3,%hi(.LC10)
 924 0070 AA95     		add	a1,a0,a1
 925 0072 D148     		li	a7,20
 926 0074 13086004 		li	a6,70
 927 0078 1307C003 		li	a4,60
 928 007c 93068070 		li	a3,1800
 929 0080 2286     		mv	a2,s0
 930 0082 13850900 		addi	a0,s3,%lo(.LC10)
 931 0086 3EC0     		sw	a5,0(sp)
 932 0088 93078070 		li	a5,1800
 933 008c 97000000 		call	initPlant
 933      E7800000 
 934              	.LVL82:
 154:main.c        ****     1800, 60, 1800,
 155:main.c        ****     70, 20, 90,
 156:main.c        ****     50, 20, 70,
 157:main.c        ****     23, 19, 28);
 158:main.c        **** 
 159:main.c        ****   t5omsi(); // Initialize timer5 1kHz
 935              		.loc 1 159 3
 936 0094 97000000 		call	t5omsi
 936      E7800000 
 937              	.LVL83:
 160:main.c        ****   colinit();
 938              		.loc 1 160 3
 939 009c 97000000 		call	colinit
 939      E7800000 
 940              	.LVL84:
 161:main.c        ****   l88init();
 941              		.loc 1 161 3
 942 00a4 97000000 		call	l88init
 942      E7800000 
 943              	.LVL85:
 162:main.c        ****   // keyinit();          // Initialize keyboard toolbox
 163:main.c        ****   rtcInit();
 944              		.loc 1 163 3
 945 00ac 97000000 		call	rtcInit
 945      E7800000 
 946              	.LVL86:
 164:main.c        ****   rtc_counter_set(0);
 947              		.loc 1 164 3
 948 00b4 0145     		li	a0,0
 949 00b6 97000000 		call	rtc_counter_set
 949      E7800000 
 950              	.LVL87:
 165:main.c        **** 
 166:main.c        ****   //u0init(EI); // Init WiFi Ă¶ver UART
GAS LISTING /var/folders/rt/4gvqv631095f64jvm7jfj_000000gn/T//ccnu1rXG.s 			page 23


 167:main.c        **** 
 168:main.c        ****   eclic_global_interrupt_enable();
 951              		.loc 1 168 3
 952 00be 97000000 		call	eclic_global_interrupt_enable
 952      E7800000 
 953              	.LVL88:
 169:main.c        ****   ADC3powerUpInit(0); // Initialize ADC0, Ch3
 954              		.loc 1 169 3
 955 00c6 0145     		li	a0,0
 956 00c8 97000000 		call	ADC3powerUpInit
 956      E7800000 
 957              	.LVL89:
 170:main.c        **** 
 171:main.c        ****   Lcd_SetType(LCD_INVERTED);
 958              		.loc 1 171 3
 959 00d0 0545     		li	a0,1
 960 00d2 97000000 		call	Lcd_SetType
 960      E7800000 
 961              	.LVL90:
 172:main.c        ****   Lcd_Init();
 962              		.loc 1 172 3
 963 00da 97000000 		call	Lcd_Init
 963      E7800000 
 964              	.LVL91:
 173:main.c        ****   LCD_Fill(0, 0, 160, 80, BLACK);
 965              		.loc 1 173 3
 966 00e2 0147     		li	a4,0
 967 00e4 93060005 		li	a3,80
 968 00e8 1306000A 		li	a2,160
 969 00ec 8145     		li	a1,0
 970 00ee 0145     		li	a0,0
 971 00f0 97000000 		call	LCD_Fill
 971      E7800000 
 972              	.LVL92:
 149:main.c        **** 
 973              		.loc 1 149 22 is_stmt 0
 974 00f8 8144     		li	s1,0
 149:main.c        **** 
 975              		.loc 1 149 7
 976 00fa 014A     		li	s4,0
 174:main.c        **** 
 175:main.c        ****   while (1)
 176:main.c        ****   {
 177:main.c        ****     idle++;
 178:main.c        ****     /*if (commandBufferIndex > 0)
 179:main.c        ****       receiveCommands(allPlants, &numberOfPlants);
 180:main.c        ****     */
 181:main.c        ****     if (t5expq())
 182:main.c        ****     {
 183:main.c        ****       l88row(colset());
 184:main.c        ****       ms++;
 185:main.c        ****       if (ms == 1000)
 977              		.loc 1 185 10
 978 00fc 930A803E 		li	s5,1000
 979              	.LVL93:
 980              	.L35:
 175:main.c        ****   {
GAS LISTING /var/folders/rt/4gvqv631095f64jvm7jfj_000000gn/T//ccnu1rXG.s 			page 24


 981              		.loc 1 175 3 is_stmt 1
 177:main.c        ****     /*if (commandBufferIndex > 0)
 982              		.loc 1 177 5
 177:main.c        ****     /*if (commandBufferIndex > 0)
 983              		.loc 1 177 9 is_stmt 0
 984 0100 8504     		addi	s1,s1,1
 985              	.LVL94:
 181:main.c        ****     {
 986              		.loc 1 181 5 is_stmt 1
 181:main.c        ****     {
 987              		.loc 1 181 9 is_stmt 0
 988 0102 97000000 		call	t5expq
 988      E7800000 
 989              	.LVL95:
 181:main.c        ****     {
 990              		.loc 1 181 8
 991 010a 7DD9     		beq	a0,zero,.L35
 992 010c 050A     		addi	s4,s4,1
 993              	.LVL96:
 183:main.c        ****       ms++;
 994              		.loc 1 183 7 is_stmt 1
 995 010e 97000000 		call	colset
 995      E7800000 
 996              	.LVL97:
 997 0116 97000000 		call	l88row
 997      E7800000 
 998              	.LVL98:
 184:main.c        ****       if (ms == 1000)
 999              		.loc 1 184 7
 1000              		.loc 1 185 7
 1001              		.loc 1 185 10 is_stmt 0
 1002 011e E3115AFF 		bne	s4,s5,.L35
 186:main.c        ****       {
 187:main.c        ****         // updatePlantReading(allPlants, numberOfPlants, "Tomat", SUN);
 188:main.c        ****         //  renderAllPlants(allPlants, numberOfPlants);
 189:main.c        ****         renderOnePlant(allPlants, numberOfPlants, "Gurka");
 1003              		.loc 1 189 9 is_stmt 1
 1004 0122 8325C988 		lw	a1,-1908(s2)
 1005 0126 13860900 		addi	a2,s3,%lo(.LC10)
 1006 012a 2285     		mv	a0,s0
 1007 012c 97000000 		call	renderOnePlant
 1007      E7800000 
 1008              	.LVL99:
 190:main.c        **** 
 191:main.c        ****         l88mem(0, idle >> 8); // ...Performance monitor
 1009              		.loc 1 191 9
 1010 0134 93D58440 		srai	a1,s1,8
 1011 0138 0145     		li	a0,0
 1012 013a 97000000 		call	l88mem
 1012      E7800000 
 1013              	.LVL100:
 192:main.c        ****         l88mem(1, idle);
 1014              		.loc 1 192 9
 1015 0142 A685     		mv	a1,s1
 1016 0144 0545     		li	a0,1
 1017 0146 97000000 		call	l88mem
 1017      E7800000 
GAS LISTING /var/folders/rt/4gvqv631095f64jvm7jfj_000000gn/T//ccnu1rXG.s 			page 25


 1018              	.LVL101:
 193:main.c        ****         idle = 0;
 1019              		.loc 1 193 9
 1020              		.loc 1 193 14 is_stmt 0
 1021 014e 8144     		li	s1,0
 1022 0150 45BF     		j	.L35
 1023              		.cfi_endproc
 1024              	.LFE12:
 1026              		.section	.rodata.jsonAllPlants.str1.4,"aMS",@progbits,1
 1027              		.align	2
 1028              	.LC4:
 1029 0000 5B7B226E 		.string	"[{\"name\":\"%s\",\"status\":\"%s\",\"currentSun\":%d,\"currentMoisture\":%d},{\"name\":\
 1029      616D6522 
 1029      3A222573 
 1029      222C2273 
 1029      74617475 
 1030              		.section	.rodata.main.str1.4,"aMS",@progbits,1
 1031              		.align	2
 1032              	.LC10:
 1033 0000 4775726B 		.string	"Gurka"
 1033      6100
 1034              		.section	.rodata.receiveCommands.str1.4,"aMS",@progbits,1
 1035              		.align	2
 1036              	.LC5:
 1037 0000 696E2072 		.string	"in receive commands"
 1037      65636569 
 1037      76652063 
 1037      6F6D6D61 
 1037      6E647300 
 1038              	.LC6:
 1039 0014 72656E64 		.string	"renderAllPlants"
 1039      6572416C 
 1039      6C506C61 
 1039      6E747300 
 1040              	.LC7:
 1041 0024 67657441 		.string	"getAllPlants"
 1041      6C6C506C 
 1041      616E7473 
 1041      00
 1042 0031 000000   		.zero	3
 1043              	.LC8:
 1044 0034 7472616E 		.string	"transmit in session"
 1044      736D6974 
 1044      20696E20 
 1044      73657373 
 1044      696F6E00 
 1045              	.LC9:
 1046 0048 42414420 		.string	"BAD COMMAND:"
 1046      434F4D4D 
 1046      414E443A 
 1046      00
 1047              		.section	.rodata.renderAllPlants.str1.4,"aMS",@progbits,1
 1048              		.align	2
 1049              	.LC0:
 1050 0000 2500     		.string	"%"
 1051              		.section	.rodata.renderOnePlant.str1.4,"aMS",@progbits,1
 1052              		.align	2
GAS LISTING /var/folders/rt/4gvqv631095f64jvm7jfj_000000gn/T//ccnu1rXG.s 			page 26


 1053              	.LC1:
 1054 0000 4E4F2053 		.string	"NO SUCH PLANT"
 1054      55434820 
 1054      504C414E 
 1054      5400
 1055              		.section	.rodata.updatePlantReading.str1.4,"aMS",@progbits,1
 1056              		.align	2
 1057              	.LC2:
 1058 0000 257300   		.string	"%s"
 1059 0003 00       		.zero	1
 1060              	.LC3:
 1061 0004 53554E20 		.string	"SUN READINGS FULL"
 1061      52454144 
 1061      494E4753 
 1061      2046554C 
 1061      4C00
 1062              		.text
 1063              	.Letext0:
 1064              		.file 2 "/Users/alexstrae/toolchain-gd32v-v202-osx/compiler/riscv64-unknown-elf/include/machine/_d
 1065              		.file 3 "/Users/alexstrae/toolchain-gd32v-v202-osx/compiler/riscv64-unknown-elf/include/sys/_stdin
 1066              		.file 4 "/Users/alexstrae/toolchain-gd32v-v202-osx/compiler/lib/gcc/riscv64-unknown-elf/8.3.0/incl
 1067              		.file 5 "/Users/alexstrae/toolchain-gd32v-v202-osx/compiler/riscv64-unknown-elf/include/sys/_types
 1068              		.file 6 "/Users/alexstrae/toolchain-gd32v-v202-osx/compiler/riscv64-unknown-elf/include/sys/reent.
 1069              		.file 7 "/Users/alexstrae/toolchain-gd32v-v202-osx/compiler/riscv64-unknown-elf/include/sys/lock.h
 1070              		.file 8 "../../firmware/GD32VF103_standard_peripheral/system_gd32vf103.h"
 1071              		.file 9 "/Users/alexstrae/toolchain-gd32v-v202-osx/compiler/riscv64-unknown-elf/include/stdlib.h"
 1072              		.file 10 "lcd.h"
 1073              		.file 11 "plant.h"
 1074              		.file 12 "usart.h"
 1075              		.file 13 "drivers.h"
 1076              		.file 14 "utilities.h"
 1077              		.file 15 "../../firmware/GD32VF103_standard_peripheral/Include/gd32vf103_rtc.h"
 1078              		.file 16 "../../firmware/GD32VF103_standard_peripheral/Include/gd32vf103_eclic.h"
 1079              		.file 17 "adc.h"
 1080              		.file 18 "/Users/alexstrae/toolchain-gd32v-v202-osx/compiler/riscv64-unknown-elf/include/string.h"
 1081              		.file 19 "/Users/alexstrae/toolchain-gd32v-v202-osx/compiler/riscv64-unknown-elf/include/stdio.h"
GAS LISTING /var/folders/rt/4gvqv631095f64jvm7jfj_000000gn/T//ccnu1rXG.s 			page 27


DEFINED SYMBOLS
                            *ABS*:0000000000000000 main.c
/var/folders/rt/4gvqv631095f64jvm7jfj_000000gn/T//ccnu1rXG.s:13     .text.renderAllPlants:0000000000000000 renderAllPlants
/var/folders/rt/4gvqv631095f64jvm7jfj_000000gn/T//ccnu1rXG.s:17     .text.renderAllPlants:0000000000000000 .L0 
/var/folders/rt/4gvqv631095f64jvm7jfj_000000gn/T//ccnu1rXG.s:19     .text.renderAllPlants:0000000000000000 .L0 
/var/folders/rt/4gvqv631095f64jvm7jfj_000000gn/T//ccnu1rXG.s:21     .text.renderAllPlants:0000000000000000 .L0 
/var/folders/rt/4gvqv631095f64jvm7jfj_000000gn/T//ccnu1rXG.s:23     .text.renderAllPlants:0000000000000000 .L0 
/var/folders/rt/4gvqv631095f64jvm7jfj_000000gn/T//ccnu1rXG.s:24     .text.renderAllPlants:0000000000000000 .L0 
/var/folders/rt/4gvqv631095f64jvm7jfj_000000gn/T//ccnu1rXG.s:26     .text.renderAllPlants:0000000000000002 .L0 
/var/folders/rt/4gvqv631095f64jvm7jfj_000000gn/T//ccnu1rXG.s:28     .text.renderAllPlants:0000000000000004 .L0 
/var/folders/rt/4gvqv631095f64jvm7jfj_000000gn/T//ccnu1rXG.s:31     .text.renderAllPlants:0000000000000004 .L0 
/var/folders/rt/4gvqv631095f64jvm7jfj_000000gn/T//ccnu1rXG.s:34     .text.renderAllPlants:0000000000000006 .L0 
/var/folders/rt/4gvqv631095f64jvm7jfj_000000gn/T//ccnu1rXG.s:42     .text.renderAllPlants:0000000000000016 .L0 
/var/folders/rt/4gvqv631095f64jvm7jfj_000000gn/T//ccnu1rXG.s:43     .text.renderAllPlants:0000000000000016 .L0 
/var/folders/rt/4gvqv631095f64jvm7jfj_000000gn/T//ccnu1rXG.s:44     .text.renderAllPlants:0000000000000016 .L0 
/var/folders/rt/4gvqv631095f64jvm7jfj_000000gn/T//ccnu1rXG.s:45     .text.renderAllPlants:0000000000000016 .L0 
/var/folders/rt/4gvqv631095f64jvm7jfj_000000gn/T//ccnu1rXG.s:46     .text.renderAllPlants:0000000000000016 .L0 
/var/folders/rt/4gvqv631095f64jvm7jfj_000000gn/T//ccnu1rXG.s:47     .text.renderAllPlants:0000000000000016 .L0 
/var/folders/rt/4gvqv631095f64jvm7jfj_000000gn/T//ccnu1rXG.s:48     .text.renderAllPlants:0000000000000016 .L0 
/var/folders/rt/4gvqv631095f64jvm7jfj_000000gn/T//ccnu1rXG.s:49     .text.renderAllPlants:0000000000000016 .L0 
/var/folders/rt/4gvqv631095f64jvm7jfj_000000gn/T//ccnu1rXG.s:51     .text.renderAllPlants:0000000000000016 .L0 
/var/folders/rt/4gvqv631095f64jvm7jfj_000000gn/T//ccnu1rXG.s:55     .text.renderAllPlants:000000000000001a .L0 
/var/folders/rt/4gvqv631095f64jvm7jfj_000000gn/T//ccnu1rXG.s:58     .text.renderAllPlants:0000000000000020 .L0 
/var/folders/rt/4gvqv631095f64jvm7jfj_000000gn/T//ccnu1rXG.s:60     .text.renderAllPlants:0000000000000022 .L0 
/var/folders/rt/4gvqv631095f64jvm7jfj_000000gn/T//ccnu1rXG.s:64     .text.renderAllPlants:0000000000000026 .L0 
/var/folders/rt/4gvqv631095f64jvm7jfj_000000gn/T//ccnu1rXG.s:67     .text.renderAllPlants:000000000000002a .L0 
/var/folders/rt/4gvqv631095f64jvm7jfj_000000gn/T//ccnu1rXG.s:68     .text.renderAllPlants:000000000000002c .L0 
/var/folders/rt/4gvqv631095f64jvm7jfj_000000gn/T//ccnu1rXG.s:69     .text.renderAllPlants:000000000000002c .L0 
/var/folders/rt/4gvqv631095f64jvm7jfj_000000gn/T//ccnu1rXG.s:71     .text.renderAllPlants:000000000000002e .L0 
/var/folders/rt/4gvqv631095f64jvm7jfj_000000gn/T//ccnu1rXG.s:73     .text.renderAllPlants:0000000000000030 .L0 
/var/folders/rt/4gvqv631095f64jvm7jfj_000000gn/T//ccnu1rXG.s:75     .text.renderAllPlants:0000000000000032 .L0 
/var/folders/rt/4gvqv631095f64jvm7jfj_000000gn/T//ccnu1rXG.s:77     .text.renderAllPlants:0000000000000034 .L0 
/var/folders/rt/4gvqv631095f64jvm7jfj_000000gn/T//ccnu1rXG.s:79     .text.renderAllPlants:0000000000000036 .L0 
/var/folders/rt/4gvqv631095f64jvm7jfj_000000gn/T//ccnu1rXG.s:82     .text.renderAllPlants:0000000000000038 .L0 
/var/folders/rt/4gvqv631095f64jvm7jfj_000000gn/T//ccnu1rXG.s:84     .text.renderAllPlants:000000000000003a .L0 
/var/folders/rt/4gvqv631095f64jvm7jfj_000000gn/T//ccnu1rXG.s:87     .text.renderAllPlants:000000000000003c .L0 
/var/folders/rt/4gvqv631095f64jvm7jfj_000000gn/T//ccnu1rXG.s:90     .text.renderAllPlants:000000000000003e .L0 
/var/folders/rt/4gvqv631095f64jvm7jfj_000000gn/T//ccnu1rXG.s:95     .text.renderAllPlants:0000000000000040 .L0 
/var/folders/rt/4gvqv631095f64jvm7jfj_000000gn/T//ccnu1rXG.s:98     .text.renderAllPlants:0000000000000040 .L0 
/var/folders/rt/4gvqv631095f64jvm7jfj_000000gn/T//ccnu1rXG.s:104    .text.renderAllPlants:000000000000004c .L0 
/var/folders/rt/4gvqv631095f64jvm7jfj_000000gn/T//ccnu1rXG.s:107    .text.renderAllPlants:000000000000004e .L0 
/var/folders/rt/4gvqv631095f64jvm7jfj_000000gn/T//ccnu1rXG.s:111    .text.renderAllPlants:0000000000000058 .L0 
/var/folders/rt/4gvqv631095f64jvm7jfj_000000gn/T//ccnu1rXG.s:112    .text.renderAllPlants:0000000000000058 .L0 
/var/folders/rt/4gvqv631095f64jvm7jfj_000000gn/T//ccnu1rXG.s:114    .text.renderAllPlants:000000000000005c .L0 
/var/folders/rt/4gvqv631095f64jvm7jfj_000000gn/T//ccnu1rXG.s:117    .text.renderAllPlants:0000000000000060 .L0 
/var/folders/rt/4gvqv631095f64jvm7jfj_000000gn/T//ccnu1rXG.s:121    .text.renderAllPlants:0000000000000066 .L0 
/var/folders/rt/4gvqv631095f64jvm7jfj_000000gn/T//ccnu1rXG.s:127    .text.renderAllPlants:0000000000000074 .L0 
/var/folders/rt/4gvqv631095f64jvm7jfj_000000gn/T//ccnu1rXG.s:136    .text.renderAllPlants:000000000000008c .L0 
/var/folders/rt/4gvqv631095f64jvm7jfj_000000gn/T//ccnu1rXG.s:137    .text.renderAllPlants:000000000000008c .L0 
/var/folders/rt/4gvqv631095f64jvm7jfj_000000gn/T//ccnu1rXG.s:139    .text.renderAllPlants:0000000000000090 .L0 
/var/folders/rt/4gvqv631095f64jvm7jfj_000000gn/T//ccnu1rXG.s:142    .text.renderAllPlants:0000000000000094 .L0 
/var/folders/rt/4gvqv631095f64jvm7jfj_000000gn/T//ccnu1rXG.s:146    .text.renderAllPlants:000000000000009a .L0 
/var/folders/rt/4gvqv631095f64jvm7jfj_000000gn/T//ccnu1rXG.s:152    .text.renderAllPlants:00000000000000aa .L0 
/var/folders/rt/4gvqv631095f64jvm7jfj_000000gn/T//ccnu1rXG.s:160    .text.renderAllPlants:00000000000000c0 .L0 
/var/folders/rt/4gvqv631095f64jvm7jfj_000000gn/T//ccnu1rXG.s:170    .text.renderAllPlants:00000000000000de .L0 
/var/folders/rt/4gvqv631095f64jvm7jfj_000000gn/T//ccnu1rXG.s:177    .text.renderOnePlant:0000000000000000 renderOnePlant
/var/folders/rt/4gvqv631095f64jvm7jfj_000000gn/T//ccnu1rXG.s:180    .text.renderOnePlant:0000000000000000 .L0 
GAS LISTING /var/folders/rt/4gvqv631095f64jvm7jfj_000000gn/T//ccnu1rXG.s 			page 28


/var/folders/rt/4gvqv631095f64jvm7jfj_000000gn/T//ccnu1rXG.s:182    .text.renderOnePlant:0000000000000000 .L0 
/var/folders/rt/4gvqv631095f64jvm7jfj_000000gn/T//ccnu1rXG.s:184    .text.renderOnePlant:0000000000000000 .L0 
/var/folders/rt/4gvqv631095f64jvm7jfj_000000gn/T//ccnu1rXG.s:186    .text.renderOnePlant:0000000000000000 .L0 
/var/folders/rt/4gvqv631095f64jvm7jfj_000000gn/T//ccnu1rXG.s:187    .text.renderOnePlant:0000000000000000 .L0 
/var/folders/rt/4gvqv631095f64jvm7jfj_000000gn/T//ccnu1rXG.s:189    .text.renderOnePlant:0000000000000002 .L0 
/var/folders/rt/4gvqv631095f64jvm7jfj_000000gn/T//ccnu1rXG.s:195    .text.renderOnePlant:000000000000000c .L0 
/var/folders/rt/4gvqv631095f64jvm7jfj_000000gn/T//ccnu1rXG.s:196    .text.renderOnePlant:000000000000000c .L0 
/var/folders/rt/4gvqv631095f64jvm7jfj_000000gn/T//ccnu1rXG.s:197    .text.renderOnePlant:000000000000000c .L0 
/var/folders/rt/4gvqv631095f64jvm7jfj_000000gn/T//ccnu1rXG.s:198    .text.renderOnePlant:000000000000000c .L0 
/var/folders/rt/4gvqv631095f64jvm7jfj_000000gn/T//ccnu1rXG.s:199    .text.renderOnePlant:000000000000000c .L0 
/var/folders/rt/4gvqv631095f64jvm7jfj_000000gn/T//ccnu1rXG.s:201    .text.renderOnePlant:000000000000000c .L0 
/var/folders/rt/4gvqv631095f64jvm7jfj_000000gn/T//ccnu1rXG.s:205    .text.renderOnePlant:0000000000000010 .L0 
/var/folders/rt/4gvqv631095f64jvm7jfj_000000gn/T//ccnu1rXG.s:209    .text.renderOnePlant:0000000000000012 .L0 
/var/folders/rt/4gvqv631095f64jvm7jfj_000000gn/T//ccnu1rXG.s:212    .text.renderOnePlant:0000000000000016 .L0 
/var/folders/rt/4gvqv631095f64jvm7jfj_000000gn/T//ccnu1rXG.s:225    .text.renderOnePlant:000000000000002e .L0 
/var/folders/rt/4gvqv631095f64jvm7jfj_000000gn/T//ccnu1rXG.s:226    .text.renderOnePlant:000000000000002e .L0 
/var/folders/rt/4gvqv631095f64jvm7jfj_000000gn/T//ccnu1rXG.s:232    .text.renderOnePlant:000000000000003c .L0 
/var/folders/rt/4gvqv631095f64jvm7jfj_000000gn/T//ccnu1rXG.s:234    .text.renderOnePlant:000000000000003e .L0 
/var/folders/rt/4gvqv631095f64jvm7jfj_000000gn/T//ccnu1rXG.s:239    .text.renderOnePlant:0000000000000048 .L0 
/var/folders/rt/4gvqv631095f64jvm7jfj_000000gn/T//ccnu1rXG.s:248    .text.renderOnePlant:000000000000005c .L0 
/var/folders/rt/4gvqv631095f64jvm7jfj_000000gn/T//ccnu1rXG.s:249    .text.renderOnePlant:000000000000005c .L0 
/var/folders/rt/4gvqv631095f64jvm7jfj_000000gn/T//ccnu1rXG.s:251    .text.renderOnePlant:0000000000000060 .L0 
/var/folders/rt/4gvqv631095f64jvm7jfj_000000gn/T//ccnu1rXG.s:254    .text.renderOnePlant:0000000000000066 .L0 
/var/folders/rt/4gvqv631095f64jvm7jfj_000000gn/T//ccnu1rXG.s:258    .text.renderOnePlant:000000000000006c .L0 
/var/folders/rt/4gvqv631095f64jvm7jfj_000000gn/T//ccnu1rXG.s:264    .text.renderOnePlant:000000000000007a .L0 
/var/folders/rt/4gvqv631095f64jvm7jfj_000000gn/T//ccnu1rXG.s:274    .text.renderOnePlant:0000000000000094 .L0 
/var/folders/rt/4gvqv631095f64jvm7jfj_000000gn/T//ccnu1rXG.s:275    .text.renderOnePlant:0000000000000094 .L0 
/var/folders/rt/4gvqv631095f64jvm7jfj_000000gn/T//ccnu1rXG.s:277    .text.renderOnePlant:0000000000000098 .L0 
/var/folders/rt/4gvqv631095f64jvm7jfj_000000gn/T//ccnu1rXG.s:280    .text.renderOnePlant:000000000000009e .L0 
/var/folders/rt/4gvqv631095f64jvm7jfj_000000gn/T//ccnu1rXG.s:283    .text.renderOnePlant:00000000000000a2 .L0 
/var/folders/rt/4gvqv631095f64jvm7jfj_000000gn/T//ccnu1rXG.s:289    .text.renderOnePlant:00000000000000b2 .L0 
/var/folders/rt/4gvqv631095f64jvm7jfj_000000gn/T//ccnu1rXG.s:290    .text.renderOnePlant:00000000000000b2 .L0 
/var/folders/rt/4gvqv631095f64jvm7jfj_000000gn/T//ccnu1rXG.s:292    .text.renderOnePlant:00000000000000b6 .L0 
/var/folders/rt/4gvqv631095f64jvm7jfj_000000gn/T//ccnu1rXG.s:295    .text.renderOnePlant:00000000000000bc .L0 
/var/folders/rt/4gvqv631095f64jvm7jfj_000000gn/T//ccnu1rXG.s:299    .text.renderOnePlant:00000000000000c2 .L0 
/var/folders/rt/4gvqv631095f64jvm7jfj_000000gn/T//ccnu1rXG.s:305    .text.renderOnePlant:00000000000000d2 .L0 
/var/folders/rt/4gvqv631095f64jvm7jfj_000000gn/T//ccnu1rXG.s:313    .text.renderOnePlant:00000000000000ea .L0 
/var/folders/rt/4gvqv631095f64jvm7jfj_000000gn/T//ccnu1rXG.s:321    .text.renderOnePlant:0000000000000104 .L0 
/var/folders/rt/4gvqv631095f64jvm7jfj_000000gn/T//ccnu1rXG.s:322    .text.renderOnePlant:0000000000000104 .L0 
/var/folders/rt/4gvqv631095f64jvm7jfj_000000gn/T//ccnu1rXG.s:324    .text.renderOnePlant:0000000000000108 .L0 
/var/folders/rt/4gvqv631095f64jvm7jfj_000000gn/T//ccnu1rXG.s:327    .text.renderOnePlant:000000000000010e .L0 
/var/folders/rt/4gvqv631095f64jvm7jfj_000000gn/T//ccnu1rXG.s:330    .text.renderOnePlant:0000000000000112 .L0 
/var/folders/rt/4gvqv631095f64jvm7jfj_000000gn/T//ccnu1rXG.s:336    .text.renderOnePlant:0000000000000124 .L0 
/var/folders/rt/4gvqv631095f64jvm7jfj_000000gn/T//ccnu1rXG.s:345    .text.renderOnePlant:0000000000000134 .L0 
/var/folders/rt/4gvqv631095f64jvm7jfj_000000gn/T//ccnu1rXG.s:346    .text.renderOnePlant:0000000000000136 .L0 
/var/folders/rt/4gvqv631095f64jvm7jfj_000000gn/T//ccnu1rXG.s:347    .text.renderOnePlant:0000000000000136 .L0 
/var/folders/rt/4gvqv631095f64jvm7jfj_000000gn/T//ccnu1rXG.s:349    .text.renderOnePlant:0000000000000138 .L0 
/var/folders/rt/4gvqv631095f64jvm7jfj_000000gn/T//ccnu1rXG.s:351    .text.renderOnePlant:000000000000013a .L0 
/var/folders/rt/4gvqv631095f64jvm7jfj_000000gn/T//ccnu1rXG.s:353    .text.renderOnePlant:000000000000013c .L0 
/var/folders/rt/4gvqv631095f64jvm7jfj_000000gn/T//ccnu1rXG.s:355    .text.renderOnePlant:000000000000013e .L0 
/var/folders/rt/4gvqv631095f64jvm7jfj_000000gn/T//ccnu1rXG.s:359    .text.renderOnePlant:0000000000000140 .L0 
/var/folders/rt/4gvqv631095f64jvm7jfj_000000gn/T//ccnu1rXG.s:361    .text.renderOnePlant:0000000000000140 .L0 
/var/folders/rt/4gvqv631095f64jvm7jfj_000000gn/T//ccnu1rXG.s:365    .text.renderOnePlant:0000000000000148 .L0 
/var/folders/rt/4gvqv631095f64jvm7jfj_000000gn/T//ccnu1rXG.s:368    .text.renderOnePlant:0000000000000148 .L0 
/var/folders/rt/4gvqv631095f64jvm7jfj_000000gn/T//ccnu1rXG.s:372    .text.renderOnePlant:000000000000014c .L0 
/var/folders/rt/4gvqv631095f64jvm7jfj_000000gn/T//ccnu1rXG.s:379    .text.updatePlantStatus:0000000000000000 updatePlantStatus
/var/folders/rt/4gvqv631095f64jvm7jfj_000000gn/T//ccnu1rXG.s:382    .text.updatePlantStatus:0000000000000000 .L0 
GAS LISTING /var/folders/rt/4gvqv631095f64jvm7jfj_000000gn/T//ccnu1rXG.s 			page 29


/var/folders/rt/4gvqv631095f64jvm7jfj_000000gn/T//ccnu1rXG.s:383    .text.updatePlantStatus:0000000000000000 .L0 
/var/folders/rt/4gvqv631095f64jvm7jfj_000000gn/T//ccnu1rXG.s:384    .text.updatePlantStatus:0000000000000000 .L0 
/var/folders/rt/4gvqv631095f64jvm7jfj_000000gn/T//ccnu1rXG.s:385    .text.updatePlantStatus:0000000000000002 .L0 
/var/folders/rt/4gvqv631095f64jvm7jfj_000000gn/T//ccnu1rXG.s:392    .text.updatePlantReading:0000000000000000 updatePlantReading
/var/folders/rt/4gvqv631095f64jvm7jfj_000000gn/T//ccnu1rXG.s:395    .text.updatePlantReading:0000000000000000 .L0 
/var/folders/rt/4gvqv631095f64jvm7jfj_000000gn/T//ccnu1rXG.s:397    .text.updatePlantReading:0000000000000000 .L0 
/var/folders/rt/4gvqv631095f64jvm7jfj_000000gn/T//ccnu1rXG.s:399    .text.updatePlantReading:0000000000000000 .L0 
/var/folders/rt/4gvqv631095f64jvm7jfj_000000gn/T//ccnu1rXG.s:401    .text.updatePlantReading:0000000000000000 .L0 
/var/folders/rt/4gvqv631095f64jvm7jfj_000000gn/T//ccnu1rXG.s:402    .text.updatePlantReading:0000000000000000 .L0 
/var/folders/rt/4gvqv631095f64jvm7jfj_000000gn/T//ccnu1rXG.s:404    .text.updatePlantReading:0000000000000002 .L0 
/var/folders/rt/4gvqv631095f64jvm7jfj_000000gn/T//ccnu1rXG.s:410    .text.updatePlantReading:000000000000000c .L0 
/var/folders/rt/4gvqv631095f64jvm7jfj_000000gn/T//ccnu1rXG.s:411    .text.updatePlantReading:000000000000000c .L0 
/var/folders/rt/4gvqv631095f64jvm7jfj_000000gn/T//ccnu1rXG.s:412    .text.updatePlantReading:000000000000000c .L0 
/var/folders/rt/4gvqv631095f64jvm7jfj_000000gn/T//ccnu1rXG.s:413    .text.updatePlantReading:000000000000000c .L0 
/var/folders/rt/4gvqv631095f64jvm7jfj_000000gn/T//ccnu1rXG.s:414    .text.updatePlantReading:000000000000000c .L0 
/var/folders/rt/4gvqv631095f64jvm7jfj_000000gn/T//ccnu1rXG.s:416    .text.updatePlantReading:000000000000000c .L0 
/var/folders/rt/4gvqv631095f64jvm7jfj_000000gn/T//ccnu1rXG.s:420    .text.updatePlantReading:0000000000000010 .L0 
/var/folders/rt/4gvqv631095f64jvm7jfj_000000gn/T//ccnu1rXG.s:422    .text.updatePlantReading:0000000000000012 .L0 
/var/folders/rt/4gvqv631095f64jvm7jfj_000000gn/T//ccnu1rXG.s:426    .text.updatePlantReading:0000000000000014 .L0 
/var/folders/rt/4gvqv631095f64jvm7jfj_000000gn/T//ccnu1rXG.s:429    .text.updatePlantReading:0000000000000018 .L0 
/var/folders/rt/4gvqv631095f64jvm7jfj_000000gn/T//ccnu1rXG.s:439    .text.updatePlantReading:000000000000002e .L0 
/var/folders/rt/4gvqv631095f64jvm7jfj_000000gn/T//ccnu1rXG.s:451    .text.updatePlantReading:0000000000000046 .L0 
/var/folders/rt/4gvqv631095f64jvm7jfj_000000gn/T//ccnu1rXG.s:455    .text.updatePlantReading:000000000000004c .L0 
/var/folders/rt/4gvqv631095f64jvm7jfj_000000gn/T//ccnu1rXG.s:456    .text.updatePlantReading:000000000000004c .L0 
/var/folders/rt/4gvqv631095f64jvm7jfj_000000gn/T//ccnu1rXG.s:460    .text.updatePlantReading:0000000000000056 .L0 
/var/folders/rt/4gvqv631095f64jvm7jfj_000000gn/T//ccnu1rXG.s:465    .text.updatePlantReading:000000000000005c .L0 
/var/folders/rt/4gvqv631095f64jvm7jfj_000000gn/T//ccnu1rXG.s:466    .text.updatePlantReading:000000000000005c .L0 
/var/folders/rt/4gvqv631095f64jvm7jfj_000000gn/T//ccnu1rXG.s:469    .text.updatePlantReading:0000000000000060 .L0 
/var/folders/rt/4gvqv631095f64jvm7jfj_000000gn/T//ccnu1rXG.s:470    .text.updatePlantReading:0000000000000060 .L0 
/var/folders/rt/4gvqv631095f64jvm7jfj_000000gn/T//ccnu1rXG.s:474    .text.updatePlantReading:000000000000006a .L0 
/var/folders/rt/4gvqv631095f64jvm7jfj_000000gn/T//ccnu1rXG.s:475    .text.updatePlantReading:000000000000006a .L0 
/var/folders/rt/4gvqv631095f64jvm7jfj_000000gn/T//ccnu1rXG.s:481    .text.updatePlantReading:000000000000007c .L0 
/var/folders/rt/4gvqv631095f64jvm7jfj_000000gn/T//ccnu1rXG.s:482    .text.updatePlantReading:000000000000007c .L0 
/var/folders/rt/4gvqv631095f64jvm7jfj_000000gn/T//ccnu1rXG.s:483    .text.updatePlantReading:000000000000007c .L0 
/var/folders/rt/4gvqv631095f64jvm7jfj_000000gn/T//ccnu1rXG.s:485    .text.updatePlantReading:0000000000000080 .L0 
/var/folders/rt/4gvqv631095f64jvm7jfj_000000gn/T//ccnu1rXG.s:488    .text.updatePlantReading:0000000000000088 .L0 
/var/folders/rt/4gvqv631095f64jvm7jfj_000000gn/T//ccnu1rXG.s:489    .text.updatePlantReading:0000000000000088 .L0 
/var/folders/rt/4gvqv631095f64jvm7jfj_000000gn/T//ccnu1rXG.s:498    .text.updatePlantReading:0000000000000098 .L0 
/var/folders/rt/4gvqv631095f64jvm7jfj_000000gn/T//ccnu1rXG.s:507    .text.updatePlantReading:00000000000000b2 .L0 
/var/folders/rt/4gvqv631095f64jvm7jfj_000000gn/T//ccnu1rXG.s:508    .text.updatePlantReading:00000000000000b2 .L0 
/var/folders/rt/4gvqv631095f64jvm7jfj_000000gn/T//ccnu1rXG.s:516    .text.updatePlantReading:00000000000000bc .L0 
/var/folders/rt/4gvqv631095f64jvm7jfj_000000gn/T//ccnu1rXG.s:517    .text.updatePlantReading:00000000000000be .L0 
/var/folders/rt/4gvqv631095f64jvm7jfj_000000gn/T//ccnu1rXG.s:518    .text.updatePlantReading:00000000000000be .L0 
/var/folders/rt/4gvqv631095f64jvm7jfj_000000gn/T//ccnu1rXG.s:520    .text.updatePlantReading:00000000000000c0 .L0 
/var/folders/rt/4gvqv631095f64jvm7jfj_000000gn/T//ccnu1rXG.s:522    .text.updatePlantReading:00000000000000c2 .L0 
/var/folders/rt/4gvqv631095f64jvm7jfj_000000gn/T//ccnu1rXG.s:525    .text.updatePlantReading:00000000000000c4 .L0 
/var/folders/rt/4gvqv631095f64jvm7jfj_000000gn/T//ccnu1rXG.s:528    .text.updatePlantReading:00000000000000c6 .L0 
/var/folders/rt/4gvqv631095f64jvm7jfj_000000gn/T//ccnu1rXG.s:531    .text.updatePlantReading:00000000000000c8 .L0 
/var/folders/rt/4gvqv631095f64jvm7jfj_000000gn/T//ccnu1rXG.s:536    .text.updatePlantReading:00000000000000ca .L0 
/var/folders/rt/4gvqv631095f64jvm7jfj_000000gn/T//ccnu1rXG.s:540    .text.updatePlantReading:00000000000000ca .L0 
/var/folders/rt/4gvqv631095f64jvm7jfj_000000gn/T//ccnu1rXG.s:549    .text.updatePlantReading:00000000000000e0 .L0 
/var/folders/rt/4gvqv631095f64jvm7jfj_000000gn/T//ccnu1rXG.s:561    .text.updatePlantReading:00000000000000f4 .L0 
/var/folders/rt/4gvqv631095f64jvm7jfj_000000gn/T//ccnu1rXG.s:568    .text.updatePlantReading:00000000000000fe .L0 
/var/folders/rt/4gvqv631095f64jvm7jfj_000000gn/T//ccnu1rXG.s:573    .text.updatePlantReading:0000000000000106 .L0 
/var/folders/rt/4gvqv631095f64jvm7jfj_000000gn/T//ccnu1rXG.s:580    .text.jsonAllPlants:0000000000000000 jsonAllPlants
/var/folders/rt/4gvqv631095f64jvm7jfj_000000gn/T//ccnu1rXG.s:583    .text.jsonAllPlants:0000000000000000 .L0 
/var/folders/rt/4gvqv631095f64jvm7jfj_000000gn/T//ccnu1rXG.s:585    .text.jsonAllPlants:0000000000000000 .L0 
GAS LISTING /var/folders/rt/4gvqv631095f64jvm7jfj_000000gn/T//ccnu1rXG.s 			page 30


/var/folders/rt/4gvqv631095f64jvm7jfj_000000gn/T//ccnu1rXG.s:586    .text.jsonAllPlants:0000000000000000 .L0 
/var/folders/rt/4gvqv631095f64jvm7jfj_000000gn/T//ccnu1rXG.s:594    .text.jsonAllPlants:0000000000000012 .L0 
/var/folders/rt/4gvqv631095f64jvm7jfj_000000gn/T//ccnu1rXG.s:597    .text.jsonAllPlants:0000000000000014 .L0 
/var/folders/rt/4gvqv631095f64jvm7jfj_000000gn/T//ccnu1rXG.s:603    .text.jsonAllPlants:000000000000001e .L0 
/var/folders/rt/4gvqv631095f64jvm7jfj_000000gn/T//ccnu1rXG.s:605    .text.jsonAllPlants:0000000000000020 .L0 
/var/folders/rt/4gvqv631095f64jvm7jfj_000000gn/T//ccnu1rXG.s:607    .text.jsonAllPlants:0000000000000020 .L0 
/var/folders/rt/4gvqv631095f64jvm7jfj_000000gn/T//ccnu1rXG.s:618    .text.jsonAllPlants:000000000000003e .L0 
/var/folders/rt/4gvqv631095f64jvm7jfj_000000gn/T//ccnu1rXG.s:619    .text.jsonAllPlants:0000000000000040 .L0 
/var/folders/rt/4gvqv631095f64jvm7jfj_000000gn/T//ccnu1rXG.s:621    .text.jsonAllPlants:0000000000000040 .L0 
/var/folders/rt/4gvqv631095f64jvm7jfj_000000gn/T//ccnu1rXG.s:649    .text.jsonAllPlants:000000000000008e .L0 
/var/folders/rt/4gvqv631095f64jvm7jfj_000000gn/T//ccnu1rXG.s:650    .text.jsonAllPlants:0000000000000090 .L0 
/var/folders/rt/4gvqv631095f64jvm7jfj_000000gn/T//ccnu1rXG.s:653    .text.jsonAllPlants:0000000000000092 .L0 
/var/folders/rt/4gvqv631095f64jvm7jfj_000000gn/T//ccnu1rXG.s:655    .text.jsonAllPlants:0000000000000094 .L0 
/var/folders/rt/4gvqv631095f64jvm7jfj_000000gn/T//ccnu1rXG.s:662    .text.receiveCommands:0000000000000000 receiveCommands
/var/folders/rt/4gvqv631095f64jvm7jfj_000000gn/T//ccnu1rXG.s:665    .text.receiveCommands:0000000000000000 .L0 
/var/folders/rt/4gvqv631095f64jvm7jfj_000000gn/T//ccnu1rXG.s:667    .text.receiveCommands:0000000000000000 .L0 
/var/folders/rt/4gvqv631095f64jvm7jfj_000000gn/T//ccnu1rXG.s:668    .text.receiveCommands:0000000000000000 .L0 
/var/folders/rt/4gvqv631095f64jvm7jfj_000000gn/T//ccnu1rXG.s:669    .text.receiveCommands:0000000000000000 .L0 
/var/folders/rt/4gvqv631095f64jvm7jfj_000000gn/T//ccnu1rXG.s:671    .text.receiveCommands:0000000000000004 .L0 
/var/folders/rt/4gvqv631095f64jvm7jfj_000000gn/T//ccnu1rXG.s:673    .text.receiveCommands:0000000000000008 .L0 
/var/folders/rt/4gvqv631095f64jvm7jfj_000000gn/T//ccnu1rXG.s:676    .text.receiveCommands:000000000000000a .L0 
/var/folders/rt/4gvqv631095f64jvm7jfj_000000gn/T//ccnu1rXG.s:679    .text.receiveCommands:000000000000000c .L0 
/var/folders/rt/4gvqv631095f64jvm7jfj_000000gn/T//ccnu1rXG.s:683    .text.receiveCommands:000000000000001c .L0 
/var/folders/rt/4gvqv631095f64jvm7jfj_000000gn/T//ccnu1rXG.s:684    .text.receiveCommands:000000000000001c .L0 
/var/folders/rt/4gvqv631095f64jvm7jfj_000000gn/T//ccnu1rXG.s:685    .text.receiveCommands:000000000000001c .L0 
/var/folders/rt/4gvqv631095f64jvm7jfj_000000gn/T//ccnu1rXG.s:686    .text.receiveCommands:000000000000001c .L0 
/var/folders/rt/4gvqv631095f64jvm7jfj_000000gn/T//ccnu1rXG.s:688    .text.receiveCommands:000000000000001c .L0 
/var/folders/rt/4gvqv631095f64jvm7jfj_000000gn/T//ccnu1rXG.s:690    .text.receiveCommands:000000000000001e .L0 
/var/folders/rt/4gvqv631095f64jvm7jfj_000000gn/T//ccnu1rXG.s:693    .text.receiveCommands:0000000000000026 .L0 
/var/folders/rt/4gvqv631095f64jvm7jfj_000000gn/T//ccnu1rXG.s:704    .text.receiveCommands:0000000000000040 .L0 
/var/folders/rt/4gvqv631095f64jvm7jfj_000000gn/T//ccnu1rXG.s:705    .text.receiveCommands:0000000000000040 .L0 
/var/folders/rt/4gvqv631095f64jvm7jfj_000000gn/T//ccnu1rXG.s:706    .text.receiveCommands:0000000000000040 .L0 
/var/folders/rt/4gvqv631095f64jvm7jfj_000000gn/T//ccnu1rXG.s:708    .text.receiveCommands:0000000000000044 .L0 
/var/folders/rt/4gvqv631095f64jvm7jfj_000000gn/T//ccnu1rXG.s:710    .text.receiveCommands:0000000000000048 .L0 
/var/folders/rt/4gvqv631095f64jvm7jfj_000000gn/T//ccnu1rXG.s:713    .text.receiveCommands:000000000000004c .L0 
/var/folders/rt/4gvqv631095f64jvm7jfj_000000gn/T//ccnu1rXG.s:715    .text.receiveCommands:0000000000000050 .L0 
/var/folders/rt/4gvqv631095f64jvm7jfj_000000gn/T//ccnu1rXG.s:719    .text.receiveCommands:0000000000000052 .L0 
/var/folders/rt/4gvqv631095f64jvm7jfj_000000gn/T//ccnu1rXG.s:721    .text.receiveCommands:0000000000000056 .L0 
/var/folders/rt/4gvqv631095f64jvm7jfj_000000gn/T//ccnu1rXG.s:723    .text.receiveCommands:000000000000005a .L0 
/var/folders/rt/4gvqv631095f64jvm7jfj_000000gn/T//ccnu1rXG.s:724    .text.receiveCommands:000000000000005a .L0 
/var/folders/rt/4gvqv631095f64jvm7jfj_000000gn/T//ccnu1rXG.s:727    .text.receiveCommands:0000000000000062 .L0 
/var/folders/rt/4gvqv631095f64jvm7jfj_000000gn/T//ccnu1rXG.s:729    .text.receiveCommands:0000000000000066 .L0 
/var/folders/rt/4gvqv631095f64jvm7jfj_000000gn/T//ccnu1rXG.s:730    .text.receiveCommands:0000000000000066 .L0 
/var/folders/rt/4gvqv631095f64jvm7jfj_000000gn/T//ccnu1rXG.s:734    .text.receiveCommands:0000000000000072 .L0 
/var/folders/rt/4gvqv631095f64jvm7jfj_000000gn/T//ccnu1rXG.s:736    .text.receiveCommands:0000000000000076 .L0 
/var/folders/rt/4gvqv631095f64jvm7jfj_000000gn/T//ccnu1rXG.s:737    .text.receiveCommands:0000000000000076 .L0 
/var/folders/rt/4gvqv631095f64jvm7jfj_000000gn/T//ccnu1rXG.s:740    .text.receiveCommands:000000000000007e .L0 
/var/folders/rt/4gvqv631095f64jvm7jfj_000000gn/T//ccnu1rXG.s:742    .text.receiveCommands:0000000000000080 .L0 
/var/folders/rt/4gvqv631095f64jvm7jfj_000000gn/T//ccnu1rXG.s:745    .text.receiveCommands:0000000000000088 .L0 
/var/folders/rt/4gvqv631095f64jvm7jfj_000000gn/T//ccnu1rXG.s:751    .text.receiveCommands:0000000000000096 .L0 
/var/folders/rt/4gvqv631095f64jvm7jfj_000000gn/T//ccnu1rXG.s:752    .text.receiveCommands:0000000000000096 .L0 
/var/folders/rt/4gvqv631095f64jvm7jfj_000000gn/T//ccnu1rXG.s:756    .text.receiveCommands:000000000000009a .L0 
/var/folders/rt/4gvqv631095f64jvm7jfj_000000gn/T//ccnu1rXG.s:757    .text.receiveCommands:000000000000009a .L0 
/var/folders/rt/4gvqv631095f64jvm7jfj_000000gn/T//ccnu1rXG.s:758    .text.receiveCommands:000000000000009e .L0 
/var/folders/rt/4gvqv631095f64jvm7jfj_000000gn/T//ccnu1rXG.s:759    .text.receiveCommands:000000000000009e .L0 
/var/folders/rt/4gvqv631095f64jvm7jfj_000000gn/T//ccnu1rXG.s:761    .text.receiveCommands:00000000000000a2 .L0 
/var/folders/rt/4gvqv631095f64jvm7jfj_000000gn/T//ccnu1rXG.s:763    .text.receiveCommands:00000000000000a6 .L0 
GAS LISTING /var/folders/rt/4gvqv631095f64jvm7jfj_000000gn/T//ccnu1rXG.s 			page 31


/var/folders/rt/4gvqv631095f64jvm7jfj_000000gn/T//ccnu1rXG.s:765    .text.receiveCommands:00000000000000aa .L0 
/var/folders/rt/4gvqv631095f64jvm7jfj_000000gn/T//ccnu1rXG.s:768    .text.receiveCommands:00000000000000ae .L0 
/var/folders/rt/4gvqv631095f64jvm7jfj_000000gn/T//ccnu1rXG.s:771    .text.receiveCommands:00000000000000b2 .L0 
/var/folders/rt/4gvqv631095f64jvm7jfj_000000gn/T//ccnu1rXG.s:776    .text.receiveCommands:00000000000000b4 .L0 
/var/folders/rt/4gvqv631095f64jvm7jfj_000000gn/T//ccnu1rXG.s:779    .text.receiveCommands:00000000000000b4 .L0 
/var/folders/rt/4gvqv631095f64jvm7jfj_000000gn/T//ccnu1rXG.s:780    .text.receiveCommands:00000000000000b4 .L0 
/var/folders/rt/4gvqv631095f64jvm7jfj_000000gn/T//ccnu1rXG.s:786    .text.receiveCommands:00000000000000c8 .L0 
/var/folders/rt/4gvqv631095f64jvm7jfj_000000gn/T//ccnu1rXG.s:789    .text.receiveCommands:00000000000000ca .L0 
/var/folders/rt/4gvqv631095f64jvm7jfj_000000gn/T//ccnu1rXG.s:792    .text.receiveCommands:00000000000000d2 .L0 
/var/folders/rt/4gvqv631095f64jvm7jfj_000000gn/T//ccnu1rXG.s:802    .text.receiveCommands:00000000000000ec .L0 
/var/folders/rt/4gvqv631095f64jvm7jfj_000000gn/T//ccnu1rXG.s:803    .text.receiveCommands:00000000000000ec .L0 
/var/folders/rt/4gvqv631095f64jvm7jfj_000000gn/T//ccnu1rXG.s:809    .text.receiveCommands:00000000000000fc .L0 
/var/folders/rt/4gvqv631095f64jvm7jfj_000000gn/T//ccnu1rXG.s:814    .text.receiveCommands:00000000000000fe .L0 
/var/folders/rt/4gvqv631095f64jvm7jfj_000000gn/T//ccnu1rXG.s:820    .text.receiveCommands:0000000000000108 .L0 
/var/folders/rt/4gvqv631095f64jvm7jfj_000000gn/T//ccnu1rXG.s:824    .text.receiveCommands:0000000000000112 .L0 
/var/folders/rt/4gvqv631095f64jvm7jfj_000000gn/T//ccnu1rXG.s:835    .text.receiveCommands:000000000000012e .L0 
/var/folders/rt/4gvqv631095f64jvm7jfj_000000gn/T//ccnu1rXG.s:843    .text.receiveCommands:0000000000000144 .L0 
/var/folders/rt/4gvqv631095f64jvm7jfj_000000gn/T//ccnu1rXG.s:848    .text.receiveCommands:000000000000014a .L0 
/var/folders/rt/4gvqv631095f64jvm7jfj_000000gn/T//ccnu1rXG.s:852    .text.receiveCommands:000000000000014e .L0 
/var/folders/rt/4gvqv631095f64jvm7jfj_000000gn/T//ccnu1rXG.s:859    .text.startup.main:0000000000000000 main
/var/folders/rt/4gvqv631095f64jvm7jfj_000000gn/T//ccnu1rXG.s:862    .text.startup.main:0000000000000000 .L0 
/var/folders/rt/4gvqv631095f64jvm7jfj_000000gn/T//ccnu1rXG.s:863    .text.startup.main:0000000000000000 .L0 
/var/folders/rt/4gvqv631095f64jvm7jfj_000000gn/T//ccnu1rXG.s:865    .text.startup.main:0000000000000000 .L0 
/var/folders/rt/4gvqv631095f64jvm7jfj_000000gn/T//ccnu1rXG.s:866    .text.startup.main:0000000000000000 .L0 
/var/folders/rt/4gvqv631095f64jvm7jfj_000000gn/T//ccnu1rXG.s:867    .text.startup.main:0000000000000000 .L0 
/var/folders/rt/4gvqv631095f64jvm7jfj_000000gn/T//ccnu1rXG.s:868    .text.startup.main:0000000000000000 .L0 
/var/folders/rt/4gvqv631095f64jvm7jfj_000000gn/T//ccnu1rXG.s:871    .text.startup.main:0000000000000006 .L0 
/var/folders/rt/4gvqv631095f64jvm7jfj_000000gn/T//ccnu1rXG.s:873    .text.startup.main:0000000000000006 .L0 
/var/folders/rt/4gvqv631095f64jvm7jfj_000000gn/T//ccnu1rXG.s:875    .text.startup.main:0000000000000008 .L0 
/var/folders/rt/4gvqv631095f64jvm7jfj_000000gn/T//ccnu1rXG.s:883    .text.startup.main:0000000000000024 .L0 
/var/folders/rt/4gvqv631095f64jvm7jfj_000000gn/T//ccnu1rXG.s:885    .text.startup.main:0000000000000028 .L0 
/var/folders/rt/4gvqv631095f64jvm7jfj_000000gn/T//ccnu1rXG.s:887    .text.startup.main:000000000000002a .L0 
/var/folders/rt/4gvqv631095f64jvm7jfj_000000gn/T//ccnu1rXG.s:888    .text.startup.main:000000000000002a .L0 
/var/folders/rt/4gvqv631095f64jvm7jfj_000000gn/T//ccnu1rXG.s:889    .text.startup.main:000000000000002a .L0 
/var/folders/rt/4gvqv631095f64jvm7jfj_000000gn/T//ccnu1rXG.s:890    .text.startup.main:000000000000002a .L0 
/var/folders/rt/4gvqv631095f64jvm7jfj_000000gn/T//ccnu1rXG.s:891    .text.startup.main:000000000000002a .L0 
/var/folders/rt/4gvqv631095f64jvm7jfj_000000gn/T//ccnu1rXG.s:892    .text.startup.main:000000000000002a .L0 
/var/folders/rt/4gvqv631095f64jvm7jfj_000000gn/T//ccnu1rXG.s:893    .text.startup.main:000000000000002a .L0 
/var/folders/rt/4gvqv631095f64jvm7jfj_000000gn/T//ccnu1rXG.s:894    .text.startup.main:000000000000002a .L0 
/var/folders/rt/4gvqv631095f64jvm7jfj_000000gn/T//ccnu1rXG.s:896    .text.startup.main:000000000000002a .L0 
/var/folders/rt/4gvqv631095f64jvm7jfj_000000gn/T//ccnu1rXG.s:900    .text.startup.main:0000000000000032 .L0 
/var/folders/rt/4gvqv631095f64jvm7jfj_000000gn/T//ccnu1rXG.s:904    .text.startup.main:000000000000003c .L0 
/var/folders/rt/4gvqv631095f64jvm7jfj_000000gn/T//ccnu1rXG.s:906    .text.startup.main:0000000000000040 .L0 
/var/folders/rt/4gvqv631095f64jvm7jfj_000000gn/T//ccnu1rXG.s:936    .text.startup.main:0000000000000094 .L0 
/var/folders/rt/4gvqv631095f64jvm7jfj_000000gn/T//ccnu1rXG.s:939    .text.startup.main:000000000000009c .L0 
/var/folders/rt/4gvqv631095f64jvm7jfj_000000gn/T//ccnu1rXG.s:942    .text.startup.main:00000000000000a4 .L0 
/var/folders/rt/4gvqv631095f64jvm7jfj_000000gn/T//ccnu1rXG.s:945    .text.startup.main:00000000000000ac .L0 
/var/folders/rt/4gvqv631095f64jvm7jfj_000000gn/T//ccnu1rXG.s:948    .text.startup.main:00000000000000b4 .L0 
/var/folders/rt/4gvqv631095f64jvm7jfj_000000gn/T//ccnu1rXG.s:952    .text.startup.main:00000000000000be .L0 
/var/folders/rt/4gvqv631095f64jvm7jfj_000000gn/T//ccnu1rXG.s:955    .text.startup.main:00000000000000c6 .L0 
/var/folders/rt/4gvqv631095f64jvm7jfj_000000gn/T//ccnu1rXG.s:959    .text.startup.main:00000000000000d0 .L0 
/var/folders/rt/4gvqv631095f64jvm7jfj_000000gn/T//ccnu1rXG.s:963    .text.startup.main:00000000000000da .L0 
/var/folders/rt/4gvqv631095f64jvm7jfj_000000gn/T//ccnu1rXG.s:966    .text.startup.main:00000000000000e2 .L0 
/var/folders/rt/4gvqv631095f64jvm7jfj_000000gn/T//ccnu1rXG.s:974    .text.startup.main:00000000000000f8 .L0 
/var/folders/rt/4gvqv631095f64jvm7jfj_000000gn/T//ccnu1rXG.s:976    .text.startup.main:00000000000000fa .L0 
/var/folders/rt/4gvqv631095f64jvm7jfj_000000gn/T//ccnu1rXG.s:978    .text.startup.main:00000000000000fc .L0 
/var/folders/rt/4gvqv631095f64jvm7jfj_000000gn/T//ccnu1rXG.s:982    .text.startup.main:0000000000000100 .L0 
GAS LISTING /var/folders/rt/4gvqv631095f64jvm7jfj_000000gn/T//ccnu1rXG.s 			page 32


/var/folders/rt/4gvqv631095f64jvm7jfj_000000gn/T//ccnu1rXG.s:983    .text.startup.main:0000000000000100 .L0 
/var/folders/rt/4gvqv631095f64jvm7jfj_000000gn/T//ccnu1rXG.s:984    .text.startup.main:0000000000000100 .L0 
/var/folders/rt/4gvqv631095f64jvm7jfj_000000gn/T//ccnu1rXG.s:987    .text.startup.main:0000000000000102 .L0 
/var/folders/rt/4gvqv631095f64jvm7jfj_000000gn/T//ccnu1rXG.s:988    .text.startup.main:0000000000000102 .L0 
/var/folders/rt/4gvqv631095f64jvm7jfj_000000gn/T//ccnu1rXG.s:991    .text.startup.main:000000000000010a .L0 
/var/folders/rt/4gvqv631095f64jvm7jfj_000000gn/T//ccnu1rXG.s:995    .text.startup.main:000000000000010e .L0 
/var/folders/rt/4gvqv631095f64jvm7jfj_000000gn/T//ccnu1rXG.s:1000   .text.startup.main:000000000000011e .L0 
/var/folders/rt/4gvqv631095f64jvm7jfj_000000gn/T//ccnu1rXG.s:1001   .text.startup.main:000000000000011e .L0 
/var/folders/rt/4gvqv631095f64jvm7jfj_000000gn/T//ccnu1rXG.s:1002   .text.startup.main:000000000000011e .L0 
/var/folders/rt/4gvqv631095f64jvm7jfj_000000gn/T//ccnu1rXG.s:1004   .text.startup.main:0000000000000122 .L0 
/var/folders/rt/4gvqv631095f64jvm7jfj_000000gn/T//ccnu1rXG.s:1010   .text.startup.main:0000000000000134 .L0 
/var/folders/rt/4gvqv631095f64jvm7jfj_000000gn/T//ccnu1rXG.s:1015   .text.startup.main:0000000000000142 .L0 
/var/folders/rt/4gvqv631095f64jvm7jfj_000000gn/T//ccnu1rXG.s:1020   .text.startup.main:000000000000014e .L0 
/var/folders/rt/4gvqv631095f64jvm7jfj_000000gn/T//ccnu1rXG.s:1021   .text.startup.main:000000000000014e .L0 
/var/folders/rt/4gvqv631095f64jvm7jfj_000000gn/T//ccnu1rXG.s:1023   .text.startup.main:0000000000000152 .L0 
/var/folders/rt/4gvqv631095f64jvm7jfj_000000gn/T//ccnu1rXG.s:173    .text.renderAllPlants:00000000000000de .L0 
/var/folders/rt/4gvqv631095f64jvm7jfj_000000gn/T//ccnu1rXG.s:375    .text.renderOnePlant:000000000000014c .L0 
/var/folders/rt/4gvqv631095f64jvm7jfj_000000gn/T//ccnu1rXG.s:388    .text.updatePlantStatus:0000000000000002 .L0 
/var/folders/rt/4gvqv631095f64jvm7jfj_000000gn/T//ccnu1rXG.s:576    .text.updatePlantReading:0000000000000106 .L0 
/var/folders/rt/4gvqv631095f64jvm7jfj_000000gn/T//ccnu1rXG.s:658    .text.jsonAllPlants:0000000000000094 .L0 
/var/folders/rt/4gvqv631095f64jvm7jfj_000000gn/T//ccnu1rXG.s:855    .text.receiveCommands:000000000000014e .L0 
/var/folders/rt/4gvqv631095f64jvm7jfj_000000gn/T//ccnu1rXG.s:1026   .text.startup.main:0000000000000152 .L0 
                     .debug_frame:0000000000000000 .L0 
/var/folders/rt/4gvqv631095f64jvm7jfj_000000gn/T//ccnu1rXG.s:1049   .rodata.renderAllPlants.str1.4:0000000000000000 .LC0
/var/folders/rt/4gvqv631095f64jvm7jfj_000000gn/T//ccnu1rXG.s:93     .text.renderAllPlants:0000000000000040 .L3
/var/folders/rt/4gvqv631095f64jvm7jfj_000000gn/T//ccnu1rXG.s:62     .text.renderAllPlants:0000000000000026 .L2
/var/folders/rt/4gvqv631095f64jvm7jfj_000000gn/T//ccnu1rXG.s:1053   .rodata.renderOnePlant.str1.4:0000000000000000 .LC1
/var/folders/rt/4gvqv631095f64jvm7jfj_000000gn/T//ccnu1rXG.s:222    .text.renderOnePlant:000000000000002e .L8
/var/folders/rt/4gvqv631095f64jvm7jfj_000000gn/T//ccnu1rXG.s:342    .text.renderOnePlant:0000000000000134 .L10
/var/folders/rt/4gvqv631095f64jvm7jfj_000000gn/T//ccnu1rXG.s:363    .text.renderOnePlant:0000000000000148 .L7
/var/folders/rt/4gvqv631095f64jvm7jfj_000000gn/T//ccnu1rXG.s:207    .text.renderOnePlant:0000000000000012 .L6
/var/folders/rt/4gvqv631095f64jvm7jfj_000000gn/T//ccnu1rXG.s:1057   .rodata.updatePlantReading.str1.4:0000000000000000 .LC2
/var/folders/rt/4gvqv631095f64jvm7jfj_000000gn/T//ccnu1rXG.s:1060   .rodata.updatePlantReading.str1.4:0000000000000004 .LC3
/var/folders/rt/4gvqv631095f64jvm7jfj_000000gn/T//ccnu1rXG.s:448    .text.updatePlantReading:0000000000000046 .L19
/var/folders/rt/4gvqv631095f64jvm7jfj_000000gn/T//ccnu1rXG.s:557    .text.updatePlantReading:00000000000000f4 .L21
/var/folders/rt/4gvqv631095f64jvm7jfj_000000gn/T//ccnu1rXG.s:565    .text.updatePlantReading:00000000000000fe .L14
/var/folders/rt/4gvqv631095f64jvm7jfj_000000gn/T//ccnu1rXG.s:534    .text.updatePlantReading:00000000000000ca .L15
/var/folders/rt/4gvqv631095f64jvm7jfj_000000gn/T//ccnu1rXG.s:495    .text.updatePlantReading:0000000000000096 .L16
/var/folders/rt/4gvqv631095f64jvm7jfj_000000gn/T//ccnu1rXG.s:512    .text.updatePlantReading:00000000000000bc .L12
/var/folders/rt/4gvqv631095f64jvm7jfj_000000gn/T//ccnu1rXG.s:424    .text.updatePlantReading:0000000000000014 .L13
/var/folders/rt/4gvqv631095f64jvm7jfj_000000gn/T//ccnu1rXG.s:1028   .rodata.jsonAllPlants.str1.4:0000000000000000 .LC4
/var/folders/rt/4gvqv631095f64jvm7jfj_000000gn/T//ccnu1rXG.s:1036   .rodata.receiveCommands.str1.4:0000000000000000 .LC5
/var/folders/rt/4gvqv631095f64jvm7jfj_000000gn/T//ccnu1rXG.s:1038   .rodata.receiveCommands.str1.4:0000000000000014 .LC6
/var/folders/rt/4gvqv631095f64jvm7jfj_000000gn/T//ccnu1rXG.s:1040   .rodata.receiveCommands.str1.4:0000000000000024 .LC7
/var/folders/rt/4gvqv631095f64jvm7jfj_000000gn/T//ccnu1rXG.s:1043   .rodata.receiveCommands.str1.4:0000000000000034 .LC8
/var/folders/rt/4gvqv631095f64jvm7jfj_000000gn/T//ccnu1rXG.s:1045   .rodata.receiveCommands.str1.4:0000000000000048 .LC9
/var/folders/rt/4gvqv631095f64jvm7jfj_000000gn/T//ccnu1rXG.s:754    .text.receiveCommands:000000000000009a .L24
/var/folders/rt/4gvqv631095f64jvm7jfj_000000gn/T//ccnu1rXG.s:846    .text.receiveCommands:000000000000014a .L26
/var/folders/rt/4gvqv631095f64jvm7jfj_000000gn/T//ccnu1rXG.s:774    .text.receiveCommands:00000000000000b4 .L27
/var/folders/rt/4gvqv631095f64jvm7jfj_000000gn/T//ccnu1rXG.s:818    .text.receiveCommands:0000000000000108 .L29
/var/folders/rt/4gvqv631095f64jvm7jfj_000000gn/T//ccnu1rXG.s:749    .text.receiveCommands:0000000000000096 .L28
/var/folders/rt/4gvqv631095f64jvm7jfj_000000gn/T//ccnu1rXG.s:811    .text.receiveCommands:00000000000000fe .L33
/var/folders/rt/4gvqv631095f64jvm7jfj_000000gn/T//ccnu1rXG.s:717    .text.receiveCommands:0000000000000052 .L25
/var/folders/rt/4gvqv631095f64jvm7jfj_000000gn/T//ccnu1rXG.s:1032   .rodata.main.str1.4:0000000000000000 .LC10
/var/folders/rt/4gvqv631095f64jvm7jfj_000000gn/T//ccnu1rXG.s:980    .text.startup.main:0000000000000100 .L35
/var/folders/rt/4gvqv631095f64jvm7jfj_000000gn/T//ccnu1rXG.s:4495   .debug_abbrev:0000000000000000 .Ldebug_abbrev0
/var/folders/rt/4gvqv631095f64jvm7jfj_000000gn/T//ccnu1rXG.s:6358   .debug_str:0000000000000651 .LASF197
GAS LISTING /var/folders/rt/4gvqv631095f64jvm7jfj_000000gn/T//ccnu1rXG.s 			page 33


/var/folders/rt/4gvqv631095f64jvm7jfj_000000gn/T//ccnu1rXG.s:6204   .debug_str:000000000000034e .LASF198
/var/folders/rt/4gvqv631095f64jvm7jfj_000000gn/T//ccnu1rXG.s:6362   .debug_str:00000000000006e2 .LASF199
/var/folders/rt/4gvqv631095f64jvm7jfj_000000gn/T//ccnu1rXG.s:5976   .debug_ranges:0000000000000000 .Ldebug_ranges0
/var/folders/rt/4gvqv631095f64jvm7jfj_000000gn/T//ccnu1rXG.s:6038   .debug_line:0000000000000000 .Ldebug_line0
/var/folders/rt/4gvqv631095f64jvm7jfj_000000gn/T//ccnu1rXG.s:6342   .debug_str:0000000000000605 .LASF0
/var/folders/rt/4gvqv631095f64jvm7jfj_000000gn/T//ccnu1rXG.s:6092   .debug_str:0000000000000114 .LASF1
/var/folders/rt/4gvqv631095f64jvm7jfj_000000gn/T//ccnu1rXG.s:6270   .debug_str:00000000000004b7 .LASF2
/var/folders/rt/4gvqv631095f64jvm7jfj_000000gn/T//ccnu1rXG.s:6042   .debug_str:000000000000000c .LASF3
/var/folders/rt/4gvqv631095f64jvm7jfj_000000gn/T//ccnu1rXG.s:6366   .debug_str:0000000000000737 .LASF4
/var/folders/rt/4gvqv631095f64jvm7jfj_000000gn/T//ccnu1rXG.s:6064   .debug_str:000000000000006a .LASF5
/var/folders/rt/4gvqv631095f64jvm7jfj_000000gn/T//ccnu1rXG.s:6146   .debug_str:0000000000000230 .LASF9
/var/folders/rt/4gvqv631095f64jvm7jfj_000000gn/T//ccnu1rXG.s:6172   .debug_str:000000000000029f .LASF6
/var/folders/rt/4gvqv631095f64jvm7jfj_000000gn/T//ccnu1rXG.s:6128   .debug_str:00000000000001c7 .LASF7
/var/folders/rt/4gvqv631095f64jvm7jfj_000000gn/T//ccnu1rXG.s:6072   .debug_str:000000000000009e .LASF8
/var/folders/rt/4gvqv631095f64jvm7jfj_000000gn/T//ccnu1rXG.s:6386   .debug_str:00000000000007ab .LASF10
/var/folders/rt/4gvqv631095f64jvm7jfj_000000gn/T//ccnu1rXG.s:6166   .debug_str:000000000000027f .LASF120
/var/folders/rt/4gvqv631095f64jvm7jfj_000000gn/T//ccnu1rXG.s:6332   .debug_str:00000000000005de .LASF11
/var/folders/rt/4gvqv631095f64jvm7jfj_000000gn/T//ccnu1rXG.s:6320   .debug_str:00000000000005af .LASF12
/var/folders/rt/4gvqv631095f64jvm7jfj_000000gn/T//ccnu1rXG.s:6088   .debug_str:0000000000000106 .LASF13
/var/folders/rt/4gvqv631095f64jvm7jfj_000000gn/T//ccnu1rXG.s:6330   .debug_str:00000000000005d6 .LASF14
/var/folders/rt/4gvqv631095f64jvm7jfj_000000gn/T//ccnu1rXG.s:6402   .debug_str:000000000000080a .LASF15
/var/folders/rt/4gvqv631095f64jvm7jfj_000000gn/T//ccnu1rXG.s:6200   .debug_str:0000000000000341 .LASF16
/var/folders/rt/4gvqv631095f64jvm7jfj_000000gn/T//ccnu1rXG.s:6164   .debug_str:0000000000000278 .LASF17
/var/folders/rt/4gvqv631095f64jvm7jfj_000000gn/T//ccnu1rXG.s:6322   .debug_str:00000000000005b6 .LASF18
/var/folders/rt/4gvqv631095f64jvm7jfj_000000gn/T//ccnu1rXG.s:6324   .debug_str:00000000000005be .LASF19
/var/folders/rt/4gvqv631095f64jvm7jfj_000000gn/T//ccnu1rXG.s:6260   .debug_str:0000000000000482 .LASF20
/var/folders/rt/4gvqv631095f64jvm7jfj_000000gn/T//ccnu1rXG.s:6374   .debug_str:000000000000075e .LASF21
/var/folders/rt/4gvqv631095f64jvm7jfj_000000gn/T//ccnu1rXG.s:6264   .debug_str:0000000000000493 .LASF22
/var/folders/rt/4gvqv631095f64jvm7jfj_000000gn/T//ccnu1rXG.s:6276   .debug_str:00000000000004d4 .LASF23
/var/folders/rt/4gvqv631095f64jvm7jfj_000000gn/T//ccnu1rXG.s:6154   .debug_str:0000000000000255 .LASF28
/var/folders/rt/4gvqv631095f64jvm7jfj_000000gn/T//ccnu1rXG.s:6354   .debug_str:0000000000000644 .LASF24
/var/folders/rt/4gvqv631095f64jvm7jfj_000000gn/T//ccnu1rXG.s:6314   .debug_str:000000000000059a .LASF25
/var/folders/rt/4gvqv631095f64jvm7jfj_000000gn/T//ccnu1rXG.s:6148   .debug_str:000000000000023b .LASF26
/var/folders/rt/4gvqv631095f64jvm7jfj_000000gn/T//ccnu1rXG.s:6232   .debug_str:00000000000003e7 .LASF27
/var/folders/rt/4gvqv631095f64jvm7jfj_000000gn/T//ccnu1rXG.s:6162   .debug_str:0000000000000273 .LASF29
/var/folders/rt/4gvqv631095f64jvm7jfj_000000gn/T//ccnu1rXG.s:6084   .debug_str:00000000000000f6 .LASF30
/var/folders/rt/4gvqv631095f64jvm7jfj_000000gn/T//ccnu1rXG.s:6422   .debug_str:000000000000086f .LASF31
/var/folders/rt/4gvqv631095f64jvm7jfj_000000gn/T//ccnu1rXG.s:6102   .debug_str:0000000000000141 .LASF32
/var/folders/rt/4gvqv631095f64jvm7jfj_000000gn/T//ccnu1rXG.s:6442   .debug_str:00000000000008de .LASF33
/var/folders/rt/4gvqv631095f64jvm7jfj_000000gn/T//ccnu1rXG.s:6238   .debug_str:000000000000040a .LASF34
/var/folders/rt/4gvqv631095f64jvm7jfj_000000gn/T//ccnu1rXG.s:6222   .debug_str:00000000000003ad .LASF35
/var/folders/rt/4gvqv631095f64jvm7jfj_000000gn/T//ccnu1rXG.s:6328   .debug_str:00000000000005cc .LASF36
/var/folders/rt/4gvqv631095f64jvm7jfj_000000gn/T//ccnu1rXG.s:6278   .debug_str:00000000000004dd .LASF37
/var/folders/rt/4gvqv631095f64jvm7jfj_000000gn/T//ccnu1rXG.s:6418   .debug_str:0000000000000855 .LASF38
/var/folders/rt/4gvqv631095f64jvm7jfj_000000gn/T//ccnu1rXG.s:6106   .debug_str:0000000000000150 .LASF39
/var/folders/rt/4gvqv631095f64jvm7jfj_000000gn/T//ccnu1rXG.s:6046   .debug_str:000000000000001d .LASF40
/var/folders/rt/4gvqv631095f64jvm7jfj_000000gn/T//ccnu1rXG.s:6040   .debug_str:0000000000000000 .LASF41
/var/folders/rt/4gvqv631095f64jvm7jfj_000000gn/T//ccnu1rXG.s:6360   .debug_str:00000000000006d9 .LASF42
/var/folders/rt/4gvqv631095f64jvm7jfj_000000gn/T//ccnu1rXG.s:6120   .debug_str:000000000000019b .LASF43
/var/folders/rt/4gvqv631095f64jvm7jfj_000000gn/T//ccnu1rXG.s:6240   .debug_str:0000000000000413 .LASF44
/var/folders/rt/4gvqv631095f64jvm7jfj_000000gn/T//ccnu1rXG.s:6302   .debug_str:000000000000054c .LASF45
/var/folders/rt/4gvqv631095f64jvm7jfj_000000gn/T//ccnu1rXG.s:6144   .debug_str:000000000000022b .LASF46
/var/folders/rt/4gvqv631095f64jvm7jfj_000000gn/T//ccnu1rXG.s:6280   .debug_str:00000000000004e7 .LASF47
/var/folders/rt/4gvqv631095f64jvm7jfj_000000gn/T//ccnu1rXG.s:6100   .debug_str:000000000000013b .LASF48
/var/folders/rt/4gvqv631095f64jvm7jfj_000000gn/T//ccnu1rXG.s:6340   .debug_str:00000000000005ff .LASF49
/var/folders/rt/4gvqv631095f64jvm7jfj_000000gn/T//ccnu1rXG.s:6288   .debug_str:0000000000000504 .LASF50
/var/folders/rt/4gvqv631095f64jvm7jfj_000000gn/T//ccnu1rXG.s:6118   .debug_str:0000000000000194 .LASF51
GAS LISTING /var/folders/rt/4gvqv631095f64jvm7jfj_000000gn/T//ccnu1rXG.s 			page 34


/var/folders/rt/4gvqv631095f64jvm7jfj_000000gn/T//ccnu1rXG.s:6174   .debug_str:00000000000002b1 .LASF52
/var/folders/rt/4gvqv631095f64jvm7jfj_000000gn/T//ccnu1rXG.s:6436   .debug_str:00000000000008bb .LASF53
/var/folders/rt/4gvqv631095f64jvm7jfj_000000gn/T//ccnu1rXG.s:6110   .debug_str:0000000000000166 .LASF54
/var/folders/rt/4gvqv631095f64jvm7jfj_000000gn/T//ccnu1rXG.s:6158   .debug_str:0000000000000268 .LASF55
/var/folders/rt/4gvqv631095f64jvm7jfj_000000gn/T//ccnu1rXG.s:6220   .debug_str:00000000000003a6 .LASF56
/var/folders/rt/4gvqv631095f64jvm7jfj_000000gn/T//ccnu1rXG.s:6326   .debug_str:00000000000005c6 .LASF57
/var/folders/rt/4gvqv631095f64jvm7jfj_000000gn/T//ccnu1rXG.s:6090   .debug_str:000000000000010d .LASF58
/var/folders/rt/4gvqv631095f64jvm7jfj_000000gn/T//ccnu1rXG.s:6098   .debug_str:0000000000000135 .LASF59
/var/folders/rt/4gvqv631095f64jvm7jfj_000000gn/T//ccnu1rXG.s:6412   .debug_str:000000000000083c .LASF60
/var/folders/rt/4gvqv631095f64jvm7jfj_000000gn/T//ccnu1rXG.s:6338   .debug_str:00000000000005f6 .LASF61
/var/folders/rt/4gvqv631095f64jvm7jfj_000000gn/T//ccnu1rXG.s:6132   .debug_str:00000000000001dd .LASF62
/var/folders/rt/4gvqv631095f64jvm7jfj_000000gn/T//ccnu1rXG.s:6182   .debug_str:00000000000002d8 .LASF63
/var/folders/rt/4gvqv631095f64jvm7jfj_000000gn/T//ccnu1rXG.s:6208   .debug_str:000000000000035a .LASF64
/var/folders/rt/4gvqv631095f64jvm7jfj_000000gn/T//ccnu1rXG.s:6290   .debug_str:000000000000050c .LASF65
/var/folders/rt/4gvqv631095f64jvm7jfj_000000gn/T//ccnu1rXG.s:6282   .debug_str:00000000000004ee .LASF66
/var/folders/rt/4gvqv631095f64jvm7jfj_000000gn/T//ccnu1rXG.s:6316   .debug_str:00000000000005a2 .LASF67
/var/folders/rt/4gvqv631095f64jvm7jfj_000000gn/T//ccnu1rXG.s:6334   .debug_str:00000000000005ea .LASF68
/var/folders/rt/4gvqv631095f64jvm7jfj_000000gn/T//ccnu1rXG.s:6122   .debug_str:00000000000001a3 .LASF69
/var/folders/rt/4gvqv631095f64jvm7jfj_000000gn/T//ccnu1rXG.s:6168   .debug_str:000000000000028f .LASF70
/var/folders/rt/4gvqv631095f64jvm7jfj_000000gn/T//ccnu1rXG.s:6152   .debug_str:000000000000024d .LASF71
/var/folders/rt/4gvqv631095f64jvm7jfj_000000gn/T//ccnu1rXG.s:6300   .debug_str:0000000000000547 .LASF72
/var/folders/rt/4gvqv631095f64jvm7jfj_000000gn/T//ccnu1rXG.s:6052   .debug_str:0000000000000035 .LASF73
/var/folders/rt/4gvqv631095f64jvm7jfj_000000gn/T//ccnu1rXG.s:6310   .debug_str:000000000000056d .LASF74
/var/folders/rt/4gvqv631095f64jvm7jfj_000000gn/T//ccnu1rXG.s:6306   .debug_str:000000000000055b .LASF75
/var/folders/rt/4gvqv631095f64jvm7jfj_000000gn/T//ccnu1rXG.s:6246   .debug_str:0000000000000432 .LASF76
/var/folders/rt/4gvqv631095f64jvm7jfj_000000gn/T//ccnu1rXG.s:6308   .debug_str:0000000000000563 .LASF77
/var/folders/rt/4gvqv631095f64jvm7jfj_000000gn/T//ccnu1rXG.s:6198   .debug_str:0000000000000339 .LASF78
/var/folders/rt/4gvqv631095f64jvm7jfj_000000gn/T//ccnu1rXG.s:6126   .debug_str:00000000000001bd .LASF79
/var/folders/rt/4gvqv631095f64jvm7jfj_000000gn/T//ccnu1rXG.s:6432   .debug_str:00000000000008b1 .LASF80
/var/folders/rt/4gvqv631095f64jvm7jfj_000000gn/T//ccnu1rXG.s:6258   .debug_str:0000000000000478 .LASF81
/var/folders/rt/4gvqv631095f64jvm7jfj_000000gn/T//ccnu1rXG.s:6170   .debug_str:0000000000000297 .LASF82
/var/folders/rt/4gvqv631095f64jvm7jfj_000000gn/T//ccnu1rXG.s:6130   .debug_str:00000000000001d5 .LASF83
/var/folders/rt/4gvqv631095f64jvm7jfj_000000gn/T//ccnu1rXG.s:6206   .debug_str:0000000000000355 .LASF84
/var/folders/rt/4gvqv631095f64jvm7jfj_000000gn/T//ccnu1rXG.s:6060   .debug_str:000000000000005c .LASF85
/var/folders/rt/4gvqv631095f64jvm7jfj_000000gn/T//ccnu1rXG.s:6408   .debug_str:0000000000000828 .LASF86
/var/folders/rt/4gvqv631095f64jvm7jfj_000000gn/T//ccnu1rXG.s:6112   .debug_str:000000000000016e .LASF87
/var/folders/rt/4gvqv631095f64jvm7jfj_000000gn/T//ccnu1rXG.s:6104   .debug_str:000000000000014b .LASF88
/var/folders/rt/4gvqv631095f64jvm7jfj_000000gn/T//ccnu1rXG.s:6336   .debug_str:00000000000005f1 .LASF89
/var/folders/rt/4gvqv631095f64jvm7jfj_000000gn/T//ccnu1rXG.s:6286   .debug_str:00000000000004fd .LASF90
/var/folders/rt/4gvqv631095f64jvm7jfj_000000gn/T//ccnu1rXG.s:6398   .debug_str:00000000000007f2 .LASF91
/var/folders/rt/4gvqv631095f64jvm7jfj_000000gn/T//ccnu1rXG.s:6184   .debug_str:00000000000002de .LASF92
/var/folders/rt/4gvqv631095f64jvm7jfj_000000gn/T//ccnu1rXG.s:6272   .debug_str:00000000000004c5 .LASF93
/var/folders/rt/4gvqv631095f64jvm7jfj_000000gn/T//ccnu1rXG.s:6050   .debug_str:000000000000002d .LASF94
/var/folders/rt/4gvqv631095f64jvm7jfj_000000gn/T//ccnu1rXG.s:6318   .debug_str:00000000000005a9 .LASF95
/var/folders/rt/4gvqv631095f64jvm7jfj_000000gn/T//ccnu1rXG.s:6210   .debug_str:0000000000000360 .LASF96
/var/folders/rt/4gvqv631095f64jvm7jfj_000000gn/T//ccnu1rXG.s:6370   .debug_str:0000000000000752 .LASF97
/var/folders/rt/4gvqv631095f64jvm7jfj_000000gn/T//ccnu1rXG.s:6390   .debug_str:00000000000007c2 .LASF98
/var/folders/rt/4gvqv631095f64jvm7jfj_000000gn/T//ccnu1rXG.s:6138   .debug_str:0000000000000204 .LASF99
/var/folders/rt/4gvqv631095f64jvm7jfj_000000gn/T//ccnu1rXG.s:6196   .debug_str:000000000000032c .LASF100
/var/folders/rt/4gvqv631095f64jvm7jfj_000000gn/T//ccnu1rXG.s:6420   .debug_str:0000000000000860 .LASF101
/var/folders/rt/4gvqv631095f64jvm7jfj_000000gn/T//ccnu1rXG.s:6248   .debug_str:000000000000043d .LASF102
/var/folders/rt/4gvqv631095f64jvm7jfj_000000gn/T//ccnu1rXG.s:6192   .debug_str:0000000000000315 .LASF103
/var/folders/rt/4gvqv631095f64jvm7jfj_000000gn/T//ccnu1rXG.s:6234   .debug_str:00000000000003ec .LASF104
/var/folders/rt/4gvqv631095f64jvm7jfj_000000gn/T//ccnu1rXG.s:6244   .debug_str:0000000000000425 .LASF105
/var/folders/rt/4gvqv631095f64jvm7jfj_000000gn/T//ccnu1rXG.s:6430   .debug_str:00000000000008a3 .LASF106
/var/folders/rt/4gvqv631095f64jvm7jfj_000000gn/T//ccnu1rXG.s:6082   .debug_str:00000000000000e8 .LASF107
/var/folders/rt/4gvqv631095f64jvm7jfj_000000gn/T//ccnu1rXG.s:6404   .debug_str:0000000000000813 .LASF108
GAS LISTING /var/folders/rt/4gvqv631095f64jvm7jfj_000000gn/T//ccnu1rXG.s 			page 35


/var/folders/rt/4gvqv631095f64jvm7jfj_000000gn/T//ccnu1rXG.s:6194   .debug_str:0000000000000320 .LASF109
/var/folders/rt/4gvqv631095f64jvm7jfj_000000gn/T//ccnu1rXG.s:6376   .debug_str:0000000000000766 .LASF110
/var/folders/rt/4gvqv631095f64jvm7jfj_000000gn/T//ccnu1rXG.s:6140   .debug_str:0000000000000211 .LASF111
/var/folders/rt/4gvqv631095f64jvm7jfj_000000gn/T//ccnu1rXG.s:6378   .debug_str:0000000000000773 .LASF112
/var/folders/rt/4gvqv631095f64jvm7jfj_000000gn/T//ccnu1rXG.s:6136   .debug_str:00000000000001f3 .LASF113
/var/folders/rt/4gvqv631095f64jvm7jfj_000000gn/T//ccnu1rXG.s:6066   .debug_str:0000000000000073 .LASF114
/var/folders/rt/4gvqv631095f64jvm7jfj_000000gn/T//ccnu1rXG.s:6068   .debug_str:0000000000000082 .LASF115
/var/folders/rt/4gvqv631095f64jvm7jfj_000000gn/T//ccnu1rXG.s:6274   .debug_str:00000000000004cb .LASF116
/var/folders/rt/4gvqv631095f64jvm7jfj_000000gn/T//ccnu1rXG.s:6202   .debug_str:0000000000000347 .LASF117
/var/folders/rt/4gvqv631095f64jvm7jfj_000000gn/T//ccnu1rXG.s:6226   .debug_str:00000000000003bf .LASF118
/var/folders/rt/4gvqv631095f64jvm7jfj_000000gn/T//ccnu1rXG.s:6414   .debug_str:0000000000000842 .LASF119
/var/folders/rt/4gvqv631095f64jvm7jfj_000000gn/T//ccnu1rXG.s:6076   .debug_str:00000000000000bd .LASF200
/var/folders/rt/4gvqv631095f64jvm7jfj_000000gn/T//ccnu1rXG.s:6150   .debug_str:0000000000000241 .LASF121
/var/folders/rt/4gvqv631095f64jvm7jfj_000000gn/T//ccnu1rXG.s:6384   .debug_str:0000000000000798 .LASF122
/var/folders/rt/4gvqv631095f64jvm7jfj_000000gn/T//ccnu1rXG.s:6242   .debug_str:000000000000041b .LASF123
/var/folders/rt/4gvqv631095f64jvm7jfj_000000gn/T//ccnu1rXG.s:6070   .debug_str:0000000000000093 .LASF124
/var/folders/rt/4gvqv631095f64jvm7jfj_000000gn/T//ccnu1rXG.s:6304   .debug_str:0000000000000551 .LASF125
/var/folders/rt/4gvqv631095f64jvm7jfj_000000gn/T//ccnu1rXG.s:6074   .debug_str:00000000000000b5 .LASF126
/var/folders/rt/4gvqv631095f64jvm7jfj_000000gn/T//ccnu1rXG.s:6296   .debug_str:000000000000052d .LASF127
/var/folders/rt/4gvqv631095f64jvm7jfj_000000gn/T//ccnu1rXG.s:6180   .debug_str:00000000000002d3 .LASF128
/var/folders/rt/4gvqv631095f64jvm7jfj_000000gn/T//ccnu1rXG.s:6134   .debug_str:00000000000001e5 .LASF129
/var/folders/rt/4gvqv631095f64jvm7jfj_000000gn/T//ccnu1rXG.s:6096   .debug_str:000000000000012c .LASF130
/var/folders/rt/4gvqv631095f64jvm7jfj_000000gn/T//ccnu1rXG.s:6160   .debug_str:000000000000026e .LASF131
/var/folders/rt/4gvqv631095f64jvm7jfj_000000gn/T//ccnu1rXG.s:6236   .debug_str:00000000000003f1 .LASF132
/var/folders/rt/4gvqv631095f64jvm7jfj_000000gn/T//ccnu1rXG.s:6116   .debug_str:0000000000000180 .LASF133
/var/folders/rt/4gvqv631095f64jvm7jfj_000000gn/T//ccnu1rXG.s:6178   .debug_str:00000000000002be .LASF134
/var/folders/rt/4gvqv631095f64jvm7jfj_000000gn/T//ccnu1rXG.s:6382   .debug_str:000000000000078b .LASF135
/var/folders/rt/4gvqv631095f64jvm7jfj_000000gn/T//ccnu1rXG.s:6058   .debug_str:0000000000000051 .LASF136
/var/folders/rt/4gvqv631095f64jvm7jfj_000000gn/T//ccnu1rXG.s:6094   .debug_str:0000000000000120 .LASF137
/var/folders/rt/4gvqv631095f64jvm7jfj_000000gn/T//ccnu1rXG.s:6216   .debug_str:0000000000000384 .LASF138
/var/folders/rt/4gvqv631095f64jvm7jfj_000000gn/T//ccnu1rXG.s:6080   .debug_str:00000000000000d5 .LASF139
/var/folders/rt/4gvqv631095f64jvm7jfj_000000gn/T//ccnu1rXG.s:6312   .debug_str:0000000000000586 .LASF140
/var/folders/rt/4gvqv631095f64jvm7jfj_000000gn/T//ccnu1rXG.s:6438   .debug_str:00000000000008c4 .LASF141
/var/folders/rt/4gvqv631095f64jvm7jfj_000000gn/T//ccnu1rXG.s:6228   .debug_str:00000000000003c8 .LASF142
/var/folders/rt/4gvqv631095f64jvm7jfj_000000gn/T//ccnu1rXG.s:6078   .debug_str:00000000000000c8 .LASF143
/var/folders/rt/4gvqv631095f64jvm7jfj_000000gn/T//ccnu1rXG.s:6406   .debug_str:000000000000081d .LASF144
/var/folders/rt/4gvqv631095f64jvm7jfj_000000gn/T//ccnu1rXG.s:6396   .debug_str:00000000000007e9 .LASF145
/var/folders/rt/4gvqv631095f64jvm7jfj_000000gn/T//ccnu1rXG.s:6394   .debug_str:00000000000007df .LASF146
/var/folders/rt/4gvqv631095f64jvm7jfj_000000gn/T//ccnu1rXG.s:6344   .debug_str:0000000000000612 .LASF147
/var/folders/rt/4gvqv631095f64jvm7jfj_000000gn/T//ccnu1rXG.s:6356   .debug_str:000000000000064a .LASF148
/var/folders/rt/4gvqv631095f64jvm7jfj_000000gn/T//ccnu1rXG.s:6224   .debug_str:00000000000003b7 .LASF149
/var/folders/rt/4gvqv631095f64jvm7jfj_000000gn/T//ccnu1rXG.s:6266   .debug_str:00000000000004a5 .LASF150
/var/folders/rt/4gvqv631095f64jvm7jfj_000000gn/T//ccnu1rXG.s:6368   .debug_str:000000000000074a .LASF151
/var/folders/rt/4gvqv631095f64jvm7jfj_000000gn/T//ccnu1rXG.s:6054   .debug_str:0000000000000040 .LASF152
/var/folders/rt/4gvqv631095f64jvm7jfj_000000gn/T//ccnu1rXG.s:6262   .debug_str:000000000000048d .LASF153
/var/folders/rt/4gvqv631095f64jvm7jfj_000000gn/T//ccnu1rXG.s:6292   .debug_str:0000000000000515 .LASF154
/var/folders/rt/4gvqv631095f64jvm7jfj_000000gn/T//ccnu1rXG.s:6142   .debug_str:000000000000021f .LASF155
/var/folders/rt/4gvqv631095f64jvm7jfj_000000gn/T//ccnu1rXG.s:6156   .debug_str:000000000000025d .LASF156
/var/folders/rt/4gvqv631095f64jvm7jfj_000000gn/T//ccnu1rXG.s:6252   .debug_str:0000000000000455 .LASF157
/var/folders/rt/4gvqv631095f64jvm7jfj_000000gn/T//ccnu1rXG.s:6230   .debug_str:00000000000003d4 .LASF158
/var/folders/rt/4gvqv631095f64jvm7jfj_000000gn/T//ccnu1rXG.s:6434   .debug_str:00000000000008b6 .LASF201
/var/folders/rt/4gvqv631095f64jvm7jfj_000000gn/T//ccnu1rXG.s:860    .text.startup.main:0000000000000000 .LFB12
/var/folders/rt/4gvqv631095f64jvm7jfj_000000gn/T//ccnu1rXG.s:1024   .text.startup.main:0000000000000152 .LFE12
/var/folders/rt/4gvqv631095f64jvm7jfj_000000gn/T//ccnu1rXG.s:5302   .debug_loc:0000000000000000 .LLST24
/var/folders/rt/4gvqv631095f64jvm7jfj_000000gn/T//ccnu1rXG.s:5320   .debug_loc:000000000000002e .LLST25
/var/folders/rt/4gvqv631095f64jvm7jfj_000000gn/T//ccnu1rXG.s:6254   .debug_str:0000000000000463 .LASF159
/var/folders/rt/4gvqv631095f64jvm7jfj_000000gn/T//ccnu1rXG.s:5344   .debug_loc:0000000000000067 .LLST26
GAS LISTING /var/folders/rt/4gvqv631095f64jvm7jfj_000000gn/T//ccnu1rXG.s 			page 36


/var/folders/rt/4gvqv631095f64jvm7jfj_000000gn/T//ccnu1rXG.s:6218   .debug_str:000000000000039c .LASF160
/var/folders/rt/4gvqv631095f64jvm7jfj_000000gn/T//ccnu1rXG.s:6294   .debug_str:000000000000051e .LASF161
/var/folders/rt/4gvqv631095f64jvm7jfj_000000gn/T//ccnu1rXG.s:934    .text.startup.main:0000000000000094 .LVL82
/var/folders/rt/4gvqv631095f64jvm7jfj_000000gn/T//ccnu1rXG.s:937    .text.startup.main:000000000000009c .LVL83
/var/folders/rt/4gvqv631095f64jvm7jfj_000000gn/T//ccnu1rXG.s:940    .text.startup.main:00000000000000a4 .LVL84
/var/folders/rt/4gvqv631095f64jvm7jfj_000000gn/T//ccnu1rXG.s:943    .text.startup.main:00000000000000ac .LVL85
/var/folders/rt/4gvqv631095f64jvm7jfj_000000gn/T//ccnu1rXG.s:946    .text.startup.main:00000000000000b4 .LVL86
/var/folders/rt/4gvqv631095f64jvm7jfj_000000gn/T//ccnu1rXG.s:950    .text.startup.main:00000000000000be .LVL87
/var/folders/rt/4gvqv631095f64jvm7jfj_000000gn/T//ccnu1rXG.s:953    .text.startup.main:00000000000000c6 .LVL88
/var/folders/rt/4gvqv631095f64jvm7jfj_000000gn/T//ccnu1rXG.s:957    .text.startup.main:00000000000000d0 .LVL89
/var/folders/rt/4gvqv631095f64jvm7jfj_000000gn/T//ccnu1rXG.s:961    .text.startup.main:00000000000000da .LVL90
/var/folders/rt/4gvqv631095f64jvm7jfj_000000gn/T//ccnu1rXG.s:964    .text.startup.main:00000000000000e2 .LVL91
/var/folders/rt/4gvqv631095f64jvm7jfj_000000gn/T//ccnu1rXG.s:972    .text.startup.main:00000000000000f8 .LVL92
/var/folders/rt/4gvqv631095f64jvm7jfj_000000gn/T//ccnu1rXG.s:989    .text.startup.main:000000000000010a .LVL95
/var/folders/rt/4gvqv631095f64jvm7jfj_000000gn/T//ccnu1rXG.s:996    .text.startup.main:0000000000000116 .LVL97
/var/folders/rt/4gvqv631095f64jvm7jfj_000000gn/T//ccnu1rXG.s:998    .text.startup.main:000000000000011e .LVL98
/var/folders/rt/4gvqv631095f64jvm7jfj_000000gn/T//ccnu1rXG.s:1008   .text.startup.main:0000000000000134 .LVL99
/var/folders/rt/4gvqv631095f64jvm7jfj_000000gn/T//ccnu1rXG.s:1013   .text.startup.main:0000000000000142 .LVL100
/var/folders/rt/4gvqv631095f64jvm7jfj_000000gn/T//ccnu1rXG.s:1018   .text.startup.main:000000000000014e .LVL101
/var/folders/rt/4gvqv631095f64jvm7jfj_000000gn/T//ccnu1rXG.s:6256   .debug_str:0000000000000468 .LASF163
/var/folders/rt/4gvqv631095f64jvm7jfj_000000gn/T//ccnu1rXG.s:663    .text.receiveCommands:0000000000000000 .LFB11
/var/folders/rt/4gvqv631095f64jvm7jfj_000000gn/T//ccnu1rXG.s:853    .text.receiveCommands:000000000000014e .LFE11
/var/folders/rt/4gvqv631095f64jvm7jfj_000000gn/T//ccnu1rXG.s:5361   .debug_loc:0000000000000092 .LLST20
/var/folders/rt/4gvqv631095f64jvm7jfj_000000gn/T//ccnu1rXG.s:5384   .debug_loc:00000000000000cc .LLST21
/var/folders/rt/4gvqv631095f64jvm7jfj_000000gn/T//ccnu1rXG.s:5428   .debug_loc:0000000000000135 .LLST22
/var/folders/rt/4gvqv631095f64jvm7jfj_000000gn/T//ccnu1rXG.s:5450   .debug_loc:000000000000016c .LLST23
/var/folders/rt/4gvqv631095f64jvm7jfj_000000gn/T//ccnu1rXG.s:787    .text.receiveCommands:00000000000000ca .LBB18
/var/folders/rt/4gvqv631095f64jvm7jfj_000000gn/T//ccnu1rXG.s:812    .text.receiveCommands:00000000000000fe .LBE18
/var/folders/rt/4gvqv631095f64jvm7jfj_000000gn/T//ccnu1rXG.s:6188   .debug_str:00000000000002f2 .LASF162
/var/folders/rt/4gvqv631095f64jvm7jfj_000000gn/T//ccnu1rXG.s:790    .text.receiveCommands:00000000000000d2 .LVL69
/var/folders/rt/4gvqv631095f64jvm7jfj_000000gn/T//ccnu1rXG.s:800    .text.receiveCommands:00000000000000ec .LVL70
/var/folders/rt/4gvqv631095f64jvm7jfj_000000gn/T//ccnu1rXG.s:807    .text.receiveCommands:00000000000000fc .LVL71
/var/folders/rt/4gvqv631095f64jvm7jfj_000000gn/T//ccnu1rXG.s:738    .text.receiveCommands:000000000000007e .LVL63
/var/folders/rt/4gvqv631095f64jvm7jfj_000000gn/T//ccnu1rXG.s:743    .text.receiveCommands:0000000000000088 .LVL64
/var/folders/rt/4gvqv631095f64jvm7jfj_000000gn/T//ccnu1rXG.s:748    .text.receiveCommands:0000000000000096 .LVL65
/var/folders/rt/4gvqv631095f64jvm7jfj_000000gn/T//ccnu1rXG.s:784    .text.receiveCommands:00000000000000c8 .LVL68
/var/folders/rt/4gvqv631095f64jvm7jfj_000000gn/T//ccnu1rXG.s:815    .text.receiveCommands:0000000000000106 .LVL73
/var/folders/rt/4gvqv631095f64jvm7jfj_000000gn/T//ccnu1rXG.s:822    .text.receiveCommands:0000000000000112 .LVL75
/var/folders/rt/4gvqv631095f64jvm7jfj_000000gn/T//ccnu1rXG.s:833    .text.receiveCommands:000000000000012e .LVL77
/var/folders/rt/4gvqv631095f64jvm7jfj_000000gn/T//ccnu1rXG.s:841    .text.receiveCommands:0000000000000144 .LVL78
/var/folders/rt/4gvqv631095f64jvm7jfj_000000gn/T//ccnu1rXG.s:691    .text.receiveCommands:0000000000000026 .LVL60
/var/folders/rt/4gvqv631095f64jvm7jfj_000000gn/T//ccnu1rXG.s:701    .text.receiveCommands:0000000000000040 .LVL61
/var/folders/rt/4gvqv631095f64jvm7jfj_000000gn/T//ccnu1rXG.s:6388   .debug_str:00000000000007b4 .LASF164
/var/folders/rt/4gvqv631095f64jvm7jfj_000000gn/T//ccnu1rXG.s:581    .text.jsonAllPlants:0000000000000000 .LFB10
/var/folders/rt/4gvqv631095f64jvm7jfj_000000gn/T//ccnu1rXG.s:656    .text.jsonAllPlants:0000000000000094 .LFE10
/var/folders/rt/4gvqv631095f64jvm7jfj_000000gn/T//ccnu1rXG.s:5466   .debug_loc:0000000000000196 .LLST16
/var/folders/rt/4gvqv631095f64jvm7jfj_000000gn/T//ccnu1rXG.s:5484   .debug_loc:00000000000001c2 .LLST17
/var/folders/rt/4gvqv631095f64jvm7jfj_000000gn/T//ccnu1rXG.s:5498   .debug_loc:00000000000001e3 .LLST18
/var/folders/rt/4gvqv631095f64jvm7jfj_000000gn/T//ccnu1rXG.s:5516   .debug_loc:000000000000020f .LLST19
/var/folders/rt/4gvqv631095f64jvm7jfj_000000gn/T//ccnu1rXG.s:647    .text.jsonAllPlants:000000000000008e .LVL57
/var/folders/rt/4gvqv631095f64jvm7jfj_000000gn/T//ccnu1rXG.s:6124   .debug_str:00000000000001aa .LASF165
/var/folders/rt/4gvqv631095f64jvm7jfj_000000gn/T//ccnu1rXG.s:393    .text.updatePlantReading:0000000000000000 .LFB9
/var/folders/rt/4gvqv631095f64jvm7jfj_000000gn/T//ccnu1rXG.s:574    .text.updatePlantReading:0000000000000106 .LFE9
/var/folders/rt/4gvqv631095f64jvm7jfj_000000gn/T//ccnu1rXG.s:5530   .debug_loc:0000000000000230 .LLST9
/var/folders/rt/4gvqv631095f64jvm7jfj_000000gn/T//ccnu1rXG.s:5553   .debug_loc:000000000000026a .LLST10
/var/folders/rt/4gvqv631095f64jvm7jfj_000000gn/T//ccnu1rXG.s:5567   .debug_loc:000000000000028b .LLST11
/var/folders/rt/4gvqv631095f64jvm7jfj_000000gn/T//ccnu1rXG.s:5589   .debug_loc:00000000000002c2 .LLST12
GAS LISTING /var/folders/rt/4gvqv631095f64jvm7jfj_000000gn/T//ccnu1rXG.s 			page 37


/var/folders/rt/4gvqv631095f64jvm7jfj_000000gn/T//ccnu1rXG.s:6062   .debug_str:0000000000000065 .LASF166
/var/folders/rt/4gvqv631095f64jvm7jfj_000000gn/T//ccnu1rXG.s:5644   .debug_loc:0000000000000344 .LLST13
/var/folders/rt/4gvqv631095f64jvm7jfj_000000gn/T//ccnu1rXG.s:5699   .debug_loc:00000000000003c6 .LLST14
/var/folders/rt/4gvqv631095f64jvm7jfj_000000gn/T//ccnu1rXG.s:6400   .debug_str:00000000000007f8 .LASF167
/var/folders/rt/4gvqv631095f64jvm7jfj_000000gn/T//ccnu1rXG.s:6186   .debug_str:00000000000002e5 .LASF168
/var/folders/rt/4gvqv631095f64jvm7jfj_000000gn/T//ccnu1rXG.s:5715   .debug_loc:00000000000003f0 .LLST15
/var/folders/rt/4gvqv631095f64jvm7jfj_000000gn/T//ccnu1rXG.s:472    .text.updatePlantReading:000000000000006a .LVL40
/var/folders/rt/4gvqv631095f64jvm7jfj_000000gn/T//ccnu1rXG.s:479    .text.updatePlantReading:000000000000007c .LVL41
/var/folders/rt/4gvqv631095f64jvm7jfj_000000gn/T//ccnu1rXG.s:505    .text.updatePlantReading:00000000000000b2 .LVL43
/var/folders/rt/4gvqv631095f64jvm7jfj_000000gn/T//ccnu1rXG.s:547    .text.updatePlantReading:00000000000000e0 .LVL49
/var/folders/rt/4gvqv631095f64jvm7jfj_000000gn/T//ccnu1rXG.s:458    .text.updatePlantReading:0000000000000056 .LVL38
/var/folders/rt/4gvqv631095f64jvm7jfj_000000gn/T//ccnu1rXG.s:437    .text.updatePlantReading:000000000000002e .LVL36
/var/folders/rt/4gvqv631095f64jvm7jfj_000000gn/T//ccnu1rXG.s:562    .text.updatePlantReading:00000000000000fc .LVL51
/var/folders/rt/4gvqv631095f64jvm7jfj_000000gn/T//ccnu1rXG.s:6424   .debug_str:0000000000000878 .LASF169
/var/folders/rt/4gvqv631095f64jvm7jfj_000000gn/T//ccnu1rXG.s:380    .text.updatePlantStatus:0000000000000000 .LFB8
/var/folders/rt/4gvqv631095f64jvm7jfj_000000gn/T//ccnu1rXG.s:386    .text.updatePlantStatus:0000000000000002 .LFE8
/var/folders/rt/4gvqv631095f64jvm7jfj_000000gn/T//ccnu1rXG.s:6212   .debug_str:0000000000000366 .LASF170
/var/folders/rt/4gvqv631095f64jvm7jfj_000000gn/T//ccnu1rXG.s:6352   .debug_str:0000000000000635 .LASF171
/var/folders/rt/4gvqv631095f64jvm7jfj_000000gn/T//ccnu1rXG.s:178    .text.renderOnePlant:0000000000000000 .LFB7
/var/folders/rt/4gvqv631095f64jvm7jfj_000000gn/T//ccnu1rXG.s:373    .text.renderOnePlant:000000000000014c .LFE7
/var/folders/rt/4gvqv631095f64jvm7jfj_000000gn/T//ccnu1rXG.s:5748   .debug_loc:0000000000000426 .LLST4
/var/folders/rt/4gvqv631095f64jvm7jfj_000000gn/T//ccnu1rXG.s:5771   .debug_loc:000000000000045e .LLST5
/var/folders/rt/4gvqv631095f64jvm7jfj_000000gn/T//ccnu1rXG.s:5785   .debug_loc:000000000000047f .LLST6
/var/folders/rt/4gvqv631095f64jvm7jfj_000000gn/T//ccnu1rXG.s:5807   .debug_loc:00000000000004b6 .LLST7
/var/folders/rt/4gvqv631095f64jvm7jfj_000000gn/T//ccnu1rXG.s:5850   .debug_loc:000000000000051e .LLST8
/var/folders/rt/4gvqv631095f64jvm7jfj_000000gn/T//ccnu1rXG.s:230    .text.renderOnePlant:000000000000003c .LVL16
/var/folders/rt/4gvqv631095f64jvm7jfj_000000gn/T//ccnu1rXG.s:246    .text.renderOnePlant:000000000000005c .LVL19
/var/folders/rt/4gvqv631095f64jvm7jfj_000000gn/T//ccnu1rXG.s:262    .text.renderOnePlant:000000000000007a .LVL20
/var/folders/rt/4gvqv631095f64jvm7jfj_000000gn/T//ccnu1rXG.s:272    .text.renderOnePlant:0000000000000094 .LVL22
/var/folders/rt/4gvqv631095f64jvm7jfj_000000gn/T//ccnu1rXG.s:287    .text.renderOnePlant:00000000000000b2 .LVL23
/var/folders/rt/4gvqv631095f64jvm7jfj_000000gn/T//ccnu1rXG.s:303    .text.renderOnePlant:00000000000000d2 .LVL24
/var/folders/rt/4gvqv631095f64jvm7jfj_000000gn/T//ccnu1rXG.s:311    .text.renderOnePlant:00000000000000ea .LVL25
/var/folders/rt/4gvqv631095f64jvm7jfj_000000gn/T//ccnu1rXG.s:319    .text.renderOnePlant:0000000000000104 .LVL26
/var/folders/rt/4gvqv631095f64jvm7jfj_000000gn/T//ccnu1rXG.s:334    .text.renderOnePlant:0000000000000124 .LVL27
/var/folders/rt/4gvqv631095f64jvm7jfj_000000gn/T//ccnu1rXG.s:362    .text.renderOnePlant:0000000000000148 .LVL30
/var/folders/rt/4gvqv631095f64jvm7jfj_000000gn/T//ccnu1rXG.s:6214   .debug_str:0000000000000374 .LASF172
/var/folders/rt/4gvqv631095f64jvm7jfj_000000gn/T//ccnu1rXG.s:14     .text.renderAllPlants:0000000000000000 .LFB6
/var/folders/rt/4gvqv631095f64jvm7jfj_000000gn/T//ccnu1rXG.s:171    .text.renderAllPlants:00000000000000de .LFE6
/var/folders/rt/4gvqv631095f64jvm7jfj_000000gn/T//ccnu1rXG.s:5866   .debug_loc:0000000000000548 .LLST0
/var/folders/rt/4gvqv631095f64jvm7jfj_000000gn/T//ccnu1rXG.s:5889   .debug_loc:0000000000000580 .LLST1
/var/folders/rt/4gvqv631095f64jvm7jfj_000000gn/T//ccnu1rXG.s:5903   .debug_loc:00000000000005a1 .LLST2
/var/folders/rt/4gvqv631095f64jvm7jfj_000000gn/T//ccnu1rXG.s:5925   .debug_loc:00000000000005d8 .LLST3
/var/folders/rt/4gvqv631095f64jvm7jfj_000000gn/T//ccnu1rXG.s:109    .text.renderAllPlants:0000000000000058 .LVL6
/var/folders/rt/4gvqv631095f64jvm7jfj_000000gn/T//ccnu1rXG.s:125    .text.renderAllPlants:0000000000000074 .LVL7
/var/folders/rt/4gvqv631095f64jvm7jfj_000000gn/T//ccnu1rXG.s:134    .text.renderAllPlants:000000000000008c .LVL8
/var/folders/rt/4gvqv631095f64jvm7jfj_000000gn/T//ccnu1rXG.s:150    .text.renderAllPlants:00000000000000aa .LVL9
/var/folders/rt/4gvqv631095f64jvm7jfj_000000gn/T//ccnu1rXG.s:158    .text.renderAllPlants:00000000000000c0 .LVL10
/var/folders/rt/4gvqv631095f64jvm7jfj_000000gn/T//ccnu1rXG.s:166    .text.renderAllPlants:00000000000000d8 .LVL11
/var/folders/rt/4gvqv631095f64jvm7jfj_000000gn/T//ccnu1rXG.s:6410   .debug_str:0000000000000832 .LASF173
/var/folders/rt/4gvqv631095f64jvm7jfj_000000gn/T//ccnu1rXG.s:6372   .debug_str:0000000000000757 .LASF174
/var/folders/rt/4gvqv631095f64jvm7jfj_000000gn/T//ccnu1rXG.s:6108   .debug_str:000000000000015e .LASF175
/var/folders/rt/4gvqv631095f64jvm7jfj_000000gn/T//ccnu1rXG.s:6268   .debug_str:00000000000004af .LASF176
/var/folders/rt/4gvqv631095f64jvm7jfj_000000gn/T//ccnu1rXG.s:6056   .debug_str:0000000000000049 .LASF177
/var/folders/rt/4gvqv631095f64jvm7jfj_000000gn/T//ccnu1rXG.s:6426   .debug_str:000000000000088a .LASF178
/var/folders/rt/4gvqv631095f64jvm7jfj_000000gn/T//ccnu1rXG.s:6190   .debug_str:00000000000002f7 .LASF179
/var/folders/rt/4gvqv631095f64jvm7jfj_000000gn/T//ccnu1rXG.s:6392   .debug_str:00000000000007cf .LASF180
/var/folders/rt/4gvqv631095f64jvm7jfj_000000gn/T//ccnu1rXG.s:6298   .debug_str:000000000000053b .LASF181
GAS LISTING /var/folders/rt/4gvqv631095f64jvm7jfj_000000gn/T//ccnu1rXG.s 			page 38


/var/folders/rt/4gvqv631095f64jvm7jfj_000000gn/T//ccnu1rXG.s:6428   .debug_str:000000000000089a .LASF182
/var/folders/rt/4gvqv631095f64jvm7jfj_000000gn/T//ccnu1rXG.s:6250   .debug_str:000000000000044c .LASF183
/var/folders/rt/4gvqv631095f64jvm7jfj_000000gn/T//ccnu1rXG.s:6284   .debug_str:00000000000004f6 .LASF184
/var/folders/rt/4gvqv631095f64jvm7jfj_000000gn/T//ccnu1rXG.s:6086   .debug_str:00000000000000ff .LASF185
/var/folders/rt/4gvqv631095f64jvm7jfj_000000gn/T//ccnu1rXG.s:6346   .debug_str:000000000000061b .LASF186
/var/folders/rt/4gvqv631095f64jvm7jfj_000000gn/T//ccnu1rXG.s:6176   .debug_str:00000000000002b7 .LASF187
/var/folders/rt/4gvqv631095f64jvm7jfj_000000gn/T//ccnu1rXG.s:6114   .debug_str:0000000000000176 .LASF188
/var/folders/rt/4gvqv631095f64jvm7jfj_000000gn/T//ccnu1rXG.s:6350   .debug_str:0000000000000629 .LASF189
/var/folders/rt/4gvqv631095f64jvm7jfj_000000gn/T//ccnu1rXG.s:6044   .debug_str:0000000000000016 .LASF190
/var/folders/rt/4gvqv631095f64jvm7jfj_000000gn/T//ccnu1rXG.s:6348   .debug_str:0000000000000622 .LASF191
/var/folders/rt/4gvqv631095f64jvm7jfj_000000gn/T//ccnu1rXG.s:6048   .debug_str:0000000000000025 .LASF192
/var/folders/rt/4gvqv631095f64jvm7jfj_000000gn/T//ccnu1rXG.s:6364   .debug_str:0000000000000725 .LASF193
/var/folders/rt/4gvqv631095f64jvm7jfj_000000gn/T//ccnu1rXG.s:6416   .debug_str:000000000000084a .LASF194
/var/folders/rt/4gvqv631095f64jvm7jfj_000000gn/T//ccnu1rXG.s:6380   .debug_str:0000000000000782 .LASF195
/var/folders/rt/4gvqv631095f64jvm7jfj_000000gn/T//ccnu1rXG.s:6440   .debug_str:00000000000008d2 .LASF196
/var/folders/rt/4gvqv631095f64jvm7jfj_000000gn/T//ccnu1rXG.s:870    .text.startup.main:0000000000000006 .LCFI14
/var/folders/rt/4gvqv631095f64jvm7jfj_000000gn/T//ccnu1rXG.s:886    .text.startup.main:000000000000002a .LCFI15
/var/folders/rt/4gvqv631095f64jvm7jfj_000000gn/T//ccnu1rXG.s:864    .text.startup.main:0000000000000000 .LVL81
/var/folders/rt/4gvqv631095f64jvm7jfj_000000gn/T//ccnu1rXG.s:979    .text.startup.main:0000000000000100 .LVL93
/var/folders/rt/4gvqv631095f64jvm7jfj_000000gn/T//ccnu1rXG.s:993    .text.startup.main:000000000000010e .LVL96
/var/folders/rt/4gvqv631095f64jvm7jfj_000000gn/T//ccnu1rXG.s:670    .text.receiveCommands:0000000000000004 .LCFI11
/var/folders/rt/4gvqv631095f64jvm7jfj_000000gn/T//ccnu1rXG.s:770    .text.receiveCommands:00000000000000b2 .LCFI12
/var/folders/rt/4gvqv631095f64jvm7jfj_000000gn/T//ccnu1rXG.s:775    .text.receiveCommands:00000000000000b4 .LCFI13
/var/folders/rt/4gvqv631095f64jvm7jfj_000000gn/T//ccnu1rXG.s:666    .text.receiveCommands:0000000000000000 .LVL58
/var/folders/rt/4gvqv631095f64jvm7jfj_000000gn/T//ccnu1rXG.s:677    .text.receiveCommands:000000000000000c .LVL59
/var/folders/rt/4gvqv631095f64jvm7jfj_000000gn/T//ccnu1rXG.s:773    .text.receiveCommands:00000000000000b4 .LVL67
/var/folders/rt/4gvqv631095f64jvm7jfj_000000gn/T//ccnu1rXG.s:810    .text.receiveCommands:00000000000000fe .LVL72
/var/folders/rt/4gvqv631095f64jvm7jfj_000000gn/T//ccnu1rXG.s:817    .text.receiveCommands:0000000000000108 .LVL74
/var/folders/rt/4gvqv631095f64jvm7jfj_000000gn/T//ccnu1rXG.s:825    .text.receiveCommands:0000000000000114 .LVL76
/var/folders/rt/4gvqv631095f64jvm7jfj_000000gn/T//ccnu1rXG.s:845    .text.receiveCommands:000000000000014a .LVL79
/var/folders/rt/4gvqv631095f64jvm7jfj_000000gn/T//ccnu1rXG.s:766    .text.receiveCommands:00000000000000aa .LVL66
/var/folders/rt/4gvqv631095f64jvm7jfj_000000gn/T//ccnu1rXG.s:716    .text.receiveCommands:0000000000000052 .LVL62
/var/folders/rt/4gvqv631095f64jvm7jfj_000000gn/T//ccnu1rXG.s:604    .text.jsonAllPlants:0000000000000020 .LCFI9
/var/folders/rt/4gvqv631095f64jvm7jfj_000000gn/T//ccnu1rXG.s:652    .text.jsonAllPlants:0000000000000092 .LCFI10
/var/folders/rt/4gvqv631095f64jvm7jfj_000000gn/T//ccnu1rXG.s:584    .text.jsonAllPlants:0000000000000000 .LVL54
/var/folders/rt/4gvqv631095f64jvm7jfj_000000gn/T//ccnu1rXG.s:600    .text.jsonAllPlants:000000000000001a .LVL56
/var/folders/rt/4gvqv631095f64jvm7jfj_000000gn/T//ccnu1rXG.s:595    .text.jsonAllPlants:0000000000000014 .LVL55
/var/folders/rt/4gvqv631095f64jvm7jfj_000000gn/T//ccnu1rXG.s:403    .text.updatePlantReading:0000000000000002 .LCFI6
/var/folders/rt/4gvqv631095f64jvm7jfj_000000gn/T//ccnu1rXG.s:530    .text.updatePlantReading:00000000000000c8 .LCFI7
/var/folders/rt/4gvqv631095f64jvm7jfj_000000gn/T//ccnu1rXG.s:535    .text.updatePlantReading:00000000000000ca .LCFI8
/var/folders/rt/4gvqv631095f64jvm7jfj_000000gn/T//ccnu1rXG.s:396    .text.updatePlantReading:0000000000000000 .LVL32
/var/folders/rt/4gvqv631095f64jvm7jfj_000000gn/T//ccnu1rXG.s:423    .text.updatePlantReading:0000000000000014 .LVL33
/var/folders/rt/4gvqv631095f64jvm7jfj_000000gn/T//ccnu1rXG.s:526    .text.updatePlantReading:00000000000000c4 .LVL46
/var/folders/rt/4gvqv631095f64jvm7jfj_000000gn/T//ccnu1rXG.s:533    .text.updatePlantReading:00000000000000ca .LVL47
/var/folders/rt/4gvqv631095f64jvm7jfj_000000gn/T//ccnu1rXG.s:433    .text.updatePlantReading:0000000000000022 .LVL35
/var/folders/rt/4gvqv631095f64jvm7jfj_000000gn/T//ccnu1rXG.s:447    .text.updatePlantReading:0000000000000046 .LVL37
/var/folders/rt/4gvqv631095f64jvm7jfj_000000gn/T//ccnu1rXG.s:463    .text.updatePlantReading:000000000000005c .LVL39
/var/folders/rt/4gvqv631095f64jvm7jfj_000000gn/T//ccnu1rXG.s:511    .text.updatePlantReading:00000000000000bc .LVL44
/var/folders/rt/4gvqv631095f64jvm7jfj_000000gn/T//ccnu1rXG.s:556    .text.updatePlantReading:00000000000000f4 .LVL50
/var/folders/rt/4gvqv631095f64jvm7jfj_000000gn/T//ccnu1rXG.s:564    .text.updatePlantReading:00000000000000fe .LVL52
/var/folders/rt/4gvqv631095f64jvm7jfj_000000gn/T//ccnu1rXG.s:431    .text.updatePlantReading:000000000000001e .LVL34
/var/folders/rt/4gvqv631095f64jvm7jfj_000000gn/T//ccnu1rXG.s:523    .text.updatePlantReading:00000000000000c2 .LVL45
/var/folders/rt/4gvqv631095f64jvm7jfj_000000gn/T//ccnu1rXG.s:494    .text.updatePlantReading:0000000000000096 .LVL42
/var/folders/rt/4gvqv631095f64jvm7jfj_000000gn/T//ccnu1rXG.s:545    .text.updatePlantReading:00000000000000d8 .LVL48
/var/folders/rt/4gvqv631095f64jvm7jfj_000000gn/T//ccnu1rXG.s:188    .text.renderOnePlant:0000000000000002 .LCFI3
/var/folders/rt/4gvqv631095f64jvm7jfj_000000gn/T//ccnu1rXG.s:358    .text.renderOnePlant:0000000000000140 .LCFI4
/var/folders/rt/4gvqv631095f64jvm7jfj_000000gn/T//ccnu1rXG.s:364    .text.renderOnePlant:0000000000000148 .LCFI5
GAS LISTING /var/folders/rt/4gvqv631095f64jvm7jfj_000000gn/T//ccnu1rXG.s 			page 39


/var/folders/rt/4gvqv631095f64jvm7jfj_000000gn/T//ccnu1rXG.s:181    .text.renderOnePlant:0000000000000000 .LVL12
/var/folders/rt/4gvqv631095f64jvm7jfj_000000gn/T//ccnu1rXG.s:206    .text.renderOnePlant:0000000000000012 .LVL13
/var/folders/rt/4gvqv631095f64jvm7jfj_000000gn/T//ccnu1rXG.s:356    .text.renderOnePlant:000000000000013e .LVL29
/var/folders/rt/4gvqv631095f64jvm7jfj_000000gn/T//ccnu1rXG.s:214    .text.renderOnePlant:000000000000001c .LVL14
/var/folders/rt/4gvqv631095f64jvm7jfj_000000gn/T//ccnu1rXG.s:221    .text.renderOnePlant:000000000000002e .LVL15
/var/folders/rt/4gvqv631095f64jvm7jfj_000000gn/T//ccnu1rXG.s:237    .text.renderOnePlant:0000000000000048 .LVL17
/var/folders/rt/4gvqv631095f64jvm7jfj_000000gn/T//ccnu1rXG.s:243    .text.renderOnePlant:0000000000000052 .LVL18
/var/folders/rt/4gvqv631095f64jvm7jfj_000000gn/T//ccnu1rXG.s:341    .text.renderOnePlant:0000000000000134 .LVL28
/var/folders/rt/4gvqv631095f64jvm7jfj_000000gn/T//ccnu1rXG.s:265    .text.renderOnePlant:000000000000007e .LVL21
/var/folders/rt/4gvqv631095f64jvm7jfj_000000gn/T//ccnu1rXG.s:25     .text.renderAllPlants:0000000000000002 .LCFI0
/var/folders/rt/4gvqv631095f64jvm7jfj_000000gn/T//ccnu1rXG.s:89     .text.renderAllPlants:000000000000003e .LCFI1
/var/folders/rt/4gvqv631095f64jvm7jfj_000000gn/T//ccnu1rXG.s:94     .text.renderAllPlants:0000000000000040 .LCFI2
/var/folders/rt/4gvqv631095f64jvm7jfj_000000gn/T//ccnu1rXG.s:18     .text.renderAllPlants:0000000000000000 .LVL0
/var/folders/rt/4gvqv631095f64jvm7jfj_000000gn/T//ccnu1rXG.s:61     .text.renderAllPlants:0000000000000026 .LVL1
/var/folders/rt/4gvqv631095f64jvm7jfj_000000gn/T//ccnu1rXG.s:85     .text.renderAllPlants:000000000000003a .LVL3
/var/folders/rt/4gvqv631095f64jvm7jfj_000000gn/T//ccnu1rXG.s:92     .text.renderAllPlants:0000000000000040 .LVL4
/var/folders/rt/4gvqv631095f64jvm7jfj_000000gn/T//ccnu1rXG.s:80     .text.renderAllPlants:0000000000000036 .LVL2
/var/folders/rt/4gvqv631095f64jvm7jfj_000000gn/T//ccnu1rXG.s:105    .text.renderAllPlants:000000000000004e .LVL5
/var/folders/rt/4gvqv631095f64jvm7jfj_000000gn/T//ccnu1rXG.s:1083   .debug_info:0000000000000000 .Ldebug_info0
/var/folders/rt/4gvqv631095f64jvm7jfj_000000gn/T//ccnu1rXG.s:20     .text.renderAllPlants:0000000000000000 .LBB2
/var/folders/rt/4gvqv631095f64jvm7jfj_000000gn/T//ccnu1rXG.s:22     .text.renderAllPlants:0000000000000000 .LBE2
/var/folders/rt/4gvqv631095f64jvm7jfj_000000gn/T//ccnu1rXG.s:29     .text.renderAllPlants:0000000000000004 .LBB3
/var/folders/rt/4gvqv631095f64jvm7jfj_000000gn/T//ccnu1rXG.s:32     .text.renderAllPlants:0000000000000006 .LBE3
/var/folders/rt/4gvqv631095f64jvm7jfj_000000gn/T//ccnu1rXG.s:53     .text.renderAllPlants:000000000000001a .LBB4
/var/folders/rt/4gvqv631095f64jvm7jfj_000000gn/T//ccnu1rXG.s:65     .text.renderAllPlants:000000000000002a .LBE4
/var/folders/rt/4gvqv631095f64jvm7jfj_000000gn/T//ccnu1rXG.s:96     .text.renderAllPlants:0000000000000040 .LBB5
/var/folders/rt/4gvqv631095f64jvm7jfj_000000gn/T//ccnu1rXG.s:169    .text.renderAllPlants:00000000000000de .LBE5
/var/folders/rt/4gvqv631095f64jvm7jfj_000000gn/T//ccnu1rXG.s:183    .text.renderOnePlant:0000000000000000 .LBB6
/var/folders/rt/4gvqv631095f64jvm7jfj_000000gn/T//ccnu1rXG.s:185    .text.renderOnePlant:0000000000000000 .LBE6
/var/folders/rt/4gvqv631095f64jvm7jfj_000000gn/T//ccnu1rXG.s:203    .text.renderOnePlant:0000000000000010 .LBB7
/var/folders/rt/4gvqv631095f64jvm7jfj_000000gn/T//ccnu1rXG.s:210    .text.renderOnePlant:0000000000000016 .LBE7
/var/folders/rt/4gvqv631095f64jvm7jfj_000000gn/T//ccnu1rXG.s:223    .text.renderOnePlant:000000000000002e .LBB8
/var/folders/rt/4gvqv631095f64jvm7jfj_000000gn/T//ccnu1rXG.s:343    .text.renderOnePlant:0000000000000134 .LBE8
/var/folders/rt/4gvqv631095f64jvm7jfj_000000gn/T//ccnu1rXG.s:366    .text.renderOnePlant:0000000000000148 .LBB9
/var/folders/rt/4gvqv631095f64jvm7jfj_000000gn/T//ccnu1rXG.s:371    .text.renderOnePlant:000000000000014c .LBE9
/var/folders/rt/4gvqv631095f64jvm7jfj_000000gn/T//ccnu1rXG.s:398    .text.updatePlantReading:0000000000000000 .LBB10
/var/folders/rt/4gvqv631095f64jvm7jfj_000000gn/T//ccnu1rXG.s:400    .text.updatePlantReading:0000000000000000 .LBE10
/var/folders/rt/4gvqv631095f64jvm7jfj_000000gn/T//ccnu1rXG.s:418    .text.updatePlantReading:0000000000000010 .LBB13
/var/folders/rt/4gvqv631095f64jvm7jfj_000000gn/T//ccnu1rXG.s:427    .text.updatePlantReading:0000000000000018 .LBE13
/var/folders/rt/4gvqv631095f64jvm7jfj_000000gn/T//ccnu1rXG.s:449    .text.updatePlantReading:0000000000000046 .LBB14
/var/folders/rt/4gvqv631095f64jvm7jfj_000000gn/T//ccnu1rXG.s:514    .text.updatePlantReading:00000000000000bc .LBE14
/var/folders/rt/4gvqv631095f64jvm7jfj_000000gn/T//ccnu1rXG.s:537    .text.updatePlantReading:00000000000000ca .LBB15
/var/folders/rt/4gvqv631095f64jvm7jfj_000000gn/T//ccnu1rXG.s:559    .text.updatePlantReading:00000000000000f4 .LBE15
/var/folders/rt/4gvqv631095f64jvm7jfj_000000gn/T//ccnu1rXG.s:566    .text.updatePlantReading:00000000000000fe .LBB16
/var/folders/rt/4gvqv631095f64jvm7jfj_000000gn/T//ccnu1rXG.s:572    .text.updatePlantReading:0000000000000106 .LBE16
/var/folders/rt/4gvqv631095f64jvm7jfj_000000gn/T//ccnu1rXG.s:467    .text.updatePlantReading:0000000000000060 .LBB11
/var/folders/rt/4gvqv631095f64jvm7jfj_000000gn/T//ccnu1rXG.s:513    .text.updatePlantReading:00000000000000bc .LBE11
/var/folders/rt/4gvqv631095f64jvm7jfj_000000gn/T//ccnu1rXG.s:538    .text.updatePlantReading:00000000000000ca .LBB12
/var/folders/rt/4gvqv631095f64jvm7jfj_000000gn/T//ccnu1rXG.s:558    .text.updatePlantReading:00000000000000f4 .LBE12
/var/folders/rt/4gvqv631095f64jvm7jfj_000000gn/T//ccnu1rXG.s:703    .text.receiveCommands:0000000000000040 .LBB17
/var/folders/rt/4gvqv631095f64jvm7jfj_000000gn/T//ccnu1rXG.s:755    .text.receiveCommands:000000000000009a .LBE17
/var/folders/rt/4gvqv631095f64jvm7jfj_000000gn/T//ccnu1rXG.s:777    .text.receiveCommands:00000000000000b4 .LBB19
/var/folders/rt/4gvqv631095f64jvm7jfj_000000gn/T//ccnu1rXG.s:851    .text.receiveCommands:000000000000014e .LBE19

UNDEFINED SYMBOLS
LCD_ShowStr
LCD_ShowNum
GAS LISTING /var/folders/rt/4gvqv631095f64jvm7jfj_000000gn/T//ccnu1rXG.s 			page 40


strcmp
LCD_Fill
generateTimeStamp
readSensor
snprintf
sprintf
LCD_Clear
commandBufferIndex
commandBuffer
putstr
initPlant
t5omsi
colinit
l88init
rtcInit
rtc_counter_set
eclic_global_interrupt_enable
ADC3powerUpInit
Lcd_SetType
Lcd_Init
t5expq
colset
l88row
l88mem
