GAS LISTING /var/folders/rt/4gvqv631095f64jvm7jfj_000000gn/T//cc2eS35f.s 			page 1


   1              		.file	"menu.c"
   2              		.option nopic
   3              		.attribute arch, "rv32i2p0_m2p0_a2p0_c2p0"
   4              		.attribute unaligned_access, 0
   5              		.attribute stack_align, 16
   6              		.text
   7              	.Ltext0:
   8              		.cfi_sections	.debug_frame
   9              		.globl	__fixunssfsi
  10              		.section	.text.pages,"ax",@progbits
  11              		.align	1
  12              		.globl	pages
  14              	pages:
  15              	.LFB5:
  16              		.file 1 "menu.c"
   1:menu.c        **** #include "adc.h"
   2:menu.c        **** #include "menu.h"
   3:menu.c        **** #include "lcd.h"
   4:menu.c        **** #include "plant.h"
   5:menu.c        **** #include "renderPlants.h"
   6:menu.c        **** #define BACK_Y 124
   7:menu.c        **** #define TIMEOUT_mins 5
   8:menu.c        **** #define TIMOUT_ms (TIMEOUT_mins * 60000)
   9:menu.c        **** 
  10:menu.c        **** void pages(int page, int point, int *pNumberOfPlants, Plant allPlants[], int *alive)
  11:menu.c        **** {
  17              		.loc 1 11 1
  18              		.cfi_startproc
  19              	.LVL0:
  12:menu.c        ****   int x = 12;
  20              		.loc 1 12 3
  13:menu.c        ****   int y = 10;
  21              		.loc 1 13 3
  14:menu.c        ****   int plantnum = 1;
  22              		.loc 1 14 3
  15:menu.c        ****   int runtemp = 0;
  23              		.loc 1 15 3
  16:menu.c        ****   float temp = 0;
  24              		.loc 1 16 3
  17:menu.c        **** 
  18:menu.c        ****   switch (page)
  25              		.loc 1 18 3
  26 0000 C547     		li	a5,17
  27 0002 63EFA760 		bgtu	a0,a5,.L22
  28 0006 B7070000 		lui	a5,%hi(.L4)
  29 000a 93870700 		addi	a5,a5,%lo(.L4)
  30 000e 0A05     		slli	a0,a0,2
  31              	.LVL1:
  32 0010 3E95     		add	a0,a0,a5
  33 0012 1C41     		lw	a5,0(a0)
  11:menu.c        ****   int x = 12;
  34              		.loc 1 11 1 is_stmt 0
  35 0014 3971     		addi	sp,sp,-64
  36              	.LCFI0:
  37              		.cfi_def_cfa_offset 64
  38 0016 22DC     		sw	s0,56(sp)
  39 0018 26DA     		sw	s1,52(sp)
GAS LISTING /var/folders/rt/4gvqv631095f64jvm7jfj_000000gn/T//cc2eS35f.s 			page 2


  40 001a 06DE     		sw	ra,60(sp)
  41 001c 4AD8     		sw	s2,48(sp)
  42 001e 4ED6     		sw	s3,44(sp)
  43 0020 52D4     		sw	s4,40(sp)
  44              		.cfi_offset 8, -8
  45              		.cfi_offset 9, -12
  46              		.cfi_offset 1, -4
  47              		.cfi_offset 18, -16
  48              		.cfi_offset 19, -20
  49              		.cfi_offset 20, -24
  50 0022 B684     		mv	s1,a3
  51 0024 3284     		mv	s0,a2
  52              		.loc 1 18 3
  53 0026 8287     		jr	a5
  54              		.section	.rodata.pages,"a",@progbits
  55              		.align	2
  56              		.align	2
  57              	.L4:
  58 0000 00000000 		.word	.L18
  59 0004 00000000 		.word	.L17
  60 0008 00000000 		.word	.L16
  61 000c 00000000 		.word	.L15
  62 0010 00000000 		.word	.L14
  63 0014 00000000 		.word	.L13
  64 0018 00000000 		.word	.L12
  65 001c 00000000 		.word	.L12
  66 0020 00000000 		.word	.L11
  67 0024 00000000 		.word	.L10
  68 0028 00000000 		.word	.L9
  69 002c 00000000 		.word	.L8
  70 0030 00000000 		.word	.L7
  71 0034 00000000 		.word	.L6
  72 0038 00000000 		.word	.L5
  73 003c 00000000 		.word	.L1
  74 0040 00000000 		.word	.L1
  75 0044 00000000 		.word	.L3
  76              		.section	.text.pages
  77              	.L18:
  19:menu.c        ****   {
  20:menu.c        ****   case HOME:
  21:menu.c        ****   {
  22:menu.c        ****     LCD_Clear(BLACK);
  78              		.loc 1 22 5 is_stmt 1
  79 0028 0145     		li	a0,0
  80 002a 97000000 		call	LCD_Clear
  80      E7800000 
  81              	.LVL2:
  23:menu.c        ****     LCD_ShowStr(10, 10, "Green fingers", WHITE, TRANSPARENT);
  82              		.loc 1 23 5
  83 0032 C166     		li	a3,65536
  84 0034 37060000 		lui	a2,%hi(.LC0)
  85 0038 0547     		li	a4,1
  86 003a FD16     		addi	a3,a3,-1
  87 003c 13060600 		addi	a2,a2,%lo(.LC0)
  88 0040 A945     		li	a1,10
  89 0042 2945     		li	a0,10
  90              	.LVL3:
GAS LISTING /var/folders/rt/4gvqv631095f64jvm7jfj_000000gn/T//cc2eS35f.s 			page 3


  91              	.L26:
  24:menu.c        ****   }
  25:menu.c        ****   break;
  26:menu.c        ****   case MAINMENU:
  27:menu.c        ****   {
  28:menu.c        **** 
  29:menu.c        ****     LCD_Clear(BLACK);
  30:menu.c        ****     LCD_ShowChar(1, point, '>', TRANSPARENT, WHITE);
  31:menu.c        ****     LCD_ShowStr(x, y, "see data", WHITE, TRANSPARENT);
  32:menu.c        ****     y += 16;
  33:menu.c        ****     LCD_ShowStr(x, y, "register a plant", WHITE, TRANSPARENT);
  34:menu.c        ****     y += 16;
  35:menu.c        ****     LCD_ShowStr(x, y, "reset", WHITE, TRANSPARENT);
  36:menu.c        ****     y += 16;
  37:menu.c        ****     LCD_ShowStr(x, BACK_Y, "back", WHITE, TRANSPARENT);
  38:menu.c        ****   }
  39:menu.c        ****   break;
  40:menu.c        **** 
  41:menu.c        ****   case SEEDATA:
  42:menu.c        ****   {
  43:menu.c        ****     LCD_Clear(BLACK);
  44:menu.c        ****     LCD_ShowChar(1, point, '>', TRANSPARENT, WHITE);
  45:menu.c        ****     for (int i = 0; i < (*pNumberOfPlants); i++)
  46:menu.c        ****     {
  47:menu.c        ****       LCD_ShowStr(x, y, "plant ", WHITE, TRANSPARENT);
  48:menu.c        ****       LCD_ShowNum(x + 48, y, i + 1, TRANSPARENT, WHITE);
  49:menu.c        ****       y += 16;
  50:menu.c        ****     }
  51:menu.c        ****     LCD_ShowStr(x, BACK_Y, "back", WHITE, TRANSPARENT);
  52:menu.c        ****   }
  53:menu.c        ****   break;
  54:menu.c        ****   case plant1:
  55:menu.c        ****   {
  56:menu.c        ****     LCD_Clear(BLACK);
  57:menu.c        ****     LCD_ShowChar(1, point, '>', TRANSPARENT, WHITE);
  58:menu.c        ****     LCD_ShowStr(x, y, "See snap shot", WHITE, TRANSPARENT);
  59:menu.c        ****     y += 16;
  60:menu.c        ****     LCD_ShowStr(x, y, "view history", WHITE, TRANSPARENT);
  61:menu.c        ****     LCD_ShowStr(x, BACK_Y, "back", WHITE, TRANSPARENT);
  62:menu.c        ****   }
  63:menu.c        ****   break;
  64:menu.c        ****   case plant2:
  65:menu.c        ****   {
  66:menu.c        ****     LCD_Clear(BLACK);
  67:menu.c        ****     LCD_ShowChar(1, point, '>', TRANSPARENT, WHITE);
  68:menu.c        ****     LCD_ShowStr(x, y, "snap shot", WHITE, TRANSPARENT);
  69:menu.c        ****     y += 16;
  70:menu.c        ****     LCD_ShowStr(x, y, "view history", WHITE, TRANSPARENT);
  71:menu.c        ****     LCD_ShowStr(x, BACK_Y, "back", WHITE, TRANSPARENT);
  72:menu.c        ****   }
  73:menu.c        ****   break;
  74:menu.c        ****   case plant3:
  75:menu.c        ****   {
  76:menu.c        ****     LCD_Clear(BLACK);
  77:menu.c        ****     LCD_ShowChar(1, point, '>', TRANSPARENT, WHITE);
  78:menu.c        ****     LCD_ShowStr(x, y, "snap shot", WHITE, TRANSPARENT);
  79:menu.c        ****     y += 16;
GAS LISTING /var/folders/rt/4gvqv631095f64jvm7jfj_000000gn/T//cc2eS35f.s 			page 4


  80:menu.c        ****     LCD_ShowStr(x, y, "view history", WHITE, TRANSPARENT);
  81:menu.c        ****     LCD_ShowStr(x, BACK_Y, "back", WHITE, TRANSPARENT);
  82:menu.c        ****   }
  83:menu.c        ****   break;
  84:menu.c        ****   case REGISTER:
  85:menu.c        ****   {
  86:menu.c        ****     LCD_Clear(BLACK);
  87:menu.c        ****     LCD_ShowChar(1, point, '>', TRANSPARENT, WHITE);
  88:menu.c        ****     LCD_ShowStr(x, y, "Choose default", WHITE, TRANSPARENT);
  89:menu.c        ****     y += 16;
  90:menu.c        ****     LCD_ShowStr(x, y, "Custom settings", WHITE, TRANSPARENT);
  91:menu.c        ****     LCD_ShowStr(x, BACK_Y, "back", WHITE, TRANSPARENT);
  92:menu.c        ****   }
  93:menu.c        ****   break;
  94:menu.c        ****   case CHOOSE_DEFUALT:
  95:menu.c        ****   {
  96:menu.c        ****     LCD_Clear(BLACK);
  97:menu.c        ****     LCD_ShowChar(1, point, '>', TRANSPARENT, WHITE);
  98:menu.c        ****     LCD_ShowStr(x, y, "Tomato", WHITE, TRANSPARENT);
  99:menu.c        ****     y += 16;
 100:menu.c        ****     LCD_ShowStr(x, y, "cucumber", WHITE, TRANSPARENT);
 101:menu.c        ****     y += 16;
 102:menu.c        ****     LCD_ShowStr(x, y, "Purple haze", WHITE, TRANSPARENT);
 103:menu.c        ****     LCD_ShowStr(x, BACK_Y, "back", WHITE, TRANSPARENT);
 104:menu.c        ****   }
 105:menu.c        ****   break;
 106:menu.c        ****   case TOMATO:
 107:menu.c        ****   {
 108:menu.c        ****     LCD_Clear(BLACK);
 109:menu.c        ****     LCD_ShowStr(x, y, "Tomato added!", WHITE, TRANSPARENT);
 110:menu.c        ****     y += 16;
 111:menu.c        ****     LCD_ShowStr(x, BACK_Y, "back", WHITE, TRANSPARENT);
 112:menu.c        ****     initPlant("Tomato", pNumberOfPlants, allPlants, 60, 30, 85, 70, 30, 90, 25, 20, 35);
 113:menu.c        ****   }
 114:menu.c        ****   break;
 115:menu.c        ****   case CUCUMBER:
 116:menu.c        ****   {
 117:menu.c        ****     LCD_Clear(BLACK);
 118:menu.c        ****     LCD_ShowStr(x, y, "Cucumber", WHITE, TRANSPARENT);
 119:menu.c        ****     y += 16;
 120:menu.c        ****     LCD_ShowStr(x, BACK_Y, "back", WHITE, TRANSPARENT);
 121:menu.c        ****     initPlant("Cucumber", pNumberOfPlants, allPlants, 70, 50, 100, 50, 20, 55, 25, 20, 30);
 122:menu.c        ****   }
 123:menu.c        ****   break;
 124:menu.c        ****   case PURPLEHAZE:
 125:menu.c        ****   {
 126:menu.c        ****     LCD_Clear(BLACK);
 127:menu.c        ****     LCD_ShowStr(x, y, "DRUGS ARE BAD", WHITE, TRANSPARENT);
 128:menu.c        ****     y += 16;
 129:menu.c        ****     LCD_ShowStr(x, y, "mmkaaaayy", WHITE, TRANSPARENT);
 130:menu.c        ****     y += 16;
 131:menu.c        ****     LCD_ShowStr(x, BACK_Y, "back", WHITE, TRANSPARENT);
 132:menu.c        ****     initPlant("My swagga", pNumberOfPlants, allPlants, 42, 20, 60, 70, 50, 100, 25, 20, 40);
 133:menu.c        ****   }
 134:menu.c        ****   break; // needs function
 135:menu.c        ****   case CUSTOM_SETTINGS:
 136:menu.c        ****   {
GAS LISTING /var/folders/rt/4gvqv631095f64jvm7jfj_000000gn/T//cc2eS35f.s 			page 5


 137:menu.c        ****     LCD_Clear(BLACK);
 138:menu.c        ****     LCD_ShowChar(1, point, '>', TRANSPARENT, WHITE);
 139:menu.c        ****     LCD_ShowStr(x, y, "need to be able to read in data", WHITE, TRANSPARENT);
 140:menu.c        ****     LCD_ShowStr(x, BACK_Y, "back", WHITE, TRANSPARENT); // needs function
 141:menu.c        ****   }
 142:menu.c        ****   break;
 143:menu.c        ****   case LAMP:
 144:menu.c        ****   {
 145:menu.c        ****     LCD_Clear(BLACK);
 146:menu.c        ****     LCD_ShowChar(1, point, '>', TRANSPARENT, WHITE);
 147:menu.c        ****     LCD_ShowStr(x, y, "LAMP on", WHITE, TRANSPARENT);
 148:menu.c        ****     y += 16;
 149:menu.c        ****     gpio_bit_set(GPIOB, GPIO_PIN_7);
 150:menu.c        **** 
 151:menu.c        ****     LCD_ShowStr(x, BACK_Y, "back", WHITE, TRANSPARENT);
 152:menu.c        ****   }
 153:menu.c        ****   break;
 154:menu.c        ****   case SNAPSHOT:
 155:menu.c        ****   {
 156:menu.c        ****     LCD_Wait_On_Queue();
 157:menu.c        ****     for (int i = 0; i > 500000; i++)
 158:menu.c        ****       ;
 159:menu.c        ****     temp = read_temp();
 160:menu.c        ****     LCD_Clear(BLACK);
 161:menu.c        **** 
 162:menu.c        ****     ADC_read(3);
 163:menu.c        ****     int fukt = ADC_read(3);
 164:menu.c        ****     LCD_ShowChar(1, point, '>', TRANSPARENT, WHITE);
 165:menu.c        ****     LCD_ShowStr(x, y, "Moisture: ", WHITE, TRANSPARENT);
 166:menu.c        ****     LCD_ShowNum(x + (9 * 8), y, fukt, 4, WHITE);
 167:menu.c        ****     y += 16;
 168:menu.c        **** 
 169:menu.c        ****     ADC_read(1);
 170:menu.c        ****     int sun = ADC_read(1);
 171:menu.c        ****     LCD_ShowStr(x, y, "sun: ", WHITE, TRANSPARENT);
 172:menu.c        ****     LCD_ShowNum(x + (9 * 8), y, sun, 4, WHITE);
 173:menu.c        ****     y += 16;
 174:menu.c        ****     LCD_ShowStr(x, y, "Temp: ", WHITE, TRANSPARENT);
 175:menu.c        ****     LCD_ShowNum(x + (9 * 8), y, temp, 2, WHITE);
 176:menu.c        ****     LCD_ShowChar((13 * 8), y, 'C', TRANSPARENT, WHITE);
 177:menu.c        ****     LCD_ShowStr(x, BACK_Y, "back", WHITE, TRANSPARENT);
 178:menu.c        ****   }
 179:menu.c        ****   break;
 180:menu.c        ****   case VIEWHISTORY:
 181:menu.c        ****   {
 182:menu.c        ****     LCD_Clear(BLACK);
 183:menu.c        ****     renderAllHistory(allPlants, *pNumberOfPlants);      // WIP, SE FUNKTION
 184:menu.c        ****     LCD_ShowStr(x, BACK_Y, "back", WHITE, TRANSPARENT); // needs function
 185:menu.c        ****   }
 186:menu.c        ****   break;
 187:menu.c        ****   case RESETDATA:
 188:menu.c        ****   {
 189:menu.c        ****     LCD_Clear(BLACK);
 190:menu.c        ****     LCD_ShowChar(1, point, '>', TRANSPARENT, WHITE);
 191:menu.c        ****     LCD_ShowStr(x, y, "Reset all", WHITE, TRANSPARENT);
 192:menu.c        ****     y += 16;
 193:menu.c        ****     LCD_ShowStr(x, y, "reset a plant", WHITE, TRANSPARENT);
GAS LISTING /var/folders/rt/4gvqv631095f64jvm7jfj_000000gn/T//cc2eS35f.s 			page 6


 194:menu.c        ****     y += 16;
 195:menu.c        ****     LCD_ShowStr(x, BACK_Y, "back", WHITE, TRANSPARENT);
 196:menu.c        ****   }
 197:menu.c        ****   break;
 198:menu.c        **** 
 199:menu.c        ****     break;
 200:menu.c        ****   default:
 201:menu.c        ****     break;
 202:menu.c        ****   }
 203:menu.c        **** }
  92              		.loc 1 203 1 is_stmt 0
  93 0044 6254     		lw	s0,56(sp)
  94              		.cfi_remember_state
  95              		.cfi_restore 8
  96 0046 F250     		lw	ra,60(sp)
  97              		.cfi_restore 1
  98 0048 D254     		lw	s1,52(sp)
  99              		.cfi_restore 9
 100 004a 4259     		lw	s2,48(sp)
 101              		.cfi_restore 18
 102 004c B259     		lw	s3,44(sp)
 103              		.cfi_restore 19
 104 004e 225A     		lw	s4,40(sp)
 105              		.cfi_restore 20
 106 0050 2161     		addi	sp,sp,64
 107              	.LCFI1:
 108              		.cfi_def_cfa_offset 0
 195:menu.c        ****   }
 109              		.loc 1 195 5
 110 0052 17030000 		tail	LCD_ShowStr
 110      67000300 
 111              	.LVL4:
 112              	.L17:
 113              	.LCFI2:
 114              		.cfi_restore_state
  29:menu.c        ****     LCD_ShowChar(1, point, '>', TRANSPARENT, WHITE);
 115              		.loc 1 29 5
 116 005a 0145     		li	a0,0
 117 005c 2ECE     		sw	a1,28(sp)
  29:menu.c        ****     LCD_ShowChar(1, point, '>', TRANSPARENT, WHITE);
 118              		.loc 1 29 5 is_stmt 1
 119 005e 97000000 		call	LCD_Clear
 119      E7800000 
 120              	.LVL5:
  30:menu.c        ****     LCD_ShowStr(x, y, "see data", WHITE, TRANSPARENT);
 121              		.loc 1 30 5
 122 0066 F245     		lw	a1,28(sp)
 123 0068 4164     		li	s0,65536
 124              	.LVL6:
 125 006a 1307F4FF 		addi	a4,s0,-1
 126 006e 8546     		li	a3,1
 127 0070 1306E003 		li	a2,62
 128 0074 0545     		li	a0,1
 129 0076 97000000 		call	LCD_ShowChar
 129      E7800000 
 130              	.LVL7:
  31:menu.c        ****     y += 16;
GAS LISTING /var/folders/rt/4gvqv631095f64jvm7jfj_000000gn/T//cc2eS35f.s 			page 7


 131              		.loc 1 31 5
 132 007e 37060000 		lui	a2,%hi(.LC1)
 133 0082 0547     		li	a4,1
 134 0084 9306F4FF 		addi	a3,s0,-1
 135 0088 13060600 		addi	a2,a2,%lo(.LC1)
 136 008c A945     		li	a1,10
 137 008e 3145     		li	a0,12
 138 0090 97000000 		call	LCD_ShowStr
 138      E7800000 
 139              	.LVL8:
  32:menu.c        ****     LCD_ShowStr(x, y, "register a plant", WHITE, TRANSPARENT);
 140              		.loc 1 32 5
  33:menu.c        ****     y += 16;
 141              		.loc 1 33 5
 142 0098 37060000 		lui	a2,%hi(.LC2)
 143 009c 0547     		li	a4,1
 144 009e 9306F4FF 		addi	a3,s0,-1
 145 00a2 13060600 		addi	a2,a2,%lo(.LC2)
 146 00a6 E945     		li	a1,26
 147 00a8 3145     		li	a0,12
 148 00aa 97000000 		call	LCD_ShowStr
 148      E7800000 
 149              	.LVL9:
  34:menu.c        ****     LCD_ShowStr(x, y, "reset", WHITE, TRANSPARENT);
 150              		.loc 1 34 5
  35:menu.c        ****     y += 16;
 151              		.loc 1 35 5
 152 00b2 37060000 		lui	a2,%hi(.LC3)
 153 00b6 0547     		li	a4,1
 154 00b8 9306F4FF 		addi	a3,s0,-1
 155 00bc 13060600 		addi	a2,a2,%lo(.LC3)
 156              	.L32:
 102:menu.c        ****     LCD_ShowStr(x, BACK_Y, "back", WHITE, TRANSPARENT);
 157              		.loc 1 102 5 is_stmt 0
 158 00c0 9305A002 		li	a1,42
 159              	.LVL10:
 160              	.L27:
 193:menu.c        ****     y += 16;
 161              		.loc 1 193 5
 162 00c4 3145     		li	a0,12
 163 00c6 97000000 		call	LCD_ShowStr
 163      E7800000 
 164              	.LVL11:
 165 00ce E1A6     		j	.L29
 166              	.LVL12:
 167              	.L16:
  43:menu.c        ****     LCD_ShowChar(1, point, '>', TRANSPARENT, WHITE);
 168              		.loc 1 43 5
 169 00d0 0145     		li	a0,0
 170 00d2 2ECE     		sw	a1,28(sp)
  43:menu.c        ****     LCD_ShowChar(1, point, '>', TRANSPARENT, WHITE);
 171              		.loc 1 43 5 is_stmt 1
 172 00d4 97000000 		call	LCD_Clear
 172      E7800000 
 173              	.LVL13:
  44:menu.c        ****     for (int i = 0; i < (*pNumberOfPlants); i++)
 174              		.loc 1 44 5
GAS LISTING /var/folders/rt/4gvqv631095f64jvm7jfj_000000gn/T//cc2eS35f.s 			page 8


 175 00dc F245     		lw	a1,28(sp)
 176 00de 4169     		li	s2,65536
 177 00e0 1307F9FF 		addi	a4,s2,-1
 178 00e4 8546     		li	a3,1
 179 00e6 1306E003 		li	a2,62
 180 00ea 0545     		li	a0,1
 181 00ec 97000000 		call	LCD_ShowChar
 181      E7800000 
 182              	.LVL14:
  45:menu.c        ****     {
 183              		.loc 1 45 5
 184              	.LBB2:
  45:menu.c        ****     {
 185              		.loc 1 45 10
  45:menu.c        ****     {
 186              		.loc 1 45 14 is_stmt 0
 187 00f4 8144     		li	s1,0
 188              	.LVL15:
  47:menu.c        ****       LCD_ShowNum(x + 48, y, i + 1, TRANSPARENT, WHITE);
 189              		.loc 1 47 7
 190 00f6 7D19     		addi	s2,s2,-1
 191 00f8 370A0000 		lui	s4,%hi(.LC5)
 192              	.LVL16:
 193              	.L19:
  45:menu.c        ****     {
 194              		.loc 1 45 5 discriminator 1
 195 00fc 1C40     		lw	a5,0(s0)
 196 00fe 63CDF400 		bgt	a5,s1,.L20
 197              	.LVL17:
 198              	.L33:
 199              	.LBE2:
 184:menu.c        ****   }
 200              		.loc 1 184 5 is_stmt 1
 201 0102 C166     		li	a3,65536
 202 0104 0547     		li	a4,1
 203 0106 FD16     		addi	a3,a3,-1
 204              	.LVL18:
 205              	.L28:
 195:menu.c        ****   }
 206              		.loc 1 195 5 is_stmt 0
 207 0108 37060000 		lui	a2,%hi(.LC4)
 208 010c 13060600 		addi	a2,a2,%lo(.LC4)
 209 0110 9305C007 		li	a1,124
 210 0114 3145     		li	a0,12
 211 0116 3DB7     		j	.L26
 212              	.LVL19:
 213              	.L20:
 214              	.LBB3:
  47:menu.c        ****       LCD_ShowNum(x + 48, y, i + 1, TRANSPARENT, WHITE);
 215              		.loc 1 47 7 is_stmt 1 discriminator 3
 216 0118 93994400 		slli	s3,s1,4
 217 011c A909     		addi	s3,s3,10
 218 011e CA86     		mv	a3,s2
 219 0120 13060A00 		addi	a2,s4,%lo(.LC5)
 220 0124 CE85     		mv	a1,s3
 221 0126 0547     		li	a4,1
 222 0128 3145     		li	a0,12
GAS LISTING /var/folders/rt/4gvqv631095f64jvm7jfj_000000gn/T//cc2eS35f.s 			page 9


 223 012a 97000000 		call	LCD_ShowStr
 223      E7800000 
 224              	.LVL20:
  48:menu.c        ****       y += 16;
 225              		.loc 1 48 7 discriminator 3
  48:menu.c        ****       y += 16;
 226              		.loc 1 48 32 is_stmt 0 discriminator 3
 227 0132 8504     		addi	s1,s1,1
 228              	.LVL21:
  48:menu.c        ****       y += 16;
 229              		.loc 1 48 7 discriminator 3
 230 0134 4A87     		mv	a4,s2
 231 0136 8546     		li	a3,1
 232 0138 2686     		mv	a2,s1
 233 013a CE85     		mv	a1,s3
 234 013c 1305C003 		li	a0,60
 235 0140 97000000 		call	LCD_ShowNum
 235      E7800000 
 236              	.LVL22:
  49:menu.c        ****     }
 237              		.loc 1 49 7 is_stmt 1 discriminator 3
 238 0148 55BF     		j	.L19
 239              	.LVL23:
 240              	.L15:
 241              	.LBE3:
  56:menu.c        ****     LCD_ShowChar(1, point, '>', TRANSPARENT, WHITE);
 242              		.loc 1 56 5 is_stmt 0
 243 014a 0145     		li	a0,0
 244 014c 2ECE     		sw	a1,28(sp)
  56:menu.c        ****     LCD_ShowChar(1, point, '>', TRANSPARENT, WHITE);
 245              		.loc 1 56 5 is_stmt 1
 246 014e 97000000 		call	LCD_Clear
 246      E7800000 
 247              	.LVL24:
  57:menu.c        ****     LCD_ShowStr(x, y, "See snap shot", WHITE, TRANSPARENT);
 248              		.loc 1 57 5
 249 0156 F245     		lw	a1,28(sp)
 250 0158 4164     		li	s0,65536
 251              	.LVL25:
 252 015a 1307F4FF 		addi	a4,s0,-1
 253 015e 8546     		li	a3,1
 254 0160 1306E003 		li	a2,62
 255 0164 0545     		li	a0,1
 256 0166 97000000 		call	LCD_ShowChar
 256      E7800000 
 257              	.LVL26:
  58:menu.c        ****     y += 16;
 258              		.loc 1 58 5
 259 016e 37060000 		lui	a2,%hi(.LC6)
 260 0172 0547     		li	a4,1
 261 0174 9306F4FF 		addi	a3,s0,-1
 262 0178 13060600 		addi	a2,a2,%lo(.LC6)
 263              	.L31:
  68:menu.c        ****     y += 16;
 264              		.loc 1 68 5 is_stmt 0
 265 017c A945     		li	a1,10
 266 017e 3145     		li	a0,12
GAS LISTING /var/folders/rt/4gvqv631095f64jvm7jfj_000000gn/T//cc2eS35f.s 			page 10


 267 0180 97000000 		call	LCD_ShowStr
 267      E7800000 
 268              	.LVL27:
  69:menu.c        ****     LCD_ShowStr(x, y, "view history", WHITE, TRANSPARENT);
 269              		.loc 1 69 5 is_stmt 1
  70:menu.c        ****     LCD_ShowStr(x, BACK_Y, "back", WHITE, TRANSPARENT);
 270              		.loc 1 70 5
 271 0188 37060000 		lui	a2,%hi(.LC7)
 272 018c 0547     		li	a4,1
 273 018e 9306F4FF 		addi	a3,s0,-1
 274 0192 13060600 		addi	a2,a2,%lo(.LC7)
 275              	.L30:
 193:menu.c        ****     y += 16;
 276              		.loc 1 193 5 is_stmt 0
 277 0196 E945     		li	a1,26
 278 0198 35B7     		j	.L27
 279              	.LVL28:
 280              	.L12:
  66:menu.c        ****     LCD_ShowChar(1, point, '>', TRANSPARENT, WHITE);
 281              		.loc 1 66 5
 282 019a 0145     		li	a0,0
 283 019c 2ECE     		sw	a1,28(sp)
  66:menu.c        ****     LCD_ShowChar(1, point, '>', TRANSPARENT, WHITE);
 284              		.loc 1 66 5 is_stmt 1
 285 019e 97000000 		call	LCD_Clear
 285      E7800000 
 286              	.LVL29:
  67:menu.c        ****     LCD_ShowStr(x, y, "snap shot", WHITE, TRANSPARENT);
 287              		.loc 1 67 5
 288 01a6 F245     		lw	a1,28(sp)
 289 01a8 4164     		li	s0,65536
 290              	.LVL30:
 291 01aa 1307F4FF 		addi	a4,s0,-1
 292 01ae 8546     		li	a3,1
 293 01b0 1306E003 		li	a2,62
 294 01b4 0545     		li	a0,1
 295 01b6 97000000 		call	LCD_ShowChar
 295      E7800000 
 296              	.LVL31:
  68:menu.c        ****     y += 16;
 297              		.loc 1 68 5
 298 01be 37060000 		lui	a2,%hi(.LC8)
 299 01c2 0547     		li	a4,1
 300 01c4 9306F4FF 		addi	a3,s0,-1
 301 01c8 13060600 		addi	a2,a2,%lo(.LC8)
 302 01cc 45BF     		j	.L31
 303              	.LVL32:
 304              	.L11:
  86:menu.c        ****     LCD_ShowChar(1, point, '>', TRANSPARENT, WHITE);
 305              		.loc 1 86 5 is_stmt 0
 306 01ce 0145     		li	a0,0
 307 01d0 2ECE     		sw	a1,28(sp)
  86:menu.c        ****     LCD_ShowChar(1, point, '>', TRANSPARENT, WHITE);
 308              		.loc 1 86 5 is_stmt 1
 309 01d2 97000000 		call	LCD_Clear
 309      E7800000 
 310              	.LVL33:
GAS LISTING /var/folders/rt/4gvqv631095f64jvm7jfj_000000gn/T//cc2eS35f.s 			page 11


  87:menu.c        ****     LCD_ShowStr(x, y, "Choose default", WHITE, TRANSPARENT);
 311              		.loc 1 87 5
 312 01da F245     		lw	a1,28(sp)
 313 01dc 4164     		li	s0,65536
 314              	.LVL34:
 315 01de 1307F4FF 		addi	a4,s0,-1
 316 01e2 8546     		li	a3,1
 317 01e4 1306E003 		li	a2,62
 318 01e8 0545     		li	a0,1
 319 01ea 97000000 		call	LCD_ShowChar
 319      E7800000 
 320              	.LVL35:
  88:menu.c        ****     y += 16;
 321              		.loc 1 88 5
 322 01f2 37060000 		lui	a2,%hi(.LC9)
 323 01f6 0547     		li	a4,1
 324 01f8 9306F4FF 		addi	a3,s0,-1
 325 01fc 13060600 		addi	a2,a2,%lo(.LC9)
 326 0200 A945     		li	a1,10
 327 0202 3145     		li	a0,12
 328 0204 97000000 		call	LCD_ShowStr
 328      E7800000 
 329              	.LVL36:
  89:menu.c        ****     LCD_ShowStr(x, y, "Custom settings", WHITE, TRANSPARENT);
 330              		.loc 1 89 5
  90:menu.c        ****     LCD_ShowStr(x, BACK_Y, "back", WHITE, TRANSPARENT);
 331              		.loc 1 90 5
 332 020c 37060000 		lui	a2,%hi(.LC10)
 333 0210 0547     		li	a4,1
 334 0212 9306F4FF 		addi	a3,s0,-1
 335 0216 13060600 		addi	a2,a2,%lo(.LC10)
 336 021a B5BF     		j	.L30
 337              	.LVL37:
 338              	.L10:
  96:menu.c        ****     LCD_ShowChar(1, point, '>', TRANSPARENT, WHITE);
 339              		.loc 1 96 5 is_stmt 0
 340 021c 0145     		li	a0,0
 341 021e 2ECE     		sw	a1,28(sp)
  96:menu.c        ****     LCD_ShowChar(1, point, '>', TRANSPARENT, WHITE);
 342              		.loc 1 96 5 is_stmt 1
 343 0220 97000000 		call	LCD_Clear
 343      E7800000 
 344              	.LVL38:
  97:menu.c        ****     LCD_ShowStr(x, y, "Tomato", WHITE, TRANSPARENT);
 345              		.loc 1 97 5
 346 0228 F245     		lw	a1,28(sp)
 347 022a 4164     		li	s0,65536
 348              	.LVL39:
 349 022c 1307F4FF 		addi	a4,s0,-1
 350 0230 8546     		li	a3,1
 351 0232 1306E003 		li	a2,62
 352 0236 0545     		li	a0,1
 353 0238 97000000 		call	LCD_ShowChar
 353      E7800000 
 354              	.LVL40:
  98:menu.c        ****     y += 16;
 355              		.loc 1 98 5
GAS LISTING /var/folders/rt/4gvqv631095f64jvm7jfj_000000gn/T//cc2eS35f.s 			page 12


 356 0240 37060000 		lui	a2,%hi(.LC11)
 357 0244 0547     		li	a4,1
 358 0246 9306F4FF 		addi	a3,s0,-1
 359 024a 13060600 		addi	a2,a2,%lo(.LC11)
 360 024e A945     		li	a1,10
 361 0250 3145     		li	a0,12
 362 0252 97000000 		call	LCD_ShowStr
 362      E7800000 
 363              	.LVL41:
  99:menu.c        ****     LCD_ShowStr(x, y, "cucumber", WHITE, TRANSPARENT);
 364              		.loc 1 99 5
 100:menu.c        ****     y += 16;
 365              		.loc 1 100 5
 366 025a 37060000 		lui	a2,%hi(.LC12)
 367 025e 0547     		li	a4,1
 368 0260 9306F4FF 		addi	a3,s0,-1
 369 0264 13060600 		addi	a2,a2,%lo(.LC12)
 370 0268 E945     		li	a1,26
 371 026a 3145     		li	a0,12
 372 026c 97000000 		call	LCD_ShowStr
 372      E7800000 
 373              	.LVL42:
 101:menu.c        ****     LCD_ShowStr(x, y, "Purple haze", WHITE, TRANSPARENT);
 374              		.loc 1 101 5
 102:menu.c        ****     LCD_ShowStr(x, BACK_Y, "back", WHITE, TRANSPARENT);
 375              		.loc 1 102 5
 376 0274 37060000 		lui	a2,%hi(.LC13)
 377 0278 0547     		li	a4,1
 378 027a 9306F4FF 		addi	a3,s0,-1
 379 027e 13060600 		addi	a2,a2,%lo(.LC13)
 380 0282 3DBD     		j	.L32
 381              	.LVL43:
 382              	.L9:
 108:menu.c        ****     LCD_ShowStr(x, y, "Tomato added!", WHITE, TRANSPARENT);
 383              		.loc 1 108 5
 384 0284 0145     		li	a0,0
 385 0286 97000000 		call	LCD_Clear
 385      E7800000 
 386              	.LVL44:
 109:menu.c        ****     y += 16;
 387              		.loc 1 109 5
 388 028e 4169     		li	s2,65536
 389 0290 37060000 		lui	a2,%hi(.LC14)
 390 0294 0547     		li	a4,1
 391 0296 9306F9FF 		addi	a3,s2,-1
 392 029a 13060600 		addi	a2,a2,%lo(.LC14)
 393 029e A945     		li	a1,10
 394 02a0 3145     		li	a0,12
 395 02a2 97000000 		call	LCD_ShowStr
 395      E7800000 
 396              	.LVL45:
 110:menu.c        ****     LCD_ShowStr(x, BACK_Y, "back", WHITE, TRANSPARENT);
 397              		.loc 1 110 5
 111:menu.c        ****     initPlant("Tomato", pNumberOfPlants, allPlants, 60, 30, 85, 70, 30, 90, 25, 20, 35);
 398              		.loc 1 111 5
 399 02aa 37060000 		lui	a2,%hi(.LC4)
 400 02ae 0547     		li	a4,1
GAS LISTING /var/folders/rt/4gvqv631095f64jvm7jfj_000000gn/T//cc2eS35f.s 			page 13


 401 02b0 9306F9FF 		addi	a3,s2,-1
 402 02b4 13060600 		addi	a2,a2,%lo(.LC4)
 403 02b8 9305C007 		li	a1,124
 404 02bc 3145     		li	a0,12
 405 02be 97000000 		call	LCD_ShowStr
 405      E7800000 
 406              	.LVL46:
 112:menu.c        ****   }
 407              		.loc 1 112 5
 408 02c6 93073002 		li	a5,35
 409 02ca 3EC6     		sw	a5,12(sp)
 410 02cc D147     		li	a5,20
 411 02ce 3EC4     		sw	a5,8(sp)
 412 02d0 E547     		li	a5,25
 413 02d2 3EC2     		sw	a5,4(sp)
 414 02d4 37050000 		lui	a0,%hi(.LC11)
 415 02d8 9307A005 		li	a5,90
 416 02dc 3EC0     		sw	a5,0(sp)
 417 02de F948     		li	a7,30
 418 02e0 13086004 		li	a6,70
 419 02e4 93075005 		li	a5,85
 420 02e8 7947     		li	a4,30
 421 02ea 9306C003 		li	a3,60
 422 02ee 2686     		mv	a2,s1
 423 02f0 A285     		mv	a1,s0
 424 02f2 13050500 		addi	a0,a0,%lo(.LC11)
 425              	.LVL47:
 426              	.L25:
 132:menu.c        ****   }
 427              		.loc 1 132 5 is_stmt 0
 428 02f6 97000000 		call	initPlant
 428      E7800000 
 429              	.LVL48:
 134:menu.c        ****   case CUSTOM_SETTINGS:
 430              		.loc 1 134 3 is_stmt 1
 431              	.L1:
 432              		.loc 1 203 1 is_stmt 0
 433 02fe F250     		lw	ra,60(sp)
 434              		.cfi_remember_state
 435              		.cfi_restore 1
 436 0300 6254     		lw	s0,56(sp)
 437              		.cfi_restore 8
 438              	.LVL49:
 439 0302 D254     		lw	s1,52(sp)
 440              		.cfi_restore 9
 441              	.LVL50:
 442 0304 4259     		lw	s2,48(sp)
 443              		.cfi_restore 18
 444 0306 B259     		lw	s3,44(sp)
 445              		.cfi_restore 19
 446 0308 225A     		lw	s4,40(sp)
 447              		.cfi_restore 20
 448 030a 2161     		addi	sp,sp,64
 449              	.LCFI3:
 450              		.cfi_def_cfa_offset 0
 451 030c 8280     		jr	ra
 452              	.LVL51:
GAS LISTING /var/folders/rt/4gvqv631095f64jvm7jfj_000000gn/T//cc2eS35f.s 			page 14


 453              	.L8:
 454              	.LCFI4:
 455              		.cfi_restore_state
 117:menu.c        ****     LCD_ShowStr(x, y, "Cucumber", WHITE, TRANSPARENT);
 456              		.loc 1 117 5 is_stmt 1
 457 030e 0145     		li	a0,0
 458 0310 97000000 		call	LCD_Clear
 458      E7800000 
 459              	.LVL52:
 118:menu.c        ****     y += 16;
 460              		.loc 1 118 5
 461 0318 C169     		li	s3,65536
 462 031a 37090000 		lui	s2,%hi(.LC15)
 463 031e 0547     		li	a4,1
 464 0320 9386F9FF 		addi	a3,s3,-1
 465 0324 13060900 		addi	a2,s2,%lo(.LC15)
 466 0328 A945     		li	a1,10
 467 032a 3145     		li	a0,12
 468 032c 97000000 		call	LCD_ShowStr
 468      E7800000 
 469              	.LVL53:
 119:menu.c        ****     LCD_ShowStr(x, BACK_Y, "back", WHITE, TRANSPARENT);
 470              		.loc 1 119 5
 120:menu.c        ****     initPlant("Cucumber", pNumberOfPlants, allPlants, 70, 50, 100, 50, 20, 55, 25, 20, 30);
 471              		.loc 1 120 5
 472 0334 37060000 		lui	a2,%hi(.LC4)
 473 0338 0547     		li	a4,1
 474 033a 9386F9FF 		addi	a3,s3,-1
 475 033e 13060600 		addi	a2,a2,%lo(.LC4)
 476 0342 9305C007 		li	a1,124
 477 0346 3145     		li	a0,12
 478 0348 97000000 		call	LCD_ShowStr
 478      E7800000 
 479              	.LVL54:
 121:menu.c        ****   }
 480              		.loc 1 121 5
 481 0350 F947     		li	a5,30
 482 0352 3EC6     		sw	a5,12(sp)
 483 0354 D147     		li	a5,20
 484 0356 3EC4     		sw	a5,8(sp)
 485 0358 E547     		li	a5,25
 486 035a 3EC2     		sw	a5,4(sp)
 487 035c 93077003 		li	a5,55
 488 0360 3EC0     		sw	a5,0(sp)
 489 0362 D148     		li	a7,20
 490 0364 13082003 		li	a6,50
 491 0368 93074006 		li	a5,100
 492 036c 13072003 		li	a4,50
 493 0370 93066004 		li	a3,70
 494 0374 2686     		mv	a2,s1
 495 0376 A285     		mv	a1,s0
 496 0378 13050900 		addi	a0,s2,%lo(.LC15)
 497 037c ADBF     		j	.L25
 498              	.LVL55:
 499              	.L7:
 126:menu.c        ****     LCD_ShowStr(x, y, "DRUGS ARE BAD", WHITE, TRANSPARENT);
 500              		.loc 1 126 5
GAS LISTING /var/folders/rt/4gvqv631095f64jvm7jfj_000000gn/T//cc2eS35f.s 			page 15


 501 037e 0145     		li	a0,0
 502 0380 97000000 		call	LCD_Clear
 502      E7800000 
 503              	.LVL56:
 127:menu.c        ****     y += 16;
 504              		.loc 1 127 5
 505 0388 4169     		li	s2,65536
 506 038a 37060000 		lui	a2,%hi(.LC16)
 507 038e 0547     		li	a4,1
 508 0390 9306F9FF 		addi	a3,s2,-1
 509 0394 13060600 		addi	a2,a2,%lo(.LC16)
 510 0398 A945     		li	a1,10
 511 039a 3145     		li	a0,12
 512 039c 97000000 		call	LCD_ShowStr
 512      E7800000 
 513              	.LVL57:
 128:menu.c        ****     LCD_ShowStr(x, y, "mmkaaaayy", WHITE, TRANSPARENT);
 514              		.loc 1 128 5
 129:menu.c        ****     y += 16;
 515              		.loc 1 129 5
 516 03a4 37060000 		lui	a2,%hi(.LC17)
 517 03a8 0547     		li	a4,1
 518 03aa 9306F9FF 		addi	a3,s2,-1
 519 03ae 13060600 		addi	a2,a2,%lo(.LC17)
 520 03b2 E945     		li	a1,26
 521 03b4 3145     		li	a0,12
 522 03b6 97000000 		call	LCD_ShowStr
 522      E7800000 
 523              	.LVL58:
 130:menu.c        ****     LCD_ShowStr(x, BACK_Y, "back", WHITE, TRANSPARENT);
 524              		.loc 1 130 5
 131:menu.c        ****     initPlant("My swagga", pNumberOfPlants, allPlants, 42, 20, 60, 70, 50, 100, 25, 20, 40);
 525              		.loc 1 131 5
 526 03be 37060000 		lui	a2,%hi(.LC4)
 527 03c2 0547     		li	a4,1
 528 03c4 9306F9FF 		addi	a3,s2,-1
 529 03c8 13060600 		addi	a2,a2,%lo(.LC4)
 530 03cc 9305C007 		li	a1,124
 531 03d0 3145     		li	a0,12
 532 03d2 97000000 		call	LCD_ShowStr
 532      E7800000 
 533              	.LVL59:
 132:menu.c        ****   }
 534              		.loc 1 132 5
 535 03da 93078002 		li	a5,40
 536 03de 3EC6     		sw	a5,12(sp)
 537 03e0 D147     		li	a5,20
 538 03e2 3EC4     		sw	a5,8(sp)
 539 03e4 E547     		li	a5,25
 540 03e6 3EC2     		sw	a5,4(sp)
 541 03e8 37050000 		lui	a0,%hi(.LC18)
 542 03ec 93074006 		li	a5,100
 543 03f0 3EC0     		sw	a5,0(sp)
 544 03f2 93082003 		li	a7,50
 545 03f6 13086004 		li	a6,70
 546 03fa 9307C003 		li	a5,60
 547 03fe 5147     		li	a4,20
GAS LISTING /var/folders/rt/4gvqv631095f64jvm7jfj_000000gn/T//cc2eS35f.s 			page 16


 548 0400 9306A002 		li	a3,42
 549 0404 2686     		mv	a2,s1
 550 0406 A285     		mv	a1,s0
 551 0408 13050500 		addi	a0,a0,%lo(.LC18)
 552 040c EDB5     		j	.L25
 553              	.LVL60:
 554              	.L6:
 137:menu.c        ****     LCD_ShowChar(1, point, '>', TRANSPARENT, WHITE);
 555              		.loc 1 137 5 is_stmt 0
 556 040e 0145     		li	a0,0
 557 0410 2ECE     		sw	a1,28(sp)
 137:menu.c        ****     LCD_ShowChar(1, point, '>', TRANSPARENT, WHITE);
 558              		.loc 1 137 5 is_stmt 1
 559 0412 97000000 		call	LCD_Clear
 559      E7800000 
 560              	.LVL61:
 138:menu.c        ****     LCD_ShowStr(x, y, "need to be able to read in data", WHITE, TRANSPARENT);
 561              		.loc 1 138 5
 562 041a F245     		lw	a1,28(sp)
 563 041c 4164     		li	s0,65536
 564              	.LVL62:
 565 041e 1307F4FF 		addi	a4,s0,-1
 566 0422 8546     		li	a3,1
 567 0424 1306E003 		li	a2,62
 568 0428 0545     		li	a0,1
 569 042a 97000000 		call	LCD_ShowChar
 569      E7800000 
 570              	.LVL63:
 139:menu.c        ****     LCD_ShowStr(x, BACK_Y, "back", WHITE, TRANSPARENT); // needs function
 571              		.loc 1 139 5
 572 0432 37060000 		lui	a2,%hi(.LC19)
 573 0436 0547     		li	a4,1
 574 0438 9306F4FF 		addi	a3,s0,-1
 575 043c 13060600 		addi	a2,a2,%lo(.LC19)
 576 0440 A945     		li	a1,10
 577 0442 49B1     		j	.L27
 578              	.LVL64:
 579              	.L3:
 145:menu.c        ****     LCD_ShowChar(1, point, '>', TRANSPARENT, WHITE);
 580              		.loc 1 145 5 is_stmt 0
 581 0444 0145     		li	a0,0
 582 0446 2ECE     		sw	a1,28(sp)
 145:menu.c        ****     LCD_ShowChar(1, point, '>', TRANSPARENT, WHITE);
 583              		.loc 1 145 5 is_stmt 1
 584 0448 97000000 		call	LCD_Clear
 584      E7800000 
 585              	.LVL65:
 146:menu.c        ****     LCD_ShowStr(x, y, "LAMP on", WHITE, TRANSPARENT);
 586              		.loc 1 146 5
 587 0450 F245     		lw	a1,28(sp)
 588 0452 4164     		li	s0,65536
 589              	.LVL66:
 590 0454 1307F4FF 		addi	a4,s0,-1
 591 0458 8546     		li	a3,1
 592 045a 1306E003 		li	a2,62
 593 045e 0545     		li	a0,1
 594 0460 97000000 		call	LCD_ShowChar
GAS LISTING /var/folders/rt/4gvqv631095f64jvm7jfj_000000gn/T//cc2eS35f.s 			page 17


 594      E7800000 
 595              	.LVL67:
 147:menu.c        ****     y += 16;
 596              		.loc 1 147 5
 597 0468 37060000 		lui	a2,%hi(.LC20)
 598 046c A945     		li	a1,10
 599 046e 3145     		li	a0,12
 600 0470 0547     		li	a4,1
 601 0472 9306F4FF 		addi	a3,s0,-1
 602 0476 13060600 		addi	a2,a2,%lo(.LC20)
 603 047a 97000000 		call	LCD_ShowStr
 603      E7800000 
 604              	.LVL68:
 148:menu.c        ****     gpio_bit_set(GPIOB, GPIO_PIN_7);
 605              		.loc 1 148 5
 149:menu.c        **** 
 606              		.loc 1 149 5
 607 0482 37150140 		li	a0,1073811456
 608 0486 93050008 		li	a1,128
 609 048a 130505C0 		addi	a0,a0,-1024
 610 048e 97000000 		call	gpio_bit_set
 610      E7800000 
 611              	.LVL69:
 151:menu.c        ****   }
 612              		.loc 1 151 5
 613              	.L29:
 194:menu.c        ****     LCD_ShowStr(x, BACK_Y, "back", WHITE, TRANSPARENT);
 614              		.loc 1 194 5
 195:menu.c        ****   }
 615              		.loc 1 195 5
 616 0496 0547     		li	a4,1
 617 0498 9306F4FF 		addi	a3,s0,-1
 618 049c B5B1     		j	.L28
 619              	.LVL70:
 620              	.L14:
 621 049e 2ECE     		sw	a1,28(sp)
 622              	.LBB4:
 156:menu.c        ****     for (int i = 0; i > 500000; i++)
 623              		.loc 1 156 5
 624 04a0 97000000 		call	LCD_Wait_On_Queue
 624      E7800000 
 625              	.LVL71:
 157:menu.c        ****       ;
 626              		.loc 1 157 5
 627              	.LBE4:
 157:menu.c        ****       ;
 628              		.loc 1 157 10
 629              	.LBB5:
 159:menu.c        ****     LCD_Clear(BLACK);
 630              		.loc 1 159 5
 159:menu.c        ****     LCD_Clear(BLACK);
 631              		.loc 1 159 12 is_stmt 0
 632 04a8 97000000 		call	read_temp
 632      E7800000 
 633              	.LVL72:
 634 04b0 AA84     		mv	s1,a0
 635              	.LVL73:
GAS LISTING /var/folders/rt/4gvqv631095f64jvm7jfj_000000gn/T//cc2eS35f.s 			page 18


 160:menu.c        **** 
 636              		.loc 1 160 5 is_stmt 1
 637 04b2 0145     		li	a0,0
 638 04b4 97000000 		call	LCD_Clear
 638      E7800000 
 639              	.LVL74:
 162:menu.c        ****     int fukt = ADC_read(3);
 640              		.loc 1 162 5
 641 04bc 0D45     		li	a0,3
 642 04be 97000000 		call	ADC_read
 642      E7800000 
 643              	.LVL75:
 163:menu.c        ****     LCD_ShowChar(1, point, '>', TRANSPARENT, WHITE);
 644              		.loc 1 163 5
 163:menu.c        ****     LCD_ShowChar(1, point, '>', TRANSPARENT, WHITE);
 645              		.loc 1 163 16 is_stmt 0
 646 04c6 0D45     		li	a0,3
 647 04c8 97000000 		call	ADC_read
 647      E7800000 
 648              	.LVL76:
 164:menu.c        ****     LCD_ShowStr(x, y, "Moisture: ", WHITE, TRANSPARENT);
 649              		.loc 1 164 5
 650 04d0 F245     		lw	a1,28(sp)
 651 04d2 4164     		li	s0,65536
 652              	.LVL77:
 163:menu.c        ****     LCD_ShowChar(1, point, '>', TRANSPARENT, WHITE);
 653              		.loc 1 163 16
 654 04d4 2A89     		mv	s2,a0
 655              	.LVL78:
 164:menu.c        ****     LCD_ShowStr(x, y, "Moisture: ", WHITE, TRANSPARENT);
 656              		.loc 1 164 5 is_stmt 1
 657 04d6 1307F4FF 		addi	a4,s0,-1
 658 04da 8546     		li	a3,1
 659 04dc 1306E003 		li	a2,62
 660 04e0 0545     		li	a0,1
 661              	.LVL79:
 662 04e2 97000000 		call	LCD_ShowChar
 662      E7800000 
 663              	.LVL80:
 165:menu.c        ****     LCD_ShowNum(x + (9 * 8), y, fukt, 4, WHITE);
 664              		.loc 1 165 5
 665 04ea 37060000 		lui	a2,%hi(.LC21)
 666 04ee 9306F4FF 		addi	a3,s0,-1
 667 04f2 0547     		li	a4,1
 668 04f4 13060600 		addi	a2,a2,%lo(.LC21)
 669 04f8 A945     		li	a1,10
 670 04fa 3145     		li	a0,12
 671 04fc 97000000 		call	LCD_ShowStr
 671      E7800000 
 672              	.LVL81:
 166:menu.c        ****     y += 16;
 673              		.loc 1 166 5
 674 0504 1307F4FF 		addi	a4,s0,-1
 675 0508 4A86     		mv	a2,s2
 676 050a 9146     		li	a3,4
 677 050c A945     		li	a1,10
 678 050e 13054005 		li	a0,84
GAS LISTING /var/folders/rt/4gvqv631095f64jvm7jfj_000000gn/T//cc2eS35f.s 			page 19


 679 0512 97000000 		call	LCD_ShowNum
 679      E7800000 
 680              	.LVL82:
 167:menu.c        **** 
 681              		.loc 1 167 5
 169:menu.c        ****     int sun = ADC_read(1);
 682              		.loc 1 169 5
 683 051a 0545     		li	a0,1
 684 051c 97000000 		call	ADC_read
 684      E7800000 
 685              	.LVL83:
 170:menu.c        ****     LCD_ShowStr(x, y, "sun: ", WHITE, TRANSPARENT);
 686              		.loc 1 170 5
 170:menu.c        ****     LCD_ShowStr(x, y, "sun: ", WHITE, TRANSPARENT);
 687              		.loc 1 170 15 is_stmt 0
 688 0524 0545     		li	a0,1
 689 0526 97000000 		call	ADC_read
 689      E7800000 
 690              	.LVL84:
 171:menu.c        ****     LCD_ShowNum(x + (9 * 8), y, sun, 4, WHITE);
 691              		.loc 1 171 5
 692 052e 37060000 		lui	a2,%hi(.LC22)
 170:menu.c        ****     LCD_ShowStr(x, y, "sun: ", WHITE, TRANSPARENT);
 693              		.loc 1 170 15
 694 0532 2A89     		mv	s2,a0
 695              	.LVL85:
 171:menu.c        ****     LCD_ShowNum(x + (9 * 8), y, sun, 4, WHITE);
 696              		.loc 1 171 5 is_stmt 1
 697 0534 9306F4FF 		addi	a3,s0,-1
 698 0538 0547     		li	a4,1
 699 053a 13060600 		addi	a2,a2,%lo(.LC22)
 700 053e E945     		li	a1,26
 701 0540 3145     		li	a0,12
 702              	.LVL86:
 703 0542 97000000 		call	LCD_ShowStr
 703      E7800000 
 704              	.LVL87:
 172:menu.c        ****     y += 16;
 705              		.loc 1 172 5
 706 054a 1307F4FF 		addi	a4,s0,-1
 707 054e 4A86     		mv	a2,s2
 708 0550 9146     		li	a3,4
 709 0552 E945     		li	a1,26
 710 0554 13054005 		li	a0,84
 711 0558 97000000 		call	LCD_ShowNum
 711      E7800000 
 712              	.LVL88:
 173:menu.c        ****     LCD_ShowStr(x, y, "Temp: ", WHITE, TRANSPARENT);
 713              		.loc 1 173 5
 174:menu.c        ****     LCD_ShowNum(x + (9 * 8), y, temp, 2, WHITE);
 714              		.loc 1 174 5
 715 0560 37060000 		lui	a2,%hi(.LC23)
 716 0564 9306F4FF 		addi	a3,s0,-1
 717 0568 0547     		li	a4,1
 718 056a 13060600 		addi	a2,a2,%lo(.LC23)
 719 056e 9305A002 		li	a1,42
 720 0572 3145     		li	a0,12
GAS LISTING /var/folders/rt/4gvqv631095f64jvm7jfj_000000gn/T//cc2eS35f.s 			page 20


 721 0574 97000000 		call	LCD_ShowStr
 721      E7800000 
 722              	.LVL89:
 175:menu.c        ****     LCD_ShowChar((13 * 8), y, 'C', TRANSPARENT, WHITE);
 723              		.loc 1 175 5
 724 057c 2685     		mv	a0,s1
 725 057e 97000000 		call	__fixunssfsi
 725      E7800000 
 726              	.LVL90:
 727 0586 1307F4FF 		addi	a4,s0,-1
 728 058a 2A86     		mv	a2,a0
 729 058c 8946     		li	a3,2
 730 058e 9305A002 		li	a1,42
 731 0592 13054005 		li	a0,84
 732 0596 97000000 		call	LCD_ShowNum
 732      E7800000 
 733              	.LVL91:
 176:menu.c        ****     LCD_ShowStr(x, BACK_Y, "back", WHITE, TRANSPARENT);
 734              		.loc 1 176 5
 735 059e 1307F4FF 		addi	a4,s0,-1
 736 05a2 8546     		li	a3,1
 737 05a4 13063004 		li	a2,67
 738 05a8 9305A002 		li	a1,42
 739 05ac 13058006 		li	a0,104
 740 05b0 97000000 		call	LCD_ShowChar
 740      E7800000 
 741              	.LVL92:
 177:menu.c        ****   }
 742              		.loc 1 177 5
 743 05b8 F9BD     		j	.L29
 744              	.LVL93:
 745              	.L13:
 746              	.LBE5:
 182:menu.c        ****     renderAllHistory(allPlants, *pNumberOfPlants);      // WIP, SE FUNKTION
 747              		.loc 1 182 5
 748 05ba 0145     		li	a0,0
 749 05bc 97000000 		call	LCD_Clear
 749      E7800000 
 750              	.LVL94:
 183:menu.c        ****     LCD_ShowStr(x, BACK_Y, "back", WHITE, TRANSPARENT); // needs function
 751              		.loc 1 183 5
 752 05c4 0C40     		lw	a1,0(s0)
 753 05c6 2685     		mv	a0,s1
 754 05c8 97000000 		call	renderAllHistory
 754      E7800000 
 755              	.LVL95:
 756 05d0 0DBE     		j	.L33
 757              	.LVL96:
 758              	.L5:
 189:menu.c        ****     LCD_ShowChar(1, point, '>', TRANSPARENT, WHITE);
 759              		.loc 1 189 5 is_stmt 0
 760 05d2 0145     		li	a0,0
 761 05d4 2ECE     		sw	a1,28(sp)
 189:menu.c        ****     LCD_ShowChar(1, point, '>', TRANSPARENT, WHITE);
 762              		.loc 1 189 5 is_stmt 1
 763 05d6 97000000 		call	LCD_Clear
 763      E7800000 
GAS LISTING /var/folders/rt/4gvqv631095f64jvm7jfj_000000gn/T//cc2eS35f.s 			page 21


 764              	.LVL97:
 190:menu.c        ****     LCD_ShowStr(x, y, "Reset all", WHITE, TRANSPARENT);
 765              		.loc 1 190 5
 766 05de F245     		lw	a1,28(sp)
 767 05e0 4164     		li	s0,65536
 768              	.LVL98:
 769 05e2 1307F4FF 		addi	a4,s0,-1
 770 05e6 8546     		li	a3,1
 771 05e8 1306E003 		li	a2,62
 772 05ec 0545     		li	a0,1
 773 05ee 97000000 		call	LCD_ShowChar
 773      E7800000 
 774              	.LVL99:
 191:menu.c        ****     y += 16;
 775              		.loc 1 191 5
 776 05f6 37060000 		lui	a2,%hi(.LC24)
 777 05fa 0547     		li	a4,1
 778 05fc 9306F4FF 		addi	a3,s0,-1
 779 0600 13060600 		addi	a2,a2,%lo(.LC24)
 780 0604 A945     		li	a1,10
 781 0606 3145     		li	a0,12
 782 0608 97000000 		call	LCD_ShowStr
 782      E7800000 
 783              	.LVL100:
 192:menu.c        ****     LCD_ShowStr(x, y, "reset a plant", WHITE, TRANSPARENT);
 784              		.loc 1 192 5
 193:menu.c        ****     y += 16;
 785              		.loc 1 193 5
 786 0610 37060000 		lui	a2,%hi(.LC25)
 787 0614 0547     		li	a4,1
 788 0616 9306F4FF 		addi	a3,s0,-1
 789 061a 13060600 		addi	a2,a2,%lo(.LC25)
 790 061e A5BE     		j	.L30
 791              	.LVL101:
 792              	.L22:
 793              	.LCFI5:
 794              		.cfi_def_cfa_offset 0
 795              		.cfi_restore 1
 796              		.cfi_restore 8
 797              		.cfi_restore 9
 798              		.cfi_restore 18
 799              		.cfi_restore 19
 800              		.cfi_restore 20
 801 0620 8280     		ret
 802              		.cfi_endproc
 803              	.LFE5:
 805              		.section	.text.move_pointer,"ax",@progbits
 806              		.align	1
 807              		.globl	move_pointer
 809              	move_pointer:
 810              	.LFB6:
 204:menu.c        **** 
 205:menu.c        **** void move_pointer(int *P_pointer, int key, int page)
 206:menu.c        **** {
 811              		.loc 1 206 1
 812              		.cfi_startproc
 813              	.LVL102:
GAS LISTING /var/folders/rt/4gvqv631095f64jvm7jfj_000000gn/T//cc2eS35f.s 			page 22


 207:menu.c        ****   if (page != HOME)
 814              		.loc 1 207 3
 815              		.loc 1 207 6 is_stmt 0
 816 0000 35C6     		beq	a2,zero,.L42
 206:menu.c        ****   if (page != HOME)
 817              		.loc 1 206 1
 818 0002 4111     		addi	sp,sp,-16
 819              	.LCFI6:
 820              		.cfi_def_cfa_offset 16
 821 0004 22C4     		sw	s0,8(sp)
 822 0006 06C6     		sw	ra,12(sp)
 823              		.cfi_offset 8, -8
 824              		.cfi_offset 1, -4
 208:menu.c        ****     switch (key)
 825              		.loc 1 208 5
 826 0008 8947     		li	a5,2
 827 000a 2A84     		mv	s0,a0
 828              		.loc 1 208 5 is_stmt 1
 829 000c 6389F500 		beq	a1,a5,.L36
 830 0010 A147     		li	a5,8
 831 0012 6380F504 		beq	a1,a5,.L37
 209:menu.c        ****     {
 210:menu.c        ****     case 2:
 211:menu.c        ****     {
 212:menu.c        ****       LCD_Fill(2, ((*P_pointer)), 10, (*P_pointer + 16), BLACK);
 213:menu.c        ****       (*P_pointer) -= 16;
 214:menu.c        ****       LCD_ShowChar(2, *P_pointer, '>', TRANSPARENT, WHITE);
 215:menu.c        ****     }
 216:menu.c        ****     break;
 217:menu.c        ****     case 8:
 218:menu.c        ****     {
 219:menu.c        ****       LCD_Fill(2, *P_pointer, 10, (*P_pointer + 16), BLACK);
 220:menu.c        ****       (*P_pointer) += 16;
 221:menu.c        ****       LCD_ShowChar(2, *P_pointer, '>', TRANSPARENT, WHITE);
 222:menu.c        ****     }
 223:menu.c        ****     break;
 224:menu.c        ****     default:
 225:menu.c        ****       break;
 226:menu.c        ****     }
 227:menu.c        **** }
 832              		.loc 1 227 1 is_stmt 0
 833 0016 B240     		lw	ra,12(sp)
 834              		.cfi_remember_state
 835              		.cfi_restore 1
 836 0018 2244     		lw	s0,8(sp)
 837              		.cfi_restore 8
 838 001a 4101     		addi	sp,sp,16
 839              	.LCFI7:
 840              		.cfi_def_cfa_offset 0
 841 001c 8280     		jr	ra
 842              	.LVL103:
 843              	.L36:
 844              	.LCFI8:
 845              		.cfi_restore_state
 846              	.LBB8:
 847              	.LBB9:
 212:menu.c        ****       (*P_pointer) -= 16;
GAS LISTING /var/folders/rt/4gvqv631095f64jvm7jfj_000000gn/T//cc2eS35f.s 			page 23


 848              		.loc 1 212 7 is_stmt 1
 212:menu.c        ****       (*P_pointer) -= 16;
 849              		.loc 1 212 21 is_stmt 0
 850 001e 0C41     		lw	a1,0(a0)
 851              	.LVL104:
 212:menu.c        ****       (*P_pointer) -= 16;
 852              		.loc 1 212 7
 853 0020 0147     		li	a4,0
 854 0022 2946     		li	a2,10
 855              	.LVL105:
 856 0024 93860501 		addi	a3,a1,16
 857 0028 0945     		li	a0,2
 858 002a 97000000 		call	LCD_Fill
 858      E7800000 
 859              	.LVL106:
 213:menu.c        ****       LCD_ShowChar(2, *P_pointer, '>', TRANSPARENT, WHITE);
 860              		.loc 1 213 7 is_stmt 1
 213:menu.c        ****       LCD_ShowChar(2, *P_pointer, '>', TRANSPARENT, WHITE);
 861              		.loc 1 213 20 is_stmt 0
 862 0032 0C40     		lw	a1,0(s0)
 863 0034 C115     		addi	a1,a1,-16
 864              	.LVL107:
 865              	.L45:
 866              	.LBE9:
 867              	.LBE8:
 220:menu.c        ****       LCD_ShowChar(2, *P_pointer, '>', TRANSPARENT, WHITE);
 868              		.loc 1 220 20
 869 0036 0CC0     		sw	a1,0(s0)
 221:menu.c        ****     }
 870              		.loc 1 221 7 is_stmt 1
 871              		.loc 1 227 1 is_stmt 0
 872 0038 2244     		lw	s0,8(sp)
 873              		.cfi_remember_state
 874              		.cfi_restore 8
 875              	.LVL108:
 876 003a B240     		lw	ra,12(sp)
 877              		.cfi_restore 1
 221:menu.c        ****     }
 878              		.loc 1 221 7
 879 003c 4167     		li	a4,65536
 880              		.loc 1 227 1
 221:menu.c        ****     }
 881              		.loc 1 221 7
 882 003e 7D17     		addi	a4,a4,-1
 883 0040 8546     		li	a3,1
 884 0042 1306E003 		li	a2,62
 885 0046 0945     		li	a0,2
 886              		.loc 1 227 1
 887 0048 4101     		addi	sp,sp,16
 888              	.LCFI9:
 889              		.cfi_def_cfa_offset 0
 221:menu.c        ****     }
 890              		.loc 1 221 7
 891 004a 17030000 		tail	LCD_ShowChar
 891      67000300 
 892              	.LVL109:
 893              	.L37:
GAS LISTING /var/folders/rt/4gvqv631095f64jvm7jfj_000000gn/T//cc2eS35f.s 			page 24


 894              	.LCFI10:
 895              		.cfi_restore_state
 219:menu.c        ****       (*P_pointer) += 16;
 896              		.loc 1 219 7 is_stmt 1
 219:menu.c        ****       (*P_pointer) += 16;
 897              		.loc 1 219 19 is_stmt 0
 898 0052 0C41     		lw	a1,0(a0)
 899              	.LVL110:
 219:menu.c        ****       (*P_pointer) += 16;
 900              		.loc 1 219 7
 901 0054 0147     		li	a4,0
 902 0056 2946     		li	a2,10
 903              	.LVL111:
 904 0058 93860501 		addi	a3,a1,16
 905 005c 0945     		li	a0,2
 906 005e 97000000 		call	LCD_Fill
 906      E7800000 
 907              	.LVL112:
 220:menu.c        ****       LCD_ShowChar(2, *P_pointer, '>', TRANSPARENT, WHITE);
 908              		.loc 1 220 7 is_stmt 1
 220:menu.c        ****       LCD_ShowChar(2, *P_pointer, '>', TRANSPARENT, WHITE);
 909              		.loc 1 220 20 is_stmt 0
 910 0066 0C40     		lw	a1,0(s0)
 911 0068 C105     		addi	a1,a1,16
 912 006a F1B7     		j	.L45
 913              	.LVL113:
 914              	.L42:
 915              	.LCFI11:
 916              		.cfi_def_cfa_offset 0
 917              		.cfi_restore 1
 918              		.cfi_restore 8
 919 006c 8280     		ret
 920              		.cfi_endproc
 921              	.LFE6:
 923              		.section	.text.which_page,"ax",@progbits
 924              		.align	1
 925              		.globl	which_page
 927              	which_page:
 928              	.LFB7:
 228:menu.c        **** 
 229:menu.c        **** int which_page(int page, int pointer)
 230:menu.c        **** {
 929              		.loc 1 230 1 is_stmt 1
 930              		.cfi_startproc
 931              	.LVL114:
 231:menu.c        ****   int cursor = -1;
 932              		.loc 1 231 3
 232:menu.c        ****   int starty = 13;
 933              		.loc 1 232 3
 233:menu.c        ****   int step = 16;
 934              		.loc 1 233 3
 234:menu.c        **** 
 235:menu.c        ****   if ((pointer - ((0 * step) + starty)) == 0)
 935              		.loc 1 235 3
 936              		.loc 1 235 6 is_stmt 0
 937 0000 B547     		li	a5,13
 938 0002 638EF504 		beq	a1,a5,.L69
GAS LISTING /var/folders/rt/4gvqv631095f64jvm7jfj_000000gn/T//cc2eS35f.s 			page 25


 236:menu.c        ****     cursor = 0;
 237:menu.c        ****   if ((pointer - ((1 * step) + starty)) == 0)
 939              		.loc 1 237 3 is_stmt 1
 940              		.loc 1 237 6 is_stmt 0
 941 0006 7547     		li	a4,29
 238:menu.c        ****     cursor = 1;
 942              		.loc 1 238 12
 943 0008 8547     		li	a5,1
 237:menu.c        ****     cursor = 1;
 944              		.loc 1 237 6
 945 000a 6382E502 		beq	a1,a4,.L47
 239:menu.c        ****   if ((pointer - ((2 * step) + starty)) == 0)
 946              		.loc 1 239 3 is_stmt 1
 947              		.loc 1 239 6 is_stmt 0
 948 000e 1307D002 		li	a4,45
 240:menu.c        ****     cursor = 2;
 949              		.loc 1 240 12
 950 0012 8947     		li	a5,2
 239:menu.c        ****   if ((pointer - ((2 * step) + starty)) == 0)
 951              		.loc 1 239 6
 952 0014 6381E502 		beq	a1,a4,.L48
 241:menu.c        ****   if ((pointer - ((3 * step) + starty)) == 0)
 953              		.loc 1 241 3 is_stmt 1
 954              		.loc 1 241 6 is_stmt 0
 955 0018 1307D003 		li	a4,61
 242:menu.c        ****     cursor = 3;
 956              		.loc 1 242 12
 957 001c 8D47     		li	a5,3
 241:menu.c        ****   if ((pointer - ((3 * step) + starty)) == 0)
 958              		.loc 1 241 6
 959 001e 6380E502 		beq	a1,a4,.L49
 243:menu.c        ****   if ((pointer - ((4 * step) + starty)) == 0)
 960              		.loc 1 243 3 is_stmt 1
 961              		.loc 1 243 6 is_stmt 0
 962 0022 1307D004 		li	a4,77
 244:menu.c        ****     cursor = 4;
 963              		.loc 1 244 12
 964 0026 9147     		li	a5,4
 243:menu.c        ****   if ((pointer - ((4 * step) + starty)) == 0)
 965              		.loc 1 243 6
 966 0028 6386E50E 		beq	a1,a4,.L50
 231:menu.c        ****   int starty = 13;
 967              		.loc 1 231 7
 968 002c FD57     		li	a5,-1
 969              	.L47:
 970              	.LVL115:
 245:menu.c        ****   if ((pointer - ((5 * step) + starty)) == 0)
 971              		.loc 1 245 3 is_stmt 1
 972              		.loc 1 245 6 is_stmt 0
 973 002e 1307D005 		li	a4,93
 974 0032 6380E50E 		beq	a1,a4,.L74
 975              	.LVL116:
 976              	.L48:
 246:menu.c        ****     cursor = 5;
 247:menu.c        ****   if ((pointer - ((6 * step) + starty)) == 0)
 977              		.loc 1 247 3 is_stmt 1
 978              		.loc 1 247 6 is_stmt 0
GAS LISTING /var/folders/rt/4gvqv631095f64jvm7jfj_000000gn/T//cc2eS35f.s 			page 26


 979 0036 1307D006 		li	a4,109
 980 003a 6388E50E 		beq	a1,a4,.L75
 981              	.LVL117:
 982              	.L49:
 248:menu.c        ****     cursor = 6;
 249:menu.c        ****   if ((pointer - ((7 * step) + starty)) == 0)
 983              		.loc 1 249 3 is_stmt 1
 984              		.loc 1 249 6 is_stmt 0
 985 003e 1307D007 		li	a4,125
 986 0042 6399E50C 		bne	a1,a4,.L50
 250:menu.c        ****     cursor = 7;
 987              		.loc 1 250 5 is_stmt 1
 988              	.LVL118:
 251:menu.c        **** 
 252:menu.c        ****   switch (page)
 989              		.loc 1 252 3
 990 0046 C547     		li	a5,17
 991 0048 63E0A70C 		bgtu	a0,a5,.L51
 992 004c 37070000 		lui	a4,%hi(.L53)
 993 0050 93172500 		slli	a5,a0,2
 994 0054 13070700 		addi	a4,a4,%lo(.L53)
 995 0058 BA97     		add	a5,a5,a4
 996 005a 9C43     		lw	a5,0(a5)
 997 005c 8287     		jr	a5
 998              		.section	.rodata.which_page,"a",@progbits
 999              		.align	2
 1000              		.align	2
 1001              	.L53:
 1002 0000 00000000 		.word	.L68
 1003 0004 00000000 		.word	.L76
 1004 0008 00000000 		.word	.L77
 1005 000c 00000000 		.word	.L78
 1006 0010 00000000 		.word	.L62
 1007 0014 00000000 		.word	.L62
 1008 0018 00000000 		.word	.L80
 1009 001c 00000000 		.word	.L81
 1010 0020 00000000 		.word	.L82
 1011 0024 00000000 		.word	.L83
 1012 0028 00000000 		.word	.L86
 1013 002c 00000000 		.word	.L86
 1014 0030 00000000 		.word	.L86
 1015 0034 00000000 		.word	.L87
 1016 0038 00000000 		.word	.L51
 1017 003c 00000000 		.word	.L51
 1018 0040 00000000 		.word	.L51
 1019 0044 00000000 		.word	.L86
 1020              		.section	.text.which_page
 1021              	.LVL119:
 1022              	.L69:
 236:menu.c        ****   if ((pointer - ((1 * step) + starty)) == 0)
 1023              		.loc 1 236 12 is_stmt 0
 1024 005e 8147     		li	a5,0
 1025 0060 F9B7     		j	.L47
 1026              	.LVL120:
 1027              	.L62:
 253:menu.c        ****   {
 254:menu.c        ****   case HOME:
GAS LISTING /var/folders/rt/4gvqv631095f64jvm7jfj_000000gn/T//cc2eS35f.s 			page 27


 255:menu.c        ****     return MAINMENU;
 256:menu.c        ****   case MAINMENU:
 257:menu.c        ****   {
 258:menu.c        ****     switch (cursor)
 259:menu.c        ****     {
 260:menu.c        **** 
 261:menu.c        ****     case 0:
 262:menu.c        ****       return SEEDATA;
 263:menu.c        ****       break;
 264:menu.c        ****     case 1:
 265:menu.c        ****       return REGISTER;
 266:menu.c        ****       break;
 267:menu.c        ****     case 2:
 268:menu.c        ****       return RESET;
 269:menu.c        ****       break;
 270:menu.c        ****     case 3:
 271:menu.c        ****       return LAMP;
 272:menu.c        ****       break;
 273:menu.c        ****     case 7:
 274:menu.c        ****       return HOME;
 275:menu.c        ****       break;
 276:menu.c        ****     default:
 277:menu.c        ****       return -1;
 278:menu.c        ****       break;
 279:menu.c        ****     }
 280:menu.c        ****   }
 281:menu.c        ****   case SEEDATA:
 282:menu.c        ****   {
 283:menu.c        ****     switch (cursor)
 284:menu.c        ****     {
 285:menu.c        ****     case 0:
 286:menu.c        ****       return plant1;
 287:menu.c        ****       break;
 288:menu.c        ****     case 1:
 289:menu.c        ****       return plant2;
 290:menu.c        ****       break;
 291:menu.c        ****     case 2:
 292:menu.c        ****       return plant3;
 293:menu.c        ****       break;
 294:menu.c        ****     case 7:
 295:menu.c        ****       return MAINMENU;
 296:menu.c        ****       break;
 297:menu.c        ****     default:
 298:menu.c        ****       return -1;
 299:menu.c        ****       break;
 300:menu.c        ****     }
 301:menu.c        ****   }
 302:menu.c        ****   case plant1:
 303:menu.c        ****   {
 304:menu.c        ****     switch (cursor)
 305:menu.c        ****     {
 306:menu.c        ****     case 0:
 307:menu.c        ****       return SNAPSHOT;
 308:menu.c        ****       break;
 309:menu.c        ****     case 1:
 310:menu.c        ****       return VIEWHISTORY;
 311:menu.c        ****       break;
GAS LISTING /var/folders/rt/4gvqv631095f64jvm7jfj_000000gn/T//cc2eS35f.s 			page 28


 312:menu.c        ****     case 7:
 313:menu.c        ****       return SEEDATA;
 314:menu.c        ****       break;
 315:menu.c        ****     default:
 316:menu.c        ****       return -1;
 317:menu.c        ****       break;
 318:menu.c        ****     }
 319:menu.c        ****   }
 320:menu.c        ****   case plant2:
 321:menu.c        ****   {
 322:menu.c        ****     switch (cursor)
 323:menu.c        ****     {
 324:menu.c        ****     case 0:
 325:menu.c        ****       return SNAPSHOT;
 326:menu.c        ****       break;
 327:menu.c        ****     case 1:
 328:menu.c        ****       return VIEWHISTORY;
 329:menu.c        ****       break;
 330:menu.c        ****     case 7:
 331:menu.c        ****       return SEEDATA;
 332:menu.c        ****       break;
 333:menu.c        ****     default:
 334:menu.c        ****       return -1;
 335:menu.c        ****       break;
 336:menu.c        ****     }
 337:menu.c        ****   }
 338:menu.c        ****   case plant3:
 339:menu.c        ****   {
 340:menu.c        ****     switch (cursor)
 341:menu.c        ****     {
 342:menu.c        ****     case 0:
 343:menu.c        ****       return SNAPSHOT;
 344:menu.c        ****       break;
 345:menu.c        ****     case 1:
 346:menu.c        ****       return VIEWHISTORY;
 347:menu.c        ****       break;
 348:menu.c        ****     case 7:
 349:menu.c        ****       return SEEDATA;
 350:menu.c        ****       break;
 351:menu.c        ****     default:
 352:menu.c        ****       return -1;
 353:menu.c        ****       break;
 354:menu.c        ****     }
 355:menu.c        ****   }
 356:menu.c        ****   case SNAPSHOT:
 357:menu.c        ****   {
 358:menu.c        ****     switch (cursor)
 359:menu.c        ****     {
 360:menu.c        ****     case 7:
 361:menu.c        ****       return SEEDATA;
 1028              		.loc 1 361 14
 1029 0062 0945     		li	a0,2
 1030              	.LVL121:
 1031 0064 8280     		ret
 1032              	.LVL122:
 1033              	.L76:
 250:menu.c        **** 
GAS LISTING /var/folders/rt/4gvqv631095f64jvm7jfj_000000gn/T//cc2eS35f.s 			page 29


 1034              		.loc 1 250 12
 1035 0066 9D47     		li	a5,7
 1036              	.LVL123:
 1037              	.L65:
 258:menu.c        ****     {
 1038              		.loc 1 258 5 is_stmt 1
 1039 0068 1D47     		li	a4,7
 256:menu.c        ****   {
 1040              		.loc 1 256 3 is_stmt 0
 1041 006a 7D55     		li	a0,-1
 1042 006c 6362F70C 		bgtu	a5,a4,.L46
 1043 0070 37050000 		lui	a0,%hi(.LANCHOR0)
 1044 0074 13050500 		addi	a0,a0,%lo(.LANCHOR0)
 1045              	.L96:
 1046 0078 3E95     		add	a0,a0,a5
 1047 007a 03050500 		lb	a0,0(a0)
 1048 007e 8280     		ret
 1049              	.LVL124:
 1050              	.L77:
 250:menu.c        **** 
 1051              		.loc 1 250 12
 1052 0080 9D47     		li	a5,7
 1053              	.LVL125:
 1054              	.L64:
 278:menu.c        ****     }
 1055              		.loc 1 278 7 is_stmt 1
 283:menu.c        ****     {
 1056              		.loc 1 283 5
 1057 0082 1D47     		li	a4,7
 281:menu.c        ****   {
 1058              		.loc 1 281 3 is_stmt 0
 1059 0084 7D55     		li	a0,-1
 1060 0086 6365F70A 		bgtu	a5,a4,.L46
 1061 008a 37050000 		lui	a0,%hi(.LANCHOR1)
 1062 008e 13050500 		addi	a0,a0,%lo(.LANCHOR1)
 1063 0092 DDB7     		j	.L96
 1064              	.LVL126:
 1065              	.L78:
 250:menu.c        **** 
 1066              		.loc 1 250 12
 1067 0094 9D47     		li	a5,7
 1068              	.LVL127:
 1069              	.L63:
 299:menu.c        ****     }
 1070              		.loc 1 299 7 is_stmt 1
 304:menu.c        ****     {
 1071              		.loc 1 304 5
 1072 0096 1D47     		li	a4,7
 302:menu.c        ****   {
 1073              		.loc 1 302 3 is_stmt 0
 1074 0098 7D55     		li	a0,-1
 1075 009a 636BF708 		bgtu	a5,a4,.L46
 1076 009e 37050000 		lui	a0,%hi(.LANCHOR2)
 1077 00a2 13050500 		addi	a0,a0,%lo(.LANCHOR2)
 1078 00a6 C9BF     		j	.L96
 1079              	.LVL128:
 1080              	.L80:
GAS LISTING /var/folders/rt/4gvqv631095f64jvm7jfj_000000gn/T//cc2eS35f.s 			page 30


 250:menu.c        **** 
 1081              		.loc 1 250 12
 1082 00a8 9D47     		li	a5,7
 1083              	.LVL129:
 1084              	.L61:
 317:menu.c        ****     }
 1085              		.loc 1 317 7 is_stmt 1
 322:menu.c        ****     {
 1086              		.loc 1 322 5
 1087 00aa 1D47     		li	a4,7
 320:menu.c        ****   {
 1088              		.loc 1 320 3 is_stmt 0
 1089 00ac 7D55     		li	a0,-1
 1090 00ae 6361F708 		bgtu	a5,a4,.L46
 1091 00b2 37050000 		lui	a0,%hi(CSWTCH.88)
 1092 00b6 13050500 		addi	a0,a0,%lo(CSWTCH.88)
 1093 00ba 7DBF     		j	.L96
 1094              	.LVL130:
 1095              	.L81:
 250:menu.c        **** 
 1096              		.loc 1 250 12
 1097 00bc AA87     		mv	a5,a0
 1098              	.LVL131:
 1099              	.L60:
 335:menu.c        ****     }
 1100              		.loc 1 335 7 is_stmt 1
 340:menu.c        ****     {
 1101              		.loc 1 340 5
 1102 00be 1D47     		li	a4,7
 338:menu.c        ****   {
 1103              		.loc 1 338 3 is_stmt 0
 1104 00c0 7D55     		li	a0,-1
 1105 00c2 6367F706 		bgtu	a5,a4,.L46
 1106 00c6 37050000 		lui	a0,%hi(CSWTCH.89)
 1107 00ca 13050500 		addi	a0,a0,%lo(CSWTCH.89)
 1108 00ce 6DB7     		j	.L96
 1109              	.LVL132:
 1110              	.L82:
 250:menu.c        **** 
 1111              		.loc 1 250 12
 1112 00d0 9D47     		li	a5,7
 1113              	.LVL133:
 1114              	.L59:
 362:menu.c        ****       break;
 363:menu.c        ****     default:
 364:menu.c        ****       return -1;
 365:menu.c        ****       break;
 366:menu.c        ****     }
 367:menu.c        ****   }
 368:menu.c        ****   case VIEWHISTORY:
 369:menu.c        ****   {
 370:menu.c        ****     switch (cursor)
 371:menu.c        ****     {
 372:menu.c        ****     case 7:
 373:menu.c        ****       return SEEDATA;
 374:menu.c        ****       break;
 375:menu.c        ****     default:
GAS LISTING /var/folders/rt/4gvqv631095f64jvm7jfj_000000gn/T//cc2eS35f.s 			page 31


 376:menu.c        ****       return -1;
 377:menu.c        ****       break;
 378:menu.c        ****     }
 379:menu.c        ****   }
 380:menu.c        ****   case LAMP:
 381:menu.c        ****   {
 382:menu.c        ****     switch (cursor)
 383:menu.c        ****     {
 384:menu.c        ****     case 7:
 385:menu.c        ****       return HOME;
 386:menu.c        ****       break;
 387:menu.c        ****     default:
 388:menu.c        ****       return -1;
 389:menu.c        ****       break;
 1115              		.loc 1 389 7 is_stmt 1
 390:menu.c        ****     }
 391:menu.c        ****   }
 392:menu.c        ****   case REGISTER:
 393:menu.c        ****   {
 394:menu.c        ****     switch (cursor)
 1116              		.loc 1 394 5
 1117 00d2 1D47     		li	a4,7
 392:menu.c        ****   {
 1118              		.loc 1 392 3 is_stmt 0
 1119 00d4 7D55     		li	a0,-1
 1120 00d6 636DF704 		bgtu	a5,a4,.L46
 1121 00da 37050000 		lui	a0,%hi(.LANCHOR3)
 1122 00de 13050500 		addi	a0,a0,%lo(.LANCHOR3)
 1123 00e2 59BF     		j	.L96
 1124              	.LVL134:
 1125              	.L83:
 250:menu.c        **** 
 1126              		.loc 1 250 12
 1127 00e4 9D47     		li	a5,7
 1128              	.LVL135:
 1129              	.L58:
 395:menu.c        ****     {
 396:menu.c        ****     case 0:
 397:menu.c        ****       return CHOOSE_DEFUALT;
 398:menu.c        ****       break;
 399:menu.c        ****     case 1:
 400:menu.c        ****       return CUSTOM_SETTINGS;
 401:menu.c        ****       break;
 402:menu.c        ****     case 7:
 403:menu.c        ****       return MAINMENU;
 404:menu.c        ****       break;
 405:menu.c        ****     default:
 406:menu.c        ****       return -1;
 407:menu.c        ****       break;
 1130              		.loc 1 407 7 is_stmt 1
 408:menu.c        ****     }
 409:menu.c        ****   }
 410:menu.c        ****   case CHOOSE_DEFUALT:
 411:menu.c        ****   {
 412:menu.c        ****     switch (cursor)
 1131              		.loc 1 412 5
 1132 00e6 1D47     		li	a4,7
GAS LISTING /var/folders/rt/4gvqv631095f64jvm7jfj_000000gn/T//cc2eS35f.s 			page 32


 410:menu.c        ****   {
 1133              		.loc 1 410 3 is_stmt 0
 1134 00e8 7D55     		li	a0,-1
 1135 00ea 6363F704 		bgtu	a5,a4,.L46
 1136 00ee 37050000 		lui	a0,%hi(.LANCHOR4)
 1137 00f2 13050500 		addi	a0,a0,%lo(.LANCHOR4)
 1138 00f6 49B7     		j	.L96
 1139              	.LVL136:
 1140              	.L86:
 250:menu.c        **** 
 1141              		.loc 1 250 12
 1142 00f8 9D47     		li	a5,7
 1143              	.LVL137:
 1144              	.L55:
 413:menu.c        ****     {
 414:menu.c        ****     case 0:
 415:menu.c        ****       return TOMATO;
 416:menu.c        ****       break;
 417:menu.c        ****     case 1:
 418:menu.c        ****       return CUCUMBER;
 419:menu.c        ****       break;
 420:menu.c        ****     case 2:
 421:menu.c        ****       return PURPLEHAZE;
 422:menu.c        ****       break;
 423:menu.c        ****     case 7:
 424:menu.c        ****       return REGISTER;
 425:menu.c        ****       break;
 426:menu.c        ****     default:
 427:menu.c        ****       return -1;
 428:menu.c        ****       break;
 429:menu.c        ****     }
 430:menu.c        ****   }
 431:menu.c        ****   case TOMATO:
 432:menu.c        ****   {
 433:menu.c        ****     switch (cursor)
 434:menu.c        ****     {
 435:menu.c        ****     case 7:
 436:menu.c        ****       return HOME;
 437:menu.c        ****       break;
 438:menu.c        ****     default:
 439:menu.c        ****       return -1;
 440:menu.c        ****       break;
 441:menu.c        ****     }
 442:menu.c        ****   }
 443:menu.c        ****   case CUCUMBER:
 444:menu.c        ****   {
 445:menu.c        ****     switch (cursor)
 446:menu.c        ****     {
 447:menu.c        ****     case 7:
 448:menu.c        ****       return HOME;
 449:menu.c        ****       break;
 450:menu.c        ****     default:
 451:menu.c        ****       return -1;
 452:menu.c        ****       break;
 1145              		.loc 1 452 7 is_stmt 1
 453:menu.c        ****     }
 454:menu.c        ****   }
GAS LISTING /var/folders/rt/4gvqv631095f64jvm7jfj_000000gn/T//cc2eS35f.s 			page 33


 455:menu.c        ****   case PURPLEHAZE:
 456:menu.c        ****   {
 457:menu.c        ****     switch (cursor)
 1146              		.loc 1 457 5
 1147 00fa 138597FF 		addi	a0,a5,-7
 1148 00fe 3335A000 		snez	a0,a0
 1149 0102 3305A040 		neg	a0,a0
 1150 0106 8280     		ret
 1151              	.L51:
 458:menu.c        ****     {
 459:menu.c        ****     case 7:
 460:menu.c        ****       return HOME;
 461:menu.c        ****       break;
 462:menu.c        ****     default:
 463:menu.c        ****       return -1;
 464:menu.c        ****       break;
 465:menu.c        ****     }
 466:menu.c        ****   }
 467:menu.c        ****   case CUSTOM_SETTINGS:
 468:menu.c        ****   {
 469:menu.c        ****     switch (cursor)
 470:menu.c        ****     {
 471:menu.c        ****     case 7:
 472:menu.c        ****       return REGISTER;
 473:menu.c        ****       break;
 474:menu.c        ****     default:
 475:menu.c        ****       return -1;
 476:menu.c        ****       break;
 1152              		.loc 1 476 7
 477:menu.c        ****     }
 478:menu.c        ****   }
 479:menu.c        **** 
 480:menu.c        ****   default:
 481:menu.c        ****     break;
 1153              		.loc 1 481 5
 482:menu.c        ****   }
 483:menu.c        **** }
 1154              		.loc 1 483 1 is_stmt 0
 1155 0108 8280     		ret
 1156              	.LVL138:
 1157              	.L87:
 472:menu.c        ****       break;
 1158              		.loc 1 472 14
 1159 010a 2145     		li	a0,8
 1160              	.LVL139:
 1161 010c 8280     		ret
 1162              	.LVL140:
 1163              	.L95:
 364:menu.c        ****       break;
 1164              		.loc 1 364 14
 1165 010e 7D55     		li	a0,-1
 1166 0110 8280     		ret
 1167              	.LVL141:
 1168              	.L74:
 246:menu.c        ****   if ((pointer - ((6 * step) + starty)) == 0)
 1169              		.loc 1 246 12
 1170 0112 9547     		li	a5,5
GAS LISTING /var/folders/rt/4gvqv631095f64jvm7jfj_000000gn/T//cc2eS35f.s 			page 34


 1171              	.LVL142:
 1172              	.L50:
 252:menu.c        ****   {
 1173              		.loc 1 252 3 is_stmt 1
 1174 0114 4547     		li	a4,17
 1175 0116 E369A7FE 		bgtu	a0,a4,.L51
 1176 011a 37070000 		lui	a4,%hi(.L67)
 1177 011e 13070700 		addi	a4,a4,%lo(.L67)
 1178 0122 0A05     		slli	a0,a0,2
 1179              	.LVL143:
 1180 0124 3A95     		add	a0,a0,a4
 1181 0126 1841     		lw	a4,0(a0)
 1182 0128 0287     		jr	a4
 1183              		.section	.rodata.which_page
 1184              		.align	2
 1185              		.align	2
 1186              	.L67:
 1187 0048 00000000 		.word	.L68
 1188 004c 00000000 		.word	.L65
 1189 0050 00000000 		.word	.L64
 1190 0054 00000000 		.word	.L63
 1191 0058 00000000 		.word	.L95
 1192 005c 00000000 		.word	.L95
 1193 0060 00000000 		.word	.L61
 1194 0064 00000000 		.word	.L60
 1195 0068 00000000 		.word	.L59
 1196 006c 00000000 		.word	.L58
 1197 0070 00000000 		.word	.L55
 1198 0074 00000000 		.word	.L55
 1199 0078 00000000 		.word	.L55
 1200 007c 00000000 		.word	.L95
 1201 0080 00000000 		.word	.L51
 1202 0084 00000000 		.word	.L51
 1203 0088 00000000 		.word	.L51
 1204 008c 00000000 		.word	.L55
 1205              		.section	.text.which_page
 1206              	.LVL144:
 1207              	.L75:
 248:menu.c        ****   if ((pointer - ((7 * step) + starty)) == 0)
 1208              		.loc 1 248 12 is_stmt 0
 1209 012a 9947     		li	a5,6
 1210              	.LVL145:
 1211 012c E5B7     		j	.L50
 1212              	.LVL146:
 1213              	.L68:
 255:menu.c        ****   case MAINMENU:
 1214              		.loc 1 255 12
 1215 012e 0545     		li	a0,1
 1216              	.L46:
 1217              		.loc 1 483 1
 1218 0130 8280     		ret
 1219              		.cfi_endproc
 1220              	.LFE7:
 1222              		.section	.text.Buttonpressed,"ax",@progbits
 1223              		.align	1
 1224              		.globl	Buttonpressed
 1226              	Buttonpressed:
GAS LISTING /var/folders/rt/4gvqv631095f64jvm7jfj_000000gn/T//cc2eS35f.s 			page 35


 1227              	.LFB8:
 484:menu.c        **** 
 485:menu.c        **** void Buttonpressed(int *P_page, int akey, int *pNumberOfPlants, Plant allPlants[], int *P_point, in
 486:menu.c        **** {
 1228              		.loc 1 486 1 is_stmt 1
 1229              		.cfi_startproc
 1230              	.LVL147:
 487:menu.c        **** 
 488:menu.c        ****   int next_page = -1;
 1231              		.loc 1 488 3
 489:menu.c        **** 
 490:menu.c        ****   switch (akey)
 1232              		.loc 1 490 3
 486:menu.c        **** 
 1233              		.loc 1 486 1 is_stmt 0
 1234 0000 0111     		addi	sp,sp,-32
 1235              	.LCFI12:
 1236              		.cfi_def_cfa_offset 32
 1237 0002 26CA     		sw	s1,20(sp)
 1238 0004 06CE     		sw	ra,28(sp)
 1239              		.cfi_offset 9, -12
 1240              		.cfi_offset 1, -4
 1241 0006 AA84     		mv	s1,a0
 1242 0008 22CC     		sw	s0,24(sp)
 1243              		.cfi_offset 8, -8
 486:menu.c        **** 
 1244              		.loc 1 486 1
 1245 000a 3A85     		mv	a0,a4
 1246              	.LVL148:
 1247              		.loc 1 490 3
 1248 000c 1547     		li	a4,5
 1249              	.LVL149:
 1250 000e 6381E502 		beq	a1,a4,.L98
 1251 0012 A147     		li	a5,8
 1252              	.LVL150:
 1253 0014 6385F500 		beq	a1,a5,.L99
 1254 0018 8947     		li	a5,2
 1255 001a 6397F504 		bne	a1,a5,.L97
 1256              	.L99:
 491:menu.c        ****   {
 492:menu.c        ****   case 2:
 493:menu.c        ****     move_pointer(P_point, akey, *P_page);
 494:menu.c        ****     break; // MOVE THE CURSOR TO THE CORRECT POSITION AND CONTROL WHERE VIA A POINTER
 495:menu.c        ****   case 8:
 496:menu.c        ****     move_pointer(P_point, akey, *P_page);
 1257              		.loc 1 496 5 is_stmt 1
 497:menu.c        ****     break; // POINTER WAS A BAD NAME FOR A POINTER
 498:menu.c        ****   case 5:
 499:menu.c        ****   {
 500:menu.c        ****     next_page = which_page(*P_page, *P_point); // CHOOSE WHICH PAGE TO DISPLAY NEXT
 501:menu.c        ****     if (next_page != -1)
 502:menu.c        ****     {
 503:menu.c        ****       (*P_point) = 13;
 504:menu.c        ****       (*P_page) = next_page; // NEW PAGE PUT THE CURSOR IN THE START POSITION (ROW 0)
 505:menu.c        ****       pages(*P_page, *P_point, pNumberOfPlants, allPlants, alive);
 506:menu.c        ****     }
 507:menu.c        ****     else
GAS LISTING /var/folders/rt/4gvqv631095f64jvm7jfj_000000gn/T//cc2eS35f.s 			page 36


 508:menu.c        ****       (*P_page) = (*P_page);
 509:menu.c        ****   }
 510:menu.c        ****   break;
 511:menu.c        **** 
 512:menu.c        ****   default:
 513:menu.c        ****   {
 514:menu.c        ****   }
 515:menu.c        ****   break;
 516:menu.c        ****   }
 517:menu.c        **** }
 1258              		.loc 1 517 1 is_stmt 0
 1259 001e 6244     		lw	s0,24(sp)
 1260              		.cfi_remember_state
 1261              		.cfi_restore 8
 496:menu.c        ****     break; // POINTER WAS A BAD NAME FOR A POINTER
 1262              		.loc 1 496 5
 1263 0020 9040     		lw	a2,0(s1)
 1264              	.LVL151:
 1265              		.loc 1 517 1
 1266 0022 F240     		lw	ra,28(sp)
 1267              		.cfi_restore 1
 1268 0024 D244     		lw	s1,20(sp)
 1269              		.cfi_restore 9
 1270              	.LVL152:
 1271 0026 0561     		addi	sp,sp,32
 1272              	.LCFI13:
 1273              		.cfi_def_cfa_offset 0
 496:menu.c        ****     break; // POINTER WAS A BAD NAME FOR A POINTER
 1274              		.loc 1 496 5
 1275 0028 17030000 		tail	move_pointer
 1275      67000300 
 1276              	.LVL153:
 1277              	.L98:
 1278              	.LCFI14:
 1279              		.cfi_restore_state
 500:menu.c        ****     if (next_page != -1)
 1280              		.loc 1 500 17
 1281 0030 0C41     		lw	a1,0(a0)
 1282              	.LVL154:
 1283 0032 2A84     		mv	s0,a0
 1284 0034 8840     		lw	a0,0(s1)
 1285              	.LVL155:
 1286 0036 3EC6     		sw	a5,12(sp)
 1287 0038 36C4     		sw	a3,8(sp)
 1288 003a 32C2     		sw	a2,4(sp)
 500:menu.c        ****     if (next_page != -1)
 1289              		.loc 1 500 5 is_stmt 1
 500:menu.c        ****     if (next_page != -1)
 1290              		.loc 1 500 17 is_stmt 0
 1291 003c 97000000 		call	which_page
 1291      E7800000 
 1292              	.LVL156:
 501:menu.c        ****     {
 1293              		.loc 1 501 5 is_stmt 1
 501:menu.c        ****     {
 1294              		.loc 1 501 8 is_stmt 0
 1295 0044 FD55     		li	a1,-1
GAS LISTING /var/folders/rt/4gvqv631095f64jvm7jfj_000000gn/T//cc2eS35f.s 			page 37


 1296 0046 6301B502 		beq	a0,a1,.L97
 503:menu.c        ****       (*P_page) = next_page; // NEW PAGE PUT THE CURSOR IN THE START POSITION (ROW 0)
 1297              		.loc 1 503 7 is_stmt 1
 503:menu.c        ****       (*P_page) = next_page; // NEW PAGE PUT THE CURSOR IN THE START POSITION (ROW 0)
 1298              		.loc 1 503 18 is_stmt 0
 1299 004a B545     		li	a1,13
 1300 004c 0CC0     		sw	a1,0(s0)
 504:menu.c        ****       pages(*P_page, *P_point, pNumberOfPlants, allPlants, alive);
 1301              		.loc 1 504 7 is_stmt 1
 504:menu.c        ****       pages(*P_page, *P_point, pNumberOfPlants, allPlants, alive);
 1302              		.loc 1 504 17 is_stmt 0
 1303 004e 88C0     		sw	a0,0(s1)
 505:menu.c        ****     }
 1304              		.loc 1 505 7 is_stmt 1
 1305 0050 0C40     		lw	a1,0(s0)
 1306              		.loc 1 517 1 is_stmt 0
 1307 0052 6244     		lw	s0,24(sp)
 1308              		.cfi_remember_state
 1309              		.cfi_restore 8
 1310              	.LVL157:
 505:menu.c        ****     }
 1311              		.loc 1 505 7
 1312 0054 3247     		lw	a4,12(sp)
 1313 0056 A246     		lw	a3,8(sp)
 1314 0058 1246     		lw	a2,4(sp)
 1315              		.loc 1 517 1
 1316 005a F240     		lw	ra,28(sp)
 1317              		.cfi_restore 1
 1318 005c D244     		lw	s1,20(sp)
 1319              		.cfi_restore 9
 1320              	.LVL158:
 1321 005e 0561     		addi	sp,sp,32
 1322              	.LCFI15:
 1323              		.cfi_def_cfa_offset 0
 1324              	.LVL159:
 505:menu.c        ****     }
 1325              		.loc 1 505 7
 1326 0060 17030000 		tail	pages
 1326      67000300 
 1327              	.LVL160:
 1328              	.L97:
 1329              	.LCFI16:
 1330              		.cfi_restore_state
 1331              		.loc 1 517 1
 1332 0068 F240     		lw	ra,28(sp)
 1333              		.cfi_restore 1
 1334 006a 6244     		lw	s0,24(sp)
 1335              		.cfi_restore 8
 1336 006c D244     		lw	s1,20(sp)
 1337              		.cfi_restore 9
 1338              	.LVL161:
 1339 006e 0561     		addi	sp,sp,32
 1340              	.LCFI17:
 1341              		.cfi_def_cfa_offset 0
 1342 0070 8280     		jr	ra
 1343              		.cfi_endproc
 1344              	.LFE8:
GAS LISTING /var/folders/rt/4gvqv631095f64jvm7jfj_000000gn/T//cc2eS35f.s 			page 38


 1346              		.section	.text.no_button_press,"ax",@progbits
 1347              		.align	1
 1348              		.globl	no_button_press
 1350              	no_button_press:
 1351              	.LFB9:
 518:menu.c        **** void no_button_press(int *P_page, int *P_nopress)
 519:menu.c        **** {
 1352              		.loc 1 519 1 is_stmt 1
 1353              		.cfi_startproc
 1354              	.LVL162:
 520:menu.c        **** 
 521:menu.c        ****   (*P_nopress)++;
 1355              		.loc 1 521 3
 1356              		.loc 1 521 15 is_stmt 0
 1357 0000 9C41     		lw	a5,0(a1)
 522:menu.c        ****   if ((*P_nopress) >= (TIMOUT_ms)) // if the time with no button press is bigger than the defined v
 1358              		.loc 1 522 6
 1359 0002 37970400 		li	a4,299008
 1360 0006 1307F73D 		addi	a4,a4,991
 521:menu.c        ****   if ((*P_nopress) >= (TIMOUT_ms)) // if the time with no button press is bigger than the defined v
 1361              		.loc 1 521 15
 1362 000a 8507     		addi	a5,a5,1
 1363 000c 9CC1     		sw	a5,0(a1)
 1364              		.loc 1 522 3 is_stmt 1
 1365              		.loc 1 522 6 is_stmt 0
 1366 000e 6353F704 		ble	a5,a4,.L105
 519:menu.c        **** 
 1367              		.loc 1 519 1
 1368 0012 4111     		addi	sp,sp,-16
 1369              	.LCFI18:
 1370              		.cfi_def_cfa_offset 16
 1371 0014 26C2     		sw	s1,4(sp)
 1372              		.cfi_offset 9, -12
 1373 0016 AA84     		mv	s1,a0
 523:menu.c        ****   {
 524:menu.c        ****     LCD_Clear(BLACK);
 1374              		.loc 1 524 5 is_stmt 1
 1375 0018 0145     		li	a0,0
 1376              	.LVL163:
 519:menu.c        **** 
 1377              		.loc 1 519 1 is_stmt 0
 1378 001a 06C6     		sw	ra,12(sp)
 1379 001c 22C4     		sw	s0,8(sp)
 1380              		.cfi_offset 1, -4
 1381              		.cfi_offset 8, -8
 1382 001e 2E84     		mv	s0,a1
 1383              		.loc 1 524 5
 1384 0020 97000000 		call	LCD_Clear
 1384      E7800000 
 1385              	.LVL164:
 525:menu.c        ****     LCD_ShowStr(10, 10, "Green fingers", WHITE, TRANSPARENT);
 1386              		.loc 1 525 5 is_stmt 1
 1387 0028 C166     		li	a3,65536
 1388 002a 37060000 		lui	a2,%hi(.LC0)
 1389 002e 0547     		li	a4,1
 1390 0030 FD16     		addi	a3,a3,-1
 1391 0032 13060600 		addi	a2,a2,%lo(.LC0)
GAS LISTING /var/folders/rt/4gvqv631095f64jvm7jfj_000000gn/T//cc2eS35f.s 			page 39


 1392 0036 A945     		li	a1,10
 1393 0038 2945     		li	a0,10
 1394 003a 97000000 		call	LCD_ShowStr
 1394      E7800000 
 1395              	.LVL165:
 526:menu.c        ****     (*P_page) = HOME;
 1396              		.loc 1 526 5
 1397              		.loc 1 526 15 is_stmt 0
 1398 0042 23A00400 		sw	zero,0(s1)
 527:menu.c        ****     (*P_nopress) = 0;
 1399              		.loc 1 527 5 is_stmt 1
 1400              		.loc 1 527 18 is_stmt 0
 1401 0046 23200400 		sw	zero,0(s0)
 528:menu.c        ****   }
 529:menu.c        **** }...
 1402              		.loc 1 529 1
 1403 004a B240     		lw	ra,12(sp)
 1404              		.cfi_restore 1
 1405 004c 2244     		lw	s0,8(sp)
 1406              		.cfi_restore 8
 1407              	.LVL166:
 1408 004e 9244     		lw	s1,4(sp)
 1409              		.cfi_restore 9
 1410              	.LVL167:
 1411 0050 4101     		addi	sp,sp,16
 1412              	.LCFI19:
 1413              		.cfi_def_cfa_offset 0
 1414 0052 8280     		jr	ra
 1415              	.LVL168:
 1416              	.L105:
 1417 0054 8280     		ret
 1418              		.cfi_endproc
 1419              	.LFE9:
 1421              		.set	CSWTCH.89,CSWTCH.87
 1422              		.set	CSWTCH.88,CSWTCH.87
 1423              		.section	.rodata.pages.str1.4,"aMS",@progbits,1
 1424              		.align	2
 1425              	.LC0:
 1426 0000 47726565 		.string	"Green fingers"
 1426      6E206669 
 1426      6E676572 
 1426      7300
 1427 000e 0000     		.zero	2
 1428              	.LC1:
 1429 0010 73656520 		.string	"see data"
 1429      64617461 
 1429      00
 1430 0019 000000   		.zero	3
 1431              	.LC2:
 1432 001c 72656769 		.string	"register a plant"
 1432      73746572 
 1432      20612070 
 1432      6C616E74 
 1432      00
 1433 002d 000000   		.zero	3
 1434              	.LC3:
 1435 0030 72657365 		.string	"reset"
GAS LISTING /var/folders/rt/4gvqv631095f64jvm7jfj_000000gn/T//cc2eS35f.s 			page 40


 1435      7400
 1436 0036 0000     		.zero	2
 1437              	.LC4:
 1438 0038 6261636B 		.string	"back"
 1438      00
 1439 003d 000000   		.zero	3
 1440              	.LC5:
 1441 0040 706C616E 		.string	"plant "
 1441      742000
 1442 0047 00       		.zero	1
 1443              	.LC6:
 1444 0048 53656520 		.string	"See snap shot"
 1444      736E6170 
 1444      2073686F 
 1444      7400
 1445 0056 0000     		.zero	2
 1446              	.LC7:
 1447 0058 76696577 		.string	"view history"
 1447      20686973 
 1447      746F7279 
 1447      00
 1448 0065 000000   		.zero	3
 1449              	.LC8:
 1450 0068 736E6170 		.string	"snap shot"
 1450      2073686F 
 1450      7400
 1451 0072 0000     		.zero	2
 1452              	.LC9:
 1453 0074 43686F6F 		.string	"Choose default"
 1453      73652064 
 1453      65666175 
 1453      6C7400
 1454 0083 00       		.zero	1
 1455              	.LC10:
 1456 0084 43757374 		.string	"Custom settings"
 1456      6F6D2073 
 1456      65747469 
 1456      6E677300 
 1457              	.LC11:
 1458 0094 546F6D61 		.string	"Tomato"
 1458      746F00
 1459 009b 00       		.zero	1
 1460              	.LC12:
 1461 009c 63756375 		.string	"cucumber"
 1461      6D626572 
 1461      00
 1462 00a5 000000   		.zero	3
 1463              	.LC13:
 1464 00a8 50757270 		.string	"Purple haze"
 1464      6C652068 
 1464      617A6500 
 1465              	.LC14:
 1466 00b4 546F6D61 		.string	"Tomato added!"
 1466      746F2061 
 1466      64646564 
 1466      2100
 1467 00c2 0000     		.zero	2
GAS LISTING /var/folders/rt/4gvqv631095f64jvm7jfj_000000gn/T//cc2eS35f.s 			page 41


 1468              	.LC15:
 1469 00c4 43756375 		.string	"Cucumber"
 1469      6D626572 
 1469      00
 1470 00cd 000000   		.zero	3
 1471              	.LC16:
 1472 00d0 44525547 		.string	"DRUGS ARE BAD"
 1472      53204152 
 1472      45204241 
 1472      4400
 1473 00de 0000     		.zero	2
 1474              	.LC17:
 1475 00e0 6D6D6B61 		.string	"mmkaaaayy"
 1475      61616179 
 1475      7900
 1476 00ea 0000     		.zero	2
 1477              	.LC18:
 1478 00ec 4D792073 		.string	"My swagga"
 1478      77616767 
 1478      6100
 1479 00f6 0000     		.zero	2
 1480              	.LC19:
 1481 00f8 6E656564 		.string	"need to be able to read in data"
 1481      20746F20 
 1481      62652061 
 1481      626C6520 
 1481      746F2072 
 1482              	.LC20:
 1483 0118 4C414D50 		.string	"LAMP on"
 1483      206F6E00 
 1484              	.LC21:
 1485 0120 4D6F6973 		.string	"Moisture: "
 1485      74757265 
 1485      3A2000
 1486 012b 00       		.zero	1
 1487              	.LC22:
 1488 012c 73756E3A 		.string	"sun: "
 1488      2000
 1489 0132 0000     		.zero	2
 1490              	.LC23:
 1491 0134 54656D70 		.string	"Temp: "
 1491      3A2000
 1492 013b 00       		.zero	1
 1493              	.LC24:
 1494 013c 52657365 		.string	"Reset all"
 1494      7420616C 
 1494      6C00
 1495 0146 0000     		.zero	2
 1496              	.LC25:
 1497 0148 72657365 		.string	"reset a plant"
 1497      74206120 
 1497      706C616E 
 1497      7400
 1498              		.section	.sdata2.CSWTCH.85,"a"
 1499              		.align	2
 1500              		.set	.LANCHOR0,. + 0
 1503              	CSWTCH.85:
GAS LISTING /var/folders/rt/4gvqv631095f64jvm7jfj_000000gn/T//cc2eS35f.s 			page 42


 1504 0000 02       		.byte	2
 1505 0001 08       		.byte	8
 1506 0002 00       		.byte	0
 1507 0003 11       		.byte	17
 1508 0004 FF       		.byte	-1
 1509 0005 FF       		.byte	-1
 1510 0006 FF       		.byte	-1
 1511 0007 00       		.byte	0
 1512              		.section	.sdata2.CSWTCH.86,"a"
 1513              		.align	2
 1514              		.set	.LANCHOR1,. + 0
 1517              	CSWTCH.86:
 1518 0000 03       		.byte	3
 1519 0001 06       		.byte	6
 1520 0002 07       		.byte	7
 1521 0003 FF       		.byte	-1
 1522 0004 FF       		.byte	-1
 1523 0005 FF       		.byte	-1
 1524 0006 FF       		.byte	-1
 1525 0007 01       		.byte	1
 1526              		.section	.sdata2.CSWTCH.87,"a"
 1527              		.align	2
 1528              		.set	.LANCHOR2,. + 0
 1531              	CSWTCH.87:
 1532 0000 04       		.byte	4
 1533 0001 05       		.byte	5
 1534 0002 FF       		.byte	-1
 1535 0003 FF       		.byte	-1
 1536 0004 FF       		.byte	-1
 1537 0005 FF       		.byte	-1
 1538 0006 FF       		.byte	-1
 1539 0007 02       		.byte	2
 1540              		.section	.sdata2.CSWTCH.90,"a"
 1541              		.align	2
 1542              		.set	.LANCHOR3,. + 0
 1545              	CSWTCH.90:
 1546 0000 09       		.byte	9
 1547 0001 0D       		.byte	13
 1548 0002 FF       		.byte	-1
 1549 0003 FF       		.byte	-1
 1550 0004 FF       		.byte	-1
 1551 0005 FF       		.byte	-1
 1552 0006 FF       		.byte	-1
 1553 0007 01       		.byte	1
 1554              		.section	.sdata2.CSWTCH.91,"a"
 1555              		.align	2
 1556              		.set	.LANCHOR4,. + 0
 1559              	CSWTCH.91:
 1560 0000 0A       		.byte	10
 1561 0001 0B       		.byte	11
 1562 0002 0C       		.byte	12
 1563 0003 FF       		.byte	-1
 1564 0004 FF       		.byte	-1
 1565 0005 FF       		.byte	-1
 1566 0006 FF       		.byte	-1
 1567 0007 08       		.byte	8
 1568              		.text
GAS LISTING /var/folders/rt/4gvqv631095f64jvm7jfj_000000gn/T//cc2eS35f.s 			page 43


 1569              	.Letext0:
 1570              		.file 2 "/Users/alexstrae/toolchain-gd32v-v202-osx/compiler/riscv64-unknown-elf/include/machine/_d
 1571              		.file 3 "/Users/alexstrae/toolchain-gd32v-v202-osx/compiler/lib/gcc/riscv64-unknown-elf/8.3.0/incl
 1572              		.file 4 "/Users/alexstrae/toolchain-gd32v-v202-osx/compiler/riscv64-unknown-elf/include/sys/_types
 1573              		.file 5 "/Users/alexstrae/toolchain-gd32v-v202-osx/compiler/riscv64-unknown-elf/include/sys/reent.
 1574              		.file 6 "/Users/alexstrae/toolchain-gd32v-v202-osx/compiler/riscv64-unknown-elf/include/sys/lock.h
 1575              		.file 7 "/Users/alexstrae/toolchain-gd32v-v202-osx/compiler/riscv64-unknown-elf/include/sys/_stdin
 1576              		.file 8 "../../firmware/GD32VF103_standard_peripheral/system_gd32vf103.h"
 1577              		.file 9 "plant.h"
 1578              		.file 10 "../../firmware/GD32VF103_standard_peripheral/gd32vf103.h"
 1579              		.file 11 "menu.h"
 1580              		.file 12 "/Users/alexstrae/toolchain-gd32v-v202-osx/compiler/riscv64-unknown-elf/include/stdlib.h"
 1581              		.file 13 "lib/lcd/include/lcd.h"
 1582              		.file 14 "adc.h"
 1583              		.file 15 "../../firmware/GD32VF103_standard_peripheral/Include/gd32vf103_gpio.h"
 1584              		.file 16 "renderPlants.h"
GAS LISTING /var/folders/rt/4gvqv631095f64jvm7jfj_000000gn/T//cc2eS35f.s 			page 44


DEFINED SYMBOLS
                            *ABS*:0000000000000000 menu.c
/var/folders/rt/4gvqv631095f64jvm7jfj_000000gn/T//cc2eS35f.s:14     .text.pages:0000000000000000 pages
/var/folders/rt/4gvqv631095f64jvm7jfj_000000gn/T//cc2eS35f.s:18     .text.pages:0000000000000000 .L0 
/var/folders/rt/4gvqv631095f64jvm7jfj_000000gn/T//cc2eS35f.s:20     .text.pages:0000000000000000 .L0 
/var/folders/rt/4gvqv631095f64jvm7jfj_000000gn/T//cc2eS35f.s:21     .text.pages:0000000000000000 .L0 
/var/folders/rt/4gvqv631095f64jvm7jfj_000000gn/T//cc2eS35f.s:22     .text.pages:0000000000000000 .L0 
/var/folders/rt/4gvqv631095f64jvm7jfj_000000gn/T//cc2eS35f.s:23     .text.pages:0000000000000000 .L0 
/var/folders/rt/4gvqv631095f64jvm7jfj_000000gn/T//cc2eS35f.s:24     .text.pages:0000000000000000 .L0 
/var/folders/rt/4gvqv631095f64jvm7jfj_000000gn/T//cc2eS35f.s:25     .text.pages:0000000000000000 .L0 
/var/folders/rt/4gvqv631095f64jvm7jfj_000000gn/T//cc2eS35f.s:26     .text.pages:0000000000000000 .L0 
/var/folders/rt/4gvqv631095f64jvm7jfj_000000gn/T//cc2eS35f.s:35     .text.pages:0000000000000014 .L0 
/var/folders/rt/4gvqv631095f64jvm7jfj_000000gn/T//cc2eS35f.s:37     .text.pages:0000000000000016 .L0 
/var/folders/rt/4gvqv631095f64jvm7jfj_000000gn/T//cc2eS35f.s:44     .text.pages:0000000000000022 .L0 
/var/folders/rt/4gvqv631095f64jvm7jfj_000000gn/T//cc2eS35f.s:45     .text.pages:0000000000000022 .L0 
/var/folders/rt/4gvqv631095f64jvm7jfj_000000gn/T//cc2eS35f.s:46     .text.pages:0000000000000022 .L0 
/var/folders/rt/4gvqv631095f64jvm7jfj_000000gn/T//cc2eS35f.s:47     .text.pages:0000000000000022 .L0 
/var/folders/rt/4gvqv631095f64jvm7jfj_000000gn/T//cc2eS35f.s:48     .text.pages:0000000000000022 .L0 
/var/folders/rt/4gvqv631095f64jvm7jfj_000000gn/T//cc2eS35f.s:49     .text.pages:0000000000000022 .L0 
/var/folders/rt/4gvqv631095f64jvm7jfj_000000gn/T//cc2eS35f.s:53     .text.pages:0000000000000026 .L0 
/var/folders/rt/4gvqv631095f64jvm7jfj_000000gn/T//cc2eS35f.s:79     .text.pages:0000000000000028 .L0 
/var/folders/rt/4gvqv631095f64jvm7jfj_000000gn/T//cc2eS35f.s:83     .text.pages:0000000000000032 .L0 
/var/folders/rt/4gvqv631095f64jvm7jfj_000000gn/T//cc2eS35f.s:93     .text.pages:0000000000000044 .L0 
/var/folders/rt/4gvqv631095f64jvm7jfj_000000gn/T//cc2eS35f.s:94     .text.pages:0000000000000046 .L0 
/var/folders/rt/4gvqv631095f64jvm7jfj_000000gn/T//cc2eS35f.s:95     .text.pages:0000000000000046 .L0 
/var/folders/rt/4gvqv631095f64jvm7jfj_000000gn/T//cc2eS35f.s:97     .text.pages:0000000000000048 .L0 
/var/folders/rt/4gvqv631095f64jvm7jfj_000000gn/T//cc2eS35f.s:99     .text.pages:000000000000004a .L0 
/var/folders/rt/4gvqv631095f64jvm7jfj_000000gn/T//cc2eS35f.s:101    .text.pages:000000000000004c .L0 
/var/folders/rt/4gvqv631095f64jvm7jfj_000000gn/T//cc2eS35f.s:103    .text.pages:000000000000004e .L0 
/var/folders/rt/4gvqv631095f64jvm7jfj_000000gn/T//cc2eS35f.s:105    .text.pages:0000000000000050 .L0 
/var/folders/rt/4gvqv631095f64jvm7jfj_000000gn/T//cc2eS35f.s:108    .text.pages:0000000000000052 .L0 
/var/folders/rt/4gvqv631095f64jvm7jfj_000000gn/T//cc2eS35f.s:110    .text.pages:0000000000000052 .L0 
/var/folders/rt/4gvqv631095f64jvm7jfj_000000gn/T//cc2eS35f.s:114    .text.pages:000000000000005a .L0 
/var/folders/rt/4gvqv631095f64jvm7jfj_000000gn/T//cc2eS35f.s:116    .text.pages:000000000000005a .L0 
/var/folders/rt/4gvqv631095f64jvm7jfj_000000gn/T//cc2eS35f.s:119    .text.pages:000000000000005e .L0 
/var/folders/rt/4gvqv631095f64jvm7jfj_000000gn/T//cc2eS35f.s:122    .text.pages:0000000000000066 .L0 
/var/folders/rt/4gvqv631095f64jvm7jfj_000000gn/T//cc2eS35f.s:132    .text.pages:000000000000007e .L0 
/var/folders/rt/4gvqv631095f64jvm7jfj_000000gn/T//cc2eS35f.s:141    .text.pages:0000000000000098 .L0 
/var/folders/rt/4gvqv631095f64jvm7jfj_000000gn/T//cc2eS35f.s:142    .text.pages:0000000000000098 .L0 
/var/folders/rt/4gvqv631095f64jvm7jfj_000000gn/T//cc2eS35f.s:151    .text.pages:00000000000000b2 .L0 
/var/folders/rt/4gvqv631095f64jvm7jfj_000000gn/T//cc2eS35f.s:152    .text.pages:00000000000000b2 .L0 
/var/folders/rt/4gvqv631095f64jvm7jfj_000000gn/T//cc2eS35f.s:158    .text.pages:00000000000000c0 .L0 
/var/folders/rt/4gvqv631095f64jvm7jfj_000000gn/T//cc2eS35f.s:162    .text.pages:00000000000000c4 .L0 
/var/folders/rt/4gvqv631095f64jvm7jfj_000000gn/T//cc2eS35f.s:169    .text.pages:00000000000000d0 .L0 
/var/folders/rt/4gvqv631095f64jvm7jfj_000000gn/T//cc2eS35f.s:172    .text.pages:00000000000000d4 .L0 
/var/folders/rt/4gvqv631095f64jvm7jfj_000000gn/T//cc2eS35f.s:175    .text.pages:00000000000000dc .L0 
/var/folders/rt/4gvqv631095f64jvm7jfj_000000gn/T//cc2eS35f.s:185    .text.pages:00000000000000f4 .L0 
/var/folders/rt/4gvqv631095f64jvm7jfj_000000gn/T//cc2eS35f.s:186    .text.pages:00000000000000f4 .L0 
/var/folders/rt/4gvqv631095f64jvm7jfj_000000gn/T//cc2eS35f.s:187    .text.pages:00000000000000f4 .L0 
/var/folders/rt/4gvqv631095f64jvm7jfj_000000gn/T//cc2eS35f.s:190    .text.pages:00000000000000f6 .L0 
/var/folders/rt/4gvqv631095f64jvm7jfj_000000gn/T//cc2eS35f.s:195    .text.pages:00000000000000fc .L0 
/var/folders/rt/4gvqv631095f64jvm7jfj_000000gn/T//cc2eS35f.s:201    .text.pages:0000000000000102 .L0 
/var/folders/rt/4gvqv631095f64jvm7jfj_000000gn/T//cc2eS35f.s:207    .text.pages:0000000000000108 .L0 
/var/folders/rt/4gvqv631095f64jvm7jfj_000000gn/T//cc2eS35f.s:216    .text.pages:0000000000000118 .L0 
/var/folders/rt/4gvqv631095f64jvm7jfj_000000gn/T//cc2eS35f.s:226    .text.pages:0000000000000132 .L0 
/var/folders/rt/4gvqv631095f64jvm7jfj_000000gn/T//cc2eS35f.s:227    .text.pages:0000000000000132 .L0 
/var/folders/rt/4gvqv631095f64jvm7jfj_000000gn/T//cc2eS35f.s:230    .text.pages:0000000000000134 .L0 
GAS LISTING /var/folders/rt/4gvqv631095f64jvm7jfj_000000gn/T//cc2eS35f.s 			page 45


/var/folders/rt/4gvqv631095f64jvm7jfj_000000gn/T//cc2eS35f.s:238    .text.pages:0000000000000148 .L0 
/var/folders/rt/4gvqv631095f64jvm7jfj_000000gn/T//cc2eS35f.s:243    .text.pages:000000000000014a .L0 
/var/folders/rt/4gvqv631095f64jvm7jfj_000000gn/T//cc2eS35f.s:246    .text.pages:000000000000014e .L0 
/var/folders/rt/4gvqv631095f64jvm7jfj_000000gn/T//cc2eS35f.s:249    .text.pages:0000000000000156 .L0 
/var/folders/rt/4gvqv631095f64jvm7jfj_000000gn/T//cc2eS35f.s:259    .text.pages:000000000000016e .L0 
/var/folders/rt/4gvqv631095f64jvm7jfj_000000gn/T//cc2eS35f.s:265    .text.pages:000000000000017c .L0 
/var/folders/rt/4gvqv631095f64jvm7jfj_000000gn/T//cc2eS35f.s:270    .text.pages:0000000000000188 .L0 
/var/folders/rt/4gvqv631095f64jvm7jfj_000000gn/T//cc2eS35f.s:271    .text.pages:0000000000000188 .L0 
/var/folders/rt/4gvqv631095f64jvm7jfj_000000gn/T//cc2eS35f.s:277    .text.pages:0000000000000196 .L0 
/var/folders/rt/4gvqv631095f64jvm7jfj_000000gn/T//cc2eS35f.s:282    .text.pages:000000000000019a .L0 
/var/folders/rt/4gvqv631095f64jvm7jfj_000000gn/T//cc2eS35f.s:285    .text.pages:000000000000019e .L0 
/var/folders/rt/4gvqv631095f64jvm7jfj_000000gn/T//cc2eS35f.s:288    .text.pages:00000000000001a6 .L0 
/var/folders/rt/4gvqv631095f64jvm7jfj_000000gn/T//cc2eS35f.s:298    .text.pages:00000000000001be .L0 
/var/folders/rt/4gvqv631095f64jvm7jfj_000000gn/T//cc2eS35f.s:306    .text.pages:00000000000001ce .L0 
/var/folders/rt/4gvqv631095f64jvm7jfj_000000gn/T//cc2eS35f.s:309    .text.pages:00000000000001d2 .L0 
/var/folders/rt/4gvqv631095f64jvm7jfj_000000gn/T//cc2eS35f.s:312    .text.pages:00000000000001da .L0 
/var/folders/rt/4gvqv631095f64jvm7jfj_000000gn/T//cc2eS35f.s:322    .text.pages:00000000000001f2 .L0 
/var/folders/rt/4gvqv631095f64jvm7jfj_000000gn/T//cc2eS35f.s:331    .text.pages:000000000000020c .L0 
/var/folders/rt/4gvqv631095f64jvm7jfj_000000gn/T//cc2eS35f.s:332    .text.pages:000000000000020c .L0 
/var/folders/rt/4gvqv631095f64jvm7jfj_000000gn/T//cc2eS35f.s:340    .text.pages:000000000000021c .L0 
/var/folders/rt/4gvqv631095f64jvm7jfj_000000gn/T//cc2eS35f.s:343    .text.pages:0000000000000220 .L0 
/var/folders/rt/4gvqv631095f64jvm7jfj_000000gn/T//cc2eS35f.s:346    .text.pages:0000000000000228 .L0 
/var/folders/rt/4gvqv631095f64jvm7jfj_000000gn/T//cc2eS35f.s:356    .text.pages:0000000000000240 .L0 
/var/folders/rt/4gvqv631095f64jvm7jfj_000000gn/T//cc2eS35f.s:365    .text.pages:000000000000025a .L0 
/var/folders/rt/4gvqv631095f64jvm7jfj_000000gn/T//cc2eS35f.s:366    .text.pages:000000000000025a .L0 
/var/folders/rt/4gvqv631095f64jvm7jfj_000000gn/T//cc2eS35f.s:375    .text.pages:0000000000000274 .L0 
/var/folders/rt/4gvqv631095f64jvm7jfj_000000gn/T//cc2eS35f.s:376    .text.pages:0000000000000274 .L0 
/var/folders/rt/4gvqv631095f64jvm7jfj_000000gn/T//cc2eS35f.s:384    .text.pages:0000000000000284 .L0 
/var/folders/rt/4gvqv631095f64jvm7jfj_000000gn/T//cc2eS35f.s:388    .text.pages:000000000000028e .L0 
/var/folders/rt/4gvqv631095f64jvm7jfj_000000gn/T//cc2eS35f.s:398    .text.pages:00000000000002aa .L0 
/var/folders/rt/4gvqv631095f64jvm7jfj_000000gn/T//cc2eS35f.s:399    .text.pages:00000000000002aa .L0 
/var/folders/rt/4gvqv631095f64jvm7jfj_000000gn/T//cc2eS35f.s:408    .text.pages:00000000000002c6 .L0 
/var/folders/rt/4gvqv631095f64jvm7jfj_000000gn/T//cc2eS35f.s:428    .text.pages:00000000000002f6 .L0 
/var/folders/rt/4gvqv631095f64jvm7jfj_000000gn/T//cc2eS35f.s:432    .text.pages:00000000000002fe .L0 
/var/folders/rt/4gvqv631095f64jvm7jfj_000000gn/T//cc2eS35f.s:433    .text.pages:00000000000002fe .L0 
/var/folders/rt/4gvqv631095f64jvm7jfj_000000gn/T//cc2eS35f.s:434    .text.pages:0000000000000300 .L0 
/var/folders/rt/4gvqv631095f64jvm7jfj_000000gn/T//cc2eS35f.s:435    .text.pages:0000000000000300 .L0 
/var/folders/rt/4gvqv631095f64jvm7jfj_000000gn/T//cc2eS35f.s:437    .text.pages:0000000000000302 .L0 
/var/folders/rt/4gvqv631095f64jvm7jfj_000000gn/T//cc2eS35f.s:440    .text.pages:0000000000000304 .L0 
/var/folders/rt/4gvqv631095f64jvm7jfj_000000gn/T//cc2eS35f.s:443    .text.pages:0000000000000306 .L0 
/var/folders/rt/4gvqv631095f64jvm7jfj_000000gn/T//cc2eS35f.s:445    .text.pages:0000000000000308 .L0 
/var/folders/rt/4gvqv631095f64jvm7jfj_000000gn/T//cc2eS35f.s:447    .text.pages:000000000000030a .L0 
/var/folders/rt/4gvqv631095f64jvm7jfj_000000gn/T//cc2eS35f.s:450    .text.pages:000000000000030c .L0 
/var/folders/rt/4gvqv631095f64jvm7jfj_000000gn/T//cc2eS35f.s:455    .text.pages:000000000000030e .L0 
/var/folders/rt/4gvqv631095f64jvm7jfj_000000gn/T//cc2eS35f.s:457    .text.pages:000000000000030e .L0 
/var/folders/rt/4gvqv631095f64jvm7jfj_000000gn/T//cc2eS35f.s:461    .text.pages:0000000000000318 .L0 
/var/folders/rt/4gvqv631095f64jvm7jfj_000000gn/T//cc2eS35f.s:471    .text.pages:0000000000000334 .L0 
/var/folders/rt/4gvqv631095f64jvm7jfj_000000gn/T//cc2eS35f.s:472    .text.pages:0000000000000334 .L0 
/var/folders/rt/4gvqv631095f64jvm7jfj_000000gn/T//cc2eS35f.s:481    .text.pages:0000000000000350 .L0 
/var/folders/rt/4gvqv631095f64jvm7jfj_000000gn/T//cc2eS35f.s:501    .text.pages:000000000000037e .L0 
/var/folders/rt/4gvqv631095f64jvm7jfj_000000gn/T//cc2eS35f.s:505    .text.pages:0000000000000388 .L0 
/var/folders/rt/4gvqv631095f64jvm7jfj_000000gn/T//cc2eS35f.s:515    .text.pages:00000000000003a4 .L0 
/var/folders/rt/4gvqv631095f64jvm7jfj_000000gn/T//cc2eS35f.s:516    .text.pages:00000000000003a4 .L0 
/var/folders/rt/4gvqv631095f64jvm7jfj_000000gn/T//cc2eS35f.s:525    .text.pages:00000000000003be .L0 
/var/folders/rt/4gvqv631095f64jvm7jfj_000000gn/T//cc2eS35f.s:526    .text.pages:00000000000003be .L0 
/var/folders/rt/4gvqv631095f64jvm7jfj_000000gn/T//cc2eS35f.s:535    .text.pages:00000000000003da .L0 
/var/folders/rt/4gvqv631095f64jvm7jfj_000000gn/T//cc2eS35f.s:556    .text.pages:000000000000040e .L0 
GAS LISTING /var/folders/rt/4gvqv631095f64jvm7jfj_000000gn/T//cc2eS35f.s 			page 46


/var/folders/rt/4gvqv631095f64jvm7jfj_000000gn/T//cc2eS35f.s:559    .text.pages:0000000000000412 .L0 
/var/folders/rt/4gvqv631095f64jvm7jfj_000000gn/T//cc2eS35f.s:562    .text.pages:000000000000041a .L0 
/var/folders/rt/4gvqv631095f64jvm7jfj_000000gn/T//cc2eS35f.s:572    .text.pages:0000000000000432 .L0 
/var/folders/rt/4gvqv631095f64jvm7jfj_000000gn/T//cc2eS35f.s:581    .text.pages:0000000000000444 .L0 
/var/folders/rt/4gvqv631095f64jvm7jfj_000000gn/T//cc2eS35f.s:584    .text.pages:0000000000000448 .L0 
/var/folders/rt/4gvqv631095f64jvm7jfj_000000gn/T//cc2eS35f.s:587    .text.pages:0000000000000450 .L0 
/var/folders/rt/4gvqv631095f64jvm7jfj_000000gn/T//cc2eS35f.s:597    .text.pages:0000000000000468 .L0 
/var/folders/rt/4gvqv631095f64jvm7jfj_000000gn/T//cc2eS35f.s:606    .text.pages:0000000000000482 .L0 
/var/folders/rt/4gvqv631095f64jvm7jfj_000000gn/T//cc2eS35f.s:607    .text.pages:0000000000000482 .L0 
/var/folders/rt/4gvqv631095f64jvm7jfj_000000gn/T//cc2eS35f.s:614    .text.pages:0000000000000496 .L0 
/var/folders/rt/4gvqv631095f64jvm7jfj_000000gn/T//cc2eS35f.s:615    .text.pages:0000000000000496 .L0 
/var/folders/rt/4gvqv631095f64jvm7jfj_000000gn/T//cc2eS35f.s:616    .text.pages:0000000000000496 .L0 
/var/folders/rt/4gvqv631095f64jvm7jfj_000000gn/T//cc2eS35f.s:624    .text.pages:00000000000004a0 .L0 
/var/folders/rt/4gvqv631095f64jvm7jfj_000000gn/T//cc2eS35f.s:628    .text.pages:00000000000004a8 .L0 
/var/folders/rt/4gvqv631095f64jvm7jfj_000000gn/T//cc2eS35f.s:630    .text.pages:00000000000004a8 .L0 
/var/folders/rt/4gvqv631095f64jvm7jfj_000000gn/T//cc2eS35f.s:631    .text.pages:00000000000004a8 .L0 
/var/folders/rt/4gvqv631095f64jvm7jfj_000000gn/T//cc2eS35f.s:632    .text.pages:00000000000004a8 .L0 
/var/folders/rt/4gvqv631095f64jvm7jfj_000000gn/T//cc2eS35f.s:637    .text.pages:00000000000004b2 .L0 
/var/folders/rt/4gvqv631095f64jvm7jfj_000000gn/T//cc2eS35f.s:641    .text.pages:00000000000004bc .L0 
/var/folders/rt/4gvqv631095f64jvm7jfj_000000gn/T//cc2eS35f.s:645    .text.pages:00000000000004c6 .L0 
/var/folders/rt/4gvqv631095f64jvm7jfj_000000gn/T//cc2eS35f.s:646    .text.pages:00000000000004c6 .L0 
/var/folders/rt/4gvqv631095f64jvm7jfj_000000gn/T//cc2eS35f.s:650    .text.pages:00000000000004d0 .L0 
/var/folders/rt/4gvqv631095f64jvm7jfj_000000gn/T//cc2eS35f.s:654    .text.pages:00000000000004d4 .L0 
/var/folders/rt/4gvqv631095f64jvm7jfj_000000gn/T//cc2eS35f.s:657    .text.pages:00000000000004d6 .L0 
/var/folders/rt/4gvqv631095f64jvm7jfj_000000gn/T//cc2eS35f.s:665    .text.pages:00000000000004ea .L0 
/var/folders/rt/4gvqv631095f64jvm7jfj_000000gn/T//cc2eS35f.s:674    .text.pages:0000000000000504 .L0 
/var/folders/rt/4gvqv631095f64jvm7jfj_000000gn/T//cc2eS35f.s:682    .text.pages:000000000000051a .L0 
/var/folders/rt/4gvqv631095f64jvm7jfj_000000gn/T//cc2eS35f.s:683    .text.pages:000000000000051a .L0 
/var/folders/rt/4gvqv631095f64jvm7jfj_000000gn/T//cc2eS35f.s:687    .text.pages:0000000000000524 .L0 
/var/folders/rt/4gvqv631095f64jvm7jfj_000000gn/T//cc2eS35f.s:688    .text.pages:0000000000000524 .L0 
/var/folders/rt/4gvqv631095f64jvm7jfj_000000gn/T//cc2eS35f.s:692    .text.pages:000000000000052e .L0 
/var/folders/rt/4gvqv631095f64jvm7jfj_000000gn/T//cc2eS35f.s:694    .text.pages:0000000000000532 .L0 
/var/folders/rt/4gvqv631095f64jvm7jfj_000000gn/T//cc2eS35f.s:697    .text.pages:0000000000000534 .L0 
/var/folders/rt/4gvqv631095f64jvm7jfj_000000gn/T//cc2eS35f.s:706    .text.pages:000000000000054a .L0 
/var/folders/rt/4gvqv631095f64jvm7jfj_000000gn/T//cc2eS35f.s:714    .text.pages:0000000000000560 .L0 
/var/folders/rt/4gvqv631095f64jvm7jfj_000000gn/T//cc2eS35f.s:715    .text.pages:0000000000000560 .L0 
/var/folders/rt/4gvqv631095f64jvm7jfj_000000gn/T//cc2eS35f.s:724    .text.pages:000000000000057c .L0 
/var/folders/rt/4gvqv631095f64jvm7jfj_000000gn/T//cc2eS35f.s:735    .text.pages:000000000000059e .L0 
/var/folders/rt/4gvqv631095f64jvm7jfj_000000gn/T//cc2eS35f.s:743    .text.pages:00000000000005b8 .L0 
/var/folders/rt/4gvqv631095f64jvm7jfj_000000gn/T//cc2eS35f.s:748    .text.pages:00000000000005ba .L0 
/var/folders/rt/4gvqv631095f64jvm7jfj_000000gn/T//cc2eS35f.s:752    .text.pages:00000000000005c4 .L0 
/var/folders/rt/4gvqv631095f64jvm7jfj_000000gn/T//cc2eS35f.s:760    .text.pages:00000000000005d2 .L0 
/var/folders/rt/4gvqv631095f64jvm7jfj_000000gn/T//cc2eS35f.s:763    .text.pages:00000000000005d6 .L0 
/var/folders/rt/4gvqv631095f64jvm7jfj_000000gn/T//cc2eS35f.s:766    .text.pages:00000000000005de .L0 
/var/folders/rt/4gvqv631095f64jvm7jfj_000000gn/T//cc2eS35f.s:776    .text.pages:00000000000005f6 .L0 
/var/folders/rt/4gvqv631095f64jvm7jfj_000000gn/T//cc2eS35f.s:785    .text.pages:0000000000000610 .L0 
/var/folders/rt/4gvqv631095f64jvm7jfj_000000gn/T//cc2eS35f.s:786    .text.pages:0000000000000610 .L0 
/var/folders/rt/4gvqv631095f64jvm7jfj_000000gn/T//cc2eS35f.s:794    .text.pages:0000000000000620 .L0 
/var/folders/rt/4gvqv631095f64jvm7jfj_000000gn/T//cc2eS35f.s:795    .text.pages:0000000000000620 .L0 
/var/folders/rt/4gvqv631095f64jvm7jfj_000000gn/T//cc2eS35f.s:796    .text.pages:0000000000000620 .L0 
/var/folders/rt/4gvqv631095f64jvm7jfj_000000gn/T//cc2eS35f.s:797    .text.pages:0000000000000620 .L0 
/var/folders/rt/4gvqv631095f64jvm7jfj_000000gn/T//cc2eS35f.s:798    .text.pages:0000000000000620 .L0 
/var/folders/rt/4gvqv631095f64jvm7jfj_000000gn/T//cc2eS35f.s:799    .text.pages:0000000000000620 .L0 
/var/folders/rt/4gvqv631095f64jvm7jfj_000000gn/T//cc2eS35f.s:800    .text.pages:0000000000000620 .L0 
/var/folders/rt/4gvqv631095f64jvm7jfj_000000gn/T//cc2eS35f.s:802    .text.pages:0000000000000622 .L0 
/var/folders/rt/4gvqv631095f64jvm7jfj_000000gn/T//cc2eS35f.s:809    .text.move_pointer:0000000000000000 move_pointer
/var/folders/rt/4gvqv631095f64jvm7jfj_000000gn/T//cc2eS35f.s:812    .text.move_pointer:0000000000000000 .L0 
GAS LISTING /var/folders/rt/4gvqv631095f64jvm7jfj_000000gn/T//cc2eS35f.s 			page 47


/var/folders/rt/4gvqv631095f64jvm7jfj_000000gn/T//cc2eS35f.s:814    .text.move_pointer:0000000000000000 .L0 
/var/folders/rt/4gvqv631095f64jvm7jfj_000000gn/T//cc2eS35f.s:815    .text.move_pointer:0000000000000000 .L0 
/var/folders/rt/4gvqv631095f64jvm7jfj_000000gn/T//cc2eS35f.s:816    .text.move_pointer:0000000000000000 .L0 
/var/folders/rt/4gvqv631095f64jvm7jfj_000000gn/T//cc2eS35f.s:818    .text.move_pointer:0000000000000002 .L0 
/var/folders/rt/4gvqv631095f64jvm7jfj_000000gn/T//cc2eS35f.s:820    .text.move_pointer:0000000000000004 .L0 
/var/folders/rt/4gvqv631095f64jvm7jfj_000000gn/T//cc2eS35f.s:823    .text.move_pointer:0000000000000008 .L0 
/var/folders/rt/4gvqv631095f64jvm7jfj_000000gn/T//cc2eS35f.s:824    .text.move_pointer:0000000000000008 .L0 
/var/folders/rt/4gvqv631095f64jvm7jfj_000000gn/T//cc2eS35f.s:826    .text.move_pointer:0000000000000008 .L0 
/var/folders/rt/4gvqv631095f64jvm7jfj_000000gn/T//cc2eS35f.s:829    .text.move_pointer:000000000000000c .L0 
/var/folders/rt/4gvqv631095f64jvm7jfj_000000gn/T//cc2eS35f.s:833    .text.move_pointer:0000000000000016 .L0 
/var/folders/rt/4gvqv631095f64jvm7jfj_000000gn/T//cc2eS35f.s:834    .text.move_pointer:0000000000000018 .L0 
/var/folders/rt/4gvqv631095f64jvm7jfj_000000gn/T//cc2eS35f.s:835    .text.move_pointer:0000000000000018 .L0 
/var/folders/rt/4gvqv631095f64jvm7jfj_000000gn/T//cc2eS35f.s:837    .text.move_pointer:000000000000001a .L0 
/var/folders/rt/4gvqv631095f64jvm7jfj_000000gn/T//cc2eS35f.s:840    .text.move_pointer:000000000000001c .L0 
/var/folders/rt/4gvqv631095f64jvm7jfj_000000gn/T//cc2eS35f.s:845    .text.move_pointer:000000000000001e .L0 
/var/folders/rt/4gvqv631095f64jvm7jfj_000000gn/T//cc2eS35f.s:849    .text.move_pointer:000000000000001e .L0 
/var/folders/rt/4gvqv631095f64jvm7jfj_000000gn/T//cc2eS35f.s:850    .text.move_pointer:000000000000001e .L0 
/var/folders/rt/4gvqv631095f64jvm7jfj_000000gn/T//cc2eS35f.s:853    .text.move_pointer:0000000000000020 .L0 
/var/folders/rt/4gvqv631095f64jvm7jfj_000000gn/T//cc2eS35f.s:861    .text.move_pointer:0000000000000032 .L0 
/var/folders/rt/4gvqv631095f64jvm7jfj_000000gn/T//cc2eS35f.s:862    .text.move_pointer:0000000000000032 .L0 
/var/folders/rt/4gvqv631095f64jvm7jfj_000000gn/T//cc2eS35f.s:869    .text.move_pointer:0000000000000036 .L0 
/var/folders/rt/4gvqv631095f64jvm7jfj_000000gn/T//cc2eS35f.s:871    .text.move_pointer:0000000000000038 .L0 
/var/folders/rt/4gvqv631095f64jvm7jfj_000000gn/T//cc2eS35f.s:872    .text.move_pointer:0000000000000038 .L0 
/var/folders/rt/4gvqv631095f64jvm7jfj_000000gn/T//cc2eS35f.s:873    .text.move_pointer:000000000000003a .L0 
/var/folders/rt/4gvqv631095f64jvm7jfj_000000gn/T//cc2eS35f.s:874    .text.move_pointer:000000000000003a .L0 
/var/folders/rt/4gvqv631095f64jvm7jfj_000000gn/T//cc2eS35f.s:877    .text.move_pointer:000000000000003c .L0 
/var/folders/rt/4gvqv631095f64jvm7jfj_000000gn/T//cc2eS35f.s:879    .text.move_pointer:000000000000003c .L0 
/var/folders/rt/4gvqv631095f64jvm7jfj_000000gn/T//cc2eS35f.s:881    .text.move_pointer:000000000000003e .L0 
/var/folders/rt/4gvqv631095f64jvm7jfj_000000gn/T//cc2eS35f.s:882    .text.move_pointer:000000000000003e .L0 
/var/folders/rt/4gvqv631095f64jvm7jfj_000000gn/T//cc2eS35f.s:887    .text.move_pointer:0000000000000048 .L0 
/var/folders/rt/4gvqv631095f64jvm7jfj_000000gn/T//cc2eS35f.s:889    .text.move_pointer:000000000000004a .L0 
/var/folders/rt/4gvqv631095f64jvm7jfj_000000gn/T//cc2eS35f.s:891    .text.move_pointer:000000000000004a .L0 
/var/folders/rt/4gvqv631095f64jvm7jfj_000000gn/T//cc2eS35f.s:895    .text.move_pointer:0000000000000052 .L0 
/var/folders/rt/4gvqv631095f64jvm7jfj_000000gn/T//cc2eS35f.s:897    .text.move_pointer:0000000000000052 .L0 
/var/folders/rt/4gvqv631095f64jvm7jfj_000000gn/T//cc2eS35f.s:898    .text.move_pointer:0000000000000052 .L0 
/var/folders/rt/4gvqv631095f64jvm7jfj_000000gn/T//cc2eS35f.s:901    .text.move_pointer:0000000000000054 .L0 
/var/folders/rt/4gvqv631095f64jvm7jfj_000000gn/T//cc2eS35f.s:909    .text.move_pointer:0000000000000066 .L0 
/var/folders/rt/4gvqv631095f64jvm7jfj_000000gn/T//cc2eS35f.s:910    .text.move_pointer:0000000000000066 .L0 
/var/folders/rt/4gvqv631095f64jvm7jfj_000000gn/T//cc2eS35f.s:916    .text.move_pointer:000000000000006c .L0 
/var/folders/rt/4gvqv631095f64jvm7jfj_000000gn/T//cc2eS35f.s:917    .text.move_pointer:000000000000006c .L0 
/var/folders/rt/4gvqv631095f64jvm7jfj_000000gn/T//cc2eS35f.s:918    .text.move_pointer:000000000000006c .L0 
/var/folders/rt/4gvqv631095f64jvm7jfj_000000gn/T//cc2eS35f.s:920    .text.move_pointer:000000000000006e .L0 
/var/folders/rt/4gvqv631095f64jvm7jfj_000000gn/T//cc2eS35f.s:927    .text.which_page:0000000000000000 which_page
/var/folders/rt/4gvqv631095f64jvm7jfj_000000gn/T//cc2eS35f.s:930    .text.which_page:0000000000000000 .L0 
/var/folders/rt/4gvqv631095f64jvm7jfj_000000gn/T//cc2eS35f.s:932    .text.which_page:0000000000000000 .L0 
/var/folders/rt/4gvqv631095f64jvm7jfj_000000gn/T//cc2eS35f.s:933    .text.which_page:0000000000000000 .L0 
/var/folders/rt/4gvqv631095f64jvm7jfj_000000gn/T//cc2eS35f.s:934    .text.which_page:0000000000000000 .L0 
/var/folders/rt/4gvqv631095f64jvm7jfj_000000gn/T//cc2eS35f.s:935    .text.which_page:0000000000000000 .L0 
/var/folders/rt/4gvqv631095f64jvm7jfj_000000gn/T//cc2eS35f.s:936    .text.which_page:0000000000000000 .L0 
/var/folders/rt/4gvqv631095f64jvm7jfj_000000gn/T//cc2eS35f.s:937    .text.which_page:0000000000000000 .L0 
/var/folders/rt/4gvqv631095f64jvm7jfj_000000gn/T//cc2eS35f.s:940    .text.which_page:0000000000000006 .L0 
/var/folders/rt/4gvqv631095f64jvm7jfj_000000gn/T//cc2eS35f.s:941    .text.which_page:0000000000000006 .L0 
/var/folders/rt/4gvqv631095f64jvm7jfj_000000gn/T//cc2eS35f.s:943    .text.which_page:0000000000000008 .L0 
/var/folders/rt/4gvqv631095f64jvm7jfj_000000gn/T//cc2eS35f.s:945    .text.which_page:000000000000000a .L0 
/var/folders/rt/4gvqv631095f64jvm7jfj_000000gn/T//cc2eS35f.s:947    .text.which_page:000000000000000e .L0 
/var/folders/rt/4gvqv631095f64jvm7jfj_000000gn/T//cc2eS35f.s:948    .text.which_page:000000000000000e .L0 
/var/folders/rt/4gvqv631095f64jvm7jfj_000000gn/T//cc2eS35f.s:950    .text.which_page:0000000000000012 .L0 
GAS LISTING /var/folders/rt/4gvqv631095f64jvm7jfj_000000gn/T//cc2eS35f.s 			page 48


/var/folders/rt/4gvqv631095f64jvm7jfj_000000gn/T//cc2eS35f.s:952    .text.which_page:0000000000000014 .L0 
/var/folders/rt/4gvqv631095f64jvm7jfj_000000gn/T//cc2eS35f.s:954    .text.which_page:0000000000000018 .L0 
/var/folders/rt/4gvqv631095f64jvm7jfj_000000gn/T//cc2eS35f.s:955    .text.which_page:0000000000000018 .L0 
/var/folders/rt/4gvqv631095f64jvm7jfj_000000gn/T//cc2eS35f.s:957    .text.which_page:000000000000001c .L0 
/var/folders/rt/4gvqv631095f64jvm7jfj_000000gn/T//cc2eS35f.s:959    .text.which_page:000000000000001e .L0 
/var/folders/rt/4gvqv631095f64jvm7jfj_000000gn/T//cc2eS35f.s:961    .text.which_page:0000000000000022 .L0 
/var/folders/rt/4gvqv631095f64jvm7jfj_000000gn/T//cc2eS35f.s:962    .text.which_page:0000000000000022 .L0 
/var/folders/rt/4gvqv631095f64jvm7jfj_000000gn/T//cc2eS35f.s:964    .text.which_page:0000000000000026 .L0 
/var/folders/rt/4gvqv631095f64jvm7jfj_000000gn/T//cc2eS35f.s:966    .text.which_page:0000000000000028 .L0 
/var/folders/rt/4gvqv631095f64jvm7jfj_000000gn/T//cc2eS35f.s:968    .text.which_page:000000000000002c .L0 
/var/folders/rt/4gvqv631095f64jvm7jfj_000000gn/T//cc2eS35f.s:972    .text.which_page:000000000000002e .L0 
/var/folders/rt/4gvqv631095f64jvm7jfj_000000gn/T//cc2eS35f.s:973    .text.which_page:000000000000002e .L0 
/var/folders/rt/4gvqv631095f64jvm7jfj_000000gn/T//cc2eS35f.s:978    .text.which_page:0000000000000036 .L0 
/var/folders/rt/4gvqv631095f64jvm7jfj_000000gn/T//cc2eS35f.s:979    .text.which_page:0000000000000036 .L0 
/var/folders/rt/4gvqv631095f64jvm7jfj_000000gn/T//cc2eS35f.s:984    .text.which_page:000000000000003e .L0 
/var/folders/rt/4gvqv631095f64jvm7jfj_000000gn/T//cc2eS35f.s:985    .text.which_page:000000000000003e .L0 
/var/folders/rt/4gvqv631095f64jvm7jfj_000000gn/T//cc2eS35f.s:989    .text.which_page:0000000000000046 .L0 
/var/folders/rt/4gvqv631095f64jvm7jfj_000000gn/T//cc2eS35f.s:990    .text.which_page:0000000000000046 .L0 
/var/folders/rt/4gvqv631095f64jvm7jfj_000000gn/T//cc2eS35f.s:1024   .text.which_page:000000000000005e .L0 
/var/folders/rt/4gvqv631095f64jvm7jfj_000000gn/T//cc2eS35f.s:1029   .text.which_page:0000000000000062 .L0 
/var/folders/rt/4gvqv631095f64jvm7jfj_000000gn/T//cc2eS35f.s:1035   .text.which_page:0000000000000066 .L0 
/var/folders/rt/4gvqv631095f64jvm7jfj_000000gn/T//cc2eS35f.s:1039   .text.which_page:0000000000000068 .L0 
/var/folders/rt/4gvqv631095f64jvm7jfj_000000gn/T//cc2eS35f.s:1041   .text.which_page:000000000000006a .L0 
/var/folders/rt/4gvqv631095f64jvm7jfj_000000gn/T//cc2eS35f.s:1052   .text.which_page:0000000000000080 .L0 
/var/folders/rt/4gvqv631095f64jvm7jfj_000000gn/T//cc2eS35f.s:1056   .text.which_page:0000000000000082 .L0 
/var/folders/rt/4gvqv631095f64jvm7jfj_000000gn/T//cc2eS35f.s:1057   .text.which_page:0000000000000082 .L0 
/var/folders/rt/4gvqv631095f64jvm7jfj_000000gn/T//cc2eS35f.s:1059   .text.which_page:0000000000000084 .L0 
/var/folders/rt/4gvqv631095f64jvm7jfj_000000gn/T//cc2eS35f.s:1067   .text.which_page:0000000000000094 .L0 
/var/folders/rt/4gvqv631095f64jvm7jfj_000000gn/T//cc2eS35f.s:1071   .text.which_page:0000000000000096 .L0 
/var/folders/rt/4gvqv631095f64jvm7jfj_000000gn/T//cc2eS35f.s:1072   .text.which_page:0000000000000096 .L0 
/var/folders/rt/4gvqv631095f64jvm7jfj_000000gn/T//cc2eS35f.s:1074   .text.which_page:0000000000000098 .L0 
/var/folders/rt/4gvqv631095f64jvm7jfj_000000gn/T//cc2eS35f.s:1082   .text.which_page:00000000000000a8 .L0 
/var/folders/rt/4gvqv631095f64jvm7jfj_000000gn/T//cc2eS35f.s:1086   .text.which_page:00000000000000aa .L0 
/var/folders/rt/4gvqv631095f64jvm7jfj_000000gn/T//cc2eS35f.s:1087   .text.which_page:00000000000000aa .L0 
/var/folders/rt/4gvqv631095f64jvm7jfj_000000gn/T//cc2eS35f.s:1089   .text.which_page:00000000000000ac .L0 
                .sdata2.CSWTCH.87:0000000000000000 CSWTCH.88
/var/folders/rt/4gvqv631095f64jvm7jfj_000000gn/T//cc2eS35f.s:1097   .text.which_page:00000000000000bc .L0 
/var/folders/rt/4gvqv631095f64jvm7jfj_000000gn/T//cc2eS35f.s:1101   .text.which_page:00000000000000be .L0 
/var/folders/rt/4gvqv631095f64jvm7jfj_000000gn/T//cc2eS35f.s:1102   .text.which_page:00000000000000be .L0 
/var/folders/rt/4gvqv631095f64jvm7jfj_000000gn/T//cc2eS35f.s:1104   .text.which_page:00000000000000c0 .L0 
                .sdata2.CSWTCH.87:0000000000000000 CSWTCH.89
/var/folders/rt/4gvqv631095f64jvm7jfj_000000gn/T//cc2eS35f.s:1112   .text.which_page:00000000000000d0 .L0 
/var/folders/rt/4gvqv631095f64jvm7jfj_000000gn/T//cc2eS35f.s:1116   .text.which_page:00000000000000d2 .L0 
/var/folders/rt/4gvqv631095f64jvm7jfj_000000gn/T//cc2eS35f.s:1117   .text.which_page:00000000000000d2 .L0 
/var/folders/rt/4gvqv631095f64jvm7jfj_000000gn/T//cc2eS35f.s:1119   .text.which_page:00000000000000d4 .L0 
/var/folders/rt/4gvqv631095f64jvm7jfj_000000gn/T//cc2eS35f.s:1127   .text.which_page:00000000000000e4 .L0 
/var/folders/rt/4gvqv631095f64jvm7jfj_000000gn/T//cc2eS35f.s:1131   .text.which_page:00000000000000e6 .L0 
/var/folders/rt/4gvqv631095f64jvm7jfj_000000gn/T//cc2eS35f.s:1132   .text.which_page:00000000000000e6 .L0 
/var/folders/rt/4gvqv631095f64jvm7jfj_000000gn/T//cc2eS35f.s:1134   .text.which_page:00000000000000e8 .L0 
/var/folders/rt/4gvqv631095f64jvm7jfj_000000gn/T//cc2eS35f.s:1142   .text.which_page:00000000000000f8 .L0 
/var/folders/rt/4gvqv631095f64jvm7jfj_000000gn/T//cc2eS35f.s:1146   .text.which_page:00000000000000fa .L0 
/var/folders/rt/4gvqv631095f64jvm7jfj_000000gn/T//cc2eS35f.s:1147   .text.which_page:00000000000000fa .L0 
/var/folders/rt/4gvqv631095f64jvm7jfj_000000gn/T//cc2eS35f.s:1153   .text.which_page:0000000000000108 .L0 
/var/folders/rt/4gvqv631095f64jvm7jfj_000000gn/T//cc2eS35f.s:1154   .text.which_page:0000000000000108 .L0 
/var/folders/rt/4gvqv631095f64jvm7jfj_000000gn/T//cc2eS35f.s:1155   .text.which_page:0000000000000108 .L0 
/var/folders/rt/4gvqv631095f64jvm7jfj_000000gn/T//cc2eS35f.s:1159   .text.which_page:000000000000010a .L0 
/var/folders/rt/4gvqv631095f64jvm7jfj_000000gn/T//cc2eS35f.s:1165   .text.which_page:000000000000010e .L0 
GAS LISTING /var/folders/rt/4gvqv631095f64jvm7jfj_000000gn/T//cc2eS35f.s 			page 49


/var/folders/rt/4gvqv631095f64jvm7jfj_000000gn/T//cc2eS35f.s:1170   .text.which_page:0000000000000112 .L0 
/var/folders/rt/4gvqv631095f64jvm7jfj_000000gn/T//cc2eS35f.s:1174   .text.which_page:0000000000000114 .L0 
/var/folders/rt/4gvqv631095f64jvm7jfj_000000gn/T//cc2eS35f.s:1209   .text.which_page:000000000000012a .L0 
/var/folders/rt/4gvqv631095f64jvm7jfj_000000gn/T//cc2eS35f.s:1215   .text.which_page:000000000000012e .L0 
/var/folders/rt/4gvqv631095f64jvm7jfj_000000gn/T//cc2eS35f.s:1218   .text.which_page:0000000000000130 .L0 
/var/folders/rt/4gvqv631095f64jvm7jfj_000000gn/T//cc2eS35f.s:1219   .text.which_page:0000000000000132 .L0 
/var/folders/rt/4gvqv631095f64jvm7jfj_000000gn/T//cc2eS35f.s:1226   .text.Buttonpressed:0000000000000000 Buttonpressed
/var/folders/rt/4gvqv631095f64jvm7jfj_000000gn/T//cc2eS35f.s:1229   .text.Buttonpressed:0000000000000000 .L0 
/var/folders/rt/4gvqv631095f64jvm7jfj_000000gn/T//cc2eS35f.s:1231   .text.Buttonpressed:0000000000000000 .L0 
/var/folders/rt/4gvqv631095f64jvm7jfj_000000gn/T//cc2eS35f.s:1232   .text.Buttonpressed:0000000000000000 .L0 
/var/folders/rt/4gvqv631095f64jvm7jfj_000000gn/T//cc2eS35f.s:1233   .text.Buttonpressed:0000000000000000 .L0 
/var/folders/rt/4gvqv631095f64jvm7jfj_000000gn/T//cc2eS35f.s:1234   .text.Buttonpressed:0000000000000000 .L0 
/var/folders/rt/4gvqv631095f64jvm7jfj_000000gn/T//cc2eS35f.s:1236   .text.Buttonpressed:0000000000000002 .L0 
/var/folders/rt/4gvqv631095f64jvm7jfj_000000gn/T//cc2eS35f.s:1239   .text.Buttonpressed:0000000000000006 .L0 
/var/folders/rt/4gvqv631095f64jvm7jfj_000000gn/T//cc2eS35f.s:1240   .text.Buttonpressed:0000000000000006 .L0 
/var/folders/rt/4gvqv631095f64jvm7jfj_000000gn/T//cc2eS35f.s:1243   .text.Buttonpressed:000000000000000a .L0 
/var/folders/rt/4gvqv631095f64jvm7jfj_000000gn/T//cc2eS35f.s:1245   .text.Buttonpressed:000000000000000a .L0 
/var/folders/rt/4gvqv631095f64jvm7jfj_000000gn/T//cc2eS35f.s:1248   .text.Buttonpressed:000000000000000c .L0 
/var/folders/rt/4gvqv631095f64jvm7jfj_000000gn/T//cc2eS35f.s:1258   .text.Buttonpressed:000000000000001e .L0 
/var/folders/rt/4gvqv631095f64jvm7jfj_000000gn/T//cc2eS35f.s:1259   .text.Buttonpressed:000000000000001e .L0 
/var/folders/rt/4gvqv631095f64jvm7jfj_000000gn/T//cc2eS35f.s:1260   .text.Buttonpressed:0000000000000020 .L0 
/var/folders/rt/4gvqv631095f64jvm7jfj_000000gn/T//cc2eS35f.s:1261   .text.Buttonpressed:0000000000000020 .L0 
/var/folders/rt/4gvqv631095f64jvm7jfj_000000gn/T//cc2eS35f.s:1263   .text.Buttonpressed:0000000000000020 .L0 
/var/folders/rt/4gvqv631095f64jvm7jfj_000000gn/T//cc2eS35f.s:1266   .text.Buttonpressed:0000000000000022 .L0 
/var/folders/rt/4gvqv631095f64jvm7jfj_000000gn/T//cc2eS35f.s:1267   .text.Buttonpressed:0000000000000024 .L0 
/var/folders/rt/4gvqv631095f64jvm7jfj_000000gn/T//cc2eS35f.s:1269   .text.Buttonpressed:0000000000000026 .L0 
/var/folders/rt/4gvqv631095f64jvm7jfj_000000gn/T//cc2eS35f.s:1273   .text.Buttonpressed:0000000000000028 .L0 
/var/folders/rt/4gvqv631095f64jvm7jfj_000000gn/T//cc2eS35f.s:1275   .text.Buttonpressed:0000000000000028 .L0 
/var/folders/rt/4gvqv631095f64jvm7jfj_000000gn/T//cc2eS35f.s:1279   .text.Buttonpressed:0000000000000030 .L0 
/var/folders/rt/4gvqv631095f64jvm7jfj_000000gn/T//cc2eS35f.s:1281   .text.Buttonpressed:0000000000000030 .L0 
/var/folders/rt/4gvqv631095f64jvm7jfj_000000gn/T//cc2eS35f.s:1290   .text.Buttonpressed:000000000000003c .L0 
/var/folders/rt/4gvqv631095f64jvm7jfj_000000gn/T//cc2eS35f.s:1291   .text.Buttonpressed:000000000000003c .L0 
/var/folders/rt/4gvqv631095f64jvm7jfj_000000gn/T//cc2eS35f.s:1294   .text.Buttonpressed:0000000000000044 .L0 
/var/folders/rt/4gvqv631095f64jvm7jfj_000000gn/T//cc2eS35f.s:1295   .text.Buttonpressed:0000000000000044 .L0 
/var/folders/rt/4gvqv631095f64jvm7jfj_000000gn/T//cc2eS35f.s:1298   .text.Buttonpressed:000000000000004a .L0 
/var/folders/rt/4gvqv631095f64jvm7jfj_000000gn/T//cc2eS35f.s:1299   .text.Buttonpressed:000000000000004a .L0 
/var/folders/rt/4gvqv631095f64jvm7jfj_000000gn/T//cc2eS35f.s:1302   .text.Buttonpressed:000000000000004e .L0 
/var/folders/rt/4gvqv631095f64jvm7jfj_000000gn/T//cc2eS35f.s:1303   .text.Buttonpressed:000000000000004e .L0 
/var/folders/rt/4gvqv631095f64jvm7jfj_000000gn/T//cc2eS35f.s:1305   .text.Buttonpressed:0000000000000050 .L0 
/var/folders/rt/4gvqv631095f64jvm7jfj_000000gn/T//cc2eS35f.s:1307   .text.Buttonpressed:0000000000000052 .L0 
/var/folders/rt/4gvqv631095f64jvm7jfj_000000gn/T//cc2eS35f.s:1308   .text.Buttonpressed:0000000000000054 .L0 
/var/folders/rt/4gvqv631095f64jvm7jfj_000000gn/T//cc2eS35f.s:1309   .text.Buttonpressed:0000000000000054 .L0 
/var/folders/rt/4gvqv631095f64jvm7jfj_000000gn/T//cc2eS35f.s:1312   .text.Buttonpressed:0000000000000054 .L0 
/var/folders/rt/4gvqv631095f64jvm7jfj_000000gn/T//cc2eS35f.s:1316   .text.Buttonpressed:000000000000005a .L0 
/var/folders/rt/4gvqv631095f64jvm7jfj_000000gn/T//cc2eS35f.s:1317   .text.Buttonpressed:000000000000005c .L0 
/var/folders/rt/4gvqv631095f64jvm7jfj_000000gn/T//cc2eS35f.s:1319   .text.Buttonpressed:000000000000005e .L0 
/var/folders/rt/4gvqv631095f64jvm7jfj_000000gn/T//cc2eS35f.s:1323   .text.Buttonpressed:0000000000000060 .L0 
/var/folders/rt/4gvqv631095f64jvm7jfj_000000gn/T//cc2eS35f.s:1326   .text.Buttonpressed:0000000000000060 .L0 
/var/folders/rt/4gvqv631095f64jvm7jfj_000000gn/T//cc2eS35f.s:1330   .text.Buttonpressed:0000000000000068 .L0 
/var/folders/rt/4gvqv631095f64jvm7jfj_000000gn/T//cc2eS35f.s:1332   .text.Buttonpressed:0000000000000068 .L0 
/var/folders/rt/4gvqv631095f64jvm7jfj_000000gn/T//cc2eS35f.s:1333   .text.Buttonpressed:000000000000006a .L0 
/var/folders/rt/4gvqv631095f64jvm7jfj_000000gn/T//cc2eS35f.s:1335   .text.Buttonpressed:000000000000006c .L0 
/var/folders/rt/4gvqv631095f64jvm7jfj_000000gn/T//cc2eS35f.s:1337   .text.Buttonpressed:000000000000006e .L0 
/var/folders/rt/4gvqv631095f64jvm7jfj_000000gn/T//cc2eS35f.s:1341   .text.Buttonpressed:0000000000000070 .L0 
/var/folders/rt/4gvqv631095f64jvm7jfj_000000gn/T//cc2eS35f.s:1343   .text.Buttonpressed:0000000000000072 .L0 
/var/folders/rt/4gvqv631095f64jvm7jfj_000000gn/T//cc2eS35f.s:1350   .text.no_button_press:0000000000000000 no_button_press
/var/folders/rt/4gvqv631095f64jvm7jfj_000000gn/T//cc2eS35f.s:1353   .text.no_button_press:0000000000000000 .L0 
GAS LISTING /var/folders/rt/4gvqv631095f64jvm7jfj_000000gn/T//cc2eS35f.s 			page 50


/var/folders/rt/4gvqv631095f64jvm7jfj_000000gn/T//cc2eS35f.s:1355   .text.no_button_press:0000000000000000 .L0 
/var/folders/rt/4gvqv631095f64jvm7jfj_000000gn/T//cc2eS35f.s:1356   .text.no_button_press:0000000000000000 .L0 
/var/folders/rt/4gvqv631095f64jvm7jfj_000000gn/T//cc2eS35f.s:1357   .text.no_button_press:0000000000000000 .L0 
/var/folders/rt/4gvqv631095f64jvm7jfj_000000gn/T//cc2eS35f.s:1359   .text.no_button_press:0000000000000002 .L0 
/var/folders/rt/4gvqv631095f64jvm7jfj_000000gn/T//cc2eS35f.s:1362   .text.no_button_press:000000000000000a .L0 
/var/folders/rt/4gvqv631095f64jvm7jfj_000000gn/T//cc2eS35f.s:1365   .text.no_button_press:000000000000000e .L0 
/var/folders/rt/4gvqv631095f64jvm7jfj_000000gn/T//cc2eS35f.s:1366   .text.no_button_press:000000000000000e .L0 
/var/folders/rt/4gvqv631095f64jvm7jfj_000000gn/T//cc2eS35f.s:1368   .text.no_button_press:0000000000000012 .L0 
/var/folders/rt/4gvqv631095f64jvm7jfj_000000gn/T//cc2eS35f.s:1370   .text.no_button_press:0000000000000014 .L0 
/var/folders/rt/4gvqv631095f64jvm7jfj_000000gn/T//cc2eS35f.s:1372   .text.no_button_press:0000000000000016 .L0 
/var/folders/rt/4gvqv631095f64jvm7jfj_000000gn/T//cc2eS35f.s:1375   .text.no_button_press:0000000000000018 .L0 
/var/folders/rt/4gvqv631095f64jvm7jfj_000000gn/T//cc2eS35f.s:1378   .text.no_button_press:000000000000001a .L0 
/var/folders/rt/4gvqv631095f64jvm7jfj_000000gn/T//cc2eS35f.s:1380   .text.no_button_press:000000000000001e .L0 
/var/folders/rt/4gvqv631095f64jvm7jfj_000000gn/T//cc2eS35f.s:1381   .text.no_button_press:000000000000001e .L0 
/var/folders/rt/4gvqv631095f64jvm7jfj_000000gn/T//cc2eS35f.s:1384   .text.no_button_press:0000000000000020 .L0 
/var/folders/rt/4gvqv631095f64jvm7jfj_000000gn/T//cc2eS35f.s:1387   .text.no_button_press:0000000000000028 .L0 
/var/folders/rt/4gvqv631095f64jvm7jfj_000000gn/T//cc2eS35f.s:1397   .text.no_button_press:0000000000000042 .L0 
/var/folders/rt/4gvqv631095f64jvm7jfj_000000gn/T//cc2eS35f.s:1398   .text.no_button_press:0000000000000042 .L0 
/var/folders/rt/4gvqv631095f64jvm7jfj_000000gn/T//cc2eS35f.s:1400   .text.no_button_press:0000000000000046 .L0 
/var/folders/rt/4gvqv631095f64jvm7jfj_000000gn/T//cc2eS35f.s:1401   .text.no_button_press:0000000000000046 .L0 
/var/folders/rt/4gvqv631095f64jvm7jfj_000000gn/T//cc2eS35f.s:1403   .text.no_button_press:000000000000004a .L0 
/var/folders/rt/4gvqv631095f64jvm7jfj_000000gn/T//cc2eS35f.s:1404   .text.no_button_press:000000000000004c .L0 
/var/folders/rt/4gvqv631095f64jvm7jfj_000000gn/T//cc2eS35f.s:1406   .text.no_button_press:000000000000004e .L0 
/var/folders/rt/4gvqv631095f64jvm7jfj_000000gn/T//cc2eS35f.s:1409   .text.no_button_press:0000000000000050 .L0 
/var/folders/rt/4gvqv631095f64jvm7jfj_000000gn/T//cc2eS35f.s:1413   .text.no_button_press:0000000000000052 .L0 
/var/folders/rt/4gvqv631095f64jvm7jfj_000000gn/T//cc2eS35f.s:1418   .text.no_button_press:0000000000000056 .L0 
/var/folders/rt/4gvqv631095f64jvm7jfj_000000gn/T//cc2eS35f.s:1531   .sdata2.CSWTCH.87:0000000000000000 CSWTCH.87
/var/folders/rt/4gvqv631095f64jvm7jfj_000000gn/T//cc2eS35f.s:1500   .sdata2.CSWTCH.85:0000000000000000 .LANCHOR0
/var/folders/rt/4gvqv631095f64jvm7jfj_000000gn/T//cc2eS35f.s:1503   .sdata2.CSWTCH.85:0000000000000000 CSWTCH.85
/var/folders/rt/4gvqv631095f64jvm7jfj_000000gn/T//cc2eS35f.s:1514   .sdata2.CSWTCH.86:0000000000000000 .LANCHOR1
/var/folders/rt/4gvqv631095f64jvm7jfj_000000gn/T//cc2eS35f.s:1517   .sdata2.CSWTCH.86:0000000000000000 CSWTCH.86
/var/folders/rt/4gvqv631095f64jvm7jfj_000000gn/T//cc2eS35f.s:1528   .sdata2.CSWTCH.87:0000000000000000 .LANCHOR2
/var/folders/rt/4gvqv631095f64jvm7jfj_000000gn/T//cc2eS35f.s:1542   .sdata2.CSWTCH.90:0000000000000000 .LANCHOR3
/var/folders/rt/4gvqv631095f64jvm7jfj_000000gn/T//cc2eS35f.s:1545   .sdata2.CSWTCH.90:0000000000000000 CSWTCH.90
/var/folders/rt/4gvqv631095f64jvm7jfj_000000gn/T//cc2eS35f.s:1556   .sdata2.CSWTCH.91:0000000000000000 .LANCHOR4
/var/folders/rt/4gvqv631095f64jvm7jfj_000000gn/T//cc2eS35f.s:1559   .sdata2.CSWTCH.91:0000000000000000 CSWTCH.91
/var/folders/rt/4gvqv631095f64jvm7jfj_000000gn/T//cc2eS35f.s:805    .text.pages:0000000000000622 .L0 
/var/folders/rt/4gvqv631095f64jvm7jfj_000000gn/T//cc2eS35f.s:923    .text.move_pointer:000000000000006e .L0 
/var/folders/rt/4gvqv631095f64jvm7jfj_000000gn/T//cc2eS35f.s:1222   .text.which_page:0000000000000132 .L0 
/var/folders/rt/4gvqv631095f64jvm7jfj_000000gn/T//cc2eS35f.s:1346   .text.Buttonpressed:0000000000000072 .L0 
/var/folders/rt/4gvqv631095f64jvm7jfj_000000gn/T//cc2eS35f.s:1423   .text.no_button_press:0000000000000056 .L0 
                     .debug_frame:0000000000000000 .L0 
/var/folders/rt/4gvqv631095f64jvm7jfj_000000gn/T//cc2eS35f.s:57     .rodata.pages:0000000000000000 .L4
/var/folders/rt/4gvqv631095f64jvm7jfj_000000gn/T//cc2eS35f.s:1425   .rodata.pages.str1.4:0000000000000000 .LC0
/var/folders/rt/4gvqv631095f64jvm7jfj_000000gn/T//cc2eS35f.s:1428   .rodata.pages.str1.4:0000000000000010 .LC1
/var/folders/rt/4gvqv631095f64jvm7jfj_000000gn/T//cc2eS35f.s:1431   .rodata.pages.str1.4:000000000000001c .LC2
/var/folders/rt/4gvqv631095f64jvm7jfj_000000gn/T//cc2eS35f.s:1434   .rodata.pages.str1.4:0000000000000030 .LC3
/var/folders/rt/4gvqv631095f64jvm7jfj_000000gn/T//cc2eS35f.s:1440   .rodata.pages.str1.4:0000000000000040 .LC5
/var/folders/rt/4gvqv631095f64jvm7jfj_000000gn/T//cc2eS35f.s:1437   .rodata.pages.str1.4:0000000000000038 .LC4
/var/folders/rt/4gvqv631095f64jvm7jfj_000000gn/T//cc2eS35f.s:1443   .rodata.pages.str1.4:0000000000000048 .LC6
/var/folders/rt/4gvqv631095f64jvm7jfj_000000gn/T//cc2eS35f.s:1446   .rodata.pages.str1.4:0000000000000058 .LC7
/var/folders/rt/4gvqv631095f64jvm7jfj_000000gn/T//cc2eS35f.s:1449   .rodata.pages.str1.4:0000000000000068 .LC8
/var/folders/rt/4gvqv631095f64jvm7jfj_000000gn/T//cc2eS35f.s:1452   .rodata.pages.str1.4:0000000000000074 .LC9
/var/folders/rt/4gvqv631095f64jvm7jfj_000000gn/T//cc2eS35f.s:1455   .rodata.pages.str1.4:0000000000000084 .LC10
/var/folders/rt/4gvqv631095f64jvm7jfj_000000gn/T//cc2eS35f.s:1457   .rodata.pages.str1.4:0000000000000094 .LC11
/var/folders/rt/4gvqv631095f64jvm7jfj_000000gn/T//cc2eS35f.s:1460   .rodata.pages.str1.4:000000000000009c .LC12
/var/folders/rt/4gvqv631095f64jvm7jfj_000000gn/T//cc2eS35f.s:1463   .rodata.pages.str1.4:00000000000000a8 .LC13
GAS LISTING /var/folders/rt/4gvqv631095f64jvm7jfj_000000gn/T//cc2eS35f.s 			page 51


/var/folders/rt/4gvqv631095f64jvm7jfj_000000gn/T//cc2eS35f.s:1465   .rodata.pages.str1.4:00000000000000b4 .LC14
/var/folders/rt/4gvqv631095f64jvm7jfj_000000gn/T//cc2eS35f.s:1468   .rodata.pages.str1.4:00000000000000c4 .LC15
/var/folders/rt/4gvqv631095f64jvm7jfj_000000gn/T//cc2eS35f.s:1471   .rodata.pages.str1.4:00000000000000d0 .LC16
/var/folders/rt/4gvqv631095f64jvm7jfj_000000gn/T//cc2eS35f.s:1474   .rodata.pages.str1.4:00000000000000e0 .LC17
/var/folders/rt/4gvqv631095f64jvm7jfj_000000gn/T//cc2eS35f.s:1477   .rodata.pages.str1.4:00000000000000ec .LC18
/var/folders/rt/4gvqv631095f64jvm7jfj_000000gn/T//cc2eS35f.s:1480   .rodata.pages.str1.4:00000000000000f8 .LC19
/var/folders/rt/4gvqv631095f64jvm7jfj_000000gn/T//cc2eS35f.s:1482   .rodata.pages.str1.4:0000000000000118 .LC20
/var/folders/rt/4gvqv631095f64jvm7jfj_000000gn/T//cc2eS35f.s:1484   .rodata.pages.str1.4:0000000000000120 .LC21
/var/folders/rt/4gvqv631095f64jvm7jfj_000000gn/T//cc2eS35f.s:1487   .rodata.pages.str1.4:000000000000012c .LC22
/var/folders/rt/4gvqv631095f64jvm7jfj_000000gn/T//cc2eS35f.s:1490   .rodata.pages.str1.4:0000000000000134 .LC23
/var/folders/rt/4gvqv631095f64jvm7jfj_000000gn/T//cc2eS35f.s:1493   .rodata.pages.str1.4:000000000000013c .LC24
/var/folders/rt/4gvqv631095f64jvm7jfj_000000gn/T//cc2eS35f.s:1496   .rodata.pages.str1.4:0000000000000148 .LC25
/var/folders/rt/4gvqv631095f64jvm7jfj_000000gn/T//cc2eS35f.s:792    .text.pages:0000000000000620 .L22
/var/folders/rt/4gvqv631095f64jvm7jfj_000000gn/T//cc2eS35f.s:613    .text.pages:0000000000000496 .L29
/var/folders/rt/4gvqv631095f64jvm7jfj_000000gn/T//cc2eS35f.s:213    .text.pages:0000000000000118 .L20
/var/folders/rt/4gvqv631095f64jvm7jfj_000000gn/T//cc2eS35f.s:91     .text.pages:0000000000000044 .L26
/var/folders/rt/4gvqv631095f64jvm7jfj_000000gn/T//cc2eS35f.s:193    .text.pages:00000000000000fc .L19
/var/folders/rt/4gvqv631095f64jvm7jfj_000000gn/T//cc2eS35f.s:160    .text.pages:00000000000000c4 .L27
/var/folders/rt/4gvqv631095f64jvm7jfj_000000gn/T//cc2eS35f.s:263    .text.pages:000000000000017c .L31
/var/folders/rt/4gvqv631095f64jvm7jfj_000000gn/T//cc2eS35f.s:275    .text.pages:0000000000000196 .L30
/var/folders/rt/4gvqv631095f64jvm7jfj_000000gn/T//cc2eS35f.s:156    .text.pages:00000000000000c0 .L32
/var/folders/rt/4gvqv631095f64jvm7jfj_000000gn/T//cc2eS35f.s:426    .text.pages:00000000000002f6 .L25
/var/folders/rt/4gvqv631095f64jvm7jfj_000000gn/T//cc2eS35f.s:205    .text.pages:0000000000000108 .L28
/var/folders/rt/4gvqv631095f64jvm7jfj_000000gn/T//cc2eS35f.s:198    .text.pages:0000000000000102 .L33
/var/folders/rt/4gvqv631095f64jvm7jfj_000000gn/T//cc2eS35f.s:77     .text.pages:0000000000000028 .L18
/var/folders/rt/4gvqv631095f64jvm7jfj_000000gn/T//cc2eS35f.s:112    .text.pages:000000000000005a .L17
/var/folders/rt/4gvqv631095f64jvm7jfj_000000gn/T//cc2eS35f.s:167    .text.pages:00000000000000d0 .L16
/var/folders/rt/4gvqv631095f64jvm7jfj_000000gn/T//cc2eS35f.s:240    .text.pages:000000000000014a .L15
/var/folders/rt/4gvqv631095f64jvm7jfj_000000gn/T//cc2eS35f.s:620    .text.pages:000000000000049e .L14
/var/folders/rt/4gvqv631095f64jvm7jfj_000000gn/T//cc2eS35f.s:745    .text.pages:00000000000005ba .L13
/var/folders/rt/4gvqv631095f64jvm7jfj_000000gn/T//cc2eS35f.s:280    .text.pages:000000000000019a .L12
/var/folders/rt/4gvqv631095f64jvm7jfj_000000gn/T//cc2eS35f.s:304    .text.pages:00000000000001ce .L11
/var/folders/rt/4gvqv631095f64jvm7jfj_000000gn/T//cc2eS35f.s:338    .text.pages:000000000000021c .L10
/var/folders/rt/4gvqv631095f64jvm7jfj_000000gn/T//cc2eS35f.s:382    .text.pages:0000000000000284 .L9
/var/folders/rt/4gvqv631095f64jvm7jfj_000000gn/T//cc2eS35f.s:453    .text.pages:000000000000030e .L8
/var/folders/rt/4gvqv631095f64jvm7jfj_000000gn/T//cc2eS35f.s:499    .text.pages:000000000000037e .L7
/var/folders/rt/4gvqv631095f64jvm7jfj_000000gn/T//cc2eS35f.s:554    .text.pages:000000000000040e .L6
/var/folders/rt/4gvqv631095f64jvm7jfj_000000gn/T//cc2eS35f.s:758    .text.pages:00000000000005d2 .L5
/var/folders/rt/4gvqv631095f64jvm7jfj_000000gn/T//cc2eS35f.s:431    .text.pages:00000000000002fe .L1
/var/folders/rt/4gvqv631095f64jvm7jfj_000000gn/T//cc2eS35f.s:579    .text.pages:0000000000000444 .L3
/var/folders/rt/4gvqv631095f64jvm7jfj_000000gn/T//cc2eS35f.s:914    .text.move_pointer:000000000000006c .L42
/var/folders/rt/4gvqv631095f64jvm7jfj_000000gn/T//cc2eS35f.s:843    .text.move_pointer:000000000000001e .L36
/var/folders/rt/4gvqv631095f64jvm7jfj_000000gn/T//cc2eS35f.s:893    .text.move_pointer:0000000000000052 .L37
/var/folders/rt/4gvqv631095f64jvm7jfj_000000gn/T//cc2eS35f.s:865    .text.move_pointer:0000000000000036 .L45
/var/folders/rt/4gvqv631095f64jvm7jfj_000000gn/T//cc2eS35f.s:1001   .rodata.which_page:0000000000000000 .L53
/var/folders/rt/4gvqv631095f64jvm7jfj_000000gn/T//cc2eS35f.s:1186   .rodata.which_page:0000000000000048 .L67
/var/folders/rt/4gvqv631095f64jvm7jfj_000000gn/T//cc2eS35f.s:1022   .text.which_page:000000000000005e .L69
/var/folders/rt/4gvqv631095f64jvm7jfj_000000gn/T//cc2eS35f.s:969    .text.which_page:000000000000002e .L47
/var/folders/rt/4gvqv631095f64jvm7jfj_000000gn/T//cc2eS35f.s:976    .text.which_page:0000000000000036 .L48
/var/folders/rt/4gvqv631095f64jvm7jfj_000000gn/T//cc2eS35f.s:982    .text.which_page:000000000000003e .L49
/var/folders/rt/4gvqv631095f64jvm7jfj_000000gn/T//cc2eS35f.s:1172   .text.which_page:0000000000000114 .L50
/var/folders/rt/4gvqv631095f64jvm7jfj_000000gn/T//cc2eS35f.s:1168   .text.which_page:0000000000000112 .L74
/var/folders/rt/4gvqv631095f64jvm7jfj_000000gn/T//cc2eS35f.s:1207   .text.which_page:000000000000012a .L75
/var/folders/rt/4gvqv631095f64jvm7jfj_000000gn/T//cc2eS35f.s:1151   .text.which_page:0000000000000108 .L51
/var/folders/rt/4gvqv631095f64jvm7jfj_000000gn/T//cc2eS35f.s:1216   .text.which_page:0000000000000130 .L46
/var/folders/rt/4gvqv631095f64jvm7jfj_000000gn/T//cc2eS35f.s:1045   .text.which_page:0000000000000078 .L96
/var/folders/rt/4gvqv631095f64jvm7jfj_000000gn/T//cc2eS35f.s:1213   .text.which_page:000000000000012e .L68
GAS LISTING /var/folders/rt/4gvqv631095f64jvm7jfj_000000gn/T//cc2eS35f.s 			page 52


/var/folders/rt/4gvqv631095f64jvm7jfj_000000gn/T//cc2eS35f.s:1033   .text.which_page:0000000000000066 .L76
/var/folders/rt/4gvqv631095f64jvm7jfj_000000gn/T//cc2eS35f.s:1050   .text.which_page:0000000000000080 .L77
/var/folders/rt/4gvqv631095f64jvm7jfj_000000gn/T//cc2eS35f.s:1065   .text.which_page:0000000000000094 .L78
/var/folders/rt/4gvqv631095f64jvm7jfj_000000gn/T//cc2eS35f.s:1027   .text.which_page:0000000000000062 .L62
/var/folders/rt/4gvqv631095f64jvm7jfj_000000gn/T//cc2eS35f.s:1080   .text.which_page:00000000000000a8 .L80
/var/folders/rt/4gvqv631095f64jvm7jfj_000000gn/T//cc2eS35f.s:1095   .text.which_page:00000000000000bc .L81
/var/folders/rt/4gvqv631095f64jvm7jfj_000000gn/T//cc2eS35f.s:1110   .text.which_page:00000000000000d0 .L82
/var/folders/rt/4gvqv631095f64jvm7jfj_000000gn/T//cc2eS35f.s:1125   .text.which_page:00000000000000e4 .L83
/var/folders/rt/4gvqv631095f64jvm7jfj_000000gn/T//cc2eS35f.s:1140   .text.which_page:00000000000000f8 .L86
/var/folders/rt/4gvqv631095f64jvm7jfj_000000gn/T//cc2eS35f.s:1157   .text.which_page:000000000000010a .L87
/var/folders/rt/4gvqv631095f64jvm7jfj_000000gn/T//cc2eS35f.s:1037   .text.which_page:0000000000000068 .L65
/var/folders/rt/4gvqv631095f64jvm7jfj_000000gn/T//cc2eS35f.s:1054   .text.which_page:0000000000000082 .L64
/var/folders/rt/4gvqv631095f64jvm7jfj_000000gn/T//cc2eS35f.s:1069   .text.which_page:0000000000000096 .L63
/var/folders/rt/4gvqv631095f64jvm7jfj_000000gn/T//cc2eS35f.s:1163   .text.which_page:000000000000010e .L95
/var/folders/rt/4gvqv631095f64jvm7jfj_000000gn/T//cc2eS35f.s:1084   .text.which_page:00000000000000aa .L61
/var/folders/rt/4gvqv631095f64jvm7jfj_000000gn/T//cc2eS35f.s:1099   .text.which_page:00000000000000be .L60
/var/folders/rt/4gvqv631095f64jvm7jfj_000000gn/T//cc2eS35f.s:1114   .text.which_page:00000000000000d2 .L59
/var/folders/rt/4gvqv631095f64jvm7jfj_000000gn/T//cc2eS35f.s:1129   .text.which_page:00000000000000e6 .L58
/var/folders/rt/4gvqv631095f64jvm7jfj_000000gn/T//cc2eS35f.s:1144   .text.which_page:00000000000000fa .L55
/var/folders/rt/4gvqv631095f64jvm7jfj_000000gn/T//cc2eS35f.s:1277   .text.Buttonpressed:0000000000000030 .L98
/var/folders/rt/4gvqv631095f64jvm7jfj_000000gn/T//cc2eS35f.s:1256   .text.Buttonpressed:000000000000001e .L99
/var/folders/rt/4gvqv631095f64jvm7jfj_000000gn/T//cc2eS35f.s:1328   .text.Buttonpressed:0000000000000068 .L97
/var/folders/rt/4gvqv631095f64jvm7jfj_000000gn/T//cc2eS35f.s:1416   .text.no_button_press:0000000000000054 .L105
/var/folders/rt/4gvqv631095f64jvm7jfj_000000gn/T//cc2eS35f.s:5314   .debug_abbrev:0000000000000000 .Ldebug_abbrev0
/var/folders/rt/4gvqv631095f64jvm7jfj_000000gn/T//cc2eS35f.s:8200   .debug_str:00000000000006c4 .LASF209
/var/folders/rt/4gvqv631095f64jvm7jfj_000000gn/T//cc2eS35f.s:7898   .debug_str:0000000000000109 .LASF210
/var/folders/rt/4gvqv631095f64jvm7jfj_000000gn/T//cc2eS35f.s:8204   .debug_str:0000000000000753 .LASF211
/var/folders/rt/4gvqv631095f64jvm7jfj_000000gn/T//cc2eS35f.s:7820   .debug_ranges:0000000000000000 .Ldebug_ranges0
/var/folders/rt/4gvqv631095f64jvm7jfj_000000gn/T//cc2eS35f.s:7846   .debug_line:0000000000000000 .Ldebug_line0
/var/folders/rt/4gvqv631095f64jvm7jfj_000000gn/T//cc2eS35f.s:7910   .debug_str:000000000000013f .LASF0
/var/folders/rt/4gvqv631095f64jvm7jfj_000000gn/T//cc2eS35f.s:8100   .debug_str:00000000000004ec .LASF1
/var/folders/rt/4gvqv631095f64jvm7jfj_000000gn/T//cc2eS35f.s:8186   .debug_str:0000000000000685 .LASF2
/var/folders/rt/4gvqv631095f64jvm7jfj_000000gn/T//cc2eS35f.s:8208   .debug_str:00000000000007a2 .LASF3
/var/folders/rt/4gvqv631095f64jvm7jfj_000000gn/T//cc2eS35f.s:8190   .debug_str:0000000000000698 .LASF5
/var/folders/rt/4gvqv631095f64jvm7jfj_000000gn/T//cc2eS35f.s:7878   .debug_str:0000000000000085 .LASF4
/var/folders/rt/4gvqv631095f64jvm7jfj_000000gn/T//cc2eS35f.s:7966   .debug_str:000000000000025e .LASF6
/var/folders/rt/4gvqv631095f64jvm7jfj_000000gn/T//cc2eS35f.s:7994   .debug_str:00000000000002e1 .LASF7
/var/folders/rt/4gvqv631095f64jvm7jfj_000000gn/T//cc2eS35f.s:8012   .debug_str:0000000000000339 .LASF8
/var/folders/rt/4gvqv631095f64jvm7jfj_000000gn/T//cc2eS35f.s:7884   .debug_str:00000000000000ae .LASF9
/var/folders/rt/4gvqv631095f64jvm7jfj_000000gn/T//cc2eS35f.s:8106   .debug_str:0000000000000505 .LASF10
/var/folders/rt/4gvqv631095f64jvm7jfj_000000gn/T//cc2eS35f.s:8170   .debug_str:0000000000000644 .LASF11
/var/folders/rt/4gvqv631095f64jvm7jfj_000000gn/T//cc2eS35f.s:8080   .debug_str:0000000000000492 .LASF12
/var/folders/rt/4gvqv631095f64jvm7jfj_000000gn/T//cc2eS35f.s:7906   .debug_str:0000000000000131 .LASF13
/var/folders/rt/4gvqv631095f64jvm7jfj_000000gn/T//cc2eS35f.s:8166   .debug_str:0000000000000633 .LASF14
/var/folders/rt/4gvqv631095f64jvm7jfj_000000gn/T//cc2eS35f.s:8236   .debug_str:000000000000083f .LASF15
/var/folders/rt/4gvqv631095f64jvm7jfj_000000gn/T//cc2eS35f.s:8024   .debug_str:0000000000000375 .LASF16
/var/folders/rt/4gvqv631095f64jvm7jfj_000000gn/T//cc2eS35f.s:7986   .debug_str:00000000000002ba .LASF17
/var/folders/rt/4gvqv631095f64jvm7jfj_000000gn/T//cc2eS35f.s:8156   .debug_str:0000000000000603 .LASF18
/var/folders/rt/4gvqv631095f64jvm7jfj_000000gn/T//cc2eS35f.s:8158   .debug_str:000000000000060b .LASF19
/var/folders/rt/4gvqv631095f64jvm7jfj_000000gn/T//cc2eS35f.s:8086   .debug_str:00000000000004a9 .LASF20
/var/folders/rt/4gvqv631095f64jvm7jfj_000000gn/T//cc2eS35f.s:8216   .debug_str:00000000000007cc .LASF21
/var/folders/rt/4gvqv631095f64jvm7jfj_000000gn/T//cc2eS35f.s:8090   .debug_str:00000000000004ba .LASF22
/var/folders/rt/4gvqv631095f64jvm7jfj_000000gn/T//cc2eS35f.s:8110   .debug_str:000000000000051b .LASF23
/var/folders/rt/4gvqv631095f64jvm7jfj_000000gn/T//cc2eS35f.s:7974   .debug_str:0000000000000283 .LASF28
/var/folders/rt/4gvqv631095f64jvm7jfj_000000gn/T//cc2eS35f.s:8194   .debug_str:00000000000006ae .LASF24
/var/folders/rt/4gvqv631095f64jvm7jfj_000000gn/T//cc2eS35f.s:8146   .debug_str:00000000000005dd .LASF25
/var/folders/rt/4gvqv631095f64jvm7jfj_000000gn/T//cc2eS35f.s:7968   .debug_str:0000000000000269 .LASF26
GAS LISTING /var/folders/rt/4gvqv631095f64jvm7jfj_000000gn/T//cc2eS35f.s 			page 53


/var/folders/rt/4gvqv631095f64jvm7jfj_000000gn/T//cc2eS35f.s:8062   .debug_str:000000000000042f .LASF27
/var/folders/rt/4gvqv631095f64jvm7jfj_000000gn/T//cc2eS35f.s:7982   .debug_str:00000000000002aa .LASF29
/var/folders/rt/4gvqv631095f64jvm7jfj_000000gn/T//cc2eS35f.s:7904   .debug_str:0000000000000128 .LASF30
/var/folders/rt/4gvqv631095f64jvm7jfj_000000gn/T//cc2eS35f.s:8260   .debug_str:00000000000008bf .LASF31
/var/folders/rt/4gvqv631095f64jvm7jfj_000000gn/T//cc2eS35f.s:7922   .debug_str:000000000000017c .LASF32
/var/folders/rt/4gvqv631095f64jvm7jfj_000000gn/T//cc2eS35f.s:8274   .debug_str:00000000000008fc .LASF33
/var/folders/rt/4gvqv631095f64jvm7jfj_000000gn/T//cc2eS35f.s:8066   .debug_str:000000000000044d .LASF34
/var/folders/rt/4gvqv631095f64jvm7jfj_000000gn/T//cc2eS35f.s:8172   .debug_str:0000000000000650 .LASF35
/var/folders/rt/4gvqv631095f64jvm7jfj_000000gn/T//cc2eS35f.s:8164   .debug_str:0000000000000629 .LASF36
/var/folders/rt/4gvqv631095f64jvm7jfj_000000gn/T//cc2eS35f.s:8112   .debug_str:0000000000000524 .LASF37
/var/folders/rt/4gvqv631095f64jvm7jfj_000000gn/T//cc2eS35f.s:8256   .debug_str:00000000000008a5 .LASF38
/var/folders/rt/4gvqv631095f64jvm7jfj_000000gn/T//cc2eS35f.s:7926   .debug_str:000000000000018b .LASF39
/var/folders/rt/4gvqv631095f64jvm7jfj_000000gn/T//cc2eS35f.s:7858   .debug_str:000000000000002a .LASF40
/var/folders/rt/4gvqv631095f64jvm7jfj_000000gn/T//cc2eS35f.s:7848   .debug_str:0000000000000000 .LASF41
/var/folders/rt/4gvqv631095f64jvm7jfj_000000gn/T//cc2eS35f.s:8168   .debug_str:000000000000063b .LASF42
/var/folders/rt/4gvqv631095f64jvm7jfj_000000gn/T//cc2eS35f.s:7942   .debug_str:00000000000001e4 .LASF43
/var/folders/rt/4gvqv631095f64jvm7jfj_000000gn/T//cc2eS35f.s:8070   .debug_str:000000000000045d .LASF44
/var/folders/rt/4gvqv631095f64jvm7jfj_000000gn/T//cc2eS35f.s:8132   .debug_str:0000000000000585 .LASF45
/var/folders/rt/4gvqv631095f64jvm7jfj_000000gn/T//cc2eS35f.s:7964   .debug_str:0000000000000259 .LASF46
/var/folders/rt/4gvqv631095f64jvm7jfj_000000gn/T//cc2eS35f.s:8116   .debug_str:000000000000053e .LASF47
/var/folders/rt/4gvqv631095f64jvm7jfj_000000gn/T//cc2eS35f.s:7920   .debug_str:0000000000000176 .LASF48
/var/folders/rt/4gvqv631095f64jvm7jfj_000000gn/T//cc2eS35f.s:8180   .debug_str:000000000000066f .LASF49
/var/folders/rt/4gvqv631095f64jvm7jfj_000000gn/T//cc2eS35f.s:8122   .debug_str:0000000000000554 .LASF50
/var/folders/rt/4gvqv631095f64jvm7jfj_000000gn/T//cc2eS35f.s:7940   .debug_str:00000000000001dd .LASF51
/var/folders/rt/4gvqv631095f64jvm7jfj_000000gn/T//cc2eS35f.s:7996   .debug_str:00000000000002f3 .LASF52
/var/folders/rt/4gvqv631095f64jvm7jfj_000000gn/T//cc2eS35f.s:8268   .debug_str:00000000000008e0 .LASF53
/var/folders/rt/4gvqv631095f64jvm7jfj_000000gn/T//cc2eS35f.s:7928   .debug_str:0000000000000199 .LASF54
/var/folders/rt/4gvqv631095f64jvm7jfj_000000gn/T//cc2eS35f.s:7976   .debug_str:000000000000028b .LASF55
/var/folders/rt/4gvqv631095f64jvm7jfj_000000gn/T//cc2eS35f.s:8040   .debug_str:00000000000003c0 .LASF56
/var/folders/rt/4gvqv631095f64jvm7jfj_000000gn/T//cc2eS35f.s:8160   .debug_str:0000000000000613 .LASF57
/var/folders/rt/4gvqv631095f64jvm7jfj_000000gn/T//cc2eS35f.s:7908   .debug_str:0000000000000138 .LASF58
/var/folders/rt/4gvqv631095f64jvm7jfj_000000gn/T//cc2eS35f.s:7916   .debug_str:0000000000000163 .LASF59
/var/folders/rt/4gvqv631095f64jvm7jfj_000000gn/T//cc2eS35f.s:8252   .debug_str:0000000000000897 .LASF60
/var/folders/rt/4gvqv631095f64jvm7jfj_000000gn/T//cc2eS35f.s:8178   .debug_str:0000000000000666 .LASF61
/var/folders/rt/4gvqv631095f64jvm7jfj_000000gn/T//cc2eS35f.s:7862   .debug_str:000000000000003a .LASF62
/var/folders/rt/4gvqv631095f64jvm7jfj_000000gn/T//cc2eS35f.s:8004   .debug_str:0000000000000318 .LASF63
/var/folders/rt/4gvqv631095f64jvm7jfj_000000gn/T//cc2eS35f.s:8032   .debug_str:0000000000000392 .LASF64
/var/folders/rt/4gvqv631095f64jvm7jfj_000000gn/T//cc2eS35f.s:8124   .debug_str:000000000000055c .LASF65
/var/folders/rt/4gvqv631095f64jvm7jfj_000000gn/T//cc2eS35f.s:8118   .debug_str:0000000000000545 .LASF66
/var/folders/rt/4gvqv631095f64jvm7jfj_000000gn/T//cc2eS35f.s:8148   .debug_str:00000000000005e5 .LASF67
/var/folders/rt/4gvqv631095f64jvm7jfj_000000gn/T//cc2eS35f.s:8174   .debug_str:000000000000065a .LASF68
/var/folders/rt/4gvqv631095f64jvm7jfj_000000gn/T//cc2eS35f.s:7944   .debug_str:00000000000001ec .LASF69
/var/folders/rt/4gvqv631095f64jvm7jfj_000000gn/T//cc2eS35f.s:7990   .debug_str:00000000000002d1 .LASF70
/var/folders/rt/4gvqv631095f64jvm7jfj_000000gn/T//cc2eS35f.s:7972   .debug_str:000000000000027b .LASF71
/var/folders/rt/4gvqv631095f64jvm7jfj_000000gn/T//cc2eS35f.s:8130   .debug_str:0000000000000580 .LASF72
/var/folders/rt/4gvqv631095f64jvm7jfj_000000gn/T//cc2eS35f.s:7866   .debug_str:000000000000004f .LASF73
/var/folders/rt/4gvqv631095f64jvm7jfj_000000gn/T//cc2eS35f.s:8142   .debug_str:00000000000005b0 .LASF74
/var/folders/rt/4gvqv631095f64jvm7jfj_000000gn/T//cc2eS35f.s:8138   .debug_str:000000000000059e .LASF75
/var/folders/rt/4gvqv631095f64jvm7jfj_000000gn/T//cc2eS35f.s:8074   .debug_str:000000000000046f .LASF76
/var/folders/rt/4gvqv631095f64jvm7jfj_000000gn/T//cc2eS35f.s:8140   .debug_str:00000000000005a6 .LASF77
/var/folders/rt/4gvqv631095f64jvm7jfj_000000gn/T//cc2eS35f.s:8022   .debug_str:000000000000036d .LASF78
/var/folders/rt/4gvqv631095f64jvm7jfj_000000gn/T//cc2eS35f.s:7978   .debug_str:0000000000000291 .LASF79
/var/folders/rt/4gvqv631095f64jvm7jfj_000000gn/T//cc2eS35f.s:8266   .debug_str:00000000000008db .LASF80
/var/folders/rt/4gvqv631095f64jvm7jfj_000000gn/T//cc2eS35f.s:8084   .debug_str:000000000000049f .LASF81
/var/folders/rt/4gvqv631095f64jvm7jfj_000000gn/T//cc2eS35f.s:7992   .debug_str:00000000000002d9 .LASF82
/var/folders/rt/4gvqv631095f64jvm7jfj_000000gn/T//cc2eS35f.s:7950   .debug_str:0000000000000208 .LASF83
/var/folders/rt/4gvqv631095f64jvm7jfj_000000gn/T//cc2eS35f.s:8030   .debug_str:000000000000038d .LASF84
GAS LISTING /var/folders/rt/4gvqv631095f64jvm7jfj_000000gn/T//cc2eS35f.s 			page 54


/var/folders/rt/4gvqv631095f64jvm7jfj_000000gn/T//cc2eS35f.s:7876   .debug_str:000000000000007c .LASF85
/var/folders/rt/4gvqv631095f64jvm7jfj_000000gn/T//cc2eS35f.s:8242   .debug_str:000000000000085d .LASF86
/var/folders/rt/4gvqv631095f64jvm7jfj_000000gn/T//cc2eS35f.s:7932   .debug_str:00000000000001b2 .LASF87
/var/folders/rt/4gvqv631095f64jvm7jfj_000000gn/T//cc2eS35f.s:7924   .debug_str:0000000000000186 .LASF88
/var/folders/rt/4gvqv631095f64jvm7jfj_000000gn/T//cc2eS35f.s:8176   .debug_str:0000000000000661 .LASF89
/var/folders/rt/4gvqv631095f64jvm7jfj_000000gn/T//cc2eS35f.s:8120   .debug_str:000000000000054d .LASF90
/var/folders/rt/4gvqv631095f64jvm7jfj_000000gn/T//cc2eS35f.s:8234   .debug_str:0000000000000839 .LASF91
/var/folders/rt/4gvqv631095f64jvm7jfj_000000gn/T//cc2eS35f.s:8006   .debug_str:000000000000031e .LASF92
/var/folders/rt/4gvqv631095f64jvm7jfj_000000gn/T//cc2eS35f.s:8102   .debug_str:00000000000004fa .LASF93
/var/folders/rt/4gvqv631095f64jvm7jfj_000000gn/T//cc2eS35f.s:7860   .debug_str:0000000000000032 .LASF94
/var/folders/rt/4gvqv631095f64jvm7jfj_000000gn/T//cc2eS35f.s:8152   .debug_str:00000000000005f5 .LASF95
/var/folders/rt/4gvqv631095f64jvm7jfj_000000gn/T//cc2eS35f.s:8034   .debug_str:0000000000000398 .LASF96
/var/folders/rt/4gvqv631095f64jvm7jfj_000000gn/T//cc2eS35f.s:8212   .debug_str:00000000000007bd .LASF97
/var/folders/rt/4gvqv631095f64jvm7jfj_000000gn/T//cc2eS35f.s:8228   .debug_str:0000000000000819 .LASF98
/var/folders/rt/4gvqv631095f64jvm7jfj_000000gn/T//cc2eS35f.s:7958   .debug_str:0000000000000238 .LASF99
/var/folders/rt/4gvqv631095f64jvm7jfj_000000gn/T//cc2eS35f.s:8018   .debug_str:0000000000000358 .LASF100
/var/folders/rt/4gvqv631095f64jvm7jfj_000000gn/T//cc2eS35f.s:8258   .debug_str:00000000000008b0 .LASF101
/var/folders/rt/4gvqv631095f64jvm7jfj_000000gn/T//cc2eS35f.s:8076   .debug_str:000000000000047a .LASF102
/var/folders/rt/4gvqv631095f64jvm7jfj_000000gn/T//cc2eS35f.s:8010   .debug_str:000000000000032e .LASF103
/var/folders/rt/4gvqv631095f64jvm7jfj_000000gn/T//cc2eS35f.s:8262   .debug_str:00000000000008c8 .LASF104
/var/folders/rt/4gvqv631095f64jvm7jfj_000000gn/T//cc2eS35f.s:8128   .debug_str:0000000000000573 .LASF105
/var/folders/rt/4gvqv631095f64jvm7jfj_000000gn/T//cc2eS35f.s:8264   .debug_str:00000000000008cd .LASF106
/var/folders/rt/4gvqv631095f64jvm7jfj_000000gn/T//cc2eS35f.s:7902   .debug_str:000000000000011a .LASF107
/var/folders/rt/4gvqv631095f64jvm7jfj_000000gn/T//cc2eS35f.s:8238   .debug_str:0000000000000848 .LASF108
/var/folders/rt/4gvqv631095f64jvm7jfj_000000gn/T//cc2eS35f.s:8016   .debug_str:000000000000034c .LASF109
/var/folders/rt/4gvqv631095f64jvm7jfj_000000gn/T//cc2eS35f.s:8218   .debug_str:00000000000007d4 .LASF110
/var/folders/rt/4gvqv631095f64jvm7jfj_000000gn/T//cc2eS35f.s:7960   .debug_str:0000000000000245 .LASF111
/var/folders/rt/4gvqv631095f64jvm7jfj_000000gn/T//cc2eS35f.s:8220   .debug_str:00000000000007e1 .LASF112
/var/folders/rt/4gvqv631095f64jvm7jfj_000000gn/T//cc2eS35f.s:7956   .debug_str:0000000000000227 .LASF113
/var/folders/rt/4gvqv631095f64jvm7jfj_000000gn/T//cc2eS35f.s:7880   .debug_str:000000000000008e .LASF114
/var/folders/rt/4gvqv631095f64jvm7jfj_000000gn/T//cc2eS35f.s:7882   .debug_str:000000000000009d .LASF115
/var/folders/rt/4gvqv631095f64jvm7jfj_000000gn/T//cc2eS35f.s:8108   .debug_str:0000000000000512 .LASF116
/var/folders/rt/4gvqv631095f64jvm7jfj_000000gn/T//cc2eS35f.s:8026   .debug_str:000000000000037b .LASF117
/var/folders/rt/4gvqv631095f64jvm7jfj_000000gn/T//cc2eS35f.s:8048   .debug_str:00000000000003da .LASF118
/var/folders/rt/4gvqv631095f64jvm7jfj_000000gn/T//cc2eS35f.s:8254   .debug_str:000000000000089d .LASF119
/var/folders/rt/4gvqv631095f64jvm7jfj_000000gn/T//cc2eS35f.s:7890   .debug_str:00000000000000d6 .LASF212
/var/folders/rt/4gvqv631095f64jvm7jfj_000000gn/T//cc2eS35f.s:7970   .debug_str:000000000000026f .LASF120
/var/folders/rt/4gvqv631095f64jvm7jfj_000000gn/T//cc2eS35f.s:8224   .debug_str:00000000000007fd .LASF121
/var/folders/rt/4gvqv631095f64jvm7jfj_000000gn/T//cc2eS35f.s:8098   .debug_str:00000000000004e4 .LASF122
/var/folders/rt/4gvqv631095f64jvm7jfj_000000gn/T//cc2eS35f.s:8226   .debug_str:0000000000000810 .LASF123
/var/folders/rt/4gvqv631095f64jvm7jfj_000000gn/T//cc2eS35f.s:7988   .debug_str:00000000000002c1 .LASF124
/var/folders/rt/4gvqv631095f64jvm7jfj_000000gn/T//cc2eS35f.s:8042   .debug_str:00000000000003c7 .LASF125
/var/folders/rt/4gvqv631095f64jvm7jfj_000000gn/T//cc2eS35f.s:8134   .debug_str:000000000000058a .LASF126
/var/folders/rt/4gvqv631095f64jvm7jfj_000000gn/T//cc2eS35f.s:7888   .debug_str:00000000000000ce .LASF127
/var/folders/rt/4gvqv631095f64jvm7jfj_000000gn/T//cc2eS35f.s:8126   .debug_str:0000000000000565 .LASF128
/var/folders/rt/4gvqv631095f64jvm7jfj_000000gn/T//cc2eS35f.s:8002   .debug_str:0000000000000313 .LASF129
/var/folders/rt/4gvqv631095f64jvm7jfj_000000gn/T//cc2eS35f.s:7954   .debug_str:0000000000000219 .LASF130
/var/folders/rt/4gvqv631095f64jvm7jfj_000000gn/T//cc2eS35f.s:7850   .debug_str:000000000000000c .LASF131
/var/folders/rt/4gvqv631095f64jvm7jfj_000000gn/T//cc2eS35f.s:7934   .debug_str:00000000000001ba .LASF132
/var/folders/rt/4gvqv631095f64jvm7jfj_000000gn/T//cc2eS35f.s:8064   .debug_str:0000000000000434 .LASF133
/var/folders/rt/4gvqv631095f64jvm7jfj_000000gn/T//cc2eS35f.s:7938   .debug_str:00000000000001c9 .LASF134
/var/folders/rt/4gvqv631095f64jvm7jfj_000000gn/T//cc2eS35f.s:8000   .debug_str:00000000000002fe .LASF135
/var/folders/rt/4gvqv631095f64jvm7jfj_000000gn/T//cc2eS35f.s:8222   .debug_str:00000000000007f0 .LASF136
/var/folders/rt/4gvqv631095f64jvm7jfj_000000gn/T//cc2eS35f.s:7872   .debug_str:000000000000006b .LASF137
/var/folders/rt/4gvqv631095f64jvm7jfj_000000gn/T//cc2eS35f.s:7912   .debug_str:000000000000014b .LASF138
/var/folders/rt/4gvqv631095f64jvm7jfj_000000gn/T//cc2eS35f.s:8036   .debug_str:000000000000039e .LASF139
/var/folders/rt/4gvqv631095f64jvm7jfj_000000gn/T//cc2eS35f.s:7896   .debug_str:00000000000000f6 .LASF140
GAS LISTING /var/folders/rt/4gvqv631095f64jvm7jfj_000000gn/T//cc2eS35f.s 			page 55


/var/folders/rt/4gvqv631095f64jvm7jfj_000000gn/T//cc2eS35f.s:8144   .debug_str:00000000000005c9 .LASF141
/var/folders/rt/4gvqv631095f64jvm7jfj_000000gn/T//cc2eS35f.s:8272   .debug_str:00000000000008ee .LASF142
/var/folders/rt/4gvqv631095f64jvm7jfj_000000gn/T//cc2eS35f.s:8050   .debug_str:00000000000003e3 .LASF143
/var/folders/rt/4gvqv631095f64jvm7jfj_000000gn/T//cc2eS35f.s:7892   .debug_str:00000000000000e1 .LASF144
/var/folders/rt/4gvqv631095f64jvm7jfj_000000gn/T//cc2eS35f.s:8240   .debug_str:0000000000000852 .LASF145
/var/folders/rt/4gvqv631095f64jvm7jfj_000000gn/T//cc2eS35f.s:8232   .debug_str:0000000000000830 .LASF146
/var/folders/rt/4gvqv631095f64jvm7jfj_000000gn/T//cc2eS35f.s:8230   .debug_str:0000000000000826 .LASF147
/var/folders/rt/4gvqv631095f64jvm7jfj_000000gn/T//cc2eS35f.s:8054   .debug_str:0000000000000401 .LASF148
/var/folders/rt/4gvqv631095f64jvm7jfj_000000gn/T//cc2eS35f.s:8198   .debug_str:00000000000006bd .LASF149
/var/folders/rt/4gvqv631095f64jvm7jfj_000000gn/T//cc2eS35f.s:8046   .debug_str:00000000000003d2 .LASF150
/var/folders/rt/4gvqv631095f64jvm7jfj_000000gn/T//cc2eS35f.s:8092   .debug_str:00000000000004cc .LASF151
/var/folders/rt/4gvqv631095f64jvm7jfj_000000gn/T//cc2eS35f.s:8210   .debug_str:00000000000007b5 .LASF152
/var/folders/rt/4gvqv631095f64jvm7jfj_000000gn/T//cc2eS35f.s:7868   .debug_str:000000000000005a .LASF153
/var/folders/rt/4gvqv631095f64jvm7jfj_000000gn/T//cc2eS35f.s:8088   .debug_str:00000000000004b4 .LASF154
/var/folders/rt/4gvqv631095f64jvm7jfj_000000gn/T//cc2eS35f.s:8044   .debug_str:00000000000003cd .LASF155
/var/folders/rt/4gvqv631095f64jvm7jfj_000000gn/T//cc2eS35f.s:8094   .debug_str:00000000000004d6 .LASF156
/var/folders/rt/4gvqv631095f64jvm7jfj_000000gn/T//cc2eS35f.s:8020   .debug_str:0000000000000365 .LASF157
/var/folders/rt/4gvqv631095f64jvm7jfj_000000gn/T//cc2eS35f.s:7852   .debug_str:0000000000000015 .LASF158
/var/folders/rt/4gvqv631095f64jvm7jfj_000000gn/T//cc2eS35f.s:8150   .debug_str:00000000000005ec .LASF159
/var/folders/rt/4gvqv631095f64jvm7jfj_000000gn/T//cc2eS35f.s:7914   .debug_str:0000000000000157 .LASF160
/var/folders/rt/4gvqv631095f64jvm7jfj_000000gn/T//cc2eS35f.s:7854   .debug_str:000000000000001c .LASF161
/var/folders/rt/4gvqv631095f64jvm7jfj_000000gn/T//cc2eS35f.s:7856   .debug_str:0000000000000023 .LASF162
/var/folders/rt/4gvqv631095f64jvm7jfj_000000gn/T//cc2eS35f.s:8188   .debug_str:000000000000068f .LASF163
/var/folders/rt/4gvqv631095f64jvm7jfj_000000gn/T//cc2eS35f.s:7980   .debug_str:000000000000029b .LASF164
/var/folders/rt/4gvqv631095f64jvm7jfj_000000gn/T//cc2eS35f.s:8202   .debug_str:000000000000074c .LASF165
/var/folders/rt/4gvqv631095f64jvm7jfj_000000gn/T//cc2eS35f.s:7952   .debug_str:0000000000000210 .LASF166
/var/folders/rt/4gvqv631095f64jvm7jfj_000000gn/T//cc2eS35f.s:7948   .debug_str:00000000000001fd .LASF167
/var/folders/rt/4gvqv631095f64jvm7jfj_000000gn/T//cc2eS35f.s:8162   .debug_str:0000000000000619 .LASF168
/var/folders/rt/4gvqv631095f64jvm7jfj_000000gn/T//cc2eS35f.s:8136   .debug_str:0000000000000594 .LASF169
/var/folders/rt/4gvqv631095f64jvm7jfj_000000gn/T//cc2eS35f.s:8248   .debug_str:0000000000000881 .LASF170
/var/folders/rt/4gvqv631095f64jvm7jfj_000000gn/T//cc2eS35f.s:7946   .debug_str:00000000000001f3 .LASF171
/var/folders/rt/4gvqv631095f64jvm7jfj_000000gn/T//cc2eS35f.s:8096   .debug_str:00000000000004df .LASF172
/var/folders/rt/4gvqv631095f64jvm7jfj_000000gn/T//cc2eS35f.s:7886   .debug_str:00000000000000c5 .LASF173
/var/folders/rt/4gvqv631095f64jvm7jfj_000000gn/T//cc2eS35f.s:8072   .debug_str:0000000000000465 .LASF174
/var/folders/rt/4gvqv631095f64jvm7jfj_000000gn/T//cc2eS35f.s:8028   .debug_str:0000000000000382 .LASF175
/var/folders/rt/4gvqv631095f64jvm7jfj_000000gn/T//cc2eS35f.s:8114   .debug_str:000000000000052e .LASF178
/var/folders/rt/4gvqv631095f64jvm7jfj_000000gn/T//cc2eS35f.s:1351   .text.no_button_press:0000000000000000 .LFB9
/var/folders/rt/4gvqv631095f64jvm7jfj_000000gn/T//cc2eS35f.s:1419   .text.no_button_press:0000000000000056 .LFE9
/var/folders/rt/4gvqv631095f64jvm7jfj_000000gn/T//cc2eS35f.s:6246   .debug_loc:0000000000000000 .LLST28
/var/folders/rt/4gvqv631095f64jvm7jfj_000000gn/T//cc2eS35f.s:8276   .debug_str:0000000000000906 .LASF176
/var/folders/rt/4gvqv631095f64jvm7jfj_000000gn/T//cc2eS35f.s:6264   .debug_loc:000000000000002c .LLST29
/var/folders/rt/4gvqv631095f64jvm7jfj_000000gn/T//cc2eS35f.s:8056   .debug_str:000000000000040a .LASF177
/var/folders/rt/4gvqv631095f64jvm7jfj_000000gn/T//cc2eS35f.s:6286   .debug_loc:0000000000000063 .LLST30
/var/folders/rt/4gvqv631095f64jvm7jfj_000000gn/T//cc2eS35f.s:1385   .text.no_button_press:0000000000000028 .LVL164
/var/folders/rt/4gvqv631095f64jvm7jfj_000000gn/T//cc2eS35f.s:1395   .text.no_button_press:0000000000000042 .LVL165
/var/folders/rt/4gvqv631095f64jvm7jfj_000000gn/T//cc2eS35f.s:8058   .debug_str:0000000000000414 .LASF179
/var/folders/rt/4gvqv631095f64jvm7jfj_000000gn/T//cc2eS35f.s:1227   .text.Buttonpressed:0000000000000000 .LFB8
/var/folders/rt/4gvqv631095f64jvm7jfj_000000gn/T//cc2eS35f.s:1344   .text.Buttonpressed:0000000000000072 .LFE8
/var/folders/rt/4gvqv631095f64jvm7jfj_000000gn/T//cc2eS35f.s:6308   .debug_loc:000000000000009a .LLST20
/var/folders/rt/4gvqv631095f64jvm7jfj_000000gn/T//cc2eS35f.s:6346   .debug_loc:00000000000000f6 .LLST21
/var/folders/rt/4gvqv631095f64jvm7jfj_000000gn/T//cc2eS35f.s:8270   .debug_str:00000000000008e9 .LASF180
/var/folders/rt/4gvqv631095f64jvm7jfj_000000gn/T//cc2eS35f.s:6386   .debug_loc:0000000000000154 .LLST22
/var/folders/rt/4gvqv631095f64jvm7jfj_000000gn/T//cc2eS35f.s:8246   .debug_str:0000000000000871 .LASF181
/var/folders/rt/4gvqv631095f64jvm7jfj_000000gn/T//cc2eS35f.s:6411   .debug_loc:000000000000018e .LLST23
/var/folders/rt/4gvqv631095f64jvm7jfj_000000gn/T//cc2eS35f.s:8038   .debug_str:00000000000003b6 .LASF182
/var/folders/rt/4gvqv631095f64jvm7jfj_000000gn/T//cc2eS35f.s:6446   .debug_loc:00000000000001e0 .LLST24
/var/folders/rt/4gvqv631095f64jvm7jfj_000000gn/T//cc2eS35f.s:7870   .debug_str:0000000000000063 .LASF183
GAS LISTING /var/folders/rt/4gvqv631095f64jvm7jfj_000000gn/T//cc2eS35f.s 			page 56


/var/folders/rt/4gvqv631095f64jvm7jfj_000000gn/T//cc2eS35f.s:6481   .debug_loc:0000000000000232 .LLST25
/var/folders/rt/4gvqv631095f64jvm7jfj_000000gn/T//cc2eS35f.s:7962   .debug_str:0000000000000253 .LASF184
/var/folders/rt/4gvqv631095f64jvm7jfj_000000gn/T//cc2eS35f.s:6514   .debug_loc:0000000000000282 .LLST26
/var/folders/rt/4gvqv631095f64jvm7jfj_000000gn/T//cc2eS35f.s:8184   .debug_str:000000000000067b .LASF187
/var/folders/rt/4gvqv631095f64jvm7jfj_000000gn/T//cc2eS35f.s:6549   .debug_loc:00000000000002d4 .LLST27
/var/folders/rt/4gvqv631095f64jvm7jfj_000000gn/T//cc2eS35f.s:1276   .text.Buttonpressed:0000000000000030 .LVL153
/var/folders/rt/4gvqv631095f64jvm7jfj_000000gn/T//cc2eS35f.s:1292   .text.Buttonpressed:0000000000000044 .LVL156
/var/folders/rt/4gvqv631095f64jvm7jfj_000000gn/T//cc2eS35f.s:1327   .text.Buttonpressed:0000000000000068 .LVL160
/var/folders/rt/4gvqv631095f64jvm7jfj_000000gn/T//cc2eS35f.s:7984   .debug_str:00000000000002af .LASF213
/var/folders/rt/4gvqv631095f64jvm7jfj_000000gn/T//cc2eS35f.s:928    .text.which_page:0000000000000000 .LFB7
/var/folders/rt/4gvqv631095f64jvm7jfj_000000gn/T//cc2eS35f.s:1220   .text.which_page:0000000000000132 .LFE7
/var/folders/rt/4gvqv631095f64jvm7jfj_000000gn/T//cc2eS35f.s:7998   .debug_str:00000000000002f9 .LASF185
/var/folders/rt/4gvqv631095f64jvm7jfj_000000gn/T//cc2eS35f.s:6562   .debug_loc:00000000000002f4 .LLST18
/var/folders/rt/4gvqv631095f64jvm7jfj_000000gn/T//cc2eS35f.s:7894   .debug_str:00000000000000ee .LASF186
/var/folders/rt/4gvqv631095f64jvm7jfj_000000gn/T//cc2eS35f.s:8250   .debug_str:0000000000000890 .LASF188
/var/folders/rt/4gvqv631095f64jvm7jfj_000000gn/T//cc2eS35f.s:6697   .debug_loc:0000000000000428 .LLST19
/var/folders/rt/4gvqv631095f64jvm7jfj_000000gn/T//cc2eS35f.s:8068   .debug_str:0000000000000456 .LASF189
/var/folders/rt/4gvqv631095f64jvm7jfj_000000gn/T//cc2eS35f.s:8104   .debug_str:0000000000000500 .LASF190
/var/folders/rt/4gvqv631095f64jvm7jfj_000000gn/T//cc2eS35f.s:8060   .debug_str:0000000000000422 .LASF214
/var/folders/rt/4gvqv631095f64jvm7jfj_000000gn/T//cc2eS35f.s:7900   .debug_str:0000000000000110 .LASF191
/var/folders/rt/4gvqv631095f64jvm7jfj_000000gn/T//cc2eS35f.s:7874   .debug_str:0000000000000076 .LASF192
/var/folders/rt/4gvqv631095f64jvm7jfj_000000gn/T//cc2eS35f.s:15     .text.pages:0000000000000000 .LFB5
/var/folders/rt/4gvqv631095f64jvm7jfj_000000gn/T//cc2eS35f.s:803    .text.pages:0000000000000622 .LFE5
/var/folders/rt/4gvqv631095f64jvm7jfj_000000gn/T//cc2eS35f.s:6770   .debug_loc:00000000000004d8 .LLST0
/var/folders/rt/4gvqv631095f64jvm7jfj_000000gn/T//cc2eS35f.s:6808   .debug_loc:0000000000000537 .LLST1
/var/folders/rt/4gvqv631095f64jvm7jfj_000000gn/T//cc2eS35f.s:8182   .debug_str:0000000000000675 .LASF193
/var/folders/rt/4gvqv631095f64jvm7jfj_000000gn/T//cc2eS35f.s:6826   .debug_loc:0000000000000563 .LLST2
/var/folders/rt/4gvqv631095f64jvm7jfj_000000gn/T//cc2eS35f.s:6990   .debug_loc:00000000000006f3 .LLST3
/var/folders/rt/4gvqv631095f64jvm7jfj_000000gn/T//cc2eS35f.s:7133   .debug_loc:000000000000083d .LLST4
/var/folders/rt/4gvqv631095f64jvm7jfj_000000gn/T//cc2eS35f.s:7203   .debug_loc:00000000000008e3 .LLST5
/var/folders/rt/4gvqv631095f64jvm7jfj_000000gn/T//cc2eS35f.s:7375   .debug_loc:0000000000000a6d .LLST6
/var/folders/rt/4gvqv631095f64jvm7jfj_000000gn/T//cc2eS35f.s:8196   .debug_str:00000000000006b4 .LASF194
/var/folders/rt/4gvqv631095f64jvm7jfj_000000gn/T//cc2eS35f.s:8154   .debug_str:00000000000005fb .LASF195
/var/folders/rt/4gvqv631095f64jvm7jfj_000000gn/T//cc2eS35f.s:7563   .debug_loc:0000000000000c0e .LLST7
/var/folders/rt/4gvqv631095f64jvm7jfj_000000gn/T//cc2eS35f.s:7600   .debug_loc:0000000000000c71 .LLST8
/var/folders/rt/4gvqv631095f64jvm7jfj_000000gn/T//cc2eS35f.s:224    .text.pages:0000000000000132 .LVL20
/var/folders/rt/4gvqv631095f64jvm7jfj_000000gn/T//cc2eS35f.s:236    .text.pages:0000000000000148 .LVL22
/var/folders/rt/4gvqv631095f64jvm7jfj_000000gn/T//cc2eS35f.s:8014   .debug_str:0000000000000347 .LASF196
/var/folders/rt/4gvqv631095f64jvm7jfj_000000gn/T//cc2eS35f.s:7626   .debug_loc:0000000000000cb3 .LLST9
/var/folders/rt/4gvqv631095f64jvm7jfj_000000gn/T//cc2eS35f.s:7637   .debug_loc:0000000000000cd1 .LLST10
/var/folders/rt/4gvqv631095f64jvm7jfj_000000gn/T//cc2eS35f.s:625    .text.pages:00000000000004a8 .LVL71
/var/folders/rt/4gvqv631095f64jvm7jfj_000000gn/T//cc2eS35f.s:633    .text.pages:00000000000004b0 .LVL72
/var/folders/rt/4gvqv631095f64jvm7jfj_000000gn/T//cc2eS35f.s:639    .text.pages:00000000000004bc .LVL74
/var/folders/rt/4gvqv631095f64jvm7jfj_000000gn/T//cc2eS35f.s:643    .text.pages:00000000000004c6 .LVL75
/var/folders/rt/4gvqv631095f64jvm7jfj_000000gn/T//cc2eS35f.s:648    .text.pages:00000000000004d0 .LVL76
/var/folders/rt/4gvqv631095f64jvm7jfj_000000gn/T//cc2eS35f.s:663    .text.pages:00000000000004ea .LVL80
/var/folders/rt/4gvqv631095f64jvm7jfj_000000gn/T//cc2eS35f.s:672    .text.pages:0000000000000504 .LVL81
/var/folders/rt/4gvqv631095f64jvm7jfj_000000gn/T//cc2eS35f.s:680    .text.pages:000000000000051a .LVL82
/var/folders/rt/4gvqv631095f64jvm7jfj_000000gn/T//cc2eS35f.s:685    .text.pages:0000000000000524 .LVL83
/var/folders/rt/4gvqv631095f64jvm7jfj_000000gn/T//cc2eS35f.s:690    .text.pages:000000000000052e .LVL84
/var/folders/rt/4gvqv631095f64jvm7jfj_000000gn/T//cc2eS35f.s:704    .text.pages:000000000000054a .LVL87
/var/folders/rt/4gvqv631095f64jvm7jfj_000000gn/T//cc2eS35f.s:712    .text.pages:0000000000000560 .LVL88
/var/folders/rt/4gvqv631095f64jvm7jfj_000000gn/T//cc2eS35f.s:722    .text.pages:000000000000057c .LVL89
/var/folders/rt/4gvqv631095f64jvm7jfj_000000gn/T//cc2eS35f.s:733    .text.pages:000000000000059e .LVL91
/var/folders/rt/4gvqv631095f64jvm7jfj_000000gn/T//cc2eS35f.s:741    .text.pages:00000000000005b8 .LVL92
/var/folders/rt/4gvqv631095f64jvm7jfj_000000gn/T//cc2eS35f.s:81     .text.pages:0000000000000032 .LVL2
/var/folders/rt/4gvqv631095f64jvm7jfj_000000gn/T//cc2eS35f.s:111    .text.pages:000000000000005a .LVL4
GAS LISTING /var/folders/rt/4gvqv631095f64jvm7jfj_000000gn/T//cc2eS35f.s 			page 57


/var/folders/rt/4gvqv631095f64jvm7jfj_000000gn/T//cc2eS35f.s:120    .text.pages:0000000000000066 .LVL5
/var/folders/rt/4gvqv631095f64jvm7jfj_000000gn/T//cc2eS35f.s:130    .text.pages:000000000000007e .LVL7
/var/folders/rt/4gvqv631095f64jvm7jfj_000000gn/T//cc2eS35f.s:139    .text.pages:0000000000000098 .LVL8
/var/folders/rt/4gvqv631095f64jvm7jfj_000000gn/T//cc2eS35f.s:149    .text.pages:00000000000000b2 .LVL9
/var/folders/rt/4gvqv631095f64jvm7jfj_000000gn/T//cc2eS35f.s:164    .text.pages:00000000000000ce .LVL11
/var/folders/rt/4gvqv631095f64jvm7jfj_000000gn/T//cc2eS35f.s:173    .text.pages:00000000000000dc .LVL13
/var/folders/rt/4gvqv631095f64jvm7jfj_000000gn/T//cc2eS35f.s:182    .text.pages:00000000000000f4 .LVL14
/var/folders/rt/4gvqv631095f64jvm7jfj_000000gn/T//cc2eS35f.s:247    .text.pages:0000000000000156 .LVL24
/var/folders/rt/4gvqv631095f64jvm7jfj_000000gn/T//cc2eS35f.s:257    .text.pages:000000000000016e .LVL26
/var/folders/rt/4gvqv631095f64jvm7jfj_000000gn/T//cc2eS35f.s:268    .text.pages:0000000000000188 .LVL27
/var/folders/rt/4gvqv631095f64jvm7jfj_000000gn/T//cc2eS35f.s:286    .text.pages:00000000000001a6 .LVL29
/var/folders/rt/4gvqv631095f64jvm7jfj_000000gn/T//cc2eS35f.s:296    .text.pages:00000000000001be .LVL31
/var/folders/rt/4gvqv631095f64jvm7jfj_000000gn/T//cc2eS35f.s:310    .text.pages:00000000000001da .LVL33
/var/folders/rt/4gvqv631095f64jvm7jfj_000000gn/T//cc2eS35f.s:320    .text.pages:00000000000001f2 .LVL35
/var/folders/rt/4gvqv631095f64jvm7jfj_000000gn/T//cc2eS35f.s:329    .text.pages:000000000000020c .LVL36
/var/folders/rt/4gvqv631095f64jvm7jfj_000000gn/T//cc2eS35f.s:344    .text.pages:0000000000000228 .LVL38
/var/folders/rt/4gvqv631095f64jvm7jfj_000000gn/T//cc2eS35f.s:354    .text.pages:0000000000000240 .LVL40
/var/folders/rt/4gvqv631095f64jvm7jfj_000000gn/T//cc2eS35f.s:363    .text.pages:000000000000025a .LVL41
/var/folders/rt/4gvqv631095f64jvm7jfj_000000gn/T//cc2eS35f.s:373    .text.pages:0000000000000274 .LVL42
/var/folders/rt/4gvqv631095f64jvm7jfj_000000gn/T//cc2eS35f.s:386    .text.pages:000000000000028e .LVL44
/var/folders/rt/4gvqv631095f64jvm7jfj_000000gn/T//cc2eS35f.s:396    .text.pages:00000000000002aa .LVL45
/var/folders/rt/4gvqv631095f64jvm7jfj_000000gn/T//cc2eS35f.s:406    .text.pages:00000000000002c6 .LVL46
/var/folders/rt/4gvqv631095f64jvm7jfj_000000gn/T//cc2eS35f.s:429    .text.pages:00000000000002fe .LVL48
/var/folders/rt/4gvqv631095f64jvm7jfj_000000gn/T//cc2eS35f.s:459    .text.pages:0000000000000318 .LVL52
/var/folders/rt/4gvqv631095f64jvm7jfj_000000gn/T//cc2eS35f.s:469    .text.pages:0000000000000334 .LVL53
/var/folders/rt/4gvqv631095f64jvm7jfj_000000gn/T//cc2eS35f.s:479    .text.pages:0000000000000350 .LVL54
/var/folders/rt/4gvqv631095f64jvm7jfj_000000gn/T//cc2eS35f.s:503    .text.pages:0000000000000388 .LVL56
/var/folders/rt/4gvqv631095f64jvm7jfj_000000gn/T//cc2eS35f.s:513    .text.pages:00000000000003a4 .LVL57
/var/folders/rt/4gvqv631095f64jvm7jfj_000000gn/T//cc2eS35f.s:523    .text.pages:00000000000003be .LVL58
/var/folders/rt/4gvqv631095f64jvm7jfj_000000gn/T//cc2eS35f.s:533    .text.pages:00000000000003da .LVL59
/var/folders/rt/4gvqv631095f64jvm7jfj_000000gn/T//cc2eS35f.s:560    .text.pages:000000000000041a .LVL61
/var/folders/rt/4gvqv631095f64jvm7jfj_000000gn/T//cc2eS35f.s:570    .text.pages:0000000000000432 .LVL63
/var/folders/rt/4gvqv631095f64jvm7jfj_000000gn/T//cc2eS35f.s:585    .text.pages:0000000000000450 .LVL65
/var/folders/rt/4gvqv631095f64jvm7jfj_000000gn/T//cc2eS35f.s:595    .text.pages:0000000000000468 .LVL67
/var/folders/rt/4gvqv631095f64jvm7jfj_000000gn/T//cc2eS35f.s:604    .text.pages:0000000000000482 .LVL68
/var/folders/rt/4gvqv631095f64jvm7jfj_000000gn/T//cc2eS35f.s:611    .text.pages:0000000000000496 .LVL69
/var/folders/rt/4gvqv631095f64jvm7jfj_000000gn/T//cc2eS35f.s:750    .text.pages:00000000000005c4 .LVL94
/var/folders/rt/4gvqv631095f64jvm7jfj_000000gn/T//cc2eS35f.s:755    .text.pages:00000000000005d0 .LVL95
/var/folders/rt/4gvqv631095f64jvm7jfj_000000gn/T//cc2eS35f.s:764    .text.pages:00000000000005de .LVL97
/var/folders/rt/4gvqv631095f64jvm7jfj_000000gn/T//cc2eS35f.s:774    .text.pages:00000000000005f6 .LVL99
/var/folders/rt/4gvqv631095f64jvm7jfj_000000gn/T//cc2eS35f.s:783    .text.pages:0000000000000610 .LVL100
/var/folders/rt/4gvqv631095f64jvm7jfj_000000gn/T//cc2eS35f.s:8082   .debug_str:0000000000000499 .LASF197
/var/folders/rt/4gvqv631095f64jvm7jfj_000000gn/T//cc2eS35f.s:810    .text.move_pointer:0000000000000000 .LFB6
/var/folders/rt/4gvqv631095f64jvm7jfj_000000gn/T//cc2eS35f.s:921    .text.move_pointer:000000000000006e .LFE6
/var/folders/rt/4gvqv631095f64jvm7jfj_000000gn/T//cc2eS35f.s:7648   .debug_loc:0000000000000cef .LLST11
/var/folders/rt/4gvqv631095f64jvm7jfj_000000gn/T//cc2eS35f.s:7686   .debug_loc:0000000000000d4b .LLST12
/var/folders/rt/4gvqv631095f64jvm7jfj_000000gn/T//cc2eS35f.s:7712   .debug_loc:0000000000000d8d .LLST13
/var/folders/rt/4gvqv631095f64jvm7jfj_000000gn/T//cc2eS35f.s:7741   .debug_loc:0000000000000dd2 .LLST14
/var/folders/rt/4gvqv631095f64jvm7jfj_000000gn/T//cc2eS35f.s:846    .text.move_pointer:000000000000001e .LBB8
/var/folders/rt/4gvqv631095f64jvm7jfj_000000gn/T//cc2eS35f.s:867    .text.move_pointer:0000000000000036 .LBE8
/var/folders/rt/4gvqv631095f64jvm7jfj_000000gn/T//cc2eS35f.s:7770   .debug_loc:0000000000000e17 .LLST15
/var/folders/rt/4gvqv631095f64jvm7jfj_000000gn/T//cc2eS35f.s:7778   .debug_loc:0000000000000e2b .LLST16
/var/folders/rt/4gvqv631095f64jvm7jfj_000000gn/T//cc2eS35f.s:7792   .debug_loc:0000000000000e4c .LLST17
/var/folders/rt/4gvqv631095f64jvm7jfj_000000gn/T//cc2eS35f.s:859    .text.move_pointer:0000000000000032 .LVL106
/var/folders/rt/4gvqv631095f64jvm7jfj_000000gn/T//cc2eS35f.s:892    .text.move_pointer:0000000000000052 .LVL109
/var/folders/rt/4gvqv631095f64jvm7jfj_000000gn/T//cc2eS35f.s:907    .text.move_pointer:0000000000000066 .LVL112
/var/folders/rt/4gvqv631095f64jvm7jfj_000000gn/T//cc2eS35f.s:7936   .debug_str:00000000000001bf .LASF198
GAS LISTING /var/folders/rt/4gvqv631095f64jvm7jfj_000000gn/T//cc2eS35f.s 			page 58


/var/folders/rt/4gvqv631095f64jvm7jfj_000000gn/T//cc2eS35f.s:8192   .debug_str:00000000000006a2 .LASF199
/var/folders/rt/4gvqv631095f64jvm7jfj_000000gn/T//cc2eS35f.s:8206   .debug_str:0000000000000796 .LASF200
/var/folders/rt/4gvqv631095f64jvm7jfj_000000gn/T//cc2eS35f.s:8052   .debug_str:00000000000003ef .LASF201
/var/folders/rt/4gvqv631095f64jvm7jfj_000000gn/T//cc2eS35f.s:8214   .debug_str:00000000000007c2 .LASF202
/var/folders/rt/4gvqv631095f64jvm7jfj_000000gn/T//cc2eS35f.s:8008   .debug_str:0000000000000325 .LASF203
/var/folders/rt/4gvqv631095f64jvm7jfj_000000gn/T//cc2eS35f.s:7918   .debug_str:0000000000000169 .LASF204
/var/folders/rt/4gvqv631095f64jvm7jfj_000000gn/T//cc2eS35f.s:8244   .debug_str:0000000000000867 .LASF205
/var/folders/rt/4gvqv631095f64jvm7jfj_000000gn/T//cc2eS35f.s:7864   .debug_str:0000000000000042 .LASF206
/var/folders/rt/4gvqv631095f64jvm7jfj_000000gn/T//cc2eS35f.s:7930   .debug_str:00000000000001a1 .LASF207
/var/folders/rt/4gvqv631095f64jvm7jfj_000000gn/T//cc2eS35f.s:8078   .debug_str:0000000000000489 .LASF208
/var/folders/rt/4gvqv631095f64jvm7jfj_000000gn/T//cc2eS35f.s:1369   .text.no_button_press:0000000000000014 .LCFI18
/var/folders/rt/4gvqv631095f64jvm7jfj_000000gn/T//cc2eS35f.s:1412   .text.no_button_press:0000000000000052 .LCFI19
/var/folders/rt/4gvqv631095f64jvm7jfj_000000gn/T//cc2eS35f.s:1354   .text.no_button_press:0000000000000000 .LVL162
/var/folders/rt/4gvqv631095f64jvm7jfj_000000gn/T//cc2eS35f.s:1376   .text.no_button_press:000000000000001a .LVL163
/var/folders/rt/4gvqv631095f64jvm7jfj_000000gn/T//cc2eS35f.s:1410   .text.no_button_press:0000000000000050 .LVL167
/var/folders/rt/4gvqv631095f64jvm7jfj_000000gn/T//cc2eS35f.s:1415   .text.no_button_press:0000000000000054 .LVL168
/var/folders/rt/4gvqv631095f64jvm7jfj_000000gn/T//cc2eS35f.s:1407   .text.no_button_press:000000000000004e .LVL166
/var/folders/rt/4gvqv631095f64jvm7jfj_000000gn/T//cc2eS35f.s:1235   .text.Buttonpressed:0000000000000002 .LCFI12
/var/folders/rt/4gvqv631095f64jvm7jfj_000000gn/T//cc2eS35f.s:1272   .text.Buttonpressed:0000000000000028 .LCFI13
/var/folders/rt/4gvqv631095f64jvm7jfj_000000gn/T//cc2eS35f.s:1278   .text.Buttonpressed:0000000000000030 .LCFI14
/var/folders/rt/4gvqv631095f64jvm7jfj_000000gn/T//cc2eS35f.s:1322   .text.Buttonpressed:0000000000000060 .LCFI15
/var/folders/rt/4gvqv631095f64jvm7jfj_000000gn/T//cc2eS35f.s:1329   .text.Buttonpressed:0000000000000068 .LCFI16
/var/folders/rt/4gvqv631095f64jvm7jfj_000000gn/T//cc2eS35f.s:1340   .text.Buttonpressed:0000000000000070 .LCFI17
/var/folders/rt/4gvqv631095f64jvm7jfj_000000gn/T//cc2eS35f.s:1230   .text.Buttonpressed:0000000000000000 .LVL147
/var/folders/rt/4gvqv631095f64jvm7jfj_000000gn/T//cc2eS35f.s:1246   .text.Buttonpressed:000000000000000c .LVL148
/var/folders/rt/4gvqv631095f64jvm7jfj_000000gn/T//cc2eS35f.s:1270   .text.Buttonpressed:0000000000000026 .LVL152
/var/folders/rt/4gvqv631095f64jvm7jfj_000000gn/T//cc2eS35f.s:1320   .text.Buttonpressed:000000000000005e .LVL158
/var/folders/rt/4gvqv631095f64jvm7jfj_000000gn/T//cc2eS35f.s:1338   .text.Buttonpressed:000000000000006e .LVL161
/var/folders/rt/4gvqv631095f64jvm7jfj_000000gn/T//cc2eS35f.s:1282   .text.Buttonpressed:0000000000000032 .LVL154
/var/folders/rt/4gvqv631095f64jvm7jfj_000000gn/T//cc2eS35f.s:1264   .text.Buttonpressed:0000000000000022 .LVL151
/var/folders/rt/4gvqv631095f64jvm7jfj_000000gn/T//cc2eS35f.s:1324   .text.Buttonpressed:0000000000000060 .LVL159
/var/folders/rt/4gvqv631095f64jvm7jfj_000000gn/T//cc2eS35f.s:1249   .text.Buttonpressed:000000000000000e .LVL149
/var/folders/rt/4gvqv631095f64jvm7jfj_000000gn/T//cc2eS35f.s:1285   .text.Buttonpressed:0000000000000036 .LVL155
/var/folders/rt/4gvqv631095f64jvm7jfj_000000gn/T//cc2eS35f.s:1310   .text.Buttonpressed:0000000000000054 .LVL157
/var/folders/rt/4gvqv631095f64jvm7jfj_000000gn/T//cc2eS35f.s:1252   .text.Buttonpressed:0000000000000014 .LVL150
/var/folders/rt/4gvqv631095f64jvm7jfj_000000gn/T//cc2eS35f.s:931    .text.which_page:0000000000000000 .LVL114
/var/folders/rt/4gvqv631095f64jvm7jfj_000000gn/T//cc2eS35f.s:1030   .text.which_page:0000000000000064 .LVL121
/var/folders/rt/4gvqv631095f64jvm7jfj_000000gn/T//cc2eS35f.s:1032   .text.which_page:0000000000000066 .LVL122
/var/folders/rt/4gvqv631095f64jvm7jfj_000000gn/T//cc2eS35f.s:1036   .text.which_page:0000000000000068 .LVL123
/var/folders/rt/4gvqv631095f64jvm7jfj_000000gn/T//cc2eS35f.s:1049   .text.which_page:0000000000000080 .LVL124
/var/folders/rt/4gvqv631095f64jvm7jfj_000000gn/T//cc2eS35f.s:1053   .text.which_page:0000000000000082 .LVL125
/var/folders/rt/4gvqv631095f64jvm7jfj_000000gn/T//cc2eS35f.s:1064   .text.which_page:0000000000000094 .LVL126
/var/folders/rt/4gvqv631095f64jvm7jfj_000000gn/T//cc2eS35f.s:1068   .text.which_page:0000000000000096 .LVL127
/var/folders/rt/4gvqv631095f64jvm7jfj_000000gn/T//cc2eS35f.s:1079   .text.which_page:00000000000000a8 .LVL128
/var/folders/rt/4gvqv631095f64jvm7jfj_000000gn/T//cc2eS35f.s:1083   .text.which_page:00000000000000aa .LVL129
/var/folders/rt/4gvqv631095f64jvm7jfj_000000gn/T//cc2eS35f.s:1094   .text.which_page:00000000000000bc .LVL130
/var/folders/rt/4gvqv631095f64jvm7jfj_000000gn/T//cc2eS35f.s:1098   .text.which_page:00000000000000be .LVL131
/var/folders/rt/4gvqv631095f64jvm7jfj_000000gn/T//cc2eS35f.s:1109   .text.which_page:00000000000000d0 .LVL132
/var/folders/rt/4gvqv631095f64jvm7jfj_000000gn/T//cc2eS35f.s:1113   .text.which_page:00000000000000d2 .LVL133
/var/folders/rt/4gvqv631095f64jvm7jfj_000000gn/T//cc2eS35f.s:1124   .text.which_page:00000000000000e4 .LVL134
/var/folders/rt/4gvqv631095f64jvm7jfj_000000gn/T//cc2eS35f.s:1128   .text.which_page:00000000000000e6 .LVL135
/var/folders/rt/4gvqv631095f64jvm7jfj_000000gn/T//cc2eS35f.s:1139   .text.which_page:00000000000000f8 .LVL136
/var/folders/rt/4gvqv631095f64jvm7jfj_000000gn/T//cc2eS35f.s:1143   .text.which_page:00000000000000fa .LVL137
/var/folders/rt/4gvqv631095f64jvm7jfj_000000gn/T//cc2eS35f.s:1156   .text.which_page:000000000000010a .LVL138
/var/folders/rt/4gvqv631095f64jvm7jfj_000000gn/T//cc2eS35f.s:1160   .text.which_page:000000000000010c .LVL139
/var/folders/rt/4gvqv631095f64jvm7jfj_000000gn/T//cc2eS35f.s:1167   .text.which_page:0000000000000112 .LVL141
/var/folders/rt/4gvqv631095f64jvm7jfj_000000gn/T//cc2eS35f.s:1179   .text.which_page:0000000000000124 .LVL143
GAS LISTING /var/folders/rt/4gvqv631095f64jvm7jfj_000000gn/T//cc2eS35f.s 			page 59


/var/folders/rt/4gvqv631095f64jvm7jfj_000000gn/T//cc2eS35f.s:1206   .text.which_page:000000000000012a .LVL144
/var/folders/rt/4gvqv631095f64jvm7jfj_000000gn/T//cc2eS35f.s:1212   .text.which_page:000000000000012e .LVL146
/var/folders/rt/4gvqv631095f64jvm7jfj_000000gn/T//cc2eS35f.s:970    .text.which_page:000000000000002e .LVL115
/var/folders/rt/4gvqv631095f64jvm7jfj_000000gn/T//cc2eS35f.s:988    .text.which_page:0000000000000046 .LVL118
/var/folders/rt/4gvqv631095f64jvm7jfj_000000gn/T//cc2eS35f.s:1021   .text.which_page:000000000000005e .LVL119
/var/folders/rt/4gvqv631095f64jvm7jfj_000000gn/T//cc2eS35f.s:1026   .text.which_page:0000000000000062 .LVL120
/var/folders/rt/4gvqv631095f64jvm7jfj_000000gn/T//cc2eS35f.s:1162   .text.which_page:000000000000010e .LVL140
/var/folders/rt/4gvqv631095f64jvm7jfj_000000gn/T//cc2eS35f.s:1210   .text.which_page:000000000000012c .LVL145
/var/folders/rt/4gvqv631095f64jvm7jfj_000000gn/T//cc2eS35f.s:36     .text.pages:0000000000000016 .LCFI0
/var/folders/rt/4gvqv631095f64jvm7jfj_000000gn/T//cc2eS35f.s:107    .text.pages:0000000000000052 .LCFI1
/var/folders/rt/4gvqv631095f64jvm7jfj_000000gn/T//cc2eS35f.s:113    .text.pages:000000000000005a .LCFI2
/var/folders/rt/4gvqv631095f64jvm7jfj_000000gn/T//cc2eS35f.s:449    .text.pages:000000000000030c .LCFI3
/var/folders/rt/4gvqv631095f64jvm7jfj_000000gn/T//cc2eS35f.s:454    .text.pages:000000000000030e .LCFI4
/var/folders/rt/4gvqv631095f64jvm7jfj_000000gn/T//cc2eS35f.s:793    .text.pages:0000000000000620 .LCFI5
/var/folders/rt/4gvqv631095f64jvm7jfj_000000gn/T//cc2eS35f.s:19     .text.pages:0000000000000000 .LVL0
/var/folders/rt/4gvqv631095f64jvm7jfj_000000gn/T//cc2eS35f.s:31     .text.pages:0000000000000010 .LVL1
/var/folders/rt/4gvqv631095f64jvm7jfj_000000gn/T//cc2eS35f.s:791    .text.pages:0000000000000620 .LVL101
/var/folders/rt/4gvqv631095f64jvm7jfj_000000gn/T//cc2eS35f.s:166    .text.pages:00000000000000d0 .LVL12
/var/folders/rt/4gvqv631095f64jvm7jfj_000000gn/T//cc2eS35f.s:197    .text.pages:0000000000000102 .LVL17
/var/folders/rt/4gvqv631095f64jvm7jfj_000000gn/T//cc2eS35f.s:212    .text.pages:0000000000000118 .LVL19
/var/folders/rt/4gvqv631095f64jvm7jfj_000000gn/T//cc2eS35f.s:239    .text.pages:000000000000014a .LVL23
/var/folders/rt/4gvqv631095f64jvm7jfj_000000gn/T//cc2eS35f.s:279    .text.pages:000000000000019a .LVL28
/var/folders/rt/4gvqv631095f64jvm7jfj_000000gn/T//cc2eS35f.s:303    .text.pages:00000000000001ce .LVL32
/var/folders/rt/4gvqv631095f64jvm7jfj_000000gn/T//cc2eS35f.s:337    .text.pages:000000000000021c .LVL37
/var/folders/rt/4gvqv631095f64jvm7jfj_000000gn/T//cc2eS35f.s:381    .text.pages:0000000000000284 .LVL43
/var/folders/rt/4gvqv631095f64jvm7jfj_000000gn/T//cc2eS35f.s:452    .text.pages:000000000000030e .LVL51
/var/folders/rt/4gvqv631095f64jvm7jfj_000000gn/T//cc2eS35f.s:498    .text.pages:000000000000037e .LVL55
/var/folders/rt/4gvqv631095f64jvm7jfj_000000gn/T//cc2eS35f.s:553    .text.pages:000000000000040e .LVL60
/var/folders/rt/4gvqv631095f64jvm7jfj_000000gn/T//cc2eS35f.s:578    .text.pages:0000000000000444 .LVL64
/var/folders/rt/4gvqv631095f64jvm7jfj_000000gn/T//cc2eS35f.s:619    .text.pages:000000000000049e .LVL70
/var/folders/rt/4gvqv631095f64jvm7jfj_000000gn/T//cc2eS35f.s:744    .text.pages:00000000000005ba .LVL93
/var/folders/rt/4gvqv631095f64jvm7jfj_000000gn/T//cc2eS35f.s:757    .text.pages:00000000000005d2 .LVL96
/var/folders/rt/4gvqv631095f64jvm7jfj_000000gn/T//cc2eS35f.s:90     .text.pages:0000000000000044 .LVL3
/var/folders/rt/4gvqv631095f64jvm7jfj_000000gn/T//cc2eS35f.s:124    .text.pages:000000000000006a .LVL6
/var/folders/rt/4gvqv631095f64jvm7jfj_000000gn/T//cc2eS35f.s:204    .text.pages:0000000000000108 .LVL18
/var/folders/rt/4gvqv631095f64jvm7jfj_000000gn/T//cc2eS35f.s:251    .text.pages:000000000000015a .LVL25
/var/folders/rt/4gvqv631095f64jvm7jfj_000000gn/T//cc2eS35f.s:290    .text.pages:00000000000001aa .LVL30
/var/folders/rt/4gvqv631095f64jvm7jfj_000000gn/T//cc2eS35f.s:314    .text.pages:00000000000001de .LVL34
/var/folders/rt/4gvqv631095f64jvm7jfj_000000gn/T//cc2eS35f.s:348    .text.pages:000000000000022c .LVL39
/var/folders/rt/4gvqv631095f64jvm7jfj_000000gn/T//cc2eS35f.s:438    .text.pages:0000000000000302 .LVL49
/var/folders/rt/4gvqv631095f64jvm7jfj_000000gn/T//cc2eS35f.s:564    .text.pages:000000000000041e .LVL62
/var/folders/rt/4gvqv631095f64jvm7jfj_000000gn/T//cc2eS35f.s:589    .text.pages:0000000000000454 .LVL66
/var/folders/rt/4gvqv631095f64jvm7jfj_000000gn/T//cc2eS35f.s:652    .text.pages:00000000000004d4 .LVL77
/var/folders/rt/4gvqv631095f64jvm7jfj_000000gn/T//cc2eS35f.s:768    .text.pages:00000000000005e2 .LVL98
/var/folders/rt/4gvqv631095f64jvm7jfj_000000gn/T//cc2eS35f.s:188    .text.pages:00000000000000f6 .LVL15
/var/folders/rt/4gvqv631095f64jvm7jfj_000000gn/T//cc2eS35f.s:441    .text.pages:0000000000000304 .LVL50
/var/folders/rt/4gvqv631095f64jvm7jfj_000000gn/T//cc2eS35f.s:635    .text.pages:00000000000004b2 .LVL73
/var/folders/rt/4gvqv631095f64jvm7jfj_000000gn/T//cc2eS35f.s:159    .text.pages:00000000000000c4 .LVL10
/var/folders/rt/4gvqv631095f64jvm7jfj_000000gn/T//cc2eS35f.s:192    .text.pages:00000000000000fc .LVL16
/var/folders/rt/4gvqv631095f64jvm7jfj_000000gn/T//cc2eS35f.s:228    .text.pages:0000000000000134 .LVL21
/var/folders/rt/4gvqv631095f64jvm7jfj_000000gn/T//cc2eS35f.s:425    .text.pages:00000000000002f6 .LVL47
/var/folders/rt/4gvqv631095f64jvm7jfj_000000gn/T//cc2eS35f.s:655    .text.pages:00000000000004d6 .LVL78
/var/folders/rt/4gvqv631095f64jvm7jfj_000000gn/T//cc2eS35f.s:661    .text.pages:00000000000004e2 .LVL79
/var/folders/rt/4gvqv631095f64jvm7jfj_000000gn/T//cc2eS35f.s:695    .text.pages:0000000000000534 .LVL85
/var/folders/rt/4gvqv631095f64jvm7jfj_000000gn/T//cc2eS35f.s:702    .text.pages:0000000000000542 .LVL86
/var/folders/rt/4gvqv631095f64jvm7jfj_000000gn/T//cc2eS35f.s:819    .text.move_pointer:0000000000000004 .LCFI6
/var/folders/rt/4gvqv631095f64jvm7jfj_000000gn/T//cc2eS35f.s:839    .text.move_pointer:000000000000001c .LCFI7
GAS LISTING /var/folders/rt/4gvqv631095f64jvm7jfj_000000gn/T//cc2eS35f.s 			page 60


/var/folders/rt/4gvqv631095f64jvm7jfj_000000gn/T//cc2eS35f.s:844    .text.move_pointer:000000000000001e .LCFI8
/var/folders/rt/4gvqv631095f64jvm7jfj_000000gn/T//cc2eS35f.s:888    .text.move_pointer:000000000000004a .LCFI9
/var/folders/rt/4gvqv631095f64jvm7jfj_000000gn/T//cc2eS35f.s:894    .text.move_pointer:0000000000000052 .LCFI10
/var/folders/rt/4gvqv631095f64jvm7jfj_000000gn/T//cc2eS35f.s:915    .text.move_pointer:000000000000006c .LCFI11
/var/folders/rt/4gvqv631095f64jvm7jfj_000000gn/T//cc2eS35f.s:813    .text.move_pointer:0000000000000000 .LVL102
/var/folders/rt/4gvqv631095f64jvm7jfj_000000gn/T//cc2eS35f.s:842    .text.move_pointer:000000000000001e .LVL103
/var/folders/rt/4gvqv631095f64jvm7jfj_000000gn/T//cc2eS35f.s:875    .text.move_pointer:000000000000003a .LVL108
/var/folders/rt/4gvqv631095f64jvm7jfj_000000gn/T//cc2eS35f.s:913    .text.move_pointer:000000000000006c .LVL113
/var/folders/rt/4gvqv631095f64jvm7jfj_000000gn/T//cc2eS35f.s:851    .text.move_pointer:0000000000000020 .LVL104
/var/folders/rt/4gvqv631095f64jvm7jfj_000000gn/T//cc2eS35f.s:899    .text.move_pointer:0000000000000054 .LVL110
/var/folders/rt/4gvqv631095f64jvm7jfj_000000gn/T//cc2eS35f.s:855    .text.move_pointer:0000000000000024 .LVL105
/var/folders/rt/4gvqv631095f64jvm7jfj_000000gn/T//cc2eS35f.s:903    .text.move_pointer:0000000000000058 .LVL111
/var/folders/rt/4gvqv631095f64jvm7jfj_000000gn/T//cc2eS35f.s:864    .text.move_pointer:0000000000000036 .LVL107
/var/folders/rt/4gvqv631095f64jvm7jfj_000000gn/T//cc2eS35f.s:1586   .debug_info:0000000000000000 .Ldebug_info0
/var/folders/rt/4gvqv631095f64jvm7jfj_000000gn/T//cc2eS35f.s:184    .text.pages:00000000000000f4 .LBB2
/var/folders/rt/4gvqv631095f64jvm7jfj_000000gn/T//cc2eS35f.s:199    .text.pages:0000000000000102 .LBE2
/var/folders/rt/4gvqv631095f64jvm7jfj_000000gn/T//cc2eS35f.s:214    .text.pages:0000000000000118 .LBB3
/var/folders/rt/4gvqv631095f64jvm7jfj_000000gn/T//cc2eS35f.s:241    .text.pages:000000000000014a .LBE3
/var/folders/rt/4gvqv631095f64jvm7jfj_000000gn/T//cc2eS35f.s:622    .text.pages:00000000000004a0 .LBB4
/var/folders/rt/4gvqv631095f64jvm7jfj_000000gn/T//cc2eS35f.s:627    .text.pages:00000000000004a8 .LBE4
/var/folders/rt/4gvqv631095f64jvm7jfj_000000gn/T//cc2eS35f.s:629    .text.pages:00000000000004a8 .LBB5
/var/folders/rt/4gvqv631095f64jvm7jfj_000000gn/T//cc2eS35f.s:746    .text.pages:00000000000005ba .LBE5

UNDEFINED SYMBOLS
__fixunssfsi
LCD_Clear
LCD_ShowStr
LCD_ShowChar
LCD_ShowNum
initPlant
gpio_bit_set
LCD_Wait_On_Queue
read_temp
ADC_read
renderAllHistory
LCD_Fill
