GAS LISTING /var/folders/rt/4gvqv631095f64jvm7jfj_000000gn/T//cchVvyDg.s 			page 1


   1              		.file	"menu.c"
   2              		.option nopic
   3              		.attribute arch, "rv32i2p0_m2p0_a2p0_c2p0"
   4              		.attribute unaligned_access, 0
   5              		.attribute stack_align, 16
   6              		.text
   7              	.Ltext0:
   8              		.cfi_sections	.debug_frame
   9              		.globl	__fixunssfsi
  10              		.section	.text.pages,"ax",@progbits
  11              		.align	1
  12              		.globl	pages
  14              	pages:
  15              	.LFB5:
  16              		.file 1 "menu.c"
   1:menu.c        **** #include "adc.h"
   2:menu.c        **** #include "menu.h"
   3:menu.c        **** #include "lcd.h"
   4:menu.c        **** #include "plant.h"
   5:menu.c        **** #include "renderPlants.h"
   6:menu.c        **** #define BACK_Y 124
   7:menu.c        **** #define TIMEOUT_mins 5
   8:menu.c        **** #define TIMOUT_ms ( TIMEOUT_mins *60000)
   9:menu.c        **** 
  10:menu.c        **** void pages(int page, int point, int *pNumberOfPlants, Plant allPlants[])
  11:menu.c        **** {
  17              		.loc 1 11 1
  18              		.cfi_startproc
  19              	.LVL0:
  12:menu.c        ****   int x = 12;
  20              		.loc 1 12 3
  13:menu.c        ****   int y = 10;
  21              		.loc 1 13 3
  14:menu.c        ****   int plantnum = 1;
  22              		.loc 1 14 3
  15:menu.c        ****   int runtemp =0;
  23              		.loc 1 15 3
  16:menu.c        ****   float temp=0;
  24              		.loc 1 16 3
  17:menu.c        ****   
  18:menu.c        ****   switch(page)
  25              		.loc 1 18 3
  26 0000 C547     		li	a5,17
  27 0002 63EFA760 		bgtu	a0,a5,.L22
  28 0006 B7070000 		lui	a5,%hi(.L4)
  29 000a 93870700 		addi	a5,a5,%lo(.L4)
  30 000e 0A05     		slli	a0,a0,2
  31              	.LVL1:
  32 0010 3E95     		add	a0,a0,a5
  33 0012 1C41     		lw	a5,0(a0)
  11:menu.c        ****   int x = 12;
  34              		.loc 1 11 1 is_stmt 0
  35 0014 3971     		addi	sp,sp,-64
  36              	.LCFI0:
  37              		.cfi_def_cfa_offset 64
  38 0016 22DC     		sw	s0,56(sp)
  39 0018 26DA     		sw	s1,52(sp)
GAS LISTING /var/folders/rt/4gvqv631095f64jvm7jfj_000000gn/T//cchVvyDg.s 			page 2


  40 001a 06DE     		sw	ra,60(sp)
  41 001c 4AD8     		sw	s2,48(sp)
  42 001e 4ED6     		sw	s3,44(sp)
  43 0020 52D4     		sw	s4,40(sp)
  44              		.cfi_offset 8, -8
  45              		.cfi_offset 9, -12
  46              		.cfi_offset 1, -4
  47              		.cfi_offset 18, -16
  48              		.cfi_offset 19, -20
  49              		.cfi_offset 20, -24
  50 0022 B684     		mv	s1,a3
  51 0024 3284     		mv	s0,a2
  52              		.loc 1 18 3
  53 0026 8287     		jr	a5
  54              		.section	.rodata.pages,"a",@progbits
  55              		.align	2
  56              		.align	2
  57              	.L4:
  58 0000 00000000 		.word	.L18
  59 0004 00000000 		.word	.L17
  60 0008 00000000 		.word	.L16
  61 000c 00000000 		.word	.L15
  62 0010 00000000 		.word	.L14
  63 0014 00000000 		.word	.L13
  64 0018 00000000 		.word	.L12
  65 001c 00000000 		.word	.L12
  66 0020 00000000 		.word	.L11
  67 0024 00000000 		.word	.L10
  68 0028 00000000 		.word	.L9
  69 002c 00000000 		.word	.L8
  70 0030 00000000 		.word	.L7
  71 0034 00000000 		.word	.L6
  72 0038 00000000 		.word	.L5
  73 003c 00000000 		.word	.L1
  74 0040 00000000 		.word	.L1
  75 0044 00000000 		.word	.L3
  76              		.section	.text.pages
  77              	.L18:
  19:menu.c        ****   {
  20:menu.c        ****     case HOME: {LCD_Clear(BLACK);
  78              		.loc 1 20 17 is_stmt 1
  79 0028 0145     		li	a0,0
  80 002a 97000000 		call	LCD_Clear
  80      E7800000 
  81              	.LVL2:
  21:menu.c        ****     LCD_ShowStr(10, 10, "Green fingers", WHITE, TRANSPARENT);}break;
  82              		.loc 1 21 5
  83 0032 C166     		li	a3,65536
  84 0034 37060000 		lui	a2,%hi(.LC0)
  85 0038 0547     		li	a4,1
  86 003a FD16     		addi	a3,a3,-1
  87 003c 13060600 		addi	a2,a2,%lo(.LC0)
  88 0040 A945     		li	a1,10
  89 0042 2945     		li	a0,10
  90              	.LVL3:
  91              	.L26:
  22:menu.c        ****     case MAINMENU: {
GAS LISTING /var/folders/rt/4gvqv631095f64jvm7jfj_000000gn/T//cchVvyDg.s 			page 3


  23:menu.c        ****       
  24:menu.c        ****       LCD_Clear(BLACK);
  25:menu.c        ****       LCD_ShowChar(1,point,'>',TRANSPARENT,WHITE);
  26:menu.c        ****       LCD_ShowStr(x, y, "see data", WHITE, TRANSPARENT);y+=16;
  27:menu.c        ****       LCD_ShowStr(x, y, "register a plant", WHITE, TRANSPARENT);y+=16;
  28:menu.c        ****       LCD_ShowStr(x, y, "reset", WHITE, TRANSPARENT);y+=16;
  29:menu.c        ****       LCD_ShowStr(x, BACK_Y, "back", WHITE, TRANSPARENT);}break;
  30:menu.c        **** 
  31:menu.c        ****      case SEEDATA: {
  32:menu.c        ****       LCD_Clear(BLACK);
  33:menu.c        ****       LCD_ShowChar(1,point,'>',TRANSPARENT,WHITE);
  34:menu.c        ****       for(int i=0; i<(*pNumberOfPlants);i++)
  35:menu.c        ****       {
  36:menu.c        ****         LCD_ShowStr(x, y, "plant ", WHITE, TRANSPARENT);
  37:menu.c        ****         LCD_ShowNum(x+48,y,i+1,TRANSPARENT,WHITE);y+=16;
  38:menu.c        ****       }
  39:menu.c        ****       LCD_ShowStr(x, BACK_Y, "back", WHITE, TRANSPARENT);
  40:menu.c        ****      }break;
  41:menu.c        ****       case plant1:{
  42:menu.c        ****         LCD_Clear(BLACK);
  43:menu.c        ****         LCD_ShowChar(1,point,'>',TRANSPARENT,WHITE);
  44:menu.c        ****         LCD_ShowStr(x, y, "See snap shot", WHITE, TRANSPARENT);y+=16;
  45:menu.c        ****         LCD_ShowStr(x, y, "view history", WHITE, TRANSPARENT);
  46:menu.c        ****         LCD_ShowStr(x, BACK_Y, "back", WHITE, TRANSPARENT);}break;
  47:menu.c        ****       case plant2:{
  48:menu.c        ****         LCD_Clear(BLACK);
  49:menu.c        ****         LCD_ShowChar(1,point,'>',TRANSPARENT,WHITE);
  50:menu.c        ****         LCD_ShowStr(x, y, "snap shot", WHITE, TRANSPARENT);y+=16;
  51:menu.c        ****         LCD_ShowStr(x, y, "view history", WHITE, TRANSPARENT);
  52:menu.c        ****         LCD_ShowStr(x, BACK_Y, "back", WHITE, TRANSPARENT);}break;
  53:menu.c        ****       case plant3:{
  54:menu.c        ****         LCD_Clear(BLACK);
  55:menu.c        ****         LCD_ShowChar(1,point,'>',TRANSPARENT,WHITE);
  56:menu.c        ****         LCD_ShowStr(x, y, "snap shot", WHITE, TRANSPARENT);y+=16;
  57:menu.c        ****         LCD_ShowStr(x, y, "view history", WHITE, TRANSPARENT);
  58:menu.c        ****         LCD_ShowStr(x, BACK_Y, "back", WHITE, TRANSPARENT);}break; 
  59:menu.c        ****       case REGISTER:{
  60:menu.c        ****         LCD_Clear(BLACK);
  61:menu.c        ****         LCD_ShowChar(1,point,'>',TRANSPARENT,WHITE);
  62:menu.c        ****         LCD_ShowStr(x, y, "Choose default", WHITE, TRANSPARENT);y+=16;
  63:menu.c        ****         LCD_ShowStr(x, y, "Custom settings", WHITE, TRANSPARENT);
  64:menu.c        ****         LCD_ShowStr(x, BACK_Y, "back", WHITE, TRANSPARENT);}break;
  65:menu.c        ****       case CHOOSE_DEFUALT:{
  66:menu.c        ****         LCD_Clear(BLACK);
  67:menu.c        ****         LCD_ShowChar(1,point,'>',TRANSPARENT,WHITE);
  68:menu.c        ****         LCD_ShowStr(x, y, "Tomato", WHITE, TRANSPARENT);y+=16;
  69:menu.c        ****         LCD_ShowStr(x, y, "cucumber", WHITE, TRANSPARENT);y+=16;
  70:menu.c        ****         LCD_ShowStr(x, y, "Purple haze", WHITE, TRANSPARENT);
  71:menu.c        ****         LCD_ShowStr(x, BACK_Y, "back", WHITE, TRANSPARENT);}break;
  72:menu.c        ****         case TOMATO:{
  73:menu.c        ****         LCD_Clear(BLACK);
  74:menu.c        ****         LCD_ShowStr(x, y, "Tomato added!", WHITE, TRANSPARENT);y+=16;
  75:menu.c        ****         LCD_ShowStr(x, BACK_Y, "back", WHITE, TRANSPARENT);
  76:menu.c        ****         initPlant("Tomato", pNumberOfPlants, allPlants, 60, 30, 85, 70, 30, 90, 25, 20, 35);
  77:menu.c        ****         }break;   
  78:menu.c        ****         case CUCUMBER:{
  79:menu.c        ****         LCD_Clear(BLACK);
GAS LISTING /var/folders/rt/4gvqv631095f64jvm7jfj_000000gn/T//cchVvyDg.s 			page 4


  80:menu.c        ****         LCD_ShowStr(x, y, "Cucumber", WHITE, TRANSPARENT);y+=16;
  81:menu.c        ****         LCD_ShowStr(x, BACK_Y, "back", WHITE, TRANSPARENT);
  82:menu.c        ****         initPlant("Cucumber", pNumberOfPlants, allPlants, 70, 50, 100, 50, 20, 55, 25, 20, 30);
  83:menu.c        ****         }break;  
  84:menu.c        ****         case PURPLEHAZE:{
  85:menu.c        ****         LCD_Clear(BLACK);
  86:menu.c        ****         LCD_ShowStr(x, y, "DRUGS ARE BAD", WHITE, TRANSPARENT);y+=16;
  87:menu.c        ****         LCD_ShowStr(x, y, "mmkaaaayy", WHITE, TRANSPARENT);y+=16;
  88:menu.c        ****         LCD_ShowStr(x, BACK_Y, "back", WHITE, TRANSPARENT);
  89:menu.c        ****         initPlant("My swagga", pNumberOfPlants, allPlants, 42, 20, 60, 70, 50, 100, 25, 20, 40);
  90:menu.c        ****         }break;                                                    //needs function
  91:menu.c        ****       case CUSTOM_SETTINGS:{
  92:menu.c        ****         LCD_Clear(BLACK);
  93:menu.c        ****         LCD_ShowChar(1,point,'>',TRANSPARENT,WHITE);
  94:menu.c        ****         LCD_ShowStr(x, y, "need to be able to read in data", WHITE, TRANSPARENT);
  95:menu.c        ****         LCD_ShowStr(x, BACK_Y, "back", WHITE, TRANSPARENT);  //needs function
  96:menu.c        ****         }break;
  97:menu.c        ****       case LAMP:{
  98:menu.c        ****         LCD_Clear(BLACK);
  99:menu.c        ****         LCD_ShowChar(1,point,'>',TRANSPARENT,WHITE);
 100:menu.c        ****         LCD_ShowStr(x, y, "LAMP on", WHITE, TRANSPARENT);y+=16;
 101:menu.c        ****         gpio_bit_set(GPIOB, GPIO_PIN_7);
 102:menu.c        ****         
 103:menu.c        ****         LCD_ShowStr(x, BACK_Y, "back", WHITE, TRANSPARENT);
 104:menu.c        ****         }break;
 105:menu.c        ****       case SNAPSHOT:{
 106:menu.c        ****        LCD_Wait_On_Queue();
 107:menu.c        ****        for(int i=0;i>500000;i++);
 108:menu.c        ****         temp = read_temp();
 109:menu.c        ****         LCD_Clear(BLACK);
 110:menu.c        **** 
 111:menu.c        ****         ADC_read(3);
 112:menu.c        ****         int fukt = ADC_read(3);
 113:menu.c        ****         LCD_ShowChar(1,point,'>',TRANSPARENT,WHITE);
 114:menu.c        ****         LCD_ShowStr(x, y, "Moisture: ", WHITE, TRANSPARENT);
 115:menu.c        ****         LCD_ShowNum(x+(9*8),y,fukt,4,WHITE);y+=16;
 116:menu.c        ****         
 117:menu.c        ****         ADC_read(1);
 118:menu.c        ****         int sun = ADC_read(1);
 119:menu.c        ****         LCD_ShowStr(x, y, "sun: ", WHITE, TRANSPARENT);
 120:menu.c        ****         LCD_ShowNum(x+(9*8),y,sun,4,WHITE);y+=16;
 121:menu.c        ****         LCD_ShowStr(x, y, "Temp: ", WHITE, TRANSPARENT);
 122:menu.c        ****         LCD_ShowNum(x+(9*8),y,temp,2,WHITE);
 123:menu.c        ****         LCD_ShowChar((13*8),y,'C',TRANSPARENT,WHITE);
 124:menu.c        ****         LCD_ShowStr(x, BACK_Y, "back", WHITE, TRANSPARENT);
 125:menu.c        ****         
 126:menu.c        ****       }break;
 127:menu.c        ****       case VIEWHISTORY:{
 128:menu.c        ****         LCD_Clear(BLACK);
 129:menu.c        ****         renderAllHistory(allPlants, *pNumberOfPlants);          // WIP, SE FUNKTION
 130:menu.c        ****         LCD_ShowStr(x, BACK_Y, "back", WHITE, TRANSPARENT);     //needs function
 131:menu.c        ****       }break;
 132:menu.c        ****       case RESETDATA:{
 133:menu.c        ****         LCD_Clear(BLACK);
 134:menu.c        ****         LCD_ShowChar(1,point,'>',TRANSPARENT,WHITE);
 135:menu.c        ****         LCD_ShowStr(x, y, "Reset all", WHITE, TRANSPARENT);y+=16;
 136:menu.c        ****         LCD_ShowStr(x, y, "reset a plant", WHITE, TRANSPARENT);y+=16;
GAS LISTING /var/folders/rt/4gvqv631095f64jvm7jfj_000000gn/T//cchVvyDg.s 			page 5


 137:menu.c        ****         LCD_ShowStr(x, BACK_Y, "back", WHITE, TRANSPARENT);
 138:menu.c        ****         }break;
 139:menu.c        **** 
 140:menu.c        ****        break;
 141:menu.c        ****       default:break;
 142:menu.c        ****       }
 143:menu.c        ****       
 144:menu.c        ****     } 
  92              		.loc 1 144 5 is_stmt 0
  93 0044 6254     		lw	s0,56(sp)
  94              		.cfi_remember_state
  95              		.cfi_restore 8
  96 0046 F250     		lw	ra,60(sp)
  97              		.cfi_restore 1
  98 0048 D254     		lw	s1,52(sp)
  99              		.cfi_restore 9
 100 004a 4259     		lw	s2,48(sp)
 101              		.cfi_restore 18
 102 004c B259     		lw	s3,44(sp)
 103              		.cfi_restore 19
 104 004e 225A     		lw	s4,40(sp)
 105              		.cfi_restore 20
 106 0050 2161     		addi	sp,sp,64
 107              	.LCFI1:
 108              		.cfi_def_cfa_offset 0
 137:menu.c        ****         }break;
 109              		.loc 1 137 9
 110 0052 17030000 		tail	LCD_ShowStr
 110      67000300 
 111              	.LVL4:
 112              	.L17:
 113              	.LCFI2:
 114              		.cfi_restore_state
  24:menu.c        ****       LCD_ShowChar(1,point,'>',TRANSPARENT,WHITE);
 115              		.loc 1 24 7
 116 005a 0145     		li	a0,0
 117 005c 2ECE     		sw	a1,28(sp)
  24:menu.c        ****       LCD_ShowChar(1,point,'>',TRANSPARENT,WHITE);
 118              		.loc 1 24 7 is_stmt 1
 119 005e 97000000 		call	LCD_Clear
 119      E7800000 
 120              	.LVL5:
  25:menu.c        ****       LCD_ShowStr(x, y, "see data", WHITE, TRANSPARENT);y+=16;
 121              		.loc 1 25 7
 122 0066 F245     		lw	a1,28(sp)
 123 0068 4164     		li	s0,65536
 124              	.LVL6:
 125 006a 1307F4FF 		addi	a4,s0,-1
 126 006e 8546     		li	a3,1
 127 0070 1306E003 		li	a2,62
 128 0074 0545     		li	a0,1
 129 0076 97000000 		call	LCD_ShowChar
 129      E7800000 
 130              	.LVL7:
  26:menu.c        ****       LCD_ShowStr(x, y, "register a plant", WHITE, TRANSPARENT);y+=16;
 131              		.loc 1 26 7
 132 007e 37060000 		lui	a2,%hi(.LC1)
GAS LISTING /var/folders/rt/4gvqv631095f64jvm7jfj_000000gn/T//cchVvyDg.s 			page 6


 133 0082 0547     		li	a4,1
 134 0084 9306F4FF 		addi	a3,s0,-1
 135 0088 13060600 		addi	a2,a2,%lo(.LC1)
 136 008c A945     		li	a1,10
 137 008e 3145     		li	a0,12
 138 0090 97000000 		call	LCD_ShowStr
 138      E7800000 
 139              	.LVL8:
  26:menu.c        ****       LCD_ShowStr(x, y, "register a plant", WHITE, TRANSPARENT);y+=16;
 140              		.loc 1 26 57
  27:menu.c        ****       LCD_ShowStr(x, y, "reset", WHITE, TRANSPARENT);y+=16;
 141              		.loc 1 27 7
 142 0098 37060000 		lui	a2,%hi(.LC2)
 143 009c 0547     		li	a4,1
 144 009e 9306F4FF 		addi	a3,s0,-1
 145 00a2 13060600 		addi	a2,a2,%lo(.LC2)
 146 00a6 E945     		li	a1,26
 147 00a8 3145     		li	a0,12
 148 00aa 97000000 		call	LCD_ShowStr
 148      E7800000 
 149              	.LVL9:
  27:menu.c        ****       LCD_ShowStr(x, y, "reset", WHITE, TRANSPARENT);y+=16;
 150              		.loc 1 27 65
  28:menu.c        ****       LCD_ShowStr(x, BACK_Y, "back", WHITE, TRANSPARENT);}break;
 151              		.loc 1 28 7
 152 00b2 37060000 		lui	a2,%hi(.LC3)
 153 00b6 0547     		li	a4,1
 154 00b8 9306F4FF 		addi	a3,s0,-1
 155 00bc 13060600 		addi	a2,a2,%lo(.LC3)
 156              	.L32:
  70:menu.c        ****         LCD_ShowStr(x, BACK_Y, "back", WHITE, TRANSPARENT);}break;
 157              		.loc 1 70 9 is_stmt 0
 158 00c0 9305A002 		li	a1,42
 159              	.LVL10:
 160              	.L27:
 136:menu.c        ****         LCD_ShowStr(x, BACK_Y, "back", WHITE, TRANSPARENT);
 161              		.loc 1 136 9
 162 00c4 3145     		li	a0,12
 163 00c6 97000000 		call	LCD_ShowStr
 163      E7800000 
 164              	.LVL11:
 165 00ce E1A6     		j	.L29
 166              	.LVL12:
 167              	.L16:
  32:menu.c        ****       LCD_ShowChar(1,point,'>',TRANSPARENT,WHITE);
 168              		.loc 1 32 7
 169 00d0 0145     		li	a0,0
 170 00d2 2ECE     		sw	a1,28(sp)
  32:menu.c        ****       LCD_ShowChar(1,point,'>',TRANSPARENT,WHITE);
 171              		.loc 1 32 7 is_stmt 1
 172 00d4 97000000 		call	LCD_Clear
 172      E7800000 
 173              	.LVL13:
  33:menu.c        ****       for(int i=0; i<(*pNumberOfPlants);i++)
 174              		.loc 1 33 7
 175 00dc F245     		lw	a1,28(sp)
 176 00de 4169     		li	s2,65536
GAS LISTING /var/folders/rt/4gvqv631095f64jvm7jfj_000000gn/T//cchVvyDg.s 			page 7


 177 00e0 1307F9FF 		addi	a4,s2,-1
 178 00e4 8546     		li	a3,1
 179 00e6 1306E003 		li	a2,62
 180 00ea 0545     		li	a0,1
 181 00ec 97000000 		call	LCD_ShowChar
 181      E7800000 
 182              	.LVL14:
  34:menu.c        ****       {
 183              		.loc 1 34 7
 184              	.LBB2:
  34:menu.c        ****       {
 185              		.loc 1 34 11
  34:menu.c        ****       {
 186              		.loc 1 34 15 is_stmt 0
 187 00f4 8144     		li	s1,0
 188              	.LVL15:
  36:menu.c        ****         LCD_ShowNum(x+48,y,i+1,TRANSPARENT,WHITE);y+=16;
 189              		.loc 1 36 9
 190 00f6 7D19     		addi	s2,s2,-1
 191 00f8 370A0000 		lui	s4,%hi(.LC5)
 192              	.LVL16:
 193              	.L19:
  34:menu.c        ****       {
 194              		.loc 1 34 7 discriminator 1
 195 00fc 1C40     		lw	a5,0(s0)
 196 00fe 63CDF400 		bgt	a5,s1,.L20
 197              	.LVL17:
 198              	.L33:
 199              	.LBE2:
 130:menu.c        ****       }break;
 200              		.loc 1 130 9 is_stmt 1
 201 0102 C166     		li	a3,65536
 202 0104 0547     		li	a4,1
 203 0106 FD16     		addi	a3,a3,-1
 204              	.LVL18:
 205              	.L28:
 137:menu.c        ****         }break;
 206              		.loc 1 137 9 is_stmt 0
 207 0108 37060000 		lui	a2,%hi(.LC4)
 208 010c 13060600 		addi	a2,a2,%lo(.LC4)
 209 0110 9305C007 		li	a1,124
 210 0114 3145     		li	a0,12
 211 0116 3DB7     		j	.L26
 212              	.LVL19:
 213              	.L20:
 214              	.LBB3:
  36:menu.c        ****         LCD_ShowNum(x+48,y,i+1,TRANSPARENT,WHITE);y+=16;
 215              		.loc 1 36 9 is_stmt 1 discriminator 3
 216 0118 93994400 		slli	s3,s1,4
 217 011c A909     		addi	s3,s3,10
 218 011e CA86     		mv	a3,s2
 219 0120 13060A00 		addi	a2,s4,%lo(.LC5)
 220 0124 CE85     		mv	a1,s3
 221 0126 0547     		li	a4,1
 222 0128 3145     		li	a0,12
 223 012a 97000000 		call	LCD_ShowStr
 223      E7800000 
GAS LISTING /var/folders/rt/4gvqv631095f64jvm7jfj_000000gn/T//cchVvyDg.s 			page 8


 224              	.LVL20:
  37:menu.c        ****       }
 225              		.loc 1 37 9 discriminator 3
  37:menu.c        ****       }
 226              		.loc 1 37 29 is_stmt 0 discriminator 3
 227 0132 8504     		addi	s1,s1,1
 228              	.LVL21:
  37:menu.c        ****       }
 229              		.loc 1 37 9 discriminator 3
 230 0134 4A87     		mv	a4,s2
 231 0136 8546     		li	a3,1
 232 0138 2686     		mv	a2,s1
 233 013a CE85     		mv	a1,s3
 234 013c 1305C003 		li	a0,60
 235 0140 97000000 		call	LCD_ShowNum
 235      E7800000 
 236              	.LVL22:
  37:menu.c        ****       }
 237              		.loc 1 37 51 is_stmt 1 discriminator 3
 238 0148 55BF     		j	.L19
 239              	.LVL23:
 240              	.L15:
 241              	.LBE3:
  42:menu.c        ****         LCD_ShowChar(1,point,'>',TRANSPARENT,WHITE);
 242              		.loc 1 42 9 is_stmt 0
 243 014a 0145     		li	a0,0
 244 014c 2ECE     		sw	a1,28(sp)
  42:menu.c        ****         LCD_ShowChar(1,point,'>',TRANSPARENT,WHITE);
 245              		.loc 1 42 9 is_stmt 1
 246 014e 97000000 		call	LCD_Clear
 246      E7800000 
 247              	.LVL24:
  43:menu.c        ****         LCD_ShowStr(x, y, "See snap shot", WHITE, TRANSPARENT);y+=16;
 248              		.loc 1 43 9
 249 0156 F245     		lw	a1,28(sp)
 250 0158 4164     		li	s0,65536
 251              	.LVL25:
 252 015a 1307F4FF 		addi	a4,s0,-1
 253 015e 8546     		li	a3,1
 254 0160 1306E003 		li	a2,62
 255 0164 0545     		li	a0,1
 256 0166 97000000 		call	LCD_ShowChar
 256      E7800000 
 257              	.LVL26:
  44:menu.c        ****         LCD_ShowStr(x, y, "view history", WHITE, TRANSPARENT);
 258              		.loc 1 44 9
 259 016e 37060000 		lui	a2,%hi(.LC6)
 260 0172 0547     		li	a4,1
 261 0174 9306F4FF 		addi	a3,s0,-1
 262 0178 13060600 		addi	a2,a2,%lo(.LC6)
 263              	.L31:
  50:menu.c        ****         LCD_ShowStr(x, y, "view history", WHITE, TRANSPARENT);
 264              		.loc 1 50 9 is_stmt 0
 265 017c A945     		li	a1,10
 266 017e 3145     		li	a0,12
 267 0180 97000000 		call	LCD_ShowStr
 267      E7800000 
GAS LISTING /var/folders/rt/4gvqv631095f64jvm7jfj_000000gn/T//cchVvyDg.s 			page 9


 268              	.LVL27:
  50:menu.c        ****         LCD_ShowStr(x, y, "view history", WHITE, TRANSPARENT);
 269              		.loc 1 50 60 is_stmt 1
  51:menu.c        ****         LCD_ShowStr(x, BACK_Y, "back", WHITE, TRANSPARENT);}break;
 270              		.loc 1 51 9
 271 0188 37060000 		lui	a2,%hi(.LC7)
 272 018c 0547     		li	a4,1
 273 018e 9306F4FF 		addi	a3,s0,-1
 274 0192 13060600 		addi	a2,a2,%lo(.LC7)
 275              	.L30:
 136:menu.c        ****         LCD_ShowStr(x, BACK_Y, "back", WHITE, TRANSPARENT);
 276              		.loc 1 136 9 is_stmt 0
 277 0196 E945     		li	a1,26
 278 0198 35B7     		j	.L27
 279              	.LVL28:
 280              	.L12:
  48:menu.c        ****         LCD_ShowChar(1,point,'>',TRANSPARENT,WHITE);
 281              		.loc 1 48 9
 282 019a 0145     		li	a0,0
 283 019c 2ECE     		sw	a1,28(sp)
  48:menu.c        ****         LCD_ShowChar(1,point,'>',TRANSPARENT,WHITE);
 284              		.loc 1 48 9 is_stmt 1
 285 019e 97000000 		call	LCD_Clear
 285      E7800000 
 286              	.LVL29:
  49:menu.c        ****         LCD_ShowStr(x, y, "snap shot", WHITE, TRANSPARENT);y+=16;
 287              		.loc 1 49 9
 288 01a6 F245     		lw	a1,28(sp)
 289 01a8 4164     		li	s0,65536
 290              	.LVL30:
 291 01aa 1307F4FF 		addi	a4,s0,-1
 292 01ae 8546     		li	a3,1
 293 01b0 1306E003 		li	a2,62
 294 01b4 0545     		li	a0,1
 295 01b6 97000000 		call	LCD_ShowChar
 295      E7800000 
 296              	.LVL31:
  50:menu.c        ****         LCD_ShowStr(x, y, "view history", WHITE, TRANSPARENT);
 297              		.loc 1 50 9
 298 01be 37060000 		lui	a2,%hi(.LC8)
 299 01c2 0547     		li	a4,1
 300 01c4 9306F4FF 		addi	a3,s0,-1
 301 01c8 13060600 		addi	a2,a2,%lo(.LC8)
 302 01cc 45BF     		j	.L31
 303              	.LVL32:
 304              	.L11:
  60:menu.c        ****         LCD_ShowChar(1,point,'>',TRANSPARENT,WHITE);
 305              		.loc 1 60 9 is_stmt 0
 306 01ce 0145     		li	a0,0
 307 01d0 2ECE     		sw	a1,28(sp)
  60:menu.c        ****         LCD_ShowChar(1,point,'>',TRANSPARENT,WHITE);
 308              		.loc 1 60 9 is_stmt 1
 309 01d2 97000000 		call	LCD_Clear
 309      E7800000 
 310              	.LVL33:
  61:menu.c        ****         LCD_ShowStr(x, y, "Choose default", WHITE, TRANSPARENT);y+=16;
 311              		.loc 1 61 9
GAS LISTING /var/folders/rt/4gvqv631095f64jvm7jfj_000000gn/T//cchVvyDg.s 			page 10


 312 01da F245     		lw	a1,28(sp)
 313 01dc 4164     		li	s0,65536
 314              	.LVL34:
 315 01de 1307F4FF 		addi	a4,s0,-1
 316 01e2 8546     		li	a3,1
 317 01e4 1306E003 		li	a2,62
 318 01e8 0545     		li	a0,1
 319 01ea 97000000 		call	LCD_ShowChar
 319      E7800000 
 320              	.LVL35:
  62:menu.c        ****         LCD_ShowStr(x, y, "Custom settings", WHITE, TRANSPARENT);
 321              		.loc 1 62 9
 322 01f2 37060000 		lui	a2,%hi(.LC9)
 323 01f6 0547     		li	a4,1
 324 01f8 9306F4FF 		addi	a3,s0,-1
 325 01fc 13060600 		addi	a2,a2,%lo(.LC9)
 326 0200 A945     		li	a1,10
 327 0202 3145     		li	a0,12
 328 0204 97000000 		call	LCD_ShowStr
 328      E7800000 
 329              	.LVL36:
  62:menu.c        ****         LCD_ShowStr(x, y, "Custom settings", WHITE, TRANSPARENT);
 330              		.loc 1 62 65
  63:menu.c        ****         LCD_ShowStr(x, BACK_Y, "back", WHITE, TRANSPARENT);}break;
 331              		.loc 1 63 9
 332 020c 37060000 		lui	a2,%hi(.LC10)
 333 0210 0547     		li	a4,1
 334 0212 9306F4FF 		addi	a3,s0,-1
 335 0216 13060600 		addi	a2,a2,%lo(.LC10)
 336 021a B5BF     		j	.L30
 337              	.LVL37:
 338              	.L10:
  66:menu.c        ****         LCD_ShowChar(1,point,'>',TRANSPARENT,WHITE);
 339              		.loc 1 66 9 is_stmt 0
 340 021c 0145     		li	a0,0
 341 021e 2ECE     		sw	a1,28(sp)
  66:menu.c        ****         LCD_ShowChar(1,point,'>',TRANSPARENT,WHITE);
 342              		.loc 1 66 9 is_stmt 1
 343 0220 97000000 		call	LCD_Clear
 343      E7800000 
 344              	.LVL38:
  67:menu.c        ****         LCD_ShowStr(x, y, "Tomato", WHITE, TRANSPARENT);y+=16;
 345              		.loc 1 67 9
 346 0228 F245     		lw	a1,28(sp)
 347 022a 4164     		li	s0,65536
 348              	.LVL39:
 349 022c 1307F4FF 		addi	a4,s0,-1
 350 0230 8546     		li	a3,1
 351 0232 1306E003 		li	a2,62
 352 0236 0545     		li	a0,1
 353 0238 97000000 		call	LCD_ShowChar
 353      E7800000 
 354              	.LVL40:
  68:menu.c        ****         LCD_ShowStr(x, y, "cucumber", WHITE, TRANSPARENT);y+=16;
 355              		.loc 1 68 9
 356 0240 37060000 		lui	a2,%hi(.LC11)
 357 0244 0547     		li	a4,1
GAS LISTING /var/folders/rt/4gvqv631095f64jvm7jfj_000000gn/T//cchVvyDg.s 			page 11


 358 0246 9306F4FF 		addi	a3,s0,-1
 359 024a 13060600 		addi	a2,a2,%lo(.LC11)
 360 024e A945     		li	a1,10
 361 0250 3145     		li	a0,12
 362 0252 97000000 		call	LCD_ShowStr
 362      E7800000 
 363              	.LVL41:
  68:menu.c        ****         LCD_ShowStr(x, y, "cucumber", WHITE, TRANSPARENT);y+=16;
 364              		.loc 1 68 57
  69:menu.c        ****         LCD_ShowStr(x, y, "Purple haze", WHITE, TRANSPARENT);
 365              		.loc 1 69 9
 366 025a 37060000 		lui	a2,%hi(.LC12)
 367 025e 0547     		li	a4,1
 368 0260 9306F4FF 		addi	a3,s0,-1
 369 0264 13060600 		addi	a2,a2,%lo(.LC12)
 370 0268 E945     		li	a1,26
 371 026a 3145     		li	a0,12
 372 026c 97000000 		call	LCD_ShowStr
 372      E7800000 
 373              	.LVL42:
  69:menu.c        ****         LCD_ShowStr(x, y, "Purple haze", WHITE, TRANSPARENT);
 374              		.loc 1 69 59
  70:menu.c        ****         LCD_ShowStr(x, BACK_Y, "back", WHITE, TRANSPARENT);}break;
 375              		.loc 1 70 9
 376 0274 37060000 		lui	a2,%hi(.LC13)
 377 0278 0547     		li	a4,1
 378 027a 9306F4FF 		addi	a3,s0,-1
 379 027e 13060600 		addi	a2,a2,%lo(.LC13)
 380 0282 3DBD     		j	.L32
 381              	.LVL43:
 382              	.L9:
  73:menu.c        ****         LCD_ShowStr(x, y, "Tomato added!", WHITE, TRANSPARENT);y+=16;
 383              		.loc 1 73 9
 384 0284 0145     		li	a0,0
 385 0286 97000000 		call	LCD_Clear
 385      E7800000 
 386              	.LVL44:
  74:menu.c        ****         LCD_ShowStr(x, BACK_Y, "back", WHITE, TRANSPARENT);
 387              		.loc 1 74 9
 388 028e 4169     		li	s2,65536
 389 0290 37060000 		lui	a2,%hi(.LC14)
 390 0294 0547     		li	a4,1
 391 0296 9306F9FF 		addi	a3,s2,-1
 392 029a 13060600 		addi	a2,a2,%lo(.LC14)
 393 029e A945     		li	a1,10
 394 02a0 3145     		li	a0,12
 395 02a2 97000000 		call	LCD_ShowStr
 395      E7800000 
 396              	.LVL45:
  74:menu.c        ****         LCD_ShowStr(x, BACK_Y, "back", WHITE, TRANSPARENT);
 397              		.loc 1 74 64
  75:menu.c        ****         initPlant("Tomato", pNumberOfPlants, allPlants, 60, 30, 85, 70, 30, 90, 25, 20, 35);
 398              		.loc 1 75 9
 399 02aa 37060000 		lui	a2,%hi(.LC4)
 400 02ae 0547     		li	a4,1
 401 02b0 9306F9FF 		addi	a3,s2,-1
 402 02b4 13060600 		addi	a2,a2,%lo(.LC4)
GAS LISTING /var/folders/rt/4gvqv631095f64jvm7jfj_000000gn/T//cchVvyDg.s 			page 12


 403 02b8 9305C007 		li	a1,124
 404 02bc 3145     		li	a0,12
 405 02be 97000000 		call	LCD_ShowStr
 405      E7800000 
 406              	.LVL46:
  76:menu.c        ****         }break;   
 407              		.loc 1 76 9
 408 02c6 93073002 		li	a5,35
 409 02ca 3EC6     		sw	a5,12(sp)
 410 02cc D147     		li	a5,20
 411 02ce 3EC4     		sw	a5,8(sp)
 412 02d0 E547     		li	a5,25
 413 02d2 3EC2     		sw	a5,4(sp)
 414 02d4 37050000 		lui	a0,%hi(.LC11)
 415 02d8 9307A005 		li	a5,90
 416 02dc 3EC0     		sw	a5,0(sp)
 417 02de F948     		li	a7,30
 418 02e0 13086004 		li	a6,70
 419 02e4 93075005 		li	a5,85
 420 02e8 7947     		li	a4,30
 421 02ea 9306C003 		li	a3,60
 422 02ee 2686     		mv	a2,s1
 423 02f0 A285     		mv	a1,s0
 424 02f2 13050500 		addi	a0,a0,%lo(.LC11)
 425              	.LVL47:
 426              	.L25:
  89:menu.c        ****         }break;                                                    //needs function
 427              		.loc 1 89 9 is_stmt 0
 428 02f6 97000000 		call	initPlant
 428      E7800000 
 429              	.LVL48:
  90:menu.c        ****       case CUSTOM_SETTINGS:{
 430              		.loc 1 90 10 is_stmt 1
 431              	.L1:
 432              		.loc 1 144 5 is_stmt 0
 433 02fe F250     		lw	ra,60(sp)
 434              		.cfi_remember_state
 435              		.cfi_restore 1
 436 0300 6254     		lw	s0,56(sp)
 437              		.cfi_restore 8
 438              	.LVL49:
 439 0302 D254     		lw	s1,52(sp)
 440              		.cfi_restore 9
 441              	.LVL50:
 442 0304 4259     		lw	s2,48(sp)
 443              		.cfi_restore 18
 444 0306 B259     		lw	s3,44(sp)
 445              		.cfi_restore 19
 446 0308 225A     		lw	s4,40(sp)
 447              		.cfi_restore 20
 448 030a 2161     		addi	sp,sp,64
 449              	.LCFI3:
 450              		.cfi_def_cfa_offset 0
 451 030c 8280     		jr	ra
 452              	.LVL51:
 453              	.L8:
 454              	.LCFI4:
GAS LISTING /var/folders/rt/4gvqv631095f64jvm7jfj_000000gn/T//cchVvyDg.s 			page 13


 455              		.cfi_restore_state
  79:menu.c        ****         LCD_ShowStr(x, y, "Cucumber", WHITE, TRANSPARENT);y+=16;
 456              		.loc 1 79 9 is_stmt 1
 457 030e 0145     		li	a0,0
 458 0310 97000000 		call	LCD_Clear
 458      E7800000 
 459              	.LVL52:
  80:menu.c        ****         LCD_ShowStr(x, BACK_Y, "back", WHITE, TRANSPARENT);
 460              		.loc 1 80 9
 461 0318 C169     		li	s3,65536
 462 031a 37090000 		lui	s2,%hi(.LC15)
 463 031e 0547     		li	a4,1
 464 0320 9386F9FF 		addi	a3,s3,-1
 465 0324 13060900 		addi	a2,s2,%lo(.LC15)
 466 0328 A945     		li	a1,10
 467 032a 3145     		li	a0,12
 468 032c 97000000 		call	LCD_ShowStr
 468      E7800000 
 469              	.LVL53:
  80:menu.c        ****         LCD_ShowStr(x, BACK_Y, "back", WHITE, TRANSPARENT);
 470              		.loc 1 80 59
  81:menu.c        ****         initPlant("Cucumber", pNumberOfPlants, allPlants, 70, 50, 100, 50, 20, 55, 25, 20, 30);
 471              		.loc 1 81 9
 472 0334 37060000 		lui	a2,%hi(.LC4)
 473 0338 0547     		li	a4,1
 474 033a 9386F9FF 		addi	a3,s3,-1
 475 033e 13060600 		addi	a2,a2,%lo(.LC4)
 476 0342 9305C007 		li	a1,124
 477 0346 3145     		li	a0,12
 478 0348 97000000 		call	LCD_ShowStr
 478      E7800000 
 479              	.LVL54:
  82:menu.c        ****         }break;  
 480              		.loc 1 82 9
 481 0350 F947     		li	a5,30
 482 0352 3EC6     		sw	a5,12(sp)
 483 0354 D147     		li	a5,20
 484 0356 3EC4     		sw	a5,8(sp)
 485 0358 E547     		li	a5,25
 486 035a 3EC2     		sw	a5,4(sp)
 487 035c 93077003 		li	a5,55
 488 0360 3EC0     		sw	a5,0(sp)
 489 0362 D148     		li	a7,20
 490 0364 13082003 		li	a6,50
 491 0368 93074006 		li	a5,100
 492 036c 13072003 		li	a4,50
 493 0370 93066004 		li	a3,70
 494 0374 2686     		mv	a2,s1
 495 0376 A285     		mv	a1,s0
 496 0378 13050900 		addi	a0,s2,%lo(.LC15)
 497 037c ADBF     		j	.L25
 498              	.LVL55:
 499              	.L7:
  85:menu.c        ****         LCD_ShowStr(x, y, "DRUGS ARE BAD", WHITE, TRANSPARENT);y+=16;
 500              		.loc 1 85 9
 501 037e 0145     		li	a0,0
 502 0380 97000000 		call	LCD_Clear
GAS LISTING /var/folders/rt/4gvqv631095f64jvm7jfj_000000gn/T//cchVvyDg.s 			page 14


 502      E7800000 
 503              	.LVL56:
  86:menu.c        ****         LCD_ShowStr(x, y, "mmkaaaayy", WHITE, TRANSPARENT);y+=16;
 504              		.loc 1 86 9
 505 0388 4169     		li	s2,65536
 506 038a 37060000 		lui	a2,%hi(.LC16)
 507 038e 0547     		li	a4,1
 508 0390 9306F9FF 		addi	a3,s2,-1
 509 0394 13060600 		addi	a2,a2,%lo(.LC16)
 510 0398 A945     		li	a1,10
 511 039a 3145     		li	a0,12
 512 039c 97000000 		call	LCD_ShowStr
 512      E7800000 
 513              	.LVL57:
  86:menu.c        ****         LCD_ShowStr(x, y, "mmkaaaayy", WHITE, TRANSPARENT);y+=16;
 514              		.loc 1 86 64
  87:menu.c        ****         LCD_ShowStr(x, BACK_Y, "back", WHITE, TRANSPARENT);
 515              		.loc 1 87 9
 516 03a4 37060000 		lui	a2,%hi(.LC17)
 517 03a8 0547     		li	a4,1
 518 03aa 9306F9FF 		addi	a3,s2,-1
 519 03ae 13060600 		addi	a2,a2,%lo(.LC17)
 520 03b2 E945     		li	a1,26
 521 03b4 3145     		li	a0,12
 522 03b6 97000000 		call	LCD_ShowStr
 522      E7800000 
 523              	.LVL58:
  87:menu.c        ****         LCD_ShowStr(x, BACK_Y, "back", WHITE, TRANSPARENT);
 524              		.loc 1 87 60
  88:menu.c        ****         initPlant("My swagga", pNumberOfPlants, allPlants, 42, 20, 60, 70, 50, 100, 25, 20, 40);
 525              		.loc 1 88 9
 526 03be 37060000 		lui	a2,%hi(.LC4)
 527 03c2 0547     		li	a4,1
 528 03c4 9306F9FF 		addi	a3,s2,-1
 529 03c8 13060600 		addi	a2,a2,%lo(.LC4)
 530 03cc 9305C007 		li	a1,124
 531 03d0 3145     		li	a0,12
 532 03d2 97000000 		call	LCD_ShowStr
 532      E7800000 
 533              	.LVL59:
  89:menu.c        ****         }break;                                                    //needs function
 534              		.loc 1 89 9
 535 03da 93078002 		li	a5,40
 536 03de 3EC6     		sw	a5,12(sp)
 537 03e0 D147     		li	a5,20
 538 03e2 3EC4     		sw	a5,8(sp)
 539 03e4 E547     		li	a5,25
 540 03e6 3EC2     		sw	a5,4(sp)
 541 03e8 37050000 		lui	a0,%hi(.LC18)
 542 03ec 93074006 		li	a5,100
 543 03f0 3EC0     		sw	a5,0(sp)
 544 03f2 93082003 		li	a7,50
 545 03f6 13086004 		li	a6,70
 546 03fa 9307C003 		li	a5,60
 547 03fe 5147     		li	a4,20
 548 0400 9306A002 		li	a3,42
 549 0404 2686     		mv	a2,s1
GAS LISTING /var/folders/rt/4gvqv631095f64jvm7jfj_000000gn/T//cchVvyDg.s 			page 15


 550 0406 A285     		mv	a1,s0
 551 0408 13050500 		addi	a0,a0,%lo(.LC18)
 552 040c EDB5     		j	.L25
 553              	.LVL60:
 554              	.L6:
  92:menu.c        ****         LCD_ShowChar(1,point,'>',TRANSPARENT,WHITE);
 555              		.loc 1 92 9 is_stmt 0
 556 040e 0145     		li	a0,0
 557 0410 2ECE     		sw	a1,28(sp)
  92:menu.c        ****         LCD_ShowChar(1,point,'>',TRANSPARENT,WHITE);
 558              		.loc 1 92 9 is_stmt 1
 559 0412 97000000 		call	LCD_Clear
 559      E7800000 
 560              	.LVL61:
  93:menu.c        ****         LCD_ShowStr(x, y, "need to be able to read in data", WHITE, TRANSPARENT);
 561              		.loc 1 93 9
 562 041a F245     		lw	a1,28(sp)
 563 041c 4164     		li	s0,65536
 564              	.LVL62:
 565 041e 1307F4FF 		addi	a4,s0,-1
 566 0422 8546     		li	a3,1
 567 0424 1306E003 		li	a2,62
 568 0428 0545     		li	a0,1
 569 042a 97000000 		call	LCD_ShowChar
 569      E7800000 
 570              	.LVL63:
  94:menu.c        ****         LCD_ShowStr(x, BACK_Y, "back", WHITE, TRANSPARENT);  //needs function
 571              		.loc 1 94 9
 572 0432 37060000 		lui	a2,%hi(.LC19)
 573 0436 0547     		li	a4,1
 574 0438 9306F4FF 		addi	a3,s0,-1
 575 043c 13060600 		addi	a2,a2,%lo(.LC19)
 576 0440 A945     		li	a1,10
 577 0442 49B1     		j	.L27
 578              	.LVL64:
 579              	.L3:
  98:menu.c        ****         LCD_ShowChar(1,point,'>',TRANSPARENT,WHITE);
 580              		.loc 1 98 9 is_stmt 0
 581 0444 0145     		li	a0,0
 582 0446 2ECE     		sw	a1,28(sp)
  98:menu.c        ****         LCD_ShowChar(1,point,'>',TRANSPARENT,WHITE);
 583              		.loc 1 98 9 is_stmt 1
 584 0448 97000000 		call	LCD_Clear
 584      E7800000 
 585              	.LVL65:
  99:menu.c        ****         LCD_ShowStr(x, y, "LAMP on", WHITE, TRANSPARENT);y+=16;
 586              		.loc 1 99 9
 587 0450 F245     		lw	a1,28(sp)
 588 0452 4164     		li	s0,65536
 589              	.LVL66:
 590 0454 1307F4FF 		addi	a4,s0,-1
 591 0458 8546     		li	a3,1
 592 045a 1306E003 		li	a2,62
 593 045e 0545     		li	a0,1
 594 0460 97000000 		call	LCD_ShowChar
 594      E7800000 
 595              	.LVL67:
GAS LISTING /var/folders/rt/4gvqv631095f64jvm7jfj_000000gn/T//cchVvyDg.s 			page 16


 100:menu.c        ****         gpio_bit_set(GPIOB, GPIO_PIN_7);
 596              		.loc 1 100 9
 597 0468 37060000 		lui	a2,%hi(.LC20)
 598 046c A945     		li	a1,10
 599 046e 3145     		li	a0,12
 600 0470 0547     		li	a4,1
 601 0472 9306F4FF 		addi	a3,s0,-1
 602 0476 13060600 		addi	a2,a2,%lo(.LC20)
 603 047a 97000000 		call	LCD_ShowStr
 603      E7800000 
 604              	.LVL68:
 100:menu.c        ****         gpio_bit_set(GPIOB, GPIO_PIN_7);
 605              		.loc 1 100 58
 101:menu.c        ****         
 606              		.loc 1 101 9
 607 0482 37150140 		li	a0,1073811456
 608 0486 93050008 		li	a1,128
 609 048a 130505C0 		addi	a0,a0,-1024
 610 048e 97000000 		call	gpio_bit_set
 610      E7800000 
 611              	.LVL69:
 103:menu.c        ****         }break;
 612              		.loc 1 103 9
 613              	.L29:
 136:menu.c        ****         LCD_ShowStr(x, BACK_Y, "back", WHITE, TRANSPARENT);
 614              		.loc 1 136 64
 137:menu.c        ****         }break;
 615              		.loc 1 137 9
 616 0496 0547     		li	a4,1
 617 0498 9306F4FF 		addi	a3,s0,-1
 618 049c B5B1     		j	.L28
 619              	.LVL70:
 620              	.L14:
 621 049e 2ECE     		sw	a1,28(sp)
 622              	.LBB4:
 106:menu.c        ****        for(int i=0;i>500000;i++);
 623              		.loc 1 106 8
 624 04a0 97000000 		call	LCD_Wait_On_Queue
 624      E7800000 
 625              	.LVL71:
 107:menu.c        ****         temp = read_temp();
 626              		.loc 1 107 8
 627              	.LBE4:
 107:menu.c        ****         temp = read_temp();
 628              		.loc 1 107 12
 629              	.LBB5:
 108:menu.c        ****         LCD_Clear(BLACK);
 630              		.loc 1 108 9
 108:menu.c        ****         LCD_Clear(BLACK);
 631              		.loc 1 108 16 is_stmt 0
 632 04a8 97000000 		call	read_temp
 632      E7800000 
 633              	.LVL72:
 634 04b0 AA84     		mv	s1,a0
 635              	.LVL73:
 109:menu.c        **** 
 636              		.loc 1 109 9 is_stmt 1
GAS LISTING /var/folders/rt/4gvqv631095f64jvm7jfj_000000gn/T//cchVvyDg.s 			page 17


 637 04b2 0145     		li	a0,0
 638 04b4 97000000 		call	LCD_Clear
 638      E7800000 
 639              	.LVL74:
 111:menu.c        ****         int fukt = ADC_read(3);
 640              		.loc 1 111 9
 641 04bc 0D45     		li	a0,3
 642 04be 97000000 		call	ADC_read
 642      E7800000 
 643              	.LVL75:
 112:menu.c        ****         LCD_ShowChar(1,point,'>',TRANSPARENT,WHITE);
 644              		.loc 1 112 9
 112:menu.c        ****         LCD_ShowChar(1,point,'>',TRANSPARENT,WHITE);
 645              		.loc 1 112 20 is_stmt 0
 646 04c6 0D45     		li	a0,3
 647 04c8 97000000 		call	ADC_read
 647      E7800000 
 648              	.LVL76:
 113:menu.c        ****         LCD_ShowStr(x, y, "Moisture: ", WHITE, TRANSPARENT);
 649              		.loc 1 113 9
 650 04d0 F245     		lw	a1,28(sp)
 651 04d2 4164     		li	s0,65536
 652              	.LVL77:
 112:menu.c        ****         LCD_ShowChar(1,point,'>',TRANSPARENT,WHITE);
 653              		.loc 1 112 20
 654 04d4 2A89     		mv	s2,a0
 655              	.LVL78:
 113:menu.c        ****         LCD_ShowStr(x, y, "Moisture: ", WHITE, TRANSPARENT);
 656              		.loc 1 113 9 is_stmt 1
 657 04d6 1307F4FF 		addi	a4,s0,-1
 658 04da 8546     		li	a3,1
 659 04dc 1306E003 		li	a2,62
 660 04e0 0545     		li	a0,1
 661              	.LVL79:
 662 04e2 97000000 		call	LCD_ShowChar
 662      E7800000 
 663              	.LVL80:
 114:menu.c        ****         LCD_ShowNum(x+(9*8),y,fukt,4,WHITE);y+=16;
 664              		.loc 1 114 9
 665 04ea 37060000 		lui	a2,%hi(.LC21)
 666 04ee 9306F4FF 		addi	a3,s0,-1
 667 04f2 0547     		li	a4,1
 668 04f4 13060600 		addi	a2,a2,%lo(.LC21)
 669 04f8 A945     		li	a1,10
 670 04fa 3145     		li	a0,12
 671 04fc 97000000 		call	LCD_ShowStr
 671      E7800000 
 672              	.LVL81:
 115:menu.c        ****         
 673              		.loc 1 115 9
 674 0504 1307F4FF 		addi	a4,s0,-1
 675 0508 4A86     		mv	a2,s2
 676 050a 9146     		li	a3,4
 677 050c A945     		li	a1,10
 678 050e 13054005 		li	a0,84
 679 0512 97000000 		call	LCD_ShowNum
 679      E7800000 
GAS LISTING /var/folders/rt/4gvqv631095f64jvm7jfj_000000gn/T//cchVvyDg.s 			page 18


 680              	.LVL82:
 115:menu.c        ****         
 681              		.loc 1 115 45
 117:menu.c        ****         int sun = ADC_read(1);
 682              		.loc 1 117 9
 683 051a 0545     		li	a0,1
 684 051c 97000000 		call	ADC_read
 684      E7800000 
 685              	.LVL83:
 118:menu.c        ****         LCD_ShowStr(x, y, "sun: ", WHITE, TRANSPARENT);
 686              		.loc 1 118 9
 118:menu.c        ****         LCD_ShowStr(x, y, "sun: ", WHITE, TRANSPARENT);
 687              		.loc 1 118 19 is_stmt 0
 688 0524 0545     		li	a0,1
 689 0526 97000000 		call	ADC_read
 689      E7800000 
 690              	.LVL84:
 119:menu.c        ****         LCD_ShowNum(x+(9*8),y,sun,4,WHITE);y+=16;
 691              		.loc 1 119 9
 692 052e 37060000 		lui	a2,%hi(.LC22)
 118:menu.c        ****         LCD_ShowStr(x, y, "sun: ", WHITE, TRANSPARENT);
 693              		.loc 1 118 19
 694 0532 2A89     		mv	s2,a0
 695              	.LVL85:
 119:menu.c        ****         LCD_ShowNum(x+(9*8),y,sun,4,WHITE);y+=16;
 696              		.loc 1 119 9 is_stmt 1
 697 0534 9306F4FF 		addi	a3,s0,-1
 698 0538 0547     		li	a4,1
 699 053a 13060600 		addi	a2,a2,%lo(.LC22)
 700 053e E945     		li	a1,26
 701 0540 3145     		li	a0,12
 702              	.LVL86:
 703 0542 97000000 		call	LCD_ShowStr
 703      E7800000 
 704              	.LVL87:
 120:menu.c        ****         LCD_ShowStr(x, y, "Temp: ", WHITE, TRANSPARENT);
 705              		.loc 1 120 9
 706 054a 1307F4FF 		addi	a4,s0,-1
 707 054e 4A86     		mv	a2,s2
 708 0550 9146     		li	a3,4
 709 0552 E945     		li	a1,26
 710 0554 13054005 		li	a0,84
 711 0558 97000000 		call	LCD_ShowNum
 711      E7800000 
 712              	.LVL88:
 120:menu.c        ****         LCD_ShowStr(x, y, "Temp: ", WHITE, TRANSPARENT);
 713              		.loc 1 120 44
 121:menu.c        ****         LCD_ShowNum(x+(9*8),y,temp,2,WHITE);
 714              		.loc 1 121 9
 715 0560 37060000 		lui	a2,%hi(.LC23)
 716 0564 9306F4FF 		addi	a3,s0,-1
 717 0568 0547     		li	a4,1
 718 056a 13060600 		addi	a2,a2,%lo(.LC23)
 719 056e 9305A002 		li	a1,42
 720 0572 3145     		li	a0,12
 721 0574 97000000 		call	LCD_ShowStr
 721      E7800000 
GAS LISTING /var/folders/rt/4gvqv631095f64jvm7jfj_000000gn/T//cchVvyDg.s 			page 19


 722              	.LVL89:
 122:menu.c        ****         LCD_ShowChar((13*8),y,'C',TRANSPARENT,WHITE);
 723              		.loc 1 122 9
 724 057c 2685     		mv	a0,s1
 725 057e 97000000 		call	__fixunssfsi
 725      E7800000 
 726              	.LVL90:
 727 0586 1307F4FF 		addi	a4,s0,-1
 728 058a 2A86     		mv	a2,a0
 729 058c 8946     		li	a3,2
 730 058e 9305A002 		li	a1,42
 731 0592 13054005 		li	a0,84
 732 0596 97000000 		call	LCD_ShowNum
 732      E7800000 
 733              	.LVL91:
 123:menu.c        ****         LCD_ShowStr(x, BACK_Y, "back", WHITE, TRANSPARENT);
 734              		.loc 1 123 9
 735 059e 1307F4FF 		addi	a4,s0,-1
 736 05a2 8546     		li	a3,1
 737 05a4 13063004 		li	a2,67
 738 05a8 9305A002 		li	a1,42
 739 05ac 13058006 		li	a0,104
 740 05b0 97000000 		call	LCD_ShowChar
 740      E7800000 
 741              	.LVL92:
 124:menu.c        ****         
 742              		.loc 1 124 9
 743 05b8 F9BD     		j	.L29
 744              	.LVL93:
 745              	.L13:
 746              	.LBE5:
 128:menu.c        ****         renderAllHistory(allPlants, *pNumberOfPlants);          // WIP, SE FUNKTION
 747              		.loc 1 128 9
 748 05ba 0145     		li	a0,0
 749 05bc 97000000 		call	LCD_Clear
 749      E7800000 
 750              	.LVL94:
 129:menu.c        ****         LCD_ShowStr(x, BACK_Y, "back", WHITE, TRANSPARENT);     //needs function
 751              		.loc 1 129 9
 752 05c4 0C40     		lw	a1,0(s0)
 753 05c6 2685     		mv	a0,s1
 754 05c8 97000000 		call	renderAllHistory
 754      E7800000 
 755              	.LVL95:
 756 05d0 0DBE     		j	.L33
 757              	.LVL96:
 758              	.L5:
 133:menu.c        ****         LCD_ShowChar(1,point,'>',TRANSPARENT,WHITE);
 759              		.loc 1 133 9 is_stmt 0
 760 05d2 0145     		li	a0,0
 761 05d4 2ECE     		sw	a1,28(sp)
 133:menu.c        ****         LCD_ShowChar(1,point,'>',TRANSPARENT,WHITE);
 762              		.loc 1 133 9 is_stmt 1
 763 05d6 97000000 		call	LCD_Clear
 763      E7800000 
 764              	.LVL97:
 134:menu.c        ****         LCD_ShowStr(x, y, "Reset all", WHITE, TRANSPARENT);y+=16;
GAS LISTING /var/folders/rt/4gvqv631095f64jvm7jfj_000000gn/T//cchVvyDg.s 			page 20


 765              		.loc 1 134 9
 766 05de F245     		lw	a1,28(sp)
 767 05e0 4164     		li	s0,65536
 768              	.LVL98:
 769 05e2 1307F4FF 		addi	a4,s0,-1
 770 05e6 8546     		li	a3,1
 771 05e8 1306E003 		li	a2,62
 772 05ec 0545     		li	a0,1
 773 05ee 97000000 		call	LCD_ShowChar
 773      E7800000 
 774              	.LVL99:
 135:menu.c        ****         LCD_ShowStr(x, y, "reset a plant", WHITE, TRANSPARENT);y+=16;
 775              		.loc 1 135 9
 776 05f6 37060000 		lui	a2,%hi(.LC24)
 777 05fa 0547     		li	a4,1
 778 05fc 9306F4FF 		addi	a3,s0,-1
 779 0600 13060600 		addi	a2,a2,%lo(.LC24)
 780 0604 A945     		li	a1,10
 781 0606 3145     		li	a0,12
 782 0608 97000000 		call	LCD_ShowStr
 782      E7800000 
 783              	.LVL100:
 135:menu.c        ****         LCD_ShowStr(x, y, "reset a plant", WHITE, TRANSPARENT);y+=16;
 784              		.loc 1 135 60
 136:menu.c        ****         LCD_ShowStr(x, BACK_Y, "back", WHITE, TRANSPARENT);
 785              		.loc 1 136 9
 786 0610 37060000 		lui	a2,%hi(.LC25)
 787 0614 0547     		li	a4,1
 788 0616 9306F4FF 		addi	a3,s0,-1
 789 061a 13060600 		addi	a2,a2,%lo(.LC25)
 790 061e A5BE     		j	.L30
 791              	.LVL101:
 792              	.L22:
 793              	.LCFI5:
 794              		.cfi_def_cfa_offset 0
 795              		.cfi_restore 1
 796              		.cfi_restore 8
 797              		.cfi_restore 9
 798              		.cfi_restore 18
 799              		.cfi_restore 19
 800              		.cfi_restore 20
 801 0620 8280     		ret
 802              		.cfi_endproc
 803              	.LFE5:
 805              		.section	.text.move_pointer,"ax",@progbits
 806              		.align	1
 807              		.globl	move_pointer
 809              	move_pointer:
 810              	.LFB6:
 145:menu.c        ****   
 146:menu.c        **** 
 147:menu.c        **** void move_pointer(int *P_pointer, int key,int page)
 148:menu.c        **** {
 811              		.loc 1 148 1
 812              		.cfi_startproc
 813              	.LVL102:
 149:menu.c        ****   if(page !=HOME)
GAS LISTING /var/folders/rt/4gvqv631095f64jvm7jfj_000000gn/T//cchVvyDg.s 			page 21


 814              		.loc 1 149 3
 815              		.loc 1 149 5 is_stmt 0
 816 0000 35C6     		beq	a2,zero,.L42
 148:menu.c        ****   if(page !=HOME)
 817              		.loc 1 148 1
 818 0002 4111     		addi	sp,sp,-16
 819              	.LCFI6:
 820              		.cfi_def_cfa_offset 16
 821 0004 22C4     		sw	s0,8(sp)
 822 0006 06C6     		sw	ra,12(sp)
 823              		.cfi_offset 8, -8
 824              		.cfi_offset 1, -4
 150:menu.c        ****   switch(key)
 825              		.loc 1 150 3
 826 0008 8947     		li	a5,2
 827 000a 2A84     		mv	s0,a0
 828              		.loc 1 150 3 is_stmt 1
 829 000c 6389F500 		beq	a1,a5,.L36
 830 0010 A147     		li	a5,8
 831 0012 6380F504 		beq	a1,a5,.L37
 151:menu.c        ****   {
 152:menu.c        ****     case 2: {LCD_Fill(2,((*P_pointer)),10,(*P_pointer+16),BLACK);
 153:menu.c        ****               (*P_pointer)-=16;LCD_ShowChar(2,*P_pointer,'>',TRANSPARENT,WHITE);}break;
 154:menu.c        ****     case 8: {LCD_Fill(2,*P_pointer,10,(*P_pointer+16),BLACK);
 155:menu.c        ****               (*P_pointer)+=16;LCD_ShowChar(2,*P_pointer,'>',TRANSPARENT,WHITE);}break;
 156:menu.c        ****     default: break;
 157:menu.c        ****   }
 158:menu.c        **** 
 159:menu.c        **** }
 832              		.loc 1 159 1 is_stmt 0
 833 0016 B240     		lw	ra,12(sp)
 834              		.cfi_remember_state
 835              		.cfi_restore 1
 836 0018 2244     		lw	s0,8(sp)
 837              		.cfi_restore 8
 838 001a 4101     		addi	sp,sp,16
 839              	.LCFI7:
 840              		.cfi_def_cfa_offset 0
 841 001c 8280     		jr	ra
 842              	.LVL103:
 843              	.L36:
 844              	.LCFI8:
 845              		.cfi_restore_state
 846              	.LBB8:
 847              	.LBB9:
 152:menu.c        ****               (*P_pointer)-=16;LCD_ShowChar(2,*P_pointer,'>',TRANSPARENT,WHITE);}break;
 848              		.loc 1 152 14 is_stmt 1
 152:menu.c        ****               (*P_pointer)-=16;LCD_ShowChar(2,*P_pointer,'>',TRANSPARENT,WHITE);}break;
 849              		.loc 1 152 27 is_stmt 0
 850 001e 0C41     		lw	a1,0(a0)
 851              	.LVL104:
 152:menu.c        ****               (*P_pointer)-=16;LCD_ShowChar(2,*P_pointer,'>',TRANSPARENT,WHITE);}break;
 852              		.loc 1 152 14
 853 0020 0147     		li	a4,0
 854 0022 2946     		li	a2,10
 855              	.LVL105:
 856 0024 93860501 		addi	a3,a1,16
GAS LISTING /var/folders/rt/4gvqv631095f64jvm7jfj_000000gn/T//cchVvyDg.s 			page 22


 857 0028 0945     		li	a0,2
 858 002a 97000000 		call	LCD_Fill
 858      E7800000 
 859              	.LVL106:
 153:menu.c        ****     case 8: {LCD_Fill(2,*P_pointer,10,(*P_pointer+16),BLACK);
 860              		.loc 1 153 15 is_stmt 1
 153:menu.c        ****     case 8: {LCD_Fill(2,*P_pointer,10,(*P_pointer+16),BLACK);
 861              		.loc 1 153 27 is_stmt 0
 862 0032 0C40     		lw	a1,0(s0)
 863 0034 C115     		addi	a1,a1,-16
 864              	.LVL107:
 865              	.L45:
 866              	.LBE9:
 867              	.LBE8:
 155:menu.c        ****     default: break;
 868              		.loc 1 155 27
 869 0036 0CC0     		sw	a1,0(s0)
 155:menu.c        ****     default: break;
 870              		.loc 1 155 32 is_stmt 1
 871              		.loc 1 159 1 is_stmt 0
 872 0038 2244     		lw	s0,8(sp)
 873              		.cfi_remember_state
 874              		.cfi_restore 8
 875              	.LVL108:
 876 003a B240     		lw	ra,12(sp)
 877              		.cfi_restore 1
 155:menu.c        ****     default: break;
 878              		.loc 1 155 32
 879 003c 4167     		li	a4,65536
 880              		.loc 1 159 1
 155:menu.c        ****     default: break;
 881              		.loc 1 155 32
 882 003e 7D17     		addi	a4,a4,-1
 883 0040 8546     		li	a3,1
 884 0042 1306E003 		li	a2,62
 885 0046 0945     		li	a0,2
 886              		.loc 1 159 1
 887 0048 4101     		addi	sp,sp,16
 888              	.LCFI9:
 889              		.cfi_def_cfa_offset 0
 155:menu.c        ****     default: break;
 890              		.loc 1 155 32
 891 004a 17030000 		tail	LCD_ShowChar
 891      67000300 
 892              	.LVL109:
 893              	.L37:
 894              	.LCFI10:
 895              		.cfi_restore_state
 154:menu.c        ****               (*P_pointer)+=16;LCD_ShowChar(2,*P_pointer,'>',TRANSPARENT,WHITE);}break;
 896              		.loc 1 154 14 is_stmt 1
 154:menu.c        ****               (*P_pointer)+=16;LCD_ShowChar(2,*P_pointer,'>',TRANSPARENT,WHITE);}break;
 897              		.loc 1 154 25 is_stmt 0
 898 0052 0C41     		lw	a1,0(a0)
 899              	.LVL110:
 154:menu.c        ****               (*P_pointer)+=16;LCD_ShowChar(2,*P_pointer,'>',TRANSPARENT,WHITE);}break;
 900              		.loc 1 154 14
 901 0054 0147     		li	a4,0
GAS LISTING /var/folders/rt/4gvqv631095f64jvm7jfj_000000gn/T//cchVvyDg.s 			page 23


 902 0056 2946     		li	a2,10
 903              	.LVL111:
 904 0058 93860501 		addi	a3,a1,16
 905 005c 0945     		li	a0,2
 906 005e 97000000 		call	LCD_Fill
 906      E7800000 
 907              	.LVL112:
 155:menu.c        ****     default: break;
 908              		.loc 1 155 15 is_stmt 1
 155:menu.c        ****     default: break;
 909              		.loc 1 155 27 is_stmt 0
 910 0066 0C40     		lw	a1,0(s0)
 911 0068 C105     		addi	a1,a1,16
 912 006a F1B7     		j	.L45
 913              	.LVL113:
 914              	.L42:
 915              	.LCFI11:
 916              		.cfi_def_cfa_offset 0
 917              		.cfi_restore 1
 918              		.cfi_restore 8
 919 006c 8280     		ret
 920              		.cfi_endproc
 921              	.LFE6:
 923              		.section	.text.which_page,"ax",@progbits
 924              		.align	1
 925              		.globl	which_page
 927              	which_page:
 928              	.LFB7:
 160:menu.c        **** 
 161:menu.c        **** int which_page(int page, int pointer)
 162:menu.c        **** {
 929              		.loc 1 162 1 is_stmt 1
 930              		.cfi_startproc
 931              	.LVL114:
 163:menu.c        ****   int cursor =-1;
 932              		.loc 1 163 3
 164:menu.c        ****   int starty = 13;
 933              		.loc 1 164 3
 165:menu.c        ****   int step = 16;
 934              		.loc 1 165 3
 166:menu.c        ****     
 167:menu.c        ****     if((pointer-((0*step)+starty))==0)
 935              		.loc 1 167 5
 936              		.loc 1 167 7 is_stmt 0
 937 0000 B547     		li	a5,13
 938 0002 638EF504 		beq	a1,a5,.L69
 168:menu.c        ****     cursor = 0;
 169:menu.c        ****     if((pointer-((1*step)+starty))==0)
 939              		.loc 1 169 5 is_stmt 1
 940              		.loc 1 169 7 is_stmt 0
 941 0006 7547     		li	a4,29
 170:menu.c        ****     cursor = 1;
 942              		.loc 1 170 12
 943 0008 8547     		li	a5,1
 169:menu.c        ****     cursor = 1;
 944              		.loc 1 169 7
 945 000a 6382E502 		beq	a1,a4,.L47
GAS LISTING /var/folders/rt/4gvqv631095f64jvm7jfj_000000gn/T//cchVvyDg.s 			page 24


 171:menu.c        ****     if((pointer-((2*step)+starty))==0)
 946              		.loc 1 171 5 is_stmt 1
 947              		.loc 1 171 7 is_stmt 0
 948 000e 1307D002 		li	a4,45
 172:menu.c        ****     cursor = 2;
 949              		.loc 1 172 12
 950 0012 8947     		li	a5,2
 171:menu.c        ****     if((pointer-((2*step)+starty))==0)
 951              		.loc 1 171 7
 952 0014 6381E502 		beq	a1,a4,.L48
 173:menu.c        ****     if((pointer-((3*step)+starty))==0)
 953              		.loc 1 173 5 is_stmt 1
 954              		.loc 1 173 7 is_stmt 0
 955 0018 1307D003 		li	a4,61
 174:menu.c        ****     cursor = 3;
 956              		.loc 1 174 12
 957 001c 8D47     		li	a5,3
 173:menu.c        ****     if((pointer-((3*step)+starty))==0)
 958              		.loc 1 173 7
 959 001e 6380E502 		beq	a1,a4,.L49
 175:menu.c        ****     if((pointer-((4*step)+starty))==0)
 960              		.loc 1 175 5 is_stmt 1
 961              		.loc 1 175 7 is_stmt 0
 962 0022 1307D004 		li	a4,77
 176:menu.c        ****     cursor = 4;
 963              		.loc 1 176 12
 964 0026 9147     		li	a5,4
 175:menu.c        ****     if((pointer-((4*step)+starty))==0)
 965              		.loc 1 175 7
 966 0028 6386E50E 		beq	a1,a4,.L50
 163:menu.c        ****   int starty = 13;
 967              		.loc 1 163 7
 968 002c FD57     		li	a5,-1
 969              	.L47:
 970              	.LVL115:
 177:menu.c        ****     if((pointer-((5*step)+starty))==0)
 971              		.loc 1 177 5 is_stmt 1
 972              		.loc 1 177 7 is_stmt 0
 973 002e 1307D005 		li	a4,93
 974 0032 6380E50E 		beq	a1,a4,.L74
 975              	.LVL116:
 976              	.L48:
 178:menu.c        ****     cursor = 5;
 179:menu.c        ****     if((pointer-((6*step)+starty))==0)
 977              		.loc 1 179 5 is_stmt 1
 978              		.loc 1 179 7 is_stmt 0
 979 0036 1307D006 		li	a4,109
 980 003a 6388E50E 		beq	a1,a4,.L75
 981              	.LVL117:
 982              	.L49:
 180:menu.c        ****     cursor = 6;
 181:menu.c        ****     if((pointer-((7*step)+starty))==0)
 983              		.loc 1 181 5 is_stmt 1
 984              		.loc 1 181 7 is_stmt 0
 985 003e 1307D007 		li	a4,125
 986 0042 6399E50C 		bne	a1,a4,.L50
 182:menu.c        ****     cursor = 7;
GAS LISTING /var/folders/rt/4gvqv631095f64jvm7jfj_000000gn/T//cchVvyDg.s 			page 25


 987              		.loc 1 182 5 is_stmt 1
 988              	.LVL118:
 183:menu.c        ****         
 184:menu.c        ****     switch(page)
 989              		.loc 1 184 5
 990 0046 C547     		li	a5,17
 991 0048 63E0A70C 		bgtu	a0,a5,.L51
 992 004c 37070000 		lui	a4,%hi(.L53)
 993 0050 93172500 		slli	a5,a0,2
 994 0054 13070700 		addi	a4,a4,%lo(.L53)
 995 0058 BA97     		add	a5,a5,a4
 996 005a 9C43     		lw	a5,0(a5)
 997 005c 8287     		jr	a5
 998              		.section	.rodata.which_page,"a",@progbits
 999              		.align	2
 1000              		.align	2
 1001              	.L53:
 1002 0000 00000000 		.word	.L68
 1003 0004 00000000 		.word	.L76
 1004 0008 00000000 		.word	.L77
 1005 000c 00000000 		.word	.L78
 1006 0010 00000000 		.word	.L62
 1007 0014 00000000 		.word	.L62
 1008 0018 00000000 		.word	.L80
 1009 001c 00000000 		.word	.L81
 1010 0020 00000000 		.word	.L82
 1011 0024 00000000 		.word	.L83
 1012 0028 00000000 		.word	.L86
 1013 002c 00000000 		.word	.L86
 1014 0030 00000000 		.word	.L86
 1015 0034 00000000 		.word	.L87
 1016 0038 00000000 		.word	.L51
 1017 003c 00000000 		.word	.L51
 1018 0040 00000000 		.word	.L51
 1019 0044 00000000 		.word	.L86
 1020              		.section	.text.which_page
 1021              	.LVL119:
 1022              	.L69:
 168:menu.c        ****     if((pointer-((1*step)+starty))==0)
 1023              		.loc 1 168 12 is_stmt 0
 1024 005e 8147     		li	a5,0
 1025 0060 F9B7     		j	.L47
 1026              	.LVL120:
 1027              	.L62:
 185:menu.c        ****     {
 186:menu.c        ****       case HOME:return MAINMENU;
 187:menu.c        ****     case MAINMENU:
 188:menu.c        ****       {
 189:menu.c        ****           switch (cursor)
 190:menu.c        ****           {
 191:menu.c        ****             
 192:menu.c        ****             case 0: return SEEDATA;break;
 193:menu.c        ****             case 1: return REGISTER; break;
 194:menu.c        ****             case 2: return RESET; break;
 195:menu.c        ****             case 3: return LAMP; break;
 196:menu.c        ****             case 7: return HOME; break;    
 197:menu.c        ****             default: return -1;break;
GAS LISTING /var/folders/rt/4gvqv631095f64jvm7jfj_000000gn/T//cchVvyDg.s 			page 26


 198:menu.c        ****           }
 199:menu.c        ****       }
 200:menu.c        ****       case SEEDATA:
 201:menu.c        ****       {
 202:menu.c        ****         switch (cursor)
 203:menu.c        ****         {
 204:menu.c        ****           case 0: return plant1;break;
 205:menu.c        ****           case 1: return plant2;break;
 206:menu.c        ****           case 2: return plant3;break;
 207:menu.c        ****           case 7: return MAINMENU; break;
 208:menu.c        ****           default:return -1;break;
 209:menu.c        ****         }
 210:menu.c        ****       }
 211:menu.c        ****       case plant1:
 212:menu.c        ****       {
 213:menu.c        ****         switch (cursor)
 214:menu.c        ****         {
 215:menu.c        ****           case 0: return SNAPSHOT;break;
 216:menu.c        ****           case 1: return VIEWHISTORY;break;
 217:menu.c        ****           case 7: return SEEDATA;break;
 218:menu.c        ****           default:return -1;break;
 219:menu.c        ****         }
 220:menu.c        ****       }
 221:menu.c        ****       case plant2:
 222:menu.c        ****       {
 223:menu.c        ****         switch (cursor)
 224:menu.c        ****         {
 225:menu.c        ****           case 0: return SNAPSHOT;break;
 226:menu.c        ****           case 1: return VIEWHISTORY;break;
 227:menu.c        ****           case 7: return SEEDATA;break;
 228:menu.c        ****           default:return -1; break;
 229:menu.c        ****         }
 230:menu.c        ****       }
 231:menu.c        ****       case plant3:
 232:menu.c        ****       {
 233:menu.c        ****         switch (cursor)
 234:menu.c        ****         {
 235:menu.c        ****           case 0: return SNAPSHOT;break;
 236:menu.c        ****           case 1: return VIEWHISTORY;break;
 237:menu.c        ****           case 7: return SEEDATA;break;
 238:menu.c        ****           default:return -1; break;
 239:menu.c        ****         }
 240:menu.c        ****       }
 241:menu.c        ****       case SNAPSHOT:
 242:menu.c        ****       {
 243:menu.c        ****         switch (cursor)
 244:menu.c        ****         {
 245:menu.c        ****           case 7: return SEEDATA; break;
 1028              		.loc 1 245 26
 1029 0062 0945     		li	a0,2
 1030              	.LVL121:
 1031 0064 8280     		ret
 1032              	.LVL122:
 1033              	.L76:
 182:menu.c        ****         
 1034              		.loc 1 182 12
 1035 0066 9D47     		li	a5,7
GAS LISTING /var/folders/rt/4gvqv631095f64jvm7jfj_000000gn/T//cchVvyDg.s 			page 27


 1036              	.LVL123:
 1037              	.L65:
 189:menu.c        ****           {
 1038              		.loc 1 189 11 is_stmt 1
 1039 0068 1D47     		li	a4,7
 187:menu.c        ****       {
 1040              		.loc 1 187 5 is_stmt 0
 1041 006a 7D55     		li	a0,-1
 1042 006c 6362F70C 		bgtu	a5,a4,.L46
 1043 0070 37050000 		lui	a0,%hi(.LANCHOR0)
 1044 0074 13050500 		addi	a0,a0,%lo(.LANCHOR0)
 1045              	.L96:
 1046 0078 3E95     		add	a0,a0,a5
 1047 007a 03050500 		lb	a0,0(a0)
 1048 007e 8280     		ret
 1049              	.LVL124:
 1050              	.L77:
 182:menu.c        ****         
 1051              		.loc 1 182 12
 1052 0080 9D47     		li	a5,7
 1053              	.LVL125:
 1054              	.L64:
 197:menu.c        ****           }
 1055              		.loc 1 197 32 is_stmt 1
 202:menu.c        ****         {
 1056              		.loc 1 202 9
 1057 0082 1D47     		li	a4,7
 200:menu.c        ****       {
 1058              		.loc 1 200 7 is_stmt 0
 1059 0084 7D55     		li	a0,-1
 1060 0086 6365F70A 		bgtu	a5,a4,.L46
 1061 008a 37050000 		lui	a0,%hi(.LANCHOR1)
 1062 008e 13050500 		addi	a0,a0,%lo(.LANCHOR1)
 1063 0092 DDB7     		j	.L96
 1064              	.LVL126:
 1065              	.L78:
 182:menu.c        ****         
 1066              		.loc 1 182 12
 1067 0094 9D47     		li	a5,7
 1068              	.LVL127:
 1069              	.L63:
 208:menu.c        ****         }
 1070              		.loc 1 208 29 is_stmt 1
 213:menu.c        ****         {
 1071              		.loc 1 213 9
 1072 0096 1D47     		li	a4,7
 211:menu.c        ****       {
 1073              		.loc 1 211 7 is_stmt 0
 1074 0098 7D55     		li	a0,-1
 1075 009a 636BF708 		bgtu	a5,a4,.L46
 1076 009e 37050000 		lui	a0,%hi(.LANCHOR2)
 1077 00a2 13050500 		addi	a0,a0,%lo(.LANCHOR2)
 1078 00a6 C9BF     		j	.L96
 1079              	.LVL128:
 1080              	.L80:
 182:menu.c        ****         
 1081              		.loc 1 182 12
GAS LISTING /var/folders/rt/4gvqv631095f64jvm7jfj_000000gn/T//cchVvyDg.s 			page 28


 1082 00a8 9D47     		li	a5,7
 1083              	.LVL129:
 1084              	.L61:
 218:menu.c        ****         }
 1085              		.loc 1 218 29 is_stmt 1
 223:menu.c        ****         {
 1086              		.loc 1 223 9
 1087 00aa 1D47     		li	a4,7
 221:menu.c        ****       {
 1088              		.loc 1 221 7 is_stmt 0
 1089 00ac 7D55     		li	a0,-1
 1090 00ae 6361F708 		bgtu	a5,a4,.L46
 1091 00b2 37050000 		lui	a0,%hi(CSWTCH.88)
 1092 00b6 13050500 		addi	a0,a0,%lo(CSWTCH.88)
 1093 00ba 7DBF     		j	.L96
 1094              	.LVL130:
 1095              	.L81:
 182:menu.c        ****         
 1096              		.loc 1 182 12
 1097 00bc AA87     		mv	a5,a0
 1098              	.LVL131:
 1099              	.L60:
 228:menu.c        ****         }
 1100              		.loc 1 228 30 is_stmt 1
 233:menu.c        ****         {
 1101              		.loc 1 233 9
 1102 00be 1D47     		li	a4,7
 231:menu.c        ****       {
 1103              		.loc 1 231 7 is_stmt 0
 1104 00c0 7D55     		li	a0,-1
 1105 00c2 6367F706 		bgtu	a5,a4,.L46
 1106 00c6 37050000 		lui	a0,%hi(CSWTCH.89)
 1107 00ca 13050500 		addi	a0,a0,%lo(CSWTCH.89)
 1108 00ce 6DB7     		j	.L96
 1109              	.LVL132:
 1110              	.L82:
 182:menu.c        ****         
 1111              		.loc 1 182 12
 1112 00d0 9D47     		li	a5,7
 1113              	.LVL133:
 1114              	.L59:
 246:menu.c        ****           default:return -1;break;
 247:menu.c        ****         }
 248:menu.c        ****       }
 249:menu.c        ****       case VIEWHISTORY:
 250:menu.c        ****       {
 251:menu.c        ****         switch (cursor)
 252:menu.c        ****         {
 253:menu.c        ****           case 7: return SEEDATA; break;
 254:menu.c        ****           default:return -1;  break;
 255:menu.c        ****         }
 256:menu.c        ****       }
 257:menu.c        ****       case LAMP:
 258:menu.c        ****       {
 259:menu.c        ****          switch(cursor)
 260:menu.c        ****         {
 261:menu.c        ****           case 7: return HOME; break;
GAS LISTING /var/folders/rt/4gvqv631095f64jvm7jfj_000000gn/T//cchVvyDg.s 			page 29


 262:menu.c        ****           default:return -1;  break;
 1115              		.loc 1 262 31 is_stmt 1
 263:menu.c        ****         }
 264:menu.c        ****       }
 265:menu.c        ****       case REGISTER:
 266:menu.c        ****       {
 267:menu.c        ****         switch (cursor)
 1116              		.loc 1 267 9
 1117 00d2 1D47     		li	a4,7
 265:menu.c        ****       {
 1118              		.loc 1 265 7 is_stmt 0
 1119 00d4 7D55     		li	a0,-1
 1120 00d6 636DF704 		bgtu	a5,a4,.L46
 1121 00da 37050000 		lui	a0,%hi(.LANCHOR3)
 1122 00de 13050500 		addi	a0,a0,%lo(.LANCHOR3)
 1123 00e2 59BF     		j	.L96
 1124              	.LVL134:
 1125              	.L83:
 182:menu.c        ****         
 1126              		.loc 1 182 12
 1127 00e4 9D47     		li	a5,7
 1128              	.LVL135:
 1129              	.L58:
 268:menu.c        ****         {
 269:menu.c        ****           case 0: return CHOOSE_DEFUALT;break;
 270:menu.c        ****           case 1: return CUSTOM_SETTINGS;break;
 271:menu.c        ****           case 7: return MAINMENU; break;
 272:menu.c        ****           default:return -1;break;
 1130              		.loc 1 272 29 is_stmt 1
 273:menu.c        ****         }
 274:menu.c        ****       }
 275:menu.c        ****       case CHOOSE_DEFUALT:
 276:menu.c        ****       {
 277:menu.c        ****         switch(cursor)
 1131              		.loc 1 277 9
 1132 00e6 1D47     		li	a4,7
 275:menu.c        ****       {
 1133              		.loc 1 275 7 is_stmt 0
 1134 00e8 7D55     		li	a0,-1
 1135 00ea 6363F704 		bgtu	a5,a4,.L46
 1136 00ee 37050000 		lui	a0,%hi(.LANCHOR4)
 1137 00f2 13050500 		addi	a0,a0,%lo(.LANCHOR4)
 1138 00f6 49B7     		j	.L96
 1139              	.LVL136:
 1140              	.L86:
 182:menu.c        ****         
 1141              		.loc 1 182 12
 1142 00f8 9D47     		li	a5,7
 1143              	.LVL137:
 1144              	.L55:
 278:menu.c        ****         {
 279:menu.c        ****           case 0: return TOMATO;break;
 280:menu.c        ****           case 1: return CUCUMBER;break;
 281:menu.c        ****           case 2: return PURPLEHAZE;break;
 282:menu.c        ****           case 7: return REGISTER; break;
 283:menu.c        ****           default:return -1; break;
 284:menu.c        ****         }
GAS LISTING /var/folders/rt/4gvqv631095f64jvm7jfj_000000gn/T//cchVvyDg.s 			page 30


 285:menu.c        ****       }
 286:menu.c        ****       case TOMATO:
 287:menu.c        ****       {
 288:menu.c        ****         switch (cursor)
 289:menu.c        ****         {
 290:menu.c        ****           case 7: return HOME; break;
 291:menu.c        ****           default:return -1;break;
 292:menu.c        ****         }
 293:menu.c        ****       }
 294:menu.c        ****       case CUCUMBER:
 295:menu.c        ****       {
 296:menu.c        ****         switch (cursor)
 297:menu.c        ****         {
 298:menu.c        ****           case 7: return HOME; break;
 299:menu.c        ****           default:return -1;break;
 1145              		.loc 1 299 29 is_stmt 1
 300:menu.c        ****         }
 301:menu.c        ****       }
 302:menu.c        ****       case PURPLEHAZE:
 303:menu.c        ****       {
 304:menu.c        ****         switch (cursor)
 1146              		.loc 1 304 9
 1147 00fa 138597FF 		addi	a0,a5,-7
 1148 00fe 3335A000 		snez	a0,a0
 1149 0102 3305A040 		neg	a0,a0
 1150 0106 8280     		ret
 1151              	.L51:
 305:menu.c        ****         {
 306:menu.c        ****           case 7: return HOME; break;
 307:menu.c        ****           default:return -1;break;
 308:menu.c        ****         }
 309:menu.c        ****       }
 310:menu.c        ****       case CUSTOM_SETTINGS:
 311:menu.c        ****       {
 312:menu.c        ****         switch(cursor)
 313:menu.c        ****         {
 314:menu.c        ****           case 7: return REGISTER; break;
 315:menu.c        ****           default:return -1;  break;
 1152              		.loc 1 315 31
 316:menu.c        ****         }
 317:menu.c        ****       }
 318:menu.c        ****       
 319:menu.c        ****       default:break;
 1153              		.loc 1 319 15
 320:menu.c        ****       
 321:menu.c        ****     }
 322:menu.c        ****     
 323:menu.c        **** }
 1154              		.loc 1 323 1 is_stmt 0
 1155 0108 8280     		ret
 1156              	.LVL138:
 1157              	.L87:
 314:menu.c        ****           default:return -1;  break;
 1158              		.loc 1 314 26
 1159 010a 2145     		li	a0,8
 1160              	.LVL139:
 1161 010c 8280     		ret
GAS LISTING /var/folders/rt/4gvqv631095f64jvm7jfj_000000gn/T//cchVvyDg.s 			page 31


 1162              	.LVL140:
 1163              	.L95:
 246:menu.c        ****         }
 1164              		.loc 1 246 26
 1165 010e 7D55     		li	a0,-1
 1166 0110 8280     		ret
 1167              	.LVL141:
 1168              	.L74:
 178:menu.c        ****     if((pointer-((6*step)+starty))==0)
 1169              		.loc 1 178 12
 1170 0112 9547     		li	a5,5
 1171              	.LVL142:
 1172              	.L50:
 184:menu.c        ****     {
 1173              		.loc 1 184 5 is_stmt 1
 1174 0114 4547     		li	a4,17
 1175 0116 E369A7FE 		bgtu	a0,a4,.L51
 1176 011a 37070000 		lui	a4,%hi(.L67)
 1177 011e 13070700 		addi	a4,a4,%lo(.L67)
 1178 0122 0A05     		slli	a0,a0,2
 1179              	.LVL143:
 1180 0124 3A95     		add	a0,a0,a4
 1181 0126 1841     		lw	a4,0(a0)
 1182 0128 0287     		jr	a4
 1183              		.section	.rodata.which_page
 1184              		.align	2
 1185              		.align	2
 1186              	.L67:
 1187 0048 00000000 		.word	.L68
 1188 004c 00000000 		.word	.L65
 1189 0050 00000000 		.word	.L64
 1190 0054 00000000 		.word	.L63
 1191 0058 00000000 		.word	.L95
 1192 005c 00000000 		.word	.L95
 1193 0060 00000000 		.word	.L61
 1194 0064 00000000 		.word	.L60
 1195 0068 00000000 		.word	.L59
 1196 006c 00000000 		.word	.L58
 1197 0070 00000000 		.word	.L55
 1198 0074 00000000 		.word	.L55
 1199 0078 00000000 		.word	.L55
 1200 007c 00000000 		.word	.L95
 1201 0080 00000000 		.word	.L51
 1202 0084 00000000 		.word	.L51
 1203 0088 00000000 		.word	.L51
 1204 008c 00000000 		.word	.L55
 1205              		.section	.text.which_page
 1206              	.LVL144:
 1207              	.L75:
 180:menu.c        ****     if((pointer-((7*step)+starty))==0)
 1208              		.loc 1 180 12 is_stmt 0
 1209 012a 9947     		li	a5,6
 1210              	.LVL145:
 1211 012c E5B7     		j	.L50
 1212              	.LVL146:
 1213              	.L68:
 186:menu.c        ****     case MAINMENU:
GAS LISTING /var/folders/rt/4gvqv631095f64jvm7jfj_000000gn/T//cchVvyDg.s 			page 32


 1214              		.loc 1 186 24
 1215 012e 0545     		li	a0,1
 1216              	.L46:
 1217              		.loc 1 323 1
 1218 0130 8280     		ret
 1219              		.cfi_endproc
 1220              	.LFE7:
 1222              		.section	.text.Buttonpressed,"ax",@progbits
 1223              		.align	1
 1224              		.globl	Buttonpressed
 1226              	Buttonpressed:
 1227              	.LFB8:
 324:menu.c        **** 
 325:menu.c        **** void Buttonpressed(int *P_page,int akey, int *pNumberOfPlants, Plant allPlants[], int *P_point)
 326:menu.c        **** {
 1228              		.loc 1 326 1 is_stmt 1
 1229              		.cfi_startproc
 1230              	.LVL147:
 327:menu.c        **** 
 328:menu.c        ****   int next_page =-1;
 1231              		.loc 1 328 3
 329:menu.c        ****   
 330:menu.c        ****   switch(akey)
 1232              		.loc 1 330 3
 1233 0000 1548     		li	a6,5
 1234 0002 638E0501 		beq	a1,a6,.L98
 1235 0006 A146     		li	a3,8
 1236              	.LVL148:
 1237 0008 6385D500 		beq	a1,a3,.L99
 1238 000c 8946     		li	a3,2
 1239 000e 639CD504 		bne	a1,a3,.L102
 1240              	.L99:
 331:menu.c        ****                 {
 332:menu.c        ****                   case 2:move_pointer(P_point, akey,*P_page);break;      //MOVE THE CURSOR TO THE C
 333:menu.c        ****                   case 8:move_pointer(P_point, akey,*P_page);break;      //POINTER WAS A BAD NAME F
 1241              		.loc 1 333 26
 1242 0012 1041     		lw	a2,0(a0)
 1243              	.LVL149:
 1244 0014 3A85     		mv	a0,a4
 1245              	.LVL150:
 1246 0016 17030000 		tail	move_pointer
 1246      67000300 
 1247              	.LVL151:
 1248              	.L98:
 326:menu.c        **** 
 1249              		.loc 1 326 1 is_stmt 0
 1250 001e 0111     		addi	sp,sp,-32
 1251              	.LCFI12:
 1252              		.cfi_def_cfa_offset 32
 1253 0020 26CA     		sw	s1,20(sp)
 334:menu.c        ****                   case 5:
 335:menu.c        ****                   {
 336:menu.c        ****                   next_page = which_page(*P_page,*P_point);              // CHOOSE WHICH PAGE TO DI
 1254              		.loc 1 336 31
 1255 0022 0C43     		lw	a1,0(a4)
 1256              	.LVL152:
 1257              		.cfi_offset 9, -12
GAS LISTING /var/folders/rt/4gvqv631095f64jvm7jfj_000000gn/T//cchVvyDg.s 			page 33


 1258 0024 AA84     		mv	s1,a0
 1259              		.loc 1 336 19 is_stmt 1
 1260              		.loc 1 336 31 is_stmt 0
 1261 0026 0841     		lw	a0,0(a0)
 1262              	.LVL153:
 326:menu.c        **** 
 1263              		.loc 1 326 1
 1264 0028 22CC     		sw	s0,24(sp)
 1265 002a 06CE     		sw	ra,28(sp)
 1266              		.cfi_offset 8, -8
 1267              		.cfi_offset 1, -4
 1268 002c 3A84     		mv	s0,a4
 1269 002e 36C6     		sw	a3,12(sp)
 1270 0030 32C4     		sw	a2,8(sp)
 1271              		.loc 1 336 31
 1272 0032 97000000 		call	which_page
 1272      E7800000 
 1273              	.LVL154:
 337:menu.c        ****                     if(next_page != -1)
 1274              		.loc 1 337 21 is_stmt 1
 1275              		.loc 1 337 23 is_stmt 0
 1276 003a 7D57     		li	a4,-1
 1277 003c 6300E502 		beq	a0,a4,.L97
 338:menu.c        ****                     {
 339:menu.c        ****                       (*P_point) = 13; 
 1278              		.loc 1 339 23 is_stmt 1
 1279              		.loc 1 339 34 is_stmt 0
 1280 0040 3547     		li	a4,13
 1281 0042 18C0     		sw	a4,0(s0)
 340:menu.c        ****                       (*P_page) = next_page;                                 //NEW PAGE PUT THE CUR
 1282              		.loc 1 340 23 is_stmt 1
 1283              		.loc 1 340 33 is_stmt 0
 1284 0044 88C0     		sw	a0,0(s1)
 341:menu.c        ****                       pages(*P_page,*P_point, pNumberOfPlants,allPlants);  
 1285              		.loc 1 341 23 is_stmt 1
 1286 0046 0C40     		lw	a1,0(s0)
 342:menu.c        ****                     }
 343:menu.c        ****                     else (*P_page)=(*P_page);
 344:menu.c        ****                   }break;
 345:menu.c        ****                   
 346:menu.c        ****                   default:{
 347:menu.c        ****               }break;
 348:menu.c        ****                 }
 349:menu.c        **** }
 1287              		.loc 1 349 1 is_stmt 0
 1288 0048 6244     		lw	s0,24(sp)
 1289              		.cfi_remember_state
 1290              		.cfi_restore 8
 1291              	.LVL155:
 341:menu.c        ****                       pages(*P_page,*P_point, pNumberOfPlants,allPlants);  
 1292              		.loc 1 341 23
 1293 004a B246     		lw	a3,12(sp)
 1294 004c 2246     		lw	a2,8(sp)
 1295              		.loc 1 349 1
 1296 004e F240     		lw	ra,28(sp)
 1297              		.cfi_restore 1
 1298 0050 D244     		lw	s1,20(sp)
GAS LISTING /var/folders/rt/4gvqv631095f64jvm7jfj_000000gn/T//cchVvyDg.s 			page 34


 1299              		.cfi_restore 9
 1300              	.LVL156:
 1301 0052 0561     		addi	sp,sp,32
 1302              	.LCFI13:
 1303              		.cfi_def_cfa_offset 0
 1304              	.LVL157:
 341:menu.c        ****                       pages(*P_page,*P_point, pNumberOfPlants,allPlants);  
 1305              		.loc 1 341 23
 1306 0054 17030000 		tail	pages
 1306      67000300 
 1307              	.LVL158:
 1308              	.L97:
 1309              	.LCFI14:
 1310              		.cfi_restore_state
 1311              		.loc 1 349 1
 1312 005c F240     		lw	ra,28(sp)
 1313              		.cfi_restore 1
 1314 005e 6244     		lw	s0,24(sp)
 1315              		.cfi_restore 8
 1316              	.LVL159:
 1317 0060 D244     		lw	s1,20(sp)
 1318              		.cfi_restore 9
 1319              	.LVL160:
 1320 0062 0561     		addi	sp,sp,32
 1321              	.LCFI15:
 1322              		.cfi_def_cfa_offset 0
 1323              	.LVL161:
 1324 0064 8280     		jr	ra
 1325              	.LVL162:
 1326              	.L102:
 1327 0066 8280     		ret
 1328              		.cfi_endproc
 1329              	.LFE8:
 1331              		.section	.text.no_button_press,"ax",@progbits
 1332              		.align	1
 1333              		.globl	no_button_press
 1335              	no_button_press:
 1336              	.LFB9:
 350:menu.c        **** void no_button_press(int *P_page,int *P_nopress)
 351:menu.c        **** {
 1337              		.loc 1 351 1 is_stmt 1
 1338              		.cfi_startproc
 1339              	.LVL163:
 352:menu.c        **** 
 353:menu.c        ****   (*P_nopress)++;
 1340              		.loc 1 353 3
 1341              		.loc 1 353 15 is_stmt 0
 1342 0000 9C41     		lw	a5,0(a1)
 354:menu.c        ****   if((*P_nopress) >= (TIMOUT_ms))           //if the time with no button press is bigger than the d
 1343              		.loc 1 354 5
 1344 0002 37970400 		li	a4,299008
 1345 0006 1307F73D 		addi	a4,a4,991
 353:menu.c        ****   if((*P_nopress) >= (TIMOUT_ms))           //if the time with no button press is bigger than the d
 1346              		.loc 1 353 15
 1347 000a 8507     		addi	a5,a5,1
 1348 000c 9CC1     		sw	a5,0(a1)
 1349              		.loc 1 354 3 is_stmt 1
GAS LISTING /var/folders/rt/4gvqv631095f64jvm7jfj_000000gn/T//cchVvyDg.s 			page 35


 1350              		.loc 1 354 5 is_stmt 0
 1351 000e 6353F704 		ble	a5,a4,.L107
 351:menu.c        **** 
 1352              		.loc 1 351 1
 1353 0012 4111     		addi	sp,sp,-16
 1354              	.LCFI16:
 1355              		.cfi_def_cfa_offset 16
 1356 0014 26C2     		sw	s1,4(sp)
 1357              		.cfi_offset 9, -12
 1358 0016 AA84     		mv	s1,a0
 355:menu.c        ****             {
 356:menu.c        ****               LCD_Clear(BLACK);
 1359              		.loc 1 356 15 is_stmt 1
 1360 0018 0145     		li	a0,0
 1361              	.LVL164:
 351:menu.c        **** 
 1362              		.loc 1 351 1 is_stmt 0
 1363 001a 06C6     		sw	ra,12(sp)
 1364 001c 22C4     		sw	s0,8(sp)
 1365              		.cfi_offset 1, -4
 1366              		.cfi_offset 8, -8
 1367 001e 2E84     		mv	s0,a1
 1368              		.loc 1 356 15
 1369 0020 97000000 		call	LCD_Clear
 1369      E7800000 
 1370              	.LVL165:
 357:menu.c        ****               LCD_ShowStr(10, 10, "Green fingers", WHITE, TRANSPARENT);
 1371              		.loc 1 357 15 is_stmt 1
 1372 0028 C166     		li	a3,65536
 1373 002a 37060000 		lui	a2,%hi(.LC0)
 1374 002e 0547     		li	a4,1
 1375 0030 FD16     		addi	a3,a3,-1
 1376 0032 13060600 		addi	a2,a2,%lo(.LC0)
 1377 0036 A945     		li	a1,10
 1378 0038 2945     		li	a0,10
 1379 003a 97000000 		call	LCD_ShowStr
 1379      E7800000 
 1380              	.LVL166:
 358:menu.c        ****               (*P_page) = HOME;
 1381              		.loc 1 358 15
 1382              		.loc 1 358 25 is_stmt 0
 1383 0042 23A00400 		sw	zero,0(s1)
 359:menu.c        ****               (*P_nopress)=0;
 1384              		.loc 1 359 15 is_stmt 1
 1385              		.loc 1 359 27 is_stmt 0
 1386 0046 23200400 		sw	zero,0(s0)
 360:menu.c        ****               
 361:menu.c        ****             }
 362:menu.c        **** }...
 1387              		.loc 1 362 1
 1388 004a B240     		lw	ra,12(sp)
 1389              		.cfi_restore 1
 1390 004c 2244     		lw	s0,8(sp)
 1391              		.cfi_restore 8
 1392              	.LVL167:
 1393 004e 9244     		lw	s1,4(sp)
 1394              		.cfi_restore 9
GAS LISTING /var/folders/rt/4gvqv631095f64jvm7jfj_000000gn/T//cchVvyDg.s 			page 36


 1395              	.LVL168:
 1396 0050 4101     		addi	sp,sp,16
 1397              	.LCFI17:
 1398              		.cfi_def_cfa_offset 0
 1399 0052 8280     		jr	ra
 1400              	.LVL169:
 1401              	.L107:
 1402 0054 8280     		ret
 1403              		.cfi_endproc
 1404              	.LFE9:
 1406              		.set	CSWTCH.89,CSWTCH.87
 1407              		.set	CSWTCH.88,CSWTCH.87
 1408              		.section	.rodata.pages.str1.4,"aMS",@progbits,1
 1409              		.align	2
 1410              	.LC0:
 1411 0000 47726565 		.string	"Green fingers"
 1411      6E206669 
 1411      6E676572 
 1411      7300
 1412 000e 0000     		.zero	2
 1413              	.LC1:
 1414 0010 73656520 		.string	"see data"
 1414      64617461 
 1414      00
 1415 0019 000000   		.zero	3
 1416              	.LC2:
 1417 001c 72656769 		.string	"register a plant"
 1417      73746572 
 1417      20612070 
 1417      6C616E74 
 1417      00
 1418 002d 000000   		.zero	3
 1419              	.LC3:
 1420 0030 72657365 		.string	"reset"
 1420      7400
 1421 0036 0000     		.zero	2
 1422              	.LC4:
 1423 0038 6261636B 		.string	"back"
 1423      00
 1424 003d 000000   		.zero	3
 1425              	.LC5:
 1426 0040 706C616E 		.string	"plant "
 1426      742000
 1427 0047 00       		.zero	1
 1428              	.LC6:
 1429 0048 53656520 		.string	"See snap shot"
 1429      736E6170 
 1429      2073686F 
 1429      7400
 1430 0056 0000     		.zero	2
 1431              	.LC7:
 1432 0058 76696577 		.string	"view history"
 1432      20686973 
 1432      746F7279 
 1432      00
 1433 0065 000000   		.zero	3
 1434              	.LC8:
GAS LISTING /var/folders/rt/4gvqv631095f64jvm7jfj_000000gn/T//cchVvyDg.s 			page 37


 1435 0068 736E6170 		.string	"snap shot"
 1435      2073686F 
 1435      7400
 1436 0072 0000     		.zero	2
 1437              	.LC9:
 1438 0074 43686F6F 		.string	"Choose default"
 1438      73652064 
 1438      65666175 
 1438      6C7400
 1439 0083 00       		.zero	1
 1440              	.LC10:
 1441 0084 43757374 		.string	"Custom settings"
 1441      6F6D2073 
 1441      65747469 
 1441      6E677300 
 1442              	.LC11:
 1443 0094 546F6D61 		.string	"Tomato"
 1443      746F00
 1444 009b 00       		.zero	1
 1445              	.LC12:
 1446 009c 63756375 		.string	"cucumber"
 1446      6D626572 
 1446      00
 1447 00a5 000000   		.zero	3
 1448              	.LC13:
 1449 00a8 50757270 		.string	"Purple haze"
 1449      6C652068 
 1449      617A6500 
 1450              	.LC14:
 1451 00b4 546F6D61 		.string	"Tomato added!"
 1451      746F2061 
 1451      64646564 
 1451      2100
 1452 00c2 0000     		.zero	2
 1453              	.LC15:
 1454 00c4 43756375 		.string	"Cucumber"
 1454      6D626572 
 1454      00
 1455 00cd 000000   		.zero	3
 1456              	.LC16:
 1457 00d0 44525547 		.string	"DRUGS ARE BAD"
 1457      53204152 
 1457      45204241 
 1457      4400
 1458 00de 0000     		.zero	2
 1459              	.LC17:
 1460 00e0 6D6D6B61 		.string	"mmkaaaayy"
 1460      61616179 
 1460      7900
 1461 00ea 0000     		.zero	2
 1462              	.LC18:
 1463 00ec 4D792073 		.string	"My swagga"
 1463      77616767 
 1463      6100
 1464 00f6 0000     		.zero	2
 1465              	.LC19:
 1466 00f8 6E656564 		.string	"need to be able to read in data"
GAS LISTING /var/folders/rt/4gvqv631095f64jvm7jfj_000000gn/T//cchVvyDg.s 			page 38


 1466      20746F20 
 1466      62652061 
 1466      626C6520 
 1466      746F2072 
 1467              	.LC20:
 1468 0118 4C414D50 		.string	"LAMP on"
 1468      206F6E00 
 1469              	.LC21:
 1470 0120 4D6F6973 		.string	"Moisture: "
 1470      74757265 
 1470      3A2000
 1471 012b 00       		.zero	1
 1472              	.LC22:
 1473 012c 73756E3A 		.string	"sun: "
 1473      2000
 1474 0132 0000     		.zero	2
 1475              	.LC23:
 1476 0134 54656D70 		.string	"Temp: "
 1476      3A2000
 1477 013b 00       		.zero	1
 1478              	.LC24:
 1479 013c 52657365 		.string	"Reset all"
 1479      7420616C 
 1479      6C00
 1480 0146 0000     		.zero	2
 1481              	.LC25:
 1482 0148 72657365 		.string	"reset a plant"
 1482      74206120 
 1482      706C616E 
 1482      7400
 1483              		.section	.sdata2.CSWTCH.85,"a"
 1484              		.align	2
 1485              		.set	.LANCHOR0,. + 0
 1488              	CSWTCH.85:
 1489 0000 02       		.byte	2
 1490 0001 08       		.byte	8
 1491 0002 00       		.byte	0
 1492 0003 11       		.byte	17
 1493 0004 FF       		.byte	-1
 1494 0005 FF       		.byte	-1
 1495 0006 FF       		.byte	-1
 1496 0007 00       		.byte	0
 1497              		.section	.sdata2.CSWTCH.86,"a"
 1498              		.align	2
 1499              		.set	.LANCHOR1,. + 0
 1502              	CSWTCH.86:
 1503 0000 03       		.byte	3
 1504 0001 06       		.byte	6
 1505 0002 07       		.byte	7
 1506 0003 FF       		.byte	-1
 1507 0004 FF       		.byte	-1
 1508 0005 FF       		.byte	-1
 1509 0006 FF       		.byte	-1
 1510 0007 01       		.byte	1
 1511              		.section	.sdata2.CSWTCH.87,"a"
 1512              		.align	2
 1513              		.set	.LANCHOR2,. + 0
GAS LISTING /var/folders/rt/4gvqv631095f64jvm7jfj_000000gn/T//cchVvyDg.s 			page 39


 1516              	CSWTCH.87:
 1517 0000 04       		.byte	4
 1518 0001 05       		.byte	5
 1519 0002 FF       		.byte	-1
 1520 0003 FF       		.byte	-1
 1521 0004 FF       		.byte	-1
 1522 0005 FF       		.byte	-1
 1523 0006 FF       		.byte	-1
 1524 0007 02       		.byte	2
 1525              		.section	.sdata2.CSWTCH.90,"a"
 1526              		.align	2
 1527              		.set	.LANCHOR3,. + 0
 1530              	CSWTCH.90:
 1531 0000 09       		.byte	9
 1532 0001 0D       		.byte	13
 1533 0002 FF       		.byte	-1
 1534 0003 FF       		.byte	-1
 1535 0004 FF       		.byte	-1
 1536 0005 FF       		.byte	-1
 1537 0006 FF       		.byte	-1
 1538 0007 01       		.byte	1
 1539              		.section	.sdata2.CSWTCH.91,"a"
 1540              		.align	2
 1541              		.set	.LANCHOR4,. + 0
 1544              	CSWTCH.91:
 1545 0000 0A       		.byte	10
 1546 0001 0B       		.byte	11
 1547 0002 0C       		.byte	12
 1548 0003 FF       		.byte	-1
 1549 0004 FF       		.byte	-1
 1550 0005 FF       		.byte	-1
 1551 0006 FF       		.byte	-1
 1552 0007 08       		.byte	8
 1553              		.text
 1554              	.Letext0:
 1555              		.file 2 "/Users/alexstrae/toolchain-gd32v-v202-osx/compiler/riscv64-unknown-elf/include/machine/_d
 1556              		.file 3 "/Users/alexstrae/toolchain-gd32v-v202-osx/compiler/lib/gcc/riscv64-unknown-elf/8.3.0/incl
 1557              		.file 4 "/Users/alexstrae/toolchain-gd32v-v202-osx/compiler/riscv64-unknown-elf/include/sys/_types
 1558              		.file 5 "/Users/alexstrae/toolchain-gd32v-v202-osx/compiler/riscv64-unknown-elf/include/sys/reent.
 1559              		.file 6 "/Users/alexstrae/toolchain-gd32v-v202-osx/compiler/riscv64-unknown-elf/include/sys/lock.h
 1560              		.file 7 "/Users/alexstrae/toolchain-gd32v-v202-osx/compiler/riscv64-unknown-elf/include/sys/_stdin
 1561              		.file 8 "plant.h"
 1562              		.file 9 "/Users/alexstrae/toolchain-gd32v-v202-osx/compiler/riscv64-unknown-elf/include/stdlib.h"
 1563              		.file 10 "../../firmware/GD32VF103_standard_peripheral/system_gd32vf103.h"
 1564              		.file 11 "menu.h"
 1565              		.file 12 "../../firmware/GD32VF103_standard_peripheral/gd32vf103.h"
 1566              		.file 13 "lcd.h"
 1567              		.file 14 "adc.h"
 1568              		.file 15 "../../firmware/GD32VF103_standard_peripheral/Include/gd32vf103_gpio.h"
 1569              		.file 16 "renderPlants.h"
GAS LISTING /var/folders/rt/4gvqv631095f64jvm7jfj_000000gn/T//cchVvyDg.s 			page 40

