GAS LISTING /var/folders/rt/4gvqv631095f64jvm7jfj_000000gn/T//cc80PrWX.s 			page 1


   1              		.file	"menu.c"
   2              		.option nopic
   3              		.attribute arch, "rv32i2p0_m2p0_a2p0_c2p0"
   4              		.attribute unaligned_access, 0
   5              		.attribute stack_align, 16
   6              		.text
   7              	.Ltext0:
   8              		.cfi_sections	.debug_frame
   9              		.globl	__fixunssfsi
  10              		.section	.text.pages,"ax",@progbits
  11              		.align	1
  12              		.globl	pages
  14              	pages:
  15              	.LFB5:
  16              		.file 1 "menu.c"
   1:menu.c        **** #include "adc.h"
   2:menu.c        **** #include "lcd.h"
   3:menu.c        **** #include "plant.h"
   4:menu.c        **** #define BACK_Y 124
   5:menu.c        **** #define TIMEOUT_mins 5
   6:menu.c        **** #define TIMOUT_ms ( TIMEOUT_mins *60000)
   7:menu.c        **** 
   8:menu.c        **** void pages(int page, int point, int numberOfPlants, Plant allPlants[])   ////int numberOfPlants, PL
   9:menu.c        **** {
  17              		.loc 1 9 1
  18              		.cfi_startproc
  19              	.LVL0:
  10:menu.c        ****   int x = 12;
  20              		.loc 1 10 3
  11:menu.c        ****   int y=10;
  21              		.loc 1 11 3
  12:menu.c        ****   int fukt = 0;
  22              		.loc 1 12 3
  13:menu.c        ****   int plantnum = 1;
  23              		.loc 1 13 3
  14:menu.c        ****   int channel = 3;
  24              		.loc 1 14 3
  15:menu.c        ****   int sun =0;
  25              		.loc 1 15 3
  16:menu.c        ****   int runtemp =0;
  26              		.loc 1 16 3
  17:menu.c        ****   float temp=0;
  27              		.loc 1 17 3
  18:menu.c        ****   
  19:menu.c        ****   switch(page)
  28              		.loc 1 19 3
  29 0000 B947     		li	a5,14
  30 0002 63EDA748 		bgtu	a0,a5,.L1
  31 0006 B7070000 		lui	a5,%hi(.L4)
  32 000a 93870700 		addi	a5,a5,%lo(.L4)
  33 000e 0A05     		slli	a0,a0,2
  34              	.LVL1:
  35 0010 3E95     		add	a0,a0,a5
  36 0012 1C41     		lw	a5,0(a0)
   9:menu.c        ****   int x = 12;
  37              		.loc 1 9 1 is_stmt 0
  38 0014 7971     		addi	sp,sp,-48
GAS LISTING /var/folders/rt/4gvqv631095f64jvm7jfj_000000gn/T//cc80PrWX.s 			page 2


  39              	.LCFI0:
  40              		.cfi_def_cfa_offset 48
  41 0016 4ECE     		sw	s3,28(sp)
  42 0018 06D6     		sw	ra,44(sp)
  43 001a 22D4     		sw	s0,40(sp)
  44 001c 26D2     		sw	s1,36(sp)
  45 001e 4AD0     		sw	s2,32(sp)
  46 0020 52CC     		sw	s4,24(sp)
  47              		.cfi_offset 19, -20
  48              		.cfi_offset 1, -4
  49              		.cfi_offset 8, -8
  50              		.cfi_offset 9, -12
  51              		.cfi_offset 18, -16
  52              		.cfi_offset 20, -24
  53 0022 B289     		mv	s3,a2
  54              		.loc 1 19 3
  55 0024 8287     		jr	a5
  56              		.section	.rodata.pages,"a",@progbits
  57              		.align	2
  58              		.align	2
  59              	.L4:
  60 0000 00000000 		.word	.L17
  61 0004 00000000 		.word	.L16
  62 0008 00000000 		.word	.L15
  63 000c 00000000 		.word	.L14
  64 0010 00000000 		.word	.L13
  65 0014 00000000 		.word	.L12
  66 0018 00000000 		.word	.L11
  67 001c 00000000 		.word	.L11
  68 0020 00000000 		.word	.L10
  69 0024 00000000 		.word	.L9
  70 0028 00000000 		.word	.L8
  71 002c 00000000 		.word	.L7
  72 0030 00000000 		.word	.L6
  73 0034 00000000 		.word	.L5
  74 0038 00000000 		.word	.L3
  75              		.section	.text.pages
  76              	.L17:
  20:menu.c        ****   {
  21:menu.c        ****     case HOME: {LCD_Clear(BLACK);
  77              		.loc 1 21 17 is_stmt 1
  78 0026 0145     		li	a0,0
  79 0028 97000000 		call	LCD_Clear
  79      E7800000 
  80              	.LVL2:
  22:menu.c        ****     LCD_ShowStr(10, 10, "Green fingers", WHITE, TRANSPARENT);}break;
  81              		.loc 1 22 5
  82 0030 C166     		li	a3,65536
  83 0032 37060000 		lui	a2,%hi(.LC0)
  84 0036 0547     		li	a4,1
  85 0038 FD16     		addi	a3,a3,-1
  86 003a 13060600 		addi	a2,a2,%lo(.LC0)
  87 003e A945     		li	a1,10
  88 0040 2945     		li	a0,10
  89              	.LVL3:
  90              	.L23:
  23:menu.c        ****     case MAINMENU: {
GAS LISTING /var/folders/rt/4gvqv631095f64jvm7jfj_000000gn/T//cc80PrWX.s 			page 3


  24:menu.c        ****       
  25:menu.c        ****       LCD_Clear(BLACK);
  26:menu.c        ****       LCD_ShowChar(1,point,'>',TRANSPARENT,WHITE);
  27:menu.c        ****       LCD_ShowStr(x, y, "see data", WHITE, TRANSPARENT);y+=16;
  28:menu.c        ****       LCD_ShowStr(x, y, "register a plant", WHITE, TRANSPARENT);y+=16;
  29:menu.c        ****       LCD_ShowStr(x, y, "reset", WHITE, TRANSPARENT);y+=16;
  30:menu.c        ****       LCD_ShowStr(x, BACK_Y, "back", WHITE, TRANSPARENT);}break;
  31:menu.c        **** 
  32:menu.c        ****      case SEEDATA: {
  33:menu.c        ****       LCD_Clear(BLACK);
  34:menu.c        ****       LCD_ShowChar(1,point,'>',TRANSPARENT,WHITE);
  35:menu.c        ****       for(int i=0; i<numberOfPlants;i++)
  36:menu.c        ****       {
  37:menu.c        ****         LCD_ShowStr(x, y, "plant ", WHITE, TRANSPARENT);
  38:menu.c        ****         LCD_ShowNum(x+48,y,i+1,TRANSPARENT,WHITE);y+=16;
  39:menu.c        ****       }
  40:menu.c        ****       LCD_ShowStr(x, BACK_Y, "back", WHITE, TRANSPARENT);
  41:menu.c        ****      }break;
  42:menu.c        ****       case plant1:{
  43:menu.c        ****         LCD_Clear(BLACK);
  44:menu.c        ****         LCD_ShowChar(1,point,'>',TRANSPARENT,WHITE);
  45:menu.c        ****         LCD_ShowStr(x, y, "See snap shot", WHITE, TRANSPARENT);y+=16;
  46:menu.c        ****         LCD_ShowStr(x, y, "view history", WHITE, TRANSPARENT);
  47:menu.c        ****         LCD_ShowStr(x, BACK_Y, "back", WHITE, TRANSPARENT);}break;
  48:menu.c        ****       case plant2:{
  49:menu.c        ****         LCD_Clear(BLACK);
  50:menu.c        ****         LCD_ShowChar(1,point,'>',TRANSPARENT,WHITE);
  51:menu.c        ****         LCD_ShowStr(x, y, "snap shot", WHITE, TRANSPARENT);y+=16;
  52:menu.c        ****         LCD_ShowStr(x, y, "view history", WHITE, TRANSPARENT);
  53:menu.c        ****         LCD_ShowStr(x, BACK_Y, "back", WHITE, TRANSPARENT);}break;
  54:menu.c        ****       case plant3:{
  55:menu.c        ****         LCD_Clear(BLACK);
  56:menu.c        ****         LCD_ShowChar(1,point,'>',TRANSPARENT,WHITE);
  57:menu.c        ****         LCD_ShowStr(x, y, "snap shot", WHITE, TRANSPARENT);y+=16;
  58:menu.c        ****         LCD_ShowStr(x, y, "view history", WHITE, TRANSPARENT);
  59:menu.c        ****         LCD_ShowStr(x, BACK_Y, "back", WHITE, TRANSPARENT);}break; 
  60:menu.c        ****       case REGISTER:{
  61:menu.c        ****         LCD_Clear(BLACK);
  62:menu.c        ****         LCD_ShowChar(1,point,'>',TRANSPARENT,WHITE);
  63:menu.c        ****         LCD_ShowStr(x, y, "Choose default", WHITE, TRANSPARENT);y+=16;
  64:menu.c        ****         LCD_ShowStr(x, y, "Custom settings", WHITE, TRANSPARENT);
  65:menu.c        ****         LCD_ShowStr(x, BACK_Y, "back", WHITE, TRANSPARENT);}break;
  66:menu.c        ****       case CHOOSE_DEFUALT:{
  67:menu.c        ****         LCD_Clear(BLACK);
  68:menu.c        ****         LCD_ShowChar(1,point,'>',TRANSPARENT,WHITE);
  69:menu.c        ****         LCD_ShowStr(x, y, "Tomato", WHITE, TRANSPARENT);y+=16;
  70:menu.c        ****         LCD_ShowStr(x, y, "cucumber", WHITE, TRANSPARENT);y+=16;
  71:menu.c        ****         LCD_ShowStr(x, y, "Purple haze", WHITE, TRANSPARENT);
  72:menu.c        ****         LCD_ShowStr(x, BACK_Y, "back", WHITE, TRANSPARENT);}break;
  73:menu.c        ****         case TOMATO:{
  74:menu.c        ****         LCD_Clear(BLACK);
  75:menu.c        ****         LCD_ShowStr(x, y, "Tomato", WHITE, TRANSPARENT);y+=16;
  76:menu.c        ****         LCD_ShowStr(x, BACK_Y, "back", WHITE, TRANSPARENT);      //needs function
  77:menu.c        ****         }break;   
  78:menu.c        ****         case CUCUMBER:{
  79:menu.c        ****         LCD_Clear(BLACK);
  80:menu.c        ****         LCD_ShowStr(x, y, "Cucumber", WHITE, TRANSPARENT);y+=16;
GAS LISTING /var/folders/rt/4gvqv631095f64jvm7jfj_000000gn/T//cc80PrWX.s 			page 4


  81:menu.c        ****         LCD_ShowStr(x, BACK_Y, "back", WHITE, TRANSPARENT);       //needs function
  82:menu.c        ****         }break;  
  83:menu.c        ****         case PURPLEHAZE:{
  84:menu.c        ****         LCD_Clear(BLACK);
  85:menu.c        ****         LCD_ShowStr(x, y, "DRUGS ARE BAD", WHITE, TRANSPARENT);y+=16;
  86:menu.c        ****         LCD_ShowStr(x, y, "mmkaaaayy", WHITE, TRANSPARENT);y+=16;
  87:menu.c        ****         LCD_ShowStr(x, BACK_Y, "back", WHITE, TRANSPARENT);
  88:menu.c        ****         }break;                                                    //needs function
  89:menu.c        ****       case CUSTOM_SETTINGS:{
  90:menu.c        ****         LCD_Clear(BLACK);
  91:menu.c        ****         LCD_ShowChar(1,point,'>',TRANSPARENT,WHITE);
  92:menu.c        ****         LCD_ShowStr(x, y, "need to be able to read in data", WHITE, TRANSPARENT);
  93:menu.c        ****         LCD_ShowStr(x, BACK_Y, "back", WHITE, TRANSPARENT);  //needs function
  94:menu.c        ****         }break;
  95:menu.c        ****       case SNAPSHOT:{
  96:menu.c        ****        LCD_Wait_On_Queue();
  97:menu.c        ****        
  98:menu.c        ****        for(int i=0;i>500000;i++);
  99:menu.c        ****         //temp=MAX31865_ReadADC();
 100:menu.c        ****         temp=read_temp();
 101:menu.c        ****         LCD_Clear(BLACK);
 102:menu.c        ****         //ADC_read(3);
 103:menu.c        ****         fukt = ADC_read(3);
 104:menu.c        ****         LCD_ShowChar(1,point,'>',TRANSPARENT,WHITE);
 105:menu.c        ****         LCD_ShowStr(x, y, "Moisture: ", WHITE, TRANSPARENT);
 106:menu.c        ****         LCD_ShowNum(x+(9*8),y,fukt,4,WHITE);y+=16;
 107:menu.c        ****         //channel = 1;
 108:menu.c        ****         //ADC_read(1);
 109:menu.c        ****         sun = ADC_read(1);
 110:menu.c        ****         LCD_ShowStr(x, y, "sun: ", WHITE, TRANSPARENT);
 111:menu.c        ****         LCD_ShowNum(x+(9*8),y,sun,4,WHITE);y+=16;
 112:menu.c        ****         LCD_ShowStr(x, y, "Temp: ", WHITE, TRANSPARENT);
 113:menu.c        ****         LCD_ShowNum(x+(9*8),y,temp,2,WHITE);
 114:menu.c        ****         LCD_ShowChar((13*8),y,'C',TRANSPARENT,WHITE);
 115:menu.c        ****         LCD_ShowStr(x, BACK_Y, "back", WHITE, TRANSPARENT);
 116:menu.c        ****         
 117:menu.c        ****       }break;
 118:menu.c        ****       case VIEWHISTORY:{
 119:menu.c        ****         LCD_Clear(BLACK);
 120:menu.c        ****         LCD_ShowStr(x, y, "some data ", WHITE, TRANSPARENT); 
 121:menu.c        ****         LCD_ShowStr(x, BACK_Y, "back", WHITE, TRANSPARENT);     //needs function
 122:menu.c        ****       }break;
 123:menu.c        ****       case RESETDATA:{
 124:menu.c        ****         LCD_Clear(BLACK);
 125:menu.c        ****         LCD_ShowChar(1,point,'>',TRANSPARENT,WHITE);
 126:menu.c        ****         LCD_ShowStr(x, y, "Reset all", WHITE, TRANSPARENT);y+=16;
 127:menu.c        ****         LCD_ShowStr(x, y, "reset a plant", WHITE, TRANSPARENT);y+=16;
 128:menu.c        ****         LCD_ShowStr(x, BACK_Y, "back", WHITE, TRANSPARENT);
 129:menu.c        ****         }break;
 130:menu.c        **** 
 131:menu.c        ****        break;
 132:menu.c        ****       default:break;
 133:menu.c        ****       }
 134:menu.c        ****       
 135:menu.c        ****     } 
  91              		.loc 1 135 5 is_stmt 0
  92 0042 2254     		lw	s0,40(sp)
GAS LISTING /var/folders/rt/4gvqv631095f64jvm7jfj_000000gn/T//cc80PrWX.s 			page 5


  93              		.cfi_remember_state
  94              		.cfi_restore 8
  95 0044 B250     		lw	ra,44(sp)
  96              		.cfi_restore 1
  97 0046 9254     		lw	s1,36(sp)
  98              		.cfi_restore 9
  99 0048 0259     		lw	s2,32(sp)
 100              		.cfi_restore 18
 101 004a F249     		lw	s3,28(sp)
 102              		.cfi_restore 19
 103              	.LVL4:
 104 004c 624A     		lw	s4,24(sp)
 105              		.cfi_restore 20
 106 004e 4561     		addi	sp,sp,48
 107              	.LCFI1:
 108              		.cfi_def_cfa_offset 0
 128:menu.c        ****         }break;
 109              		.loc 1 128 9
 110 0050 17030000 		tail	LCD_ShowStr
 110      67000300 
 111              	.LVL5:
 112              	.L16:
 113              	.LCFI2:
 114              		.cfi_restore_state
  25:menu.c        ****       LCD_ShowChar(1,point,'>',TRANSPARENT,WHITE);
 115              		.loc 1 25 7
 116 0058 0145     		li	a0,0
 117 005a 2EC6     		sw	a1,12(sp)
  25:menu.c        ****       LCD_ShowChar(1,point,'>',TRANSPARENT,WHITE);
 118              		.loc 1 25 7 is_stmt 1
 119 005c 97000000 		call	LCD_Clear
 119      E7800000 
 120              	.LVL6:
  26:menu.c        ****       LCD_ShowStr(x, y, "see data", WHITE, TRANSPARENT);y+=16;
 121              		.loc 1 26 7
 122 0064 B245     		lw	a1,12(sp)
 123 0066 4164     		li	s0,65536
 124 0068 1307F4FF 		addi	a4,s0,-1
 125 006c 8546     		li	a3,1
 126 006e 1306E003 		li	a2,62
 127 0072 0545     		li	a0,1
 128 0074 97000000 		call	LCD_ShowChar
 128      E7800000 
 129              	.LVL7:
  27:menu.c        ****       LCD_ShowStr(x, y, "register a plant", WHITE, TRANSPARENT);y+=16;
 130              		.loc 1 27 7
 131 007c 37060000 		lui	a2,%hi(.LC1)
 132 0080 0547     		li	a4,1
 133 0082 9306F4FF 		addi	a3,s0,-1
 134 0086 13060600 		addi	a2,a2,%lo(.LC1)
 135 008a A945     		li	a1,10
 136 008c 3145     		li	a0,12
 137 008e 97000000 		call	LCD_ShowStr
 137      E7800000 
 138              	.LVL8:
  27:menu.c        ****       LCD_ShowStr(x, y, "register a plant", WHITE, TRANSPARENT);y+=16;
 139              		.loc 1 27 57
GAS LISTING /var/folders/rt/4gvqv631095f64jvm7jfj_000000gn/T//cc80PrWX.s 			page 6


  28:menu.c        ****       LCD_ShowStr(x, y, "reset", WHITE, TRANSPARENT);y+=16;
 140              		.loc 1 28 7
 141 0096 37060000 		lui	a2,%hi(.LC2)
 142 009a 0547     		li	a4,1
 143 009c 9306F4FF 		addi	a3,s0,-1
 144 00a0 13060600 		addi	a2,a2,%lo(.LC2)
 145 00a4 E945     		li	a1,26
 146 00a6 3145     		li	a0,12
 147 00a8 97000000 		call	LCD_ShowStr
 147      E7800000 
 148              	.LVL9:
  28:menu.c        ****       LCD_ShowStr(x, y, "reset", WHITE, TRANSPARENT);y+=16;
 149              		.loc 1 28 65
  29:menu.c        ****       LCD_ShowStr(x, BACK_Y, "back", WHITE, TRANSPARENT);}break;
 150              		.loc 1 29 7
 151 00b0 37060000 		lui	a2,%hi(.LC3)
 152 00b4 0547     		li	a4,1
 153 00b6 9306F4FF 		addi	a3,s0,-1
 154 00ba 13060600 		addi	a2,a2,%lo(.LC3)
 155              	.L29:
  71:menu.c        ****         LCD_ShowStr(x, BACK_Y, "back", WHITE, TRANSPARENT);}break;
 156              		.loc 1 71 9 is_stmt 0
 157 00be 9305A002 		li	a1,42
 158              	.LVL10:
 159              	.L24:
 127:menu.c        ****         LCD_ShowStr(x, BACK_Y, "back", WHITE, TRANSPARENT);
 160              		.loc 1 127 9
 161 00c2 3145     		li	a0,12
 162 00c4 97000000 		call	LCD_ShowStr
 162      E7800000 
 163              	.LVL11:
 164 00cc B9AE     		j	.L25
 165              	.LVL12:
 166              	.L15:
  33:menu.c        ****       LCD_ShowChar(1,point,'>',TRANSPARENT,WHITE);
 167              		.loc 1 33 7
 168 00ce 0145     		li	a0,0
 169 00d0 2EC6     		sw	a1,12(sp)
  33:menu.c        ****       LCD_ShowChar(1,point,'>',TRANSPARENT,WHITE);
 170              		.loc 1 33 7 is_stmt 1
 171 00d2 97000000 		call	LCD_Clear
 171      E7800000 
 172              	.LVL13:
  34:menu.c        ****       for(int i=0; i<numberOfPlants;i++)
 173              		.loc 1 34 7
 174 00da B245     		lw	a1,12(sp)
 175 00dc C164     		li	s1,65536
 176 00de 1387F4FF 		addi	a4,s1,-1
 177 00e2 8546     		li	a3,1
 178 00e4 1306E003 		li	a2,62
 179 00e8 0545     		li	a0,1
 180 00ea 97000000 		call	LCD_ShowChar
 180      E7800000 
 181              	.LVL14:
  35:menu.c        ****       {
 182              		.loc 1 35 7
 183              	.LBB2:
GAS LISTING /var/folders/rt/4gvqv631095f64jvm7jfj_000000gn/T//cc80PrWX.s 			page 7


  35:menu.c        ****       {
 184              		.loc 1 35 11
  35:menu.c        ****       {
 185              		.loc 1 35 15 is_stmt 0
 186 00f2 0144     		li	s0,0
  37:menu.c        ****         LCD_ShowNum(x+48,y,i+1,TRANSPARENT,WHITE);y+=16;
 187              		.loc 1 37 9
 188 00f4 FD14     		addi	s1,s1,-1
 189 00f6 370A0000 		lui	s4,%hi(.LC5)
 190              	.LVL15:
 191              	.L18:
  35:menu.c        ****       {
 192              		.loc 1 35 7 discriminator 1
 193 00fa 634D3401 		blt	s0,s3,.L19
 194              	.LBE2:
  40:menu.c        ****      }break;
 195              		.loc 1 40 7 is_stmt 1
 196 00fe C166     		li	a3,65536
 197 0100 0547     		li	a4,1
 198 0102 FD16     		addi	a3,a3,-1
 199              	.LVL16:
 200              	.L27:
 128:menu.c        ****         }break;
 201              		.loc 1 128 9 is_stmt 0
 202 0104 37060000 		lui	a2,%hi(.LC4)
 203 0108 13060600 		addi	a2,a2,%lo(.LC4)
 204 010c 9305C007 		li	a1,124
 205 0110 3145     		li	a0,12
 206 0112 05BF     		j	.L23
 207              	.LVL17:
 208              	.L19:
 209              	.LBB3:
  37:menu.c        ****         LCD_ShowNum(x+48,y,i+1,TRANSPARENT,WHITE);y+=16;
 210              		.loc 1 37 9 is_stmt 1 discriminator 3
 211 0114 13194400 		slli	s2,s0,4
 212 0118 2909     		addi	s2,s2,10
 213 011a A686     		mv	a3,s1
 214 011c 13060A00 		addi	a2,s4,%lo(.LC5)
 215 0120 CA85     		mv	a1,s2
 216 0122 0547     		li	a4,1
 217 0124 3145     		li	a0,12
 218 0126 97000000 		call	LCD_ShowStr
 218      E7800000 
 219              	.LVL18:
  38:menu.c        ****       }
 220              		.loc 1 38 9 discriminator 3
  38:menu.c        ****       }
 221              		.loc 1 38 29 is_stmt 0 discriminator 3
 222 012e 0504     		addi	s0,s0,1
 223              	.LVL19:
  38:menu.c        ****       }
 224              		.loc 1 38 9 discriminator 3
 225 0130 2687     		mv	a4,s1
 226 0132 8546     		li	a3,1
 227 0134 2286     		mv	a2,s0
 228 0136 CA85     		mv	a1,s2
 229 0138 1305C003 		li	a0,60
GAS LISTING /var/folders/rt/4gvqv631095f64jvm7jfj_000000gn/T//cc80PrWX.s 			page 8


 230 013c 97000000 		call	LCD_ShowNum
 230      E7800000 
 231              	.LVL20:
  38:menu.c        ****       }
 232              		.loc 1 38 51 is_stmt 1 discriminator 3
 233 0144 5DBF     		j	.L18
 234              	.LVL21:
 235              	.L14:
 236              	.LBE3:
  43:menu.c        ****         LCD_ShowChar(1,point,'>',TRANSPARENT,WHITE);
 237              		.loc 1 43 9 is_stmt 0
 238 0146 0145     		li	a0,0
 239 0148 2EC6     		sw	a1,12(sp)
  43:menu.c        ****         LCD_ShowChar(1,point,'>',TRANSPARENT,WHITE);
 240              		.loc 1 43 9 is_stmt 1
 241 014a 97000000 		call	LCD_Clear
 241      E7800000 
 242              	.LVL22:
  44:menu.c        ****         LCD_ShowStr(x, y, "See snap shot", WHITE, TRANSPARENT);y+=16;
 243              		.loc 1 44 9
 244 0152 B245     		lw	a1,12(sp)
 245 0154 4164     		li	s0,65536
 246 0156 1307F4FF 		addi	a4,s0,-1
 247 015a 8546     		li	a3,1
 248 015c 1306E003 		li	a2,62
 249 0160 0545     		li	a0,1
 250 0162 97000000 		call	LCD_ShowChar
 250      E7800000 
 251              	.LVL23:
  45:menu.c        ****         LCD_ShowStr(x, y, "view history", WHITE, TRANSPARENT);
 252              		.loc 1 45 9
 253 016a 37060000 		lui	a2,%hi(.LC6)
 254 016e 0547     		li	a4,1
 255 0170 9306F4FF 		addi	a3,s0,-1
 256 0174 13060600 		addi	a2,a2,%lo(.LC6)
 257              	.L28:
  51:menu.c        ****         LCD_ShowStr(x, y, "view history", WHITE, TRANSPARENT);
 258              		.loc 1 51 9 is_stmt 0
 259 0178 A945     		li	a1,10
 260 017a 3145     		li	a0,12
 261 017c 97000000 		call	LCD_ShowStr
 261      E7800000 
 262              	.LVL24:
  51:menu.c        ****         LCD_ShowStr(x, y, "view history", WHITE, TRANSPARENT);
 263              		.loc 1 51 60 is_stmt 1
  52:menu.c        ****         LCD_ShowStr(x, BACK_Y, "back", WHITE, TRANSPARENT);}break;
 264              		.loc 1 52 9
 265 0184 37060000 		lui	a2,%hi(.LC7)
 266 0188 0547     		li	a4,1
 267 018a 9306F4FF 		addi	a3,s0,-1
 268 018e 13060600 		addi	a2,a2,%lo(.LC7)
 269              	.LVL25:
 270              	.L26:
 127:menu.c        ****         LCD_ShowStr(x, BACK_Y, "back", WHITE, TRANSPARENT);
 271              		.loc 1 127 9 is_stmt 0
 272 0192 E945     		li	a1,26
 273 0194 3DB7     		j	.L24
GAS LISTING /var/folders/rt/4gvqv631095f64jvm7jfj_000000gn/T//cc80PrWX.s 			page 9


 274              	.LVL26:
 275              	.L11:
  49:menu.c        ****         LCD_ShowChar(1,point,'>',TRANSPARENT,WHITE);
 276              		.loc 1 49 9
 277 0196 0145     		li	a0,0
 278 0198 2EC6     		sw	a1,12(sp)
  49:menu.c        ****         LCD_ShowChar(1,point,'>',TRANSPARENT,WHITE);
 279              		.loc 1 49 9 is_stmt 1
 280 019a 97000000 		call	LCD_Clear
 280      E7800000 
 281              	.LVL27:
  50:menu.c        ****         LCD_ShowStr(x, y, "snap shot", WHITE, TRANSPARENT);y+=16;
 282              		.loc 1 50 9
 283 01a2 B245     		lw	a1,12(sp)
 284 01a4 4164     		li	s0,65536
 285 01a6 1307F4FF 		addi	a4,s0,-1
 286 01aa 8546     		li	a3,1
 287 01ac 1306E003 		li	a2,62
 288 01b0 0545     		li	a0,1
 289 01b2 97000000 		call	LCD_ShowChar
 289      E7800000 
 290              	.LVL28:
  51:menu.c        ****         LCD_ShowStr(x, y, "view history", WHITE, TRANSPARENT);
 291              		.loc 1 51 9
 292 01ba 37060000 		lui	a2,%hi(.LC8)
 293 01be 0547     		li	a4,1
 294 01c0 9306F4FF 		addi	a3,s0,-1
 295 01c4 13060600 		addi	a2,a2,%lo(.LC8)
 296 01c8 45BF     		j	.L28
 297              	.LVL29:
 298              	.L10:
  61:menu.c        ****         LCD_ShowChar(1,point,'>',TRANSPARENT,WHITE);
 299              		.loc 1 61 9 is_stmt 0
 300 01ca 0145     		li	a0,0
 301 01cc 2EC6     		sw	a1,12(sp)
  61:menu.c        ****         LCD_ShowChar(1,point,'>',TRANSPARENT,WHITE);
 302              		.loc 1 61 9 is_stmt 1
 303 01ce 97000000 		call	LCD_Clear
 303      E7800000 
 304              	.LVL30:
  62:menu.c        ****         LCD_ShowStr(x, y, "Choose default", WHITE, TRANSPARENT);y+=16;
 305              		.loc 1 62 9
 306 01d6 B245     		lw	a1,12(sp)
 307 01d8 4164     		li	s0,65536
 308 01da 1307F4FF 		addi	a4,s0,-1
 309 01de 8546     		li	a3,1
 310 01e0 1306E003 		li	a2,62
 311 01e4 0545     		li	a0,1
 312 01e6 97000000 		call	LCD_ShowChar
 312      E7800000 
 313              	.LVL31:
  63:menu.c        ****         LCD_ShowStr(x, y, "Custom settings", WHITE, TRANSPARENT);
 314              		.loc 1 63 9
 315 01ee 37060000 		lui	a2,%hi(.LC9)
 316 01f2 0547     		li	a4,1
 317 01f4 9306F4FF 		addi	a3,s0,-1
 318 01f8 13060600 		addi	a2,a2,%lo(.LC9)
GAS LISTING /var/folders/rt/4gvqv631095f64jvm7jfj_000000gn/T//cc80PrWX.s 			page 10


 319 01fc A945     		li	a1,10
 320 01fe 3145     		li	a0,12
 321 0200 97000000 		call	LCD_ShowStr
 321      E7800000 
 322              	.LVL32:
  63:menu.c        ****         LCD_ShowStr(x, y, "Custom settings", WHITE, TRANSPARENT);
 323              		.loc 1 63 65
  64:menu.c        ****         LCD_ShowStr(x, BACK_Y, "back", WHITE, TRANSPARENT);}break;
 324              		.loc 1 64 9
 325 0208 37060000 		lui	a2,%hi(.LC10)
 326 020c 0547     		li	a4,1
 327 020e 9306F4FF 		addi	a3,s0,-1
 328 0212 13060600 		addi	a2,a2,%lo(.LC10)
 329 0216 B5BF     		j	.L26
 330              	.LVL33:
 331              	.L9:
  67:menu.c        ****         LCD_ShowChar(1,point,'>',TRANSPARENT,WHITE);
 332              		.loc 1 67 9 is_stmt 0
 333 0218 0145     		li	a0,0
 334 021a 2EC6     		sw	a1,12(sp)
  67:menu.c        ****         LCD_ShowChar(1,point,'>',TRANSPARENT,WHITE);
 335              		.loc 1 67 9 is_stmt 1
 336 021c 97000000 		call	LCD_Clear
 336      E7800000 
 337              	.LVL34:
  68:menu.c        ****         LCD_ShowStr(x, y, "Tomato", WHITE, TRANSPARENT);y+=16;
 338              		.loc 1 68 9
 339 0224 B245     		lw	a1,12(sp)
 340 0226 4164     		li	s0,65536
 341 0228 1307F4FF 		addi	a4,s0,-1
 342 022c 8546     		li	a3,1
 343 022e 1306E003 		li	a2,62
 344 0232 0545     		li	a0,1
 345 0234 97000000 		call	LCD_ShowChar
 345      E7800000 
 346              	.LVL35:
  69:menu.c        ****         LCD_ShowStr(x, y, "cucumber", WHITE, TRANSPARENT);y+=16;
 347              		.loc 1 69 9
 348 023c 37060000 		lui	a2,%hi(.LC11)
 349 0240 0547     		li	a4,1
 350 0242 9306F4FF 		addi	a3,s0,-1
 351 0246 13060600 		addi	a2,a2,%lo(.LC11)
 352 024a A945     		li	a1,10
 353 024c 3145     		li	a0,12
 354 024e 97000000 		call	LCD_ShowStr
 354      E7800000 
 355              	.LVL36:
  69:menu.c        ****         LCD_ShowStr(x, y, "cucumber", WHITE, TRANSPARENT);y+=16;
 356              		.loc 1 69 57
  70:menu.c        ****         LCD_ShowStr(x, y, "Purple haze", WHITE, TRANSPARENT);
 357              		.loc 1 70 9
 358 0256 37060000 		lui	a2,%hi(.LC12)
 359 025a 0547     		li	a4,1
 360 025c 9306F4FF 		addi	a3,s0,-1
 361 0260 13060600 		addi	a2,a2,%lo(.LC12)
 362 0264 E945     		li	a1,26
 363 0266 3145     		li	a0,12
GAS LISTING /var/folders/rt/4gvqv631095f64jvm7jfj_000000gn/T//cc80PrWX.s 			page 11


 364 0268 97000000 		call	LCD_ShowStr
 364      E7800000 
 365              	.LVL37:
  70:menu.c        ****         LCD_ShowStr(x, y, "Purple haze", WHITE, TRANSPARENT);
 366              		.loc 1 70 59
  71:menu.c        ****         LCD_ShowStr(x, BACK_Y, "back", WHITE, TRANSPARENT);}break;
 367              		.loc 1 71 9
 368 0270 37060000 		lui	a2,%hi(.LC13)
 369 0274 0547     		li	a4,1
 370 0276 9306F4FF 		addi	a3,s0,-1
 371 027a 13060600 		addi	a2,a2,%lo(.LC13)
 372 027e 81B5     		j	.L29
 373              	.LVL38:
 374              	.L8:
  74:menu.c        ****         LCD_ShowStr(x, y, "Tomato", WHITE, TRANSPARENT);y+=16;
 375              		.loc 1 74 9
 376 0280 0145     		li	a0,0
 377 0282 97000000 		call	LCD_Clear
 377      E7800000 
 378              	.LVL39:
  75:menu.c        ****         LCD_ShowStr(x, BACK_Y, "back", WHITE, TRANSPARENT);      //needs function
 379              		.loc 1 75 9
 380 028a 4164     		li	s0,65536
 381 028c 37060000 		lui	a2,%hi(.LC11)
 382 0290 0547     		li	a4,1
 383 0292 9306F4FF 		addi	a3,s0,-1
 384 0296 13060600 		addi	a2,a2,%lo(.LC11)
 385              	.L30:
 120:menu.c        ****         LCD_ShowStr(x, BACK_Y, "back", WHITE, TRANSPARENT);     //needs function
 386              		.loc 1 120 9 is_stmt 0
 387 029a A945     		li	a1,10
 388 029c 1DB5     		j	.L24
 389              	.LVL40:
 390              	.L7:
  79:menu.c        ****         LCD_ShowStr(x, y, "Cucumber", WHITE, TRANSPARENT);y+=16;
 391              		.loc 1 79 9 is_stmt 1
 392 029e 0145     		li	a0,0
 393 02a0 97000000 		call	LCD_Clear
 393      E7800000 
 394              	.LVL41:
  80:menu.c        ****         LCD_ShowStr(x, BACK_Y, "back", WHITE, TRANSPARENT);       //needs function
 395              		.loc 1 80 9
 396 02a8 4164     		li	s0,65536
 397 02aa 37060000 		lui	a2,%hi(.LC14)
 398 02ae 0547     		li	a4,1
 399 02b0 9306F4FF 		addi	a3,s0,-1
 400 02b4 13060600 		addi	a2,a2,%lo(.LC14)
 401 02b8 CDB7     		j	.L30
 402              	.LVL42:
 403              	.L6:
  84:menu.c        ****         LCD_ShowStr(x, y, "DRUGS ARE BAD", WHITE, TRANSPARENT);y+=16;
 404              		.loc 1 84 9
 405 02ba 0145     		li	a0,0
 406 02bc 97000000 		call	LCD_Clear
 406      E7800000 
 407              	.LVL43:
  85:menu.c        ****         LCD_ShowStr(x, y, "mmkaaaayy", WHITE, TRANSPARENT);y+=16;
GAS LISTING /var/folders/rt/4gvqv631095f64jvm7jfj_000000gn/T//cc80PrWX.s 			page 12


 408              		.loc 1 85 9
 409 02c4 4164     		li	s0,65536
 410 02c6 37060000 		lui	a2,%hi(.LC15)
 411 02ca 0547     		li	a4,1
 412 02cc 9306F4FF 		addi	a3,s0,-1
 413 02d0 13060600 		addi	a2,a2,%lo(.LC15)
 414 02d4 A945     		li	a1,10
 415 02d6 3145     		li	a0,12
 416 02d8 97000000 		call	LCD_ShowStr
 416      E7800000 
 417              	.LVL44:
  85:menu.c        ****         LCD_ShowStr(x, y, "mmkaaaayy", WHITE, TRANSPARENT);y+=16;
 418              		.loc 1 85 64
  86:menu.c        ****         LCD_ShowStr(x, BACK_Y, "back", WHITE, TRANSPARENT);
 419              		.loc 1 86 9
 420 02e0 37060000 		lui	a2,%hi(.LC16)
 421 02e4 0547     		li	a4,1
 422 02e6 9306F4FF 		addi	a3,s0,-1
 423 02ea 13060600 		addi	a2,a2,%lo(.LC16)
 424 02ee 55B5     		j	.L26
 425              	.LVL45:
 426              	.L5:
  90:menu.c        ****         LCD_ShowChar(1,point,'>',TRANSPARENT,WHITE);
 427              		.loc 1 90 9 is_stmt 0
 428 02f0 0145     		li	a0,0
 429 02f2 2EC6     		sw	a1,12(sp)
  90:menu.c        ****         LCD_ShowChar(1,point,'>',TRANSPARENT,WHITE);
 430              		.loc 1 90 9 is_stmt 1
 431 02f4 97000000 		call	LCD_Clear
 431      E7800000 
 432              	.LVL46:
  91:menu.c        ****         LCD_ShowStr(x, y, "need to be able to read in data", WHITE, TRANSPARENT);
 433              		.loc 1 91 9
 434 02fc B245     		lw	a1,12(sp)
 435 02fe 4164     		li	s0,65536
 436 0300 1307F4FF 		addi	a4,s0,-1
 437 0304 8546     		li	a3,1
 438 0306 1306E003 		li	a2,62
 439 030a 0545     		li	a0,1
 440 030c 97000000 		call	LCD_ShowChar
 440      E7800000 
 441              	.LVL47:
  92:menu.c        ****         LCD_ShowStr(x, BACK_Y, "back", WHITE, TRANSPARENT);  //needs function
 442              		.loc 1 92 9
 443 0314 37060000 		lui	a2,%hi(.LC17)
 444 0318 0547     		li	a4,1
 445 031a 9306F4FF 		addi	a3,s0,-1
 446 031e 13060600 		addi	a2,a2,%lo(.LC17)
 447 0322 A5BF     		j	.L30
 448              	.LVL48:
 449              	.L13:
 450 0324 2EC6     		sw	a1,12(sp)
  96:menu.c        ****        
 451              		.loc 1 96 8
 452 0326 97000000 		call	LCD_Wait_On_Queue
 452      E7800000 
 453              	.LVL49:
GAS LISTING /var/folders/rt/4gvqv631095f64jvm7jfj_000000gn/T//cc80PrWX.s 			page 13


  98:menu.c        ****         //temp=MAX31865_ReadADC();
 454              		.loc 1 98 8
  98:menu.c        ****         //temp=MAX31865_ReadADC();
 455              		.loc 1 98 12
 100:menu.c        ****         LCD_Clear(BLACK);
 456              		.loc 1 100 9
 100:menu.c        ****         LCD_Clear(BLACK);
 457              		.loc 1 100 14 is_stmt 0
 458 032e 97000000 		call	read_temp
 458      E7800000 
 459              	.LVL50:
 460 0336 AA84     		mv	s1,a0
 461              	.LVL51:
 101:menu.c        ****         //ADC_read(3);
 462              		.loc 1 101 9 is_stmt 1
 463 0338 0145     		li	a0,0
 464 033a 97000000 		call	LCD_Clear
 464      E7800000 
 465              	.LVL52:
 103:menu.c        ****         LCD_ShowChar(1,point,'>',TRANSPARENT,WHITE);
 466              		.loc 1 103 9
 103:menu.c        ****         LCD_ShowChar(1,point,'>',TRANSPARENT,WHITE);
 467              		.loc 1 103 16 is_stmt 0
 468 0342 0D45     		li	a0,3
 469 0344 97000000 		call	ADC_read
 469      E7800000 
 470              	.LVL53:
 104:menu.c        ****         LCD_ShowStr(x, y, "Moisture: ", WHITE, TRANSPARENT);
 471              		.loc 1 104 9
 472 034c B245     		lw	a1,12(sp)
 473 034e 4164     		li	s0,65536
 103:menu.c        ****         LCD_ShowChar(1,point,'>',TRANSPARENT,WHITE);
 474              		.loc 1 103 16
 475 0350 2A89     		mv	s2,a0
 476              	.LVL54:
 104:menu.c        ****         LCD_ShowStr(x, y, "Moisture: ", WHITE, TRANSPARENT);
 477              		.loc 1 104 9 is_stmt 1
 478 0352 1307F4FF 		addi	a4,s0,-1
 479 0356 8546     		li	a3,1
 480 0358 1306E003 		li	a2,62
 481 035c 0545     		li	a0,1
 482 035e 97000000 		call	LCD_ShowChar
 482      E7800000 
 483              	.LVL55:
 105:menu.c        ****         LCD_ShowNum(x+(9*8),y,fukt,4,WHITE);y+=16;
 484              		.loc 1 105 9
 485 0366 37060000 		lui	a2,%hi(.LC18)
 486 036a 0547     		li	a4,1
 487 036c 9306F4FF 		addi	a3,s0,-1
 488 0370 13060600 		addi	a2,a2,%lo(.LC18)
 489 0374 A945     		li	a1,10
 490 0376 3145     		li	a0,12
 491 0378 97000000 		call	LCD_ShowStr
 491      E7800000 
 492              	.LVL56:
 106:menu.c        ****         //channel = 1;
 493              		.loc 1 106 9
GAS LISTING /var/folders/rt/4gvqv631095f64jvm7jfj_000000gn/T//cc80PrWX.s 			page 14


 494 0380 4A86     		mv	a2,s2
 495 0382 1307F4FF 		addi	a4,s0,-1
 496 0386 9146     		li	a3,4
 497 0388 A945     		li	a1,10
 498 038a 13054005 		li	a0,84
 499 038e 97000000 		call	LCD_ShowNum
 499      E7800000 
 500              	.LVL57:
 106:menu.c        ****         //channel = 1;
 501              		.loc 1 106 45
 109:menu.c        ****         LCD_ShowStr(x, y, "sun: ", WHITE, TRANSPARENT);
 502              		.loc 1 109 9
 109:menu.c        ****         LCD_ShowStr(x, y, "sun: ", WHITE, TRANSPARENT);
 503              		.loc 1 109 15 is_stmt 0
 504 0396 0545     		li	a0,1
 505 0398 97000000 		call	ADC_read
 505      E7800000 
 506              	.LVL58:
 110:menu.c        ****         LCD_ShowNum(x+(9*8),y,sun,4,WHITE);y+=16;
 507              		.loc 1 110 9
 508 03a0 37060000 		lui	a2,%hi(.LC19)
 109:menu.c        ****         LCD_ShowStr(x, y, "sun: ", WHITE, TRANSPARENT);
 509              		.loc 1 109 15
 510 03a4 2A89     		mv	s2,a0
 511              	.LVL59:
 110:menu.c        ****         LCD_ShowNum(x+(9*8),y,sun,4,WHITE);y+=16;
 512              		.loc 1 110 9 is_stmt 1
 513 03a6 0547     		li	a4,1
 514 03a8 9306F4FF 		addi	a3,s0,-1
 515 03ac 13060600 		addi	a2,a2,%lo(.LC19)
 516 03b0 E945     		li	a1,26
 517 03b2 3145     		li	a0,12
 518 03b4 97000000 		call	LCD_ShowStr
 518      E7800000 
 519              	.LVL60:
 111:menu.c        ****         LCD_ShowStr(x, y, "Temp: ", WHITE, TRANSPARENT);
 520              		.loc 1 111 9
 521 03bc 1307F4FF 		addi	a4,s0,-1
 522 03c0 9146     		li	a3,4
 523 03c2 4A86     		mv	a2,s2
 524 03c4 E945     		li	a1,26
 525 03c6 13054005 		li	a0,84
 526 03ca 97000000 		call	LCD_ShowNum
 526      E7800000 
 527              	.LVL61:
 111:menu.c        ****         LCD_ShowStr(x, y, "Temp: ", WHITE, TRANSPARENT);
 528              		.loc 1 111 44
 112:menu.c        ****         LCD_ShowNum(x+(9*8),y,temp,2,WHITE);
 529              		.loc 1 112 9
 530 03d2 37060000 		lui	a2,%hi(.LC20)
 531 03d6 0547     		li	a4,1
 532 03d8 9306F4FF 		addi	a3,s0,-1
 533 03dc 13060600 		addi	a2,a2,%lo(.LC20)
 534 03e0 9305A002 		li	a1,42
 535 03e4 3145     		li	a0,12
 536 03e6 97000000 		call	LCD_ShowStr
 536      E7800000 
GAS LISTING /var/folders/rt/4gvqv631095f64jvm7jfj_000000gn/T//cc80PrWX.s 			page 15


 537              	.LVL62:
 113:menu.c        ****         LCD_ShowChar((13*8),y,'C',TRANSPARENT,WHITE);
 538              		.loc 1 113 9
 539 03ee 2685     		mv	a0,s1
 540 03f0 97000000 		call	__fixunssfsi
 540      E7800000 
 541              	.LVL63:
 542 03f8 2A86     		mv	a2,a0
 543 03fa 1307F4FF 		addi	a4,s0,-1
 544 03fe 8946     		li	a3,2
 545 0400 9305A002 		li	a1,42
 546 0404 13054005 		li	a0,84
 547 0408 97000000 		call	LCD_ShowNum
 547      E7800000 
 548              	.LVL64:
 114:menu.c        ****         LCD_ShowStr(x, BACK_Y, "back", WHITE, TRANSPARENT);
 549              		.loc 1 114 9
 550 0410 1307F4FF 		addi	a4,s0,-1
 551 0414 8546     		li	a3,1
 552 0416 13063004 		li	a2,67
 553 041a 9305A002 		li	a1,42
 554 041e 13058006 		li	a0,104
 555 0422 97000000 		call	LCD_ShowChar
 555      E7800000 
 556              	.LVL65:
 115:menu.c        ****         
 557              		.loc 1 115 9
 558              	.L25:
 127:menu.c        ****         LCD_ShowStr(x, BACK_Y, "back", WHITE, TRANSPARENT);
 559              		.loc 1 127 64
 128:menu.c        ****         }break;
 560              		.loc 1 128 9
 561 042a 0547     		li	a4,1
 562 042c 9306F4FF 		addi	a3,s0,-1
 563 0430 D1B9     		j	.L27
 564              	.LVL66:
 565              	.L12:
 119:menu.c        ****         LCD_ShowStr(x, y, "some data ", WHITE, TRANSPARENT); 
 566              		.loc 1 119 9
 567 0432 0145     		li	a0,0
 568 0434 97000000 		call	LCD_Clear
 568      E7800000 
 569              	.LVL67:
 120:menu.c        ****         LCD_ShowStr(x, BACK_Y, "back", WHITE, TRANSPARENT);     //needs function
 570              		.loc 1 120 9
 571 043c 4164     		li	s0,65536
 572 043e 37060000 		lui	a2,%hi(.LC21)
 573 0442 0547     		li	a4,1
 574 0444 9306F4FF 		addi	a3,s0,-1
 575 0448 13060600 		addi	a2,a2,%lo(.LC21)
 576 044c B9B5     		j	.L30
 577              	.LVL68:
 578              	.L3:
 124:menu.c        ****         LCD_ShowChar(1,point,'>',TRANSPARENT,WHITE);
 579              		.loc 1 124 9 is_stmt 0
 580 044e 0145     		li	a0,0
 581 0450 2EC6     		sw	a1,12(sp)
GAS LISTING /var/folders/rt/4gvqv631095f64jvm7jfj_000000gn/T//cc80PrWX.s 			page 16


 124:menu.c        ****         LCD_ShowChar(1,point,'>',TRANSPARENT,WHITE);
 582              		.loc 1 124 9 is_stmt 1
 583 0452 97000000 		call	LCD_Clear
 583      E7800000 
 584              	.LVL69:
 125:menu.c        ****         LCD_ShowStr(x, y, "Reset all", WHITE, TRANSPARENT);y+=16;
 585              		.loc 1 125 9
 586 045a B245     		lw	a1,12(sp)
 587 045c 4164     		li	s0,65536
 588 045e 1307F4FF 		addi	a4,s0,-1
 589 0462 8546     		li	a3,1
 590 0464 1306E003 		li	a2,62
 591 0468 0545     		li	a0,1
 592 046a 97000000 		call	LCD_ShowChar
 592      E7800000 
 593              	.LVL70:
 126:menu.c        ****         LCD_ShowStr(x, y, "reset a plant", WHITE, TRANSPARENT);y+=16;
 594              		.loc 1 126 9
 595 0472 37060000 		lui	a2,%hi(.LC22)
 596 0476 0547     		li	a4,1
 597 0478 9306F4FF 		addi	a3,s0,-1
 598 047c 13060600 		addi	a2,a2,%lo(.LC22)
 599 0480 A945     		li	a1,10
 600 0482 3145     		li	a0,12
 601 0484 97000000 		call	LCD_ShowStr
 601      E7800000 
 602              	.LVL71:
 126:menu.c        ****         LCD_ShowStr(x, y, "reset a plant", WHITE, TRANSPARENT);y+=16;
 603              		.loc 1 126 60
 127:menu.c        ****         LCD_ShowStr(x, BACK_Y, "back", WHITE, TRANSPARENT);
 604              		.loc 1 127 9
 605 048c 37060000 		lui	a2,%hi(.LC23)
 606 0490 0547     		li	a4,1
 607 0492 9306F4FF 		addi	a3,s0,-1
 608 0496 13060600 		addi	a2,a2,%lo(.LC23)
 609 049a E5B9     		j	.L26
 610              	.LVL72:
 611              	.L1:
 612              	.LCFI3:
 613              		.cfi_def_cfa_offset 0
 614              		.cfi_restore 1
 615              		.cfi_restore 8
 616              		.cfi_restore 9
 617              		.cfi_restore 18
 618              		.cfi_restore 19
 619              		.cfi_restore 20
 620 049c 8280     		ret
 621              		.cfi_endproc
 622              	.LFE5:
 624              		.section	.text.move_pointer,"ax",@progbits
 625              		.align	1
 626              		.globl	move_pointer
 628              	move_pointer:
 629              	.LFB6:
 136:menu.c        ****   
 137:menu.c        **** 
 138:menu.c        **** void move_pointer(int *P_pointer, int key,int page)
GAS LISTING /var/folders/rt/4gvqv631095f64jvm7jfj_000000gn/T//cc80PrWX.s 			page 17


 139:menu.c        **** {
 630              		.loc 1 139 1
 631              		.cfi_startproc
 632              	.LVL73:
 140:menu.c        ****   if(page !=HOME)
 633              		.loc 1 140 3
 634              		.loc 1 140 5 is_stmt 0
 635 0000 35C6     		beq	a2,zero,.L39
 139:menu.c        ****   if(page !=HOME)
 636              		.loc 1 139 1
 637 0002 4111     		addi	sp,sp,-16
 638              	.LCFI4:
 639              		.cfi_def_cfa_offset 16
 640 0004 22C4     		sw	s0,8(sp)
 641 0006 06C6     		sw	ra,12(sp)
 642              		.cfi_offset 8, -8
 643              		.cfi_offset 1, -4
 141:menu.c        ****   switch(key)
 644              		.loc 1 141 3
 645 0008 8947     		li	a5,2
 646 000a 2A84     		mv	s0,a0
 647              		.loc 1 141 3 is_stmt 1
 648 000c 6389F500 		beq	a1,a5,.L33
 649 0010 A147     		li	a5,8
 650 0012 6380F504 		beq	a1,a5,.L34
 142:menu.c        ****   {
 143:menu.c        ****     case 2: {LCD_Fill(2,((*P_pointer)),10,(*P_pointer+16),BLACK);
 144:menu.c        ****               (*P_pointer)-=16;LCD_ShowChar(2,*P_pointer,'>',TRANSPARENT,WHITE);}break;
 145:menu.c        ****     case 8: {LCD_Fill(2,*P_pointer,10,(*P_pointer+16),BLACK);
 146:menu.c        ****               (*P_pointer)+=16;LCD_ShowChar(2,*P_pointer,'>',TRANSPARENT,WHITE);}break;
 147:menu.c        ****     default: break;
 148:menu.c        ****   }
 149:menu.c        **** 
 150:menu.c        **** }
 651              		.loc 1 150 1 is_stmt 0
 652 0016 B240     		lw	ra,12(sp)
 653              		.cfi_remember_state
 654              		.cfi_restore 1
 655 0018 2244     		lw	s0,8(sp)
 656              		.cfi_restore 8
 657 001a 4101     		addi	sp,sp,16
 658              	.LCFI5:
 659              		.cfi_def_cfa_offset 0
 660 001c 8280     		jr	ra
 661              	.LVL74:
 662              	.L33:
 663              	.LCFI6:
 664              		.cfi_restore_state
 665              	.LBB6:
 666              	.LBB7:
 143:menu.c        ****               (*P_pointer)-=16;LCD_ShowChar(2,*P_pointer,'>',TRANSPARENT,WHITE);}break;
 667              		.loc 1 143 14 is_stmt 1
 143:menu.c        ****               (*P_pointer)-=16;LCD_ShowChar(2,*P_pointer,'>',TRANSPARENT,WHITE);}break;
 668              		.loc 1 143 27 is_stmt 0
 669 001e 0C41     		lw	a1,0(a0)
 670              	.LVL75:
 143:menu.c        ****               (*P_pointer)-=16;LCD_ShowChar(2,*P_pointer,'>',TRANSPARENT,WHITE);}break;
GAS LISTING /var/folders/rt/4gvqv631095f64jvm7jfj_000000gn/T//cc80PrWX.s 			page 18


 671              		.loc 1 143 14
 672 0020 0147     		li	a4,0
 673 0022 2946     		li	a2,10
 674              	.LVL76:
 675 0024 93860501 		addi	a3,a1,16
 676 0028 0945     		li	a0,2
 677 002a 97000000 		call	LCD_Fill
 677      E7800000 
 678              	.LVL77:
 144:menu.c        ****     case 8: {LCD_Fill(2,*P_pointer,10,(*P_pointer+16),BLACK);
 679              		.loc 1 144 15 is_stmt 1
 144:menu.c        ****     case 8: {LCD_Fill(2,*P_pointer,10,(*P_pointer+16),BLACK);
 680              		.loc 1 144 27 is_stmt 0
 681 0032 0C40     		lw	a1,0(s0)
 682 0034 C115     		addi	a1,a1,-16
 683              	.LVL78:
 684              	.L42:
 685              	.LBE7:
 686              	.LBE6:
 146:menu.c        ****     default: break;
 687              		.loc 1 146 27
 688 0036 0CC0     		sw	a1,0(s0)
 146:menu.c        ****     default: break;
 689              		.loc 1 146 32 is_stmt 1
 690              		.loc 1 150 1 is_stmt 0
 691 0038 2244     		lw	s0,8(sp)
 692              		.cfi_remember_state
 693              		.cfi_restore 8
 694              	.LVL79:
 695 003a B240     		lw	ra,12(sp)
 696              		.cfi_restore 1
 146:menu.c        ****     default: break;
 697              		.loc 1 146 32
 698 003c 4167     		li	a4,65536
 699              		.loc 1 150 1
 146:menu.c        ****     default: break;
 700              		.loc 1 146 32
 701 003e 7D17     		addi	a4,a4,-1
 702 0040 8546     		li	a3,1
 703 0042 1306E003 		li	a2,62
 704 0046 0945     		li	a0,2
 705              		.loc 1 150 1
 706 0048 4101     		addi	sp,sp,16
 707              	.LCFI7:
 708              		.cfi_def_cfa_offset 0
 146:menu.c        ****     default: break;
 709              		.loc 1 146 32
 710 004a 17030000 		tail	LCD_ShowChar
 710      67000300 
 711              	.LVL80:
 712              	.L34:
 713              	.LCFI8:
 714              		.cfi_restore_state
 145:menu.c        ****               (*P_pointer)+=16;LCD_ShowChar(2,*P_pointer,'>',TRANSPARENT,WHITE);}break;
 715              		.loc 1 145 14 is_stmt 1
 145:menu.c        ****               (*P_pointer)+=16;LCD_ShowChar(2,*P_pointer,'>',TRANSPARENT,WHITE);}break;
 716              		.loc 1 145 25 is_stmt 0
GAS LISTING /var/folders/rt/4gvqv631095f64jvm7jfj_000000gn/T//cc80PrWX.s 			page 19


 717 0052 0C41     		lw	a1,0(a0)
 718              	.LVL81:
 145:menu.c        ****               (*P_pointer)+=16;LCD_ShowChar(2,*P_pointer,'>',TRANSPARENT,WHITE);}break;
 719              		.loc 1 145 14
 720 0054 0147     		li	a4,0
 721 0056 2946     		li	a2,10
 722              	.LVL82:
 723 0058 93860501 		addi	a3,a1,16
 724 005c 0945     		li	a0,2
 725 005e 97000000 		call	LCD_Fill
 725      E7800000 
 726              	.LVL83:
 146:menu.c        ****     default: break;
 727              		.loc 1 146 15 is_stmt 1
 146:menu.c        ****     default: break;
 728              		.loc 1 146 27 is_stmt 0
 729 0066 0C40     		lw	a1,0(s0)
 730 0068 C105     		addi	a1,a1,16
 731 006a F1B7     		j	.L42
 732              	.LVL84:
 733              	.L39:
 734              	.LCFI9:
 735              		.cfi_def_cfa_offset 0
 736              		.cfi_restore 1
 737              		.cfi_restore 8
 738 006c 8280     		ret
 739              		.cfi_endproc
 740              	.LFE6:
 742              		.section	.text.which_page,"ax",@progbits
 743              		.align	1
 744              		.globl	which_page
 746              	which_page:
 747              	.LFB7:
 151:menu.c        **** 
 152:menu.c        **** int which_page(int page, int pointer)
 153:menu.c        **** {
 748              		.loc 1 153 1 is_stmt 1
 749              		.cfi_startproc
 750              	.LVL85:
 154:menu.c        ****   int cursor =-1;
 751              		.loc 1 154 3
 155:menu.c        ****   int starty = 13;
 752              		.loc 1 155 3
 156:menu.c        ****   int step = 16;
 753              		.loc 1 156 3
 157:menu.c        ****     
 158:menu.c        ****     if((pointer-((0*step)+starty))==0)
 754              		.loc 1 158 5
 755              		.loc 1 158 7 is_stmt 0
 756 0000 B547     		li	a5,13
 757 0002 638EF504 		beq	a1,a5,.L63
 159:menu.c        ****     cursor = 0;
 160:menu.c        ****     if((pointer-((1*step)+starty))==0)
 758              		.loc 1 160 5 is_stmt 1
 759              		.loc 1 160 7 is_stmt 0
 760 0006 7547     		li	a4,29
 161:menu.c        ****     cursor = 1;
GAS LISTING /var/folders/rt/4gvqv631095f64jvm7jfj_000000gn/T//cc80PrWX.s 			page 20


 761              		.loc 1 161 12
 762 0008 8547     		li	a5,1
 160:menu.c        ****     cursor = 1;
 763              		.loc 1 160 7
 764 000a 6382E502 		beq	a1,a4,.L44
 162:menu.c        ****     if((pointer-((2*step)+starty))==0)
 765              		.loc 1 162 5 is_stmt 1
 766              		.loc 1 162 7 is_stmt 0
 767 000e 1307D002 		li	a4,45
 163:menu.c        ****     cursor = 2;
 768              		.loc 1 163 12
 769 0012 8947     		li	a5,2
 162:menu.c        ****     if((pointer-((2*step)+starty))==0)
 770              		.loc 1 162 7
 771 0014 6381E502 		beq	a1,a4,.L45
 164:menu.c        ****     if((pointer-((3*step)+starty))==0)
 772              		.loc 1 164 5 is_stmt 1
 773              		.loc 1 164 7 is_stmt 0
 774 0018 1307D003 		li	a4,61
 165:menu.c        ****     cursor = 3;
 775              		.loc 1 165 12
 776 001c 8D47     		li	a5,3
 164:menu.c        ****     if((pointer-((3*step)+starty))==0)
 777              		.loc 1 164 7
 778 001e 6380E502 		beq	a1,a4,.L46
 166:menu.c        ****     if((pointer-((4*step)+starty))==0)
 779              		.loc 1 166 5 is_stmt 1
 780              		.loc 1 166 7 is_stmt 0
 781 0022 1307D004 		li	a4,77
 167:menu.c        ****     cursor = 4;
 782              		.loc 1 167 12
 783 0026 9147     		li	a5,4
 166:menu.c        ****     if((pointer-((4*step)+starty))==0)
 784              		.loc 1 166 7
 785 0028 638EE50C 		beq	a1,a4,.L47
 154:menu.c        ****   int starty = 13;
 786              		.loc 1 154 7
 787 002c FD57     		li	a5,-1
 788              	.L44:
 789              	.LVL86:
 168:menu.c        ****     if((pointer-((5*step)+starty))==0)
 790              		.loc 1 168 5 is_stmt 1
 791              		.loc 1 168 7 is_stmt 0
 792 002e 1307D005 		li	a4,93
 793 0032 6388E50C 		beq	a1,a4,.L68
 794              	.LVL87:
 795              	.L45:
 169:menu.c        ****     cursor = 5;
 170:menu.c        ****     if((pointer-((6*step)+starty))==0)
 796              		.loc 1 170 5 is_stmt 1
 797              		.loc 1 170 7 is_stmt 0
 798 0036 1307D006 		li	a4,109
 799 003a 6380E50E 		beq	a1,a4,.L69
 800              	.LVL88:
 801              	.L46:
 171:menu.c        ****     cursor = 6;
 172:menu.c        ****     if((pointer-((7*step)+starty))==0)
GAS LISTING /var/folders/rt/4gvqv631095f64jvm7jfj_000000gn/T//cc80PrWX.s 			page 21


 802              		.loc 1 172 5 is_stmt 1
 803              		.loc 1 172 7 is_stmt 0
 804 003e 1307D007 		li	a4,125
 805 0042 6391E50C 		bne	a1,a4,.L47
 173:menu.c        ****     cursor = 7;
 806              		.loc 1 173 5 is_stmt 1
 807              	.LVL89:
 174:menu.c        ****         
 175:menu.c        ****     switch(page)
 808              		.loc 1 175 5
 809 0046 B547     		li	a5,13
 810 0048 63EAA70A 		bgtu	a0,a5,.L48
 811 004c 37070000 		lui	a4,%hi(.L50)
 812 0050 93172500 		slli	a5,a0,2
 813 0054 13070700 		addi	a4,a4,%lo(.L50)
 814 0058 BA97     		add	a5,a5,a4
 815 005a 9C43     		lw	a5,0(a5)
 816 005c 8287     		jr	a5
 817              		.section	.rodata.which_page,"a",@progbits
 818              		.align	2
 819              		.align	2
 820              	.L50:
 821 0000 00000000 		.word	.L62
 822 0004 00000000 		.word	.L70
 823 0008 00000000 		.word	.L71
 824 000c 00000000 		.word	.L72
 825 0010 00000000 		.word	.L56
 826 0014 00000000 		.word	.L56
 827 0018 00000000 		.word	.L73
 828 001c 00000000 		.word	.L74
 829 0020 00000000 		.word	.L75
 830 0024 00000000 		.word	.L76
 831 0028 00000000 		.word	.L85
 832 002c 00000000 		.word	.L85
 833 0030 00000000 		.word	.L85
 834 0034 00000000 		.word	.L49
 835              		.section	.text.which_page
 836              	.LVL90:
 837              	.L63:
 159:menu.c        ****     if((pointer-((1*step)+starty))==0)
 838              		.loc 1 159 12 is_stmt 0
 839 005e 8147     		li	a5,0
 840 0060 F9B7     		j	.L44
 841              	.LVL91:
 842              	.L56:
 176:menu.c        ****     {
 177:menu.c        ****       case HOME:return MAINMENU;
 178:menu.c        ****       case MAINMENU:
 179:menu.c        ****       {
 180:menu.c        ****           switch (cursor)
 181:menu.c        ****           {
 182:menu.c        ****             
 183:menu.c        ****             case 0: return SEEDATA;break;
 184:menu.c        ****             case 1: return REGISTER; break;
 185:menu.c        ****             case 2: return RESET; break;
 186:menu.c        ****             case 7: return HOME; break;
 187:menu.c        ****             default: return -1;break;
GAS LISTING /var/folders/rt/4gvqv631095f64jvm7jfj_000000gn/T//cc80PrWX.s 			page 22


 188:menu.c        ****           }
 189:menu.c        ****       }
 190:menu.c        ****       case SEEDATA:
 191:menu.c        ****       {
 192:menu.c        ****         switch (cursor)
 193:menu.c        ****         {
 194:menu.c        ****           case 0: return plant1;break;
 195:menu.c        ****           case 1: return plant2;break;
 196:menu.c        ****           case 2: return plant3;break;
 197:menu.c        ****           case 7: return MAINMENU; break;
 198:menu.c        ****           default:return -1;break;
 199:menu.c        ****         }
 200:menu.c        ****       }
 201:menu.c        ****       case plant1:
 202:menu.c        ****       {
 203:menu.c        ****         switch (cursor)
 204:menu.c        ****         {
 205:menu.c        ****           case 0: return SNAPSHOT;break;
 206:menu.c        ****           case 1: return VIEWHISTORY;break;
 207:menu.c        ****           case 7: return SEEDATA;break;
 208:menu.c        ****           default:return -1;break;
 209:menu.c        ****         }
 210:menu.c        ****       }
 211:menu.c        ****       case plant2:
 212:menu.c        ****       {
 213:menu.c        ****         switch (cursor)
 214:menu.c        ****         {
 215:menu.c        ****           case 0: return SNAPSHOT;break;
 216:menu.c        ****           case 1: return VIEWHISTORY;break;
 217:menu.c        ****           case 7: return SEEDATA;break;
 218:menu.c        ****           default:return -1; break;
 219:menu.c        ****         }
 220:menu.c        ****       }
 221:menu.c        ****       case plant3:
 222:menu.c        ****       {
 223:menu.c        ****         switch (cursor)
 224:menu.c        ****         {
 225:menu.c        ****           case 0: return SNAPSHOT;break;
 226:menu.c        ****           case 1: return VIEWHISTORY;break;
 227:menu.c        ****           case 7: return SEEDATA;break;
 228:menu.c        ****           default:return -1; break;
 229:menu.c        ****         }
 230:menu.c        ****       }
 231:menu.c        ****       case SNAPSHOT:
 232:menu.c        ****       {
 233:menu.c        ****         switch (cursor)
 234:menu.c        ****         {
 235:menu.c        ****           case 7: return SEEDATA; break;
 843              		.loc 1 235 26
 844 0062 0945     		li	a0,2
 845              	.LVL92:
 846 0064 8280     		ret
 847              	.LVL93:
 848              	.L70:
 173:menu.c        ****         
 849              		.loc 1 173 12
 850 0066 9D47     		li	a5,7
GAS LISTING /var/folders/rt/4gvqv631095f64jvm7jfj_000000gn/T//cc80PrWX.s 			page 23


 851              	.LVL94:
 852              	.L59:
 180:menu.c        ****           {
 853              		.loc 1 180 11 is_stmt 1
 854 0068 1D47     		li	a4,7
 178:menu.c        ****       {
 855              		.loc 1 178 7 is_stmt 0
 856 006a 7D55     		li	a0,-1
 857 006c 636AF70A 		bgtu	a5,a4,.L43
 858 0070 37070000 		lui	a4,%hi(.LANCHOR0)
 859 0074 13070700 		addi	a4,a4,%lo(.LANCHOR0)
 860              	.L86:
 861 0078 BA97     		add	a5,a4,a5
 862 007a 03850700 		lb	a0,0(a5)
 863 007e 8280     		ret
 864              	.LVL95:
 865              	.L71:
 173:menu.c        ****         
 866              		.loc 1 173 12
 867 0080 9D47     		li	a5,7
 868              	.LVL96:
 869              	.L58:
 187:menu.c        ****           }
 870              		.loc 1 187 32 is_stmt 1
 192:menu.c        ****         {
 871              		.loc 1 192 9
 872 0082 1D47     		li	a4,7
 190:menu.c        ****       {
 873              		.loc 1 190 7 is_stmt 0
 874 0084 7D55     		li	a0,-1
 875 0086 636DF708 		bgtu	a5,a4,.L43
 876 008a 37070000 		lui	a4,%hi(.LANCHOR1)
 877 008e 13070700 		addi	a4,a4,%lo(.LANCHOR1)
 878 0092 DDB7     		j	.L86
 879              	.LVL97:
 880              	.L72:
 173:menu.c        ****         
 881              		.loc 1 173 12
 882 0094 9D47     		li	a5,7
 883              	.LVL98:
 884              	.L57:
 198:menu.c        ****         }
 885              		.loc 1 198 29 is_stmt 1
 203:menu.c        ****         {
 886              		.loc 1 203 9
 887 0096 1D47     		li	a4,7
 201:menu.c        ****       {
 888              		.loc 1 201 7 is_stmt 0
 889 0098 7D55     		li	a0,-1
 890 009a 6363F708 		bgtu	a5,a4,.L43
 891 009e 37070000 		lui	a4,%hi(.LANCHOR2)
 892 00a2 13070700 		addi	a4,a4,%lo(.LANCHOR2)
 893 00a6 C9BF     		j	.L86
 894              	.LVL99:
 895              	.L73:
 173:menu.c        ****         
 896              		.loc 1 173 12
GAS LISTING /var/folders/rt/4gvqv631095f64jvm7jfj_000000gn/T//cc80PrWX.s 			page 24


 897 00a8 9D47     		li	a5,7
 898              	.LVL100:
 899              	.L55:
 208:menu.c        ****         }
 900              		.loc 1 208 29 is_stmt 1
 213:menu.c        ****         {
 901              		.loc 1 213 9
 902 00aa 1D47     		li	a4,7
 211:menu.c        ****       {
 903              		.loc 1 211 7 is_stmt 0
 904 00ac 7D55     		li	a0,-1
 905 00ae 6369F706 		bgtu	a5,a4,.L43
 906 00b2 37070000 		lui	a4,%hi(CSWTCH.86)
 907 00b6 13070700 		addi	a4,a4,%lo(CSWTCH.86)
 908 00ba 7DBF     		j	.L86
 909              	.LVL101:
 910              	.L74:
 173:menu.c        ****         
 911              		.loc 1 173 12
 912 00bc AA87     		mv	a5,a0
 913              	.LVL102:
 914              	.L54:
 218:menu.c        ****         }
 915              		.loc 1 218 30 is_stmt 1
 223:menu.c        ****         {
 916              		.loc 1 223 9
 917 00be 1D47     		li	a4,7
 221:menu.c        ****       {
 918              		.loc 1 221 7 is_stmt 0
 919 00c0 7D55     		li	a0,-1
 920 00c2 636FF704 		bgtu	a5,a4,.L43
 921 00c6 37070000 		lui	a4,%hi(CSWTCH.87)
 922 00ca 13070700 		addi	a4,a4,%lo(CSWTCH.87)
 923 00ce 6DB7     		j	.L86
 924              	.LVL103:
 925              	.L75:
 173:menu.c        ****         
 926              		.loc 1 173 12
 927 00d0 9D47     		li	a5,7
 928              	.LVL104:
 929              	.L53:
 236:menu.c        ****           default:return -1;break;
 237:menu.c        ****         }
 238:menu.c        ****       }
 239:menu.c        ****       case VIEWHISTORY:
 240:menu.c        ****       {
 241:menu.c        ****         switch (cursor)
 242:menu.c        ****         {
 243:menu.c        ****           case 7: return SEEDATA; break;
 244:menu.c        ****           default:return -1;  break;
 930              		.loc 1 244 31 is_stmt 1
 245:menu.c        ****         }
 246:menu.c        ****       }
 247:menu.c        ****       case REGISTER:
 248:menu.c        ****       {
 249:menu.c        ****         switch (cursor)
 931              		.loc 1 249 9
GAS LISTING /var/folders/rt/4gvqv631095f64jvm7jfj_000000gn/T//cc80PrWX.s 			page 25


 932 00d2 1D47     		li	a4,7
 247:menu.c        ****       {
 933              		.loc 1 247 7 is_stmt 0
 934 00d4 7D55     		li	a0,-1
 935 00d6 6365F704 		bgtu	a5,a4,.L43
 936 00da 37070000 		lui	a4,%hi(.LANCHOR3)
 937 00de 13070700 		addi	a4,a4,%lo(.LANCHOR3)
 938 00e2 59BF     		j	.L86
 939              	.LVL105:
 940              	.L76:
 173:menu.c        ****         
 941              		.loc 1 173 12
 942 00e4 9D47     		li	a5,7
 943              	.LVL106:
 944              	.L52:
 250:menu.c        ****         {
 251:menu.c        ****           case 0: return CHOOSE_DEFUALT;break;
 252:menu.c        ****           case 1: return CUSTOM_SETTINGS;break;
 253:menu.c        ****           case 7: return MAINMENU; break;
 254:menu.c        ****           default:return -1;break;
 945              		.loc 1 254 29 is_stmt 1
 255:menu.c        ****         }
 256:menu.c        ****       }
 257:menu.c        ****       case CHOOSE_DEFUALT:
 258:menu.c        ****       {
 259:menu.c        ****         switch(cursor)
 946              		.loc 1 259 9
 947 00e6 1D47     		li	a4,7
 257:menu.c        ****       {
 948              		.loc 1 257 7 is_stmt 0
 949 00e8 7D55     		li	a0,-1
 950 00ea 636BF702 		bgtu	a5,a4,.L43
 951 00ee 37070000 		lui	a4,%hi(.LANCHOR4)
 952 00f2 13070700 		addi	a4,a4,%lo(.LANCHOR4)
 953 00f6 49B7     		j	.L86
 954              	.LVL107:
 955              	.L49:
 260:menu.c        ****         {
 261:menu.c        ****           case 0: return TOMATO;break;
 262:menu.c        ****           case 1: return CUCUMBER;break;
 263:menu.c        ****           case 2: return PURPLEHAZE;break;
 264:menu.c        ****           case 7: return REGISTER; break;
 265:menu.c        ****           default:return -1; break;
 266:menu.c        ****         }
 267:menu.c        ****       }
 268:menu.c        ****       case TOMATO:
 269:menu.c        ****       {
 270:menu.c        ****         switch (cursor)
 271:menu.c        ****         {
 272:menu.c        ****           default:return -1;break;
 273:menu.c        ****         }
 274:menu.c        ****       }
 275:menu.c        ****       case CUCUMBER:
 276:menu.c        ****       {
 277:menu.c        ****         switch (cursor)
 278:menu.c        ****         {
 279:menu.c        ****           default:return -1;break;
GAS LISTING /var/folders/rt/4gvqv631095f64jvm7jfj_000000gn/T//cc80PrWX.s 			page 26


 280:menu.c        ****         }
 281:menu.c        ****       }
 282:menu.c        ****       case PURPLEHAZE:
 283:menu.c        ****       {
 284:menu.c        ****         switch (cursor)
 285:menu.c        ****         {
 286:menu.c        ****           default:return -1;break;
 956              		.loc 1 286 29 is_stmt 1
 287:menu.c        ****         }
 288:menu.c        ****       }
 289:menu.c        ****       case CUSTOM_SETTINGS:
 290:menu.c        ****       {
 291:menu.c        ****         switch(cursor)
 957              		.loc 1 291 9
 292:menu.c        ****         {
 293:menu.c        ****           case 7: return REGISTER; break;
 958              		.loc 1 293 26 is_stmt 0
 959 00f8 2145     		li	a0,8
 960              	.LVL108:
 961 00fa 8280     		ret
 962              	.LVL109:
 963              	.L48:
 294:menu.c        ****           default:return -1;  break;
 964              		.loc 1 294 31 is_stmt 1
 295:menu.c        ****         }
 296:menu.c        ****       }
 297:menu.c        ****       
 298:menu.c        ****       default:break;
 965              		.loc 1 298 15
 966              	.LVL110:
 299:menu.c        ****       
 300:menu.c        ****     }
 301:menu.c        ****     
 302:menu.c        **** }
 967              		.loc 1 302 1 is_stmt 0
 968 00fc 8280     		ret
 969              	.L85:
 236:menu.c        ****         }
 970              		.loc 1 236 26
 971 00fe 7D55     		li	a0,-1
 972 0100 8280     		ret
 973              	.LVL111:
 974              	.L68:
 169:menu.c        ****     if((pointer-((6*step)+starty))==0)
 975              		.loc 1 169 12
 976 0102 9547     		li	a5,5
 977              	.LVL112:
 978              	.L47:
 175:menu.c        ****     {
 979              		.loc 1 175 5 is_stmt 1
 980 0104 3547     		li	a4,13
 981 0106 E36BA7FE 		bgtu	a0,a4,.L48
 982 010a 37070000 		lui	a4,%hi(.L61)
 983 010e 13070700 		addi	a4,a4,%lo(.L61)
 984 0112 0A05     		slli	a0,a0,2
 985              	.LVL113:
 986 0114 3A95     		add	a0,a0,a4
GAS LISTING /var/folders/rt/4gvqv631095f64jvm7jfj_000000gn/T//cc80PrWX.s 			page 27


 987 0116 1841     		lw	a4,0(a0)
 988 0118 0287     		jr	a4
 989              		.section	.rodata.which_page
 990              		.align	2
 991              		.align	2
 992              	.L61:
 993 0038 00000000 		.word	.L62
 994 003c 00000000 		.word	.L59
 995 0040 00000000 		.word	.L58
 996 0044 00000000 		.word	.L57
 997 0048 00000000 		.word	.L85
 998 004c 00000000 		.word	.L85
 999 0050 00000000 		.word	.L55
 1000 0054 00000000 		.word	.L54
 1001 0058 00000000 		.word	.L53
 1002 005c 00000000 		.word	.L52
 1003 0060 00000000 		.word	.L85
 1004 0064 00000000 		.word	.L85
 1005 0068 00000000 		.word	.L85
 1006 006c 00000000 		.word	.L85
 1007              		.section	.text.which_page
 1008              	.LVL114:
 1009              	.L69:
 171:menu.c        ****     if((pointer-((7*step)+starty))==0)
 1010              		.loc 1 171 12 is_stmt 0
 1011 011a 9947     		li	a5,6
 1012              	.LVL115:
 1013 011c E5B7     		j	.L47
 1014              	.LVL116:
 1015              	.L62:
 177:menu.c        ****       case MAINMENU:
 1016              		.loc 1 177 24
 1017 011e 0545     		li	a0,1
 1018              	.L43:
 1019              		.loc 1 302 1
 1020 0120 8280     		ret
 1021              		.cfi_endproc
 1022              	.LFE7:
 1024              		.section	.text.Buttonpressed,"ax",@progbits
 1025              		.align	1
 1026              		.globl	Buttonpressed
 1028              	Buttonpressed:
 1029              	.LFB8:
 303:menu.c        **** 
 304:menu.c        **** void Buttonpressed(int *P_page,int akey, int numberOfPlants, Plant allPlants[], int *P_point)
 305:menu.c        **** {
 1030              		.loc 1 305 1 is_stmt 1
 1031              		.cfi_startproc
 1032              	.LVL117:
 306:menu.c        **** 
 307:menu.c        ****   int next_page =-1;
 1033              		.loc 1 307 3
 308:menu.c        ****   
 309:menu.c        ****   switch(akey)
 1034              		.loc 1 309 3
 1035 0000 1548     		li	a6,5
 1036 0002 638E0501 		beq	a1,a6,.L88
GAS LISTING /var/folders/rt/4gvqv631095f64jvm7jfj_000000gn/T//cc80PrWX.s 			page 28


 1037 0006 A146     		li	a3,8
 1038              	.LVL118:
 1039 0008 6385D500 		beq	a1,a3,.L89
 1040 000c 8946     		li	a3,2
 1041 000e 639CD504 		bne	a1,a3,.L92
 1042              	.L89:
 310:menu.c        ****                 {
 311:menu.c        ****                   case 2:move_pointer(P_point, akey,*P_page);break;      //MOVE THE CURSOR TO THE C
 312:menu.c        ****                   case 8:move_pointer(P_point, akey,*P_page);break;      //POINTER WAS A BAD NAME F
 1043              		.loc 1 312 26
 1044 0012 1041     		lw	a2,0(a0)
 1045              	.LVL119:
 1046 0014 3A85     		mv	a0,a4
 1047              	.LVL120:
 1048 0016 17030000 		tail	move_pointer
 1048      67000300 
 1049              	.LVL121:
 1050              	.L88:
 305:menu.c        **** 
 1051              		.loc 1 305 1 is_stmt 0
 1052 001e 0111     		addi	sp,sp,-32
 1053              	.LCFI10:
 1054              		.cfi_def_cfa_offset 32
 1055 0020 26CA     		sw	s1,20(sp)
 313:menu.c        ****                   case 5:
 314:menu.c        ****                   {
 315:menu.c        ****                   next_page = which_page(*P_page,*P_point);              // CHOOSE WHICH PAGE TO DI
 1056              		.loc 1 315 31
 1057 0022 0C43     		lw	a1,0(a4)
 1058              	.LVL122:
 1059              		.cfi_offset 9, -12
 1060 0024 AA84     		mv	s1,a0
 1061              		.loc 1 315 19 is_stmt 1
 1062              		.loc 1 315 31 is_stmt 0
 1063 0026 0841     		lw	a0,0(a0)
 1064              	.LVL123:
 305:menu.c        **** 
 1065              		.loc 1 305 1
 1066 0028 22CC     		sw	s0,24(sp)
 1067 002a 06CE     		sw	ra,28(sp)
 1068              		.cfi_offset 8, -8
 1069              		.cfi_offset 1, -4
 1070 002c 3A84     		mv	s0,a4
 1071 002e 36C6     		sw	a3,12(sp)
 1072 0030 32C4     		sw	a2,8(sp)
 1073              		.loc 1 315 31
 1074 0032 97000000 		call	which_page
 1074      E7800000 
 1075              	.LVL124:
 316:menu.c        ****                     if(next_page != -1)
 1076              		.loc 1 316 21 is_stmt 1
 1077              		.loc 1 316 23 is_stmt 0
 1078 003a 7D57     		li	a4,-1
 1079 003c 6300E502 		beq	a0,a4,.L87
 317:menu.c        ****                     {
 318:menu.c        ****                       (*P_point) = 13; 
 1080              		.loc 1 318 23 is_stmt 1
GAS LISTING /var/folders/rt/4gvqv631095f64jvm7jfj_000000gn/T//cc80PrWX.s 			page 29


 1081              		.loc 1 318 34 is_stmt 0
 1082 0040 3547     		li	a4,13
 1083 0042 18C0     		sw	a4,0(s0)
 319:menu.c        ****                       (*P_page) = next_page;                                 //NEW PAGE PUT THE CUR
 1084              		.loc 1 319 23 is_stmt 1
 1085              		.loc 1 319 33 is_stmt 0
 1086 0044 88C0     		sw	a0,0(s1)
 320:menu.c        ****                       pages(*P_page,*P_point,numberOfPlants,allPlants);  //numberOfPlants,allPlants
 1087              		.loc 1 320 23 is_stmt 1
 1088 0046 0C40     		lw	a1,0(s0)
 321:menu.c        ****                     }
 322:menu.c        ****                     else (*P_page)=(*P_page);
 323:menu.c        ****                   }break;
 324:menu.c        ****                   
 325:menu.c        ****                   default:{
 326:menu.c        ****               }break;
 327:menu.c        ****                 }
 328:menu.c        **** }
 1089              		.loc 1 328 1 is_stmt 0
 1090 0048 6244     		lw	s0,24(sp)
 1091              		.cfi_remember_state
 1092              		.cfi_restore 8
 1093              	.LVL125:
 320:menu.c        ****                       pages(*P_page,*P_point,numberOfPlants,allPlants);  //numberOfPlants,allPlants
 1094              		.loc 1 320 23
 1095 004a B246     		lw	a3,12(sp)
 1096 004c 2246     		lw	a2,8(sp)
 1097              		.loc 1 328 1
 1098 004e F240     		lw	ra,28(sp)
 1099              		.cfi_restore 1
 1100 0050 D244     		lw	s1,20(sp)
 1101              		.cfi_restore 9
 1102              	.LVL126:
 1103 0052 0561     		addi	sp,sp,32
 1104              	.LCFI11:
 1105              		.cfi_def_cfa_offset 0
 1106              	.LVL127:
 320:menu.c        ****                       pages(*P_page,*P_point,numberOfPlants,allPlants);  //numberOfPlants,allPlants
 1107              		.loc 1 320 23
 1108 0054 17030000 		tail	pages
 1108      67000300 
 1109              	.LVL128:
 1110              	.L87:
 1111              	.LCFI12:
 1112              		.cfi_restore_state
 1113              		.loc 1 328 1
 1114 005c F240     		lw	ra,28(sp)
 1115              		.cfi_restore 1
 1116 005e 6244     		lw	s0,24(sp)
 1117              		.cfi_restore 8
 1118              	.LVL129:
 1119 0060 D244     		lw	s1,20(sp)
 1120              		.cfi_restore 9
 1121              	.LVL130:
 1122 0062 0561     		addi	sp,sp,32
 1123              	.LCFI13:
 1124              		.cfi_def_cfa_offset 0
GAS LISTING /var/folders/rt/4gvqv631095f64jvm7jfj_000000gn/T//cc80PrWX.s 			page 30


 1125              	.LVL131:
 1126 0064 8280     		jr	ra
 1127              	.LVL132:
 1128              	.L92:
 1129 0066 8280     		ret
 1130              		.cfi_endproc
 1131              	.LFE8:
 1133              		.section	.text.no_button_press,"ax",@progbits
 1134              		.align	1
 1135              		.globl	no_button_press
 1137              	no_button_press:
 1138              	.LFB9:
 329:menu.c        **** void no_button_press(int *P_page,int *P_nopress)
 330:menu.c        **** {
 1139              		.loc 1 330 1 is_stmt 1
 1140              		.cfi_startproc
 1141              	.LVL133:
 331:menu.c        **** 
 332:menu.c        ****   (*P_nopress)++;
 1142              		.loc 1 332 3
 1143              		.loc 1 332 15 is_stmt 0
 1144 0000 9C41     		lw	a5,0(a1)
 333:menu.c        ****   if((*P_nopress) >= (TIMOUT_ms))           //if the time with no button press is bigger than the d
 1145              		.loc 1 333 5
 1146 0002 37970400 		li	a4,299008
 1147 0006 1307F73D 		addi	a4,a4,991
 332:menu.c        ****   if((*P_nopress) >= (TIMOUT_ms))           //if the time with no button press is bigger than the d
 1148              		.loc 1 332 15
 1149 000a 8507     		addi	a5,a5,1
 1150 000c 9CC1     		sw	a5,0(a1)
 1151              		.loc 1 333 3 is_stmt 1
 1152              		.loc 1 333 5 is_stmt 0
 1153 000e 6353F704 		ble	a5,a4,.L97
 330:menu.c        **** 
 1154              		.loc 1 330 1
 1155 0012 4111     		addi	sp,sp,-16
 1156              	.LCFI14:
 1157              		.cfi_def_cfa_offset 16
 1158 0014 26C2     		sw	s1,4(sp)
 1159              		.cfi_offset 9, -12
 1160 0016 AA84     		mv	s1,a0
 334:menu.c        ****             {
 335:menu.c        ****               LCD_Clear(BLACK);
 1161              		.loc 1 335 15 is_stmt 1
 1162 0018 0145     		li	a0,0
 1163              	.LVL134:
 330:menu.c        **** 
 1164              		.loc 1 330 1 is_stmt 0
 1165 001a 06C6     		sw	ra,12(sp)
 1166 001c 22C4     		sw	s0,8(sp)
 1167              		.cfi_offset 1, -4
 1168              		.cfi_offset 8, -8
 1169 001e 2E84     		mv	s0,a1
 1170              		.loc 1 335 15
 1171 0020 97000000 		call	LCD_Clear
 1171      E7800000 
 1172              	.LVL135:
GAS LISTING /var/folders/rt/4gvqv631095f64jvm7jfj_000000gn/T//cc80PrWX.s 			page 31


 336:menu.c        ****               LCD_ShowStr(10, 10, "Green fingers", WHITE, TRANSPARENT);
 1173              		.loc 1 336 15 is_stmt 1
 1174 0028 C166     		li	a3,65536
 1175 002a 37060000 		lui	a2,%hi(.LC0)
 1176 002e 0547     		li	a4,1
 1177 0030 FD16     		addi	a3,a3,-1
 1178 0032 13060600 		addi	a2,a2,%lo(.LC0)
 1179 0036 A945     		li	a1,10
 1180 0038 2945     		li	a0,10
 1181 003a 97000000 		call	LCD_ShowStr
 1181      E7800000 
 1182              	.LVL136:
 337:menu.c        ****               (*P_page) = HOME;
 1183              		.loc 1 337 15
 1184              		.loc 1 337 25 is_stmt 0
 1185 0042 23A00400 		sw	zero,0(s1)
 338:menu.c        ****               (*P_nopress)=0;
 1186              		.loc 1 338 15 is_stmt 1
 1187              		.loc 1 338 27 is_stmt 0
 1188 0046 23200400 		sw	zero,0(s0)
 339:menu.c        ****               
 340:menu.c        ****             }
 341:menu.c        **** }...
 1189              		.loc 1 341 1
 1190 004a B240     		lw	ra,12(sp)
 1191              		.cfi_restore 1
 1192 004c 2244     		lw	s0,8(sp)
 1193              		.cfi_restore 8
 1194              	.LVL137:
 1195 004e 9244     		lw	s1,4(sp)
 1196              		.cfi_restore 9
 1197              	.LVL138:
 1198 0050 4101     		addi	sp,sp,16
 1199              	.LCFI15:
 1200              		.cfi_def_cfa_offset 0
 1201 0052 8280     		jr	ra
 1202              	.LVL139:
 1203              	.L97:
 1204 0054 8280     		ret
 1205              		.cfi_endproc
 1206              	.LFE9:
 1208              		.set	CSWTCH.87,CSWTCH.85
 1209              		.set	CSWTCH.86,CSWTCH.85
 1210              		.section	.rodata.pages.str1.4,"aMS",@progbits,1
 1211              		.align	2
 1212              	.LC0:
 1213 0000 47726565 		.string	"Green fingers"
 1213      6E206669 
 1213      6E676572 
 1213      7300
 1214 000e 0000     		.zero	2
 1215              	.LC1:
 1216 0010 73656520 		.string	"see data"
 1216      64617461 
 1216      00
 1217 0019 000000   		.zero	3
 1218              	.LC2:
GAS LISTING /var/folders/rt/4gvqv631095f64jvm7jfj_000000gn/T//cc80PrWX.s 			page 32


 1219 001c 72656769 		.string	"register a plant"
 1219      73746572 
 1219      20612070 
 1219      6C616E74 
 1219      00
 1220 002d 000000   		.zero	3
 1221              	.LC3:
 1222 0030 72657365 		.string	"reset"
 1222      7400
 1223 0036 0000     		.zero	2
 1224              	.LC4:
 1225 0038 6261636B 		.string	"back"
 1225      00
 1226 003d 000000   		.zero	3
 1227              	.LC5:
 1228 0040 706C616E 		.string	"plant "
 1228      742000
 1229 0047 00       		.zero	1
 1230              	.LC6:
 1231 0048 53656520 		.string	"See snap shot"
 1231      736E6170 
 1231      2073686F 
 1231      7400
 1232 0056 0000     		.zero	2
 1233              	.LC7:
 1234 0058 76696577 		.string	"view history"
 1234      20686973 
 1234      746F7279 
 1234      00
 1235 0065 000000   		.zero	3
 1236              	.LC8:
 1237 0068 736E6170 		.string	"snap shot"
 1237      2073686F 
 1237      7400
 1238 0072 0000     		.zero	2
 1239              	.LC9:
 1240 0074 43686F6F 		.string	"Choose default"
 1240      73652064 
 1240      65666175 
 1240      6C7400
 1241 0083 00       		.zero	1
 1242              	.LC10:
 1243 0084 43757374 		.string	"Custom settings"
 1243      6F6D2073 
 1243      65747469 
 1243      6E677300 
 1244              	.LC11:
 1245 0094 546F6D61 		.string	"Tomato"
 1245      746F00
 1246 009b 00       		.zero	1
 1247              	.LC12:
 1248 009c 63756375 		.string	"cucumber"
 1248      6D626572 
 1248      00
 1249 00a5 000000   		.zero	3
 1250              	.LC13:
 1251 00a8 50757270 		.string	"Purple haze"
GAS LISTING /var/folders/rt/4gvqv631095f64jvm7jfj_000000gn/T//cc80PrWX.s 			page 33


 1251      6C652068 
 1251      617A6500 
 1252              	.LC14:
 1253 00b4 43756375 		.string	"Cucumber"
 1253      6D626572 
 1253      00
 1254 00bd 000000   		.zero	3
 1255              	.LC15:
 1256 00c0 44525547 		.string	"DRUGS ARE BAD"
 1256      53204152 
 1256      45204241 
 1256      4400
 1257 00ce 0000     		.zero	2
 1258              	.LC16:
 1259 00d0 6D6D6B61 		.string	"mmkaaaayy"
 1259      61616179 
 1259      7900
 1260 00da 0000     		.zero	2
 1261              	.LC17:
 1262 00dc 6E656564 		.string	"need to be able to read in data"
 1262      20746F20 
 1262      62652061 
 1262      626C6520 
 1262      746F2072 
 1263              	.LC18:
 1264 00fc 4D6F6973 		.string	"Moisture: "
 1264      74757265 
 1264      3A2000
 1265 0107 00       		.zero	1
 1266              	.LC19:
 1267 0108 73756E3A 		.string	"sun: "
 1267      2000
 1268 010e 0000     		.zero	2
 1269              	.LC20:
 1270 0110 54656D70 		.string	"Temp: "
 1270      3A2000
 1271 0117 00       		.zero	1
 1272              	.LC21:
 1273 0118 736F6D65 		.string	"some data "
 1273      20646174 
 1273      612000
 1274 0123 00       		.zero	1
 1275              	.LC22:
 1276 0124 52657365 		.string	"Reset all"
 1276      7420616C 
 1276      6C00
 1277 012e 0000     		.zero	2
 1278              	.LC23:
 1279 0130 72657365 		.string	"reset a plant"
 1279      74206120 
 1279      706C616E 
 1279      7400
 1280              		.section	.sdata2.CSWTCH.83,"a"
 1281              		.align	2
 1282              		.set	.LANCHOR0,. + 0
 1285              	CSWTCH.83:
 1286 0000 02       		.byte	2
GAS LISTING /var/folders/rt/4gvqv631095f64jvm7jfj_000000gn/T//cc80PrWX.s 			page 34


 1287 0001 08       		.byte	8
 1288 0002 00       		.byte	0
 1289 0003 FF       		.byte	-1
 1290 0004 FF       		.byte	-1
 1291 0005 FF       		.byte	-1
 1292 0006 FF       		.byte	-1
 1293 0007 00       		.byte	0
 1294              		.section	.sdata2.CSWTCH.84,"a"
 1295              		.align	2
 1296              		.set	.LANCHOR1,. + 0
 1299              	CSWTCH.84:
 1300 0000 03       		.byte	3
 1301 0001 06       		.byte	6
 1302 0002 07       		.byte	7
 1303 0003 FF       		.byte	-1
 1304 0004 FF       		.byte	-1
 1305 0005 FF       		.byte	-1
 1306 0006 FF       		.byte	-1
 1307 0007 01       		.byte	1
 1308              		.section	.sdata2.CSWTCH.85,"a"
 1309              		.align	2
 1310              		.set	.LANCHOR2,. + 0
 1313              	CSWTCH.85:
 1314 0000 04       		.byte	4
 1315 0001 05       		.byte	5
 1316 0002 FF       		.byte	-1
 1317 0003 FF       		.byte	-1
 1318 0004 FF       		.byte	-1
 1319 0005 FF       		.byte	-1
 1320 0006 FF       		.byte	-1
 1321 0007 02       		.byte	2
 1322              		.section	.sdata2.CSWTCH.88,"a"
 1323              		.align	2
 1324              		.set	.LANCHOR3,. + 0
 1327              	CSWTCH.88:
 1328 0000 09       		.byte	9
 1329 0001 0D       		.byte	13
 1330 0002 FF       		.byte	-1
 1331 0003 FF       		.byte	-1
 1332 0004 FF       		.byte	-1
 1333 0005 FF       		.byte	-1
 1334 0006 FF       		.byte	-1
 1335 0007 01       		.byte	1
 1336              		.section	.sdata2.CSWTCH.89,"a"
 1337              		.align	2
 1338              		.set	.LANCHOR4,. + 0
 1341              	CSWTCH.89:
 1342 0000 0A       		.byte	10
 1343 0001 0B       		.byte	11
 1344 0002 0C       		.byte	12
 1345 0003 FF       		.byte	-1
 1346 0004 FF       		.byte	-1
 1347 0005 FF       		.byte	-1
 1348 0006 FF       		.byte	-1
 1349 0007 08       		.byte	8
 1350              		.text
 1351              	.Letext0:
GAS LISTING /var/folders/rt/4gvqv631095f64jvm7jfj_000000gn/T//cc80PrWX.s 			page 35


 1352              		.file 2 "/Users/alexstrae/toolchain-gd32v-v202-osx/compiler/riscv64-unknown-elf/include/machine/_d
 1353              		.file 3 "/Users/alexstrae/toolchain-gd32v-v202-osx/compiler/lib/gcc/riscv64-unknown-elf/8.3.0/incl
 1354              		.file 4 "/Users/alexstrae/toolchain-gd32v-v202-osx/compiler/riscv64-unknown-elf/include/sys/_types
 1355              		.file 5 "/Users/alexstrae/toolchain-gd32v-v202-osx/compiler/riscv64-unknown-elf/include/sys/reent.
 1356              		.file 6 "/Users/alexstrae/toolchain-gd32v-v202-osx/compiler/riscv64-unknown-elf/include/sys/lock.h
 1357              		.file 7 "/Users/alexstrae/toolchain-gd32v-v202-osx/compiler/riscv64-unknown-elf/include/sys/_stdin
 1358              		.file 8 "/Users/alexstrae/toolchain-gd32v-v202-osx/compiler/riscv64-unknown-elf/include/stdlib.h"
 1359              		.file 9 "../../firmware/GD32VF103_standard_peripheral/system_gd32vf103.h"
 1360              		.file 10 "adc.h"
 1361              		.file 11 "../../firmware/GD32VF103_standard_peripheral/gd32vf103.h"
 1362              		.file 12 "lcd.h"
 1363              		.file 13 "plant.h"
GAS LISTING /var/folders/rt/4gvqv631095f64jvm7jfj_000000gn/T//cc80PrWX.s 			page 36


DEFINED SYMBOLS
                            *ABS*:0000000000000000 menu.c
/var/folders/rt/4gvqv631095f64jvm7jfj_000000gn/T//cc80PrWX.s:14     .text.pages:0000000000000000 pages
/var/folders/rt/4gvqv631095f64jvm7jfj_000000gn/T//cc80PrWX.s:18     .text.pages:0000000000000000 .L0 
/var/folders/rt/4gvqv631095f64jvm7jfj_000000gn/T//cc80PrWX.s:20     .text.pages:0000000000000000 .L0 
/var/folders/rt/4gvqv631095f64jvm7jfj_000000gn/T//cc80PrWX.s:21     .text.pages:0000000000000000 .L0 
/var/folders/rt/4gvqv631095f64jvm7jfj_000000gn/T//cc80PrWX.s:22     .text.pages:0000000000000000 .L0 
/var/folders/rt/4gvqv631095f64jvm7jfj_000000gn/T//cc80PrWX.s:23     .text.pages:0000000000000000 .L0 
/var/folders/rt/4gvqv631095f64jvm7jfj_000000gn/T//cc80PrWX.s:24     .text.pages:0000000000000000 .L0 
/var/folders/rt/4gvqv631095f64jvm7jfj_000000gn/T//cc80PrWX.s:25     .text.pages:0000000000000000 .L0 
/var/folders/rt/4gvqv631095f64jvm7jfj_000000gn/T//cc80PrWX.s:26     .text.pages:0000000000000000 .L0 
/var/folders/rt/4gvqv631095f64jvm7jfj_000000gn/T//cc80PrWX.s:27     .text.pages:0000000000000000 .L0 
/var/folders/rt/4gvqv631095f64jvm7jfj_000000gn/T//cc80PrWX.s:28     .text.pages:0000000000000000 .L0 
/var/folders/rt/4gvqv631095f64jvm7jfj_000000gn/T//cc80PrWX.s:29     .text.pages:0000000000000000 .L0 
/var/folders/rt/4gvqv631095f64jvm7jfj_000000gn/T//cc80PrWX.s:38     .text.pages:0000000000000014 .L0 
/var/folders/rt/4gvqv631095f64jvm7jfj_000000gn/T//cc80PrWX.s:40     .text.pages:0000000000000016 .L0 
/var/folders/rt/4gvqv631095f64jvm7jfj_000000gn/T//cc80PrWX.s:47     .text.pages:0000000000000022 .L0 
/var/folders/rt/4gvqv631095f64jvm7jfj_000000gn/T//cc80PrWX.s:48     .text.pages:0000000000000022 .L0 
/var/folders/rt/4gvqv631095f64jvm7jfj_000000gn/T//cc80PrWX.s:49     .text.pages:0000000000000022 .L0 
/var/folders/rt/4gvqv631095f64jvm7jfj_000000gn/T//cc80PrWX.s:50     .text.pages:0000000000000022 .L0 
/var/folders/rt/4gvqv631095f64jvm7jfj_000000gn/T//cc80PrWX.s:51     .text.pages:0000000000000022 .L0 
/var/folders/rt/4gvqv631095f64jvm7jfj_000000gn/T//cc80PrWX.s:52     .text.pages:0000000000000022 .L0 
/var/folders/rt/4gvqv631095f64jvm7jfj_000000gn/T//cc80PrWX.s:55     .text.pages:0000000000000024 .L0 
/var/folders/rt/4gvqv631095f64jvm7jfj_000000gn/T//cc80PrWX.s:78     .text.pages:0000000000000026 .L0 
/var/folders/rt/4gvqv631095f64jvm7jfj_000000gn/T//cc80PrWX.s:82     .text.pages:0000000000000030 .L0 
/var/folders/rt/4gvqv631095f64jvm7jfj_000000gn/T//cc80PrWX.s:92     .text.pages:0000000000000042 .L0 
/var/folders/rt/4gvqv631095f64jvm7jfj_000000gn/T//cc80PrWX.s:93     .text.pages:0000000000000044 .L0 
/var/folders/rt/4gvqv631095f64jvm7jfj_000000gn/T//cc80PrWX.s:94     .text.pages:0000000000000044 .L0 
/var/folders/rt/4gvqv631095f64jvm7jfj_000000gn/T//cc80PrWX.s:96     .text.pages:0000000000000046 .L0 
/var/folders/rt/4gvqv631095f64jvm7jfj_000000gn/T//cc80PrWX.s:98     .text.pages:0000000000000048 .L0 
/var/folders/rt/4gvqv631095f64jvm7jfj_000000gn/T//cc80PrWX.s:100    .text.pages:000000000000004a .L0 
/var/folders/rt/4gvqv631095f64jvm7jfj_000000gn/T//cc80PrWX.s:102    .text.pages:000000000000004c .L0 
/var/folders/rt/4gvqv631095f64jvm7jfj_000000gn/T//cc80PrWX.s:105    .text.pages:000000000000004e .L0 
/var/folders/rt/4gvqv631095f64jvm7jfj_000000gn/T//cc80PrWX.s:108    .text.pages:0000000000000050 .L0 
/var/folders/rt/4gvqv631095f64jvm7jfj_000000gn/T//cc80PrWX.s:110    .text.pages:0000000000000050 .L0 
/var/folders/rt/4gvqv631095f64jvm7jfj_000000gn/T//cc80PrWX.s:114    .text.pages:0000000000000058 .L0 
/var/folders/rt/4gvqv631095f64jvm7jfj_000000gn/T//cc80PrWX.s:116    .text.pages:0000000000000058 .L0 
/var/folders/rt/4gvqv631095f64jvm7jfj_000000gn/T//cc80PrWX.s:119    .text.pages:000000000000005c .L0 
/var/folders/rt/4gvqv631095f64jvm7jfj_000000gn/T//cc80PrWX.s:122    .text.pages:0000000000000064 .L0 
/var/folders/rt/4gvqv631095f64jvm7jfj_000000gn/T//cc80PrWX.s:131    .text.pages:000000000000007c .L0 
/var/folders/rt/4gvqv631095f64jvm7jfj_000000gn/T//cc80PrWX.s:140    .text.pages:0000000000000096 .L0 
/var/folders/rt/4gvqv631095f64jvm7jfj_000000gn/T//cc80PrWX.s:141    .text.pages:0000000000000096 .L0 
/var/folders/rt/4gvqv631095f64jvm7jfj_000000gn/T//cc80PrWX.s:150    .text.pages:00000000000000b0 .L0 
/var/folders/rt/4gvqv631095f64jvm7jfj_000000gn/T//cc80PrWX.s:151    .text.pages:00000000000000b0 .L0 
/var/folders/rt/4gvqv631095f64jvm7jfj_000000gn/T//cc80PrWX.s:157    .text.pages:00000000000000be .L0 
/var/folders/rt/4gvqv631095f64jvm7jfj_000000gn/T//cc80PrWX.s:161    .text.pages:00000000000000c2 .L0 
/var/folders/rt/4gvqv631095f64jvm7jfj_000000gn/T//cc80PrWX.s:168    .text.pages:00000000000000ce .L0 
/var/folders/rt/4gvqv631095f64jvm7jfj_000000gn/T//cc80PrWX.s:171    .text.pages:00000000000000d2 .L0 
/var/folders/rt/4gvqv631095f64jvm7jfj_000000gn/T//cc80PrWX.s:174    .text.pages:00000000000000da .L0 
/var/folders/rt/4gvqv631095f64jvm7jfj_000000gn/T//cc80PrWX.s:184    .text.pages:00000000000000f2 .L0 
/var/folders/rt/4gvqv631095f64jvm7jfj_000000gn/T//cc80PrWX.s:185    .text.pages:00000000000000f2 .L0 
/var/folders/rt/4gvqv631095f64jvm7jfj_000000gn/T//cc80PrWX.s:186    .text.pages:00000000000000f2 .L0 
/var/folders/rt/4gvqv631095f64jvm7jfj_000000gn/T//cc80PrWX.s:188    .text.pages:00000000000000f4 .L0 
/var/folders/rt/4gvqv631095f64jvm7jfj_000000gn/T//cc80PrWX.s:193    .text.pages:00000000000000fa .L0 
/var/folders/rt/4gvqv631095f64jvm7jfj_000000gn/T//cc80PrWX.s:196    .text.pages:00000000000000fe .L0 
/var/folders/rt/4gvqv631095f64jvm7jfj_000000gn/T//cc80PrWX.s:202    .text.pages:0000000000000104 .L0 
/var/folders/rt/4gvqv631095f64jvm7jfj_000000gn/T//cc80PrWX.s:211    .text.pages:0000000000000114 .L0 
GAS LISTING /var/folders/rt/4gvqv631095f64jvm7jfj_000000gn/T//cc80PrWX.s 			page 37


/var/folders/rt/4gvqv631095f64jvm7jfj_000000gn/T//cc80PrWX.s:221    .text.pages:000000000000012e .L0 
/var/folders/rt/4gvqv631095f64jvm7jfj_000000gn/T//cc80PrWX.s:222    .text.pages:000000000000012e .L0 
/var/folders/rt/4gvqv631095f64jvm7jfj_000000gn/T//cc80PrWX.s:225    .text.pages:0000000000000130 .L0 
/var/folders/rt/4gvqv631095f64jvm7jfj_000000gn/T//cc80PrWX.s:233    .text.pages:0000000000000144 .L0 
/var/folders/rt/4gvqv631095f64jvm7jfj_000000gn/T//cc80PrWX.s:238    .text.pages:0000000000000146 .L0 
/var/folders/rt/4gvqv631095f64jvm7jfj_000000gn/T//cc80PrWX.s:241    .text.pages:000000000000014a .L0 
/var/folders/rt/4gvqv631095f64jvm7jfj_000000gn/T//cc80PrWX.s:244    .text.pages:0000000000000152 .L0 
/var/folders/rt/4gvqv631095f64jvm7jfj_000000gn/T//cc80PrWX.s:253    .text.pages:000000000000016a .L0 
/var/folders/rt/4gvqv631095f64jvm7jfj_000000gn/T//cc80PrWX.s:259    .text.pages:0000000000000178 .L0 
/var/folders/rt/4gvqv631095f64jvm7jfj_000000gn/T//cc80PrWX.s:264    .text.pages:0000000000000184 .L0 
/var/folders/rt/4gvqv631095f64jvm7jfj_000000gn/T//cc80PrWX.s:265    .text.pages:0000000000000184 .L0 
/var/folders/rt/4gvqv631095f64jvm7jfj_000000gn/T//cc80PrWX.s:272    .text.pages:0000000000000192 .L0 
/var/folders/rt/4gvqv631095f64jvm7jfj_000000gn/T//cc80PrWX.s:277    .text.pages:0000000000000196 .L0 
/var/folders/rt/4gvqv631095f64jvm7jfj_000000gn/T//cc80PrWX.s:280    .text.pages:000000000000019a .L0 
/var/folders/rt/4gvqv631095f64jvm7jfj_000000gn/T//cc80PrWX.s:283    .text.pages:00000000000001a2 .L0 
/var/folders/rt/4gvqv631095f64jvm7jfj_000000gn/T//cc80PrWX.s:292    .text.pages:00000000000001ba .L0 
/var/folders/rt/4gvqv631095f64jvm7jfj_000000gn/T//cc80PrWX.s:300    .text.pages:00000000000001ca .L0 
/var/folders/rt/4gvqv631095f64jvm7jfj_000000gn/T//cc80PrWX.s:303    .text.pages:00000000000001ce .L0 
/var/folders/rt/4gvqv631095f64jvm7jfj_000000gn/T//cc80PrWX.s:306    .text.pages:00000000000001d6 .L0 
/var/folders/rt/4gvqv631095f64jvm7jfj_000000gn/T//cc80PrWX.s:315    .text.pages:00000000000001ee .L0 
/var/folders/rt/4gvqv631095f64jvm7jfj_000000gn/T//cc80PrWX.s:324    .text.pages:0000000000000208 .L0 
/var/folders/rt/4gvqv631095f64jvm7jfj_000000gn/T//cc80PrWX.s:325    .text.pages:0000000000000208 .L0 
/var/folders/rt/4gvqv631095f64jvm7jfj_000000gn/T//cc80PrWX.s:333    .text.pages:0000000000000218 .L0 
/var/folders/rt/4gvqv631095f64jvm7jfj_000000gn/T//cc80PrWX.s:336    .text.pages:000000000000021c .L0 
/var/folders/rt/4gvqv631095f64jvm7jfj_000000gn/T//cc80PrWX.s:339    .text.pages:0000000000000224 .L0 
/var/folders/rt/4gvqv631095f64jvm7jfj_000000gn/T//cc80PrWX.s:348    .text.pages:000000000000023c .L0 
/var/folders/rt/4gvqv631095f64jvm7jfj_000000gn/T//cc80PrWX.s:357    .text.pages:0000000000000256 .L0 
/var/folders/rt/4gvqv631095f64jvm7jfj_000000gn/T//cc80PrWX.s:358    .text.pages:0000000000000256 .L0 
/var/folders/rt/4gvqv631095f64jvm7jfj_000000gn/T//cc80PrWX.s:367    .text.pages:0000000000000270 .L0 
/var/folders/rt/4gvqv631095f64jvm7jfj_000000gn/T//cc80PrWX.s:368    .text.pages:0000000000000270 .L0 
/var/folders/rt/4gvqv631095f64jvm7jfj_000000gn/T//cc80PrWX.s:376    .text.pages:0000000000000280 .L0 
/var/folders/rt/4gvqv631095f64jvm7jfj_000000gn/T//cc80PrWX.s:380    .text.pages:000000000000028a .L0 
/var/folders/rt/4gvqv631095f64jvm7jfj_000000gn/T//cc80PrWX.s:387    .text.pages:000000000000029a .L0 
/var/folders/rt/4gvqv631095f64jvm7jfj_000000gn/T//cc80PrWX.s:392    .text.pages:000000000000029e .L0 
/var/folders/rt/4gvqv631095f64jvm7jfj_000000gn/T//cc80PrWX.s:396    .text.pages:00000000000002a8 .L0 
/var/folders/rt/4gvqv631095f64jvm7jfj_000000gn/T//cc80PrWX.s:405    .text.pages:00000000000002ba .L0 
/var/folders/rt/4gvqv631095f64jvm7jfj_000000gn/T//cc80PrWX.s:409    .text.pages:00000000000002c4 .L0 
/var/folders/rt/4gvqv631095f64jvm7jfj_000000gn/T//cc80PrWX.s:419    .text.pages:00000000000002e0 .L0 
/var/folders/rt/4gvqv631095f64jvm7jfj_000000gn/T//cc80PrWX.s:420    .text.pages:00000000000002e0 .L0 
/var/folders/rt/4gvqv631095f64jvm7jfj_000000gn/T//cc80PrWX.s:428    .text.pages:00000000000002f0 .L0 
/var/folders/rt/4gvqv631095f64jvm7jfj_000000gn/T//cc80PrWX.s:431    .text.pages:00000000000002f4 .L0 
/var/folders/rt/4gvqv631095f64jvm7jfj_000000gn/T//cc80PrWX.s:434    .text.pages:00000000000002fc .L0 
/var/folders/rt/4gvqv631095f64jvm7jfj_000000gn/T//cc80PrWX.s:443    .text.pages:0000000000000314 .L0 
/var/folders/rt/4gvqv631095f64jvm7jfj_000000gn/T//cc80PrWX.s:452    .text.pages:0000000000000326 .L0 
/var/folders/rt/4gvqv631095f64jvm7jfj_000000gn/T//cc80PrWX.s:455    .text.pages:000000000000032e .L0 
/var/folders/rt/4gvqv631095f64jvm7jfj_000000gn/T//cc80PrWX.s:456    .text.pages:000000000000032e .L0 
/var/folders/rt/4gvqv631095f64jvm7jfj_000000gn/T//cc80PrWX.s:457    .text.pages:000000000000032e .L0 
/var/folders/rt/4gvqv631095f64jvm7jfj_000000gn/T//cc80PrWX.s:458    .text.pages:000000000000032e .L0 
/var/folders/rt/4gvqv631095f64jvm7jfj_000000gn/T//cc80PrWX.s:463    .text.pages:0000000000000338 .L0 
/var/folders/rt/4gvqv631095f64jvm7jfj_000000gn/T//cc80PrWX.s:467    .text.pages:0000000000000342 .L0 
/var/folders/rt/4gvqv631095f64jvm7jfj_000000gn/T//cc80PrWX.s:468    .text.pages:0000000000000342 .L0 
/var/folders/rt/4gvqv631095f64jvm7jfj_000000gn/T//cc80PrWX.s:472    .text.pages:000000000000034c .L0 
/var/folders/rt/4gvqv631095f64jvm7jfj_000000gn/T//cc80PrWX.s:475    .text.pages:0000000000000350 .L0 
/var/folders/rt/4gvqv631095f64jvm7jfj_000000gn/T//cc80PrWX.s:478    .text.pages:0000000000000352 .L0 
/var/folders/rt/4gvqv631095f64jvm7jfj_000000gn/T//cc80PrWX.s:485    .text.pages:0000000000000366 .L0 
/var/folders/rt/4gvqv631095f64jvm7jfj_000000gn/T//cc80PrWX.s:494    .text.pages:0000000000000380 .L0 
/var/folders/rt/4gvqv631095f64jvm7jfj_000000gn/T//cc80PrWX.s:502    .text.pages:0000000000000396 .L0 
GAS LISTING /var/folders/rt/4gvqv631095f64jvm7jfj_000000gn/T//cc80PrWX.s 			page 38


/var/folders/rt/4gvqv631095f64jvm7jfj_000000gn/T//cc80PrWX.s:503    .text.pages:0000000000000396 .L0 
/var/folders/rt/4gvqv631095f64jvm7jfj_000000gn/T//cc80PrWX.s:504    .text.pages:0000000000000396 .L0 
/var/folders/rt/4gvqv631095f64jvm7jfj_000000gn/T//cc80PrWX.s:508    .text.pages:00000000000003a0 .L0 
/var/folders/rt/4gvqv631095f64jvm7jfj_000000gn/T//cc80PrWX.s:510    .text.pages:00000000000003a4 .L0 
/var/folders/rt/4gvqv631095f64jvm7jfj_000000gn/T//cc80PrWX.s:513    .text.pages:00000000000003a6 .L0 
/var/folders/rt/4gvqv631095f64jvm7jfj_000000gn/T//cc80PrWX.s:521    .text.pages:00000000000003bc .L0 
/var/folders/rt/4gvqv631095f64jvm7jfj_000000gn/T//cc80PrWX.s:529    .text.pages:00000000000003d2 .L0 
/var/folders/rt/4gvqv631095f64jvm7jfj_000000gn/T//cc80PrWX.s:530    .text.pages:00000000000003d2 .L0 
/var/folders/rt/4gvqv631095f64jvm7jfj_000000gn/T//cc80PrWX.s:539    .text.pages:00000000000003ee .L0 
/var/folders/rt/4gvqv631095f64jvm7jfj_000000gn/T//cc80PrWX.s:550    .text.pages:0000000000000410 .L0 
/var/folders/rt/4gvqv631095f64jvm7jfj_000000gn/T//cc80PrWX.s:559    .text.pages:000000000000042a .L0 
/var/folders/rt/4gvqv631095f64jvm7jfj_000000gn/T//cc80PrWX.s:560    .text.pages:000000000000042a .L0 
/var/folders/rt/4gvqv631095f64jvm7jfj_000000gn/T//cc80PrWX.s:561    .text.pages:000000000000042a .L0 
/var/folders/rt/4gvqv631095f64jvm7jfj_000000gn/T//cc80PrWX.s:567    .text.pages:0000000000000432 .L0 
/var/folders/rt/4gvqv631095f64jvm7jfj_000000gn/T//cc80PrWX.s:571    .text.pages:000000000000043c .L0 
/var/folders/rt/4gvqv631095f64jvm7jfj_000000gn/T//cc80PrWX.s:580    .text.pages:000000000000044e .L0 
/var/folders/rt/4gvqv631095f64jvm7jfj_000000gn/T//cc80PrWX.s:583    .text.pages:0000000000000452 .L0 
/var/folders/rt/4gvqv631095f64jvm7jfj_000000gn/T//cc80PrWX.s:586    .text.pages:000000000000045a .L0 
/var/folders/rt/4gvqv631095f64jvm7jfj_000000gn/T//cc80PrWX.s:595    .text.pages:0000000000000472 .L0 
/var/folders/rt/4gvqv631095f64jvm7jfj_000000gn/T//cc80PrWX.s:604    .text.pages:000000000000048c .L0 
/var/folders/rt/4gvqv631095f64jvm7jfj_000000gn/T//cc80PrWX.s:605    .text.pages:000000000000048c .L0 
/var/folders/rt/4gvqv631095f64jvm7jfj_000000gn/T//cc80PrWX.s:613    .text.pages:000000000000049c .L0 
/var/folders/rt/4gvqv631095f64jvm7jfj_000000gn/T//cc80PrWX.s:614    .text.pages:000000000000049c .L0 
/var/folders/rt/4gvqv631095f64jvm7jfj_000000gn/T//cc80PrWX.s:615    .text.pages:000000000000049c .L0 
/var/folders/rt/4gvqv631095f64jvm7jfj_000000gn/T//cc80PrWX.s:616    .text.pages:000000000000049c .L0 
/var/folders/rt/4gvqv631095f64jvm7jfj_000000gn/T//cc80PrWX.s:617    .text.pages:000000000000049c .L0 
/var/folders/rt/4gvqv631095f64jvm7jfj_000000gn/T//cc80PrWX.s:618    .text.pages:000000000000049c .L0 
/var/folders/rt/4gvqv631095f64jvm7jfj_000000gn/T//cc80PrWX.s:619    .text.pages:000000000000049c .L0 
/var/folders/rt/4gvqv631095f64jvm7jfj_000000gn/T//cc80PrWX.s:621    .text.pages:000000000000049e .L0 
/var/folders/rt/4gvqv631095f64jvm7jfj_000000gn/T//cc80PrWX.s:628    .text.move_pointer:0000000000000000 move_pointer
/var/folders/rt/4gvqv631095f64jvm7jfj_000000gn/T//cc80PrWX.s:631    .text.move_pointer:0000000000000000 .L0 
/var/folders/rt/4gvqv631095f64jvm7jfj_000000gn/T//cc80PrWX.s:633    .text.move_pointer:0000000000000000 .L0 
/var/folders/rt/4gvqv631095f64jvm7jfj_000000gn/T//cc80PrWX.s:634    .text.move_pointer:0000000000000000 .L0 
/var/folders/rt/4gvqv631095f64jvm7jfj_000000gn/T//cc80PrWX.s:635    .text.move_pointer:0000000000000000 .L0 
/var/folders/rt/4gvqv631095f64jvm7jfj_000000gn/T//cc80PrWX.s:637    .text.move_pointer:0000000000000002 .L0 
/var/folders/rt/4gvqv631095f64jvm7jfj_000000gn/T//cc80PrWX.s:639    .text.move_pointer:0000000000000004 .L0 
/var/folders/rt/4gvqv631095f64jvm7jfj_000000gn/T//cc80PrWX.s:642    .text.move_pointer:0000000000000008 .L0 
/var/folders/rt/4gvqv631095f64jvm7jfj_000000gn/T//cc80PrWX.s:643    .text.move_pointer:0000000000000008 .L0 
/var/folders/rt/4gvqv631095f64jvm7jfj_000000gn/T//cc80PrWX.s:645    .text.move_pointer:0000000000000008 .L0 
/var/folders/rt/4gvqv631095f64jvm7jfj_000000gn/T//cc80PrWX.s:648    .text.move_pointer:000000000000000c .L0 
/var/folders/rt/4gvqv631095f64jvm7jfj_000000gn/T//cc80PrWX.s:652    .text.move_pointer:0000000000000016 .L0 
/var/folders/rt/4gvqv631095f64jvm7jfj_000000gn/T//cc80PrWX.s:653    .text.move_pointer:0000000000000018 .L0 
/var/folders/rt/4gvqv631095f64jvm7jfj_000000gn/T//cc80PrWX.s:654    .text.move_pointer:0000000000000018 .L0 
/var/folders/rt/4gvqv631095f64jvm7jfj_000000gn/T//cc80PrWX.s:656    .text.move_pointer:000000000000001a .L0 
/var/folders/rt/4gvqv631095f64jvm7jfj_000000gn/T//cc80PrWX.s:659    .text.move_pointer:000000000000001c .L0 
/var/folders/rt/4gvqv631095f64jvm7jfj_000000gn/T//cc80PrWX.s:664    .text.move_pointer:000000000000001e .L0 
/var/folders/rt/4gvqv631095f64jvm7jfj_000000gn/T//cc80PrWX.s:668    .text.move_pointer:000000000000001e .L0 
/var/folders/rt/4gvqv631095f64jvm7jfj_000000gn/T//cc80PrWX.s:669    .text.move_pointer:000000000000001e .L0 
/var/folders/rt/4gvqv631095f64jvm7jfj_000000gn/T//cc80PrWX.s:672    .text.move_pointer:0000000000000020 .L0 
/var/folders/rt/4gvqv631095f64jvm7jfj_000000gn/T//cc80PrWX.s:680    .text.move_pointer:0000000000000032 .L0 
/var/folders/rt/4gvqv631095f64jvm7jfj_000000gn/T//cc80PrWX.s:681    .text.move_pointer:0000000000000032 .L0 
/var/folders/rt/4gvqv631095f64jvm7jfj_000000gn/T//cc80PrWX.s:688    .text.move_pointer:0000000000000036 .L0 
/var/folders/rt/4gvqv631095f64jvm7jfj_000000gn/T//cc80PrWX.s:690    .text.move_pointer:0000000000000038 .L0 
/var/folders/rt/4gvqv631095f64jvm7jfj_000000gn/T//cc80PrWX.s:691    .text.move_pointer:0000000000000038 .L0 
/var/folders/rt/4gvqv631095f64jvm7jfj_000000gn/T//cc80PrWX.s:692    .text.move_pointer:000000000000003a .L0 
/var/folders/rt/4gvqv631095f64jvm7jfj_000000gn/T//cc80PrWX.s:693    .text.move_pointer:000000000000003a .L0 
/var/folders/rt/4gvqv631095f64jvm7jfj_000000gn/T//cc80PrWX.s:696    .text.move_pointer:000000000000003c .L0 
GAS LISTING /var/folders/rt/4gvqv631095f64jvm7jfj_000000gn/T//cc80PrWX.s 			page 39


/var/folders/rt/4gvqv631095f64jvm7jfj_000000gn/T//cc80PrWX.s:698    .text.move_pointer:000000000000003c .L0 
/var/folders/rt/4gvqv631095f64jvm7jfj_000000gn/T//cc80PrWX.s:700    .text.move_pointer:000000000000003e .L0 
/var/folders/rt/4gvqv631095f64jvm7jfj_000000gn/T//cc80PrWX.s:701    .text.move_pointer:000000000000003e .L0 
/var/folders/rt/4gvqv631095f64jvm7jfj_000000gn/T//cc80PrWX.s:706    .text.move_pointer:0000000000000048 .L0 
/var/folders/rt/4gvqv631095f64jvm7jfj_000000gn/T//cc80PrWX.s:708    .text.move_pointer:000000000000004a .L0 
/var/folders/rt/4gvqv631095f64jvm7jfj_000000gn/T//cc80PrWX.s:710    .text.move_pointer:000000000000004a .L0 
/var/folders/rt/4gvqv631095f64jvm7jfj_000000gn/T//cc80PrWX.s:714    .text.move_pointer:0000000000000052 .L0 
/var/folders/rt/4gvqv631095f64jvm7jfj_000000gn/T//cc80PrWX.s:716    .text.move_pointer:0000000000000052 .L0 
/var/folders/rt/4gvqv631095f64jvm7jfj_000000gn/T//cc80PrWX.s:717    .text.move_pointer:0000000000000052 .L0 
/var/folders/rt/4gvqv631095f64jvm7jfj_000000gn/T//cc80PrWX.s:720    .text.move_pointer:0000000000000054 .L0 
/var/folders/rt/4gvqv631095f64jvm7jfj_000000gn/T//cc80PrWX.s:728    .text.move_pointer:0000000000000066 .L0 
/var/folders/rt/4gvqv631095f64jvm7jfj_000000gn/T//cc80PrWX.s:729    .text.move_pointer:0000000000000066 .L0 
/var/folders/rt/4gvqv631095f64jvm7jfj_000000gn/T//cc80PrWX.s:735    .text.move_pointer:000000000000006c .L0 
/var/folders/rt/4gvqv631095f64jvm7jfj_000000gn/T//cc80PrWX.s:736    .text.move_pointer:000000000000006c .L0 
/var/folders/rt/4gvqv631095f64jvm7jfj_000000gn/T//cc80PrWX.s:737    .text.move_pointer:000000000000006c .L0 
/var/folders/rt/4gvqv631095f64jvm7jfj_000000gn/T//cc80PrWX.s:739    .text.move_pointer:000000000000006e .L0 
/var/folders/rt/4gvqv631095f64jvm7jfj_000000gn/T//cc80PrWX.s:746    .text.which_page:0000000000000000 which_page
/var/folders/rt/4gvqv631095f64jvm7jfj_000000gn/T//cc80PrWX.s:749    .text.which_page:0000000000000000 .L0 
/var/folders/rt/4gvqv631095f64jvm7jfj_000000gn/T//cc80PrWX.s:751    .text.which_page:0000000000000000 .L0 
/var/folders/rt/4gvqv631095f64jvm7jfj_000000gn/T//cc80PrWX.s:752    .text.which_page:0000000000000000 .L0 
/var/folders/rt/4gvqv631095f64jvm7jfj_000000gn/T//cc80PrWX.s:753    .text.which_page:0000000000000000 .L0 
/var/folders/rt/4gvqv631095f64jvm7jfj_000000gn/T//cc80PrWX.s:754    .text.which_page:0000000000000000 .L0 
/var/folders/rt/4gvqv631095f64jvm7jfj_000000gn/T//cc80PrWX.s:755    .text.which_page:0000000000000000 .L0 
/var/folders/rt/4gvqv631095f64jvm7jfj_000000gn/T//cc80PrWX.s:756    .text.which_page:0000000000000000 .L0 
/var/folders/rt/4gvqv631095f64jvm7jfj_000000gn/T//cc80PrWX.s:759    .text.which_page:0000000000000006 .L0 
/var/folders/rt/4gvqv631095f64jvm7jfj_000000gn/T//cc80PrWX.s:760    .text.which_page:0000000000000006 .L0 
/var/folders/rt/4gvqv631095f64jvm7jfj_000000gn/T//cc80PrWX.s:762    .text.which_page:0000000000000008 .L0 
/var/folders/rt/4gvqv631095f64jvm7jfj_000000gn/T//cc80PrWX.s:764    .text.which_page:000000000000000a .L0 
/var/folders/rt/4gvqv631095f64jvm7jfj_000000gn/T//cc80PrWX.s:766    .text.which_page:000000000000000e .L0 
/var/folders/rt/4gvqv631095f64jvm7jfj_000000gn/T//cc80PrWX.s:767    .text.which_page:000000000000000e .L0 
/var/folders/rt/4gvqv631095f64jvm7jfj_000000gn/T//cc80PrWX.s:769    .text.which_page:0000000000000012 .L0 
/var/folders/rt/4gvqv631095f64jvm7jfj_000000gn/T//cc80PrWX.s:771    .text.which_page:0000000000000014 .L0 
/var/folders/rt/4gvqv631095f64jvm7jfj_000000gn/T//cc80PrWX.s:773    .text.which_page:0000000000000018 .L0 
/var/folders/rt/4gvqv631095f64jvm7jfj_000000gn/T//cc80PrWX.s:774    .text.which_page:0000000000000018 .L0 
/var/folders/rt/4gvqv631095f64jvm7jfj_000000gn/T//cc80PrWX.s:776    .text.which_page:000000000000001c .L0 
/var/folders/rt/4gvqv631095f64jvm7jfj_000000gn/T//cc80PrWX.s:778    .text.which_page:000000000000001e .L0 
/var/folders/rt/4gvqv631095f64jvm7jfj_000000gn/T//cc80PrWX.s:780    .text.which_page:0000000000000022 .L0 
/var/folders/rt/4gvqv631095f64jvm7jfj_000000gn/T//cc80PrWX.s:781    .text.which_page:0000000000000022 .L0 
/var/folders/rt/4gvqv631095f64jvm7jfj_000000gn/T//cc80PrWX.s:783    .text.which_page:0000000000000026 .L0 
/var/folders/rt/4gvqv631095f64jvm7jfj_000000gn/T//cc80PrWX.s:785    .text.which_page:0000000000000028 .L0 
/var/folders/rt/4gvqv631095f64jvm7jfj_000000gn/T//cc80PrWX.s:787    .text.which_page:000000000000002c .L0 
/var/folders/rt/4gvqv631095f64jvm7jfj_000000gn/T//cc80PrWX.s:791    .text.which_page:000000000000002e .L0 
/var/folders/rt/4gvqv631095f64jvm7jfj_000000gn/T//cc80PrWX.s:792    .text.which_page:000000000000002e .L0 
/var/folders/rt/4gvqv631095f64jvm7jfj_000000gn/T//cc80PrWX.s:797    .text.which_page:0000000000000036 .L0 
/var/folders/rt/4gvqv631095f64jvm7jfj_000000gn/T//cc80PrWX.s:798    .text.which_page:0000000000000036 .L0 
/var/folders/rt/4gvqv631095f64jvm7jfj_000000gn/T//cc80PrWX.s:803    .text.which_page:000000000000003e .L0 
/var/folders/rt/4gvqv631095f64jvm7jfj_000000gn/T//cc80PrWX.s:804    .text.which_page:000000000000003e .L0 
/var/folders/rt/4gvqv631095f64jvm7jfj_000000gn/T//cc80PrWX.s:808    .text.which_page:0000000000000046 .L0 
/var/folders/rt/4gvqv631095f64jvm7jfj_000000gn/T//cc80PrWX.s:809    .text.which_page:0000000000000046 .L0 
/var/folders/rt/4gvqv631095f64jvm7jfj_000000gn/T//cc80PrWX.s:839    .text.which_page:000000000000005e .L0 
/var/folders/rt/4gvqv631095f64jvm7jfj_000000gn/T//cc80PrWX.s:844    .text.which_page:0000000000000062 .L0 
/var/folders/rt/4gvqv631095f64jvm7jfj_000000gn/T//cc80PrWX.s:850    .text.which_page:0000000000000066 .L0 
/var/folders/rt/4gvqv631095f64jvm7jfj_000000gn/T//cc80PrWX.s:854    .text.which_page:0000000000000068 .L0 
/var/folders/rt/4gvqv631095f64jvm7jfj_000000gn/T//cc80PrWX.s:856    .text.which_page:000000000000006a .L0 
/var/folders/rt/4gvqv631095f64jvm7jfj_000000gn/T//cc80PrWX.s:867    .text.which_page:0000000000000080 .L0 
/var/folders/rt/4gvqv631095f64jvm7jfj_000000gn/T//cc80PrWX.s:871    .text.which_page:0000000000000082 .L0 
/var/folders/rt/4gvqv631095f64jvm7jfj_000000gn/T//cc80PrWX.s:872    .text.which_page:0000000000000082 .L0 
GAS LISTING /var/folders/rt/4gvqv631095f64jvm7jfj_000000gn/T//cc80PrWX.s 			page 40


/var/folders/rt/4gvqv631095f64jvm7jfj_000000gn/T//cc80PrWX.s:874    .text.which_page:0000000000000084 .L0 
/var/folders/rt/4gvqv631095f64jvm7jfj_000000gn/T//cc80PrWX.s:882    .text.which_page:0000000000000094 .L0 
/var/folders/rt/4gvqv631095f64jvm7jfj_000000gn/T//cc80PrWX.s:886    .text.which_page:0000000000000096 .L0 
/var/folders/rt/4gvqv631095f64jvm7jfj_000000gn/T//cc80PrWX.s:887    .text.which_page:0000000000000096 .L0 
/var/folders/rt/4gvqv631095f64jvm7jfj_000000gn/T//cc80PrWX.s:889    .text.which_page:0000000000000098 .L0 
/var/folders/rt/4gvqv631095f64jvm7jfj_000000gn/T//cc80PrWX.s:897    .text.which_page:00000000000000a8 .L0 
/var/folders/rt/4gvqv631095f64jvm7jfj_000000gn/T//cc80PrWX.s:901    .text.which_page:00000000000000aa .L0 
/var/folders/rt/4gvqv631095f64jvm7jfj_000000gn/T//cc80PrWX.s:902    .text.which_page:00000000000000aa .L0 
/var/folders/rt/4gvqv631095f64jvm7jfj_000000gn/T//cc80PrWX.s:904    .text.which_page:00000000000000ac .L0 
                .sdata2.CSWTCH.85:0000000000000000 CSWTCH.86
/var/folders/rt/4gvqv631095f64jvm7jfj_000000gn/T//cc80PrWX.s:912    .text.which_page:00000000000000bc .L0 
/var/folders/rt/4gvqv631095f64jvm7jfj_000000gn/T//cc80PrWX.s:916    .text.which_page:00000000000000be .L0 
/var/folders/rt/4gvqv631095f64jvm7jfj_000000gn/T//cc80PrWX.s:917    .text.which_page:00000000000000be .L0 
/var/folders/rt/4gvqv631095f64jvm7jfj_000000gn/T//cc80PrWX.s:919    .text.which_page:00000000000000c0 .L0 
                .sdata2.CSWTCH.85:0000000000000000 CSWTCH.87
/var/folders/rt/4gvqv631095f64jvm7jfj_000000gn/T//cc80PrWX.s:927    .text.which_page:00000000000000d0 .L0 
/var/folders/rt/4gvqv631095f64jvm7jfj_000000gn/T//cc80PrWX.s:931    .text.which_page:00000000000000d2 .L0 
/var/folders/rt/4gvqv631095f64jvm7jfj_000000gn/T//cc80PrWX.s:932    .text.which_page:00000000000000d2 .L0 
/var/folders/rt/4gvqv631095f64jvm7jfj_000000gn/T//cc80PrWX.s:934    .text.which_page:00000000000000d4 .L0 
/var/folders/rt/4gvqv631095f64jvm7jfj_000000gn/T//cc80PrWX.s:942    .text.which_page:00000000000000e4 .L0 
/var/folders/rt/4gvqv631095f64jvm7jfj_000000gn/T//cc80PrWX.s:946    .text.which_page:00000000000000e6 .L0 
/var/folders/rt/4gvqv631095f64jvm7jfj_000000gn/T//cc80PrWX.s:947    .text.which_page:00000000000000e6 .L0 
/var/folders/rt/4gvqv631095f64jvm7jfj_000000gn/T//cc80PrWX.s:949    .text.which_page:00000000000000e8 .L0 
/var/folders/rt/4gvqv631095f64jvm7jfj_000000gn/T//cc80PrWX.s:957    .text.which_page:00000000000000f8 .L0 
/var/folders/rt/4gvqv631095f64jvm7jfj_000000gn/T//cc80PrWX.s:958    .text.which_page:00000000000000f8 .L0 
/var/folders/rt/4gvqv631095f64jvm7jfj_000000gn/T//cc80PrWX.s:959    .text.which_page:00000000000000f8 .L0 
/var/folders/rt/4gvqv631095f64jvm7jfj_000000gn/T//cc80PrWX.s:965    .text.which_page:00000000000000fc .L0 
/var/folders/rt/4gvqv631095f64jvm7jfj_000000gn/T//cc80PrWX.s:967    .text.which_page:00000000000000fc .L0 
/var/folders/rt/4gvqv631095f64jvm7jfj_000000gn/T//cc80PrWX.s:968    .text.which_page:00000000000000fc .L0 
/var/folders/rt/4gvqv631095f64jvm7jfj_000000gn/T//cc80PrWX.s:971    .text.which_page:00000000000000fe .L0 
/var/folders/rt/4gvqv631095f64jvm7jfj_000000gn/T//cc80PrWX.s:976    .text.which_page:0000000000000102 .L0 
/var/folders/rt/4gvqv631095f64jvm7jfj_000000gn/T//cc80PrWX.s:980    .text.which_page:0000000000000104 .L0 
/var/folders/rt/4gvqv631095f64jvm7jfj_000000gn/T//cc80PrWX.s:1011   .text.which_page:000000000000011a .L0 
/var/folders/rt/4gvqv631095f64jvm7jfj_000000gn/T//cc80PrWX.s:1017   .text.which_page:000000000000011e .L0 
/var/folders/rt/4gvqv631095f64jvm7jfj_000000gn/T//cc80PrWX.s:1020   .text.which_page:0000000000000120 .L0 
/var/folders/rt/4gvqv631095f64jvm7jfj_000000gn/T//cc80PrWX.s:1021   .text.which_page:0000000000000122 .L0 
/var/folders/rt/4gvqv631095f64jvm7jfj_000000gn/T//cc80PrWX.s:1028   .text.Buttonpressed:0000000000000000 Buttonpressed
/var/folders/rt/4gvqv631095f64jvm7jfj_000000gn/T//cc80PrWX.s:1031   .text.Buttonpressed:0000000000000000 .L0 
/var/folders/rt/4gvqv631095f64jvm7jfj_000000gn/T//cc80PrWX.s:1033   .text.Buttonpressed:0000000000000000 .L0 
/var/folders/rt/4gvqv631095f64jvm7jfj_000000gn/T//cc80PrWX.s:1034   .text.Buttonpressed:0000000000000000 .L0 
/var/folders/rt/4gvqv631095f64jvm7jfj_000000gn/T//cc80PrWX.s:1035   .text.Buttonpressed:0000000000000000 .L0 
/var/folders/rt/4gvqv631095f64jvm7jfj_000000gn/T//cc80PrWX.s:1044   .text.Buttonpressed:0000000000000012 .L0 
/var/folders/rt/4gvqv631095f64jvm7jfj_000000gn/T//cc80PrWX.s:1052   .text.Buttonpressed:000000000000001e .L0 
/var/folders/rt/4gvqv631095f64jvm7jfj_000000gn/T//cc80PrWX.s:1054   .text.Buttonpressed:0000000000000020 .L0 
/var/folders/rt/4gvqv631095f64jvm7jfj_000000gn/T//cc80PrWX.s:1057   .text.Buttonpressed:0000000000000022 .L0 
/var/folders/rt/4gvqv631095f64jvm7jfj_000000gn/T//cc80PrWX.s:1059   .text.Buttonpressed:0000000000000024 .L0 
/var/folders/rt/4gvqv631095f64jvm7jfj_000000gn/T//cc80PrWX.s:1062   .text.Buttonpressed:0000000000000026 .L0 
/var/folders/rt/4gvqv631095f64jvm7jfj_000000gn/T//cc80PrWX.s:1063   .text.Buttonpressed:0000000000000026 .L0 
/var/folders/rt/4gvqv631095f64jvm7jfj_000000gn/T//cc80PrWX.s:1066   .text.Buttonpressed:0000000000000028 .L0 
/var/folders/rt/4gvqv631095f64jvm7jfj_000000gn/T//cc80PrWX.s:1068   .text.Buttonpressed:000000000000002c .L0 
/var/folders/rt/4gvqv631095f64jvm7jfj_000000gn/T//cc80PrWX.s:1069   .text.Buttonpressed:000000000000002c .L0 
/var/folders/rt/4gvqv631095f64jvm7jfj_000000gn/T//cc80PrWX.s:1074   .text.Buttonpressed:0000000000000032 .L0 
/var/folders/rt/4gvqv631095f64jvm7jfj_000000gn/T//cc80PrWX.s:1077   .text.Buttonpressed:000000000000003a .L0 
/var/folders/rt/4gvqv631095f64jvm7jfj_000000gn/T//cc80PrWX.s:1078   .text.Buttonpressed:000000000000003a .L0 
/var/folders/rt/4gvqv631095f64jvm7jfj_000000gn/T//cc80PrWX.s:1081   .text.Buttonpressed:0000000000000040 .L0 
/var/folders/rt/4gvqv631095f64jvm7jfj_000000gn/T//cc80PrWX.s:1082   .text.Buttonpressed:0000000000000040 .L0 
/var/folders/rt/4gvqv631095f64jvm7jfj_000000gn/T//cc80PrWX.s:1085   .text.Buttonpressed:0000000000000044 .L0 
GAS LISTING /var/folders/rt/4gvqv631095f64jvm7jfj_000000gn/T//cc80PrWX.s 			page 41


/var/folders/rt/4gvqv631095f64jvm7jfj_000000gn/T//cc80PrWX.s:1086   .text.Buttonpressed:0000000000000044 .L0 
/var/folders/rt/4gvqv631095f64jvm7jfj_000000gn/T//cc80PrWX.s:1088   .text.Buttonpressed:0000000000000046 .L0 
/var/folders/rt/4gvqv631095f64jvm7jfj_000000gn/T//cc80PrWX.s:1090   .text.Buttonpressed:0000000000000048 .L0 
/var/folders/rt/4gvqv631095f64jvm7jfj_000000gn/T//cc80PrWX.s:1091   .text.Buttonpressed:000000000000004a .L0 
/var/folders/rt/4gvqv631095f64jvm7jfj_000000gn/T//cc80PrWX.s:1092   .text.Buttonpressed:000000000000004a .L0 
/var/folders/rt/4gvqv631095f64jvm7jfj_000000gn/T//cc80PrWX.s:1095   .text.Buttonpressed:000000000000004a .L0 
/var/folders/rt/4gvqv631095f64jvm7jfj_000000gn/T//cc80PrWX.s:1098   .text.Buttonpressed:000000000000004e .L0 
/var/folders/rt/4gvqv631095f64jvm7jfj_000000gn/T//cc80PrWX.s:1099   .text.Buttonpressed:0000000000000050 .L0 
/var/folders/rt/4gvqv631095f64jvm7jfj_000000gn/T//cc80PrWX.s:1101   .text.Buttonpressed:0000000000000052 .L0 
/var/folders/rt/4gvqv631095f64jvm7jfj_000000gn/T//cc80PrWX.s:1105   .text.Buttonpressed:0000000000000054 .L0 
/var/folders/rt/4gvqv631095f64jvm7jfj_000000gn/T//cc80PrWX.s:1108   .text.Buttonpressed:0000000000000054 .L0 
/var/folders/rt/4gvqv631095f64jvm7jfj_000000gn/T//cc80PrWX.s:1112   .text.Buttonpressed:000000000000005c .L0 
/var/folders/rt/4gvqv631095f64jvm7jfj_000000gn/T//cc80PrWX.s:1114   .text.Buttonpressed:000000000000005c .L0 
/var/folders/rt/4gvqv631095f64jvm7jfj_000000gn/T//cc80PrWX.s:1115   .text.Buttonpressed:000000000000005e .L0 
/var/folders/rt/4gvqv631095f64jvm7jfj_000000gn/T//cc80PrWX.s:1117   .text.Buttonpressed:0000000000000060 .L0 
/var/folders/rt/4gvqv631095f64jvm7jfj_000000gn/T//cc80PrWX.s:1120   .text.Buttonpressed:0000000000000062 .L0 
/var/folders/rt/4gvqv631095f64jvm7jfj_000000gn/T//cc80PrWX.s:1124   .text.Buttonpressed:0000000000000064 .L0 
/var/folders/rt/4gvqv631095f64jvm7jfj_000000gn/T//cc80PrWX.s:1130   .text.Buttonpressed:0000000000000068 .L0 
/var/folders/rt/4gvqv631095f64jvm7jfj_000000gn/T//cc80PrWX.s:1137   .text.no_button_press:0000000000000000 no_button_press
/var/folders/rt/4gvqv631095f64jvm7jfj_000000gn/T//cc80PrWX.s:1140   .text.no_button_press:0000000000000000 .L0 
/var/folders/rt/4gvqv631095f64jvm7jfj_000000gn/T//cc80PrWX.s:1142   .text.no_button_press:0000000000000000 .L0 
/var/folders/rt/4gvqv631095f64jvm7jfj_000000gn/T//cc80PrWX.s:1143   .text.no_button_press:0000000000000000 .L0 
/var/folders/rt/4gvqv631095f64jvm7jfj_000000gn/T//cc80PrWX.s:1144   .text.no_button_press:0000000000000000 .L0 
/var/folders/rt/4gvqv631095f64jvm7jfj_000000gn/T//cc80PrWX.s:1146   .text.no_button_press:0000000000000002 .L0 
/var/folders/rt/4gvqv631095f64jvm7jfj_000000gn/T//cc80PrWX.s:1149   .text.no_button_press:000000000000000a .L0 
/var/folders/rt/4gvqv631095f64jvm7jfj_000000gn/T//cc80PrWX.s:1152   .text.no_button_press:000000000000000e .L0 
/var/folders/rt/4gvqv631095f64jvm7jfj_000000gn/T//cc80PrWX.s:1153   .text.no_button_press:000000000000000e .L0 
/var/folders/rt/4gvqv631095f64jvm7jfj_000000gn/T//cc80PrWX.s:1155   .text.no_button_press:0000000000000012 .L0 
/var/folders/rt/4gvqv631095f64jvm7jfj_000000gn/T//cc80PrWX.s:1157   .text.no_button_press:0000000000000014 .L0 
/var/folders/rt/4gvqv631095f64jvm7jfj_000000gn/T//cc80PrWX.s:1159   .text.no_button_press:0000000000000016 .L0 
/var/folders/rt/4gvqv631095f64jvm7jfj_000000gn/T//cc80PrWX.s:1162   .text.no_button_press:0000000000000018 .L0 
/var/folders/rt/4gvqv631095f64jvm7jfj_000000gn/T//cc80PrWX.s:1165   .text.no_button_press:000000000000001a .L0 
/var/folders/rt/4gvqv631095f64jvm7jfj_000000gn/T//cc80PrWX.s:1167   .text.no_button_press:000000000000001e .L0 
/var/folders/rt/4gvqv631095f64jvm7jfj_000000gn/T//cc80PrWX.s:1168   .text.no_button_press:000000000000001e .L0 
/var/folders/rt/4gvqv631095f64jvm7jfj_000000gn/T//cc80PrWX.s:1171   .text.no_button_press:0000000000000020 .L0 
/var/folders/rt/4gvqv631095f64jvm7jfj_000000gn/T//cc80PrWX.s:1174   .text.no_button_press:0000000000000028 .L0 
/var/folders/rt/4gvqv631095f64jvm7jfj_000000gn/T//cc80PrWX.s:1184   .text.no_button_press:0000000000000042 .L0 
/var/folders/rt/4gvqv631095f64jvm7jfj_000000gn/T//cc80PrWX.s:1185   .text.no_button_press:0000000000000042 .L0 
/var/folders/rt/4gvqv631095f64jvm7jfj_000000gn/T//cc80PrWX.s:1187   .text.no_button_press:0000000000000046 .L0 
/var/folders/rt/4gvqv631095f64jvm7jfj_000000gn/T//cc80PrWX.s:1188   .text.no_button_press:0000000000000046 .L0 
/var/folders/rt/4gvqv631095f64jvm7jfj_000000gn/T//cc80PrWX.s:1190   .text.no_button_press:000000000000004a .L0 
/var/folders/rt/4gvqv631095f64jvm7jfj_000000gn/T//cc80PrWX.s:1191   .text.no_button_press:000000000000004c .L0 
/var/folders/rt/4gvqv631095f64jvm7jfj_000000gn/T//cc80PrWX.s:1193   .text.no_button_press:000000000000004e .L0 
/var/folders/rt/4gvqv631095f64jvm7jfj_000000gn/T//cc80PrWX.s:1196   .text.no_button_press:0000000000000050 .L0 
/var/folders/rt/4gvqv631095f64jvm7jfj_000000gn/T//cc80PrWX.s:1200   .text.no_button_press:0000000000000052 .L0 
/var/folders/rt/4gvqv631095f64jvm7jfj_000000gn/T//cc80PrWX.s:1205   .text.no_button_press:0000000000000056 .L0 
/var/folders/rt/4gvqv631095f64jvm7jfj_000000gn/T//cc80PrWX.s:1313   .sdata2.CSWTCH.85:0000000000000000 CSWTCH.85
/var/folders/rt/4gvqv631095f64jvm7jfj_000000gn/T//cc80PrWX.s:1282   .sdata2.CSWTCH.83:0000000000000000 .LANCHOR0
/var/folders/rt/4gvqv631095f64jvm7jfj_000000gn/T//cc80PrWX.s:1285   .sdata2.CSWTCH.83:0000000000000000 CSWTCH.83
/var/folders/rt/4gvqv631095f64jvm7jfj_000000gn/T//cc80PrWX.s:1296   .sdata2.CSWTCH.84:0000000000000000 .LANCHOR1
/var/folders/rt/4gvqv631095f64jvm7jfj_000000gn/T//cc80PrWX.s:1299   .sdata2.CSWTCH.84:0000000000000000 CSWTCH.84
/var/folders/rt/4gvqv631095f64jvm7jfj_000000gn/T//cc80PrWX.s:1310   .sdata2.CSWTCH.85:0000000000000000 .LANCHOR2
/var/folders/rt/4gvqv631095f64jvm7jfj_000000gn/T//cc80PrWX.s:1324   .sdata2.CSWTCH.88:0000000000000000 .LANCHOR3
/var/folders/rt/4gvqv631095f64jvm7jfj_000000gn/T//cc80PrWX.s:1327   .sdata2.CSWTCH.88:0000000000000000 CSWTCH.88
/var/folders/rt/4gvqv631095f64jvm7jfj_000000gn/T//cc80PrWX.s:1338   .sdata2.CSWTCH.89:0000000000000000 .LANCHOR4
/var/folders/rt/4gvqv631095f64jvm7jfj_000000gn/T//cc80PrWX.s:1341   .sdata2.CSWTCH.89:0000000000000000 CSWTCH.89
/var/folders/rt/4gvqv631095f64jvm7jfj_000000gn/T//cc80PrWX.s:624    .text.pages:000000000000049e .L0 
GAS LISTING /var/folders/rt/4gvqv631095f64jvm7jfj_000000gn/T//cc80PrWX.s 			page 42


/var/folders/rt/4gvqv631095f64jvm7jfj_000000gn/T//cc80PrWX.s:742    .text.move_pointer:000000000000006e .L0 
/var/folders/rt/4gvqv631095f64jvm7jfj_000000gn/T//cc80PrWX.s:1024   .text.which_page:0000000000000122 .L0 
/var/folders/rt/4gvqv631095f64jvm7jfj_000000gn/T//cc80PrWX.s:1133   .text.Buttonpressed:0000000000000068 .L0 
/var/folders/rt/4gvqv631095f64jvm7jfj_000000gn/T//cc80PrWX.s:1210   .text.no_button_press:0000000000000056 .L0 
                     .debug_frame:0000000000000000 .L0 
/var/folders/rt/4gvqv631095f64jvm7jfj_000000gn/T//cc80PrWX.s:59     .rodata.pages:0000000000000000 .L4
/var/folders/rt/4gvqv631095f64jvm7jfj_000000gn/T//cc80PrWX.s:1212   .rodata.pages.str1.4:0000000000000000 .LC0
/var/folders/rt/4gvqv631095f64jvm7jfj_000000gn/T//cc80PrWX.s:1215   .rodata.pages.str1.4:0000000000000010 .LC1
/var/folders/rt/4gvqv631095f64jvm7jfj_000000gn/T//cc80PrWX.s:1218   .rodata.pages.str1.4:000000000000001c .LC2
/var/folders/rt/4gvqv631095f64jvm7jfj_000000gn/T//cc80PrWX.s:1221   .rodata.pages.str1.4:0000000000000030 .LC3
/var/folders/rt/4gvqv631095f64jvm7jfj_000000gn/T//cc80PrWX.s:1227   .rodata.pages.str1.4:0000000000000040 .LC5
/var/folders/rt/4gvqv631095f64jvm7jfj_000000gn/T//cc80PrWX.s:1224   .rodata.pages.str1.4:0000000000000038 .LC4
/var/folders/rt/4gvqv631095f64jvm7jfj_000000gn/T//cc80PrWX.s:1230   .rodata.pages.str1.4:0000000000000048 .LC6
/var/folders/rt/4gvqv631095f64jvm7jfj_000000gn/T//cc80PrWX.s:1233   .rodata.pages.str1.4:0000000000000058 .LC7
/var/folders/rt/4gvqv631095f64jvm7jfj_000000gn/T//cc80PrWX.s:1236   .rodata.pages.str1.4:0000000000000068 .LC8
/var/folders/rt/4gvqv631095f64jvm7jfj_000000gn/T//cc80PrWX.s:1239   .rodata.pages.str1.4:0000000000000074 .LC9
/var/folders/rt/4gvqv631095f64jvm7jfj_000000gn/T//cc80PrWX.s:1242   .rodata.pages.str1.4:0000000000000084 .LC10
/var/folders/rt/4gvqv631095f64jvm7jfj_000000gn/T//cc80PrWX.s:1244   .rodata.pages.str1.4:0000000000000094 .LC11
/var/folders/rt/4gvqv631095f64jvm7jfj_000000gn/T//cc80PrWX.s:1247   .rodata.pages.str1.4:000000000000009c .LC12
/var/folders/rt/4gvqv631095f64jvm7jfj_000000gn/T//cc80PrWX.s:1250   .rodata.pages.str1.4:00000000000000a8 .LC13
/var/folders/rt/4gvqv631095f64jvm7jfj_000000gn/T//cc80PrWX.s:1252   .rodata.pages.str1.4:00000000000000b4 .LC14
/var/folders/rt/4gvqv631095f64jvm7jfj_000000gn/T//cc80PrWX.s:1255   .rodata.pages.str1.4:00000000000000c0 .LC15
/var/folders/rt/4gvqv631095f64jvm7jfj_000000gn/T//cc80PrWX.s:1258   .rodata.pages.str1.4:00000000000000d0 .LC16
/var/folders/rt/4gvqv631095f64jvm7jfj_000000gn/T//cc80PrWX.s:1261   .rodata.pages.str1.4:00000000000000dc .LC17
/var/folders/rt/4gvqv631095f64jvm7jfj_000000gn/T//cc80PrWX.s:1263   .rodata.pages.str1.4:00000000000000fc .LC18
/var/folders/rt/4gvqv631095f64jvm7jfj_000000gn/T//cc80PrWX.s:1266   .rodata.pages.str1.4:0000000000000108 .LC19
/var/folders/rt/4gvqv631095f64jvm7jfj_000000gn/T//cc80PrWX.s:1269   .rodata.pages.str1.4:0000000000000110 .LC20
/var/folders/rt/4gvqv631095f64jvm7jfj_000000gn/T//cc80PrWX.s:1272   .rodata.pages.str1.4:0000000000000118 .LC21
/var/folders/rt/4gvqv631095f64jvm7jfj_000000gn/T//cc80PrWX.s:1275   .rodata.pages.str1.4:0000000000000124 .LC22
/var/folders/rt/4gvqv631095f64jvm7jfj_000000gn/T//cc80PrWX.s:1278   .rodata.pages.str1.4:0000000000000130 .LC23
/var/folders/rt/4gvqv631095f64jvm7jfj_000000gn/T//cc80PrWX.s:611    .text.pages:000000000000049c .L1
/var/folders/rt/4gvqv631095f64jvm7jfj_000000gn/T//cc80PrWX.s:558    .text.pages:000000000000042a .L25
/var/folders/rt/4gvqv631095f64jvm7jfj_000000gn/T//cc80PrWX.s:208    .text.pages:0000000000000114 .L19
/var/folders/rt/4gvqv631095f64jvm7jfj_000000gn/T//cc80PrWX.s:90     .text.pages:0000000000000042 .L23
/var/folders/rt/4gvqv631095f64jvm7jfj_000000gn/T//cc80PrWX.s:191    .text.pages:00000000000000fa .L18
/var/folders/rt/4gvqv631095f64jvm7jfj_000000gn/T//cc80PrWX.s:159    .text.pages:00000000000000c2 .L24
/var/folders/rt/4gvqv631095f64jvm7jfj_000000gn/T//cc80PrWX.s:257    .text.pages:0000000000000178 .L28
/var/folders/rt/4gvqv631095f64jvm7jfj_000000gn/T//cc80PrWX.s:270    .text.pages:0000000000000192 .L26
/var/folders/rt/4gvqv631095f64jvm7jfj_000000gn/T//cc80PrWX.s:155    .text.pages:00000000000000be .L29
/var/folders/rt/4gvqv631095f64jvm7jfj_000000gn/T//cc80PrWX.s:385    .text.pages:000000000000029a .L30
/var/folders/rt/4gvqv631095f64jvm7jfj_000000gn/T//cc80PrWX.s:200    .text.pages:0000000000000104 .L27
/var/folders/rt/4gvqv631095f64jvm7jfj_000000gn/T//cc80PrWX.s:76     .text.pages:0000000000000026 .L17
/var/folders/rt/4gvqv631095f64jvm7jfj_000000gn/T//cc80PrWX.s:112    .text.pages:0000000000000058 .L16
/var/folders/rt/4gvqv631095f64jvm7jfj_000000gn/T//cc80PrWX.s:166    .text.pages:00000000000000ce .L15
/var/folders/rt/4gvqv631095f64jvm7jfj_000000gn/T//cc80PrWX.s:235    .text.pages:0000000000000146 .L14
/var/folders/rt/4gvqv631095f64jvm7jfj_000000gn/T//cc80PrWX.s:449    .text.pages:0000000000000324 .L13
/var/folders/rt/4gvqv631095f64jvm7jfj_000000gn/T//cc80PrWX.s:565    .text.pages:0000000000000432 .L12
/var/folders/rt/4gvqv631095f64jvm7jfj_000000gn/T//cc80PrWX.s:275    .text.pages:0000000000000196 .L11
/var/folders/rt/4gvqv631095f64jvm7jfj_000000gn/T//cc80PrWX.s:298    .text.pages:00000000000001ca .L10
/var/folders/rt/4gvqv631095f64jvm7jfj_000000gn/T//cc80PrWX.s:331    .text.pages:0000000000000218 .L9
/var/folders/rt/4gvqv631095f64jvm7jfj_000000gn/T//cc80PrWX.s:374    .text.pages:0000000000000280 .L8
/var/folders/rt/4gvqv631095f64jvm7jfj_000000gn/T//cc80PrWX.s:390    .text.pages:000000000000029e .L7
/var/folders/rt/4gvqv631095f64jvm7jfj_000000gn/T//cc80PrWX.s:403    .text.pages:00000000000002ba .L6
/var/folders/rt/4gvqv631095f64jvm7jfj_000000gn/T//cc80PrWX.s:426    .text.pages:00000000000002f0 .L5
/var/folders/rt/4gvqv631095f64jvm7jfj_000000gn/T//cc80PrWX.s:578    .text.pages:000000000000044e .L3
/var/folders/rt/4gvqv631095f64jvm7jfj_000000gn/T//cc80PrWX.s:733    .text.move_pointer:000000000000006c .L39
/var/folders/rt/4gvqv631095f64jvm7jfj_000000gn/T//cc80PrWX.s:662    .text.move_pointer:000000000000001e .L33
GAS LISTING /var/folders/rt/4gvqv631095f64jvm7jfj_000000gn/T//cc80PrWX.s 			page 43


/var/folders/rt/4gvqv631095f64jvm7jfj_000000gn/T//cc80PrWX.s:712    .text.move_pointer:0000000000000052 .L34
/var/folders/rt/4gvqv631095f64jvm7jfj_000000gn/T//cc80PrWX.s:684    .text.move_pointer:0000000000000036 .L42
/var/folders/rt/4gvqv631095f64jvm7jfj_000000gn/T//cc80PrWX.s:820    .rodata.which_page:0000000000000000 .L50
/var/folders/rt/4gvqv631095f64jvm7jfj_000000gn/T//cc80PrWX.s:992    .rodata.which_page:0000000000000038 .L61
/var/folders/rt/4gvqv631095f64jvm7jfj_000000gn/T//cc80PrWX.s:837    .text.which_page:000000000000005e .L63
/var/folders/rt/4gvqv631095f64jvm7jfj_000000gn/T//cc80PrWX.s:788    .text.which_page:000000000000002e .L44
/var/folders/rt/4gvqv631095f64jvm7jfj_000000gn/T//cc80PrWX.s:795    .text.which_page:0000000000000036 .L45
/var/folders/rt/4gvqv631095f64jvm7jfj_000000gn/T//cc80PrWX.s:801    .text.which_page:000000000000003e .L46
/var/folders/rt/4gvqv631095f64jvm7jfj_000000gn/T//cc80PrWX.s:978    .text.which_page:0000000000000104 .L47
/var/folders/rt/4gvqv631095f64jvm7jfj_000000gn/T//cc80PrWX.s:974    .text.which_page:0000000000000102 .L68
/var/folders/rt/4gvqv631095f64jvm7jfj_000000gn/T//cc80PrWX.s:1009   .text.which_page:000000000000011a .L69
/var/folders/rt/4gvqv631095f64jvm7jfj_000000gn/T//cc80PrWX.s:963    .text.which_page:00000000000000fc .L48
/var/folders/rt/4gvqv631095f64jvm7jfj_000000gn/T//cc80PrWX.s:1018   .text.which_page:0000000000000120 .L43
/var/folders/rt/4gvqv631095f64jvm7jfj_000000gn/T//cc80PrWX.s:860    .text.which_page:0000000000000078 .L86
/var/folders/rt/4gvqv631095f64jvm7jfj_000000gn/T//cc80PrWX.s:1015   .text.which_page:000000000000011e .L62
/var/folders/rt/4gvqv631095f64jvm7jfj_000000gn/T//cc80PrWX.s:848    .text.which_page:0000000000000066 .L70
/var/folders/rt/4gvqv631095f64jvm7jfj_000000gn/T//cc80PrWX.s:865    .text.which_page:0000000000000080 .L71
/var/folders/rt/4gvqv631095f64jvm7jfj_000000gn/T//cc80PrWX.s:880    .text.which_page:0000000000000094 .L72
/var/folders/rt/4gvqv631095f64jvm7jfj_000000gn/T//cc80PrWX.s:842    .text.which_page:0000000000000062 .L56
/var/folders/rt/4gvqv631095f64jvm7jfj_000000gn/T//cc80PrWX.s:895    .text.which_page:00000000000000a8 .L73
/var/folders/rt/4gvqv631095f64jvm7jfj_000000gn/T//cc80PrWX.s:910    .text.which_page:00000000000000bc .L74
/var/folders/rt/4gvqv631095f64jvm7jfj_000000gn/T//cc80PrWX.s:925    .text.which_page:00000000000000d0 .L75
/var/folders/rt/4gvqv631095f64jvm7jfj_000000gn/T//cc80PrWX.s:940    .text.which_page:00000000000000e4 .L76
/var/folders/rt/4gvqv631095f64jvm7jfj_000000gn/T//cc80PrWX.s:969    .text.which_page:00000000000000fe .L85
/var/folders/rt/4gvqv631095f64jvm7jfj_000000gn/T//cc80PrWX.s:955    .text.which_page:00000000000000f8 .L49
/var/folders/rt/4gvqv631095f64jvm7jfj_000000gn/T//cc80PrWX.s:852    .text.which_page:0000000000000068 .L59
/var/folders/rt/4gvqv631095f64jvm7jfj_000000gn/T//cc80PrWX.s:869    .text.which_page:0000000000000082 .L58
/var/folders/rt/4gvqv631095f64jvm7jfj_000000gn/T//cc80PrWX.s:884    .text.which_page:0000000000000096 .L57
/var/folders/rt/4gvqv631095f64jvm7jfj_000000gn/T//cc80PrWX.s:899    .text.which_page:00000000000000aa .L55
/var/folders/rt/4gvqv631095f64jvm7jfj_000000gn/T//cc80PrWX.s:914    .text.which_page:00000000000000be .L54
/var/folders/rt/4gvqv631095f64jvm7jfj_000000gn/T//cc80PrWX.s:929    .text.which_page:00000000000000d2 .L53
/var/folders/rt/4gvqv631095f64jvm7jfj_000000gn/T//cc80PrWX.s:944    .text.which_page:00000000000000e6 .L52
/var/folders/rt/4gvqv631095f64jvm7jfj_000000gn/T//cc80PrWX.s:1050   .text.Buttonpressed:000000000000001e .L88
/var/folders/rt/4gvqv631095f64jvm7jfj_000000gn/T//cc80PrWX.s:1042   .text.Buttonpressed:0000000000000012 .L89
/var/folders/rt/4gvqv631095f64jvm7jfj_000000gn/T//cc80PrWX.s:1128   .text.Buttonpressed:0000000000000066 .L92
/var/folders/rt/4gvqv631095f64jvm7jfj_000000gn/T//cc80PrWX.s:1110   .text.Buttonpressed:000000000000005c .L87
/var/folders/rt/4gvqv631095f64jvm7jfj_000000gn/T//cc80PrWX.s:1203   .text.no_button_press:0000000000000054 .L97
/var/folders/rt/4gvqv631095f64jvm7jfj_000000gn/T//cc80PrWX.s:4721   .debug_abbrev:0000000000000000 .Ldebug_abbrev0
/var/folders/rt/4gvqv631095f64jvm7jfj_000000gn/T//cc80PrWX.s:7464   .debug_str:000000000000068f .LASF202
/var/folders/rt/4gvqv631095f64jvm7jfj_000000gn/T//cc80PrWX.s:7170   .debug_str:00000000000000f3 .LASF203
/var/folders/rt/4gvqv631095f64jvm7jfj_000000gn/T//cc80PrWX.s:7468   .debug_str:000000000000071e .LASF204
/var/folders/rt/4gvqv631095f64jvm7jfj_000000gn/T//cc80PrWX.s:7102   .debug_ranges:0000000000000000 .Ldebug_ranges0
/var/folders/rt/4gvqv631095f64jvm7jfj_000000gn/T//cc80PrWX.s:7122   .debug_line:0000000000000000 .Ldebug_line0
/var/folders/rt/4gvqv631095f64jvm7jfj_000000gn/T//cc80PrWX.s:7182   .debug_str:0000000000000129 .LASF0
/var/folders/rt/4gvqv631095f64jvm7jfj_000000gn/T//cc80PrWX.s:7364   .debug_str:00000000000004b2 .LASF1
/var/folders/rt/4gvqv631095f64jvm7jfj_000000gn/T//cc80PrWX.s:7452   .debug_str:000000000000065a .LASF2
/var/folders/rt/4gvqv631095f64jvm7jfj_000000gn/T//cc80PrWX.s:7472   .debug_str:000000000000076d .LASF3
/var/folders/rt/4gvqv631095f64jvm7jfj_000000gn/T//cc80PrWX.s:7152   .debug_str:0000000000000078 .LASF4
/var/folders/rt/4gvqv631095f64jvm7jfj_000000gn/T//cc80PrWX.s:7234   .debug_str:0000000000000231 .LASF10
/var/folders/rt/4gvqv631095f64jvm7jfj_000000gn/T//cc80PrWX.s:7262   .debug_str:00000000000002b4 .LASF5
/var/folders/rt/4gvqv631095f64jvm7jfj_000000gn/T//cc80PrWX.s:7280   .debug_str:000000000000030c .LASF6
/var/folders/rt/4gvqv631095f64jvm7jfj_000000gn/T//cc80PrWX.s:7158   .debug_str:00000000000000a1 .LASF7
/var/folders/rt/4gvqv631095f64jvm7jfj_000000gn/T//cc80PrWX.s:7370   .debug_str:00000000000004cb .LASF8
/var/folders/rt/4gvqv631095f64jvm7jfj_000000gn/T//cc80PrWX.s:7436   .debug_str:0000000000000619 .LASF9
/var/folders/rt/4gvqv631095f64jvm7jfj_000000gn/T//cc80PrWX.s:7348   .debug_str:0000000000000465 .LASF11
/var/folders/rt/4gvqv631095f64jvm7jfj_000000gn/T//cc80PrWX.s:7178   .debug_str:000000000000011b .LASF12
/var/folders/rt/4gvqv631095f64jvm7jfj_000000gn/T//cc80PrWX.s:7432   .debug_str:0000000000000608 .LASF13
GAS LISTING /var/folders/rt/4gvqv631095f64jvm7jfj_000000gn/T//cc80PrWX.s 			page 44


/var/folders/rt/4gvqv631095f64jvm7jfj_000000gn/T//cc80PrWX.s:7500   .debug_str:000000000000080a .LASF14
/var/folders/rt/4gvqv631095f64jvm7jfj_000000gn/T//cc80PrWX.s:7292   .debug_str:0000000000000348 .LASF15
/var/folders/rt/4gvqv631095f64jvm7jfj_000000gn/T//cc80PrWX.s:7254   .debug_str:000000000000028d .LASF16
/var/folders/rt/4gvqv631095f64jvm7jfj_000000gn/T//cc80PrWX.s:7422   .debug_str:00000000000005d8 .LASF17
/var/folders/rt/4gvqv631095f64jvm7jfj_000000gn/T//cc80PrWX.s:7424   .debug_str:00000000000005e0 .LASF18
/var/folders/rt/4gvqv631095f64jvm7jfj_000000gn/T//cc80PrWX.s:7354   .debug_str:000000000000047c .LASF19
/var/folders/rt/4gvqv631095f64jvm7jfj_000000gn/T//cc80PrWX.s:7480   .debug_str:0000000000000797 .LASF20
/var/folders/rt/4gvqv631095f64jvm7jfj_000000gn/T//cc80PrWX.s:7358   .debug_str:000000000000048d .LASF21
/var/folders/rt/4gvqv631095f64jvm7jfj_000000gn/T//cc80PrWX.s:7374   .debug_str:00000000000004e1 .LASF22
/var/folders/rt/4gvqv631095f64jvm7jfj_000000gn/T//cc80PrWX.s:7242   .debug_str:0000000000000256 .LASF27
/var/folders/rt/4gvqv631095f64jvm7jfj_000000gn/T//cc80PrWX.s:7458   .debug_str:0000000000000679 .LASF23
/var/folders/rt/4gvqv631095f64jvm7jfj_000000gn/T//cc80PrWX.s:7412   .debug_str:00000000000005b2 .LASF24
/var/folders/rt/4gvqv631095f64jvm7jfj_000000gn/T//cc80PrWX.s:7236   .debug_str:000000000000023c .LASF25
/var/folders/rt/4gvqv631095f64jvm7jfj_000000gn/T//cc80PrWX.s:7330   .debug_str:0000000000000402 .LASF26
/var/folders/rt/4gvqv631095f64jvm7jfj_000000gn/T//cc80PrWX.s:7250   .debug_str:000000000000027d .LASF28
/var/folders/rt/4gvqv631095f64jvm7jfj_000000gn/T//cc80PrWX.s:7176   .debug_str:0000000000000112 .LASF29
/var/folders/rt/4gvqv631095f64jvm7jfj_000000gn/T//cc80PrWX.s:7520   .debug_str:0000000000000870 .LASF30
/var/folders/rt/4gvqv631095f64jvm7jfj_000000gn/T//cc80PrWX.s:7194   .debug_str:0000000000000166 .LASF31
/var/folders/rt/4gvqv631095f64jvm7jfj_000000gn/T//cc80PrWX.s:7536   .debug_str:00000000000008b5 .LASF32
/var/folders/rt/4gvqv631095f64jvm7jfj_000000gn/T//cc80PrWX.s:7334   .debug_str:0000000000000420 .LASF33
/var/folders/rt/4gvqv631095f64jvm7jfj_000000gn/T//cc80PrWX.s:7438   .debug_str:0000000000000625 .LASF34
/var/folders/rt/4gvqv631095f64jvm7jfj_000000gn/T//cc80PrWX.s:7430   .debug_str:00000000000005fe .LASF35
/var/folders/rt/4gvqv631095f64jvm7jfj_000000gn/T//cc80PrWX.s:7376   .debug_str:00000000000004ea .LASF36
/var/folders/rt/4gvqv631095f64jvm7jfj_000000gn/T//cc80PrWX.s:7516   .debug_str:0000000000000856 .LASF37
/var/folders/rt/4gvqv631095f64jvm7jfj_000000gn/T//cc80PrWX.s:7198   .debug_str:0000000000000175 .LASF38
/var/folders/rt/4gvqv631095f64jvm7jfj_000000gn/T//cc80PrWX.s:7134   .debug_str:000000000000002a .LASF39
/var/folders/rt/4gvqv631095f64jvm7jfj_000000gn/T//cc80PrWX.s:7124   .debug_str:0000000000000000 .LASF40
/var/folders/rt/4gvqv631095f64jvm7jfj_000000gn/T//cc80PrWX.s:7434   .debug_str:0000000000000610 .LASF41
/var/folders/rt/4gvqv631095f64jvm7jfj_000000gn/T//cc80PrWX.s:7212   .debug_str:00000000000001bd .LASF42
/var/folders/rt/4gvqv631095f64jvm7jfj_000000gn/T//cc80PrWX.s:7338   .debug_str:0000000000000430 .LASF43
/var/folders/rt/4gvqv631095f64jvm7jfj_000000gn/T//cc80PrWX.s:7398   .debug_str:000000000000055a .LASF44
/var/folders/rt/4gvqv631095f64jvm7jfj_000000gn/T//cc80PrWX.s:7232   .debug_str:000000000000022c .LASF45
/var/folders/rt/4gvqv631095f64jvm7jfj_000000gn/T//cc80PrWX.s:7380   .debug_str:0000000000000504 .LASF46
/var/folders/rt/4gvqv631095f64jvm7jfj_000000gn/T//cc80PrWX.s:7192   .debug_str:0000000000000160 .LASF47
/var/folders/rt/4gvqv631095f64jvm7jfj_000000gn/T//cc80PrWX.s:7446   .debug_str:0000000000000644 .LASF48
/var/folders/rt/4gvqv631095f64jvm7jfj_000000gn/T//cc80PrWX.s:7386   .debug_str:000000000000051a .LASF49
/var/folders/rt/4gvqv631095f64jvm7jfj_000000gn/T//cc80PrWX.s:7210   .debug_str:00000000000001b6 .LASF50
/var/folders/rt/4gvqv631095f64jvm7jfj_000000gn/T//cc80PrWX.s:7264   .debug_str:00000000000002c6 .LASF51
/var/folders/rt/4gvqv631095f64jvm7jfj_000000gn/T//cc80PrWX.s:7530   .debug_str:0000000000000899 .LASF52
/var/folders/rt/4gvqv631095f64jvm7jfj_000000gn/T//cc80PrWX.s:7200   .debug_str:0000000000000183 .LASF53
/var/folders/rt/4gvqv631095f64jvm7jfj_000000gn/T//cc80PrWX.s:7244   .debug_str:000000000000025e .LASF54
/var/folders/rt/4gvqv631095f64jvm7jfj_000000gn/T//cc80PrWX.s:7308   .debug_str:0000000000000393 .LASF55
/var/folders/rt/4gvqv631095f64jvm7jfj_000000gn/T//cc80PrWX.s:7426   .debug_str:00000000000005e8 .LASF56
/var/folders/rt/4gvqv631095f64jvm7jfj_000000gn/T//cc80PrWX.s:7180   .debug_str:0000000000000122 .LASF57
/var/folders/rt/4gvqv631095f64jvm7jfj_000000gn/T//cc80PrWX.s:7188   .debug_str:000000000000014d .LASF58
/var/folders/rt/4gvqv631095f64jvm7jfj_000000gn/T//cc80PrWX.s:7512   .debug_str:0000000000000848 .LASF59
/var/folders/rt/4gvqv631095f64jvm7jfj_000000gn/T//cc80PrWX.s:7444   .debug_str:000000000000063b .LASF60
/var/folders/rt/4gvqv631095f64jvm7jfj_000000gn/T//cc80PrWX.s:7138   .debug_str:000000000000003a .LASF61
/var/folders/rt/4gvqv631095f64jvm7jfj_000000gn/T//cc80PrWX.s:7272   .debug_str:00000000000002eb .LASF62
/var/folders/rt/4gvqv631095f64jvm7jfj_000000gn/T//cc80PrWX.s:7300   .debug_str:0000000000000365 .LASF63
/var/folders/rt/4gvqv631095f64jvm7jfj_000000gn/T//cc80PrWX.s:7388   .debug_str:0000000000000522 .LASF64
/var/folders/rt/4gvqv631095f64jvm7jfj_000000gn/T//cc80PrWX.s:7382   .debug_str:000000000000050b .LASF65
/var/folders/rt/4gvqv631095f64jvm7jfj_000000gn/T//cc80PrWX.s:7414   .debug_str:00000000000005ba .LASF66
/var/folders/rt/4gvqv631095f64jvm7jfj_000000gn/T//cc80PrWX.s:7440   .debug_str:000000000000062f .LASF67
/var/folders/rt/4gvqv631095f64jvm7jfj_000000gn/T//cc80PrWX.s:7214   .debug_str:00000000000001c5 .LASF68
/var/folders/rt/4gvqv631095f64jvm7jfj_000000gn/T//cc80PrWX.s:7258   .debug_str:00000000000002a4 .LASF69
/var/folders/rt/4gvqv631095f64jvm7jfj_000000gn/T//cc80PrWX.s:7240   .debug_str:000000000000024e .LASF70
GAS LISTING /var/folders/rt/4gvqv631095f64jvm7jfj_000000gn/T//cc80PrWX.s 			page 45


/var/folders/rt/4gvqv631095f64jvm7jfj_000000gn/T//cc80PrWX.s:7396   .debug_str:0000000000000555 .LASF71
/var/folders/rt/4gvqv631095f64jvm7jfj_000000gn/T//cc80PrWX.s:7140   .debug_str:0000000000000042 .LASF72
/var/folders/rt/4gvqv631095f64jvm7jfj_000000gn/T//cc80PrWX.s:7408   .debug_str:0000000000000585 .LASF73
/var/folders/rt/4gvqv631095f64jvm7jfj_000000gn/T//cc80PrWX.s:7528   .debug_str:0000000000000891 .LASF74
/var/folders/rt/4gvqv631095f64jvm7jfj_000000gn/T//cc80PrWX.s:7342   .debug_str:0000000000000442 .LASF75
/var/folders/rt/4gvqv631095f64jvm7jfj_000000gn/T//cc80PrWX.s:7406   .debug_str:000000000000057b .LASF76
/var/folders/rt/4gvqv631095f64jvm7jfj_000000gn/T//cc80PrWX.s:7290   .debug_str:0000000000000340 .LASF77
/var/folders/rt/4gvqv631095f64jvm7jfj_000000gn/T//cc80PrWX.s:7246   .debug_str:0000000000000264 .LASF78
/var/folders/rt/4gvqv631095f64jvm7jfj_000000gn/T//cc80PrWX.s:7526   .debug_str:000000000000088c .LASF79
/var/folders/rt/4gvqv631095f64jvm7jfj_000000gn/T//cc80PrWX.s:7352   .debug_str:0000000000000472 .LASF80
/var/folders/rt/4gvqv631095f64jvm7jfj_000000gn/T//cc80PrWX.s:7260   .debug_str:00000000000002ac .LASF81
/var/folders/rt/4gvqv631095f64jvm7jfj_000000gn/T//cc80PrWX.s:7220   .debug_str:00000000000001e1 .LASF82
/var/folders/rt/4gvqv631095f64jvm7jfj_000000gn/T//cc80PrWX.s:7298   .debug_str:0000000000000360 .LASF83
/var/folders/rt/4gvqv631095f64jvm7jfj_000000gn/T//cc80PrWX.s:7150   .debug_str:000000000000006f .LASF84
/var/folders/rt/4gvqv631095f64jvm7jfj_000000gn/T//cc80PrWX.s:7506   .debug_str:0000000000000828 .LASF85
/var/folders/rt/4gvqv631095f64jvm7jfj_000000gn/T//cc80PrWX.s:7202   .debug_str:000000000000018b .LASF86
/var/folders/rt/4gvqv631095f64jvm7jfj_000000gn/T//cc80PrWX.s:7196   .debug_str:0000000000000170 .LASF87
/var/folders/rt/4gvqv631095f64jvm7jfj_000000gn/T//cc80PrWX.s:7442   .debug_str:0000000000000636 .LASF88
/var/folders/rt/4gvqv631095f64jvm7jfj_000000gn/T//cc80PrWX.s:7384   .debug_str:0000000000000513 .LASF89
/var/folders/rt/4gvqv631095f64jvm7jfj_000000gn/T//cc80PrWX.s:7498   .debug_str:0000000000000804 .LASF90
/var/folders/rt/4gvqv631095f64jvm7jfj_000000gn/T//cc80PrWX.s:7274   .debug_str:00000000000002f1 .LASF91
/var/folders/rt/4gvqv631095f64jvm7jfj_000000gn/T//cc80PrWX.s:7366   .debug_str:00000000000004c0 .LASF92
/var/folders/rt/4gvqv631095f64jvm7jfj_000000gn/T//cc80PrWX.s:7136   .debug_str:0000000000000032 .LASF93
/var/folders/rt/4gvqv631095f64jvm7jfj_000000gn/T//cc80PrWX.s:7418   .debug_str:00000000000005ca .LASF94
/var/folders/rt/4gvqv631095f64jvm7jfj_000000gn/T//cc80PrWX.s:7302   .debug_str:000000000000036b .LASF95
/var/folders/rt/4gvqv631095f64jvm7jfj_000000gn/T//cc80PrWX.s:7476   .debug_str:0000000000000788 .LASF96
/var/folders/rt/4gvqv631095f64jvm7jfj_000000gn/T//cc80PrWX.s:7492   .debug_str:00000000000007e4 .LASF97
/var/folders/rt/4gvqv631095f64jvm7jfj_000000gn/T//cc80PrWX.s:7228   .debug_str:0000000000000211 .LASF98
/var/folders/rt/4gvqv631095f64jvm7jfj_000000gn/T//cc80PrWX.s:7286   .debug_str:000000000000032b .LASF99
/var/folders/rt/4gvqv631095f64jvm7jfj_000000gn/T//cc80PrWX.s:7518   .debug_str:0000000000000861 .LASF100
/var/folders/rt/4gvqv631095f64jvm7jfj_000000gn/T//cc80PrWX.s:7344   .debug_str:000000000000044d .LASF101
/var/folders/rt/4gvqv631095f64jvm7jfj_000000gn/T//cc80PrWX.s:7278   .debug_str:0000000000000301 .LASF102
/var/folders/rt/4gvqv631095f64jvm7jfj_000000gn/T//cc80PrWX.s:7522   .debug_str:0000000000000879 .LASF103
/var/folders/rt/4gvqv631095f64jvm7jfj_000000gn/T//cc80PrWX.s:7394   .debug_str:0000000000000548 .LASF104
/var/folders/rt/4gvqv631095f64jvm7jfj_000000gn/T//cc80PrWX.s:7524   .debug_str:000000000000087e .LASF105
/var/folders/rt/4gvqv631095f64jvm7jfj_000000gn/T//cc80PrWX.s:7174   .debug_str:0000000000000104 .LASF106
/var/folders/rt/4gvqv631095f64jvm7jfj_000000gn/T//cc80PrWX.s:7502   .debug_str:0000000000000813 .LASF107
/var/folders/rt/4gvqv631095f64jvm7jfj_000000gn/T//cc80PrWX.s:7284   .debug_str:000000000000031f .LASF108
/var/folders/rt/4gvqv631095f64jvm7jfj_000000gn/T//cc80PrWX.s:7482   .debug_str:000000000000079f .LASF109
/var/folders/rt/4gvqv631095f64jvm7jfj_000000gn/T//cc80PrWX.s:7230   .debug_str:000000000000021e .LASF110
/var/folders/rt/4gvqv631095f64jvm7jfj_000000gn/T//cc80PrWX.s:7484   .debug_str:00000000000007ac .LASF111
/var/folders/rt/4gvqv631095f64jvm7jfj_000000gn/T//cc80PrWX.s:7226   .debug_str:0000000000000200 .LASF112
/var/folders/rt/4gvqv631095f64jvm7jfj_000000gn/T//cc80PrWX.s:7154   .debug_str:0000000000000081 .LASF113
/var/folders/rt/4gvqv631095f64jvm7jfj_000000gn/T//cc80PrWX.s:7156   .debug_str:0000000000000090 .LASF114
/var/folders/rt/4gvqv631095f64jvm7jfj_000000gn/T//cc80PrWX.s:7372   .debug_str:00000000000004d8 .LASF115
/var/folders/rt/4gvqv631095f64jvm7jfj_000000gn/T//cc80PrWX.s:7294   .debug_str:000000000000034e .LASF116
/var/folders/rt/4gvqv631095f64jvm7jfj_000000gn/T//cc80PrWX.s:7316   .debug_str:00000000000003ad .LASF117
/var/folders/rt/4gvqv631095f64jvm7jfj_000000gn/T//cc80PrWX.s:7514   .debug_str:000000000000084e .LASF118
/var/folders/rt/4gvqv631095f64jvm7jfj_000000gn/T//cc80PrWX.s:7162   .debug_str:00000000000000c0 .LASF205
/var/folders/rt/4gvqv631095f64jvm7jfj_000000gn/T//cc80PrWX.s:7238   .debug_str:0000000000000242 .LASF119
/var/folders/rt/4gvqv631095f64jvm7jfj_000000gn/T//cc80PrWX.s:7488   .debug_str:00000000000007c8 .LASF120
/var/folders/rt/4gvqv631095f64jvm7jfj_000000gn/T//cc80PrWX.s:7490   .debug_str:00000000000007db .LASF121
/var/folders/rt/4gvqv631095f64jvm7jfj_000000gn/T//cc80PrWX.s:7312   .debug_str:00000000000003a0 .LASF122
/var/folders/rt/4gvqv631095f64jvm7jfj_000000gn/T//cc80PrWX.s:7362   .debug_str:00000000000004a9 .LASF123
/var/folders/rt/4gvqv631095f64jvm7jfj_000000gn/T//cc80PrWX.s:7288   .debug_str:0000000000000338 .LASF124
/var/folders/rt/4gvqv631095f64jvm7jfj_000000gn/T//cc80PrWX.s:7128   .debug_str:0000000000000015 .LASF125
/var/folders/rt/4gvqv631095f64jvm7jfj_000000gn/T//cc80PrWX.s:7416   .debug_str:00000000000005c1 .LASF126
GAS LISTING /var/folders/rt/4gvqv631095f64jvm7jfj_000000gn/T//cc80PrWX.s 			page 46


/var/folders/rt/4gvqv631095f64jvm7jfj_000000gn/T//cc80PrWX.s:7186   .debug_str:0000000000000141 .LASF127
/var/folders/rt/4gvqv631095f64jvm7jfj_000000gn/T//cc80PrWX.s:7130   .debug_str:000000000000001c .LASF128
/var/folders/rt/4gvqv631095f64jvm7jfj_000000gn/T//cc80PrWX.s:7132   .debug_str:0000000000000023 .LASF129
/var/folders/rt/4gvqv631095f64jvm7jfj_000000gn/T//cc80PrWX.s:7454   .debug_str:0000000000000664 .LASF130
/var/folders/rt/4gvqv631095f64jvm7jfj_000000gn/T//cc80PrWX.s:7248   .debug_str:000000000000026e .LASF131
/var/folders/rt/4gvqv631095f64jvm7jfj_000000gn/T//cc80PrWX.s:7466   .debug_str:0000000000000717 .LASF132
/var/folders/rt/4gvqv631095f64jvm7jfj_000000gn/T//cc80PrWX.s:7222   .debug_str:00000000000001e9 .LASF133
/var/folders/rt/4gvqv631095f64jvm7jfj_000000gn/T//cc80PrWX.s:7218   .debug_str:00000000000001d6 .LASF134
/var/folders/rt/4gvqv631095f64jvm7jfj_000000gn/T//cc80PrWX.s:7428   .debug_str:00000000000005ee .LASF135
/var/folders/rt/4gvqv631095f64jvm7jfj_000000gn/T//cc80PrWX.s:7402   .debug_str:0000000000000569 .LASF136
/var/folders/rt/4gvqv631095f64jvm7jfj_000000gn/T//cc80PrWX.s:7508   .debug_str:0000000000000832 .LASF137
/var/folders/rt/4gvqv631095f64jvm7jfj_000000gn/T//cc80PrWX.s:7216   .debug_str:00000000000001cc .LASF138
/var/folders/rt/4gvqv631095f64jvm7jfj_000000gn/T//cc80PrWX.s:7340   .debug_str:0000000000000438 .LASF139
/var/folders/rt/4gvqv631095f64jvm7jfj_000000gn/T//cc80PrWX.s:7256   .debug_str:0000000000000294 .LASF140
/var/folders/rt/4gvqv631095f64jvm7jfj_000000gn/T//cc80PrWX.s:7310   .debug_str:000000000000039a .LASF141
/var/folders/rt/4gvqv631095f64jvm7jfj_000000gn/T//cc80PrWX.s:7296   .debug_str:0000000000000355 .LASF142
/var/folders/rt/4gvqv631095f64jvm7jfj_000000gn/T//cc80PrWX.s:7400   .debug_str:000000000000055f .LASF143
/var/folders/rt/4gvqv631095f64jvm7jfj_000000gn/T//cc80PrWX.s:7160   .debug_str:00000000000000b8 .LASF144
/var/folders/rt/4gvqv631095f64jvm7jfj_000000gn/T//cc80PrWX.s:7392   .debug_str:000000000000053a .LASF145
/var/folders/rt/4gvqv631095f64jvm7jfj_000000gn/T//cc80PrWX.s:7270   .debug_str:00000000000002e6 .LASF146
/var/folders/rt/4gvqv631095f64jvm7jfj_000000gn/T//cc80PrWX.s:7224   .debug_str:00000000000001f2 .LASF147
/var/folders/rt/4gvqv631095f64jvm7jfj_000000gn/T//cc80PrWX.s:7126   .debug_str:000000000000000c .LASF148
/var/folders/rt/4gvqv631095f64jvm7jfj_000000gn/T//cc80PrWX.s:7204   .debug_str:0000000000000193 .LASF149
/var/folders/rt/4gvqv631095f64jvm7jfj_000000gn/T//cc80PrWX.s:7332   .debug_str:0000000000000407 .LASF150
/var/folders/rt/4gvqv631095f64jvm7jfj_000000gn/T//cc80PrWX.s:7208   .debug_str:00000000000001a2 .LASF151
/var/folders/rt/4gvqv631095f64jvm7jfj_000000gn/T//cc80PrWX.s:7268   .debug_str:00000000000002d1 .LASF152
/var/folders/rt/4gvqv631095f64jvm7jfj_000000gn/T//cc80PrWX.s:7486   .debug_str:00000000000007bb .LASF153
/var/folders/rt/4gvqv631095f64jvm7jfj_000000gn/T//cc80PrWX.s:7146   .debug_str:000000000000005e .LASF154
/var/folders/rt/4gvqv631095f64jvm7jfj_000000gn/T//cc80PrWX.s:7184   .debug_str:0000000000000135 .LASF155
/var/folders/rt/4gvqv631095f64jvm7jfj_000000gn/T//cc80PrWX.s:7304   .debug_str:0000000000000371 .LASF156
/var/folders/rt/4gvqv631095f64jvm7jfj_000000gn/T//cc80PrWX.s:7168   .debug_str:00000000000000e0 .LASF157
/var/folders/rt/4gvqv631095f64jvm7jfj_000000gn/T//cc80PrWX.s:7410   .debug_str:000000000000059e .LASF158
/var/folders/rt/4gvqv631095f64jvm7jfj_000000gn/T//cc80PrWX.s:7534   .debug_str:00000000000008a7 .LASF159
/var/folders/rt/4gvqv631095f64jvm7jfj_000000gn/T//cc80PrWX.s:7318   .debug_str:00000000000003b6 .LASF160
/var/folders/rt/4gvqv631095f64jvm7jfj_000000gn/T//cc80PrWX.s:7164   .debug_str:00000000000000cb .LASF161
/var/folders/rt/4gvqv631095f64jvm7jfj_000000gn/T//cc80PrWX.s:7504   .debug_str:000000000000081d .LASF162
/var/folders/rt/4gvqv631095f64jvm7jfj_000000gn/T//cc80PrWX.s:7496   .debug_str:00000000000007fb .LASF163
/var/folders/rt/4gvqv631095f64jvm7jfj_000000gn/T//cc80PrWX.s:7494   .debug_str:00000000000007f1 .LASF164
/var/folders/rt/4gvqv631095f64jvm7jfj_000000gn/T//cc80PrWX.s:7322   .debug_str:00000000000003d4 .LASF165
/var/folders/rt/4gvqv631095f64jvm7jfj_000000gn/T//cc80PrWX.s:7462   .debug_str:0000000000000688 .LASF166
/var/folders/rt/4gvqv631095f64jvm7jfj_000000gn/T//cc80PrWX.s:7314   .debug_str:00000000000003a5 .LASF167
/var/folders/rt/4gvqv631095f64jvm7jfj_000000gn/T//cc80PrWX.s:7360   .debug_str:000000000000049f .LASF168
/var/folders/rt/4gvqv631095f64jvm7jfj_000000gn/T//cc80PrWX.s:7474   .debug_str:0000000000000780 .LASF169
/var/folders/rt/4gvqv631095f64jvm7jfj_000000gn/T//cc80PrWX.s:7142   .debug_str:000000000000004d .LASF170
/var/folders/rt/4gvqv631095f64jvm7jfj_000000gn/T//cc80PrWX.s:7356   .debug_str:0000000000000487 .LASF171
/var/folders/rt/4gvqv631095f64jvm7jfj_000000gn/T//cc80PrWX.s:7378   .debug_str:00000000000004f4 .LASF174
/var/folders/rt/4gvqv631095f64jvm7jfj_000000gn/T//cc80PrWX.s:1138   .text.no_button_press:0000000000000000 .LFB9
/var/folders/rt/4gvqv631095f64jvm7jfj_000000gn/T//cc80PrWX.s:1206   .text.no_button_press:0000000000000056 .LFE9
/var/folders/rt/4gvqv631095f64jvm7jfj_000000gn/T//cc80PrWX.s:5634   .debug_loc:0000000000000000 .LLST26
/var/folders/rt/4gvqv631095f64jvm7jfj_000000gn/T//cc80PrWX.s:7538   .debug_str:00000000000008bf .LASF172
/var/folders/rt/4gvqv631095f64jvm7jfj_000000gn/T//cc80PrWX.s:5652   .debug_loc:000000000000002c .LLST27
/var/folders/rt/4gvqv631095f64jvm7jfj_000000gn/T//cc80PrWX.s:7324   .debug_str:00000000000003dd .LASF173
/var/folders/rt/4gvqv631095f64jvm7jfj_000000gn/T//cc80PrWX.s:5674   .debug_loc:0000000000000063 .LLST28
/var/folders/rt/4gvqv631095f64jvm7jfj_000000gn/T//cc80PrWX.s:1172   .text.no_button_press:0000000000000028 .LVL135
/var/folders/rt/4gvqv631095f64jvm7jfj_000000gn/T//cc80PrWX.s:1182   .text.no_button_press:0000000000000042 .LVL136
/var/folders/rt/4gvqv631095f64jvm7jfj_000000gn/T//cc80PrWX.s:7326   .debug_str:00000000000003e7 .LASF175
/var/folders/rt/4gvqv631095f64jvm7jfj_000000gn/T//cc80PrWX.s:1029   .text.Buttonpressed:0000000000000000 .LFB8
GAS LISTING /var/folders/rt/4gvqv631095f64jvm7jfj_000000gn/T//cc80PrWX.s 			page 47


/var/folders/rt/4gvqv631095f64jvm7jfj_000000gn/T//cc80PrWX.s:1131   .text.Buttonpressed:0000000000000068 .LFE8
/var/folders/rt/4gvqv631095f64jvm7jfj_000000gn/T//cc80PrWX.s:5696   .debug_loc:000000000000009a .LLST19
/var/folders/rt/4gvqv631095f64jvm7jfj_000000gn/T//cc80PrWX.s:5724   .debug_loc:00000000000000de .LLST20
/var/folders/rt/4gvqv631095f64jvm7jfj_000000gn/T//cc80PrWX.s:7532   .debug_str:00000000000008a2 .LASF176
/var/folders/rt/4gvqv631095f64jvm7jfj_000000gn/T//cc80PrWX.s:5768   .debug_loc:0000000000000147 .LLST21
/var/folders/rt/4gvqv631095f64jvm7jfj_000000gn/T//cc80PrWX.s:7390   .debug_str:000000000000052b .LASF177
/var/folders/rt/4gvqv631095f64jvm7jfj_000000gn/T//cc80PrWX.s:5797   .debug_loc:000000000000018c .LLST22
/var/folders/rt/4gvqv631095f64jvm7jfj_000000gn/T//cc80PrWX.s:7306   .debug_str:0000000000000389 .LASF178
/var/folders/rt/4gvqv631095f64jvm7jfj_000000gn/T//cc80PrWX.s:5839   .debug_loc:00000000000001f3 .LLST23
/var/folders/rt/4gvqv631095f64jvm7jfj_000000gn/T//cc80PrWX.s:7144   .debug_str:0000000000000056 .LASF179
/var/folders/rt/4gvqv631095f64jvm7jfj_000000gn/T//cc80PrWX.s:5884   .debug_loc:000000000000025d .LLST24
/var/folders/rt/4gvqv631095f64jvm7jfj_000000gn/T//cc80PrWX.s:7450   .debug_str:0000000000000650 .LASF182
/var/folders/rt/4gvqv631095f64jvm7jfj_000000gn/T//cc80PrWX.s:5928   .debug_loc:00000000000002c6 .LLST25
/var/folders/rt/4gvqv631095f64jvm7jfj_000000gn/T//cc80PrWX.s:1049   .text.Buttonpressed:000000000000001e .LVL121
/var/folders/rt/4gvqv631095f64jvm7jfj_000000gn/T//cc80PrWX.s:1075   .text.Buttonpressed:000000000000003a .LVL124
/var/folders/rt/4gvqv631095f64jvm7jfj_000000gn/T//cc80PrWX.s:1109   .text.Buttonpressed:000000000000005c .LVL128
/var/folders/rt/4gvqv631095f64jvm7jfj_000000gn/T//cc80PrWX.s:7252   .debug_str:0000000000000282 .LASF206
/var/folders/rt/4gvqv631095f64jvm7jfj_000000gn/T//cc80PrWX.s:747    .text.which_page:0000000000000000 .LFB7
/var/folders/rt/4gvqv631095f64jvm7jfj_000000gn/T//cc80PrWX.s:1022   .text.which_page:0000000000000122 .LFE7
/var/folders/rt/4gvqv631095f64jvm7jfj_000000gn/T//cc80PrWX.s:7266   .debug_str:00000000000002cc .LASF180
/var/folders/rt/4gvqv631095f64jvm7jfj_000000gn/T//cc80PrWX.s:5951   .debug_loc:00000000000002fe .LLST17
/var/folders/rt/4gvqv631095f64jvm7jfj_000000gn/T//cc80PrWX.s:7166   .debug_str:00000000000000d8 .LASF181
/var/folders/rt/4gvqv631095f64jvm7jfj_000000gn/T//cc80PrWX.s:7510   .debug_str:0000000000000841 .LASF183
/var/folders/rt/4gvqv631095f64jvm7jfj_000000gn/T//cc80PrWX.s:6086   .debug_loc:0000000000000432 .LLST18
/var/folders/rt/4gvqv631095f64jvm7jfj_000000gn/T//cc80PrWX.s:7336   .debug_str:0000000000000429 .LASF184
/var/folders/rt/4gvqv631095f64jvm7jfj_000000gn/T//cc80PrWX.s:7368   .debug_str:00000000000004c6 .LASF185
/var/folders/rt/4gvqv631095f64jvm7jfj_000000gn/T//cc80PrWX.s:7328   .debug_str:00000000000003f5 .LASF207
/var/folders/rt/4gvqv631095f64jvm7jfj_000000gn/T//cc80PrWX.s:7172   .debug_str:00000000000000fa .LASF186
/var/folders/rt/4gvqv631095f64jvm7jfj_000000gn/T//cc80PrWX.s:7148   .debug_str:0000000000000069 .LASF187
/var/folders/rt/4gvqv631095f64jvm7jfj_000000gn/T//cc80PrWX.s:15     .text.pages:0000000000000000 .LFB5
/var/folders/rt/4gvqv631095f64jvm7jfj_000000gn/T//cc80PrWX.s:622    .text.pages:000000000000049e .LFE5
/var/folders/rt/4gvqv631095f64jvm7jfj_000000gn/T//cc80PrWX.s:6154   .debug_loc:00000000000004d6 .LLST0
/var/folders/rt/4gvqv631095f64jvm7jfj_000000gn/T//cc80PrWX.s:6182   .debug_loc:000000000000051a .LLST1
/var/folders/rt/4gvqv631095f64jvm7jfj_000000gn/T//cc80PrWX.s:7448   .debug_str:000000000000064a .LASF188
/var/folders/rt/4gvqv631095f64jvm7jfj_000000gn/T//cc80PrWX.s:6200   .debug_loc:0000000000000546 .LLST2
/var/folders/rt/4gvqv631095f64jvm7jfj_000000gn/T//cc80PrWX.s:6376   .debug_loc:00000000000006e9 .LLST3
/var/folders/rt/4gvqv631095f64jvm7jfj_000000gn/T//cc80PrWX.s:6502   .debug_loc:000000000000083e .LLST4
/var/folders/rt/4gvqv631095f64jvm7jfj_000000gn/T//cc80PrWX.s:6663   .debug_loc:00000000000009af .LLST5
/var/folders/rt/4gvqv631095f64jvm7jfj_000000gn/T//cc80PrWX.s:7282   .debug_str:000000000000031a .LASF189
/var/folders/rt/4gvqv631095f64jvm7jfj_000000gn/T//cc80PrWX.s:6809   .debug_loc:0000000000000aee .LLST6
/var/folders/rt/4gvqv631095f64jvm7jfj_000000gn/T//cc80PrWX.s:7460   .debug_str:000000000000067f .LASF190
/var/folders/rt/4gvqv631095f64jvm7jfj_000000gn/T//cc80PrWX.s:7404   .debug_str:0000000000000573 .LASF191
/var/folders/rt/4gvqv631095f64jvm7jfj_000000gn/T//cc80PrWX.s:6841   .debug_loc:0000000000000b37 .LLST7
/var/folders/rt/4gvqv631095f64jvm7jfj_000000gn/T//cc80PrWX.s:7420   .debug_str:00000000000005d0 .LASF192
/var/folders/rt/4gvqv631095f64jvm7jfj_000000gn/T//cc80PrWX.s:6873   .debug_loc:0000000000000b80 .LLST8
/var/folders/rt/4gvqv631095f64jvm7jfj_000000gn/T//cc80PrWX.s:6904   .debug_loc:0000000000000bd3 .LLST9
/var/folders/rt/4gvqv631095f64jvm7jfj_000000gn/T//cc80PrWX.s:219    .text.pages:000000000000012e .LVL18
/var/folders/rt/4gvqv631095f64jvm7jfj_000000gn/T//cc80PrWX.s:231    .text.pages:0000000000000144 .LVL20
/var/folders/rt/4gvqv631095f64jvm7jfj_000000gn/T//cc80PrWX.s:80     .text.pages:0000000000000030 .LVL2
/var/folders/rt/4gvqv631095f64jvm7jfj_000000gn/T//cc80PrWX.s:111    .text.pages:0000000000000058 .LVL5
/var/folders/rt/4gvqv631095f64jvm7jfj_000000gn/T//cc80PrWX.s:120    .text.pages:0000000000000064 .LVL6
/var/folders/rt/4gvqv631095f64jvm7jfj_000000gn/T//cc80PrWX.s:129    .text.pages:000000000000007c .LVL7
/var/folders/rt/4gvqv631095f64jvm7jfj_000000gn/T//cc80PrWX.s:138    .text.pages:0000000000000096 .LVL8
/var/folders/rt/4gvqv631095f64jvm7jfj_000000gn/T//cc80PrWX.s:148    .text.pages:00000000000000b0 .LVL9
/var/folders/rt/4gvqv631095f64jvm7jfj_000000gn/T//cc80PrWX.s:163    .text.pages:00000000000000cc .LVL11
/var/folders/rt/4gvqv631095f64jvm7jfj_000000gn/T//cc80PrWX.s:172    .text.pages:00000000000000da .LVL13
/var/folders/rt/4gvqv631095f64jvm7jfj_000000gn/T//cc80PrWX.s:181    .text.pages:00000000000000f2 .LVL14
GAS LISTING /var/folders/rt/4gvqv631095f64jvm7jfj_000000gn/T//cc80PrWX.s 			page 48


/var/folders/rt/4gvqv631095f64jvm7jfj_000000gn/T//cc80PrWX.s:242    .text.pages:0000000000000152 .LVL22
/var/folders/rt/4gvqv631095f64jvm7jfj_000000gn/T//cc80PrWX.s:251    .text.pages:000000000000016a .LVL23
/var/folders/rt/4gvqv631095f64jvm7jfj_000000gn/T//cc80PrWX.s:262    .text.pages:0000000000000184 .LVL24
/var/folders/rt/4gvqv631095f64jvm7jfj_000000gn/T//cc80PrWX.s:281    .text.pages:00000000000001a2 .LVL27
/var/folders/rt/4gvqv631095f64jvm7jfj_000000gn/T//cc80PrWX.s:290    .text.pages:00000000000001ba .LVL28
/var/folders/rt/4gvqv631095f64jvm7jfj_000000gn/T//cc80PrWX.s:304    .text.pages:00000000000001d6 .LVL30
/var/folders/rt/4gvqv631095f64jvm7jfj_000000gn/T//cc80PrWX.s:313    .text.pages:00000000000001ee .LVL31
/var/folders/rt/4gvqv631095f64jvm7jfj_000000gn/T//cc80PrWX.s:322    .text.pages:0000000000000208 .LVL32
/var/folders/rt/4gvqv631095f64jvm7jfj_000000gn/T//cc80PrWX.s:337    .text.pages:0000000000000224 .LVL34
/var/folders/rt/4gvqv631095f64jvm7jfj_000000gn/T//cc80PrWX.s:346    .text.pages:000000000000023c .LVL35
/var/folders/rt/4gvqv631095f64jvm7jfj_000000gn/T//cc80PrWX.s:355    .text.pages:0000000000000256 .LVL36
/var/folders/rt/4gvqv631095f64jvm7jfj_000000gn/T//cc80PrWX.s:365    .text.pages:0000000000000270 .LVL37
/var/folders/rt/4gvqv631095f64jvm7jfj_000000gn/T//cc80PrWX.s:378    .text.pages:000000000000028a .LVL39
/var/folders/rt/4gvqv631095f64jvm7jfj_000000gn/T//cc80PrWX.s:394    .text.pages:00000000000002a8 .LVL41
/var/folders/rt/4gvqv631095f64jvm7jfj_000000gn/T//cc80PrWX.s:407    .text.pages:00000000000002c4 .LVL43
/var/folders/rt/4gvqv631095f64jvm7jfj_000000gn/T//cc80PrWX.s:417    .text.pages:00000000000002e0 .LVL44
/var/folders/rt/4gvqv631095f64jvm7jfj_000000gn/T//cc80PrWX.s:432    .text.pages:00000000000002fc .LVL46
/var/folders/rt/4gvqv631095f64jvm7jfj_000000gn/T//cc80PrWX.s:441    .text.pages:0000000000000314 .LVL47
/var/folders/rt/4gvqv631095f64jvm7jfj_000000gn/T//cc80PrWX.s:453    .text.pages:000000000000032e .LVL49
/var/folders/rt/4gvqv631095f64jvm7jfj_000000gn/T//cc80PrWX.s:459    .text.pages:0000000000000336 .LVL50
/var/folders/rt/4gvqv631095f64jvm7jfj_000000gn/T//cc80PrWX.s:465    .text.pages:0000000000000342 .LVL52
/var/folders/rt/4gvqv631095f64jvm7jfj_000000gn/T//cc80PrWX.s:470    .text.pages:000000000000034c .LVL53
/var/folders/rt/4gvqv631095f64jvm7jfj_000000gn/T//cc80PrWX.s:483    .text.pages:0000000000000366 .LVL55
/var/folders/rt/4gvqv631095f64jvm7jfj_000000gn/T//cc80PrWX.s:492    .text.pages:0000000000000380 .LVL56
/var/folders/rt/4gvqv631095f64jvm7jfj_000000gn/T//cc80PrWX.s:500    .text.pages:0000000000000396 .LVL57
/var/folders/rt/4gvqv631095f64jvm7jfj_000000gn/T//cc80PrWX.s:506    .text.pages:00000000000003a0 .LVL58
/var/folders/rt/4gvqv631095f64jvm7jfj_000000gn/T//cc80PrWX.s:519    .text.pages:00000000000003bc .LVL60
/var/folders/rt/4gvqv631095f64jvm7jfj_000000gn/T//cc80PrWX.s:527    .text.pages:00000000000003d2 .LVL61
/var/folders/rt/4gvqv631095f64jvm7jfj_000000gn/T//cc80PrWX.s:537    .text.pages:00000000000003ee .LVL62
/var/folders/rt/4gvqv631095f64jvm7jfj_000000gn/T//cc80PrWX.s:548    .text.pages:0000000000000410 .LVL64
/var/folders/rt/4gvqv631095f64jvm7jfj_000000gn/T//cc80PrWX.s:556    .text.pages:000000000000042a .LVL65
/var/folders/rt/4gvqv631095f64jvm7jfj_000000gn/T//cc80PrWX.s:569    .text.pages:000000000000043c .LVL67
/var/folders/rt/4gvqv631095f64jvm7jfj_000000gn/T//cc80PrWX.s:584    .text.pages:000000000000045a .LVL69
/var/folders/rt/4gvqv631095f64jvm7jfj_000000gn/T//cc80PrWX.s:593    .text.pages:0000000000000472 .LVL70
/var/folders/rt/4gvqv631095f64jvm7jfj_000000gn/T//cc80PrWX.s:602    .text.pages:000000000000048c .LVL71
/var/folders/rt/4gvqv631095f64jvm7jfj_000000gn/T//cc80PrWX.s:7350   .debug_str:000000000000046c .LASF193
/var/folders/rt/4gvqv631095f64jvm7jfj_000000gn/T//cc80PrWX.s:629    .text.move_pointer:0000000000000000 .LFB6
/var/folders/rt/4gvqv631095f64jvm7jfj_000000gn/T//cc80PrWX.s:740    .text.move_pointer:000000000000006e .LFE6
/var/folders/rt/4gvqv631095f64jvm7jfj_000000gn/T//cc80PrWX.s:6930   .debug_loc:0000000000000c15 .LLST10
/var/folders/rt/4gvqv631095f64jvm7jfj_000000gn/T//cc80PrWX.s:6968   .debug_loc:0000000000000c71 .LLST11
/var/folders/rt/4gvqv631095f64jvm7jfj_000000gn/T//cc80PrWX.s:6994   .debug_loc:0000000000000cb3 .LLST12
/var/folders/rt/4gvqv631095f64jvm7jfj_000000gn/T//cc80PrWX.s:7023   .debug_loc:0000000000000cf8 .LLST13
/var/folders/rt/4gvqv631095f64jvm7jfj_000000gn/T//cc80PrWX.s:665    .text.move_pointer:000000000000001e .LBB6
/var/folders/rt/4gvqv631095f64jvm7jfj_000000gn/T//cc80PrWX.s:686    .text.move_pointer:0000000000000036 .LBE6
/var/folders/rt/4gvqv631095f64jvm7jfj_000000gn/T//cc80PrWX.s:7052   .debug_loc:0000000000000d3d .LLST14
/var/folders/rt/4gvqv631095f64jvm7jfj_000000gn/T//cc80PrWX.s:7060   .debug_loc:0000000000000d51 .LLST15
/var/folders/rt/4gvqv631095f64jvm7jfj_000000gn/T//cc80PrWX.s:7074   .debug_loc:0000000000000d72 .LLST16
/var/folders/rt/4gvqv631095f64jvm7jfj_000000gn/T//cc80PrWX.s:678    .text.move_pointer:0000000000000032 .LVL77
/var/folders/rt/4gvqv631095f64jvm7jfj_000000gn/T//cc80PrWX.s:711    .text.move_pointer:0000000000000052 .LVL80
/var/folders/rt/4gvqv631095f64jvm7jfj_000000gn/T//cc80PrWX.s:726    .text.move_pointer:0000000000000066 .LVL83
/var/folders/rt/4gvqv631095f64jvm7jfj_000000gn/T//cc80PrWX.s:7206   .debug_str:0000000000000198 .LASF194
/var/folders/rt/4gvqv631095f64jvm7jfj_000000gn/T//cc80PrWX.s:7456   .debug_str:000000000000066d .LASF195
/var/folders/rt/4gvqv631095f64jvm7jfj_000000gn/T//cc80PrWX.s:7470   .debug_str:0000000000000761 .LASF196
/var/folders/rt/4gvqv631095f64jvm7jfj_000000gn/T//cc80PrWX.s:7190   .debug_str:0000000000000153 .LASF197
/var/folders/rt/4gvqv631095f64jvm7jfj_000000gn/T//cc80PrWX.s:7320   .debug_str:00000000000003c2 .LASF198
/var/folders/rt/4gvqv631095f64jvm7jfj_000000gn/T//cc80PrWX.s:7478   .debug_str:000000000000078d .LASF199
/var/folders/rt/4gvqv631095f64jvm7jfj_000000gn/T//cc80PrWX.s:7276   .debug_str:00000000000002f8 .LASF200
GAS LISTING /var/folders/rt/4gvqv631095f64jvm7jfj_000000gn/T//cc80PrWX.s 			page 49


/var/folders/rt/4gvqv631095f64jvm7jfj_000000gn/T//cc80PrWX.s:7346   .debug_str:000000000000045c .LASF201
/var/folders/rt/4gvqv631095f64jvm7jfj_000000gn/T//cc80PrWX.s:1156   .text.no_button_press:0000000000000014 .LCFI14
/var/folders/rt/4gvqv631095f64jvm7jfj_000000gn/T//cc80PrWX.s:1199   .text.no_button_press:0000000000000052 .LCFI15
/var/folders/rt/4gvqv631095f64jvm7jfj_000000gn/T//cc80PrWX.s:1141   .text.no_button_press:0000000000000000 .LVL133
/var/folders/rt/4gvqv631095f64jvm7jfj_000000gn/T//cc80PrWX.s:1163   .text.no_button_press:000000000000001a .LVL134
/var/folders/rt/4gvqv631095f64jvm7jfj_000000gn/T//cc80PrWX.s:1197   .text.no_button_press:0000000000000050 .LVL138
/var/folders/rt/4gvqv631095f64jvm7jfj_000000gn/T//cc80PrWX.s:1202   .text.no_button_press:0000000000000054 .LVL139
/var/folders/rt/4gvqv631095f64jvm7jfj_000000gn/T//cc80PrWX.s:1194   .text.no_button_press:000000000000004e .LVL137
/var/folders/rt/4gvqv631095f64jvm7jfj_000000gn/T//cc80PrWX.s:1053   .text.Buttonpressed:0000000000000020 .LCFI10
/var/folders/rt/4gvqv631095f64jvm7jfj_000000gn/T//cc80PrWX.s:1104   .text.Buttonpressed:0000000000000054 .LCFI11
/var/folders/rt/4gvqv631095f64jvm7jfj_000000gn/T//cc80PrWX.s:1111   .text.Buttonpressed:000000000000005c .LCFI12
/var/folders/rt/4gvqv631095f64jvm7jfj_000000gn/T//cc80PrWX.s:1123   .text.Buttonpressed:0000000000000064 .LCFI13
/var/folders/rt/4gvqv631095f64jvm7jfj_000000gn/T//cc80PrWX.s:1032   .text.Buttonpressed:0000000000000000 .LVL117
/var/folders/rt/4gvqv631095f64jvm7jfj_000000gn/T//cc80PrWX.s:1047   .text.Buttonpressed:0000000000000016 .LVL120
/var/folders/rt/4gvqv631095f64jvm7jfj_000000gn/T//cc80PrWX.s:1064   .text.Buttonpressed:0000000000000028 .LVL123
/var/folders/rt/4gvqv631095f64jvm7jfj_000000gn/T//cc80PrWX.s:1102   .text.Buttonpressed:0000000000000052 .LVL126
/var/folders/rt/4gvqv631095f64jvm7jfj_000000gn/T//cc80PrWX.s:1121   .text.Buttonpressed:0000000000000062 .LVL130
/var/folders/rt/4gvqv631095f64jvm7jfj_000000gn/T//cc80PrWX.s:1127   .text.Buttonpressed:0000000000000066 .LVL132
/var/folders/rt/4gvqv631095f64jvm7jfj_000000gn/T//cc80PrWX.s:1058   .text.Buttonpressed:0000000000000024 .LVL122
/var/folders/rt/4gvqv631095f64jvm7jfj_000000gn/T//cc80PrWX.s:1045   .text.Buttonpressed:0000000000000014 .LVL119
/var/folders/rt/4gvqv631095f64jvm7jfj_000000gn/T//cc80PrWX.s:1106   .text.Buttonpressed:0000000000000054 .LVL127
/var/folders/rt/4gvqv631095f64jvm7jfj_000000gn/T//cc80PrWX.s:1125   .text.Buttonpressed:0000000000000064 .LVL131
/var/folders/rt/4gvqv631095f64jvm7jfj_000000gn/T//cc80PrWX.s:1038   .text.Buttonpressed:0000000000000008 .LVL118
/var/folders/rt/4gvqv631095f64jvm7jfj_000000gn/T//cc80PrWX.s:1093   .text.Buttonpressed:000000000000004a .LVL125
/var/folders/rt/4gvqv631095f64jvm7jfj_000000gn/T//cc80PrWX.s:1118   .text.Buttonpressed:0000000000000060 .LVL129
/var/folders/rt/4gvqv631095f64jvm7jfj_000000gn/T//cc80PrWX.s:750    .text.which_page:0000000000000000 .LVL85
/var/folders/rt/4gvqv631095f64jvm7jfj_000000gn/T//cc80PrWX.s:845    .text.which_page:0000000000000064 .LVL92
/var/folders/rt/4gvqv631095f64jvm7jfj_000000gn/T//cc80PrWX.s:847    .text.which_page:0000000000000066 .LVL93
/var/folders/rt/4gvqv631095f64jvm7jfj_000000gn/T//cc80PrWX.s:851    .text.which_page:0000000000000068 .LVL94
/var/folders/rt/4gvqv631095f64jvm7jfj_000000gn/T//cc80PrWX.s:864    .text.which_page:0000000000000080 .LVL95
/var/folders/rt/4gvqv631095f64jvm7jfj_000000gn/T//cc80PrWX.s:868    .text.which_page:0000000000000082 .LVL96
/var/folders/rt/4gvqv631095f64jvm7jfj_000000gn/T//cc80PrWX.s:879    .text.which_page:0000000000000094 .LVL97
/var/folders/rt/4gvqv631095f64jvm7jfj_000000gn/T//cc80PrWX.s:883    .text.which_page:0000000000000096 .LVL98
/var/folders/rt/4gvqv631095f64jvm7jfj_000000gn/T//cc80PrWX.s:894    .text.which_page:00000000000000a8 .LVL99
/var/folders/rt/4gvqv631095f64jvm7jfj_000000gn/T//cc80PrWX.s:898    .text.which_page:00000000000000aa .LVL100
/var/folders/rt/4gvqv631095f64jvm7jfj_000000gn/T//cc80PrWX.s:909    .text.which_page:00000000000000bc .LVL101
/var/folders/rt/4gvqv631095f64jvm7jfj_000000gn/T//cc80PrWX.s:913    .text.which_page:00000000000000be .LVL102
/var/folders/rt/4gvqv631095f64jvm7jfj_000000gn/T//cc80PrWX.s:924    .text.which_page:00000000000000d0 .LVL103
/var/folders/rt/4gvqv631095f64jvm7jfj_000000gn/T//cc80PrWX.s:928    .text.which_page:00000000000000d2 .LVL104
/var/folders/rt/4gvqv631095f64jvm7jfj_000000gn/T//cc80PrWX.s:939    .text.which_page:00000000000000e4 .LVL105
/var/folders/rt/4gvqv631095f64jvm7jfj_000000gn/T//cc80PrWX.s:943    .text.which_page:00000000000000e6 .LVL106
/var/folders/rt/4gvqv631095f64jvm7jfj_000000gn/T//cc80PrWX.s:954    .text.which_page:00000000000000f8 .LVL107
/var/folders/rt/4gvqv631095f64jvm7jfj_000000gn/T//cc80PrWX.s:960    .text.which_page:00000000000000fa .LVL108
/var/folders/rt/4gvqv631095f64jvm7jfj_000000gn/T//cc80PrWX.s:962    .text.which_page:00000000000000fc .LVL109
/var/folders/rt/4gvqv631095f64jvm7jfj_000000gn/T//cc80PrWX.s:966    .text.which_page:00000000000000fc .LVL110
/var/folders/rt/4gvqv631095f64jvm7jfj_000000gn/T//cc80PrWX.s:973    .text.which_page:0000000000000102 .LVL111
/var/folders/rt/4gvqv631095f64jvm7jfj_000000gn/T//cc80PrWX.s:985    .text.which_page:0000000000000114 .LVL113
/var/folders/rt/4gvqv631095f64jvm7jfj_000000gn/T//cc80PrWX.s:1008   .text.which_page:000000000000011a .LVL114
/var/folders/rt/4gvqv631095f64jvm7jfj_000000gn/T//cc80PrWX.s:1014   .text.which_page:000000000000011e .LVL116
/var/folders/rt/4gvqv631095f64jvm7jfj_000000gn/T//cc80PrWX.s:789    .text.which_page:000000000000002e .LVL86
/var/folders/rt/4gvqv631095f64jvm7jfj_000000gn/T//cc80PrWX.s:807    .text.which_page:0000000000000046 .LVL89
/var/folders/rt/4gvqv631095f64jvm7jfj_000000gn/T//cc80PrWX.s:836    .text.which_page:000000000000005e .LVL90
/var/folders/rt/4gvqv631095f64jvm7jfj_000000gn/T//cc80PrWX.s:841    .text.which_page:0000000000000062 .LVL91
/var/folders/rt/4gvqv631095f64jvm7jfj_000000gn/T//cc80PrWX.s:1012   .text.which_page:000000000000011c .LVL115
/var/folders/rt/4gvqv631095f64jvm7jfj_000000gn/T//cc80PrWX.s:39     .text.pages:0000000000000016 .LCFI0
/var/folders/rt/4gvqv631095f64jvm7jfj_000000gn/T//cc80PrWX.s:107    .text.pages:0000000000000050 .LCFI1
/var/folders/rt/4gvqv631095f64jvm7jfj_000000gn/T//cc80PrWX.s:113    .text.pages:0000000000000058 .LCFI2
GAS LISTING /var/folders/rt/4gvqv631095f64jvm7jfj_000000gn/T//cc80PrWX.s 			page 50


/var/folders/rt/4gvqv631095f64jvm7jfj_000000gn/T//cc80PrWX.s:612    .text.pages:000000000000049c .LCFI3
/var/folders/rt/4gvqv631095f64jvm7jfj_000000gn/T//cc80PrWX.s:19     .text.pages:0000000000000000 .LVL0
/var/folders/rt/4gvqv631095f64jvm7jfj_000000gn/T//cc80PrWX.s:34     .text.pages:0000000000000010 .LVL1
/var/folders/rt/4gvqv631095f64jvm7jfj_000000gn/T//cc80PrWX.s:610    .text.pages:000000000000049c .LVL72
/var/folders/rt/4gvqv631095f64jvm7jfj_000000gn/T//cc80PrWX.s:158    .text.pages:00000000000000c2 .LVL10
/var/folders/rt/4gvqv631095f64jvm7jfj_000000gn/T//cc80PrWX.s:165    .text.pages:00000000000000ce .LVL12
/var/folders/rt/4gvqv631095f64jvm7jfj_000000gn/T//cc80PrWX.s:199    .text.pages:0000000000000104 .LVL16
/var/folders/rt/4gvqv631095f64jvm7jfj_000000gn/T//cc80PrWX.s:207    .text.pages:0000000000000114 .LVL17
/var/folders/rt/4gvqv631095f64jvm7jfj_000000gn/T//cc80PrWX.s:234    .text.pages:0000000000000146 .LVL21
/var/folders/rt/4gvqv631095f64jvm7jfj_000000gn/T//cc80PrWX.s:269    .text.pages:0000000000000192 .LVL25
/var/folders/rt/4gvqv631095f64jvm7jfj_000000gn/T//cc80PrWX.s:274    .text.pages:0000000000000196 .LVL26
/var/folders/rt/4gvqv631095f64jvm7jfj_000000gn/T//cc80PrWX.s:297    .text.pages:00000000000001ca .LVL29
/var/folders/rt/4gvqv631095f64jvm7jfj_000000gn/T//cc80PrWX.s:330    .text.pages:0000000000000218 .LVL33
/var/folders/rt/4gvqv631095f64jvm7jfj_000000gn/T//cc80PrWX.s:373    .text.pages:0000000000000280 .LVL38
/var/folders/rt/4gvqv631095f64jvm7jfj_000000gn/T//cc80PrWX.s:389    .text.pages:000000000000029e .LVL40
/var/folders/rt/4gvqv631095f64jvm7jfj_000000gn/T//cc80PrWX.s:402    .text.pages:00000000000002ba .LVL42
/var/folders/rt/4gvqv631095f64jvm7jfj_000000gn/T//cc80PrWX.s:425    .text.pages:00000000000002f0 .LVL45
/var/folders/rt/4gvqv631095f64jvm7jfj_000000gn/T//cc80PrWX.s:448    .text.pages:0000000000000324 .LVL48
/var/folders/rt/4gvqv631095f64jvm7jfj_000000gn/T//cc80PrWX.s:564    .text.pages:0000000000000432 .LVL66
/var/folders/rt/4gvqv631095f64jvm7jfj_000000gn/T//cc80PrWX.s:577    .text.pages:000000000000044e .LVL68
/var/folders/rt/4gvqv631095f64jvm7jfj_000000gn/T//cc80PrWX.s:103    .text.pages:000000000000004c .LVL4
/var/folders/rt/4gvqv631095f64jvm7jfj_000000gn/T//cc80PrWX.s:89     .text.pages:0000000000000042 .LVL3
/var/folders/rt/4gvqv631095f64jvm7jfj_000000gn/T//cc80PrWX.s:190    .text.pages:00000000000000fa .LVL15
/var/folders/rt/4gvqv631095f64jvm7jfj_000000gn/T//cc80PrWX.s:223    .text.pages:0000000000000130 .LVL19
/var/folders/rt/4gvqv631095f64jvm7jfj_000000gn/T//cc80PrWX.s:476    .text.pages:0000000000000352 .LVL54
/var/folders/rt/4gvqv631095f64jvm7jfj_000000gn/T//cc80PrWX.s:511    .text.pages:00000000000003a6 .LVL59
/var/folders/rt/4gvqv631095f64jvm7jfj_000000gn/T//cc80PrWX.s:461    .text.pages:0000000000000338 .LVL51
/var/folders/rt/4gvqv631095f64jvm7jfj_000000gn/T//cc80PrWX.s:638    .text.move_pointer:0000000000000004 .LCFI4
/var/folders/rt/4gvqv631095f64jvm7jfj_000000gn/T//cc80PrWX.s:658    .text.move_pointer:000000000000001c .LCFI5
/var/folders/rt/4gvqv631095f64jvm7jfj_000000gn/T//cc80PrWX.s:663    .text.move_pointer:000000000000001e .LCFI6
/var/folders/rt/4gvqv631095f64jvm7jfj_000000gn/T//cc80PrWX.s:707    .text.move_pointer:000000000000004a .LCFI7
/var/folders/rt/4gvqv631095f64jvm7jfj_000000gn/T//cc80PrWX.s:713    .text.move_pointer:0000000000000052 .LCFI8
/var/folders/rt/4gvqv631095f64jvm7jfj_000000gn/T//cc80PrWX.s:734    .text.move_pointer:000000000000006c .LCFI9
/var/folders/rt/4gvqv631095f64jvm7jfj_000000gn/T//cc80PrWX.s:632    .text.move_pointer:0000000000000000 .LVL73
/var/folders/rt/4gvqv631095f64jvm7jfj_000000gn/T//cc80PrWX.s:661    .text.move_pointer:000000000000001e .LVL74
/var/folders/rt/4gvqv631095f64jvm7jfj_000000gn/T//cc80PrWX.s:694    .text.move_pointer:000000000000003a .LVL79
/var/folders/rt/4gvqv631095f64jvm7jfj_000000gn/T//cc80PrWX.s:732    .text.move_pointer:000000000000006c .LVL84
/var/folders/rt/4gvqv631095f64jvm7jfj_000000gn/T//cc80PrWX.s:670    .text.move_pointer:0000000000000020 .LVL75
/var/folders/rt/4gvqv631095f64jvm7jfj_000000gn/T//cc80PrWX.s:718    .text.move_pointer:0000000000000054 .LVL81
/var/folders/rt/4gvqv631095f64jvm7jfj_000000gn/T//cc80PrWX.s:674    .text.move_pointer:0000000000000024 .LVL76
/var/folders/rt/4gvqv631095f64jvm7jfj_000000gn/T//cc80PrWX.s:722    .text.move_pointer:0000000000000058 .LVL82
/var/folders/rt/4gvqv631095f64jvm7jfj_000000gn/T//cc80PrWX.s:683    .text.move_pointer:0000000000000036 .LVL78
/var/folders/rt/4gvqv631095f64jvm7jfj_000000gn/T//cc80PrWX.s:1365   .debug_info:0000000000000000 .Ldebug_info0
/var/folders/rt/4gvqv631095f64jvm7jfj_000000gn/T//cc80PrWX.s:183    .text.pages:00000000000000f2 .LBB2
/var/folders/rt/4gvqv631095f64jvm7jfj_000000gn/T//cc80PrWX.s:194    .text.pages:00000000000000fe .LBE2
/var/folders/rt/4gvqv631095f64jvm7jfj_000000gn/T//cc80PrWX.s:209    .text.pages:0000000000000114 .LBB3
/var/folders/rt/4gvqv631095f64jvm7jfj_000000gn/T//cc80PrWX.s:236    .text.pages:0000000000000146 .LBE3

UNDEFINED SYMBOLS
__fixunssfsi
LCD_Clear
LCD_ShowStr
LCD_ShowChar
LCD_ShowNum
LCD_Wait_On_Queue
read_temp
ADC_read
GAS LISTING /var/folders/rt/4gvqv631095f64jvm7jfj_000000gn/T//cc80PrWX.s 			page 51


LCD_Fill
