GAS LISTING /var/folders/rt/4gvqv631095f64jvm7jfj_000000gn/T//ccUtSSg3.s 			page 1


   1              		.file	"plant.c"
   2              		.option nopic
   3              		.attribute arch, "rv32i2p0_m2p0_a2p0_c2p0"
   4              		.attribute unaligned_access, 0
   5              		.attribute stack_align, 16
   6              		.text
   7              	.Ltext0:
   8              		.cfi_sections	.debug_frame
   9              		.section	.text.initSensorReading,"ax",@progbits
  10              		.align	1
  11              		.globl	initSensorReading
  13              	initSensorReading:
  14              	.LFB5:
  15              		.file 1 "plant.c"
   1:plant.c       **** #include "plant.h"
   2:plant.c       **** #include <stdio.h>
   3:plant.c       **** #include "lcd.h"
   4:plant.c       **** #include "adc.h"
   5:plant.c       **** #include "gd32vf103.h"
   6:plant.c       **** #define STR_COPY(dest, src) \
   7:plant.c       ****   snprintf(dest, sizeof(dest), "%s", src) // AI. STR_COPY är en genväg för snprintf som i sin tu
   8:plant.c       **** 
   9:plant.c       **** SensorReading initSensorReading(int newTimeStamp, int inReading)
  10:plant.c       **** {
  16              		.loc 1 10 1
  17              		.cfi_startproc
  18              	.LVL0:
  11:plant.c       ****   SensorReading newReading;
  19              		.loc 1 11 3
  12:plant.c       ****   newReading.timeStamp = newTimeStamp;
  20              		.loc 1 12 3
  13:plant.c       ****   newReading.reading = inReading;
  21              		.loc 1 13 3
  14:plant.c       ****   return newReading;
  22              		.loc 1 14 3
  10:plant.c       ****   SensorReading newReading;
  23              		.loc 1 10 1 is_stmt 0
  24 0000 4111     		addi	sp,sp,-16
  25              	.LCFI0:
  26              		.cfi_def_cfa_offset 16
  15:plant.c       **** }
  27              		.loc 1 15 1
  28 0002 4101     		addi	sp,sp,16
  29              	.LCFI1:
  30              		.cfi_def_cfa_offset 0
  31 0004 8280     		jr	ra
  32              		.cfi_endproc
  33              	.LFE5:
  35              		.section	.text.initPlant,"ax",@progbits
  36              		.align	1
  37              		.globl	initPlant
  39              	initPlant:
  40              	.LFB6:
  16:plant.c       **** 
  17:plant.c       **** void initPlant(char inName[], int *numberOfPlants, Plant allPlants[],
  18:plant.c       ****                int idealMoist, int lowMoist, int highMoist,
  19:plant.c       ****                int idealSun, int lowSun, int highSun,
GAS LISTING /var/folders/rt/4gvqv631095f64jvm7jfj_000000gn/T//ccUtSSg3.s 			page 2


  20:plant.c       ****                int idealTemp, int lowTemp, int highTemp)
  21:plant.c       **** {
  41              		.loc 1 21 1 is_stmt 1
  42              		.cfi_startproc
  43              	.LVL1:
  22:plant.c       ****   if (*numberOfPlants > 2)
  44              		.loc 1 22 3
  45              		.loc 1 22 6 is_stmt 0
  46 0000 03AE0500 		lw	t3,0(a1)
  47 0004 0943     		li	t1,2
  48 0006 6342C313 		bgt	t3,t1,.L7
  21:plant.c       ****   if (*numberOfPlants > 2)
  49              		.loc 1 21 1
  50 000a 130101B1 		addi	sp,sp,-1264
  51              	.LCFI2:
  52              		.cfi_def_cfa_offset 1264
  53 000e 2322914E 		sw	s1,1252(sp)
  54              		.cfi_offset 9, -12
  55 0012 B284     		mv	s1,a2
  23:plant.c       ****     return;
  24:plant.c       ****   Plant newPlant;
  25:plant.c       ****   SensorReading defaultReading = initSensorReading(0, 0);
  26:plant.c       **** 
  27:plant.c       ****   STR_COPY(newPlant.name, inName);
  56              		.loc 1 27 3
  57 0014 37060000 		lui	a2,%hi(.LC0)
  58              	.LVL2:
  21:plant.c       ****   if (*numberOfPlants > 2)
  59              		.loc 1 21 1
  60 0018 2324814E 		sw	s0,1256(sp)
  61 001c 2328614D 		sw	s6,1232(sp)
  62              		.cfi_offset 8, -8
  63              		.cfi_offset 22, -32
  64 0020 2E84     		mv	s0,a1
  65 0022 368B     		mv	s6,a3
  66              		.loc 1 27 3
  67 0024 13060600 		addi	a2,a2,%lo(.LC0)
  68 0028 AA86     		mv	a3,a0
  69              	.LVL3:
  24:plant.c       ****   SensorReading defaultReading = initSensorReading(0, 0);
  70              		.loc 1 24 3 is_stmt 1
  25:plant.c       **** 
  71              		.loc 1 25 3
  11:plant.c       ****   newReading.timeStamp = newTimeStamp;
  72              		.loc 1 11 3
  12:plant.c       ****   newReading.reading = inReading;
  73              		.loc 1 12 3
  13:plant.c       ****   return newReading;
  74              		.loc 1 13 3
  14:plant.c       **** }
  75              		.loc 1 14 3
  76              		.loc 1 27 3
  77 002a BD45     		li	a1,15
  78              	.LVL4:
  79 002c 0A85     		mv	a0,sp
  80              	.LVL5:
  21:plant.c       ****   if (*numberOfPlants > 2)
GAS LISTING /var/folders/rt/4gvqv631095f64jvm7jfj_000000gn/T//ccUtSSg3.s 			page 3


  81              		.loc 1 21 1 is_stmt 0
  82 002e 2326114E 		sw	ra,1260(sp)
  83 0032 2320214F 		sw	s2,1248(sp)
  84 0036 232E314D 		sw	s3,1244(sp)
  85 003a 232C414D 		sw	s4,1240(sp)
  86 003e 232A514D 		sw	s5,1236(sp)
  87              		.cfi_offset 1, -4
  88              		.cfi_offset 18, -16
  89              		.cfi_offset 19, -20
  90              		.cfi_offset 20, -24
  91              		.cfi_offset 21, -28
  92 0042 4689     		mv	s2,a7
  93 0044 C289     		mv	s3,a6
  94 0046 3E8A     		mv	s4,a5
  95 0048 BA8A     		mv	s5,a4
  96              		.loc 1 27 3
  97 004a 97000000 		call	snprintf
  97      E7800000 
  98              	.LVL6:
  28:plant.c       ****   STR_COPY(newPlant.currentStatus, "OK");
  99              		.loc 1 28 3 is_stmt 1
 100 0052 B7050000 		lui	a1,%hi(.LC1)
 101 0056 93850500 		addi	a1,a1,%lo(.LC1)
 102 005a 1305F100 		addi	a0,sp,15
 103 005e 97000000 		call	strcpy
 103      E7800000 
 104              	.LVL7:
  29:plant.c       **** 
  30:plant.c       ****   newPlant.moisture[0] = defaultReading;
 105              		.loc 1 30 3
  31:plant.c       ****   newPlant.sun[0] = defaultReading;
  32:plant.c       ****   newPlant.temp[0] = defaultReading;
  33:plant.c       ****   newPlant.numberOfMoistureReadings = 1;
  34:plant.c       ****   newPlant.numberOfSunReadings = 1;
  35:plant.c       ****   newPlant.numberOfTempReadings = 1;
  36:plant.c       **** 
  37:plant.c       ****   newPlant.moistHistory[0] = 0;
  38:plant.c       ****   newPlant.sunHistory[0] = 0;
  39:plant.c       ****   newPlant.tempHistory[0] = 0;
  40:plant.c       ****   newPlant.numberOfMoistureHistory = 1;
  41:plant.c       ****   newPlant.numberOfSunHistory = 1;
  42:plant.c       ****   newPlant.numberOfTempHistory = 1;
  43:plant.c       **** 
  44:plant.c       ****   newPlant.moistInterval = 1800;
 106              		.loc 1 44 26 is_stmt 0
 107 0066 93078070 		li	a5,1800
 108 006a 2320F14A 		sw	a5,1184(sp)
  45:plant.c       ****   newPlant.sunInterval = 60;
  46:plant.c       ****   newPlant.tempInterval = 1800;
 109              		.loc 1 46 25
 110 006e 2324F14A 		sw	a5,1192(sp)
  47:plant.c       **** 
  48:plant.c       ****   newPlant.idealMoist = idealMoist;
  49:plant.c       ****   newPlant.lowMoist = lowMoist;
  50:plant.c       ****   newPlant.highMoist = highMoist;
  51:plant.c       **** 
  52:plant.c       ****   newPlant.idealSun = idealSun;
GAS LISTING /var/folders/rt/4gvqv631095f64jvm7jfj_000000gn/T//ccUtSSg3.s 			page 4


  53:plant.c       ****   newPlant.lowSun = lowSun;
  54:plant.c       ****   newPlant.highSun = highSun;
 111              		.loc 1 54 20
 112 0072 8327014F 		lw	a5,1264(sp)
  55:plant.c       **** 
  56:plant.c       ****   newPlant.idealTemp = idealTemp;
  57:plant.c       ****   newPlant.lowTemp = lowTemp;
  58:plant.c       ****   newPlant.highTemp = highTemp;
  59:plant.c       **** 
  60:plant.c       ****   allPlants[*numberOfPlants] = newPlant;
 113              		.loc 1 60 12
 114 0076 0840     		lw	a0,0(s0)
  33:plant.c       ****   newPlant.numberOfSunReadings = 1;
 115              		.loc 1 33 37
 116 0078 8545     		li	a1,1
  54:plant.c       **** 
 117              		.loc 1 54 20
 118 007a 2324F14C 		sw	a5,1224(sp)
  56:plant.c       ****   newPlant.lowTemp = lowTemp;
 119              		.loc 1 56 22
 120 007e 8327414F 		lw	a5,1268(sp)
  33:plant.c       ****   newPlant.numberOfSunReadings = 1;
 121              		.loc 1 33 37
 122 0082 2320B132 		sw	a1,800(sp)
  34:plant.c       ****   newPlant.numberOfTempReadings = 1;
 123              		.loc 1 34 32
 124 0086 2322B132 		sw	a1,804(sp)
  56:plant.c       ****   newPlant.lowTemp = lowTemp;
 125              		.loc 1 56 22
 126 008a 232AF14A 		sw	a5,1204(sp)
  57:plant.c       ****   newPlant.highTemp = highTemp;
 127              		.loc 1 57 20
 128 008e 8327814F 		lw	a5,1272(sp)
  35:plant.c       **** 
 129              		.loc 1 35 33
 130 0092 2324B132 		sw	a1,808(sp)
  40:plant.c       ****   newPlant.numberOfSunHistory = 1;
 131              		.loc 1 40 36
 132 0096 232AB148 		sw	a1,1172(sp)
  57:plant.c       ****   newPlant.highTemp = highTemp;
 133              		.loc 1 57 20
 134 009a 2320F14C 		sw	a5,1216(sp)
  58:plant.c       **** 
 135              		.loc 1 58 21
 136 009e 8327C14F 		lw	a5,1276(sp)
  41:plant.c       ****   newPlant.numberOfTempHistory = 1;
 137              		.loc 1 41 31
 138 00a2 232CB148 		sw	a1,1176(sp)
  42:plant.c       **** 
 139              		.loc 1 42 32
 140 00a6 232EB148 		sw	a1,1180(sp)
  58:plant.c       **** 
 141              		.loc 1 58 21
 142 00aa 2326F14C 		sw	a5,1228(sp)
 143              		.loc 1 60 30
 144 00ae 9307004D 		li	a5,1232
 145 00b2 3305F502 		mul	a0,a0,a5
GAS LISTING /var/folders/rt/4gvqv631095f64jvm7jfj_000000gn/T//ccUtSSg3.s 			page 5


  45:plant.c       ****   newPlant.tempInterval = 1800;
 146              		.loc 1 45 24
 147 00b6 1307C003 		li	a4,60
 148              		.loc 1 60 30
 149 00ba 8A85     		mv	a1,sp
 150 00bc 1306004D 		li	a2,1232
  48:plant.c       ****   newPlant.lowMoist = lowMoist;
 151              		.loc 1 48 23
 152 00c0 2326614B 		sw	s6,1196(sp)
  49:plant.c       ****   newPlant.highMoist = highMoist;
 153              		.loc 1 49 21
 154 00c4 232C514B 		sw	s5,1208(sp)
  50:plant.c       **** 
 155              		.loc 1 50 22
 156 00c8 2322414D 		sw	s4,1220(sp)
  52:plant.c       ****   newPlant.lowSun = lowSun;
 157              		.loc 1 52 21
 158 00cc 2328314B 		sw	s3,1200(sp)
  53:plant.c       ****   newPlant.highSun = highSun;
 159              		.loc 1 53 19
 160 00d0 232E214B 		sw	s2,1212(sp)
  30:plant.c       ****   newPlant.sun[0] = defaultReading;
 161              		.loc 1 30 24
 162 00d4 02D0     		sw	zero,32(sp)
 163              		.loc 1 60 30
 164 00d6 2695     		add	a0,s1,a0
  30:plant.c       ****   newPlant.sun[0] = defaultReading;
 165              		.loc 1 30 24
 166 00d8 02D2     		sw	zero,36(sp)
  31:plant.c       ****   newPlant.temp[0] = defaultReading;
 167              		.loc 1 31 3 is_stmt 1
  31:plant.c       ****   newPlant.temp[0] = defaultReading;
 168              		.loc 1 31 19 is_stmt 0
 169 00da 82D1     		sw	zero,224(sp)
 170 00dc 82D3     		sw	zero,228(sp)
  32:plant.c       ****   newPlant.numberOfMoistureReadings = 1;
 171              		.loc 1 32 3 is_stmt 1
  32:plant.c       ****   newPlant.numberOfMoistureReadings = 1;
 172              		.loc 1 32 20 is_stmt 0
 173 00de 23200126 		sw	zero,608(sp)
 174 00e2 23220126 		sw	zero,612(sp)
  33:plant.c       ****   newPlant.numberOfSunReadings = 1;
 175              		.loc 1 33 3 is_stmt 1
  34:plant.c       ****   newPlant.numberOfTempReadings = 1;
 176              		.loc 1 34 3
  35:plant.c       **** 
 177              		.loc 1 35 3
  37:plant.c       ****   newPlant.sunHistory[0] = 0;
 178              		.loc 1 37 3
  37:plant.c       ****   newPlant.sunHistory[0] = 0;
 179              		.loc 1 37 28 is_stmt 0
 180 00e6 23260132 		sw	zero,812(sp)
  38:plant.c       ****   newPlant.tempHistory[0] = 0;
 181              		.loc 1 38 3 is_stmt 1
  38:plant.c       ****   newPlant.tempHistory[0] = 0;
 182              		.loc 1 38 26 is_stmt 0
 183 00ea 2322013A 		sw	zero,932(sp)
GAS LISTING /var/folders/rt/4gvqv631095f64jvm7jfj_000000gn/T//ccUtSSg3.s 			page 6


  39:plant.c       ****   newPlant.numberOfMoistureHistory = 1;
 184              		.loc 1 39 3 is_stmt 1
  39:plant.c       ****   newPlant.numberOfMoistureHistory = 1;
 185              		.loc 1 39 27 is_stmt 0
 186 00ee 232E0140 		sw	zero,1052(sp)
  40:plant.c       ****   newPlant.numberOfSunHistory = 1;
 187              		.loc 1 40 3 is_stmt 1
  41:plant.c       ****   newPlant.numberOfTempHistory = 1;
 188              		.loc 1 41 3
  42:plant.c       **** 
 189              		.loc 1 42 3
  44:plant.c       ****   newPlant.sunInterval = 60;
 190              		.loc 1 44 3
  45:plant.c       ****   newPlant.tempInterval = 1800;
 191              		.loc 1 45 3
  45:plant.c       ****   newPlant.tempInterval = 1800;
 192              		.loc 1 45 24 is_stmt 0
 193 00f2 2322E14A 		sw	a4,1188(sp)
  46:plant.c       **** 
 194              		.loc 1 46 3 is_stmt 1
  48:plant.c       ****   newPlant.lowMoist = lowMoist;
 195              		.loc 1 48 3
  49:plant.c       ****   newPlant.highMoist = highMoist;
 196              		.loc 1 49 3
  50:plant.c       **** 
 197              		.loc 1 50 3
  52:plant.c       ****   newPlant.lowSun = lowSun;
 198              		.loc 1 52 3
  53:plant.c       ****   newPlant.highSun = highSun;
 199              		.loc 1 53 3
  54:plant.c       **** 
 200              		.loc 1 54 3
  56:plant.c       ****   newPlant.lowTemp = lowTemp;
 201              		.loc 1 56 3
  57:plant.c       ****   newPlant.highTemp = highTemp;
 202              		.loc 1 57 3
  58:plant.c       **** 
 203              		.loc 1 58 3
 204              		.loc 1 60 3
 205              		.loc 1 60 30 is_stmt 0
 206 00f6 97000000 		call	memcpy
 206      E7800000 
 207              	.LVL8:
  61:plant.c       ****   (*numberOfPlants)++;
 208              		.loc 1 61 3 is_stmt 1
 209              		.loc 1 61 20 is_stmt 0
 210 00fe 1C40     		lw	a5,0(s0)
  62:plant.c       **** }
 211              		.loc 1 62 1
 212 0100 8320C14E 		lw	ra,1260(sp)
 213              		.cfi_restore 1
 214 0104 8324414E 		lw	s1,1252(sp)
 215              		.cfi_restore 9
 216              	.LVL9:
  61:plant.c       ****   (*numberOfPlants)++;
 217              		.loc 1 61 20
 218 0108 8507     		addi	a5,a5,1
GAS LISTING /var/folders/rt/4gvqv631095f64jvm7jfj_000000gn/T//ccUtSSg3.s 			page 7


 219 010a 1CC0     		sw	a5,0(s0)
 220              	.LVL10:
 221              		.loc 1 62 1
 222 010c 0324814E 		lw	s0,1256(sp)
 223              		.cfi_restore 8
 224              	.LVL11:
 225 0110 0329014E 		lw	s2,1248(sp)
 226              		.cfi_restore 18
 227              	.LVL12:
 228 0114 8329C14D 		lw	s3,1244(sp)
 229              		.cfi_restore 19
 230              	.LVL13:
 231 0118 032A814D 		lw	s4,1240(sp)
 232              		.cfi_restore 20
 233              	.LVL14:
 234 011c 832A414D 		lw	s5,1236(sp)
 235              		.cfi_restore 21
 236              	.LVL15:
 237 0120 032B014D 		lw	s6,1232(sp)
 238              		.cfi_restore 22
 239              	.LVL16:
 240 0124 1301014F 		addi	sp,sp,1264
 241              	.LCFI3:
 242              		.cfi_def_cfa_offset 0
 243              	.LVL17:
 244 0128 8280     		jr	ra
 245              	.LVL18:
 246              	.L7:
 247 012a 8280     		ret
 248              		.cfi_endproc
 249              	.LFE6:
 251              		.section	.text.updatePlantStatus,"ax",@progbits
 252              		.align	1
 253              		.globl	updatePlantStatus
 255              	updatePlantStatus:
 256              	.LFB8:
  63:plant.c       **** 
  64:plant.c       **** // plantID används inte förräns vi löst MUX osv. När det är gjort kommer värdet vidarebefodr
  65:plant.c       **** void updatePlantReadings(Plant *plant, SensorType type, int plantID)
  66:plant.c       **** {
  67:plant.c       ****   if (type == SUN)
  68:plant.c       ****   {
  69:plant.c       ****     //int currentValue = readLightSensor(ADC0, ADC_FLAG_EOC);
  70:plant.c       ****     int currentValue = ADC_read(1);
  71:plant.c       ****     if (currentValue < 0)
  72:plant.c       ****       currentValue = 0;
  73:plant.c       ****     if (plant->numberOfSunReadings <= MAX_SUN_READINGS)
  74:plant.c       ****     {
  75:plant.c       ****       // vi ska ta averagevärde för sol för att undvika för många värden. delar på 30 efters
  76:plant.c       ****       // och vi vill uppnå ett värde som representerar hela minutens genomsnitt. Detta är dock p
  77:plant.c       ****       plant->sun[plant->numberOfSunReadings - 1].reading += currentValue / 30;
  78:plant.c       ****       int32_t currentTime = rtc_counter_get();
  79:plant.c       ****       plant->sun[plant->numberOfSunReadings - 1].timeStamp = currentTime;
  80:plant.c       ****       // Special för ljus. Om detta är första värdet som tas så har vi precis bootat. Isåfall
  81:plant.c       ****       if (plant->numberOfSunReadings == 1)
  82:plant.c       ****       {
  83:plant.c       ****         if (currentTime >= 1800)
GAS LISTING /var/folders/rt/4gvqv631095f64jvm7jfj_000000gn/T//ccUtSSg3.s 			page 8


  84:plant.c       ****           (plant->numberOfSunReadings)++;
  85:plant.c       ****       }
  86:plant.c       ****       // Om det inte är första värdet så kan vi bara jämföra med timeStampen innan
  87:plant.c       ****       else if (plant->sun[plant->numberOfSunReadings - 1].timeStamp - plant->sun[plant->numberOfSun
  88:plant.c       ****         (plant->numberOfSunReadings)++;
  89:plant.c       ****     }
  90:plant.c       **** 
  91:plant.c       ****     if (plant->numberOfSunReadings == MAX_SUN_READINGS)
  92:plant.c       ****     {
  93:plant.c       ****       // Dags för reset: 48 värden för dygnet har uppnåtts.
  94:plant.c       ****       int averageValueThisDay = 0;
  95:plant.c       ****       for (int i = 0; i < MAX_SUN_READINGS; i++)
  96:plant.c       ****       {
  97:plant.c       ****         averageValueThisDay += plant->sun[i].reading;
  98:plant.c       ****       }
  99:plant.c       ****       plant->numberOfSunReadings = 1;
 100:plant.c       **** 
 101:plant.c       ****       averageValueThisDay /= MAX_SUN_READINGS;
 102:plant.c       ****       // Flytta nuvarande värden så att senaste värde ligger först
 103:plant.c       ****       for (int i = AVG_HISTORY_DAYS-1; i > 0; i--)
 104:plant.c       ****       {
 105:plant.c       ****         plant->sunHistory[i] = plant->sunHistory[i - 1];
 106:plant.c       ****       }
 107:plant.c       ****       plant->sunHistory[0] = averageValueThisDay;
 108:plant.c       ****       // Öka antal sparade värden om de inte redan är max
 109:plant.c       ****       if (plant->numberOfSunHistory < AVG_HISTORY_DAYS)
 110:plant.c       ****         (plant->numberOfSunHistory)++;
 111:plant.c       ****     }
 112:plant.c       ****   }
 113:plant.c       ****    // SE KOMMENTARER FÖR SOL-SENSOR OVAN FÖR BESKRIVNING - SNARLIK PROCEDUR!
 114:plant.c       ****   else if (type == MOISTURE)
 115:plant.c       ****   {
 116:plant.c       ****     int currentValue = (int) ADC_read(3);
 117:plant.c       ****     if (currentValue < 0)
 118:plant.c       ****       currentValue = 0;
 119:plant.c       ****  
 120:plant.c       ****       if (plant->numberOfMoistureReadings <= MAX_MOISTURE_READINGS)
 121:plant.c       ****     {
 122:plant.c       ****       plant->moisture[plant->numberOfMoistureReadings - 1].reading = currentValue;
 123:plant.c       ****       int32_t currentTime = rtc_counter_get();
 124:plant.c       ****       plant->moisture[plant->numberOfMoistureReadings - 1].timeStamp = currentTime;
 125:plant.c       ****     }
 126:plant.c       **** 
 127:plant.c       ****     if (plant->numberOfMoistureReadings == MAX_MOISTURE_READINGS)
 128:plant.c       ****     {
 129:plant.c       ****       int averageValueThisDay = 0;
 130:plant.c       ****       for (int i = 0; i < MAX_MOISTURE_READINGS; i++)
 131:plant.c       ****       {
 132:plant.c       ****         averageValueThisDay += plant->moisture[i].reading;
 133:plant.c       ****       }
 134:plant.c       ****       plant->numberOfMoistureReadings = 1;
 135:plant.c       ****       averageValueThisDay /= MAX_MOISTURE_READINGS;
 136:plant.c       ****       for (int i = AVG_HISTORY_DAYS -1; i > 0; i--)
 137:plant.c       ****       {
 138:plant.c       ****         plant->moistHistory[i] = plant->moistHistory[i - 1];
 139:plant.c       ****       }
 140:plant.c       ****       plant->moistHistory[0] = averageValueThisDay;
GAS LISTING /var/folders/rt/4gvqv631095f64jvm7jfj_000000gn/T//ccUtSSg3.s 			page 9


 141:plant.c       ****       if (plant->numberOfMoistureHistory < AVG_HISTORY_DAYS)
 142:plant.c       ****         (plant->numberOfMoistureHistory)++;
 143:plant.c       ****     }
 144:plant.c       ****   }
 145:plant.c       ****   else if (type == TEMPERATURE)
 146:plant.c       ****   {
 147:plant.c       ****     int currentValue = (int) read_temp();
 148:plant.c       ****     if (currentValue < 0)
 149:plant.c       ****       currentValue = 0;
 150:plant.c       **** 
 151:plant.c       ****     if (plant->numberOfTempReadings <= MAX_TEMP_READINGS)
 152:plant.c       ****     {
 153:plant.c       ****       plant->temp[plant->numberOfTempReadings - 1].reading = currentValue;
 154:plant.c       ****       int32_t currentTime = rtc_counter_get();
 155:plant.c       ****       plant->temp[plant->numberOfTempReadings - 1].timeStamp = currentTime;
 156:plant.c       ****     }
 157:plant.c       **** 
 158:plant.c       ****     if (plant->numberOfTempReadings == MAX_TEMP_READINGS)
 159:plant.c       ****     {
 160:plant.c       ****       int averageValueThisDay = 0;
 161:plant.c       ****       for (int i = 0; i < MAX_TEMP_READINGS; i++)
 162:plant.c       ****       {
 163:plant.c       ****         averageValueThisDay += plant->temp[i].reading;
 164:plant.c       ****       }
 165:plant.c       ****       plant->numberOfTempReadings = 1;
 166:plant.c       ****       averageValueThisDay /= MAX_TEMP_READINGS;
 167:plant.c       ****       for (int i = AVG_HISTORY_DAYS -1; i > 0; i--)
 168:plant.c       ****       {
 169:plant.c       ****         plant->tempHistory[i] = plant->tempHistory[i - 1];
 170:plant.c       ****       }
 171:plant.c       ****       plant->tempHistory[0] = averageValueThisDay;
 172:plant.c       ****       if (plant->numberOfTempHistory < AVG_HISTORY_DAYS)
 173:plant.c       ****         (plant->numberOfTempHistory)++;
 174:plant.c       ****     }
 175:plant.c       ****   }
 176:plant.c       ****   updatePlantStatus(plant);
 177:plant.c       **** }
 178:plant.c       **** 
 179:plant.c       **** void updatePlantStatus(Plant *plant)
 180:plant.c       **** {
 257              		.loc 1 180 1 is_stmt 1
 258              		.cfi_startproc
 259              	.LVL19:
 181:plant.c       ****   if (plant->sun[plant->numberOfSunReadings - 1].reading > plant->highSun)
 260              		.loc 1 181 3
 261              		.loc 1 181 49 is_stmt 0
 262 0000 83274532 		lw	a5,804(a0)
 263              		.loc 1 181 6
 264 0004 0327854C 		lw	a4,1224(a0)
 265              		.loc 1 181 49
 266 0008 ED07     		addi	a5,a5,27
 267 000a 8E07     		slli	a5,a5,3
 268 000c AA97     		add	a5,a0,a5
 269 000e DC43     		lw	a5,4(a5)
 270              		.loc 1 181 6
 271 0010 6350F702 		ble	a5,a4,.L11
 182:plant.c       ****   {
GAS LISTING /var/folders/rt/4gvqv631095f64jvm7jfj_000000gn/T//ccUtSSg3.s 			page 10


 183:plant.c       ****     STR_COPY(plant->currentStatus, "BEHÖVER SKUGGA");
 272              		.loc 1 183 5 is_stmt 1
 273 0014 B7060000 		lui	a3,%hi(.LC2)
 274 0018 37060000 		lui	a2,%hi(.LC0)
 275 001c 93860600 		addi	a3,a3,%lo(.LC2)
 276 0020 13060600 		addi	a2,a2,%lo(.LC0)
 277 0024 BD45     		li	a1,15
 278 0026 3D05     		addi	a0,a0,15
 279              	.LVL20:
 280 0028 17030000 		tail	snprintf
 280      67000300 
 281              	.LVL21:
 282              	.L11:
 184:plant.c       ****   }
 185:plant.c       ****   else if (plant->sun[plant->numberOfSunReadings - 1].reading < plant->lowSun)
 283              		.loc 1 185 8
 284              		.loc 1 185 11 is_stmt 0
 285 0030 0327C54B 		lw	a4,1212(a0)
 286 0034 63DBE700 		bge	a5,a4,.L10
 287              	.LVL22:
 288              	.LBB6:
 289              	.LBB7:
 186:plant.c       ****   {
 187:plant.c       ****     STR_COPY(plant->currentStatus, "BEHÖVER LJUS");
 290              		.loc 1 187 5 is_stmt 1
 291 0038 B7050000 		lui	a1,%hi(.LC3)
 292 003c 93850500 		addi	a1,a1,%lo(.LC3)
 293 0040 3D05     		addi	a0,a0,15
 294              	.LVL23:
 295 0042 17030000 		tail	strcpy
 295      67000300 
 296              	.LVL24:
 297              	.L10:
 298              	.LBE7:
 299              	.LBE6:
 188:plant.c       ****   }
 189:plant.c       **** }
 300              		.loc 1 189 1 is_stmt 0
 301 004a 8280     		ret
 302              		.cfi_endproc
 303              	.LFE8:
 305              		.globl	__fixsfsi
 306              		.section	.text.updatePlantReadings,"ax",@progbits
 307              		.align	1
 308              		.globl	updatePlantReadings
 310              	updatePlantReadings:
 311              	.LFB7:
  66:plant.c       ****   if (type == SUN)
 312              		.loc 1 66 1 is_stmt 1
 313              		.cfi_startproc
 314              	.LVL25:
  67:plant.c       ****   {
 315              		.loc 1 67 3
  66:plant.c       ****   if (type == SUN)
 316              		.loc 1 66 1 is_stmt 0
 317 0000 4111     		addi	sp,sp,-16
 318              	.LCFI4:
GAS LISTING /var/folders/rt/4gvqv631095f64jvm7jfj_000000gn/T//ccUtSSg3.s 			page 11


 319              		.cfi_def_cfa_offset 16
 320 0002 22C4     		sw	s0,8(sp)
 321 0004 26C2     		sw	s1,4(sp)
 322 0006 06C6     		sw	ra,12(sp)
 323              		.cfi_offset 8, -8
 324              		.cfi_offset 9, -12
 325              		.cfi_offset 1, -4
  67:plant.c       ****   {
 326              		.loc 1 67 6
 327 0008 8547     		li	a5,1
  66:plant.c       ****   if (type == SUN)
 328              		.loc 1 66 1
 329 000a 2A84     		mv	s0,a0
 330 000c AE84     		mv	s1,a1
  67:plant.c       ****   {
 331              		.loc 1 67 6
 332 000e 6399F50C 		bne	a1,a5,.L14
 333              	.LBB8:
  70:plant.c       ****     if (currentValue < 0)
 334              		.loc 1 70 5 is_stmt 1
  70:plant.c       ****     if (currentValue < 0)
 335              		.loc 1 70 24 is_stmt 0
 336 0012 0545     		li	a0,1
 337              	.LVL26:
 338 0014 97000000 		call	ADC_read
 338      E7800000 
 339              	.LVL27:
  71:plant.c       ****       currentValue = 0;
 340              		.loc 1 71 5 is_stmt 1
  73:plant.c       ****     {
 341              		.loc 1 73 5
  73:plant.c       ****     {
 342              		.loc 1 73 14 is_stmt 0
 343 001c 83274432 		lw	a5,804(s0)
  73:plant.c       ****     {
 344              		.loc 1 73 8
 345 0020 13070003 		li	a4,48
 346 0024 6340F704 		bgt	a5,a4,.L21
 347              	.LBB9:
  77:plant.c       ****       int32_t currentTime = rtc_counter_get();
 348              		.loc 1 77 7 is_stmt 1
  77:plant.c       ****       int32_t currentTime = rtc_counter_get();
 349              		.loc 1 77 74 is_stmt 0
 350 0028 7947     		li	a4,30
 351 002a 3347E502 		div	a4,a0,a4
 352 002e 8E07     		slli	a5,a5,3
 353 0030 A297     		add	a5,s0,a5
  77:plant.c       ****       int32_t currentTime = rtc_counter_get();
 354              		.loc 1 77 58
 355 0032 03A5C70D 		lw	a0,220(a5)
 356              	.LVL28:
 357 0036 3A95     		add	a0,a0,a4
 358 0038 23AEA70C 		sw	a0,220(a5)
  78:plant.c       ****       plant->sun[plant->numberOfSunReadings - 1].timeStamp = currentTime;
 359              		.loc 1 78 7 is_stmt 1
  78:plant.c       ****       plant->sun[plant->numberOfSunReadings - 1].timeStamp = currentTime;
 360              		.loc 1 78 29 is_stmt 0
GAS LISTING /var/folders/rt/4gvqv631095f64jvm7jfj_000000gn/T//ccUtSSg3.s 			page 12


 361 003c 97000000 		call	rtc_counter_get
 361      E7800000 
 362              	.LVL29:
  79:plant.c       ****       // Special för ljus. Om detta är första värdet som tas så har vi precis bootat. Isåfall
 363              		.loc 1 79 7 is_stmt 1
  79:plant.c       ****       // Special för ljus. Om detta är första värdet som tas så har vi precis bootat. Isåfall
 364              		.loc 1 79 23 is_stmt 0
 365 0044 83274432 		lw	a5,804(s0)
 366 0048 13973700 		slli	a4,a5,3
 367 004c 2297     		add	a4,s0,a4
  79:plant.c       ****       // Special för ljus. Om detta är första värdet som tas så har vi precis bootat. Isåfall
 368              		.loc 1 79 60
 369 004e 232CA70C 		sw	a0,216(a4)
  81:plant.c       ****       {
 370              		.loc 1 81 7 is_stmt 1
  81:plant.c       ****       {
 371              		.loc 1 81 10 is_stmt 0
 372 0052 63929702 		bne	a5,s1,.L16
  83:plant.c       ****           (plant->numberOfSunReadings)++;
 373              		.loc 1 83 9 is_stmt 1
  83:plant.c       ****           (plant->numberOfSunReadings)++;
 374              		.loc 1 83 12 is_stmt 0
 375 0056 93077070 		li	a5,1799
 376 005a 63D5A700 		ble	a0,a5,.L21
  84:plant.c       ****       }
 377              		.loc 1 84 11 is_stmt 1
  84:plant.c       ****       }
 378              		.loc 1 84 39 is_stmt 0
 379 005e 8947     		li	a5,2
 380 0060 2322F432 		sw	a5,804(s0)
 381              	.LVL30:
 382              	.L21:
 383              	.LBE9:
 384              	.LBE8:
 176:plant.c       **** }
 385              		.loc 1 176 3 is_stmt 1
 386 0064 2285     		mv	a0,s0
 177:plant.c       **** 
 387              		.loc 1 177 1 is_stmt 0
 388 0066 2244     		lw	s0,8(sp)
 389              		.cfi_remember_state
 390              		.cfi_restore 8
 391              	.LVL31:
 392 0068 B240     		lw	ra,12(sp)
 393              		.cfi_restore 1
 394 006a 9244     		lw	s1,4(sp)
 395              		.cfi_restore 9
 396 006c 4101     		addi	sp,sp,16
 397              	.LCFI5:
 398              		.cfi_def_cfa_offset 0
 176:plant.c       **** }
 399              		.loc 1 176 3
 400 006e 17030000 		tail	updatePlantStatus
 400      67000300 
 401              	.LVL32:
 402              	.L16:
 403              	.LCFI6:
GAS LISTING /var/folders/rt/4gvqv631095f64jvm7jfj_000000gn/T//ccUtSSg3.s 			page 13


 404              		.cfi_restore_state
 405              	.LBB14:
 406              	.LBB10:
  87:plant.c       ****         (plant->numberOfSunReadings)++;
 407              		.loc 1 87 12 is_stmt 1
  87:plant.c       ****         (plant->numberOfSunReadings)++;
 408              		.loc 1 87 69 is_stmt 0
 409 0076 0327070D 		lw	a4,208(a4)
 410 007a 198D     		sub	a0,a0,a4
 411              	.LVL33:
  87:plant.c       ****         (plant->numberOfSunReadings)++;
 412              		.loc 1 87 15
 413 007c 13077070 		li	a4,1799
 414 0080 6375A700 		bleu	a0,a4,.L18
  88:plant.c       ****     }
 415              		.loc 1 88 9 is_stmt 1
  88:plant.c       ****     }
 416              		.loc 1 88 37 is_stmt 0
 417 0084 8507     		addi	a5,a5,1
 418              	.LVL34:
 419 0086 2322F432 		sw	a5,804(s0)
 420              	.LVL35:
 421              	.L18:
 422              	.LBE10:
  91:plant.c       ****     {
 423              		.loc 1 91 5 is_stmt 1
  91:plant.c       ****     {
 424              		.loc 1 91 8 is_stmt 0
 425 008a 03274432 		lw	a4,804(s0)
 426 008e 93070003 		li	a5,48
 427 0092 E319F7FC 		bne	a4,a5,.L21
 428 0096 1307440E 		addi	a4,s0,228
 429 009a 93064426 		addi	a3,s0,612
 430              	.LBB11:
  94:plant.c       ****       for (int i = 0; i < MAX_SUN_READINGS; i++)
 431              		.loc 1 94 11
 432 009e 8147     		li	a5,0
 433              	.L19:
 434              	.LVL36:
 435              	.LBB12:
  97:plant.c       ****       }
 436              		.loc 1 97 9 is_stmt 1 discriminator 3
  97:plant.c       ****       }
 437              		.loc 1 97 29 is_stmt 0 discriminator 3
 438 00a0 1043     		lw	a2,0(a4)
 439 00a2 2107     		addi	a4,a4,8
 440 00a4 B297     		add	a5,a5,a2
 441              	.LVL37:
  95:plant.c       ****       {
 442              		.loc 1 95 7 discriminator 3
 443 00a6 E39DE6FE 		bne	a3,a4,.L19
 444              	.LBE12:
  99:plant.c       **** 
 445              		.loc 1 99 7 is_stmt 1
  99:plant.c       **** 
 446              		.loc 1 99 34 is_stmt 0
 447 00aa 0547     		li	a4,1
GAS LISTING /var/folders/rt/4gvqv631095f64jvm7jfj_000000gn/T//ccUtSSg3.s 			page 14


 448 00ac 2322E432 		sw	a4,804(s0)
 101:plant.c       ****       // Flytta nuvarande värden så att senaste värde ligger först
 449              		.loc 1 101 7 is_stmt 1
 101:plant.c       ****       // Flytta nuvarande värden så att senaste värde ligger först
 450              		.loc 1 101 27 is_stmt 0
 451 00b0 13070003 		li	a4,48
 452 00b4 B3C7E702 		div	a5,a5,a4
 453              	.LVL38:
 103:plant.c       ****       {
 454              		.loc 1 103 7 is_stmt 1
 455              	.LBB13:
 103:plant.c       ****       {
 456              		.loc 1 103 12
 457 00b8 9306043A 		addi	a3,s0,928
 458 00bc 13074441 		addi	a4,s0,1044
 459              	.LVL39:
 460              	.L20:
 105:plant.c       ****       }
 461              		.loc 1 105 9 discriminator 3
 105:plant.c       ****       }
 462              		.loc 1 105 30 is_stmt 0 discriminator 3
 463 00c0 1043     		lw	a2,0(a4)
 464 00c2 7117     		addi	a4,a4,-4
 465 00c4 10C7     		sw	a2,8(a4)
 103:plant.c       ****       {
 466              		.loc 1 103 7 discriminator 3
 467 00c6 E39DE6FE 		bne	a3,a4,.L20
 468              	.LBE13:
 107:plant.c       ****       // Öka antal sparade värden om de inte redan är max
 469              		.loc 1 107 7 is_stmt 1
 107:plant.c       ****       // Öka antal sparade värden om de inte redan är max
 470              		.loc 1 107 28 is_stmt 0
 471 00ca 2322F43A 		sw	a5,932(s0)
 109:plant.c       ****         (plant->numberOfSunHistory)++;
 472              		.loc 1 109 7 is_stmt 1
 109:plant.c       ****         (plant->numberOfSunHistory)++;
 473              		.loc 1 109 16 is_stmt 0
 474 00ce 83278449 		lw	a5,1176(s0)
 475              	.LVL40:
 109:plant.c       ****         (plant->numberOfSunHistory)++;
 476              		.loc 1 109 10
 477 00d2 7547     		li	a4,29
 478 00d4 E348F7F8 		bgt	a5,a4,.L21
 110:plant.c       ****     }
 479              		.loc 1 110 9 is_stmt 1
 110:plant.c       ****     }
 480              		.loc 1 110 36 is_stmt 0
 481 00d8 8507     		addi	a5,a5,1
 482 00da 232CF448 		sw	a5,1176(s0)
 483 00de 59B7     		j	.L21
 484              	.LVL41:
 485              	.L14:
 486              	.LBE11:
 487              	.LBE14:
 114:plant.c       ****   {
 488              		.loc 1 114 8 is_stmt 1
 114:plant.c       ****   {
GAS LISTING /var/folders/rt/4gvqv631095f64jvm7jfj_000000gn/T//ccUtSSg3.s 			page 15


 489              		.loc 1 114 11 is_stmt 0
 490 00e0 C1E1     		bne	a1,zero,.L22
 491              	.LBB15:
 116:plant.c       ****     if (currentValue < 0)
 492              		.loc 1 116 5 is_stmt 1
 116:plant.c       ****     if (currentValue < 0)
 493              		.loc 1 116 30 is_stmt 0
 494 00e2 0D45     		li	a0,3
 495 00e4 97000000 		call	ADC_read
 495      E7800000 
 496              	.LVL42:
 117:plant.c       ****       currentValue = 0;
 497              		.loc 1 117 5 is_stmt 1
 120:plant.c       ****     {
 498              		.loc 1 120 7
 120:plant.c       ****     {
 499              		.loc 1 120 16 is_stmt 0
 500 00ec 83270432 		lw	a5,800(s0)
 120:plant.c       ****     {
 501              		.loc 1 120 10
 502 00f0 E144     		li	s1,24
 503              	.LVL43:
 504 00f2 E3C9F4F6 		bgt	a5,s1,.L21
 505              	.LBB16:
 122:plant.c       ****       int32_t currentTime = rtc_counter_get();
 506              		.loc 1 122 7 is_stmt 1
 122:plant.c       ****       int32_t currentTime = rtc_counter_get();
 507              		.loc 1 122 68 is_stmt 0
 508 00f6 8D07     		addi	a5,a5,3
 509 00f8 8E07     		slli	a5,a5,3
 510 00fa A297     		add	a5,s0,a5
 511              	.LBE16:
 116:plant.c       ****     if (currentValue < 0)
 512              		.loc 1 116 9
 513 00fc C8C3     		sw	a0,4(a5)
 514              	.LBB17:
 123:plant.c       ****       plant->moisture[plant->numberOfMoistureReadings - 1].timeStamp = currentTime;
 515              		.loc 1 123 7 is_stmt 1
 123:plant.c       ****       plant->moisture[plant->numberOfMoistureReadings - 1].timeStamp = currentTime;
 516              		.loc 1 123 29 is_stmt 0
 517 00fe 97000000 		call	rtc_counter_get
 517      E7800000 
 518              	.LVL44:
 124:plant.c       ****     }
 519              		.loc 1 124 7 is_stmt 1
 124:plant.c       ****     }
 520              		.loc 1 124 28 is_stmt 0
 521 0106 03270432 		lw	a4,800(s0)
 124:plant.c       ****     }
 522              		.loc 1 124 70
 523 010a 93073700 		addi	a5,a4,3
 524 010e 8E07     		slli	a5,a5,3
 525 0110 A297     		add	a5,s0,a5
 526 0112 88C3     		sw	a0,0(a5)
 527              	.LBE17:
 127:plant.c       ****     {
 528              		.loc 1 127 5 is_stmt 1
GAS LISTING /var/folders/rt/4gvqv631095f64jvm7jfj_000000gn/T//ccUtSSg3.s 			page 16


 127:plant.c       ****     {
 529              		.loc 1 127 8 is_stmt 0
 530 0114 E31897F4 		bne	a4,s1,.L21
 531 0118 13074402 		addi	a4,s0,36
 532 011c 9306440E 		addi	a3,s0,228
 533              	.LBB18:
 129:plant.c       ****       for (int i = 0; i < MAX_MOISTURE_READINGS; i++)
 534              		.loc 1 129 11
 535 0120 8147     		li	a5,0
 536              	.L23:
 537              	.LVL45:
 538              	.LBB19:
 132:plant.c       ****       }
 539              		.loc 1 132 9 is_stmt 1 discriminator 3
 132:plant.c       ****       }
 540              		.loc 1 132 29 is_stmt 0 discriminator 3
 541 0122 1043     		lw	a2,0(a4)
 542 0124 2107     		addi	a4,a4,8
 543 0126 B297     		add	a5,a5,a2
 544              	.LVL46:
 130:plant.c       ****       {
 545              		.loc 1 130 7 discriminator 3
 546 0128 E39DE6FE 		bne	a3,a4,.L23
 547              	.LBE19:
 134:plant.c       ****       averageValueThisDay /= MAX_MOISTURE_READINGS;
 548              		.loc 1 134 7 is_stmt 1
 134:plant.c       ****       averageValueThisDay /= MAX_MOISTURE_READINGS;
 549              		.loc 1 134 39 is_stmt 0
 550 012c 0547     		li	a4,1
 551 012e 2320E432 		sw	a4,800(s0)
 135:plant.c       ****       for (int i = AVG_HISTORY_DAYS -1; i > 0; i--)
 552              		.loc 1 135 7 is_stmt 1
 135:plant.c       ****       for (int i = AVG_HISTORY_DAYS -1; i > 0; i--)
 553              		.loc 1 135 27 is_stmt 0
 554 0132 6147     		li	a4,24
 555 0134 B3C7E702 		div	a5,a5,a4
 556              	.LVL47:
 136:plant.c       ****       {
 557              		.loc 1 136 7 is_stmt 1
 558              	.LBB20:
 136:plant.c       ****       {
 559              		.loc 1 136 12
 560 0138 93068432 		addi	a3,s0,808
 561 013c 1307C439 		addi	a4,s0,924
 562              	.LVL48:
 563              	.L24:
 138:plant.c       ****       }
 564              		.loc 1 138 9 discriminator 3
 138:plant.c       ****       }
 565              		.loc 1 138 32 is_stmt 0 discriminator 3
 566 0140 1043     		lw	a2,0(a4)
 567 0142 7117     		addi	a4,a4,-4
 568 0144 10C7     		sw	a2,8(a4)
 136:plant.c       ****       {
 569              		.loc 1 136 7 discriminator 3
 570 0146 E31DD7FE 		bne	a4,a3,.L24
 571              	.LBE20:
GAS LISTING /var/folders/rt/4gvqv631095f64jvm7jfj_000000gn/T//ccUtSSg3.s 			page 17


 140:plant.c       ****       if (plant->numberOfMoistureHistory < AVG_HISTORY_DAYS)
 572              		.loc 1 140 7 is_stmt 1
 140:plant.c       ****       if (plant->numberOfMoistureHistory < AVG_HISTORY_DAYS)
 573              		.loc 1 140 30 is_stmt 0
 574 014a 2326F432 		sw	a5,812(s0)
 141:plant.c       ****         (plant->numberOfMoistureHistory)++;
 575              		.loc 1 141 7 is_stmt 1
 141:plant.c       ****         (plant->numberOfMoistureHistory)++;
 576              		.loc 1 141 16 is_stmt 0
 577 014e 83274449 		lw	a5,1172(s0)
 578              	.LVL49:
 141:plant.c       ****         (plant->numberOfMoistureHistory)++;
 579              		.loc 1 141 10
 580 0152 7547     		li	a4,29
 581 0154 E348F7F0 		bgt	a5,a4,.L21
 142:plant.c       ****     }
 582              		.loc 1 142 9 is_stmt 1
 142:plant.c       ****     }
 583              		.loc 1 142 41 is_stmt 0
 584 0158 8507     		addi	a5,a5,1
 585 015a 232AF448 		sw	a5,1172(s0)
 586 015e 19B7     		j	.L21
 587              	.LVL50:
 588              	.L22:
 589              	.LBE18:
 590              	.LBE15:
 145:plant.c       ****   {
 591              		.loc 1 145 8 is_stmt 1
 145:plant.c       ****   {
 592              		.loc 1 145 11 is_stmt 0
 593 0160 8947     		li	a5,2
 594 0162 E391F5F0 		bne	a1,a5,.L21
 595              	.LBB21:
 147:plant.c       ****     if (currentValue < 0)
 596              		.loc 1 147 5 is_stmt 1
 147:plant.c       ****     if (currentValue < 0)
 597              		.loc 1 147 30 is_stmt 0
 598 0166 97000000 		call	read_temp
 598      E7800000 
 599              	.LVL51:
 148:plant.c       ****       currentValue = 0;
 600              		.loc 1 148 5 is_stmt 1
 151:plant.c       ****     {
 601              		.loc 1 151 5
 151:plant.c       ****     {
 602              		.loc 1 151 14 is_stmt 0
 603 016e 83248432 		lw	s1,808(s0)
 604              	.LVL52:
 151:plant.c       ****     {
 605              		.loc 1 151 8
 606 0172 E147     		li	a5,24
 607 0174 E3C897EE 		bgt	s1,a5,.L21
 608              	.LBB22:
 153:plant.c       ****       int32_t currentTime = rtc_counter_get();
 609              		.loc 1 153 7 is_stmt 1
 153:plant.c       ****       int32_t currentTime = rtc_counter_get();
 610              		.loc 1 153 60 is_stmt 0
GAS LISTING /var/folders/rt/4gvqv631095f64jvm7jfj_000000gn/T//ccUtSSg3.s 			page 18


 611 0178 9384B404 		addi	s1,s1,75
 612 017c 8E04     		slli	s1,s1,3
 613              	.LBE22:
 147:plant.c       ****     if (currentValue < 0)
 614              		.loc 1 147 9
 615 017e 97000000 		call	__fixsfsi
 615      E7800000 
 616              	.LVL53:
 617              	.LBB23:
 153:plant.c       ****       int32_t currentTime = rtc_counter_get();
 618              		.loc 1 153 60
 619 0186 A294     		add	s1,s0,s1
 620 0188 63530500 		bge	a0,zero,.L25
 621 018c 0145     		li	a0,0
 622              	.L25:
 623 018e C8C0     		sw	a0,4(s1)
 154:plant.c       ****       plant->temp[plant->numberOfTempReadings - 1].timeStamp = currentTime;
 624              		.loc 1 154 7 is_stmt 1
 154:plant.c       ****       plant->temp[plant->numberOfTempReadings - 1].timeStamp = currentTime;
 625              		.loc 1 154 29 is_stmt 0
 626 0190 97000000 		call	rtc_counter_get
 626      E7800000 
 627              	.LVL54:
 155:plant.c       ****     }
 628              		.loc 1 155 7 is_stmt 1
 155:plant.c       ****     }
 629              		.loc 1 155 24 is_stmt 0
 630 0198 03278432 		lw	a4,808(s0)
 155:plant.c       ****     }
 631              		.loc 1 155 62
 632 019c 9307B704 		addi	a5,a4,75
 633 01a0 8E07     		slli	a5,a5,3
 634 01a2 A297     		add	a5,s0,a5
 635 01a4 88C3     		sw	a0,0(a5)
 636              	.LBE23:
 158:plant.c       ****     {
 637              		.loc 1 158 5 is_stmt 1
 158:plant.c       ****     {
 638              		.loc 1 158 8 is_stmt 0
 639 01a6 E147     		li	a5,24
 640 01a8 E31EF7EA 		bne	a4,a5,.L21
 641 01ac 13074426 		addi	a4,s0,612
 642 01b0 93064432 		addi	a3,s0,804
 643              	.LBB24:
 160:plant.c       ****       for (int i = 0; i < MAX_TEMP_READINGS; i++)
 644              		.loc 1 160 11
 645 01b4 8147     		li	a5,0
 646              	.L26:
 647              	.LVL55:
 648              	.LBB25:
 163:plant.c       ****       }
 649              		.loc 1 163 9 is_stmt 1 discriminator 3
 163:plant.c       ****       }
 650              		.loc 1 163 29 is_stmt 0 discriminator 3
 651 01b6 1043     		lw	a2,0(a4)
 652 01b8 2107     		addi	a4,a4,8
 653 01ba B297     		add	a5,a5,a2
GAS LISTING /var/folders/rt/4gvqv631095f64jvm7jfj_000000gn/T//ccUtSSg3.s 			page 19


 654              	.LVL56:
 161:plant.c       ****       {
 655              		.loc 1 161 7 discriminator 3
 656 01bc E31DD7FE 		bne	a4,a3,.L26
 657              	.LBE25:
 165:plant.c       ****       averageValueThisDay /= MAX_TEMP_READINGS;
 658              		.loc 1 165 7 is_stmt 1
 165:plant.c       ****       averageValueThisDay /= MAX_TEMP_READINGS;
 659              		.loc 1 165 35 is_stmt 0
 660 01c0 0547     		li	a4,1
 661 01c2 2324E432 		sw	a4,808(s0)
 166:plant.c       ****       for (int i = AVG_HISTORY_DAYS -1; i > 0; i--)
 662              		.loc 1 166 7 is_stmt 1
 166:plant.c       ****       for (int i = AVG_HISTORY_DAYS -1; i > 0; i--)
 663              		.loc 1 166 27 is_stmt 0
 664 01c6 6147     		li	a4,24
 665 01c8 B3C7E702 		div	a5,a5,a4
 666              	.LVL57:
 167:plant.c       ****       {
 667              		.loc 1 167 7 is_stmt 1
 668              	.LBB26:
 167:plant.c       ****       {
 669              		.loc 1 167 12
 670 01cc 93068441 		addi	a3,s0,1048
 671 01d0 1307C448 		addi	a4,s0,1164
 672              	.LVL58:
 673              	.L27:
 169:plant.c       ****       }
 674              		.loc 1 169 9 discriminator 3
 169:plant.c       ****       }
 675              		.loc 1 169 31 is_stmt 0 discriminator 3
 676 01d4 1043     		lw	a2,0(a4)
 677 01d6 7117     		addi	a4,a4,-4
 678 01d8 10C7     		sw	a2,8(a4)
 167:plant.c       ****       {
 679              		.loc 1 167 7 discriminator 3
 680 01da E31DD7FE 		bne	a4,a3,.L27
 681              	.LBE26:
 171:plant.c       ****       if (plant->numberOfTempHistory < AVG_HISTORY_DAYS)
 682              		.loc 1 171 7 is_stmt 1
 171:plant.c       ****       if (plant->numberOfTempHistory < AVG_HISTORY_DAYS)
 683              		.loc 1 171 29 is_stmt 0
 684 01de 232EF440 		sw	a5,1052(s0)
 172:plant.c       ****         (plant->numberOfTempHistory)++;
 685              		.loc 1 172 7 is_stmt 1
 172:plant.c       ****         (plant->numberOfTempHistory)++;
 686              		.loc 1 172 16 is_stmt 0
 687 01e2 8327C449 		lw	a5,1180(s0)
 688              	.LVL59:
 172:plant.c       ****         (plant->numberOfTempHistory)++;
 689              		.loc 1 172 10
 690 01e6 7547     		li	a4,29
 691 01e8 E34EF7E6 		bgt	a5,a4,.L21
 173:plant.c       ****     }
 692              		.loc 1 173 9 is_stmt 1
 173:plant.c       ****     }
 693              		.loc 1 173 37 is_stmt 0
GAS LISTING /var/folders/rt/4gvqv631095f64jvm7jfj_000000gn/T//ccUtSSg3.s 			page 20


 694 01ec 8507     		addi	a5,a5,1
 695 01ee 232EF448 		sw	a5,1180(s0)
 696 01f2 8DBD     		j	.L21
 697              	.LBE24:
 698              	.LBE21:
 699              		.cfi_endproc
 700              	.LFE7:
 702              		.section	.text.applyGreenFingers,"ax",@progbits
 703              		.align	1
 704              		.globl	applyGreenFingers
 706              	applyGreenFingers:
 707              	.LFB9:
 190:plant.c       **** 
 191:plant.c       **** int applyGreenFingers(Plant allPlants[], int numberOfPlants)
 192:plant.c       **** {
 708              		.loc 1 192 1 is_stmt 1
 709              		.cfi_startproc
 710              	.LVL60:
 193:plant.c       ****   int updateDone = 0;
 711              		.loc 1 193 3
 194:plant.c       ****   uint32_t currentTime = rtc_counter_get();
 712              		.loc 1 194 3
 192:plant.c       ****   int updateDone = 0;
 713              		.loc 1 192 1 is_stmt 0
 714 0000 0111     		addi	sp,sp,-32
 715              	.LCFI7:
 716              		.cfi_def_cfa_offset 32
 717 0002 22CC     		sw	s0,24(sp)
 718 0004 26CA     		sw	s1,20(sp)
 719 0006 4AC8     		sw	s2,16(sp)
 720 0008 4EC6     		sw	s3,12(sp)
 721 000a 06CE     		sw	ra,28(sp)
 722              		.cfi_offset 8, -8
 723              		.cfi_offset 9, -12
 724              		.cfi_offset 18, -16
 725              		.cfi_offset 19, -20
 726              		.cfi_offset 1, -4
 192:plant.c       ****   int updateDone = 0;
 727              		.loc 1 192 1
 728 000c 2A84     		mv	s0,a0
 729 000e 2E89     		mv	s2,a1
 730              		.loc 1 194 26
 731 0010 97000000 		call	rtc_counter_get
 731      E7800000 
 732              	.LVL61:
 733 0018 AA84     		mv	s1,a0
 734              	.LVL62:
 195:plant.c       ****   for (int i = 0; i < numberOfPlants; i++)
 735              		.loc 1 195 3 is_stmt 1
 736              	.LBB27:
 737              		.loc 1 195 8
 738              		.loc 1 195 12 is_stmt 0
 739 001a 8149     		li	s3,0
 740              	.LBE27:
 193:plant.c       ****   uint32_t currentTime = rtc_counter_get();
 741              		.loc 1 193 7
 742 001c 0145     		li	a0,0
GAS LISTING /var/folders/rt/4gvqv631095f64jvm7jfj_000000gn/T//ccUtSSg3.s 			page 21


 743              	.LVL63:
 744              	.L36:
 745              	.LBB28:
 746              		.loc 1 195 3 discriminator 1
 747 001e 63C92901 		blt	s3,s2,.L43
 748              	.LBE28:
 196:plant.c       ****   {
 197:plant.c       ****     if (currentTime - allPlants[i].sun[allPlants[i].numberOfSunReadings - 1].timeStamp >= allPlants
 198:plant.c       ****     {
 199:plant.c       ****       updatePlantReadings(&allPlants[i], SUN, i);
 200:plant.c       ****       updateDone = 1;
 201:plant.c       ****     }
 202:plant.c       **** 
 203:plant.c       ****     if (currentTime - allPlants[i].moisture[allPlants[i].numberOfMoistureReadings - 1].timeStamp >=
 204:plant.c       ****     {
 205:plant.c       ****       updatePlantReadings(&allPlants[i], MOISTURE, i);
 206:plant.c       ****       updateDone = 1;
 207:plant.c       ****     }
 208:plant.c       **** 
 209:plant.c       ****     if (currentTime - allPlants[i].temp[allPlants[i].numberOfTempReadings - 1].timeStamp >= allPlan
 210:plant.c       ****     {
 211:plant.c       ****       updatePlantReadings(&allPlants[i], TEMPERATURE, i);
 212:plant.c       ****       updateDone = 1;
 213:plant.c       ****     }
 214:plant.c       ****   }
 215:plant.c       ****   return updateDone;
 216:plant.c       **** }...
 749              		.loc 1 216 1
 750 0022 F240     		lw	ra,28(sp)
 751              		.cfi_remember_state
 752              		.cfi_restore 1
 753 0024 6244     		lw	s0,24(sp)
 754              		.cfi_restore 8
 755 0026 D244     		lw	s1,20(sp)
 756              		.cfi_restore 9
 757              	.LVL64:
 758 0028 4249     		lw	s2,16(sp)
 759              		.cfi_restore 18
 760              	.LVL65:
 761 002a B249     		lw	s3,12(sp)
 762              		.cfi_restore 19
 763              	.LVL66:
 764 002c 0561     		addi	sp,sp,32
 765              	.LCFI8:
 766              		.cfi_def_cfa_offset 0
 767 002e 8280     		jr	ra
 768              	.LVL67:
 769              	.L43:
 770              	.LCFI9:
 771              		.cfi_restore_state
 772              	.LBB29:
 197:plant.c       ****     if (currentTime - allPlants[i].sun[allPlants[i].numberOfSunReadings - 1].timeStamp >= allPlants
 773              		.loc 1 197 5 is_stmt 1
 197:plant.c       ****     if (currentTime - allPlants[i].sun[allPlants[i].numberOfSunReadings - 1].timeStamp >= allPlants
 774              		.loc 1 197 77 is_stmt 0
 775 0030 83274432 		lw	a5,804(s0)
 197:plant.c       ****     if (currentTime - allPlants[i].sun[allPlants[i].numberOfSunReadings - 1].timeStamp >= allPlants
GAS LISTING /var/folders/rt/4gvqv631095f64jvm7jfj_000000gn/T//ccUtSSg3.s 			page 22


 776              		.loc 1 197 8
 777 0034 0327444A 		lw	a4,1188(s0)
 197:plant.c       ****     if (currentTime - allPlants[i].sun[allPlants[i].numberOfSunReadings - 1].timeStamp >= allPlants
 778              		.loc 1 197 77
 779 0038 ED07     		addi	a5,a5,27
 780 003a 8E07     		slli	a5,a5,3
 781 003c A297     		add	a5,s0,a5
 782 003e 9C43     		lw	a5,0(a5)
 197:plant.c       ****     if (currentTime - allPlants[i].sun[allPlants[i].numberOfSunReadings - 1].timeStamp >= allPlants
 783              		.loc 1 197 21
 784 0040 B386F440 		sub	a3,s1,a5
 197:plant.c       ****     if (currentTime - allPlants[i].sun[allPlants[i].numberOfSunReadings - 1].timeStamp >= allPlants
 785              		.loc 1 197 8
 786 0044 63F3E600 		bgeu	a3,a4,.L37
 197:plant.c       ****     if (currentTime - allPlants[i].sun[allPlants[i].numberOfSunReadings - 1].timeStamp >= allPlants
 787              		.loc 1 197 116 discriminator 1
 788 0048 89EB     		bne	a5,zero,.L38
 789              	.L37:
 199:plant.c       ****       updatePlantReadings(&allPlants[i], SUN, i);
 790              		.loc 1 199 7 is_stmt 1
 791 004a 2285     		mv	a0,s0
 792              	.LVL68:
 793 004c 4E86     		mv	a2,s3
 794 004e 8545     		li	a1,1
 795 0050 97000000 		call	updatePlantReadings
 795      E7800000 
 796              	.LVL69:
 200:plant.c       ****       updateDone = 1;
 797              		.loc 1 200 7
 200:plant.c       ****       updateDone = 1;
 798              		.loc 1 200 18 is_stmt 0
 799 0058 0545     		li	a0,1
 800              	.LVL70:
 801              	.L38:
 203:plant.c       ****     if (currentTime - allPlants[i].moisture[allPlants[i].numberOfMoistureReadings - 1].timeStamp >=
 802              		.loc 1 203 5 is_stmt 1
 203:plant.c       ****     if (currentTime - allPlants[i].moisture[allPlants[i].numberOfMoistureReadings - 1].timeStamp >=
 803              		.loc 1 203 87 is_stmt 0
 804 005a 83270432 		lw	a5,800(s0)
 203:plant.c       ****     if (currentTime - allPlants[i].moisture[allPlants[i].numberOfMoistureReadings - 1].timeStamp >=
 805              		.loc 1 203 8
 806 005e 0327044A 		lw	a4,1184(s0)
 203:plant.c       ****     if (currentTime - allPlants[i].moisture[allPlants[i].numberOfMoistureReadings - 1].timeStamp >=
 807              		.loc 1 203 87
 808 0062 8D07     		addi	a5,a5,3
 809 0064 8E07     		slli	a5,a5,3
 810 0066 A297     		add	a5,s0,a5
 811 0068 9C43     		lw	a5,0(a5)
 203:plant.c       ****     if (currentTime - allPlants[i].moisture[allPlants[i].numberOfMoistureReadings - 1].timeStamp >=
 812              		.loc 1 203 21
 813 006a B386F440 		sub	a3,s1,a5
 203:plant.c       ****     if (currentTime - allPlants[i].moisture[allPlants[i].numberOfMoistureReadings - 1].timeStamp >=
 814              		.loc 1 203 8
 815 006e 63F3E600 		bgeu	a3,a4,.L39
 203:plant.c       ****     if (currentTime - allPlants[i].moisture[allPlants[i].numberOfMoistureReadings - 1].timeStamp >=
 816              		.loc 1 203 128 discriminator 1
 817 0072 89EB     		bne	a5,zero,.L40
GAS LISTING /var/folders/rt/4gvqv631095f64jvm7jfj_000000gn/T//ccUtSSg3.s 			page 23


 818              	.L39:
 205:plant.c       ****       updatePlantReadings(&allPlants[i], MOISTURE, i);
 819              		.loc 1 205 7 is_stmt 1
 820 0074 2285     		mv	a0,s0
 821              	.LVL71:
 822 0076 4E86     		mv	a2,s3
 823 0078 8145     		li	a1,0
 824 007a 97000000 		call	updatePlantReadings
 824      E7800000 
 825              	.LVL72:
 206:plant.c       ****       updateDone = 1;
 826              		.loc 1 206 7
 206:plant.c       ****       updateDone = 1;
 827              		.loc 1 206 18 is_stmt 0
 828 0082 0545     		li	a0,1
 829              	.LVL73:
 830              	.L40:
 209:plant.c       ****     if (currentTime - allPlants[i].temp[allPlants[i].numberOfTempReadings - 1].timeStamp >= allPlan
 831              		.loc 1 209 5 is_stmt 1
 209:plant.c       ****     if (currentTime - allPlants[i].temp[allPlants[i].numberOfTempReadings - 1].timeStamp >= allPlan
 832              		.loc 1 209 79 is_stmt 0
 833 0084 83278432 		lw	a5,808(s0)
 209:plant.c       ****     if (currentTime - allPlants[i].temp[allPlants[i].numberOfTempReadings - 1].timeStamp >= allPlan
 834              		.loc 1 209 8
 835 0088 0327844A 		lw	a4,1192(s0)
 209:plant.c       ****     if (currentTime - allPlants[i].temp[allPlants[i].numberOfTempReadings - 1].timeStamp >= allPlan
 836              		.loc 1 209 79
 837 008c 9387B704 		addi	a5,a5,75
 838 0090 8E07     		slli	a5,a5,3
 839 0092 A297     		add	a5,s0,a5
 840 0094 9C43     		lw	a5,0(a5)
 209:plant.c       ****     if (currentTime - allPlants[i].temp[allPlants[i].numberOfTempReadings - 1].timeStamp >= allPlan
 841              		.loc 1 209 21
 842 0096 B386F440 		sub	a3,s1,a5
 209:plant.c       ****     if (currentTime - allPlants[i].temp[allPlants[i].numberOfTempReadings - 1].timeStamp >= allPlan
 843              		.loc 1 209 8
 844 009a 63F3E600 		bgeu	a3,a4,.L41
 209:plant.c       ****     if (currentTime - allPlants[i].temp[allPlants[i].numberOfTempReadings - 1].timeStamp >= allPlan
 845              		.loc 1 209 119 discriminator 1
 846 009e 89EB     		bne	a5,zero,.L42
 847              	.L41:
 211:plant.c       ****       updatePlantReadings(&allPlants[i], TEMPERATURE, i);
 848              		.loc 1 211 7 is_stmt 1
 849 00a0 2285     		mv	a0,s0
 850              	.LVL74:
 851 00a2 4E86     		mv	a2,s3
 852 00a4 8945     		li	a1,2
 853 00a6 97000000 		call	updatePlantReadings
 853      E7800000 
 854              	.LVL75:
 212:plant.c       ****       updateDone = 1;
 855              		.loc 1 212 7
 212:plant.c       ****       updateDone = 1;
 856              		.loc 1 212 18 is_stmt 0
 857 00ae 0545     		li	a0,1
 858              	.LVL76:
 859              	.L42:
GAS LISTING /var/folders/rt/4gvqv631095f64jvm7jfj_000000gn/T//ccUtSSg3.s 			page 24


 195:plant.c       ****   for (int i = 0; i < numberOfPlants; i++)
 860              		.loc 1 195 40 discriminator 2
 861 00b0 8509     		addi	s3,s3,1
 862              	.LVL77:
 863 00b2 1304044D 		addi	s0,s0,1232
 864 00b6 A5B7     		j	.L36
 865              	.LBE29:
 866              		.cfi_endproc
 867              	.LFE9:
 869              		.section	.rodata.initPlant.str1.4,"aMS",@progbits,1
 870              		.align	2
 871              	.LC0:
 872 0000 257300   		.string	"%s"
 873 0003 00       		.zero	1
 874              	.LC1:
 875 0004 4F4B00   		.string	"OK"
 876              		.section	.rodata.updatePlantStatus.str1.4,"aMS",@progbits,1
 877              		.align	2
 878              	.LC2:
 879 0000 424548C3 		.string	"BEH\303\226VER SKUGGA"
 879      96564552 
 879      20534B55 
 879      47474100 
 880              	.LC3:
 881 0010 424548C3 		.string	"BEH\303\226VER LJUS"
 881      96564552 
 881      204C4A55 
 881      5300
 882              		.text
 883              	.Letext0:
 884              		.file 2 "/Users/alexstrae/toolchain-gd32v-v202-osx/compiler/riscv64-unknown-elf/include/machine/_d
 885              		.file 3 "/Users/alexstrae/toolchain-gd32v-v202-osx/compiler/riscv64-unknown-elf/include/sys/_stdin
 886              		.file 4 "plant.h"
 887              		.file 5 "/Users/alexstrae/toolchain-gd32v-v202-osx/compiler/lib/gcc/riscv64-unknown-elf/8.3.0/incl
 888              		.file 6 "/Users/alexstrae/toolchain-gd32v-v202-osx/compiler/riscv64-unknown-elf/include/sys/_types
 889              		.file 7 "/Users/alexstrae/toolchain-gd32v-v202-osx/compiler/riscv64-unknown-elf/include/sys/reent.
 890              		.file 8 "/Users/alexstrae/toolchain-gd32v-v202-osx/compiler/riscv64-unknown-elf/include/sys/lock.h
 891              		.file 9 "/Users/alexstrae/toolchain-gd32v-v202-osx/compiler/riscv64-unknown-elf/include/stdlib.h"
 892              		.file 10 "../../firmware/GD32VF103_standard_peripheral/system_gd32vf103.h"
 893              		.file 11 "lcd.h"
 894              		.file 12 "../../firmware/GD32VF103_standard_peripheral/Include/gd32vf103_rtc.h"
 895              		.file 13 "adc.h"
 896              		.file 14 "/Users/alexstrae/toolchain-gd32v-v202-osx/compiler/riscv64-unknown-elf/include/stdio.h"
 897              		.file 15 "<built-in>"
GAS LISTING /var/folders/rt/4gvqv631095f64jvm7jfj_000000gn/T//ccUtSSg3.s 			page 25


DEFINED SYMBOLS
                            *ABS*:0000000000000000 plant.c
/var/folders/rt/4gvqv631095f64jvm7jfj_000000gn/T//ccUtSSg3.s:13     .text.initSensorReading:0000000000000000 initSensorReading
/var/folders/rt/4gvqv631095f64jvm7jfj_000000gn/T//ccUtSSg3.s:17     .text.initSensorReading:0000000000000000 .L0 
/var/folders/rt/4gvqv631095f64jvm7jfj_000000gn/T//ccUtSSg3.s:19     .text.initSensorReading:0000000000000000 .L0 
/var/folders/rt/4gvqv631095f64jvm7jfj_000000gn/T//ccUtSSg3.s:20     .text.initSensorReading:0000000000000000 .L0 
/var/folders/rt/4gvqv631095f64jvm7jfj_000000gn/T//ccUtSSg3.s:21     .text.initSensorReading:0000000000000000 .L0 
/var/folders/rt/4gvqv631095f64jvm7jfj_000000gn/T//ccUtSSg3.s:22     .text.initSensorReading:0000000000000000 .L0 
/var/folders/rt/4gvqv631095f64jvm7jfj_000000gn/T//ccUtSSg3.s:23     .text.initSensorReading:0000000000000000 .L0 
/var/folders/rt/4gvqv631095f64jvm7jfj_000000gn/T//ccUtSSg3.s:24     .text.initSensorReading:0000000000000000 .L0 
/var/folders/rt/4gvqv631095f64jvm7jfj_000000gn/T//ccUtSSg3.s:26     .text.initSensorReading:0000000000000002 .L0 
/var/folders/rt/4gvqv631095f64jvm7jfj_000000gn/T//ccUtSSg3.s:28     .text.initSensorReading:0000000000000002 .L0 
/var/folders/rt/4gvqv631095f64jvm7jfj_000000gn/T//ccUtSSg3.s:30     .text.initSensorReading:0000000000000004 .L0 
/var/folders/rt/4gvqv631095f64jvm7jfj_000000gn/T//ccUtSSg3.s:32     .text.initSensorReading:0000000000000006 .L0 
/var/folders/rt/4gvqv631095f64jvm7jfj_000000gn/T//ccUtSSg3.s:39     .text.initPlant:0000000000000000 initPlant
/var/folders/rt/4gvqv631095f64jvm7jfj_000000gn/T//ccUtSSg3.s:42     .text.initPlant:0000000000000000 .L0 
/var/folders/rt/4gvqv631095f64jvm7jfj_000000gn/T//ccUtSSg3.s:44     .text.initPlant:0000000000000000 .L0 
/var/folders/rt/4gvqv631095f64jvm7jfj_000000gn/T//ccUtSSg3.s:45     .text.initPlant:0000000000000000 .L0 
/var/folders/rt/4gvqv631095f64jvm7jfj_000000gn/T//ccUtSSg3.s:46     .text.initPlant:0000000000000000 .L0 
/var/folders/rt/4gvqv631095f64jvm7jfj_000000gn/T//ccUtSSg3.s:50     .text.initPlant:000000000000000a .L0 
/var/folders/rt/4gvqv631095f64jvm7jfj_000000gn/T//ccUtSSg3.s:52     .text.initPlant:000000000000000e .L0 
/var/folders/rt/4gvqv631095f64jvm7jfj_000000gn/T//ccUtSSg3.s:54     .text.initPlant:0000000000000012 .L0 
/var/folders/rt/4gvqv631095f64jvm7jfj_000000gn/T//ccUtSSg3.s:57     .text.initPlant:0000000000000014 .L0 
/var/folders/rt/4gvqv631095f64jvm7jfj_000000gn/T//ccUtSSg3.s:60     .text.initPlant:0000000000000018 .L0 
/var/folders/rt/4gvqv631095f64jvm7jfj_000000gn/T//ccUtSSg3.s:62     .text.initPlant:0000000000000020 .L0 
/var/folders/rt/4gvqv631095f64jvm7jfj_000000gn/T//ccUtSSg3.s:63     .text.initPlant:0000000000000020 .L0 
/var/folders/rt/4gvqv631095f64jvm7jfj_000000gn/T//ccUtSSg3.s:67     .text.initPlant:0000000000000024 .L0 
/var/folders/rt/4gvqv631095f64jvm7jfj_000000gn/T//ccUtSSg3.s:71     .text.initPlant:000000000000002a .L0 
/var/folders/rt/4gvqv631095f64jvm7jfj_000000gn/T//ccUtSSg3.s:72     .text.initPlant:000000000000002a .L0 
/var/folders/rt/4gvqv631095f64jvm7jfj_000000gn/T//ccUtSSg3.s:73     .text.initPlant:000000000000002a .L0 
/var/folders/rt/4gvqv631095f64jvm7jfj_000000gn/T//ccUtSSg3.s:74     .text.initPlant:000000000000002a .L0 
/var/folders/rt/4gvqv631095f64jvm7jfj_000000gn/T//ccUtSSg3.s:75     .text.initPlant:000000000000002a .L0 
/var/folders/rt/4gvqv631095f64jvm7jfj_000000gn/T//ccUtSSg3.s:76     .text.initPlant:000000000000002a .L0 
/var/folders/rt/4gvqv631095f64jvm7jfj_000000gn/T//ccUtSSg3.s:77     .text.initPlant:000000000000002a .L0 
/var/folders/rt/4gvqv631095f64jvm7jfj_000000gn/T//ccUtSSg3.s:82     .text.initPlant:000000000000002e .L0 
/var/folders/rt/4gvqv631095f64jvm7jfj_000000gn/T//ccUtSSg3.s:87     .text.initPlant:0000000000000042 .L0 
/var/folders/rt/4gvqv631095f64jvm7jfj_000000gn/T//ccUtSSg3.s:88     .text.initPlant:0000000000000042 .L0 
/var/folders/rt/4gvqv631095f64jvm7jfj_000000gn/T//ccUtSSg3.s:89     .text.initPlant:0000000000000042 .L0 
/var/folders/rt/4gvqv631095f64jvm7jfj_000000gn/T//ccUtSSg3.s:90     .text.initPlant:0000000000000042 .L0 
/var/folders/rt/4gvqv631095f64jvm7jfj_000000gn/T//ccUtSSg3.s:91     .text.initPlant:0000000000000042 .L0 
/var/folders/rt/4gvqv631095f64jvm7jfj_000000gn/T//ccUtSSg3.s:97     .text.initPlant:000000000000004a .L0 
/var/folders/rt/4gvqv631095f64jvm7jfj_000000gn/T//ccUtSSg3.s:100    .text.initPlant:0000000000000052 .L0 
/var/folders/rt/4gvqv631095f64jvm7jfj_000000gn/T//ccUtSSg3.s:106    .text.initPlant:0000000000000066 .L0 
/var/folders/rt/4gvqv631095f64jvm7jfj_000000gn/T//ccUtSSg3.s:107    .text.initPlant:0000000000000066 .L0 
/var/folders/rt/4gvqv631095f64jvm7jfj_000000gn/T//ccUtSSg3.s:110    .text.initPlant:000000000000006e .L0 
/var/folders/rt/4gvqv631095f64jvm7jfj_000000gn/T//ccUtSSg3.s:112    .text.initPlant:0000000000000072 .L0 
/var/folders/rt/4gvqv631095f64jvm7jfj_000000gn/T//ccUtSSg3.s:114    .text.initPlant:0000000000000076 .L0 
/var/folders/rt/4gvqv631095f64jvm7jfj_000000gn/T//ccUtSSg3.s:116    .text.initPlant:0000000000000078 .L0 
/var/folders/rt/4gvqv631095f64jvm7jfj_000000gn/T//ccUtSSg3.s:118    .text.initPlant:000000000000007a .L0 
/var/folders/rt/4gvqv631095f64jvm7jfj_000000gn/T//ccUtSSg3.s:120    .text.initPlant:000000000000007e .L0 
/var/folders/rt/4gvqv631095f64jvm7jfj_000000gn/T//ccUtSSg3.s:122    .text.initPlant:0000000000000082 .L0 
/var/folders/rt/4gvqv631095f64jvm7jfj_000000gn/T//ccUtSSg3.s:124    .text.initPlant:0000000000000086 .L0 
/var/folders/rt/4gvqv631095f64jvm7jfj_000000gn/T//ccUtSSg3.s:126    .text.initPlant:000000000000008a .L0 
/var/folders/rt/4gvqv631095f64jvm7jfj_000000gn/T//ccUtSSg3.s:128    .text.initPlant:000000000000008e .L0 
/var/folders/rt/4gvqv631095f64jvm7jfj_000000gn/T//ccUtSSg3.s:130    .text.initPlant:0000000000000092 .L0 
/var/folders/rt/4gvqv631095f64jvm7jfj_000000gn/T//ccUtSSg3.s:132    .text.initPlant:0000000000000096 .L0 
/var/folders/rt/4gvqv631095f64jvm7jfj_000000gn/T//ccUtSSg3.s:134    .text.initPlant:000000000000009a .L0 
GAS LISTING /var/folders/rt/4gvqv631095f64jvm7jfj_000000gn/T//ccUtSSg3.s 			page 26


/var/folders/rt/4gvqv631095f64jvm7jfj_000000gn/T//ccUtSSg3.s:136    .text.initPlant:000000000000009e .L0 
/var/folders/rt/4gvqv631095f64jvm7jfj_000000gn/T//ccUtSSg3.s:138    .text.initPlant:00000000000000a2 .L0 
/var/folders/rt/4gvqv631095f64jvm7jfj_000000gn/T//ccUtSSg3.s:140    .text.initPlant:00000000000000a6 .L0 
/var/folders/rt/4gvqv631095f64jvm7jfj_000000gn/T//ccUtSSg3.s:142    .text.initPlant:00000000000000aa .L0 
/var/folders/rt/4gvqv631095f64jvm7jfj_000000gn/T//ccUtSSg3.s:144    .text.initPlant:00000000000000ae .L0 
/var/folders/rt/4gvqv631095f64jvm7jfj_000000gn/T//ccUtSSg3.s:147    .text.initPlant:00000000000000b6 .L0 
/var/folders/rt/4gvqv631095f64jvm7jfj_000000gn/T//ccUtSSg3.s:149    .text.initPlant:00000000000000ba .L0 
/var/folders/rt/4gvqv631095f64jvm7jfj_000000gn/T//ccUtSSg3.s:152    .text.initPlant:00000000000000c0 .L0 
/var/folders/rt/4gvqv631095f64jvm7jfj_000000gn/T//ccUtSSg3.s:154    .text.initPlant:00000000000000c4 .L0 
/var/folders/rt/4gvqv631095f64jvm7jfj_000000gn/T//ccUtSSg3.s:156    .text.initPlant:00000000000000c8 .L0 
/var/folders/rt/4gvqv631095f64jvm7jfj_000000gn/T//ccUtSSg3.s:158    .text.initPlant:00000000000000cc .L0 
/var/folders/rt/4gvqv631095f64jvm7jfj_000000gn/T//ccUtSSg3.s:160    .text.initPlant:00000000000000d0 .L0 
/var/folders/rt/4gvqv631095f64jvm7jfj_000000gn/T//ccUtSSg3.s:162    .text.initPlant:00000000000000d4 .L0 
/var/folders/rt/4gvqv631095f64jvm7jfj_000000gn/T//ccUtSSg3.s:164    .text.initPlant:00000000000000d6 .L0 
/var/folders/rt/4gvqv631095f64jvm7jfj_000000gn/T//ccUtSSg3.s:166    .text.initPlant:00000000000000d8 .L0 
/var/folders/rt/4gvqv631095f64jvm7jfj_000000gn/T//ccUtSSg3.s:168    .text.initPlant:00000000000000da .L0 
/var/folders/rt/4gvqv631095f64jvm7jfj_000000gn/T//ccUtSSg3.s:169    .text.initPlant:00000000000000da .L0 
/var/folders/rt/4gvqv631095f64jvm7jfj_000000gn/T//ccUtSSg3.s:172    .text.initPlant:00000000000000de .L0 
/var/folders/rt/4gvqv631095f64jvm7jfj_000000gn/T//ccUtSSg3.s:173    .text.initPlant:00000000000000de .L0 
/var/folders/rt/4gvqv631095f64jvm7jfj_000000gn/T//ccUtSSg3.s:176    .text.initPlant:00000000000000e6 .L0 
/var/folders/rt/4gvqv631095f64jvm7jfj_000000gn/T//ccUtSSg3.s:177    .text.initPlant:00000000000000e6 .L0 
/var/folders/rt/4gvqv631095f64jvm7jfj_000000gn/T//ccUtSSg3.s:178    .text.initPlant:00000000000000e6 .L0 
/var/folders/rt/4gvqv631095f64jvm7jfj_000000gn/T//ccUtSSg3.s:179    .text.initPlant:00000000000000e6 .L0 
/var/folders/rt/4gvqv631095f64jvm7jfj_000000gn/T//ccUtSSg3.s:180    .text.initPlant:00000000000000e6 .L0 
/var/folders/rt/4gvqv631095f64jvm7jfj_000000gn/T//ccUtSSg3.s:182    .text.initPlant:00000000000000ea .L0 
/var/folders/rt/4gvqv631095f64jvm7jfj_000000gn/T//ccUtSSg3.s:183    .text.initPlant:00000000000000ea .L0 
/var/folders/rt/4gvqv631095f64jvm7jfj_000000gn/T//ccUtSSg3.s:185    .text.initPlant:00000000000000ee .L0 
/var/folders/rt/4gvqv631095f64jvm7jfj_000000gn/T//ccUtSSg3.s:186    .text.initPlant:00000000000000ee .L0 
/var/folders/rt/4gvqv631095f64jvm7jfj_000000gn/T//ccUtSSg3.s:188    .text.initPlant:00000000000000f2 .L0 
/var/folders/rt/4gvqv631095f64jvm7jfj_000000gn/T//ccUtSSg3.s:189    .text.initPlant:00000000000000f2 .L0 
/var/folders/rt/4gvqv631095f64jvm7jfj_000000gn/T//ccUtSSg3.s:190    .text.initPlant:00000000000000f2 .L0 
/var/folders/rt/4gvqv631095f64jvm7jfj_000000gn/T//ccUtSSg3.s:191    .text.initPlant:00000000000000f2 .L0 
/var/folders/rt/4gvqv631095f64jvm7jfj_000000gn/T//ccUtSSg3.s:192    .text.initPlant:00000000000000f2 .L0 
/var/folders/rt/4gvqv631095f64jvm7jfj_000000gn/T//ccUtSSg3.s:193    .text.initPlant:00000000000000f2 .L0 
/var/folders/rt/4gvqv631095f64jvm7jfj_000000gn/T//ccUtSSg3.s:195    .text.initPlant:00000000000000f6 .L0 
/var/folders/rt/4gvqv631095f64jvm7jfj_000000gn/T//ccUtSSg3.s:196    .text.initPlant:00000000000000f6 .L0 
/var/folders/rt/4gvqv631095f64jvm7jfj_000000gn/T//ccUtSSg3.s:197    .text.initPlant:00000000000000f6 .L0 
/var/folders/rt/4gvqv631095f64jvm7jfj_000000gn/T//ccUtSSg3.s:198    .text.initPlant:00000000000000f6 .L0 
/var/folders/rt/4gvqv631095f64jvm7jfj_000000gn/T//ccUtSSg3.s:199    .text.initPlant:00000000000000f6 .L0 
/var/folders/rt/4gvqv631095f64jvm7jfj_000000gn/T//ccUtSSg3.s:200    .text.initPlant:00000000000000f6 .L0 
/var/folders/rt/4gvqv631095f64jvm7jfj_000000gn/T//ccUtSSg3.s:201    .text.initPlant:00000000000000f6 .L0 
/var/folders/rt/4gvqv631095f64jvm7jfj_000000gn/T//ccUtSSg3.s:202    .text.initPlant:00000000000000f6 .L0 
/var/folders/rt/4gvqv631095f64jvm7jfj_000000gn/T//ccUtSSg3.s:203    .text.initPlant:00000000000000f6 .L0 
/var/folders/rt/4gvqv631095f64jvm7jfj_000000gn/T//ccUtSSg3.s:204    .text.initPlant:00000000000000f6 .L0 
/var/folders/rt/4gvqv631095f64jvm7jfj_000000gn/T//ccUtSSg3.s:205    .text.initPlant:00000000000000f6 .L0 
/var/folders/rt/4gvqv631095f64jvm7jfj_000000gn/T//ccUtSSg3.s:206    .text.initPlant:00000000000000f6 .L0 
/var/folders/rt/4gvqv631095f64jvm7jfj_000000gn/T//ccUtSSg3.s:209    .text.initPlant:00000000000000fe .L0 
/var/folders/rt/4gvqv631095f64jvm7jfj_000000gn/T//ccUtSSg3.s:210    .text.initPlant:00000000000000fe .L0 
/var/folders/rt/4gvqv631095f64jvm7jfj_000000gn/T//ccUtSSg3.s:212    .text.initPlant:0000000000000100 .L0 
/var/folders/rt/4gvqv631095f64jvm7jfj_000000gn/T//ccUtSSg3.s:213    .text.initPlant:0000000000000104 .L0 
/var/folders/rt/4gvqv631095f64jvm7jfj_000000gn/T//ccUtSSg3.s:215    .text.initPlant:0000000000000108 .L0 
/var/folders/rt/4gvqv631095f64jvm7jfj_000000gn/T//ccUtSSg3.s:218    .text.initPlant:0000000000000108 .L0 
/var/folders/rt/4gvqv631095f64jvm7jfj_000000gn/T//ccUtSSg3.s:222    .text.initPlant:000000000000010c .L0 
/var/folders/rt/4gvqv631095f64jvm7jfj_000000gn/T//ccUtSSg3.s:223    .text.initPlant:0000000000000110 .L0 
/var/folders/rt/4gvqv631095f64jvm7jfj_000000gn/T//ccUtSSg3.s:226    .text.initPlant:0000000000000114 .L0 
/var/folders/rt/4gvqv631095f64jvm7jfj_000000gn/T//ccUtSSg3.s:229    .text.initPlant:0000000000000118 .L0 
/var/folders/rt/4gvqv631095f64jvm7jfj_000000gn/T//ccUtSSg3.s:232    .text.initPlant:000000000000011c .L0 
GAS LISTING /var/folders/rt/4gvqv631095f64jvm7jfj_000000gn/T//ccUtSSg3.s 			page 27


/var/folders/rt/4gvqv631095f64jvm7jfj_000000gn/T//ccUtSSg3.s:235    .text.initPlant:0000000000000120 .L0 
/var/folders/rt/4gvqv631095f64jvm7jfj_000000gn/T//ccUtSSg3.s:238    .text.initPlant:0000000000000124 .L0 
/var/folders/rt/4gvqv631095f64jvm7jfj_000000gn/T//ccUtSSg3.s:242    .text.initPlant:0000000000000128 .L0 
/var/folders/rt/4gvqv631095f64jvm7jfj_000000gn/T//ccUtSSg3.s:248    .text.initPlant:000000000000012c .L0 
/var/folders/rt/4gvqv631095f64jvm7jfj_000000gn/T//ccUtSSg3.s:255    .text.updatePlantStatus:0000000000000000 updatePlantStatus
/var/folders/rt/4gvqv631095f64jvm7jfj_000000gn/T//ccUtSSg3.s:258    .text.updatePlantStatus:0000000000000000 .L0 
/var/folders/rt/4gvqv631095f64jvm7jfj_000000gn/T//ccUtSSg3.s:260    .text.updatePlantStatus:0000000000000000 .L0 
/var/folders/rt/4gvqv631095f64jvm7jfj_000000gn/T//ccUtSSg3.s:261    .text.updatePlantStatus:0000000000000000 .L0 
/var/folders/rt/4gvqv631095f64jvm7jfj_000000gn/T//ccUtSSg3.s:262    .text.updatePlantStatus:0000000000000000 .L0 
/var/folders/rt/4gvqv631095f64jvm7jfj_000000gn/T//ccUtSSg3.s:264    .text.updatePlantStatus:0000000000000004 .L0 
/var/folders/rt/4gvqv631095f64jvm7jfj_000000gn/T//ccUtSSg3.s:266    .text.updatePlantStatus:0000000000000008 .L0 
/var/folders/rt/4gvqv631095f64jvm7jfj_000000gn/T//ccUtSSg3.s:271    .text.updatePlantStatus:0000000000000010 .L0 
/var/folders/rt/4gvqv631095f64jvm7jfj_000000gn/T//ccUtSSg3.s:273    .text.updatePlantStatus:0000000000000014 .L0 
/var/folders/rt/4gvqv631095f64jvm7jfj_000000gn/T//ccUtSSg3.s:284    .text.updatePlantStatus:0000000000000030 .L0 
/var/folders/rt/4gvqv631095f64jvm7jfj_000000gn/T//ccUtSSg3.s:285    .text.updatePlantStatus:0000000000000030 .L0 
/var/folders/rt/4gvqv631095f64jvm7jfj_000000gn/T//ccUtSSg3.s:291    .text.updatePlantStatus:0000000000000038 .L0 
/var/folders/rt/4gvqv631095f64jvm7jfj_000000gn/T//ccUtSSg3.s:301    .text.updatePlantStatus:000000000000004a .L0 
/var/folders/rt/4gvqv631095f64jvm7jfj_000000gn/T//ccUtSSg3.s:302    .text.updatePlantStatus:000000000000004c .L0 
/var/folders/rt/4gvqv631095f64jvm7jfj_000000gn/T//ccUtSSg3.s:310    .text.updatePlantReadings:0000000000000000 updatePlantReadings
/var/folders/rt/4gvqv631095f64jvm7jfj_000000gn/T//ccUtSSg3.s:313    .text.updatePlantReadings:0000000000000000 .L0 
/var/folders/rt/4gvqv631095f64jvm7jfj_000000gn/T//ccUtSSg3.s:315    .text.updatePlantReadings:0000000000000000 .L0 
/var/folders/rt/4gvqv631095f64jvm7jfj_000000gn/T//ccUtSSg3.s:316    .text.updatePlantReadings:0000000000000000 .L0 
/var/folders/rt/4gvqv631095f64jvm7jfj_000000gn/T//ccUtSSg3.s:317    .text.updatePlantReadings:0000000000000000 .L0 
/var/folders/rt/4gvqv631095f64jvm7jfj_000000gn/T//ccUtSSg3.s:319    .text.updatePlantReadings:0000000000000002 .L0 
/var/folders/rt/4gvqv631095f64jvm7jfj_000000gn/T//ccUtSSg3.s:323    .text.updatePlantReadings:0000000000000008 .L0 
/var/folders/rt/4gvqv631095f64jvm7jfj_000000gn/T//ccUtSSg3.s:324    .text.updatePlantReadings:0000000000000008 .L0 
/var/folders/rt/4gvqv631095f64jvm7jfj_000000gn/T//ccUtSSg3.s:325    .text.updatePlantReadings:0000000000000008 .L0 
/var/folders/rt/4gvqv631095f64jvm7jfj_000000gn/T//ccUtSSg3.s:327    .text.updatePlantReadings:0000000000000008 .L0 
/var/folders/rt/4gvqv631095f64jvm7jfj_000000gn/T//ccUtSSg3.s:329    .text.updatePlantReadings:000000000000000a .L0 
/var/folders/rt/4gvqv631095f64jvm7jfj_000000gn/T//ccUtSSg3.s:332    .text.updatePlantReadings:000000000000000e .L0 
/var/folders/rt/4gvqv631095f64jvm7jfj_000000gn/T//ccUtSSg3.s:335    .text.updatePlantReadings:0000000000000012 .L0 
/var/folders/rt/4gvqv631095f64jvm7jfj_000000gn/T//ccUtSSg3.s:336    .text.updatePlantReadings:0000000000000012 .L0 
/var/folders/rt/4gvqv631095f64jvm7jfj_000000gn/T//ccUtSSg3.s:341    .text.updatePlantReadings:000000000000001c .L0 
/var/folders/rt/4gvqv631095f64jvm7jfj_000000gn/T//ccUtSSg3.s:342    .text.updatePlantReadings:000000000000001c .L0 
/var/folders/rt/4gvqv631095f64jvm7jfj_000000gn/T//ccUtSSg3.s:343    .text.updatePlantReadings:000000000000001c .L0 
/var/folders/rt/4gvqv631095f64jvm7jfj_000000gn/T//ccUtSSg3.s:345    .text.updatePlantReadings:0000000000000020 .L0 
/var/folders/rt/4gvqv631095f64jvm7jfj_000000gn/T//ccUtSSg3.s:349    .text.updatePlantReadings:0000000000000028 .L0 
/var/folders/rt/4gvqv631095f64jvm7jfj_000000gn/T//ccUtSSg3.s:350    .text.updatePlantReadings:0000000000000028 .L0 
/var/folders/rt/4gvqv631095f64jvm7jfj_000000gn/T//ccUtSSg3.s:355    .text.updatePlantReadings:0000000000000032 .L0 
/var/folders/rt/4gvqv631095f64jvm7jfj_000000gn/T//ccUtSSg3.s:360    .text.updatePlantReadings:000000000000003c .L0 
/var/folders/rt/4gvqv631095f64jvm7jfj_000000gn/T//ccUtSSg3.s:361    .text.updatePlantReadings:000000000000003c .L0 
/var/folders/rt/4gvqv631095f64jvm7jfj_000000gn/T//ccUtSSg3.s:364    .text.updatePlantReadings:0000000000000044 .L0 
/var/folders/rt/4gvqv631095f64jvm7jfj_000000gn/T//ccUtSSg3.s:365    .text.updatePlantReadings:0000000000000044 .L0 
/var/folders/rt/4gvqv631095f64jvm7jfj_000000gn/T//ccUtSSg3.s:369    .text.updatePlantReadings:000000000000004e .L0 
/var/folders/rt/4gvqv631095f64jvm7jfj_000000gn/T//ccUtSSg3.s:371    .text.updatePlantReadings:0000000000000052 .L0 
/var/folders/rt/4gvqv631095f64jvm7jfj_000000gn/T//ccUtSSg3.s:372    .text.updatePlantReadings:0000000000000052 .L0 
/var/folders/rt/4gvqv631095f64jvm7jfj_000000gn/T//ccUtSSg3.s:374    .text.updatePlantReadings:0000000000000056 .L0 
/var/folders/rt/4gvqv631095f64jvm7jfj_000000gn/T//ccUtSSg3.s:375    .text.updatePlantReadings:0000000000000056 .L0 
/var/folders/rt/4gvqv631095f64jvm7jfj_000000gn/T//ccUtSSg3.s:378    .text.updatePlantReadings:000000000000005e .L0 
/var/folders/rt/4gvqv631095f64jvm7jfj_000000gn/T//ccUtSSg3.s:379    .text.updatePlantReadings:000000000000005e .L0 
/var/folders/rt/4gvqv631095f64jvm7jfj_000000gn/T//ccUtSSg3.s:386    .text.updatePlantReadings:0000000000000064 .L0 
/var/folders/rt/4gvqv631095f64jvm7jfj_000000gn/T//ccUtSSg3.s:388    .text.updatePlantReadings:0000000000000066 .L0 
/var/folders/rt/4gvqv631095f64jvm7jfj_000000gn/T//ccUtSSg3.s:389    .text.updatePlantReadings:0000000000000068 .L0 
/var/folders/rt/4gvqv631095f64jvm7jfj_000000gn/T//ccUtSSg3.s:390    .text.updatePlantReadings:0000000000000068 .L0 
/var/folders/rt/4gvqv631095f64jvm7jfj_000000gn/T//ccUtSSg3.s:393    .text.updatePlantReadings:000000000000006a .L0 
/var/folders/rt/4gvqv631095f64jvm7jfj_000000gn/T//ccUtSSg3.s:395    .text.updatePlantReadings:000000000000006c .L0 
/var/folders/rt/4gvqv631095f64jvm7jfj_000000gn/T//ccUtSSg3.s:398    .text.updatePlantReadings:000000000000006e .L0 
GAS LISTING /var/folders/rt/4gvqv631095f64jvm7jfj_000000gn/T//ccUtSSg3.s 			page 28


/var/folders/rt/4gvqv631095f64jvm7jfj_000000gn/T//ccUtSSg3.s:400    .text.updatePlantReadings:000000000000006e .L0 
/var/folders/rt/4gvqv631095f64jvm7jfj_000000gn/T//ccUtSSg3.s:404    .text.updatePlantReadings:0000000000000076 .L0 
/var/folders/rt/4gvqv631095f64jvm7jfj_000000gn/T//ccUtSSg3.s:408    .text.updatePlantReadings:0000000000000076 .L0 
/var/folders/rt/4gvqv631095f64jvm7jfj_000000gn/T//ccUtSSg3.s:409    .text.updatePlantReadings:0000000000000076 .L0 
/var/folders/rt/4gvqv631095f64jvm7jfj_000000gn/T//ccUtSSg3.s:413    .text.updatePlantReadings:000000000000007c .L0 
/var/folders/rt/4gvqv631095f64jvm7jfj_000000gn/T//ccUtSSg3.s:416    .text.updatePlantReadings:0000000000000084 .L0 
/var/folders/rt/4gvqv631095f64jvm7jfj_000000gn/T//ccUtSSg3.s:417    .text.updatePlantReadings:0000000000000084 .L0 
/var/folders/rt/4gvqv631095f64jvm7jfj_000000gn/T//ccUtSSg3.s:424    .text.updatePlantReadings:000000000000008a .L0 
/var/folders/rt/4gvqv631095f64jvm7jfj_000000gn/T//ccUtSSg3.s:425    .text.updatePlantReadings:000000000000008a .L0 
/var/folders/rt/4gvqv631095f64jvm7jfj_000000gn/T//ccUtSSg3.s:432    .text.updatePlantReadings:000000000000009e .L0 
/var/folders/rt/4gvqv631095f64jvm7jfj_000000gn/T//ccUtSSg3.s:437    .text.updatePlantReadings:00000000000000a0 .L0 
/var/folders/rt/4gvqv631095f64jvm7jfj_000000gn/T//ccUtSSg3.s:438    .text.updatePlantReadings:00000000000000a0 .L0 
/var/folders/rt/4gvqv631095f64jvm7jfj_000000gn/T//ccUtSSg3.s:443    .text.updatePlantReadings:00000000000000a6 .L0 
/var/folders/rt/4gvqv631095f64jvm7jfj_000000gn/T//ccUtSSg3.s:446    .text.updatePlantReadings:00000000000000aa .L0 
/var/folders/rt/4gvqv631095f64jvm7jfj_000000gn/T//ccUtSSg3.s:447    .text.updatePlantReadings:00000000000000aa .L0 
/var/folders/rt/4gvqv631095f64jvm7jfj_000000gn/T//ccUtSSg3.s:450    .text.updatePlantReadings:00000000000000b0 .L0 
/var/folders/rt/4gvqv631095f64jvm7jfj_000000gn/T//ccUtSSg3.s:451    .text.updatePlantReadings:00000000000000b0 .L0 
/var/folders/rt/4gvqv631095f64jvm7jfj_000000gn/T//ccUtSSg3.s:456    .text.updatePlantReadings:00000000000000b8 .L0 
/var/folders/rt/4gvqv631095f64jvm7jfj_000000gn/T//ccUtSSg3.s:457    .text.updatePlantReadings:00000000000000b8 .L0 
/var/folders/rt/4gvqv631095f64jvm7jfj_000000gn/T//ccUtSSg3.s:462    .text.updatePlantReadings:00000000000000c0 .L0 
/var/folders/rt/4gvqv631095f64jvm7jfj_000000gn/T//ccUtSSg3.s:463    .text.updatePlantReadings:00000000000000c0 .L0 
/var/folders/rt/4gvqv631095f64jvm7jfj_000000gn/T//ccUtSSg3.s:467    .text.updatePlantReadings:00000000000000c6 .L0 
/var/folders/rt/4gvqv631095f64jvm7jfj_000000gn/T//ccUtSSg3.s:470    .text.updatePlantReadings:00000000000000ca .L0 
/var/folders/rt/4gvqv631095f64jvm7jfj_000000gn/T//ccUtSSg3.s:471    .text.updatePlantReadings:00000000000000ca .L0 
/var/folders/rt/4gvqv631095f64jvm7jfj_000000gn/T//ccUtSSg3.s:473    .text.updatePlantReadings:00000000000000ce .L0 
/var/folders/rt/4gvqv631095f64jvm7jfj_000000gn/T//ccUtSSg3.s:474    .text.updatePlantReadings:00000000000000ce .L0 
/var/folders/rt/4gvqv631095f64jvm7jfj_000000gn/T//ccUtSSg3.s:477    .text.updatePlantReadings:00000000000000d2 .L0 
/var/folders/rt/4gvqv631095f64jvm7jfj_000000gn/T//ccUtSSg3.s:480    .text.updatePlantReadings:00000000000000d8 .L0 
/var/folders/rt/4gvqv631095f64jvm7jfj_000000gn/T//ccUtSSg3.s:481    .text.updatePlantReadings:00000000000000d8 .L0 
/var/folders/rt/4gvqv631095f64jvm7jfj_000000gn/T//ccUtSSg3.s:489    .text.updatePlantReadings:00000000000000e0 .L0 
/var/folders/rt/4gvqv631095f64jvm7jfj_000000gn/T//ccUtSSg3.s:490    .text.updatePlantReadings:00000000000000e0 .L0 
/var/folders/rt/4gvqv631095f64jvm7jfj_000000gn/T//ccUtSSg3.s:493    .text.updatePlantReadings:00000000000000e2 .L0 
/var/folders/rt/4gvqv631095f64jvm7jfj_000000gn/T//ccUtSSg3.s:494    .text.updatePlantReadings:00000000000000e2 .L0 
/var/folders/rt/4gvqv631095f64jvm7jfj_000000gn/T//ccUtSSg3.s:498    .text.updatePlantReadings:00000000000000ec .L0 
/var/folders/rt/4gvqv631095f64jvm7jfj_000000gn/T//ccUtSSg3.s:499    .text.updatePlantReadings:00000000000000ec .L0 
/var/folders/rt/4gvqv631095f64jvm7jfj_000000gn/T//ccUtSSg3.s:500    .text.updatePlantReadings:00000000000000ec .L0 
/var/folders/rt/4gvqv631095f64jvm7jfj_000000gn/T//ccUtSSg3.s:502    .text.updatePlantReadings:00000000000000f0 .L0 
/var/folders/rt/4gvqv631095f64jvm7jfj_000000gn/T//ccUtSSg3.s:507    .text.updatePlantReadings:00000000000000f6 .L0 
/var/folders/rt/4gvqv631095f64jvm7jfj_000000gn/T//ccUtSSg3.s:508    .text.updatePlantReadings:00000000000000f6 .L0 
/var/folders/rt/4gvqv631095f64jvm7jfj_000000gn/T//ccUtSSg3.s:513    .text.updatePlantReadings:00000000000000fc .L0 
/var/folders/rt/4gvqv631095f64jvm7jfj_000000gn/T//ccUtSSg3.s:516    .text.updatePlantReadings:00000000000000fe .L0 
/var/folders/rt/4gvqv631095f64jvm7jfj_000000gn/T//ccUtSSg3.s:517    .text.updatePlantReadings:00000000000000fe .L0 
/var/folders/rt/4gvqv631095f64jvm7jfj_000000gn/T//ccUtSSg3.s:520    .text.updatePlantReadings:0000000000000106 .L0 
/var/folders/rt/4gvqv631095f64jvm7jfj_000000gn/T//ccUtSSg3.s:521    .text.updatePlantReadings:0000000000000106 .L0 
/var/folders/rt/4gvqv631095f64jvm7jfj_000000gn/T//ccUtSSg3.s:523    .text.updatePlantReadings:000000000000010a .L0 
/var/folders/rt/4gvqv631095f64jvm7jfj_000000gn/T//ccUtSSg3.s:529    .text.updatePlantReadings:0000000000000114 .L0 
/var/folders/rt/4gvqv631095f64jvm7jfj_000000gn/T//ccUtSSg3.s:530    .text.updatePlantReadings:0000000000000114 .L0 
/var/folders/rt/4gvqv631095f64jvm7jfj_000000gn/T//ccUtSSg3.s:535    .text.updatePlantReadings:0000000000000120 .L0 
/var/folders/rt/4gvqv631095f64jvm7jfj_000000gn/T//ccUtSSg3.s:540    .text.updatePlantReadings:0000000000000122 .L0 
/var/folders/rt/4gvqv631095f64jvm7jfj_000000gn/T//ccUtSSg3.s:541    .text.updatePlantReadings:0000000000000122 .L0 
/var/folders/rt/4gvqv631095f64jvm7jfj_000000gn/T//ccUtSSg3.s:546    .text.updatePlantReadings:0000000000000128 .L0 
/var/folders/rt/4gvqv631095f64jvm7jfj_000000gn/T//ccUtSSg3.s:549    .text.updatePlantReadings:000000000000012c .L0 
/var/folders/rt/4gvqv631095f64jvm7jfj_000000gn/T//ccUtSSg3.s:550    .text.updatePlantReadings:000000000000012c .L0 
/var/folders/rt/4gvqv631095f64jvm7jfj_000000gn/T//ccUtSSg3.s:553    .text.updatePlantReadings:0000000000000132 .L0 
/var/folders/rt/4gvqv631095f64jvm7jfj_000000gn/T//ccUtSSg3.s:554    .text.updatePlantReadings:0000000000000132 .L0 
/var/folders/rt/4gvqv631095f64jvm7jfj_000000gn/T//ccUtSSg3.s:559    .text.updatePlantReadings:0000000000000138 .L0 
/var/folders/rt/4gvqv631095f64jvm7jfj_000000gn/T//ccUtSSg3.s:560    .text.updatePlantReadings:0000000000000138 .L0 
GAS LISTING /var/folders/rt/4gvqv631095f64jvm7jfj_000000gn/T//ccUtSSg3.s 			page 29


/var/folders/rt/4gvqv631095f64jvm7jfj_000000gn/T//ccUtSSg3.s:565    .text.updatePlantReadings:0000000000000140 .L0 
/var/folders/rt/4gvqv631095f64jvm7jfj_000000gn/T//ccUtSSg3.s:566    .text.updatePlantReadings:0000000000000140 .L0 
/var/folders/rt/4gvqv631095f64jvm7jfj_000000gn/T//ccUtSSg3.s:570    .text.updatePlantReadings:0000000000000146 .L0 
/var/folders/rt/4gvqv631095f64jvm7jfj_000000gn/T//ccUtSSg3.s:573    .text.updatePlantReadings:000000000000014a .L0 
/var/folders/rt/4gvqv631095f64jvm7jfj_000000gn/T//ccUtSSg3.s:574    .text.updatePlantReadings:000000000000014a .L0 
/var/folders/rt/4gvqv631095f64jvm7jfj_000000gn/T//ccUtSSg3.s:576    .text.updatePlantReadings:000000000000014e .L0 
/var/folders/rt/4gvqv631095f64jvm7jfj_000000gn/T//ccUtSSg3.s:577    .text.updatePlantReadings:000000000000014e .L0 
/var/folders/rt/4gvqv631095f64jvm7jfj_000000gn/T//ccUtSSg3.s:580    .text.updatePlantReadings:0000000000000152 .L0 
/var/folders/rt/4gvqv631095f64jvm7jfj_000000gn/T//ccUtSSg3.s:583    .text.updatePlantReadings:0000000000000158 .L0 
/var/folders/rt/4gvqv631095f64jvm7jfj_000000gn/T//ccUtSSg3.s:584    .text.updatePlantReadings:0000000000000158 .L0 
/var/folders/rt/4gvqv631095f64jvm7jfj_000000gn/T//ccUtSSg3.s:592    .text.updatePlantReadings:0000000000000160 .L0 
/var/folders/rt/4gvqv631095f64jvm7jfj_000000gn/T//ccUtSSg3.s:593    .text.updatePlantReadings:0000000000000160 .L0 
/var/folders/rt/4gvqv631095f64jvm7jfj_000000gn/T//ccUtSSg3.s:597    .text.updatePlantReadings:0000000000000166 .L0 
/var/folders/rt/4gvqv631095f64jvm7jfj_000000gn/T//ccUtSSg3.s:598    .text.updatePlantReadings:0000000000000166 .L0 
/var/folders/rt/4gvqv631095f64jvm7jfj_000000gn/T//ccUtSSg3.s:601    .text.updatePlantReadings:000000000000016e .L0 
/var/folders/rt/4gvqv631095f64jvm7jfj_000000gn/T//ccUtSSg3.s:602    .text.updatePlantReadings:000000000000016e .L0 
/var/folders/rt/4gvqv631095f64jvm7jfj_000000gn/T//ccUtSSg3.s:603    .text.updatePlantReadings:000000000000016e .L0 
/var/folders/rt/4gvqv631095f64jvm7jfj_000000gn/T//ccUtSSg3.s:606    .text.updatePlantReadings:0000000000000172 .L0 
/var/folders/rt/4gvqv631095f64jvm7jfj_000000gn/T//ccUtSSg3.s:610    .text.updatePlantReadings:0000000000000178 .L0 
/var/folders/rt/4gvqv631095f64jvm7jfj_000000gn/T//ccUtSSg3.s:611    .text.updatePlantReadings:0000000000000178 .L0 
/var/folders/rt/4gvqv631095f64jvm7jfj_000000gn/T//ccUtSSg3.s:615    .text.updatePlantReadings:000000000000017e .L0 
/var/folders/rt/4gvqv631095f64jvm7jfj_000000gn/T//ccUtSSg3.s:619    .text.updatePlantReadings:0000000000000186 .L0 
/var/folders/rt/4gvqv631095f64jvm7jfj_000000gn/T//ccUtSSg3.s:625    .text.updatePlantReadings:0000000000000190 .L0 
/var/folders/rt/4gvqv631095f64jvm7jfj_000000gn/T//ccUtSSg3.s:626    .text.updatePlantReadings:0000000000000190 .L0 
/var/folders/rt/4gvqv631095f64jvm7jfj_000000gn/T//ccUtSSg3.s:629    .text.updatePlantReadings:0000000000000198 .L0 
/var/folders/rt/4gvqv631095f64jvm7jfj_000000gn/T//ccUtSSg3.s:630    .text.updatePlantReadings:0000000000000198 .L0 
/var/folders/rt/4gvqv631095f64jvm7jfj_000000gn/T//ccUtSSg3.s:632    .text.updatePlantReadings:000000000000019c .L0 
/var/folders/rt/4gvqv631095f64jvm7jfj_000000gn/T//ccUtSSg3.s:638    .text.updatePlantReadings:00000000000001a6 .L0 
/var/folders/rt/4gvqv631095f64jvm7jfj_000000gn/T//ccUtSSg3.s:639    .text.updatePlantReadings:00000000000001a6 .L0 
/var/folders/rt/4gvqv631095f64jvm7jfj_000000gn/T//ccUtSSg3.s:645    .text.updatePlantReadings:00000000000001b4 .L0 
/var/folders/rt/4gvqv631095f64jvm7jfj_000000gn/T//ccUtSSg3.s:650    .text.updatePlantReadings:00000000000001b6 .L0 
/var/folders/rt/4gvqv631095f64jvm7jfj_000000gn/T//ccUtSSg3.s:651    .text.updatePlantReadings:00000000000001b6 .L0 
/var/folders/rt/4gvqv631095f64jvm7jfj_000000gn/T//ccUtSSg3.s:656    .text.updatePlantReadings:00000000000001bc .L0 
/var/folders/rt/4gvqv631095f64jvm7jfj_000000gn/T//ccUtSSg3.s:659    .text.updatePlantReadings:00000000000001c0 .L0 
/var/folders/rt/4gvqv631095f64jvm7jfj_000000gn/T//ccUtSSg3.s:660    .text.updatePlantReadings:00000000000001c0 .L0 
/var/folders/rt/4gvqv631095f64jvm7jfj_000000gn/T//ccUtSSg3.s:663    .text.updatePlantReadings:00000000000001c6 .L0 
/var/folders/rt/4gvqv631095f64jvm7jfj_000000gn/T//ccUtSSg3.s:664    .text.updatePlantReadings:00000000000001c6 .L0 
/var/folders/rt/4gvqv631095f64jvm7jfj_000000gn/T//ccUtSSg3.s:669    .text.updatePlantReadings:00000000000001cc .L0 
/var/folders/rt/4gvqv631095f64jvm7jfj_000000gn/T//ccUtSSg3.s:670    .text.updatePlantReadings:00000000000001cc .L0 
/var/folders/rt/4gvqv631095f64jvm7jfj_000000gn/T//ccUtSSg3.s:675    .text.updatePlantReadings:00000000000001d4 .L0 
/var/folders/rt/4gvqv631095f64jvm7jfj_000000gn/T//ccUtSSg3.s:676    .text.updatePlantReadings:00000000000001d4 .L0 
/var/folders/rt/4gvqv631095f64jvm7jfj_000000gn/T//ccUtSSg3.s:680    .text.updatePlantReadings:00000000000001da .L0 
/var/folders/rt/4gvqv631095f64jvm7jfj_000000gn/T//ccUtSSg3.s:683    .text.updatePlantReadings:00000000000001de .L0 
/var/folders/rt/4gvqv631095f64jvm7jfj_000000gn/T//ccUtSSg3.s:684    .text.updatePlantReadings:00000000000001de .L0 
/var/folders/rt/4gvqv631095f64jvm7jfj_000000gn/T//ccUtSSg3.s:686    .text.updatePlantReadings:00000000000001e2 .L0 
/var/folders/rt/4gvqv631095f64jvm7jfj_000000gn/T//ccUtSSg3.s:687    .text.updatePlantReadings:00000000000001e2 .L0 
/var/folders/rt/4gvqv631095f64jvm7jfj_000000gn/T//ccUtSSg3.s:690    .text.updatePlantReadings:00000000000001e6 .L0 
/var/folders/rt/4gvqv631095f64jvm7jfj_000000gn/T//ccUtSSg3.s:693    .text.updatePlantReadings:00000000000001ec .L0 
/var/folders/rt/4gvqv631095f64jvm7jfj_000000gn/T//ccUtSSg3.s:694    .text.updatePlantReadings:00000000000001ec .L0 
/var/folders/rt/4gvqv631095f64jvm7jfj_000000gn/T//ccUtSSg3.s:699    .text.updatePlantReadings:00000000000001f4 .L0 
/var/folders/rt/4gvqv631095f64jvm7jfj_000000gn/T//ccUtSSg3.s:706    .text.applyGreenFingers:0000000000000000 applyGreenFingers
/var/folders/rt/4gvqv631095f64jvm7jfj_000000gn/T//ccUtSSg3.s:709    .text.applyGreenFingers:0000000000000000 .L0 
/var/folders/rt/4gvqv631095f64jvm7jfj_000000gn/T//ccUtSSg3.s:711    .text.applyGreenFingers:0000000000000000 .L0 
/var/folders/rt/4gvqv631095f64jvm7jfj_000000gn/T//ccUtSSg3.s:712    .text.applyGreenFingers:0000000000000000 .L0 
/var/folders/rt/4gvqv631095f64jvm7jfj_000000gn/T//ccUtSSg3.s:713    .text.applyGreenFingers:0000000000000000 .L0 
/var/folders/rt/4gvqv631095f64jvm7jfj_000000gn/T//ccUtSSg3.s:714    .text.applyGreenFingers:0000000000000000 .L0 
/var/folders/rt/4gvqv631095f64jvm7jfj_000000gn/T//ccUtSSg3.s:716    .text.applyGreenFingers:0000000000000002 .L0 
GAS LISTING /var/folders/rt/4gvqv631095f64jvm7jfj_000000gn/T//ccUtSSg3.s 			page 30


/var/folders/rt/4gvqv631095f64jvm7jfj_000000gn/T//ccUtSSg3.s:722    .text.applyGreenFingers:000000000000000c .L0 
/var/folders/rt/4gvqv631095f64jvm7jfj_000000gn/T//ccUtSSg3.s:723    .text.applyGreenFingers:000000000000000c .L0 
/var/folders/rt/4gvqv631095f64jvm7jfj_000000gn/T//ccUtSSg3.s:724    .text.applyGreenFingers:000000000000000c .L0 
/var/folders/rt/4gvqv631095f64jvm7jfj_000000gn/T//ccUtSSg3.s:725    .text.applyGreenFingers:000000000000000c .L0 
/var/folders/rt/4gvqv631095f64jvm7jfj_000000gn/T//ccUtSSg3.s:726    .text.applyGreenFingers:000000000000000c .L0 
/var/folders/rt/4gvqv631095f64jvm7jfj_000000gn/T//ccUtSSg3.s:728    .text.applyGreenFingers:000000000000000c .L0 
/var/folders/rt/4gvqv631095f64jvm7jfj_000000gn/T//ccUtSSg3.s:731    .text.applyGreenFingers:0000000000000010 .L0 
/var/folders/rt/4gvqv631095f64jvm7jfj_000000gn/T//ccUtSSg3.s:737    .text.applyGreenFingers:000000000000001a .L0 
/var/folders/rt/4gvqv631095f64jvm7jfj_000000gn/T//ccUtSSg3.s:738    .text.applyGreenFingers:000000000000001a .L0 
/var/folders/rt/4gvqv631095f64jvm7jfj_000000gn/T//ccUtSSg3.s:739    .text.applyGreenFingers:000000000000001a .L0 
/var/folders/rt/4gvqv631095f64jvm7jfj_000000gn/T//ccUtSSg3.s:742    .text.applyGreenFingers:000000000000001c .L0 
/var/folders/rt/4gvqv631095f64jvm7jfj_000000gn/T//ccUtSSg3.s:747    .text.applyGreenFingers:000000000000001e .L0 
/var/folders/rt/4gvqv631095f64jvm7jfj_000000gn/T//ccUtSSg3.s:750    .text.applyGreenFingers:0000000000000022 .L0 
/var/folders/rt/4gvqv631095f64jvm7jfj_000000gn/T//ccUtSSg3.s:751    .text.applyGreenFingers:0000000000000024 .L0 
/var/folders/rt/4gvqv631095f64jvm7jfj_000000gn/T//ccUtSSg3.s:752    .text.applyGreenFingers:0000000000000024 .L0 
/var/folders/rt/4gvqv631095f64jvm7jfj_000000gn/T//ccUtSSg3.s:754    .text.applyGreenFingers:0000000000000026 .L0 
/var/folders/rt/4gvqv631095f64jvm7jfj_000000gn/T//ccUtSSg3.s:756    .text.applyGreenFingers:0000000000000028 .L0 
/var/folders/rt/4gvqv631095f64jvm7jfj_000000gn/T//ccUtSSg3.s:759    .text.applyGreenFingers:000000000000002a .L0 
/var/folders/rt/4gvqv631095f64jvm7jfj_000000gn/T//ccUtSSg3.s:762    .text.applyGreenFingers:000000000000002c .L0 
/var/folders/rt/4gvqv631095f64jvm7jfj_000000gn/T//ccUtSSg3.s:766    .text.applyGreenFingers:000000000000002e .L0 
/var/folders/rt/4gvqv631095f64jvm7jfj_000000gn/T//ccUtSSg3.s:771    .text.applyGreenFingers:0000000000000030 .L0 
/var/folders/rt/4gvqv631095f64jvm7jfj_000000gn/T//ccUtSSg3.s:774    .text.applyGreenFingers:0000000000000030 .L0 
/var/folders/rt/4gvqv631095f64jvm7jfj_000000gn/T//ccUtSSg3.s:775    .text.applyGreenFingers:0000000000000030 .L0 
/var/folders/rt/4gvqv631095f64jvm7jfj_000000gn/T//ccUtSSg3.s:777    .text.applyGreenFingers:0000000000000034 .L0 
/var/folders/rt/4gvqv631095f64jvm7jfj_000000gn/T//ccUtSSg3.s:779    .text.applyGreenFingers:0000000000000038 .L0 
/var/folders/rt/4gvqv631095f64jvm7jfj_000000gn/T//ccUtSSg3.s:784    .text.applyGreenFingers:0000000000000040 .L0 
/var/folders/rt/4gvqv631095f64jvm7jfj_000000gn/T//ccUtSSg3.s:786    .text.applyGreenFingers:0000000000000044 .L0 
/var/folders/rt/4gvqv631095f64jvm7jfj_000000gn/T//ccUtSSg3.s:788    .text.applyGreenFingers:0000000000000048 .L0 
/var/folders/rt/4gvqv631095f64jvm7jfj_000000gn/T//ccUtSSg3.s:791    .text.applyGreenFingers:000000000000004a .L0 
/var/folders/rt/4gvqv631095f64jvm7jfj_000000gn/T//ccUtSSg3.s:798    .text.applyGreenFingers:0000000000000058 .L0 
/var/folders/rt/4gvqv631095f64jvm7jfj_000000gn/T//ccUtSSg3.s:799    .text.applyGreenFingers:0000000000000058 .L0 
/var/folders/rt/4gvqv631095f64jvm7jfj_000000gn/T//ccUtSSg3.s:803    .text.applyGreenFingers:000000000000005a .L0 
/var/folders/rt/4gvqv631095f64jvm7jfj_000000gn/T//ccUtSSg3.s:804    .text.applyGreenFingers:000000000000005a .L0 
/var/folders/rt/4gvqv631095f64jvm7jfj_000000gn/T//ccUtSSg3.s:806    .text.applyGreenFingers:000000000000005e .L0 
/var/folders/rt/4gvqv631095f64jvm7jfj_000000gn/T//ccUtSSg3.s:808    .text.applyGreenFingers:0000000000000062 .L0 
/var/folders/rt/4gvqv631095f64jvm7jfj_000000gn/T//ccUtSSg3.s:813    .text.applyGreenFingers:000000000000006a .L0 
/var/folders/rt/4gvqv631095f64jvm7jfj_000000gn/T//ccUtSSg3.s:815    .text.applyGreenFingers:000000000000006e .L0 
/var/folders/rt/4gvqv631095f64jvm7jfj_000000gn/T//ccUtSSg3.s:817    .text.applyGreenFingers:0000000000000072 .L0 
/var/folders/rt/4gvqv631095f64jvm7jfj_000000gn/T//ccUtSSg3.s:820    .text.applyGreenFingers:0000000000000074 .L0 
/var/folders/rt/4gvqv631095f64jvm7jfj_000000gn/T//ccUtSSg3.s:827    .text.applyGreenFingers:0000000000000082 .L0 
/var/folders/rt/4gvqv631095f64jvm7jfj_000000gn/T//ccUtSSg3.s:828    .text.applyGreenFingers:0000000000000082 .L0 
/var/folders/rt/4gvqv631095f64jvm7jfj_000000gn/T//ccUtSSg3.s:832    .text.applyGreenFingers:0000000000000084 .L0 
/var/folders/rt/4gvqv631095f64jvm7jfj_000000gn/T//ccUtSSg3.s:833    .text.applyGreenFingers:0000000000000084 .L0 
/var/folders/rt/4gvqv631095f64jvm7jfj_000000gn/T//ccUtSSg3.s:835    .text.applyGreenFingers:0000000000000088 .L0 
/var/folders/rt/4gvqv631095f64jvm7jfj_000000gn/T//ccUtSSg3.s:837    .text.applyGreenFingers:000000000000008c .L0 
/var/folders/rt/4gvqv631095f64jvm7jfj_000000gn/T//ccUtSSg3.s:842    .text.applyGreenFingers:0000000000000096 .L0 
/var/folders/rt/4gvqv631095f64jvm7jfj_000000gn/T//ccUtSSg3.s:844    .text.applyGreenFingers:000000000000009a .L0 
/var/folders/rt/4gvqv631095f64jvm7jfj_000000gn/T//ccUtSSg3.s:846    .text.applyGreenFingers:000000000000009e .L0 
/var/folders/rt/4gvqv631095f64jvm7jfj_000000gn/T//ccUtSSg3.s:849    .text.applyGreenFingers:00000000000000a0 .L0 
/var/folders/rt/4gvqv631095f64jvm7jfj_000000gn/T//ccUtSSg3.s:856    .text.applyGreenFingers:00000000000000ae .L0 
/var/folders/rt/4gvqv631095f64jvm7jfj_000000gn/T//ccUtSSg3.s:857    .text.applyGreenFingers:00000000000000ae .L0 
/var/folders/rt/4gvqv631095f64jvm7jfj_000000gn/T//ccUtSSg3.s:861    .text.applyGreenFingers:00000000000000b0 .L0 
/var/folders/rt/4gvqv631095f64jvm7jfj_000000gn/T//ccUtSSg3.s:866    .text.applyGreenFingers:00000000000000b8 .L0 
/var/folders/rt/4gvqv631095f64jvm7jfj_000000gn/T//ccUtSSg3.s:35     .text.initSensorReading:0000000000000006 .L0 
/var/folders/rt/4gvqv631095f64jvm7jfj_000000gn/T//ccUtSSg3.s:251    .text.initPlant:000000000000012c .L0 
/var/folders/rt/4gvqv631095f64jvm7jfj_000000gn/T//ccUtSSg3.s:306    .text.updatePlantStatus:000000000000004c .L0 
/var/folders/rt/4gvqv631095f64jvm7jfj_000000gn/T//ccUtSSg3.s:702    .text.updatePlantReadings:00000000000001f4 .L0 
GAS LISTING /var/folders/rt/4gvqv631095f64jvm7jfj_000000gn/T//ccUtSSg3.s 			page 31


/var/folders/rt/4gvqv631095f64jvm7jfj_000000gn/T//ccUtSSg3.s:869    .text.applyGreenFingers:00000000000000b8 .L0 
                     .debug_frame:0000000000000000 .L0 
/var/folders/rt/4gvqv631095f64jvm7jfj_000000gn/T//ccUtSSg3.s:871    .rodata.initPlant.str1.4:0000000000000000 .LC0
/var/folders/rt/4gvqv631095f64jvm7jfj_000000gn/T//ccUtSSg3.s:874    .rodata.initPlant.str1.4:0000000000000004 .LC1
/var/folders/rt/4gvqv631095f64jvm7jfj_000000gn/T//ccUtSSg3.s:246    .text.initPlant:000000000000012a .L7
/var/folders/rt/4gvqv631095f64jvm7jfj_000000gn/T//ccUtSSg3.s:878    .rodata.updatePlantStatus.str1.4:0000000000000000 .LC2
/var/folders/rt/4gvqv631095f64jvm7jfj_000000gn/T//ccUtSSg3.s:880    .rodata.updatePlantStatus.str1.4:0000000000000010 .LC3
/var/folders/rt/4gvqv631095f64jvm7jfj_000000gn/T//ccUtSSg3.s:282    .text.updatePlantStatus:0000000000000030 .L11
/var/folders/rt/4gvqv631095f64jvm7jfj_000000gn/T//ccUtSSg3.s:297    .text.updatePlantStatus:000000000000004a .L10
/var/folders/rt/4gvqv631095f64jvm7jfj_000000gn/T//ccUtSSg3.s:485    .text.updatePlantReadings:00000000000000e0 .L14
/var/folders/rt/4gvqv631095f64jvm7jfj_000000gn/T//ccUtSSg3.s:382    .text.updatePlantReadings:0000000000000064 .L21
/var/folders/rt/4gvqv631095f64jvm7jfj_000000gn/T//ccUtSSg3.s:402    .text.updatePlantReadings:0000000000000076 .L16
/var/folders/rt/4gvqv631095f64jvm7jfj_000000gn/T//ccUtSSg3.s:421    .text.updatePlantReadings:000000000000008a .L18
/var/folders/rt/4gvqv631095f64jvm7jfj_000000gn/T//ccUtSSg3.s:433    .text.updatePlantReadings:00000000000000a0 .L19
/var/folders/rt/4gvqv631095f64jvm7jfj_000000gn/T//ccUtSSg3.s:460    .text.updatePlantReadings:00000000000000c0 .L20
/var/folders/rt/4gvqv631095f64jvm7jfj_000000gn/T//ccUtSSg3.s:588    .text.updatePlantReadings:0000000000000160 .L22
/var/folders/rt/4gvqv631095f64jvm7jfj_000000gn/T//ccUtSSg3.s:536    .text.updatePlantReadings:0000000000000122 .L23
/var/folders/rt/4gvqv631095f64jvm7jfj_000000gn/T//ccUtSSg3.s:563    .text.updatePlantReadings:0000000000000140 .L24
/var/folders/rt/4gvqv631095f64jvm7jfj_000000gn/T//ccUtSSg3.s:622    .text.updatePlantReadings:000000000000018e .L25
/var/folders/rt/4gvqv631095f64jvm7jfj_000000gn/T//ccUtSSg3.s:646    .text.updatePlantReadings:00000000000001b6 .L26
/var/folders/rt/4gvqv631095f64jvm7jfj_000000gn/T//ccUtSSg3.s:673    .text.updatePlantReadings:00000000000001d4 .L27
/var/folders/rt/4gvqv631095f64jvm7jfj_000000gn/T//ccUtSSg3.s:769    .text.applyGreenFingers:0000000000000030 .L43
/var/folders/rt/4gvqv631095f64jvm7jfj_000000gn/T//ccUtSSg3.s:789    .text.applyGreenFingers:000000000000004a .L37
/var/folders/rt/4gvqv631095f64jvm7jfj_000000gn/T//ccUtSSg3.s:801    .text.applyGreenFingers:000000000000005a .L38
/var/folders/rt/4gvqv631095f64jvm7jfj_000000gn/T//ccUtSSg3.s:818    .text.applyGreenFingers:0000000000000074 .L39
/var/folders/rt/4gvqv631095f64jvm7jfj_000000gn/T//ccUtSSg3.s:830    .text.applyGreenFingers:0000000000000084 .L40
/var/folders/rt/4gvqv631095f64jvm7jfj_000000gn/T//ccUtSSg3.s:847    .text.applyGreenFingers:00000000000000a0 .L41
/var/folders/rt/4gvqv631095f64jvm7jfj_000000gn/T//ccUtSSg3.s:859    .text.applyGreenFingers:00000000000000b0 .L42
/var/folders/rt/4gvqv631095f64jvm7jfj_000000gn/T//ccUtSSg3.s:744    .text.applyGreenFingers:000000000000001e .L36
/var/folders/rt/4gvqv631095f64jvm7jfj_000000gn/T//ccUtSSg3.s:3409   .debug_abbrev:0000000000000000 .Ldebug_abbrev0
/var/folders/rt/4gvqv631095f64jvm7jfj_000000gn/T//ccUtSSg3.s:5476   .debug_str:0000000000000627 .LASF185
/var/folders/rt/4gvqv631095f64jvm7jfj_000000gn/T//ccUtSSg3.s:5218   .debug_str:0000000000000123 .LASF186
/var/folders/rt/4gvqv631095f64jvm7jfj_000000gn/T//ccUtSSg3.s:5480   .debug_str:00000000000006b8 .LASF187
/var/folders/rt/4gvqv631095f64jvm7jfj_000000gn/T//ccUtSSg3.s:5118   .debug_ranges:0000000000000000 .Ldebug_ranges0
/var/folders/rt/4gvqv631095f64jvm7jfj_000000gn/T//ccUtSSg3.s:5164   .debug_line:0000000000000000 .Ldebug_line0
/var/folders/rt/4gvqv631095f64jvm7jfj_000000gn/T//ccUtSSg3.s:5382   .debug_str:000000000000046b .LASF0
/var/folders/rt/4gvqv631095f64jvm7jfj_000000gn/T//ccUtSSg3.s:5214   .debug_str:000000000000010b .LASF1
/var/folders/rt/4gvqv631095f64jvm7jfj_000000gn/T//ccUtSSg3.s:5396   .debug_str:00000000000004b0 .LASF2
/var/folders/rt/4gvqv631095f64jvm7jfj_000000gn/T//ccUtSSg3.s:5170   .debug_str:0000000000000014 .LASF3
/var/folders/rt/4gvqv631095f64jvm7jfj_000000gn/T//ccUtSSg3.s:5482   .debug_str:00000000000006fb .LASF4
/var/folders/rt/4gvqv631095f64jvm7jfj_000000gn/T//ccUtSSg3.s:5470   .debug_str:0000000000000610 .LASF6
/var/folders/rt/4gvqv631095f64jvm7jfj_000000gn/T//ccUtSSg3.s:5236   .debug_str:000000000000016d .LASF5
/var/folders/rt/4gvqv631095f64jvm7jfj_000000gn/T//ccUtSSg3.s:5272   .debug_str:000000000000023b .LASF7
/var/folders/rt/4gvqv631095f64jvm7jfj_000000gn/T//ccUtSSg3.s:5300   .debug_str:00000000000002be .LASF8
/var/folders/rt/4gvqv631095f64jvm7jfj_000000gn/T//ccUtSSg3.s:5250   .debug_str:00000000000001be .LASF9
/var/folders/rt/4gvqv631095f64jvm7jfj_000000gn/T//ccUtSSg3.s:5194   .debug_str:000000000000008c .LASF10
/var/folders/rt/4gvqv631095f64jvm7jfj_000000gn/T//ccUtSSg3.s:5468   .debug_str:0000000000000603 .LASF11
/var/folders/rt/4gvqv631095f64jvm7jfj_000000gn/T//ccUtSSg3.s:5394   .debug_str:00000000000004a8 .LASF12
/var/folders/rt/4gvqv631095f64jvm7jfj_000000gn/T//ccUtSSg3.s:5504   .debug_str:0000000000000786 .LASF13
/var/folders/rt/4gvqv631095f64jvm7jfj_000000gn/T//ccUtSSg3.s:5432   .debug_str:0000000000000555 .LASF14
/var/folders/rt/4gvqv631095f64jvm7jfj_000000gn/T//ccUtSSg3.s:5196   .debug_str:00000000000000a3 .LASF15
/var/folders/rt/4gvqv631095f64jvm7jfj_000000gn/T//ccUtSSg3.s:5424   .debug_str:0000000000000530 .LASF16
/var/folders/rt/4gvqv631095f64jvm7jfj_000000gn/T//ccUtSSg3.s:5306   .debug_str:00000000000002eb .LASF17
/var/folders/rt/4gvqv631095f64jvm7jfj_000000gn/T//ccUtSSg3.s:5256   .debug_str:00000000000001dd .LASF18
/var/folders/rt/4gvqv631095f64jvm7jfj_000000gn/T//ccUtSSg3.s:5220   .debug_str:000000000000012b .LASF19
/var/folders/rt/4gvqv631095f64jvm7jfj_000000gn/T//ccUtSSg3.s:5286   .debug_str:0000000000000279 .LASF20
/var/folders/rt/4gvqv631095f64jvm7jfj_000000gn/T//ccUtSSg3.s:5360   .debug_str:00000000000003e0 .LASF21
GAS LISTING /var/folders/rt/4gvqv631095f64jvm7jfj_000000gn/T//ccUtSSg3.s 			page 32


/var/folders/rt/4gvqv631095f64jvm7jfj_000000gn/T//ccUtSSg3.s:5238   .debug_str:0000000000000176 .LASF22
/var/folders/rt/4gvqv631095f64jvm7jfj_000000gn/T//ccUtSSg3.s:5304   .debug_str:00000000000002d6 .LASF23
/var/folders/rt/4gvqv631095f64jvm7jfj_000000gn/T//ccUtSSg3.s:5364   .debug_str:000000000000040b .LASF24
/var/folders/rt/4gvqv631095f64jvm7jfj_000000gn/T//ccUtSSg3.s:5182   .debug_str:0000000000000048 .LASF25
/var/folders/rt/4gvqv631095f64jvm7jfj_000000gn/T//ccUtSSg3.s:5216   .debug_str:0000000000000117 .LASF26
/var/folders/rt/4gvqv631095f64jvm7jfj_000000gn/T//ccUtSSg3.s:5338   .debug_str:0000000000000373 .LASF27
/var/folders/rt/4gvqv631095f64jvm7jfj_000000gn/T//ccUtSSg3.s:5204   .debug_str:00000000000000d3 .LASF28
/var/folders/rt/4gvqv631095f64jvm7jfj_000000gn/T//ccUtSSg3.s:5440   .debug_str:000000000000058a .LASF29
/var/folders/rt/4gvqv631095f64jvm7jfj_000000gn/T//ccUtSSg3.s:5546   .debug_str:0000000000000862 .LASF30
/var/folders/rt/4gvqv631095f64jvm7jfj_000000gn/T//ccUtSSg3.s:5350   .debug_str:00000000000003b7 .LASF31
/var/folders/rt/4gvqv631095f64jvm7jfj_000000gn/T//ccUtSSg3.s:5200   .debug_str:00000000000000b6 .LASF32
/var/folders/rt/4gvqv631095f64jvm7jfj_000000gn/T//ccUtSSg3.s:5520   .debug_str:00000000000007d0 .LASF33
/var/folders/rt/4gvqv631095f64jvm7jfj_000000gn/T//ccUtSSg3.s:5402   .debug_str:00000000000004cc .LASF34
/var/folders/rt/4gvqv631095f64jvm7jfj_000000gn/T//ccUtSSg3.s:5508   .debug_str:000000000000079c .LASF35
/var/folders/rt/4gvqv631095f64jvm7jfj_000000gn/T//ccUtSSg3.s:5354   .debug_str:00000000000003cb .LASF36
/var/folders/rt/4gvqv631095f64jvm7jfj_000000gn/T//ccUtSSg3.s:5474   .debug_str:0000000000000620 .LASF37
/var/folders/rt/4gvqv631095f64jvm7jfj_000000gn/T//ccUtSSg3.s:5346   .debug_str:00000000000003a6 .LASF38
/var/folders/rt/4gvqv631095f64jvm7jfj_000000gn/T//ccUtSSg3.s:5392   .debug_str:000000000000049e .LASF39
/var/folders/rt/4gvqv631095f64jvm7jfj_000000gn/T//ccUtSSg3.s:5486   .debug_str:0000000000000720 .LASF40
/var/folders/rt/4gvqv631095f64jvm7jfj_000000gn/T//ccUtSSg3.s:5178   .debug_str:0000000000000039 .LASF41
/var/folders/rt/4gvqv631095f64jvm7jfj_000000gn/T//ccUtSSg3.s:5462   .debug_str:00000000000005ef .LASF42
/var/folders/rt/4gvqv631095f64jvm7jfj_000000gn/T//ccUtSSg3.s:5388   .debug_str:0000000000000486 .LASF43
/var/folders/rt/4gvqv631095f64jvm7jfj_000000gn/T//ccUtSSg3.s:5420   .debug_str:0000000000000518 .LASF44
/var/folders/rt/4gvqv631095f64jvm7jfj_000000gn/T//ccUtSSg3.s:5268   .debug_str:000000000000022a .LASF45
/var/folders/rt/4gvqv631095f64jvm7jfj_000000gn/T//ccUtSSg3.s:5282   .debug_str:0000000000000268 .LASF46
/var/folders/rt/4gvqv631095f64jvm7jfj_000000gn/T//ccUtSSg3.s:5458   .debug_str:00000000000005dc .LASF47
/var/folders/rt/4gvqv631095f64jvm7jfj_000000gn/T//ccUtSSg3.s:5378   .debug_str:000000000000045a .LASF48
/var/folders/rt/4gvqv631095f64jvm7jfj_000000gn/T//ccUtSSg3.s:5210   .debug_str:00000000000000fd .LASF49
/var/folders/rt/4gvqv631095f64jvm7jfj_000000gn/T//ccUtSSg3.s:5172   .debug_str:000000000000001e .LASF50
/var/folders/rt/4gvqv631095f64jvm7jfj_000000gn/T//ccUtSSg3.s:5514   .debug_str:00000000000007b1 .LASF51
/var/folders/rt/4gvqv631095f64jvm7jfj_000000gn/T//ccUtSSg3.s:5322   .debug_str:0000000000000336 .LASF52
/var/folders/rt/4gvqv631095f64jvm7jfj_000000gn/T//ccUtSSg3.s:5290   .debug_str:0000000000000283 .LASF53
/var/folders/rt/4gvqv631095f64jvm7jfj_000000gn/T//ccUtSSg3.s:5448   .debug_str:00000000000005b3 .LASF54
/var/folders/rt/4gvqv631095f64jvm7jfj_000000gn/T//ccUtSSg3.s:5450   .debug_str:00000000000005bb .LASF55
/var/folders/rt/4gvqv631095f64jvm7jfj_000000gn/T//ccUtSSg3.s:5386   .debug_str:000000000000047b .LASF56
/var/folders/rt/4gvqv631095f64jvm7jfj_000000gn/T//ccUtSSg3.s:5492   .debug_str:0000000000000737 .LASF57
/var/folders/rt/4gvqv631095f64jvm7jfj_000000gn/T//ccUtSSg3.s:5390   .debug_str:000000000000048c .LASF58
/var/folders/rt/4gvqv631095f64jvm7jfj_000000gn/T//ccUtSSg3.s:5406   .debug_str:00000000000004de .LASF59
/var/folders/rt/4gvqv631095f64jvm7jfj_000000gn/T//ccUtSSg3.s:5280   .debug_str:0000000000000260 .LASF64
/var/folders/rt/4gvqv631095f64jvm7jfj_000000gn/T//ccUtSSg3.s:5472   .debug_str:000000000000061a .LASF60
/var/folders/rt/4gvqv631095f64jvm7jfj_000000gn/T//ccUtSSg3.s:5442   .debug_str:000000000000059e .LASF61
/var/folders/rt/4gvqv631095f64jvm7jfj_000000gn/T//ccUtSSg3.s:5274   .debug_str:0000000000000246 .LASF62
/var/folders/rt/4gvqv631095f64jvm7jfj_000000gn/T//ccUtSSg3.s:5510   .debug_str:00000000000007a6 .LASF63
/var/folders/rt/4gvqv631095f64jvm7jfj_000000gn/T//ccUtSSg3.s:5288   .debug_str:000000000000027e .LASF65
/var/folders/rt/4gvqv631095f64jvm7jfj_000000gn/T//ccUtSSg3.s:5208   .debug_str:00000000000000f4 .LASF66
/var/folders/rt/4gvqv631095f64jvm7jfj_000000gn/T//ccUtSSg3.s:5536   .debug_str:000000000000082b .LASF67
/var/folders/rt/4gvqv631095f64jvm7jfj_000000gn/T//ccUtSSg3.s:5226   .debug_str:0000000000000140 .LASF68
/var/folders/rt/4gvqv631095f64jvm7jfj_000000gn/T//ccUtSSg3.s:5548   .debug_str:0000000000000870 .LASF69
/var/folders/rt/4gvqv631095f64jvm7jfj_000000gn/T//ccUtSSg3.s:5366   .debug_str:0000000000000418 .LASF70
/var/folders/rt/4gvqv631095f64jvm7jfj_000000gn/T//ccUtSSg3.s:5344   .debug_str:000000000000039c .LASF71
/var/folders/rt/4gvqv631095f64jvm7jfj_000000gn/T//ccUtSSg3.s:5454   .debug_str:00000000000005c9 .LASF72
/var/folders/rt/4gvqv631095f64jvm7jfj_000000gn/T//ccUtSSg3.s:5408   .debug_str:00000000000004e7 .LASF73
/var/folders/rt/4gvqv631095f64jvm7jfj_000000gn/T//ccUtSSg3.s:5532   .debug_str:0000000000000811 .LASF74
/var/folders/rt/4gvqv631095f64jvm7jfj_000000gn/T//ccUtSSg3.s:5230   .debug_str:000000000000014f .LASF75
/var/folders/rt/4gvqv631095f64jvm7jfj_000000gn/T//ccUtSSg3.s:5264   .debug_str:0000000000000217 .LASF76
/var/folders/rt/4gvqv631095f64jvm7jfj_000000gn/T//ccUtSSg3.s:5166   .debug_str:0000000000000000 .LASF77
/var/folders/rt/4gvqv631095f64jvm7jfj_000000gn/T//ccUtSSg3.s:5478   .debug_str:00000000000006af .LASF78
GAS LISTING /var/folders/rt/4gvqv631095f64jvm7jfj_000000gn/T//ccUtSSg3.s 			page 33


/var/folders/rt/4gvqv631095f64jvm7jfj_000000gn/T//ccUtSSg3.s:5168   .debug_str:000000000000000c .LASF79
/var/folders/rt/4gvqv631095f64jvm7jfj_000000gn/T//ccUtSSg3.s:5368   .debug_str:0000000000000421 .LASF80
/var/folders/rt/4gvqv631095f64jvm7jfj_000000gn/T//ccUtSSg3.s:5430   .debug_str:0000000000000550 .LASF81
/var/folders/rt/4gvqv631095f64jvm7jfj_000000gn/T//ccUtSSg3.s:5270   .debug_str:0000000000000236 .LASF82
/var/folders/rt/4gvqv631095f64jvm7jfj_000000gn/T//ccUtSSg3.s:5410   .debug_str:00000000000004f1 .LASF83
/var/folders/rt/4gvqv631095f64jvm7jfj_000000gn/T//ccUtSSg3.s:5224   .debug_str:000000000000013a .LASF84
/var/folders/rt/4gvqv631095f64jvm7jfj_000000gn/T//ccUtSSg3.s:5466   .debug_str:00000000000005fd .LASF85
/var/folders/rt/4gvqv631095f64jvm7jfj_000000gn/T//ccUtSSg3.s:5416   .debug_str:0000000000000507 .LASF86
/var/folders/rt/4gvqv631095f64jvm7jfj_000000gn/T//ccUtSSg3.s:5240   .debug_str:000000000000018a .LASF87
/var/folders/rt/4gvqv631095f64jvm7jfj_000000gn/T//ccUtSSg3.s:5302   .debug_str:00000000000002d0 .LASF88
/var/folders/rt/4gvqv631095f64jvm7jfj_000000gn/T//ccUtSSg3.s:5544   .debug_str:0000000000000859 .LASF89
/var/folders/rt/4gvqv631095f64jvm7jfj_000000gn/T//ccUtSSg3.s:5232   .debug_str:000000000000015d .LASF90
/var/folders/rt/4gvqv631095f64jvm7jfj_000000gn/T//ccUtSSg3.s:5284   .debug_str:0000000000000273 .LASF91
/var/folders/rt/4gvqv631095f64jvm7jfj_000000gn/T//ccUtSSg3.s:5342   .debug_str:0000000000000395 .LASF92
/var/folders/rt/4gvqv631095f64jvm7jfj_000000gn/T//ccUtSSg3.s:5452   .debug_str:00000000000005c3 .LASF93
/var/folders/rt/4gvqv631095f64jvm7jfj_000000gn/T//ccUtSSg3.s:5212   .debug_str:0000000000000104 .LASF94
/var/folders/rt/4gvqv631095f64jvm7jfj_000000gn/T//ccUtSSg3.s:5222   .debug_str:0000000000000134 .LASF95
/var/folders/rt/4gvqv631095f64jvm7jfj_000000gn/T//ccUtSSg3.s:5528   .debug_str:0000000000000803 .LASF96
/var/folders/rt/4gvqv631095f64jvm7jfj_000000gn/T//ccUtSSg3.s:5464   .debug_str:00000000000005f4 .LASF97
/var/folders/rt/4gvqv631095f64jvm7jfj_000000gn/T//ccUtSSg3.s:5352   .debug_str:00000000000003c3 .LASF98
/var/folders/rt/4gvqv631095f64jvm7jfj_000000gn/T//ccUtSSg3.s:5308   .debug_str:00000000000002f0 .LASF99
/var/folders/rt/4gvqv631095f64jvm7jfj_000000gn/T//ccUtSSg3.s:5334   .debug_str:0000000000000367 .LASF100
/var/folders/rt/4gvqv631095f64jvm7jfj_000000gn/T//ccUtSSg3.s:5418   .debug_str:000000000000050f .LASF101
/var/folders/rt/4gvqv631095f64jvm7jfj_000000gn/T//ccUtSSg3.s:5412   .debug_str:00000000000004f8 .LASF102
/var/folders/rt/4gvqv631095f64jvm7jfj_000000gn/T//ccUtSSg3.s:5444   .debug_str:00000000000005a6 .LASF103
/var/folders/rt/4gvqv631095f64jvm7jfj_000000gn/T//ccUtSSg3.s:5460   .debug_str:00000000000005e8 .LASF104
/var/folders/rt/4gvqv631095f64jvm7jfj_000000gn/T//ccUtSSg3.s:5244   .debug_str:00000000000001a2 .LASF105
/var/folders/rt/4gvqv631095f64jvm7jfj_000000gn/T//ccUtSSg3.s:5296   .debug_str:00000000000002ae .LASF106
/var/folders/rt/4gvqv631095f64jvm7jfj_000000gn/T//ccUtSSg3.s:5278   .debug_str:0000000000000258 .LASF107
/var/folders/rt/4gvqv631095f64jvm7jfj_000000gn/T//ccUtSSg3.s:5428   .debug_str:000000000000054b .LASF108
/var/folders/rt/4gvqv631095f64jvm7jfj_000000gn/T//ccUtSSg3.s:5176   .debug_str:000000000000002e .LASF109
/var/folders/rt/4gvqv631095f64jvm7jfj_000000gn/T//ccUtSSg3.s:5438   .debug_str:0000000000000571 .LASF110
/var/folders/rt/4gvqv631095f64jvm7jfj_000000gn/T//ccUtSSg3.s:5434   .debug_str:000000000000055f .LASF111
/var/folders/rt/4gvqv631095f64jvm7jfj_000000gn/T//ccUtSSg3.s:5372   .debug_str:0000000000000433 .LASF112
/var/folders/rt/4gvqv631095f64jvm7jfj_000000gn/T//ccUtSSg3.s:5436   .debug_str:0000000000000567 .LASF113
/var/folders/rt/4gvqv631095f64jvm7jfj_000000gn/T//ccUtSSg3.s:5320   .debug_str:000000000000032e .LASF114
/var/folders/rt/4gvqv631095f64jvm7jfj_000000gn/T//ccUtSSg3.s:5246   .debug_str:00000000000001a9 .LASF115
/var/folders/rt/4gvqv631095f64jvm7jfj_000000gn/T//ccUtSSg3.s:5542   .debug_str:0000000000000854 .LASF116
/var/folders/rt/4gvqv631095f64jvm7jfj_000000gn/T//ccUtSSg3.s:5384   .debug_str:0000000000000471 .LASF117
/var/folders/rt/4gvqv631095f64jvm7jfj_000000gn/T//ccUtSSg3.s:5298   .debug_str:00000000000002b6 .LASF118
/var/folders/rt/4gvqv631095f64jvm7jfj_000000gn/T//ccUtSSg3.s:5252   .debug_str:00000000000001cc .LASF119
/var/folders/rt/4gvqv631095f64jvm7jfj_000000gn/T//ccUtSSg3.s:5328   .debug_str:000000000000034a .LASF120
/var/folders/rt/4gvqv631095f64jvm7jfj_000000gn/T//ccUtSSg3.s:5184   .debug_str:0000000000000053 .LASF121
/var/folders/rt/4gvqv631095f64jvm7jfj_000000gn/T//ccUtSSg3.s:5522   .debug_str:00000000000007db .LASF122
/var/folders/rt/4gvqv631095f64jvm7jfj_000000gn/T//ccUtSSg3.s:5234   .debug_str:0000000000000165 .LASF123
/var/folders/rt/4gvqv631095f64jvm7jfj_000000gn/T//ccUtSSg3.s:5228   .debug_str:000000000000014a .LASF124
/var/folders/rt/4gvqv631095f64jvm7jfj_000000gn/T//ccUtSSg3.s:5414   .debug_str:0000000000000500 .LASF125
/var/folders/rt/4gvqv631095f64jvm7jfj_000000gn/T//ccUtSSg3.s:5512   .debug_str:00000000000007ab .LASF126
/var/folders/rt/4gvqv631095f64jvm7jfj_000000gn/T//ccUtSSg3.s:5310   .debug_str:00000000000002f6 .LASF127
/var/folders/rt/4gvqv631095f64jvm7jfj_000000gn/T//ccUtSSg3.s:5400   .debug_str:00000000000004c6 .LASF128
/var/folders/rt/4gvqv631095f64jvm7jfj_000000gn/T//ccUtSSg3.s:5174   .debug_str:0000000000000026 .LASF129
/var/folders/rt/4gvqv631095f64jvm7jfj_000000gn/T//ccUtSSg3.s:5446   .debug_str:00000000000005ad .LASF130
/var/folders/rt/4gvqv631095f64jvm7jfj_000000gn/T//ccUtSSg3.s:5336   .debug_str:000000000000036d .LASF131
/var/folders/rt/4gvqv631095f64jvm7jfj_000000gn/T//ccUtSSg3.s:5488   .debug_str:0000000000000728 .LASF132
/var/folders/rt/4gvqv631095f64jvm7jfj_000000gn/T//ccUtSSg3.s:5506   .debug_str:000000000000078f .LASF133
/var/folders/rt/4gvqv631095f64jvm7jfj_000000gn/T//ccUtSSg3.s:5260   .debug_str:00000000000001fc .LASF134
/var/folders/rt/4gvqv631095f64jvm7jfj_000000gn/T//ccUtSSg3.s:5318   .debug_str:0000000000000321 .LASF135
GAS LISTING /var/folders/rt/4gvqv631095f64jvm7jfj_000000gn/T//ccUtSSg3.s 			page 34


/var/folders/rt/4gvqv631095f64jvm7jfj_000000gn/T//ccUtSSg3.s:5534   .debug_str:000000000000081c .LASF136
/var/folders/rt/4gvqv631095f64jvm7jfj_000000gn/T//ccUtSSg3.s:5374   .debug_str:000000000000043e .LASF137
/var/folders/rt/4gvqv631095f64jvm7jfj_000000gn/T//ccUtSSg3.s:5314   .debug_str:000000000000030a .LASF138
/var/folders/rt/4gvqv631095f64jvm7jfj_000000gn/T//ccUtSSg3.s:5358   .debug_str:00000000000003db .LASF139
/var/folders/rt/4gvqv631095f64jvm7jfj_000000gn/T//ccUtSSg3.s:5426   .debug_str:000000000000053e .LASF140
/var/folders/rt/4gvqv631095f64jvm7jfj_000000gn/T//ccUtSSg3.s:5540   .debug_str:0000000000000846 .LASF141
/var/folders/rt/4gvqv631095f64jvm7jfj_000000gn/T//ccUtSSg3.s:5206   .debug_str:00000000000000e6 .LASF142
/var/folders/rt/4gvqv631095f64jvm7jfj_000000gn/T//ccUtSSg3.s:5516   .debug_str:00000000000007ba .LASF143
/var/folders/rt/4gvqv631095f64jvm7jfj_000000gn/T//ccUtSSg3.s:5316   .debug_str:0000000000000315 .LASF144
/var/folders/rt/4gvqv631095f64jvm7jfj_000000gn/T//ccUtSSg3.s:5494   .debug_str:000000000000073f .LASF145
/var/folders/rt/4gvqv631095f64jvm7jfj_000000gn/T//ccUtSSg3.s:5262   .debug_str:0000000000000209 .LASF146
/var/folders/rt/4gvqv631095f64jvm7jfj_000000gn/T//ccUtSSg3.s:5496   .debug_str:000000000000074c .LASF147
/var/folders/rt/4gvqv631095f64jvm7jfj_000000gn/T//ccUtSSg3.s:5258   .debug_str:00000000000001eb .LASF148
/var/folders/rt/4gvqv631095f64jvm7jfj_000000gn/T//ccUtSSg3.s:5188   .debug_str:0000000000000061 .LASF149
/var/folders/rt/4gvqv631095f64jvm7jfj_000000gn/T//ccUtSSg3.s:5190   .debug_str:0000000000000070 .LASF150
/var/folders/rt/4gvqv631095f64jvm7jfj_000000gn/T//ccUtSSg3.s:5404   .debug_str:00000000000004d5 .LASF151
/var/folders/rt/4gvqv631095f64jvm7jfj_000000gn/T//ccUtSSg3.s:5356   .debug_str:00000000000003d4 .LASF152
/var/folders/rt/4gvqv631095f64jvm7jfj_000000gn/T//ccUtSSg3.s:5348   .debug_str:00000000000003ae .LASF153
/var/folders/rt/4gvqv631095f64jvm7jfj_000000gn/T//ccUtSSg3.s:5530   .debug_str:0000000000000809 .LASF154
/var/folders/rt/4gvqv631095f64jvm7jfj_000000gn/T//ccUtSSg3.s:5198   .debug_str:00000000000000ab .LASF188
/var/folders/rt/4gvqv631095f64jvm7jfj_000000gn/T//ccUtSSg3.s:5276   .debug_str:000000000000024c .LASF155
/var/folders/rt/4gvqv631095f64jvm7jfj_000000gn/T//ccUtSSg3.s:5502   .debug_str:0000000000000773 .LASF156
/var/folders/rt/4gvqv631095f64jvm7jfj_000000gn/T//ccUtSSg3.s:5370   .debug_str:0000000000000429 .LASF157
/var/folders/rt/4gvqv631095f64jvm7jfj_000000gn/T//ccUtSSg3.s:5292   .debug_str:000000000000028a .LASF158
/var/folders/rt/4gvqv631095f64jvm7jfj_000000gn/T//ccUtSSg3.s:5192   .debug_str:0000000000000081 .LASF159
/var/folders/rt/4gvqv631095f64jvm7jfj_000000gn/T//ccUtSSg3.s:5484   .debug_str:000000000000070e .LASF189
/var/folders/rt/4gvqv631095f64jvm7jfj_000000gn/T//ccUtSSg3.s:707    .text.applyGreenFingers:0000000000000000 .LFB9
/var/folders/rt/4gvqv631095f64jvm7jfj_000000gn/T//ccUtSSg3.s:867    .text.applyGreenFingers:00000000000000b8 .LFE9
/var/folders/rt/4gvqv631095f64jvm7jfj_000000gn/T//ccUtSSg3.s:4335   .debug_loc:0000000000000000 .LLST32
/var/folders/rt/4gvqv631095f64jvm7jfj_000000gn/T//ccUtSSg3.s:5340   .debug_str:000000000000038b .LASF160
/var/folders/rt/4gvqv631095f64jvm7jfj_000000gn/T//ccUtSSg3.s:4358   .debug_loc:0000000000000038 .LLST33
/var/folders/rt/4gvqv631095f64jvm7jfj_000000gn/T//ccUtSSg3.s:5422   .debug_str:0000000000000521 .LASF161
/var/folders/rt/4gvqv631095f64jvm7jfj_000000gn/T//ccUtSSg3.s:4376   .debug_loc:0000000000000064 .LLST34
/var/folders/rt/4gvqv631095f64jvm7jfj_000000gn/T//ccUtSSg3.s:5248   .debug_str:00000000000001b3 .LASF162
/var/folders/rt/4gvqv631095f64jvm7jfj_000000gn/T//ccUtSSg3.s:4398   .debug_loc:000000000000009b .LLST35
/var/folders/rt/4gvqv631095f64jvm7jfj_000000gn/T//ccUtSSg3.s:5518   .debug_str:00000000000007c4 .LASF163
/var/folders/rt/4gvqv631095f64jvm7jfj_000000gn/T//ccUtSSg3.s:4437   .debug_loc:00000000000000ff .LLST36
/var/folders/rt/4gvqv631095f64jvm7jfj_000000gn/T//ccUtSSg3.s:4448   .debug_loc:000000000000011d .LLST37
/var/folders/rt/4gvqv631095f64jvm7jfj_000000gn/T//ccUtSSg3.s:796    .text.applyGreenFingers:0000000000000058 .LVL69
/var/folders/rt/4gvqv631095f64jvm7jfj_000000gn/T//ccUtSSg3.s:825    .text.applyGreenFingers:0000000000000082 .LVL72
/var/folders/rt/4gvqv631095f64jvm7jfj_000000gn/T//ccUtSSg3.s:854    .text.applyGreenFingers:00000000000000ae .LVL75
/var/folders/rt/4gvqv631095f64jvm7jfj_000000gn/T//ccUtSSg3.s:732    .text.applyGreenFingers:0000000000000018 .LVL61
/var/folders/rt/4gvqv631095f64jvm7jfj_000000gn/T//ccUtSSg3.s:5538   .debug_str:0000000000000834 .LASF190
/var/folders/rt/4gvqv631095f64jvm7jfj_000000gn/T//ccUtSSg3.s:5180   .debug_str:0000000000000042 .LASF164
/var/folders/rt/4gvqv631095f64jvm7jfj_000000gn/T//ccUtSSg3.s:5526   .debug_str:00000000000007ef .LASF169
/var/folders/rt/4gvqv631095f64jvm7jfj_000000gn/T//ccUtSSg3.s:311    .text.updatePlantReadings:0000000000000000 .LFB7
/var/folders/rt/4gvqv631095f64jvm7jfj_000000gn/T//ccUtSSg3.s:700    .text.updatePlantReadings:00000000000001f4 .LFE7
/var/folders/rt/4gvqv631095f64jvm7jfj_000000gn/T//ccUtSSg3.s:4464   .debug_loc:0000000000000147 .LLST17
/var/folders/rt/4gvqv631095f64jvm7jfj_000000gn/T//ccUtSSg3.s:4487   .debug_loc:000000000000017f .LLST18
/var/folders/rt/4gvqv631095f64jvm7jfj_000000gn/T//ccUtSSg3.s:5186   .debug_str:000000000000005c .LASF165
/var/folders/rt/4gvqv631095f64jvm7jfj_000000gn/T//ccUtSSg3.s:4513   .debug_loc:00000000000001c1 .LLST19
/var/folders/rt/4gvqv631095f64jvm7jfj_000000gn/T//ccUtSSg3.s:5398   .debug_str:00000000000004be .LASF166
/var/folders/rt/4gvqv631095f64jvm7jfj_000000gn/T//ccUtSSg3.s:4553   .debug_loc:000000000000021f .LLST20
/var/folders/rt/4gvqv631095f64jvm7jfj_000000gn/T//ccUtSSg3.s:5312   .debug_str:00000000000002fd .LASF167
/var/folders/rt/4gvqv631095f64jvm7jfj_000000gn/T//ccUtSSg3.s:4589   .debug_loc:0000000000000272 .LLST21
/var/folders/rt/4gvqv631095f64jvm7jfj_000000gn/T//ccUtSSg3.s:4601   .debug_loc:000000000000028b .LLST22
/var/folders/rt/4gvqv631095f64jvm7jfj_000000gn/T//ccUtSSg3.s:362    .text.updatePlantReadings:0000000000000044 .LVL29
GAS LISTING /var/folders/rt/4gvqv631095f64jvm7jfj_000000gn/T//ccUtSSg3.s 			page 35


/var/folders/rt/4gvqv631095f64jvm7jfj_000000gn/T//ccUtSSg3.s:430    .text.updatePlantReadings:000000000000009e .LBB11
/var/folders/rt/4gvqv631095f64jvm7jfj_000000gn/T//ccUtSSg3.s:486    .text.updatePlantReadings:00000000000000e0 .LBE11
/var/folders/rt/4gvqv631095f64jvm7jfj_000000gn/T//ccUtSSg3.s:5294   .debug_str:000000000000029a .LASF168
/var/folders/rt/4gvqv631095f64jvm7jfj_000000gn/T//ccUtSSg3.s:4636   .debug_loc:00000000000002d1 .LLST23
/var/folders/rt/4gvqv631095f64jvm7jfj_000000gn/T//ccUtSSg3.s:435    .text.updatePlantReadings:00000000000000a0 .LBB12
/var/folders/rt/4gvqv631095f64jvm7jfj_000000gn/T//ccUtSSg3.s:444    .text.updatePlantReadings:00000000000000aa .LBE12
/var/folders/rt/4gvqv631095f64jvm7jfj_000000gn/T//ccUtSSg3.s:455    .text.updatePlantReadings:00000000000000b8 .LBB13
/var/folders/rt/4gvqv631095f64jvm7jfj_000000gn/T//ccUtSSg3.s:468    .text.updatePlantReadings:00000000000000ca .LBE13
/var/folders/rt/4gvqv631095f64jvm7jfj_000000gn/T//ccUtSSg3.s:4648   .debug_loc:00000000000002f1 .LLST24
/var/folders/rt/4gvqv631095f64jvm7jfj_000000gn/T//ccUtSSg3.s:339    .text.updatePlantReadings:000000000000001c .LVL27
/var/folders/rt/4gvqv631095f64jvm7jfj_000000gn/T//ccUtSSg3.s:491    .text.updatePlantReadings:00000000000000e2 .LBB15
/var/folders/rt/4gvqv631095f64jvm7jfj_000000gn/T//ccUtSSg3.s:590    .text.updatePlantReadings:0000000000000160 .LBE15
/var/folders/rt/4gvqv631095f64jvm7jfj_000000gn/T//ccUtSSg3.s:4656   .debug_loc:0000000000000305 .LLST25
/var/folders/rt/4gvqv631095f64jvm7jfj_000000gn/T//ccUtSSg3.s:4668   .debug_loc:000000000000031e .LLST26
/var/folders/rt/4gvqv631095f64jvm7jfj_000000gn/T//ccUtSSg3.s:518    .text.updatePlantReadings:0000000000000106 .LVL44
/var/folders/rt/4gvqv631095f64jvm7jfj_000000gn/T//ccUtSSg3.s:533    .text.updatePlantReadings:0000000000000120 .LBB18
/var/folders/rt/4gvqv631095f64jvm7jfj_000000gn/T//ccUtSSg3.s:589    .text.updatePlantReadings:0000000000000160 .LBE18
/var/folders/rt/4gvqv631095f64jvm7jfj_000000gn/T//ccUtSSg3.s:4675   .debug_loc:0000000000000331 .LLST27
/var/folders/rt/4gvqv631095f64jvm7jfj_000000gn/T//ccUtSSg3.s:538    .text.updatePlantReadings:0000000000000122 .LBB19
/var/folders/rt/4gvqv631095f64jvm7jfj_000000gn/T//ccUtSSg3.s:547    .text.updatePlantReadings:000000000000012c .LBE19
/var/folders/rt/4gvqv631095f64jvm7jfj_000000gn/T//ccUtSSg3.s:558    .text.updatePlantReadings:0000000000000138 .LBB20
/var/folders/rt/4gvqv631095f64jvm7jfj_000000gn/T//ccUtSSg3.s:571    .text.updatePlantReadings:000000000000014a .LBE20
/var/folders/rt/4gvqv631095f64jvm7jfj_000000gn/T//ccUtSSg3.s:4687   .debug_loc:0000000000000351 .LLST28
/var/folders/rt/4gvqv631095f64jvm7jfj_000000gn/T//ccUtSSg3.s:496    .text.updatePlantReadings:00000000000000ec .LVL42
/var/folders/rt/4gvqv631095f64jvm7jfj_000000gn/T//ccUtSSg3.s:595    .text.updatePlantReadings:0000000000000166 .LBB21
/var/folders/rt/4gvqv631095f64jvm7jfj_000000gn/T//ccUtSSg3.s:698    .text.updatePlantReadings:00000000000001f4 .LBE21
/var/folders/rt/4gvqv631095f64jvm7jfj_000000gn/T//ccUtSSg3.s:4695   .debug_loc:0000000000000365 .LLST29
/var/folders/rt/4gvqv631095f64jvm7jfj_000000gn/T//ccUtSSg3.s:627    .text.updatePlantReadings:0000000000000198 .LVL54
/var/folders/rt/4gvqv631095f64jvm7jfj_000000gn/T//ccUtSSg3.s:643    .text.updatePlantReadings:00000000000001b4 .LBB24
/var/folders/rt/4gvqv631095f64jvm7jfj_000000gn/T//ccUtSSg3.s:697    .text.updatePlantReadings:00000000000001f4 .LBE24
/var/folders/rt/4gvqv631095f64jvm7jfj_000000gn/T//ccUtSSg3.s:4718   .debug_loc:0000000000000389 .LLST30
/var/folders/rt/4gvqv631095f64jvm7jfj_000000gn/T//ccUtSSg3.s:648    .text.updatePlantReadings:00000000000001b6 .LBB25
/var/folders/rt/4gvqv631095f64jvm7jfj_000000gn/T//ccUtSSg3.s:657    .text.updatePlantReadings:00000000000001c0 .LBE25
/var/folders/rt/4gvqv631095f64jvm7jfj_000000gn/T//ccUtSSg3.s:668    .text.updatePlantReadings:00000000000001cc .LBB26
/var/folders/rt/4gvqv631095f64jvm7jfj_000000gn/T//ccUtSSg3.s:681    .text.updatePlantReadings:00000000000001de .LBE26
/var/folders/rt/4gvqv631095f64jvm7jfj_000000gn/T//ccUtSSg3.s:4730   .debug_loc:00000000000003a9 .LLST31
/var/folders/rt/4gvqv631095f64jvm7jfj_000000gn/T//ccUtSSg3.s:599    .text.updatePlantReadings:000000000000016e .LVL51
/var/folders/rt/4gvqv631095f64jvm7jfj_000000gn/T//ccUtSSg3.s:401    .text.updatePlantReadings:0000000000000076 .LVL32
/var/folders/rt/4gvqv631095f64jvm7jfj_000000gn/T//ccUtSSg3.s:5524   .debug_str:00000000000007e5 .LASF170
/var/folders/rt/4gvqv631095f64jvm7jfj_000000gn/T//ccUtSSg3.s:40     .text.initPlant:0000000000000000 .LFB6
/var/folders/rt/4gvqv631095f64jvm7jfj_000000gn/T//ccUtSSg3.s:249    .text.initPlant:000000000000012c .LFE6
/var/folders/rt/4gvqv631095f64jvm7jfj_000000gn/T//ccUtSSg3.s:4738   .debug_loc:00000000000003bd .LLST1
/var/folders/rt/4gvqv631095f64jvm7jfj_000000gn/T//ccUtSSg3.s:5326   .debug_str:0000000000000343 .LASF171
/var/folders/rt/4gvqv631095f64jvm7jfj_000000gn/T//ccUtSSg3.s:4756   .debug_loc:00000000000003ea .LLST2
/var/folders/rt/4gvqv631095f64jvm7jfj_000000gn/T//ccUtSSg3.s:4778   .debug_loc:0000000000000421 .LLST3
/var/folders/rt/4gvqv631095f64jvm7jfj_000000gn/T//ccUtSSg3.s:4800   .debug_loc:0000000000000458 .LLST4
/var/folders/rt/4gvqv631095f64jvm7jfj_000000gn/T//ccUtSSg3.s:4822   .debug_loc:000000000000048f .LLST5
/var/folders/rt/4gvqv631095f64jvm7jfj_000000gn/T//ccUtSSg3.s:4844   .debug_loc:00000000000004c6 .LLST6
/var/folders/rt/4gvqv631095f64jvm7jfj_000000gn/T//ccUtSSg3.s:4866   .debug_loc:00000000000004fd .LLST7
/var/folders/rt/4gvqv631095f64jvm7jfj_000000gn/T//ccUtSSg3.s:4888   .debug_loc:0000000000000534 .LLST8
/var/folders/rt/4gvqv631095f64jvm7jfj_000000gn/T//ccUtSSg3.s:4910   .debug_loc:000000000000056b .LLST9
/var/folders/rt/4gvqv631095f64jvm7jfj_000000gn/T//ccUtSSg3.s:4932   .debug_loc:00000000000005a2 .LLST10
/var/folders/rt/4gvqv631095f64jvm7jfj_000000gn/T//ccUtSSg3.s:4950   .debug_loc:00000000000005ce .LLST11
/var/folders/rt/4gvqv631095f64jvm7jfj_000000gn/T//ccUtSSg3.s:4968   .debug_loc:00000000000005fa .LLST12
/var/folders/rt/4gvqv631095f64jvm7jfj_000000gn/T//ccUtSSg3.s:4986   .debug_loc:0000000000000626 .LLST13
/var/folders/rt/4gvqv631095f64jvm7jfj_000000gn/T//ccUtSSg3.s:5456   .debug_str:00000000000005d3 .LASF172
/var/folders/rt/4gvqv631095f64jvm7jfj_000000gn/T//ccUtSSg3.s:5500   .debug_str:0000000000000764 .LASF173
GAS LISTING /var/folders/rt/4gvqv631095f64jvm7jfj_000000gn/T//ccUtSSg3.s 			page 36


/var/folders/rt/4gvqv631095f64jvm7jfj_000000gn/T//ccUtSSg3.s:5004   .debug_loc:0000000000000652 .LLST14
/var/folders/rt/4gvqv631095f64jvm7jfj_000000gn/T//ccUtSSg3.s:98     .text.initPlant:0000000000000052 .LVL6
/var/folders/rt/4gvqv631095f64jvm7jfj_000000gn/T//ccUtSSg3.s:104    .text.initPlant:0000000000000066 .LVL7
/var/folders/rt/4gvqv631095f64jvm7jfj_000000gn/T//ccUtSSg3.s:207    .text.initPlant:00000000000000fe .LVL8
/var/folders/rt/4gvqv631095f64jvm7jfj_000000gn/T//ccUtSSg3.s:5362   .debug_str:00000000000003f9 .LASF191
/var/folders/rt/4gvqv631095f64jvm7jfj_000000gn/T//ccUtSSg3.s:5376   .debug_str:000000000000044d .LASF174
/var/folders/rt/4gvqv631095f64jvm7jfj_000000gn/T//ccUtSSg3.s:5380   .debug_str:0000000000000461 .LASF175
/var/folders/rt/4gvqv631095f64jvm7jfj_000000gn/T//ccUtSSg3.s:5266   .debug_str:000000000000021f .LASF176
/var/folders/rt/4gvqv631095f64jvm7jfj_000000gn/T//ccUtSSg3.s:14     .text.initSensorReading:0000000000000000 .LFB5
/var/folders/rt/4gvqv631095f64jvm7jfj_000000gn/T//ccUtSSg3.s:33     .text.initSensorReading:0000000000000006 .LFE5
/var/folders/rt/4gvqv631095f64jvm7jfj_000000gn/T//ccUtSSg3.s:5018   .debug_loc:000000000000066c .LLST0
/var/folders/rt/4gvqv631095f64jvm7jfj_000000gn/T//ccUtSSg3.s:256    .text.updatePlantStatus:0000000000000000 .LFB8
/var/folders/rt/4gvqv631095f64jvm7jfj_000000gn/T//ccUtSSg3.s:303    .text.updatePlantStatus:000000000000004c .LFE8
/var/folders/rt/4gvqv631095f64jvm7jfj_000000gn/T//ccUtSSg3.s:5036   .debug_loc:0000000000000698 .LLST15
/var/folders/rt/4gvqv631095f64jvm7jfj_000000gn/T//ccUtSSg3.s:288    .text.updatePlantStatus:0000000000000038 .LBB6
/var/folders/rt/4gvqv631095f64jvm7jfj_000000gn/T//ccUtSSg3.s:299    .text.updatePlantStatus:000000000000004a .LBE6
/var/folders/rt/4gvqv631095f64jvm7jfj_000000gn/T//ccUtSSg3.s:5077   .debug_loc:00000000000006f7 .LLST16
/var/folders/rt/4gvqv631095f64jvm7jfj_000000gn/T//ccUtSSg3.s:296    .text.updatePlantStatus:000000000000004a .LVL24
/var/folders/rt/4gvqv631095f64jvm7jfj_000000gn/T//ccUtSSg3.s:281    .text.updatePlantStatus:0000000000000030 .LVL21
/var/folders/rt/4gvqv631095f64jvm7jfj_000000gn/T//ccUtSSg3.s:5202   .debug_str:00000000000000c3 .LASF177
/var/folders/rt/4gvqv631095f64jvm7jfj_000000gn/T//ccUtSSg3.s:5254   .debug_str:00000000000001d4 .LASF178
/var/folders/rt/4gvqv631095f64jvm7jfj_000000gn/T//ccUtSSg3.s:5490   .debug_str:000000000000072d .LASF179
/var/folders/rt/4gvqv631095f64jvm7jfj_000000gn/T//ccUtSSg3.s:5498   .debug_str:000000000000075b .LASF180
/var/folders/rt/4gvqv631095f64jvm7jfj_000000gn/T//ccUtSSg3.s:5330   .debug_str:000000000000034f .LASF181
/var/folders/rt/4gvqv631095f64jvm7jfj_000000gn/T//ccUtSSg3.s:5242   .debug_str:0000000000000191 .LASF183
/var/folders/rt/4gvqv631095f64jvm7jfj_000000gn/T//ccUtSSg3.s:5324   .debug_str:000000000000033c .LASF182
/var/folders/rt/4gvqv631095f64jvm7jfj_000000gn/T//ccUtSSg3.s:5332   .debug_str:0000000000000356 .LASF184
/var/folders/rt/4gvqv631095f64jvm7jfj_000000gn/T//ccUtSSg3.s:715    .text.applyGreenFingers:0000000000000002 .LCFI7
/var/folders/rt/4gvqv631095f64jvm7jfj_000000gn/T//ccUtSSg3.s:765    .text.applyGreenFingers:000000000000002e .LCFI8
/var/folders/rt/4gvqv631095f64jvm7jfj_000000gn/T//ccUtSSg3.s:770    .text.applyGreenFingers:0000000000000030 .LCFI9
/var/folders/rt/4gvqv631095f64jvm7jfj_000000gn/T//ccUtSSg3.s:710    .text.applyGreenFingers:0000000000000000 .LVL60
/var/folders/rt/4gvqv631095f64jvm7jfj_000000gn/T//ccUtSSg3.s:743    .text.applyGreenFingers:000000000000001e .LVL63
/var/folders/rt/4gvqv631095f64jvm7jfj_000000gn/T//ccUtSSg3.s:760    .text.applyGreenFingers:000000000000002a .LVL65
/var/folders/rt/4gvqv631095f64jvm7jfj_000000gn/T//ccUtSSg3.s:768    .text.applyGreenFingers:0000000000000030 .LVL67
/var/folders/rt/4gvqv631095f64jvm7jfj_000000gn/T//ccUtSSg3.s:792    .text.applyGreenFingers:000000000000004c .LVL68
/var/folders/rt/4gvqv631095f64jvm7jfj_000000gn/T//ccUtSSg3.s:800    .text.applyGreenFingers:000000000000005a .LVL70
/var/folders/rt/4gvqv631095f64jvm7jfj_000000gn/T//ccUtSSg3.s:821    .text.applyGreenFingers:0000000000000076 .LVL71
/var/folders/rt/4gvqv631095f64jvm7jfj_000000gn/T//ccUtSSg3.s:829    .text.applyGreenFingers:0000000000000084 .LVL73
/var/folders/rt/4gvqv631095f64jvm7jfj_000000gn/T//ccUtSSg3.s:850    .text.applyGreenFingers:00000000000000a2 .LVL74
/var/folders/rt/4gvqv631095f64jvm7jfj_000000gn/T//ccUtSSg3.s:858    .text.applyGreenFingers:00000000000000b0 .LVL76
/var/folders/rt/4gvqv631095f64jvm7jfj_000000gn/T//ccUtSSg3.s:734    .text.applyGreenFingers:000000000000001a .LVL62
/var/folders/rt/4gvqv631095f64jvm7jfj_000000gn/T//ccUtSSg3.s:757    .text.applyGreenFingers:0000000000000028 .LVL64
/var/folders/rt/4gvqv631095f64jvm7jfj_000000gn/T//ccUtSSg3.s:763    .text.applyGreenFingers:000000000000002c .LVL66
/var/folders/rt/4gvqv631095f64jvm7jfj_000000gn/T//ccUtSSg3.s:318    .text.updatePlantReadings:0000000000000002 .LCFI4
/var/folders/rt/4gvqv631095f64jvm7jfj_000000gn/T//ccUtSSg3.s:397    .text.updatePlantReadings:000000000000006e .LCFI5
/var/folders/rt/4gvqv631095f64jvm7jfj_000000gn/T//ccUtSSg3.s:403    .text.updatePlantReadings:0000000000000076 .LCFI6
/var/folders/rt/4gvqv631095f64jvm7jfj_000000gn/T//ccUtSSg3.s:314    .text.updatePlantReadings:0000000000000000 .LVL25
/var/folders/rt/4gvqv631095f64jvm7jfj_000000gn/T//ccUtSSg3.s:337    .text.updatePlantReadings:0000000000000014 .LVL26
/var/folders/rt/4gvqv631095f64jvm7jfj_000000gn/T//ccUtSSg3.s:391    .text.updatePlantReadings:0000000000000068 .LVL31
/var/folders/rt/4gvqv631095f64jvm7jfj_000000gn/T//ccUtSSg3.s:381    .text.updatePlantReadings:0000000000000064 .LVL30
/var/folders/rt/4gvqv631095f64jvm7jfj_000000gn/T//ccUtSSg3.s:503    .text.updatePlantReadings:00000000000000f2 .LVL43
/var/folders/rt/4gvqv631095f64jvm7jfj_000000gn/T//ccUtSSg3.s:587    .text.updatePlantReadings:0000000000000160 .LVL50
/var/folders/rt/4gvqv631095f64jvm7jfj_000000gn/T//ccUtSSg3.s:604    .text.updatePlantReadings:0000000000000172 .LVL52
/var/folders/rt/4gvqv631095f64jvm7jfj_000000gn/T//ccUtSSg3.s:484    .text.updatePlantReadings:00000000000000e0 .LVL41
/var/folders/rt/4gvqv631095f64jvm7jfj_000000gn/T//ccUtSSg3.s:356    .text.updatePlantReadings:0000000000000036 .LVL28
/var/folders/rt/4gvqv631095f64jvm7jfj_000000gn/T//ccUtSSg3.s:411    .text.updatePlantReadings:000000000000007c .LVL33
/var/folders/rt/4gvqv631095f64jvm7jfj_000000gn/T//ccUtSSg3.s:418    .text.updatePlantReadings:0000000000000086 .LVL34
GAS LISTING /var/folders/rt/4gvqv631095f64jvm7jfj_000000gn/T//ccUtSSg3.s 			page 37


/var/folders/rt/4gvqv631095f64jvm7jfj_000000gn/T//ccUtSSg3.s:420    .text.updatePlantReadings:000000000000008a .LVL35
/var/folders/rt/4gvqv631095f64jvm7jfj_000000gn/T//ccUtSSg3.s:434    .text.updatePlantReadings:00000000000000a0 .LVL36
/var/folders/rt/4gvqv631095f64jvm7jfj_000000gn/T//ccUtSSg3.s:475    .text.updatePlantReadings:00000000000000d2 .LVL40
/var/folders/rt/4gvqv631095f64jvm7jfj_000000gn/T//ccUtSSg3.s:453    .text.updatePlantReadings:00000000000000b8 .LVL38
/var/folders/rt/4gvqv631095f64jvm7jfj_000000gn/T//ccUtSSg3.s:459    .text.updatePlantReadings:00000000000000c0 .LVL39
/var/folders/rt/4gvqv631095f64jvm7jfj_000000gn/T//ccUtSSg3.s:537    .text.updatePlantReadings:0000000000000122 .LVL45
/var/folders/rt/4gvqv631095f64jvm7jfj_000000gn/T//ccUtSSg3.s:578    .text.updatePlantReadings:0000000000000152 .LVL49
/var/folders/rt/4gvqv631095f64jvm7jfj_000000gn/T//ccUtSSg3.s:556    .text.updatePlantReadings:0000000000000138 .LVL47
/var/folders/rt/4gvqv631095f64jvm7jfj_000000gn/T//ccUtSSg3.s:562    .text.updatePlantReadings:0000000000000140 .LVL48
/var/folders/rt/4gvqv631095f64jvm7jfj_000000gn/T//ccUtSSg3.s:616    .text.updatePlantReadings:0000000000000186 .LVL53
/var/folders/rt/4gvqv631095f64jvm7jfj_000000gn/T//ccUtSSg3.s:647    .text.updatePlantReadings:00000000000001b6 .LVL55
/var/folders/rt/4gvqv631095f64jvm7jfj_000000gn/T//ccUtSSg3.s:688    .text.updatePlantReadings:00000000000001e6 .LVL59
/var/folders/rt/4gvqv631095f64jvm7jfj_000000gn/T//ccUtSSg3.s:666    .text.updatePlantReadings:00000000000001cc .LVL57
/var/folders/rt/4gvqv631095f64jvm7jfj_000000gn/T//ccUtSSg3.s:672    .text.updatePlantReadings:00000000000001d4 .LVL58
/var/folders/rt/4gvqv631095f64jvm7jfj_000000gn/T//ccUtSSg3.s:51     .text.initPlant:000000000000000e .LCFI2
/var/folders/rt/4gvqv631095f64jvm7jfj_000000gn/T//ccUtSSg3.s:241    .text.initPlant:0000000000000128 .LCFI3
/var/folders/rt/4gvqv631095f64jvm7jfj_000000gn/T//ccUtSSg3.s:43     .text.initPlant:0000000000000000 .LVL1
/var/folders/rt/4gvqv631095f64jvm7jfj_000000gn/T//ccUtSSg3.s:80     .text.initPlant:000000000000002e .LVL5
/var/folders/rt/4gvqv631095f64jvm7jfj_000000gn/T//ccUtSSg3.s:245    .text.initPlant:000000000000012a .LVL18
/var/folders/rt/4gvqv631095f64jvm7jfj_000000gn/T//ccUtSSg3.s:78     .text.initPlant:000000000000002c .LVL4
/var/folders/rt/4gvqv631095f64jvm7jfj_000000gn/T//ccUtSSg3.s:224    .text.initPlant:0000000000000110 .LVL11
/var/folders/rt/4gvqv631095f64jvm7jfj_000000gn/T//ccUtSSg3.s:58     .text.initPlant:0000000000000018 .LVL2
/var/folders/rt/4gvqv631095f64jvm7jfj_000000gn/T//ccUtSSg3.s:216    .text.initPlant:0000000000000108 .LVL9
/var/folders/rt/4gvqv631095f64jvm7jfj_000000gn/T//ccUtSSg3.s:69     .text.initPlant:000000000000002a .LVL3
/var/folders/rt/4gvqv631095f64jvm7jfj_000000gn/T//ccUtSSg3.s:239    .text.initPlant:0000000000000124 .LVL16
/var/folders/rt/4gvqv631095f64jvm7jfj_000000gn/T//ccUtSSg3.s:236    .text.initPlant:0000000000000120 .LVL15
/var/folders/rt/4gvqv631095f64jvm7jfj_000000gn/T//ccUtSSg3.s:233    .text.initPlant:000000000000011c .LVL14
/var/folders/rt/4gvqv631095f64jvm7jfj_000000gn/T//ccUtSSg3.s:230    .text.initPlant:0000000000000118 .LVL13
/var/folders/rt/4gvqv631095f64jvm7jfj_000000gn/T//ccUtSSg3.s:227    .text.initPlant:0000000000000114 .LVL12
/var/folders/rt/4gvqv631095f64jvm7jfj_000000gn/T//ccUtSSg3.s:243    .text.initPlant:0000000000000128 .LVL17
/var/folders/rt/4gvqv631095f64jvm7jfj_000000gn/T//ccUtSSg3.s:220    .text.initPlant:000000000000010c .LVL10
/var/folders/rt/4gvqv631095f64jvm7jfj_000000gn/T//ccUtSSg3.s:25     .text.initSensorReading:0000000000000002 .LCFI0
/var/folders/rt/4gvqv631095f64jvm7jfj_000000gn/T//ccUtSSg3.s:29     .text.initSensorReading:0000000000000004 .LCFI1
/var/folders/rt/4gvqv631095f64jvm7jfj_000000gn/T//ccUtSSg3.s:259    .text.updatePlantStatus:0000000000000000 .LVL19
/var/folders/rt/4gvqv631095f64jvm7jfj_000000gn/T//ccUtSSg3.s:279    .text.updatePlantStatus:0000000000000028 .LVL20
/var/folders/rt/4gvqv631095f64jvm7jfj_000000gn/T//ccUtSSg3.s:294    .text.updatePlantStatus:0000000000000042 .LVL23
/var/folders/rt/4gvqv631095f64jvm7jfj_000000gn/T//ccUtSSg3.s:287    .text.updatePlantStatus:0000000000000038 .LVL22
/var/folders/rt/4gvqv631095f64jvm7jfj_000000gn/T//ccUtSSg3.s:899    .debug_info:0000000000000000 .Ldebug_info0
/var/folders/rt/4gvqv631095f64jvm7jfj_000000gn/T//ccUtSSg3.s:333    .text.updatePlantReadings:0000000000000012 .LBB8
/var/folders/rt/4gvqv631095f64jvm7jfj_000000gn/T//ccUtSSg3.s:384    .text.updatePlantReadings:0000000000000064 .LBE8
/var/folders/rt/4gvqv631095f64jvm7jfj_000000gn/T//ccUtSSg3.s:405    .text.updatePlantReadings:0000000000000076 .LBB14
/var/folders/rt/4gvqv631095f64jvm7jfj_000000gn/T//ccUtSSg3.s:487    .text.updatePlantReadings:00000000000000e0 .LBE14
/var/folders/rt/4gvqv631095f64jvm7jfj_000000gn/T//ccUtSSg3.s:347    .text.updatePlantReadings:0000000000000028 .LBB9
/var/folders/rt/4gvqv631095f64jvm7jfj_000000gn/T//ccUtSSg3.s:383    .text.updatePlantReadings:0000000000000064 .LBE9
/var/folders/rt/4gvqv631095f64jvm7jfj_000000gn/T//ccUtSSg3.s:406    .text.updatePlantReadings:0000000000000076 .LBB10
/var/folders/rt/4gvqv631095f64jvm7jfj_000000gn/T//ccUtSSg3.s:422    .text.updatePlantReadings:000000000000008a .LBE10
/var/folders/rt/4gvqv631095f64jvm7jfj_000000gn/T//ccUtSSg3.s:505    .text.updatePlantReadings:00000000000000f6 .LBB16
/var/folders/rt/4gvqv631095f64jvm7jfj_000000gn/T//ccUtSSg3.s:511    .text.updatePlantReadings:00000000000000fc .LBE16
/var/folders/rt/4gvqv631095f64jvm7jfj_000000gn/T//ccUtSSg3.s:514    .text.updatePlantReadings:00000000000000fe .LBB17
/var/folders/rt/4gvqv631095f64jvm7jfj_000000gn/T//ccUtSSg3.s:527    .text.updatePlantReadings:0000000000000114 .LBE17
/var/folders/rt/4gvqv631095f64jvm7jfj_000000gn/T//ccUtSSg3.s:608    .text.updatePlantReadings:0000000000000178 .LBB22
/var/folders/rt/4gvqv631095f64jvm7jfj_000000gn/T//ccUtSSg3.s:613    .text.updatePlantReadings:000000000000017e .LBE22
/var/folders/rt/4gvqv631095f64jvm7jfj_000000gn/T//ccUtSSg3.s:617    .text.updatePlantReadings:0000000000000186 .LBB23
/var/folders/rt/4gvqv631095f64jvm7jfj_000000gn/T//ccUtSSg3.s:636    .text.updatePlantReadings:00000000000001a6 .LBE23
/var/folders/rt/4gvqv631095f64jvm7jfj_000000gn/T//ccUtSSg3.s:736    .text.applyGreenFingers:000000000000001a .LBB27
/var/folders/rt/4gvqv631095f64jvm7jfj_000000gn/T//ccUtSSg3.s:740    .text.applyGreenFingers:000000000000001c .LBE27
/var/folders/rt/4gvqv631095f64jvm7jfj_000000gn/T//ccUtSSg3.s:745    .text.applyGreenFingers:000000000000001e .LBB28
GAS LISTING /var/folders/rt/4gvqv631095f64jvm7jfj_000000gn/T//ccUtSSg3.s 			page 38


/var/folders/rt/4gvqv631095f64jvm7jfj_000000gn/T//ccUtSSg3.s:748    .text.applyGreenFingers:0000000000000022 .LBE28
/var/folders/rt/4gvqv631095f64jvm7jfj_000000gn/T//ccUtSSg3.s:772    .text.applyGreenFingers:0000000000000030 .LBB29
/var/folders/rt/4gvqv631095f64jvm7jfj_000000gn/T//ccUtSSg3.s:865    .text.applyGreenFingers:00000000000000b8 .LBE29

UNDEFINED SYMBOLS
snprintf
strcpy
memcpy
__fixsfsi
ADC_read
rtc_counter_get
read_temp
