GAS LISTING /var/folders/rt/4gvqv631095f64jvm7jfj_000000gn/T//cc3cV2cq.s 			page 1


   1              		.file	"plant.c"
   2              		.option nopic
   3              		.attribute arch, "rv32i2p0_m2p0_a2p0_c2p0"
   4              		.attribute unaligned_access, 0
   5              		.attribute stack_align, 16
   6              		.text
   7              	.Ltext0:
   8              		.cfi_sections	.debug_frame
   9              		.section	.text.initSensorReading,"ax",@progbits
  10              		.align	1
  11              		.globl	initSensorReading
  13              	initSensorReading:
  14              	.LFB5:
  15              		.file 1 "plant.c"
   1:plant.c       **** #include "plant.h"
   2:plant.c       **** #include <stdio.h>
   3:plant.c       **** #include "lcd.h"
   4:plant.c       **** #include "pwm.h"
   5:plant.c       **** #include "adc.h"
   6:plant.c       **** #include "gd32vf103.h"
   7:plant.c       **** #define STR_COPY(dest, src) \
   8:plant.c       ****   snprintf(dest, sizeof(dest), "%s", src) // AI. STR_COPY är en genväg för snprintf som i sin tu
   9:plant.c       **** 
  10:plant.c       **** SensorReading initSensorReading(int newTimeStamp, int inReading)
  11:plant.c       **** {
  16              		.loc 1 11 1
  17              		.cfi_startproc
  18              	.LVL0:
  12:plant.c       ****   SensorReading newReading;
  19              		.loc 1 12 3
  13:plant.c       ****   newReading.timeStamp = newTimeStamp;
  20              		.loc 1 13 3
  14:plant.c       ****   newReading.reading = inReading;
  21              		.loc 1 14 3
  15:plant.c       ****   return newReading;
  22              		.loc 1 15 3
  23              		.loc 1 15 10 is_stmt 0
  24 0000 93578500 		srli	a5,a0,8
  25 0004 93F7F70F 		andi	a5,a5,0xff
  26 0008 93D68500 		srli	a3,a1,8
  27 000c 1377F50F 		andi	a4,a0,0xff
  28 0010 A207     		slli	a5,a5,8
  29 0012 5D8F     		or	a4,a4,a5
  30 0014 93F6F60F 		andi	a3,a3,0xff
  31 0018 B70701FF 		li	a5,-16711680
  32 001c 1388F7FF 		addi	a6,a5,-1
  33 0020 A206     		slli	a3,a3,8
  34 0022 93F7F50F 		andi	a5,a1,0xff
  35 0026 3706FF00 		li	a2,16711680
  36 002a 698E     		and	a2,a0,a2
  37 002c D58F     		or	a5,a5,a3
  38 002e 33770701 		and	a4,a4,a6
  39 0032 B706FF00 		li	a3,16711680
  40 0036 518F     		or	a4,a4,a2
  41 0038 ED8E     		and	a3,a1,a3
  42 003a 37060001 		li	a2,16777216
  43 003e B3F70701 		and	a5,a5,a6
GAS LISTING /var/folders/rt/4gvqv631095f64jvm7jfj_000000gn/T//cc3cV2cq.s 			page 2


  44 0042 7D16     		addi	a2,a2,-1
  45 0044 6181     		srli	a0,a0,24
  46              	.LVL1:
  47 0046 D58F     		or	a5,a5,a3
  48 0048 E181     		srli	a1,a1,24
  49              	.LVL2:
  11:plant.c       ****   SensorReading newReading;
  50              		.loc 1 11 1
  51 004a 4111     		addi	sp,sp,-16
  52              	.LCFI0:
  53              		.cfi_def_cfa_offset 16
  54              		.loc 1 15 10
  55 004c 6205     		slli	a0,a0,24
  56 004e 718F     		and	a4,a4,a2
  57 0050 E205     		slli	a1,a1,24
  58 0052 F18F     		and	a5,a5,a2
  16:plant.c       **** }
  59              		.loc 1 16 1
  60 0054 598D     		or	a0,a4,a0
  61 0056 DD8D     		or	a1,a5,a1
  62 0058 4101     		addi	sp,sp,16
  63              	.LCFI1:
  64              		.cfi_def_cfa_offset 0
  65 005a 8280     		jr	ra
  66              		.cfi_endproc
  67              	.LFE5:
  69              		.section	.text.initPlant,"ax",@progbits
  70              		.align	1
  71              		.globl	initPlant
  73              	initPlant:
  74              	.LFB6:
  17:plant.c       **** 
  18:plant.c       **** void initPlant(char inName[], int *numberOfPlants, Plant allPlants[],
  19:plant.c       ****                int idealMoist, int lowMoist, int highMoist,
  20:plant.c       ****                int idealSun, int lowSun, int highSun,
  21:plant.c       ****                int idealTemp, int lowTemp, int highTemp)
  22:plant.c       **** {
  75              		.loc 1 22 1 is_stmt 1
  76              		.cfi_startproc
  77              	.LVL3:
  23:plant.c       ****   if (*numberOfPlants > 2)
  78              		.loc 1 23 3
  79              		.loc 1 23 6 is_stmt 0
  80 0000 03AE0500 		lw	t3,0(a1)
  22:plant.c       ****   if (*numberOfPlants > 2)
  81              		.loc 1 22 1
  82 0004 130101B0 		addi	sp,sp,-1280
  83              	.LCFI2:
  84              		.cfi_def_cfa_offset 1280
  85 0008 2322514F 		sw	s5,1252(sp)
  86 000c 2320614F 		sw	s6,1248(sp)
  87 0010 232E714D 		sw	s7,1244(sp)
  88 0014 232C814D 		sw	s8,1240(sp)
  89 0018 232E114E 		sw	ra,1276(sp)
  90 001c 232C814E 		sw	s0,1272(sp)
  91 0020 232A914E 		sw	s1,1268(sp)
  92 0024 2328214F 		sw	s2,1264(sp)
GAS LISTING /var/folders/rt/4gvqv631095f64jvm7jfj_000000gn/T//cc3cV2cq.s 			page 3


  93 0028 2326314F 		sw	s3,1260(sp)
  94 002c 2324414F 		sw	s4,1256(sp)
  95 0030 232A914D 		sw	s9,1236(sp)
  96 0034 2328A14D 		sw	s10,1232(sp)
  97              		.cfi_offset 21, -28
  98              		.cfi_offset 22, -32
  99              		.cfi_offset 23, -36
 100              		.cfi_offset 24, -40
 101              		.cfi_offset 1, -4
 102              		.cfi_offset 8, -8
 103              		.cfi_offset 9, -12
 104              		.cfi_offset 18, -16
 105              		.cfi_offset 19, -20
 106              		.cfi_offset 20, -24
 107              		.cfi_offset 25, -44
 108              		.cfi_offset 26, -48
 109              		.loc 1 23 6
 110 0038 0943     		li	t1,2
  22:plant.c       ****   if (*numberOfPlants > 2)
 111              		.loc 1 22 1
 112 003a 032C0150 		lw	s8,1280(sp)
 113 003e 832B4150 		lw	s7,1284(sp)
 114 0042 032B8150 		lw	s6,1288(sp)
 115 0046 832AC150 		lw	s5,1292(sp)
 116              		.loc 1 23 6
 117 004a 6340C317 		bgt	t3,t1,.L3
 118 004e 328D     		mv	s10,a2
  24:plant.c       ****     return;
  25:plant.c       ****   Plant newPlant;
  26:plant.c       ****   SensorReading defaultReading = initSensorReading(0, 0);
  27:plant.c       **** 
  28:plant.c       ****   STR_COPY(newPlant.name, inName);
 119              		.loc 1 28 3
 120 0050 37060000 		lui	a2,%hi(.LC0)
 121              	.LVL4:
 122 0054 368A     		mv	s4,a3
 123 0056 AE8C     		mv	s9,a1
 124 0058 AA86     		mv	a3,a0
 125              	.LVL5:
  25:plant.c       ****   SensorReading defaultReading = initSensorReading(0, 0);
 126              		.loc 1 25 3 is_stmt 1
  26:plant.c       **** 
 127              		.loc 1 26 3
  12:plant.c       ****   newReading.timeStamp = newTimeStamp;
 128              		.loc 1 12 3
  13:plant.c       ****   newReading.reading = inReading;
 129              		.loc 1 13 3
  14:plant.c       ****   return newReading;
 130              		.loc 1 14 3
  15:plant.c       **** }
 131              		.loc 1 15 3
 132              		.loc 1 28 3
 133 005a 13060600 		addi	a2,a2,%lo(.LC0)
 134 005e BD45     		li	a1,15
 135              	.LVL6:
 136 0060 0A85     		mv	a0,sp
 137              	.LVL7:
GAS LISTING /var/folders/rt/4gvqv631095f64jvm7jfj_000000gn/T//cc3cV2cq.s 			page 4


 138 0062 4684     		mv	s0,a7
 139 0064 C284     		mv	s1,a6
 140 0066 3E89     		mv	s2,a5
 141 0068 BA89     		mv	s3,a4
 142 006a 97000000 		call	snprintf
 142      E7800000 
 143              	.LVL8:
  29:plant.c       ****   STR_COPY(newPlant.currentStatus, "OK");
 144              		.loc 1 29 3
 145 0072 B7050000 		lui	a1,%hi(.LC1)
 146 0076 93850500 		addi	a1,a1,%lo(.LC1)
 147 007a 1305F100 		addi	a0,sp,15
 148 007e 97000000 		call	strcpy
 148      E7800000 
 149              	.LVL9:
  30:plant.c       **** 
  31:plant.c       ****   newPlant.moisture[0] = defaultReading;
 150              		.loc 1 31 3
  32:plant.c       ****   newPlant.sun[0] = defaultReading;
  33:plant.c       ****   newPlant.temp[0] = defaultReading;
  34:plant.c       ****   newPlant.numberOfMoistureReadings = 1;
 151              		.loc 1 34 37 is_stmt 0
 152 0086 8547     		li	a5,1
 153 0088 231FF130 		sh	a5,798(sp)
  35:plant.c       ****   newPlant.numberOfSunReadings = 1;
 154              		.loc 1 35 32
 155 008c 2311F132 		sh	a5,802(sp)
  36:plant.c       ****   newPlant.numberOfTempReadings = 1;
 156              		.loc 1 36 33
 157 0090 2313F132 		sh	a5,806(sp)
  37:plant.c       **** 
  38:plant.c       ****   newPlant.moistHistory[0] = 0;
  39:plant.c       ****   newPlant.sunHistory[0] = 0;
  40:plant.c       ****   newPlant.tempHistory[0] = 0;
  41:plant.c       ****   newPlant.numberOfMoistureHistory = 1;
 158              		.loc 1 41 36
 159 0094 2319F148 		sh	a5,1170(sp)
  42:plant.c       ****   newPlant.numberOfSunHistory = 1;
 160              		.loc 1 42 31
 161 0098 231BF148 		sh	a5,1174(sp)
  43:plant.c       ****   newPlant.numberOfTempHistory = 1;
 162              		.loc 1 43 32
 163 009c 231DF148 		sh	a5,1178(sp)
  44:plant.c       **** 
  45:plant.c       ****   newPlant.moistInterval = 1800;
 164              		.loc 1 45 26
 165 00a0 93078070 		li	a5,1800
 166 00a4 231FF148 		sh	a5,1182(sp)
  46:plant.c       ****   newPlant.sunInterval = 60;
 167              		.loc 1 46 24
 168 00a8 1307C003 		li	a4,60
  31:plant.c       ****   newPlant.sun[0] = defaultReading;
 169              		.loc 1 31 24
 170 00ac 231F0100 		sh	zero,30(sp)
 171 00b0 23100102 		sh	zero,32(sp)
 172 00b4 23110102 		sh	zero,34(sp)
 173 00b8 23120102 		sh	zero,36(sp)
GAS LISTING /var/folders/rt/4gvqv631095f64jvm7jfj_000000gn/T//cc3cV2cq.s 			page 5


  32:plant.c       ****   newPlant.temp[0] = defaultReading;
 174              		.loc 1 32 3 is_stmt 1
  32:plant.c       ****   newPlant.temp[0] = defaultReading;
 175              		.loc 1 32 19 is_stmt 0
 176 00bc 231F010C 		sh	zero,222(sp)
 177 00c0 2310010E 		sh	zero,224(sp)
 178 00c4 2311010E 		sh	zero,226(sp)
 179 00c8 2312010E 		sh	zero,228(sp)
  33:plant.c       ****   newPlant.numberOfMoistureReadings = 1;
 180              		.loc 1 33 3 is_stmt 1
  33:plant.c       ****   newPlant.numberOfMoistureReadings = 1;
 181              		.loc 1 33 20 is_stmt 0
 182 00cc 231F0124 		sh	zero,606(sp)
 183 00d0 23100126 		sh	zero,608(sp)
 184 00d4 23110126 		sh	zero,610(sp)
 185 00d8 23120126 		sh	zero,612(sp)
  34:plant.c       ****   newPlant.numberOfSunReadings = 1;
 186              		.loc 1 34 3 is_stmt 1
  34:plant.c       ****   newPlant.numberOfSunReadings = 1;
 187              		.loc 1 34 37 is_stmt 0
 188 00dc 23100132 		sh	zero,800(sp)
  35:plant.c       ****   newPlant.numberOfTempReadings = 1;
 189              		.loc 1 35 3 is_stmt 1
  35:plant.c       ****   newPlant.numberOfTempReadings = 1;
 190              		.loc 1 35 32 is_stmt 0
 191 00e0 23120132 		sh	zero,804(sp)
  36:plant.c       **** 
 192              		.loc 1 36 3 is_stmt 1
  36:plant.c       **** 
 193              		.loc 1 36 33 is_stmt 0
 194 00e4 23140132 		sh	zero,808(sp)
  38:plant.c       ****   newPlant.sunHistory[0] = 0;
 195              		.loc 1 38 3 is_stmt 1
  38:plant.c       ****   newPlant.sunHistory[0] = 0;
 196              		.loc 1 38 28 is_stmt 0
 197 00e8 23150132 		sh	zero,810(sp)
 198 00ec 23160132 		sh	zero,812(sp)
  39:plant.c       ****   newPlant.tempHistory[0] = 0;
 199              		.loc 1 39 3 is_stmt 1
  39:plant.c       ****   newPlant.tempHistory[0] = 0;
 200              		.loc 1 39 26 is_stmt 0
 201 00f0 2311013A 		sh	zero,930(sp)
 202 00f4 2312013A 		sh	zero,932(sp)
  40:plant.c       ****   newPlant.numberOfMoistureHistory = 1;
 203              		.loc 1 40 3 is_stmt 1
  40:plant.c       ****   newPlant.numberOfMoistureHistory = 1;
 204              		.loc 1 40 27 is_stmt 0
 205 00f8 231D0140 		sh	zero,1050(sp)
 206 00fc 231E0140 		sh	zero,1052(sp)
  41:plant.c       ****   newPlant.numberOfSunHistory = 1;
 207              		.loc 1 41 3 is_stmt 1
  41:plant.c       ****   newPlant.numberOfSunHistory = 1;
 208              		.loc 1 41 36 is_stmt 0
 209 0100 231A0148 		sh	zero,1172(sp)
  42:plant.c       ****   newPlant.numberOfTempHistory = 1;
 210              		.loc 1 42 3 is_stmt 1
  42:plant.c       ****   newPlant.numberOfTempHistory = 1;
GAS LISTING /var/folders/rt/4gvqv631095f64jvm7jfj_000000gn/T//cc3cV2cq.s 			page 6


 211              		.loc 1 42 31 is_stmt 0
 212 0104 231C0148 		sh	zero,1176(sp)
  43:plant.c       **** 
 213              		.loc 1 43 3 is_stmt 1
  43:plant.c       **** 
 214              		.loc 1 43 32 is_stmt 0
 215 0108 231E0148 		sh	zero,1180(sp)
  45:plant.c       ****   newPlant.sunInterval = 60;
 216              		.loc 1 45 3 is_stmt 1
  45:plant.c       ****   newPlant.sunInterval = 60;
 217              		.loc 1 45 26 is_stmt 0
 218 010c 2310014A 		sh	zero,1184(sp)
 219              		.loc 1 46 3 is_stmt 1
 220              		.loc 1 46 24 is_stmt 0
 221 0110 2311E14A 		sh	a4,1186(sp)
  47:plant.c       ****   newPlant.tempInterval = 1800;
  48:plant.c       **** 
  49:plant.c       ****   newPlant.idealMoist = idealMoist;
  50:plant.c       ****   newPlant.lowMoist = lowMoist;
  51:plant.c       ****   newPlant.highMoist = highMoist;
  52:plant.c       **** 
  53:plant.c       ****   newPlant.idealSun = idealSun;
  54:plant.c       ****   newPlant.lowSun = lowSun;
 222              		.loc 1 54 19
 223 0114 231D814A 		sh	s0,1210(sp)
 224 0118 4180     		srli	s0,s0,16
 225              	.LVL10:
 226 011a 231E814A 		sh	s0,1212(sp)
  55:plant.c       ****   newPlant.highSun = highSun;
  56:plant.c       **** 
  57:plant.c       ****   newPlant.idealTemp = idealTemp;
  58:plant.c       ****   newPlant.lowTemp = lowTemp;
  59:plant.c       ****   newPlant.highTemp = highTemp;
  60:plant.c       **** 
  61:plant.c       ****   allPlants[*numberOfPlants] = newPlant;
 227              		.loc 1 61 13
 228 011e 03A40C00 		lw	s0,0(s9)
 229              		.loc 1 61 30
 230 0122 1305E04C 		li	a0,1230
  49:plant.c       ****   newPlant.lowMoist = lowMoist;
 231              		.loc 1 49 23
 232 0126 2315414B 		sh	s4,1194(sp)
 233              		.loc 1 61 30
 234 012a 3305A402 		mul	a0,s0,a0
  50:plant.c       ****   newPlant.highMoist = highMoist;
 235              		.loc 1 50 21
 236 012e 231B314B 		sh	s3,1206(sp)
  51:plant.c       **** 
 237              		.loc 1 51 22
 238 0132 2311214D 		sh	s2,1218(sp)
  53:plant.c       ****   newPlant.lowSun = lowSun;
 239              		.loc 1 53 21
 240 0136 2317914A 		sh	s1,1198(sp)
  55:plant.c       **** 
 241              		.loc 1 55 20
 242 013a 2313814D 		sh	s8,1222(sp)
  57:plant.c       ****   newPlant.lowTemp = lowTemp;
GAS LISTING /var/folders/rt/4gvqv631095f64jvm7jfj_000000gn/T//cc3cV2cq.s 			page 7


 243              		.loc 1 57 22
 244 013e 2319714B 		sh	s7,1202(sp)
  58:plant.c       ****   newPlant.highTemp = highTemp;
 245              		.loc 1 58 20
 246 0142 231F614B 		sh	s6,1214(sp)
  59:plant.c       **** 
 247              		.loc 1 59 21
 248 0146 2315514D 		sh	s5,1226(sp)
  49:plant.c       ****   newPlant.lowMoist = lowMoist;
 249              		.loc 1 49 23
 250 014a 135A0A01 		srli	s4,s4,16
 251              	.LVL11:
  50:plant.c       ****   newPlant.highMoist = highMoist;
 252              		.loc 1 50 21
 253 014e 93D90901 		srli	s3,s3,16
 254              	.LVL12:
  51:plant.c       **** 
 255              		.loc 1 51 22
 256 0152 13590901 		srli	s2,s2,16
 257              	.LVL13:
  53:plant.c       ****   newPlant.lowSun = lowSun;
 258              		.loc 1 53 21
 259 0156 C180     		srli	s1,s1,16
 260              	.LVL14:
  55:plant.c       **** 
 261              		.loc 1 55 20
 262 0158 135C0C01 		srli	s8,s8,16
  57:plant.c       ****   newPlant.lowTemp = lowTemp;
 263              		.loc 1 57 22
 264 015c 93DB0B01 		srli	s7,s7,16
  58:plant.c       ****   newPlant.highTemp = highTemp;
 265              		.loc 1 58 20
 266 0160 135B0B01 		srli	s6,s6,16
  59:plant.c       **** 
 267              		.loc 1 59 21
 268 0164 93DA0A01 		srli	s5,s5,16
 269              		.loc 1 61 30
 270 0168 1306E04C 		li	a2,1230
 271 016c 8A85     		mv	a1,sp
 272 016e 6A95     		add	a0,s10,a0
  62:plant.c       ****   (*numberOfPlants)++;
 273              		.loc 1 62 20
 274 0170 0504     		addi	s0,s0,1
  46:plant.c       ****   newPlant.tempInterval = 1800;
 275              		.loc 1 46 24
 276 0172 2312014A 		sh	zero,1188(sp)
  47:plant.c       **** 
 277              		.loc 1 47 3 is_stmt 1
  47:plant.c       **** 
 278              		.loc 1 47 25 is_stmt 0
 279 0176 2313F14A 		sh	a5,1190(sp)
 280 017a 2314014A 		sh	zero,1192(sp)
  49:plant.c       ****   newPlant.lowMoist = lowMoist;
 281              		.loc 1 49 3 is_stmt 1
  49:plant.c       ****   newPlant.lowMoist = lowMoist;
 282              		.loc 1 49 23 is_stmt 0
 283 017e 2316414B 		sh	s4,1196(sp)
GAS LISTING /var/folders/rt/4gvqv631095f64jvm7jfj_000000gn/T//cc3cV2cq.s 			page 8


  50:plant.c       ****   newPlant.highMoist = highMoist;
 284              		.loc 1 50 3 is_stmt 1
  50:plant.c       ****   newPlant.highMoist = highMoist;
 285              		.loc 1 50 21 is_stmt 0
 286 0182 231C314B 		sh	s3,1208(sp)
  51:plant.c       **** 
 287              		.loc 1 51 3 is_stmt 1
  51:plant.c       **** 
 288              		.loc 1 51 22 is_stmt 0
 289 0186 2312214D 		sh	s2,1220(sp)
  53:plant.c       ****   newPlant.lowSun = lowSun;
 290              		.loc 1 53 3 is_stmt 1
  53:plant.c       ****   newPlant.lowSun = lowSun;
 291              		.loc 1 53 21 is_stmt 0
 292 018a 2318914A 		sh	s1,1200(sp)
  54:plant.c       ****   newPlant.highSun = highSun;
 293              		.loc 1 54 3 is_stmt 1
  55:plant.c       **** 
 294              		.loc 1 55 3
  55:plant.c       **** 
 295              		.loc 1 55 20 is_stmt 0
 296 018e 2314814D 		sh	s8,1224(sp)
  57:plant.c       ****   newPlant.lowTemp = lowTemp;
 297              		.loc 1 57 3 is_stmt 1
  57:plant.c       ****   newPlant.lowTemp = lowTemp;
 298              		.loc 1 57 22 is_stmt 0
 299 0192 231A714B 		sh	s7,1204(sp)
  58:plant.c       ****   newPlant.highTemp = highTemp;
 300              		.loc 1 58 3 is_stmt 1
  58:plant.c       ****   newPlant.highTemp = highTemp;
 301              		.loc 1 58 20 is_stmt 0
 302 0196 2310614D 		sh	s6,1216(sp)
  59:plant.c       **** 
 303              		.loc 1 59 3 is_stmt 1
  59:plant.c       **** 
 304              		.loc 1 59 21 is_stmt 0
 305 019a 2316514D 		sh	s5,1228(sp)
  61:plant.c       ****   (*numberOfPlants)++;
 306              		.loc 1 61 3 is_stmt 1
  61:plant.c       ****   (*numberOfPlants)++;
 307              		.loc 1 61 30 is_stmt 0
 308 019e 97000000 		call	memcpy
 308      E7800000 
 309              	.LVL15:
 310              		.loc 1 62 3 is_stmt 1
 311              		.loc 1 62 20 is_stmt 0
 312 01a6 23A08C00 		sw	s0,0(s9)
 313              	.LVL16:
 314              	.L3:
  63:plant.c       **** }
 315              		.loc 1 63 1
 316 01aa 8320C14F 		lw	ra,1276(sp)
 317              		.cfi_restore 1
 318 01ae 0324814F 		lw	s0,1272(sp)
 319              		.cfi_restore 8
 320 01b2 8324414F 		lw	s1,1268(sp)
 321              		.cfi_restore 9
GAS LISTING /var/folders/rt/4gvqv631095f64jvm7jfj_000000gn/T//cc3cV2cq.s 			page 9


 322 01b6 0329014F 		lw	s2,1264(sp)
 323              		.cfi_restore 18
 324 01ba 8329C14E 		lw	s3,1260(sp)
 325              		.cfi_restore 19
 326 01be 032A814E 		lw	s4,1256(sp)
 327              		.cfi_restore 20
 328 01c2 832A414E 		lw	s5,1252(sp)
 329              		.cfi_restore 21
 330 01c6 032B014E 		lw	s6,1248(sp)
 331              		.cfi_restore 22
 332 01ca 832BC14D 		lw	s7,1244(sp)
 333              		.cfi_restore 23
 334 01ce 032C814D 		lw	s8,1240(sp)
 335              		.cfi_restore 24
 336 01d2 832C414D 		lw	s9,1236(sp)
 337              		.cfi_restore 25
 338 01d6 032D014D 		lw	s10,1232(sp)
 339              		.cfi_restore 26
 340 01da 13010150 		addi	sp,sp,1280
 341              	.LCFI3:
 342              		.cfi_def_cfa_offset 0
 343              	.LVL17:
 344 01de 8280     		jr	ra
 345              		.cfi_endproc
 346              	.LFE6:
 348              		.section	.text.updatePlantStatus,"ax",@progbits
 349              		.align	1
 350              		.globl	updatePlantStatus
 352              	updatePlantStatus:
 353              	.LFB8:
  64:plant.c       **** 
  65:plant.c       **** // plantID används inte förräns vi löst MUX osv. När det är gjort kommer värdet vidarebefodr
  66:plant.c       **** void updatePlantReadings(Plant *plant, SensorType type, int plantID)
  67:plant.c       **** {
  68:plant.c       ****   if (type == SUN)
  69:plant.c       ****   {
  70:plant.c       ****     //int currentValue = readLightSensor(ADC0, ADC_FLAG_EOC);
  71:plant.c       ****     int currentValue = ADC_read(3);
  72:plant.c       ****     if (currentValue < 0)
  73:plant.c       ****       currentValue = 0;
  74:plant.c       ****     if (plant->numberOfSunReadings <= MAX_SUN_READINGS)
  75:plant.c       ****     {
  76:plant.c       ****       // vi ska ta averagevärde för sol för att undvika för många värden. delar på 30 efters
  77:plant.c       ****       // och vi vill uppnå ett värde som representerar hela minutens genomsnitt. Detta är dock p
  78:plant.c       ****       plant->sun[plant->numberOfSunReadings - 1].reading += currentValue / 30;
  79:plant.c       ****       int32_t currentTime = rtc_counter_get();
  80:plant.c       ****       plant->sun[plant->numberOfSunReadings - 1].timeStamp = currentTime;
  81:plant.c       ****       // Special för ljus. Om detta är första värdet som tas så har vi precis bootat. Isåfall
  82:plant.c       ****       if (plant->numberOfSunReadings == 1)
  83:plant.c       ****       {
  84:plant.c       ****         if (currentTime >= 1800)
  85:plant.c       ****           (plant->numberOfSunReadings)++;
  86:plant.c       ****       }
  87:plant.c       ****       // Om det inte är första värdet så kan vi bara jämföra med timeStampen innan
  88:plant.c       ****       else if (plant->sun[plant->numberOfSunReadings - 1].timeStamp - plant->sun[plant->numberOfSun
  89:plant.c       ****         (plant->numberOfSunReadings)++;
  90:plant.c       ****     }
GAS LISTING /var/folders/rt/4gvqv631095f64jvm7jfj_000000gn/T//cc3cV2cq.s 			page 10


  91:plant.c       **** 
  92:plant.c       ****     if (plant->numberOfSunReadings == MAX_SUN_READINGS)
  93:plant.c       ****     {
  94:plant.c       ****       // Dags för reset: 48 värden för dygnet har uppnåtts.
  95:plant.c       ****       int averageValueThisDay = 0;
  96:plant.c       ****       for (int i = 0; i < MAX_SUN_READINGS; i++)
  97:plant.c       ****       {
  98:plant.c       ****         averageValueThisDay += plant->sun[i].reading;
  99:plant.c       ****       }
 100:plant.c       ****       plant->numberOfSunReadings = 1;
 101:plant.c       **** 
 102:plant.c       ****       averageValueThisDay /= MAX_SUN_READINGS;
 103:plant.c       ****       // Flytta nuvarande värden så att senaste värde ligger först
 104:plant.c       ****       for (int i = AVG_HISTORY_DAYS-1; i > 0; i--)
 105:plant.c       ****       {
 106:plant.c       ****         plant->sunHistory[i] = plant->sunHistory[i - 1];
 107:plant.c       ****       }
 108:plant.c       ****       plant->sunHistory[0] = averageValueThisDay;
 109:plant.c       ****       // Öka antal sparade värden om de inte redan är max
 110:plant.c       ****       if (plant->numberOfSunHistory < AVG_HISTORY_DAYS)
 111:plant.c       ****         (plant->numberOfSunHistory)++;
 112:plant.c       ****     }
 113:plant.c       ****   }
 114:plant.c       ****    // SE KOMMENTARER FÖR SOL-SENSOR OVAN FÖR BESKRIVNING - SNARLIK PROCEDUR!
 115:plant.c       ****   else if (type == MOISTURE)
 116:plant.c       ****   {
 117:plant.c       ****     int currentValue = (int) ADC_read(1);
 118:plant.c       ****     if (currentValue < 0)
 119:plant.c       ****       currentValue = 0;
 120:plant.c       ****  
 121:plant.c       ****       if (plant->numberOfMoistureReadings <= MAX_MOISTURE_READINGS)
 122:plant.c       ****     {
 123:plant.c       ****       plant->moisture[plant->numberOfMoistureReadings - 1].reading = currentValue;
 124:plant.c       ****       int32_t currentTime = rtc_counter_get();
 125:plant.c       ****       plant->moisture[plant->numberOfMoistureReadings - 1].timeStamp = currentTime;
 126:plant.c       ****     }
 127:plant.c       **** 
 128:plant.c       ****     if (plant->numberOfMoistureReadings == MAX_MOISTURE_READINGS)
 129:plant.c       ****     {
 130:plant.c       ****       int averageValueThisDay = 0;
 131:plant.c       ****       for (int i = 0; i < MAX_MOISTURE_READINGS; i++)
 132:plant.c       ****       {
 133:plant.c       ****         averageValueThisDay += plant->moisture[i].reading;
 134:plant.c       ****       }
 135:plant.c       ****       plant->numberOfMoistureReadings = 1;
 136:plant.c       ****       averageValueThisDay /= MAX_MOISTURE_READINGS;
 137:plant.c       ****       for (int i = AVG_HISTORY_DAYS -1; i > 0; i--)
 138:plant.c       ****       {
 139:plant.c       ****         plant->moistHistory[i] = plant->moistHistory[i - 1];
 140:plant.c       ****       }
 141:plant.c       ****       plant->moistHistory[0] = averageValueThisDay;
 142:plant.c       ****       if (plant->numberOfMoistureHistory < AVG_HISTORY_DAYS)
 143:plant.c       ****         (plant->numberOfMoistureHistory)++;
 144:plant.c       ****     }
 145:plant.c       ****   }
 146:plant.c       ****   else if (type == TEMPERATURE)
 147:plant.c       ****   {
GAS LISTING /var/folders/rt/4gvqv631095f64jvm7jfj_000000gn/T//cc3cV2cq.s 			page 11


 148:plant.c       ****     int currentValue = (int) read_temp();
 149:plant.c       ****     if (currentValue < 0)
 150:plant.c       ****       currentValue = 0;
 151:plant.c       **** 
 152:plant.c       ****     if (plant->numberOfTempReadings <= MAX_TEMP_READINGS)
 153:plant.c       ****     {
 154:plant.c       ****       plant->temp[plant->numberOfTempReadings - 1].reading = currentValue;
 155:plant.c       ****       int32_t currentTime = rtc_counter_get();
 156:plant.c       ****       plant->temp[plant->numberOfTempReadings - 1].timeStamp = currentTime;
 157:plant.c       ****     }
 158:plant.c       **** 
 159:plant.c       ****     if (plant->numberOfTempReadings == MAX_TEMP_READINGS)
 160:plant.c       ****     {
 161:plant.c       ****       int averageValueThisDay = 0;
 162:plant.c       ****       for (int i = 0; i < MAX_TEMP_READINGS; i++)
 163:plant.c       ****       {
 164:plant.c       ****         averageValueThisDay += plant->temp[i].reading;
 165:plant.c       ****       }
 166:plant.c       ****       plant->numberOfTempReadings = 1;
 167:plant.c       ****       averageValueThisDay /= MAX_TEMP_READINGS;
 168:plant.c       ****       for (int i = AVG_HISTORY_DAYS -1; i > 0; i--)
 169:plant.c       ****       {
 170:plant.c       ****         plant->tempHistory[i] = plant->tempHistory[i - 1];
 171:plant.c       ****       }
 172:plant.c       ****       plant->tempHistory[0] = averageValueThisDay;
 173:plant.c       ****       if (plant->numberOfTempHistory < AVG_HISTORY_DAYS)
 174:plant.c       ****         (plant->numberOfTempHistory)++;
 175:plant.c       ****     }
 176:plant.c       ****   }
 177:plant.c       ****   updatePlantStatus(plant);
 178:plant.c       **** }
 179:plant.c       **** 
 180:plant.c       **** void updatePlantStatus(Plant *plant)
 181:plant.c       **** {
 354              		.loc 1 181 1 is_stmt 1
 355              		.cfi_startproc
 356              	.LVL18:
 182:plant.c       ****   if (plant->sun[plant->numberOfSunReadings - 1].reading > plant->highSun)
 357              		.loc 1 182 3
 181:plant.c       ****   if (plant->sun[plant->numberOfSunReadings - 1].reading > plant->highSun)
 358              		.loc 1 181 1 is_stmt 0
 359 0000 4111     		addi	sp,sp,-16
 360              	.LCFI4:
 361              		.cfi_def_cfa_offset 16
 362 0002 22C4     		sw	s0,8(sp)
 363 0004 06C6     		sw	ra,12(sp)
 364              		.cfi_offset 8, -8
 365              		.cfi_offset 1, -4
 366              		.loc 1 182 23
 367 0006 03473532 		lbu	a4,803(a0)
 368 000a 83472532 		lbu	a5,802(a0)
 181:plant.c       ****   if (plant->sun[plant->numberOfSunReadings - 1].reading > plant->highSun)
 369              		.loc 1 181 1
 370 000e 2A84     		mv	s0,a0
 371              		.loc 1 182 23
 372 0010 2207     		slli	a4,a4,8
 373 0012 5D8F     		or	a4,a4,a5
GAS LISTING /var/folders/rt/4gvqv631095f64jvm7jfj_000000gn/T//cc3cV2cq.s 			page 12


 374 0014 83474532 		lbu	a5,804(a0)
 375 0018 C207     		slli	a5,a5,16
 376 001a 5D8F     		or	a4,a5,a4
 377 001c 83475532 		lbu	a5,805(a0)
 378 0020 E207     		slli	a5,a5,24
 379 0022 D98F     		or	a5,a5,a4
 380              		.loc 1 182 49
 381 0024 E507     		addi	a5,a5,25
 382 0026 8E07     		slli	a5,a5,3
 383 0028 AA97     		add	a5,a0,a5
 384 002a 03C73701 		lbu	a4,19(a5)
 385 002e 83C62701 		lbu	a3,18(a5)
 386 0032 2207     		slli	a4,a4,8
 387 0034 D98E     		or	a3,a4,a3
 388 0036 03C74701 		lbu	a4,20(a5)
 389 003a 83C75701 		lbu	a5,21(a5)
 390 003e 4207     		slli	a4,a4,16
 391 0040 558F     		or	a4,a4,a3
 392 0042 E207     		slli	a5,a5,24
 393              		.loc 1 182 65
 394 0044 8346754C 		lbu	a3,1223(a0)
 395              		.loc 1 182 49
 396 0048 D98F     		or	a5,a5,a4
 397              		.loc 1 182 65
 398 004a 0347654C 		lbu	a4,1222(a0)
 399 004e A206     		slli	a3,a3,8
 400 0050 D98E     		or	a3,a3,a4
 401 0052 0347854C 		lbu	a4,1224(a0)
 402 0056 4207     		slli	a4,a4,16
 403 0058 D98E     		or	a3,a4,a3
 404 005a 0347954C 		lbu	a4,1225(a0)
 405 005e 6207     		slli	a4,a4,24
 406 0060 558F     		or	a4,a4,a3
 407              		.loc 1 182 6
 408 0062 6352F70A 		ble	a5,a4,.L8
 183:plant.c       ****   {
 184:plant.c       ****     STR_COPY(plant->currentStatus, "BEHÖVER SKUGGA");
 409              		.loc 1 184 5 is_stmt 1
 410 0066 B7060000 		lui	a3,%hi(.LC2)
 411 006a 37060000 		lui	a2,%hi(.LC0)
 412 006e BD45     		li	a1,15
 413 0070 93860600 		addi	a3,a3,%lo(.LC2)
 414 0074 13060600 		addi	a2,a2,%lo(.LC0)
 415 0078 3D05     		addi	a0,a0,15
 416              	.LVL19:
 417 007a 97000000 		call	snprintf
 417      E7800000 
 418              	.LVL20:
 185:plant.c       ****     gpio_bit_reset(GPIOB, GPIO_PIN_7);
 419              		.loc 1 185 5
 420 0082 37150140 		li	a0,1073811456
 421 0086 93050008 		li	a1,128
 422 008a 130505C0 		addi	a0,a0,-1024
 423 008e 97000000 		call	gpio_bit_reset
 423      E7800000 
 424              	.LVL21:
 425              	.L9:
GAS LISTING /var/folders/rt/4gvqv631095f64jvm7jfj_000000gn/T//cc3cV2cq.s 			page 13


 186:plant.c       ****   }
 187:plant.c       ****   else if (plant->sun[plant->numberOfSunReadings - 1].reading < plant->lowSun)
 188:plant.c       ****   {
 189:plant.c       ****     STR_COPY(plant->currentStatus, "BEHÖVER LJUS");
 190:plant.c       ****     gpio_bit_set(GPIOB, GPIO_PIN_7);
 191:plant.c       ****   }
 192:plant.c       **** 
 193:plant.c       ****   if (plant->moisture[plant->numberOfMoistureReadings - 1].reading < plant->lowMoist)
 426              		.loc 1 193 3
 427              		.loc 1 193 28 is_stmt 0
 428 0096 0347F431 		lbu	a4,799(s0)
 429 009a 8347E431 		lbu	a5,798(s0)
 430 009e 2207     		slli	a4,a4,8
 431 00a0 5D8F     		or	a4,a4,a5
 432 00a2 83470432 		lbu	a5,800(s0)
 433 00a6 C207     		slli	a5,a5,16
 434 00a8 5D8F     		or	a4,a5,a4
 435 00aa 83471432 		lbu	a5,801(s0)
 436 00ae E207     		slli	a5,a5,24
 437 00b0 D98F     		or	a5,a5,a4
 438              		.loc 1 193 59
 439 00b2 8507     		addi	a5,a5,1
 440 00b4 8E07     		slli	a5,a5,3
 441 00b6 A297     		add	a5,s0,a5
 442 00b8 83C63701 		lbu	a3,19(a5)
 443 00bc 03C72701 		lbu	a4,18(a5)
 444 00c0 A206     		slli	a3,a3,8
 445 00c2 D98E     		or	a3,a3,a4
 446 00c4 03C74701 		lbu	a4,20(a5)
 447 00c8 4207     		slli	a4,a4,16
 448 00ca D98E     		or	a3,a4,a3
 449 00cc 03C75701 		lbu	a4,21(a5)
 450              		.loc 1 193 75
 451 00d0 8347644B 		lbu	a5,1206(s0)
 452              		.loc 1 193 59
 453 00d4 6207     		slli	a4,a4,24
 454 00d6 558F     		or	a4,a4,a3
 455              		.loc 1 193 75
 456 00d8 8346744B 		lbu	a3,1207(s0)
 457 00dc A206     		slli	a3,a3,8
 458 00de DD8E     		or	a3,a3,a5
 459 00e0 8347844B 		lbu	a5,1208(s0)
 460 00e4 C207     		slli	a5,a5,16
 461 00e6 DD8E     		or	a3,a5,a3
 462 00e8 8347944B 		lbu	a5,1209(s0)
 463 00ec E207     		slli	a5,a5,24
 464 00ee D58F     		or	a5,a5,a3
 465              		.loc 1 193 6
 466 00f0 635FF704 		bge	a4,a5,.L7
 194:plant.c       ****   {
 195:plant.c       ****     T1setPWMch0(900); // BÖRJA VATTNA, LAGOM FLÖDE = 900?
 467              		.loc 1 195 5 is_stmt 1
 196:plant.c       ****   }
 197:plant.c       ****   
 198:plant.c       **** }
 468              		.loc 1 198 1 is_stmt 0
 469 00f4 2244     		lw	s0,8(sp)
GAS LISTING /var/folders/rt/4gvqv631095f64jvm7jfj_000000gn/T//cc3cV2cq.s 			page 14


 470              		.cfi_remember_state
 471              		.cfi_restore 8
 472              	.LVL22:
 473 00f6 B240     		lw	ra,12(sp)
 474              		.cfi_restore 1
 195:plant.c       ****   }
 475              		.loc 1 195 5
 476 00f8 13054038 		li	a0,900
 477              		.loc 1 198 1
 478 00fc 4101     		addi	sp,sp,16
 479              	.LCFI5:
 480              		.cfi_def_cfa_offset 0
 195:plant.c       ****   }
 481              		.loc 1 195 5
 482 00fe 17030000 		tail	T1setPWMch0
 482      67000300 
 483              	.LVL23:
 484              	.L8:
 485              	.LCFI6:
 486              		.cfi_restore_state
 187:plant.c       ****   {
 487              		.loc 1 187 8 is_stmt 1
 187:plant.c       ****   {
 488              		.loc 1 187 70 is_stmt 0
 489 0106 8346B54B 		lbu	a3,1211(a0)
 490 010a 0347A54B 		lbu	a4,1210(a0)
 491 010e A206     		slli	a3,a3,8
 492 0110 D98E     		or	a3,a3,a4
 493 0112 0347C54B 		lbu	a4,1212(a0)
 494 0116 4207     		slli	a4,a4,16
 495 0118 D98E     		or	a3,a4,a3
 496 011a 0347D54B 		lbu	a4,1213(a0)
 497 011e 6207     		slli	a4,a4,24
 498 0120 558F     		or	a4,a4,a3
 187:plant.c       ****   {
 499              		.loc 1 187 11
 500 0122 E3DAE7F6 		bge	a5,a4,.L9
 189:plant.c       ****     gpio_bit_set(GPIOB, GPIO_PIN_7);
 501              		.loc 1 189 5 is_stmt 1
 502 0126 B7050000 		lui	a1,%hi(.LC3)
 503 012a 93850500 		addi	a1,a1,%lo(.LC3)
 504 012e 3D05     		addi	a0,a0,15
 505 0130 97000000 		call	strcpy
 505      E7800000 
 506              	.LVL24:
 190:plant.c       ****   }
 507              		.loc 1 190 5
 508 0138 37150140 		li	a0,1073811456
 509 013c 93050008 		li	a1,128
 510 0140 130505C0 		addi	a0,a0,-1024
 511 0144 97000000 		call	gpio_bit_set
 511      E7800000 
 512              	.LVL25:
 513 014c A9B7     		j	.L9
 514              	.L7:
 515              		.loc 1 198 1 is_stmt 0
 516 014e B240     		lw	ra,12(sp)
GAS LISTING /var/folders/rt/4gvqv631095f64jvm7jfj_000000gn/T//cc3cV2cq.s 			page 15


 517              		.cfi_restore 1
 518 0150 2244     		lw	s0,8(sp)
 519              		.cfi_restore 8
 520              	.LVL26:
 521 0152 4101     		addi	sp,sp,16
 522              	.LCFI7:
 523              		.cfi_def_cfa_offset 0
 524 0154 8280     		jr	ra
 525              		.cfi_endproc
 526              	.LFE8:
 528              		.globl	__fixsfsi
 529              		.section	.text.updatePlantReadings,"ax",@progbits
 530              		.align	1
 531              		.globl	updatePlantReadings
 533              	updatePlantReadings:
 534              	.LFB7:
  67:plant.c       ****   if (type == SUN)
 535              		.loc 1 67 1 is_stmt 1
 536              		.cfi_startproc
 537              	.LVL27:
  68:plant.c       ****   {
 538              		.loc 1 68 3
  67:plant.c       ****   if (type == SUN)
 539              		.loc 1 67 1 is_stmt 0
 540 0000 4111     		addi	sp,sp,-16
 541              	.LCFI8:
 542              		.cfi_def_cfa_offset 16
 543 0002 22C4     		sw	s0,8(sp)
 544 0004 06C6     		sw	ra,12(sp)
 545 0006 26C2     		sw	s1,4(sp)
 546              		.cfi_offset 8, -8
 547              		.cfi_offset 1, -4
 548              		.cfi_offset 9, -12
  68:plant.c       ****   {
 549              		.loc 1 68 6
 550 0008 8547     		li	a5,1
  67:plant.c       ****   if (type == SUN)
 551              		.loc 1 67 1
 552 000a 2A84     		mv	s0,a0
  68:plant.c       ****   {
 553              		.loc 1 68 6
 554 000c 639FF522 		bne	a1,a5,.L13
 555              	.LBB4:
  71:plant.c       ****     if (currentValue < 0)
 556              		.loc 1 71 5 is_stmt 1
  71:plant.c       ****     if (currentValue < 0)
 557              		.loc 1 71 24 is_stmt 0
 558 0010 0D45     		li	a0,3
 559              	.LVL28:
 560 0012 97000000 		call	ADC_read
 560      E7800000 
 561              	.LVL29:
  72:plant.c       ****       currentValue = 0;
 562              		.loc 1 72 5 is_stmt 1
  74:plant.c       ****     {
 563              		.loc 1 74 5
  74:plant.c       ****     {
GAS LISTING /var/folders/rt/4gvqv631095f64jvm7jfj_000000gn/T//cc3cV2cq.s 			page 16


 564              		.loc 1 74 14 is_stmt 0
 565 001a 03473432 		lbu	a4,803(s0)
 566 001e 83472432 		lbu	a5,802(s0)
 567 0022 2207     		slli	a4,a4,8
 568 0024 5D8F     		or	a4,a4,a5
 569 0026 83474432 		lbu	a5,804(s0)
 570 002a C207     		slli	a5,a5,16
 571 002c 5D8F     		or	a4,a5,a4
 572 002e 83475432 		lbu	a5,805(s0)
 573 0032 E207     		slli	a5,a5,24
 574 0034 D98F     		or	a5,a5,a4
  74:plant.c       ****     {
 575              		.loc 1 74 8
 576 0036 13070003 		li	a4,48
 577 003a 6349F70A 		bgt	a5,a4,.L21
 578              	.LBB5:
  78:plant.c       ****       int32_t currentTime = rtc_counter_get();
 579              		.loc 1 78 7 is_stmt 1
 580 003e 8E07     		slli	a5,a5,3
 581 0040 A297     		add	a5,s0,a5
  78:plant.c       ****       int32_t currentTime = rtc_counter_get();
 582              		.loc 1 78 74 is_stmt 0
 583 0042 63530500 		bge	a0,zero,.L15
 584 0046 0145     		li	a0,0
 585              	.LVL30:
 586              	.L15:
 587 0048 7947     		li	a4,30
 588 004a 3345E502 		div	a0,a0,a4
  78:plant.c       ****       int32_t currentTime = rtc_counter_get();
 589              		.loc 1 78 58
 590 004e 83C6B70D 		lbu	a3,219(a5)
 591 0052 03C7A70D 		lbu	a4,218(a5)
 592 0056 A206     		slli	a3,a3,8
 593 0058 D98E     		or	a3,a3,a4
 594 005a 03C7C70D 		lbu	a4,220(a5)
 595 005e 4207     		slli	a4,a4,16
 596 0060 D98E     		or	a3,a4,a3
 597 0062 03C7D70D 		lbu	a4,221(a5)
 598 0066 6207     		slli	a4,a4,24
 599 0068 558F     		or	a4,a4,a3
 600 006a 3A95     		add	a0,a0,a4
 601 006c 13578500 		srli	a4,a0,8
 602 0070 238DA70C 		sb	a0,218(a5)
 603 0074 A38DE70C 		sb	a4,219(a5)
 604 0078 13570501 		srli	a4,a0,16
 605 007c 6181     		srli	a0,a0,24
 606 007e 238EE70C 		sb	a4,220(a5)
 607 0082 A38EA70C 		sb	a0,221(a5)
  79:plant.c       ****       plant->sun[plant->numberOfSunReadings - 1].timeStamp = currentTime;
 608              		.loc 1 79 7 is_stmt 1
  79:plant.c       ****       plant->sun[plant->numberOfSunReadings - 1].timeStamp = currentTime;
 609              		.loc 1 79 29 is_stmt 0
 610 0086 97000000 		call	rtc_counter_get
 610      E7800000 
 611              	.LVL31:
  80:plant.c       ****       // Special för ljus. Om detta är första värdet som tas så har vi precis bootat. Isåfall
 612              		.loc 1 80 7 is_stmt 1
GAS LISTING /var/folders/rt/4gvqv631095f64jvm7jfj_000000gn/T//cc3cV2cq.s 			page 17


  80:plant.c       ****       // Special för ljus. Om detta är första värdet som tas så har vi precis bootat. Isåfall
 613              		.loc 1 80 23 is_stmt 0
 614 008e 03473432 		lbu	a4,803(s0)
 615 0092 83472432 		lbu	a5,802(s0)
  80:plant.c       ****       // Special för ljus. Om detta är första värdet som tas så har vi precis bootat. Isåfall
 616              		.loc 1 80 60
 617 0096 93568500 		srli	a3,a0,8
  80:plant.c       ****       // Special för ljus. Om detta är första värdet som tas så har vi precis bootat. Isåfall
 618              		.loc 1 80 23
 619 009a 2207     		slli	a4,a4,8
 620 009c 5D8F     		or	a4,a4,a5
 621 009e 83474432 		lbu	a5,804(s0)
 622 00a2 C207     		slli	a5,a5,16
 623 00a4 5D8F     		or	a4,a5,a4
 624 00a6 83475432 		lbu	a5,805(s0)
 625 00aa E207     		slli	a5,a5,24
 626 00ac D98F     		or	a5,a5,a4
 627 00ae 13973700 		slli	a4,a5,3
 628 00b2 2297     		add	a4,s0,a4
  80:plant.c       ****       // Special för ljus. Om detta är första värdet som tas så har vi precis bootat. Isåfall
 629              		.loc 1 80 60
 630 00b4 A30BD70C 		sb	a3,215(a4)
 631 00b8 93560501 		srli	a3,a0,16
 632 00bc 230CD70C 		sb	a3,216(a4)
 633 00c0 93568501 		srli	a3,a0,24
 634 00c4 A30CD70C 		sb	a3,217(a4)
  82:plant.c       ****       {
 635              		.loc 1 82 7 is_stmt 1
  80:plant.c       ****       // Special för ljus. Om detta är första värdet som tas så har vi precis bootat. Isåfall
 636              		.loc 1 80 60 is_stmt 0
 637 00c8 230BA70C 		sb	a0,214(a4)
  82:plant.c       ****       {
 638              		.loc 1 82 10
 639 00cc 8546     		li	a3,1
 640 00ce 6398D702 		bne	a5,a3,.L16
  84:plant.c       ****           (plant->numberOfSunReadings)++;
 641              		.loc 1 84 9 is_stmt 1
  84:plant.c       ****           (plant->numberOfSunReadings)++;
 642              		.loc 1 84 12 is_stmt 0
 643 00d2 93077070 		li	a5,1799
 644 00d6 63DBA700 		ble	a0,a5,.L21
  85:plant.c       ****       }
 645              		.loc 1 85 11 is_stmt 1
  85:plant.c       ****       }
 646              		.loc 1 85 39 is_stmt 0
 647 00da 8947     		li	a5,2
 648 00dc 2301F432 		sb	a5,802(s0)
 649 00e0 A3010432 		sb	zero,803(s0)
 650 00e4 23020432 		sb	zero,804(s0)
 651 00e8 A3020432 		sb	zero,805(s0)
 652              	.LVL32:
 653              	.L21:
 654              	.LBE5:
 655              	.LBE4:
 177:plant.c       **** }
 656              		.loc 1 177 3 is_stmt 1
 657 00ec 2285     		mv	a0,s0
GAS LISTING /var/folders/rt/4gvqv631095f64jvm7jfj_000000gn/T//cc3cV2cq.s 			page 18


 178:plant.c       **** 
 658              		.loc 1 178 1 is_stmt 0
 659 00ee 2244     		lw	s0,8(sp)
 660              		.cfi_remember_state
 661              		.cfi_restore 8
 662              	.LVL33:
 663 00f0 B240     		lw	ra,12(sp)
 664              		.cfi_restore 1
 665 00f2 9244     		lw	s1,4(sp)
 666              		.cfi_restore 9
 667 00f4 4101     		addi	sp,sp,16
 668              	.LCFI9:
 669              		.cfi_def_cfa_offset 0
 177:plant.c       **** }
 670              		.loc 1 177 3
 671 00f6 17030000 		tail	updatePlantStatus
 671      67000300 
 672              	.LVL34:
 673              	.L16:
 674              	.LCFI10:
 675              		.cfi_restore_state
 676              	.LBB11:
 677              	.LBB6:
  88:plant.c       ****         (plant->numberOfSunReadings)++;
 678              		.loc 1 88 12 is_stmt 1
  88:plant.c       ****         (plant->numberOfSunReadings)++;
 679              		.loc 1 88 113 is_stmt 0
 680 00fe 8346F70C 		lbu	a3,207(a4)
 681 0102 0346E70C 		lbu	a2,206(a4)
 682 0106 A206     		slli	a3,a3,8
 683 0108 558E     		or	a2,a3,a2
 684 010a 8346070D 		lbu	a3,208(a4)
 685 010e 0347170D 		lbu	a4,209(a4)
 686 0112 C206     		slli	a3,a3,16
 687 0114 D18E     		or	a3,a3,a2
 688 0116 6207     		slli	a4,a4,24
 689 0118 558F     		or	a4,a4,a3
  88:plant.c       ****         (plant->numberOfSunReadings)++;
 690              		.loc 1 88 69
 691 011a 198D     		sub	a0,a0,a4
 692              	.LVL35:
  88:plant.c       ****         (plant->numberOfSunReadings)++;
 693              		.loc 1 88 15
 694 011c 13077070 		li	a4,1799
 695 0120 6370A702 		bleu	a0,a4,.L18
  89:plant.c       ****     }
 696              		.loc 1 89 9 is_stmt 1
  89:plant.c       ****     }
 697              		.loc 1 89 37 is_stmt 0
 698 0124 8507     		addi	a5,a5,1
 699 0126 13D78700 		srli	a4,a5,8
 700 012a 2301F432 		sb	a5,802(s0)
 701 012e A301E432 		sb	a4,803(s0)
 702 0132 13D70701 		srli	a4,a5,16
 703 0136 E183     		srli	a5,a5,24
 704 0138 2302E432 		sb	a4,804(s0)
 705 013c A302F432 		sb	a5,805(s0)
GAS LISTING /var/folders/rt/4gvqv631095f64jvm7jfj_000000gn/T//cc3cV2cq.s 			page 19


 706              	.L18:
 707              	.LBE6:
  92:plant.c       ****     {
 708              		.loc 1 92 5 is_stmt 1
  92:plant.c       ****     {
 709              		.loc 1 92 14 is_stmt 0
 710 0140 03473432 		lbu	a4,803(s0)
 711 0144 83472432 		lbu	a5,802(s0)
 712 0148 2207     		slli	a4,a4,8
 713 014a 5D8F     		or	a4,a4,a5
 714 014c 83474432 		lbu	a5,804(s0)
 715 0150 C207     		slli	a5,a5,16
 716 0152 5D8F     		or	a4,a5,a4
 717 0154 83475432 		lbu	a5,805(s0)
 718 0158 E207     		slli	a5,a5,24
 719 015a D98F     		or	a5,a5,a4
  92:plant.c       ****     {
 720              		.loc 1 92 8
 721 015c 13070003 		li	a4,48
 722 0160 E396E7F8 		bne	a5,a4,.L21
 723              	.LBB7:
 724              	.LBB8:
  96:plant.c       ****       {
 725              		.loc 1 96 16
 726 0164 8146     		li	a3,0
 727              	.LBE8:
  95:plant.c       ****       for (int i = 0; i < MAX_SUN_READINGS; i++)
 728              		.loc 1 95 11
 729 0166 8147     		li	a5,0
 730              	.LBB9:
  96:plant.c       ****       {
 731              		.loc 1 96 7
 732 0168 13050003 		li	a0,48
 733              	.L19:
 734              	.LVL36:
  98:plant.c       ****       }
 735              		.loc 1 98 9 is_stmt 1 discriminator 3
  98:plant.c       ****       }
 736              		.loc 1 98 45 is_stmt 0 discriminator 3
 737 016c 1387A601 		addi	a4,a3,26
 738 0170 0E07     		slli	a4,a4,3
 739 0172 2297     		add	a4,s0,a4
 740 0174 03463701 		lbu	a2,19(a4)
 741 0178 83452701 		lbu	a1,18(a4)
  96:plant.c       ****       {
 742              		.loc 1 96 46 discriminator 3
 743 017c 8506     		addi	a3,a3,1
 744              	.LVL37:
  98:plant.c       ****       }
 745              		.loc 1 98 45 discriminator 3
 746 017e 2206     		slli	a2,a2,8
 747 0180 D18D     		or	a1,a2,a1
 748 0182 03464701 		lbu	a2,20(a4)
 749 0186 03475701 		lbu	a4,21(a4)
 750 018a 4206     		slli	a2,a2,16
 751 018c 4D8E     		or	a2,a2,a1
 752 018e 6207     		slli	a4,a4,24
GAS LISTING /var/folders/rt/4gvqv631095f64jvm7jfj_000000gn/T//cc3cV2cq.s 			page 20


 753 0190 518F     		or	a4,a4,a2
  98:plant.c       ****       }
 754              		.loc 1 98 29 discriminator 3
 755 0192 BA97     		add	a5,a5,a4
 756              	.LVL38:
  96:plant.c       ****       {
 757              		.loc 1 96 7 discriminator 3
 758 0194 E39CA6FC 		bne	a3,a0,.L19
 759              	.LBE9:
 100:plant.c       **** 
 760              		.loc 1 100 7 is_stmt 1
 102:plant.c       ****       // Flytta nuvarande värden så att senaste värde ligger först
 761              		.loc 1 102 27 is_stmt 0
 762 0198 B3C7D702 		div	a5,a5,a3
 763              	.LVL39:
 100:plant.c       **** 
 764              		.loc 1 100 34
 765 019c 0547     		li	a4,1
 766 019e 2301E432 		sb	a4,802(s0)
 767 01a2 A3010432 		sb	zero,803(s0)
 768 01a6 23020432 		sb	zero,804(s0)
 769 01aa A3020432 		sb	zero,805(s0)
 102:plant.c       ****       // Flytta nuvarande värden så att senaste värde ligger först
 770              		.loc 1 102 7 is_stmt 1
 771              	.LVL40:
 104:plant.c       ****       {
 772              		.loc 1 104 7
 773              	.LBB10:
 104:plant.c       ****       {
 774              		.loc 1 104 12
 104:plant.c       ****       {
 775              		.loc 1 104 16 is_stmt 0
 776 01ae F545     		li	a1,29
 777              	.LVL41:
 778              	.L20:
 106:plant.c       ****       }
 779              		.loc 1 106 9 is_stmt 1 discriminator 3
 780 01b0 13972500 		slli	a4,a1,2
 781 01b4 2297     		add	a4,s0,a4
 106:plant.c       ****       }
 782              		.loc 1 106 49 is_stmt 0 discriminator 3
 783 01b6 0346F739 		lbu	a2,927(a4)
 784 01ba 8346E739 		lbu	a3,926(a4)
 785 01be FD15     		addi	a1,a1,-1
 786              	.LVL42:
 787 01c0 2206     		slli	a2,a2,8
 788 01c2 558E     		or	a2,a2,a3
 789 01c4 8346073A 		lbu	a3,928(a4)
 790 01c8 C206     		slli	a3,a3,16
 791 01ca 558E     		or	a2,a3,a2
 792 01cc 8346173A 		lbu	a3,929(a4)
 793 01d0 E206     		slli	a3,a3,24
 794 01d2 D18E     		or	a3,a3,a2
 106:plant.c       ****       }
 795              		.loc 1 106 30 discriminator 3
 796 01d4 13D68600 		srli	a2,a3,8
 797 01d8 2301D73A 		sb	a3,930(a4)
GAS LISTING /var/folders/rt/4gvqv631095f64jvm7jfj_000000gn/T//cc3cV2cq.s 			page 21


 798 01dc A301C73A 		sb	a2,931(a4)
 799 01e0 13D60601 		srli	a2,a3,16
 800 01e4 E182     		srli	a3,a3,24
 801 01e6 2302C73A 		sb	a2,932(a4)
 802 01ea A302D73A 		sb	a3,933(a4)
 803              	.LVL43:
 104:plant.c       ****       {
 804              		.loc 1 104 7 discriminator 3
 805 01ee E9F1     		bne	a1,zero,.L20
 806              	.LBE10:
 108:plant.c       ****       // Öka antal sparade värden om de inte redan är max
 807              		.loc 1 108 7 is_stmt 1
 108:plant.c       ****       // Öka antal sparade värden om de inte redan är max
 808              		.loc 1 108 28 is_stmt 0
 809 01f0 13D78700 		srli	a4,a5,8
 810 01f4 A301E43A 		sb	a4,931(s0)
 811 01f8 13D70701 		srli	a4,a5,16
 812 01fc 2301F43A 		sb	a5,930(s0)
 813 0200 2302E43A 		sb	a4,932(s0)
 814 0204 E183     		srli	a5,a5,24
 815              	.LVL44:
 110:plant.c       ****         (plant->numberOfSunHistory)++;
 816              		.loc 1 110 16
 817 0206 03477449 		lbu	a4,1175(s0)
 108:plant.c       ****       // Öka antal sparade värden om de inte redan är max
 818              		.loc 1 108 28
 819 020a A302F43A 		sb	a5,933(s0)
 110:plant.c       ****         (plant->numberOfSunHistory)++;
 820              		.loc 1 110 7 is_stmt 1
 110:plant.c       ****         (plant->numberOfSunHistory)++;
 821              		.loc 1 110 16 is_stmt 0
 822 020e 83476449 		lbu	a5,1174(s0)
 823 0212 2207     		slli	a4,a4,8
 824 0214 5D8F     		or	a4,a4,a5
 825 0216 83478449 		lbu	a5,1176(s0)
 826 021a C207     		slli	a5,a5,16
 827 021c 5D8F     		or	a4,a5,a4
 828 021e 83479449 		lbu	a5,1177(s0)
 829 0222 E207     		slli	a5,a5,24
 830 0224 D98F     		or	a5,a5,a4
 110:plant.c       ****         (plant->numberOfSunHistory)++;
 831              		.loc 1 110 10
 832 0226 7547     		li	a4,29
 833 0228 E342F7EC 		bgt	a5,a4,.L21
 111:plant.c       ****     }
 834              		.loc 1 111 9 is_stmt 1
 111:plant.c       ****     }
 835              		.loc 1 111 36 is_stmt 0
 836 022c 8507     		addi	a5,a5,1
 837 022e 13D78700 		srli	a4,a5,8
 838 0232 230BF448 		sb	a5,1174(s0)
 839 0236 A30BE448 		sb	a4,1175(s0)
 840 023a 13D70701 		srli	a4,a5,16
 841 023e E183     		srli	a5,a5,24
 842 0240 230CE448 		sb	a4,1176(s0)
 843 0244 A30CF448 		sb	a5,1177(s0)
 844 0248 55B5     		j	.L21
GAS LISTING /var/folders/rt/4gvqv631095f64jvm7jfj_000000gn/T//cc3cV2cq.s 			page 22


 845              	.LVL45:
 846              	.L13:
 847              	.LBE7:
 848              	.LBE11:
 115:plant.c       ****   {
 849              		.loc 1 115 8 is_stmt 1
 115:plant.c       ****   {
 850              		.loc 1 115 11 is_stmt 0
 851 024a 63930518 		bne	a1,zero,.L22
 852              	.LBB12:
 117:plant.c       ****     if (currentValue < 0)
 853              		.loc 1 117 5 is_stmt 1
 117:plant.c       ****     if (currentValue < 0)
 854              		.loc 1 117 24 is_stmt 0
 855 024e 0545     		li	a0,1
 856 0250 97000000 		call	ADC_read
 856      E7800000 
 857              	.LVL46:
 118:plant.c       ****       currentValue = 0;
 858              		.loc 1 118 5 is_stmt 1
 121:plant.c       ****     {
 859              		.loc 1 121 7
 121:plant.c       ****     {
 860              		.loc 1 121 16 is_stmt 0
 861 0258 0347F431 		lbu	a4,799(s0)
 862 025c 8347E431 		lbu	a5,798(s0)
 863 0260 2207     		slli	a4,a4,8
 864 0262 5D8F     		or	a4,a4,a5
 865 0264 83470432 		lbu	a5,800(s0)
 866 0268 C207     		slli	a5,a5,16
 867 026a 5D8F     		or	a4,a5,a4
 868 026c 83471432 		lbu	a5,801(s0)
 869 0270 E207     		slli	a5,a5,24
 870 0272 D98F     		or	a5,a5,a4
 121:plant.c       ****     {
 871              		.loc 1 121 10
 872 0274 6147     		li	a4,24
 873 0276 E34BF7E6 		bgt	a5,a4,.L21
 874              	.LBB13:
 123:plant.c       ****       int32_t currentTime = rtc_counter_get();
 875              		.loc 1 123 7 is_stmt 1
 123:plant.c       ****       int32_t currentTime = rtc_counter_get();
 876              		.loc 1 123 68 is_stmt 0
 877 027a 8507     		addi	a5,a5,1
 878 027c 8E07     		slli	a5,a5,3
 879 027e A297     		add	a5,s0,a5
 880 0280 63530500 		bge	a0,zero,.L23
 881 0284 0145     		li	a0,0
 882              	.LVL47:
 883              	.L23:
 884 0286 13578500 		srli	a4,a0,8
 885 028a 2389A700 		sb	a0,18(a5)
 886 028e A389E700 		sb	a4,19(a5)
 887 0292 13570501 		srli	a4,a0,16
 888 0296 6181     		srli	a0,a0,24
 889 0298 238AE700 		sb	a4,20(a5)
 890 029c A38AA700 		sb	a0,21(a5)
GAS LISTING /var/folders/rt/4gvqv631095f64jvm7jfj_000000gn/T//cc3cV2cq.s 			page 23


 124:plant.c       ****       plant->moisture[plant->numberOfMoistureReadings - 1].timeStamp = currentTime;
 891              		.loc 1 124 7 is_stmt 1
 124:plant.c       ****       plant->moisture[plant->numberOfMoistureReadings - 1].timeStamp = currentTime;
 892              		.loc 1 124 29 is_stmt 0
 893 02a0 97000000 		call	rtc_counter_get
 893      E7800000 
 894              	.LVL48:
 125:plant.c       ****     }
 895              		.loc 1 125 7 is_stmt 1
 125:plant.c       ****     }
 896              		.loc 1 125 28 is_stmt 0
 897 02a8 8347F431 		lbu	a5,799(s0)
 898 02ac 0347E431 		lbu	a4,798(s0)
 125:plant.c       ****     }
 899              		.loc 1 125 70
 900 02b0 93568500 		srli	a3,a0,8
 125:plant.c       ****     }
 901              		.loc 1 125 28
 902 02b4 A207     		slli	a5,a5,8
 903 02b6 D98F     		or	a5,a5,a4
 904 02b8 03470432 		lbu	a4,800(s0)
 905 02bc 4207     		slli	a4,a4,16
 906 02be D98F     		or	a5,a4,a5
 907 02c0 03471432 		lbu	a4,801(s0)
 908 02c4 6207     		slli	a4,a4,24
 909 02c6 5D8F     		or	a4,a4,a5
 125:plant.c       ****     }
 910              		.loc 1 125 70
 911 02c8 93071700 		addi	a5,a4,1
 912 02cc 8E07     		slli	a5,a5,3
 913 02ce A297     		add	a5,s0,a5
 914 02d0 2387A700 		sb	a0,14(a5)
 915 02d4 A387D700 		sb	a3,15(a5)
 916 02d8 93560501 		srli	a3,a0,16
 917 02dc 6181     		srli	a0,a0,24
 918              	.LVL49:
 919 02de 2388D700 		sb	a3,16(a5)
 920 02e2 A388A700 		sb	a0,17(a5)
 921              	.LBE13:
 128:plant.c       ****     {
 922              		.loc 1 128 5 is_stmt 1
 128:plant.c       ****     {
 923              		.loc 1 128 8 is_stmt 0
 924 02e6 E147     		li	a5,24
 925 02e8 E312F7E0 		bne	a4,a5,.L21
 926              	.LBB14:
 927              	.LBB15:
 131:plant.c       ****       {
 928              		.loc 1 131 16
 929 02ec 8146     		li	a3,0
 930              	.LBE15:
 130:plant.c       ****       for (int i = 0; i < MAX_MOISTURE_READINGS; i++)
 931              		.loc 1 130 11
 932 02ee 8147     		li	a5,0
 933              	.LBB16:
 131:plant.c       ****       {
 934              		.loc 1 131 7
GAS LISTING /var/folders/rt/4gvqv631095f64jvm7jfj_000000gn/T//cc3cV2cq.s 			page 24


 935 02f0 6145     		li	a0,24
 936              	.L24:
 937              	.LVL50:
 133:plant.c       ****       }
 938              		.loc 1 133 9 is_stmt 1 discriminator 3
 133:plant.c       ****       }
 939              		.loc 1 133 50 is_stmt 0 discriminator 3
 940 02f2 13872600 		addi	a4,a3,2
 941 02f6 0E07     		slli	a4,a4,3
 942 02f8 2297     		add	a4,s0,a4
 943 02fa 03463701 		lbu	a2,19(a4)
 944 02fe 83452701 		lbu	a1,18(a4)
 131:plant.c       ****       {
 945              		.loc 1 131 51 discriminator 3
 946 0302 8506     		addi	a3,a3,1
 947              	.LVL51:
 133:plant.c       ****       }
 948              		.loc 1 133 50 discriminator 3
 949 0304 2206     		slli	a2,a2,8
 950 0306 D18D     		or	a1,a2,a1
 951 0308 03464701 		lbu	a2,20(a4)
 952 030c 03475701 		lbu	a4,21(a4)
 953 0310 4206     		slli	a2,a2,16
 954 0312 4D8E     		or	a2,a2,a1
 955 0314 6207     		slli	a4,a4,24
 956 0316 518F     		or	a4,a4,a2
 133:plant.c       ****       }
 957              		.loc 1 133 29 discriminator 3
 958 0318 BA97     		add	a5,a5,a4
 959              	.LVL52:
 131:plant.c       ****       {
 960              		.loc 1 131 7 discriminator 3
 961 031a E39CA6FC 		bne	a3,a0,.L24
 962              	.LBE16:
 135:plant.c       ****       averageValueThisDay /= MAX_MOISTURE_READINGS;
 963              		.loc 1 135 7 is_stmt 1
 136:plant.c       ****       for (int i = AVG_HISTORY_DAYS -1; i > 0; i--)
 964              		.loc 1 136 27 is_stmt 0
 965 031e B3C7D702 		div	a5,a5,a3
 966              	.LVL53:
 135:plant.c       ****       averageValueThisDay /= MAX_MOISTURE_READINGS;
 967              		.loc 1 135 39
 968 0322 0547     		li	a4,1
 969 0324 230FE430 		sb	a4,798(s0)
 970 0328 A30F0430 		sb	zero,799(s0)
 971 032c 23000432 		sb	zero,800(s0)
 972 0330 A3000432 		sb	zero,801(s0)
 136:plant.c       ****       for (int i = AVG_HISTORY_DAYS -1; i > 0; i--)
 973              		.loc 1 136 7 is_stmt 1
 974              	.LVL54:
 137:plant.c       ****       {
 975              		.loc 1 137 7
 976              	.LBB17:
 137:plant.c       ****       {
 977              		.loc 1 137 12
 137:plant.c       ****       {
 978              		.loc 1 137 16 is_stmt 0
GAS LISTING /var/folders/rt/4gvqv631095f64jvm7jfj_000000gn/T//cc3cV2cq.s 			page 25


 979 0334 F545     		li	a1,29
 980              	.LVL55:
 981              	.L25:
 139:plant.c       ****       }
 982              		.loc 1 139 9 is_stmt 1 discriminator 3
 983 0336 13972500 		slli	a4,a1,2
 984 033a 2297     		add	a4,s0,a4
 139:plant.c       ****       }
 985              		.loc 1 139 53 is_stmt 0 discriminator 3
 986 033c 03467732 		lbu	a2,807(a4)
 987 0340 83466732 		lbu	a3,806(a4)
 988 0344 FD15     		addi	a1,a1,-1
 989              	.LVL56:
 990 0346 2206     		slli	a2,a2,8
 991 0348 558E     		or	a2,a2,a3
 992 034a 83468732 		lbu	a3,808(a4)
 993 034e C206     		slli	a3,a3,16
 994 0350 558E     		or	a2,a3,a2
 995 0352 83469732 		lbu	a3,809(a4)
 996 0356 E206     		slli	a3,a3,24
 997 0358 D18E     		or	a3,a3,a2
 139:plant.c       ****       }
 998              		.loc 1 139 32 discriminator 3
 999 035a 13D68600 		srli	a2,a3,8
 1000 035e 2305D732 		sb	a3,810(a4)
 1001 0362 A305C732 		sb	a2,811(a4)
 1002 0366 13D60601 		srli	a2,a3,16
 1003 036a E182     		srli	a3,a3,24
 1004 036c 2306C732 		sb	a2,812(a4)
 1005 0370 A306D732 		sb	a3,813(a4)
 1006              	.LVL57:
 137:plant.c       ****       {
 1007              		.loc 1 137 7 discriminator 3
 1008 0374 E9F1     		bne	a1,zero,.L25
 1009              	.LBE17:
 141:plant.c       ****       if (plant->numberOfMoistureHistory < AVG_HISTORY_DAYS)
 1010              		.loc 1 141 7 is_stmt 1
 141:plant.c       ****       if (plant->numberOfMoistureHistory < AVG_HISTORY_DAYS)
 1011              		.loc 1 141 30 is_stmt 0
 1012 0376 13D78700 		srli	a4,a5,8
 1013 037a A305E432 		sb	a4,811(s0)
 1014 037e 13D70701 		srli	a4,a5,16
 1015 0382 2305F432 		sb	a5,810(s0)
 1016 0386 2306E432 		sb	a4,812(s0)
 1017 038a E183     		srli	a5,a5,24
 1018              	.LVL58:
 142:plant.c       ****         (plant->numberOfMoistureHistory)++;
 1019              		.loc 1 142 16
 1020 038c 03473449 		lbu	a4,1171(s0)
 141:plant.c       ****       if (plant->numberOfMoistureHistory < AVG_HISTORY_DAYS)
 1021              		.loc 1 141 30
 1022 0390 A306F432 		sb	a5,813(s0)
 142:plant.c       ****         (plant->numberOfMoistureHistory)++;
 1023              		.loc 1 142 7 is_stmt 1
 142:plant.c       ****         (plant->numberOfMoistureHistory)++;
 1024              		.loc 1 142 16 is_stmt 0
 1025 0394 83472449 		lbu	a5,1170(s0)
GAS LISTING /var/folders/rt/4gvqv631095f64jvm7jfj_000000gn/T//cc3cV2cq.s 			page 26


 1026 0398 2207     		slli	a4,a4,8
 1027 039a 5D8F     		or	a4,a4,a5
 1028 039c 83474449 		lbu	a5,1172(s0)
 1029 03a0 C207     		slli	a5,a5,16
 1030 03a2 5D8F     		or	a4,a5,a4
 1031 03a4 83475449 		lbu	a5,1173(s0)
 1032 03a8 E207     		slli	a5,a5,24
 1033 03aa D98F     		or	a5,a5,a4
 142:plant.c       ****         (plant->numberOfMoistureHistory)++;
 1034              		.loc 1 142 10
 1035 03ac 7547     		li	a4,29
 1036 03ae E34FF7D2 		bgt	a5,a4,.L21
 143:plant.c       ****     }
 1037              		.loc 1 143 9 is_stmt 1
 143:plant.c       ****     }
 1038              		.loc 1 143 41 is_stmt 0
 1039 03b2 8507     		addi	a5,a5,1
 1040 03b4 13D78700 		srli	a4,a5,8
 1041 03b8 2309F448 		sb	a5,1170(s0)
 1042 03bc A309E448 		sb	a4,1171(s0)
 1043 03c0 13D70701 		srli	a4,a5,16
 1044 03c4 E183     		srli	a5,a5,24
 1045 03c6 230AE448 		sb	a4,1172(s0)
 1046 03ca A30AF448 		sb	a5,1173(s0)
 1047 03ce 39BB     		j	.L21
 1048              	.LVL59:
 1049              	.L22:
 1050              	.LBE14:
 1051              	.LBE12:
 146:plant.c       ****   {
 1052              		.loc 1 146 8 is_stmt 1
 146:plant.c       ****   {
 1053              		.loc 1 146 11 is_stmt 0
 1054 03d0 8947     		li	a5,2
 1055 03d2 E39DF5D0 		bne	a1,a5,.L21
 1056              	.LBB18:
 148:plant.c       ****     if (currentValue < 0)
 1057              		.loc 1 148 5 is_stmt 1
 148:plant.c       ****     if (currentValue < 0)
 1058              		.loc 1 148 30 is_stmt 0
 1059 03d6 97000000 		call	read_temp
 1059      E7800000 
 1060              	.LVL60:
 149:plant.c       ****       currentValue = 0;
 1061              		.loc 1 149 5 is_stmt 1
 152:plant.c       ****     {
 1062              		.loc 1 152 5
 152:plant.c       ****     {
 1063              		.loc 1 152 14 is_stmt 0
 1064 03de 83477432 		lbu	a5,807(s0)
 1065 03e2 83446432 		lbu	s1,806(s0)
 1066 03e6 A207     		slli	a5,a5,8
 1067 03e8 C58F     		or	a5,a5,s1
 1068 03ea 83448432 		lbu	s1,808(s0)
 1069 03ee C204     		slli	s1,s1,16
 1070 03f0 C58F     		or	a5,s1,a5
 1071 03f2 83449432 		lbu	s1,809(s0)
GAS LISTING /var/folders/rt/4gvqv631095f64jvm7jfj_000000gn/T//cc3cV2cq.s 			page 27


 1072 03f6 E204     		slli	s1,s1,24
 1073 03f8 DD8C     		or	s1,s1,a5
 152:plant.c       ****     {
 1074              		.loc 1 152 8
 1075 03fa E147     		li	a5,24
 1076 03fc E3C897CE 		bgt	s1,a5,.L21
 1077              	.LBB19:
 154:plant.c       ****       int32_t currentTime = rtc_counter_get();
 1078              		.loc 1 154 7 is_stmt 1
 1079              	.LBE19:
 148:plant.c       ****     if (currentValue < 0)
 1080              		.loc 1 148 9 is_stmt 0
 1081 0400 97000000 		call	__fixsfsi
 1081      E7800000 
 1082              	.LVL61:
 1083              	.LBB20:
 154:plant.c       ****       int32_t currentTime = rtc_counter_get();
 1084              		.loc 1 154 60
 1085 0408 93879404 		addi	a5,s1,73
 1086 040c 8E07     		slli	a5,a5,3
 1087 040e A297     		add	a5,s0,a5
 1088 0410 63530500 		bge	a0,zero,.L26
 1089 0414 0145     		li	a0,0
 1090              	.L26:
 1091 0416 13578500 		srli	a4,a0,8
 1092 041a 2389A700 		sb	a0,18(a5)
 1093 041e A389E700 		sb	a4,19(a5)
 1094 0422 13570501 		srli	a4,a0,16
 1095 0426 6181     		srli	a0,a0,24
 1096 0428 238AE700 		sb	a4,20(a5)
 1097 042c A38AA700 		sb	a0,21(a5)
 155:plant.c       ****       plant->temp[plant->numberOfTempReadings - 1].timeStamp = currentTime;
 1098              		.loc 1 155 7 is_stmt 1
 155:plant.c       ****       plant->temp[plant->numberOfTempReadings - 1].timeStamp = currentTime;
 1099              		.loc 1 155 29 is_stmt 0
 1100 0430 97000000 		call	rtc_counter_get
 1100      E7800000 
 1101              	.LVL62:
 156:plant.c       ****     }
 1102              		.loc 1 156 7 is_stmt 1
 156:plant.c       ****     }
 1103              		.loc 1 156 24 is_stmt 0
 1104 0438 83477432 		lbu	a5,807(s0)
 1105 043c 03476432 		lbu	a4,806(s0)
 156:plant.c       ****     }
 1106              		.loc 1 156 62
 1107 0440 93568500 		srli	a3,a0,8
 156:plant.c       ****     }
 1108              		.loc 1 156 24
 1109 0444 A207     		slli	a5,a5,8
 1110 0446 D98F     		or	a5,a5,a4
 1111 0448 03478432 		lbu	a4,808(s0)
 1112 044c 4207     		slli	a4,a4,16
 1113 044e D98F     		or	a5,a4,a5
 1114 0450 03479432 		lbu	a4,809(s0)
 1115 0454 6207     		slli	a4,a4,24
 1116 0456 5D8F     		or	a4,a4,a5
GAS LISTING /var/folders/rt/4gvqv631095f64jvm7jfj_000000gn/T//cc3cV2cq.s 			page 28


 156:plant.c       ****     }
 1117              		.loc 1 156 62
 1118 0458 93079704 		addi	a5,a4,73
 1119 045c 8E07     		slli	a5,a5,3
 1120 045e A297     		add	a5,s0,a5
 1121 0460 2387A700 		sb	a0,14(a5)
 1122 0464 A387D700 		sb	a3,15(a5)
 1123 0468 93560501 		srli	a3,a0,16
 1124 046c 6181     		srli	a0,a0,24
 1125              	.LVL63:
 1126 046e 2388D700 		sb	a3,16(a5)
 1127 0472 A388A700 		sb	a0,17(a5)
 1128              	.LBE20:
 159:plant.c       ****     {
 1129              		.loc 1 159 5 is_stmt 1
 159:plant.c       ****     {
 1130              		.loc 1 159 8 is_stmt 0
 1131 0476 E147     		li	a5,24
 1132 0478 E31AF7C6 		bne	a4,a5,.L21
 1133              	.LBB21:
 1134              	.LBB22:
 162:plant.c       ****       {
 1135              		.loc 1 162 16
 1136 047c 8146     		li	a3,0
 1137              	.LBE22:
 161:plant.c       ****       for (int i = 0; i < MAX_TEMP_READINGS; i++)
 1138              		.loc 1 161 11
 1139 047e 8147     		li	a5,0
 1140              	.LBB23:
 162:plant.c       ****       {
 1141              		.loc 1 162 7
 1142 0480 6145     		li	a0,24
 1143              	.L27:
 1144              	.LVL64:
 164:plant.c       ****       }
 1145              		.loc 1 164 9 is_stmt 1 discriminator 3
 164:plant.c       ****       }
 1146              		.loc 1 164 46 is_stmt 0 discriminator 3
 1147 0482 1387A604 		addi	a4,a3,74
 1148 0486 0E07     		slli	a4,a4,3
 1149 0488 2297     		add	a4,s0,a4
 1150 048a 03463701 		lbu	a2,19(a4)
 1151 048e 83452701 		lbu	a1,18(a4)
 162:plant.c       ****       {
 1152              		.loc 1 162 47 discriminator 3
 1153 0492 8506     		addi	a3,a3,1
 1154              	.LVL65:
 164:plant.c       ****       }
 1155              		.loc 1 164 46 discriminator 3
 1156 0494 2206     		slli	a2,a2,8
 1157 0496 D18D     		or	a1,a2,a1
 1158 0498 03464701 		lbu	a2,20(a4)
 1159 049c 03475701 		lbu	a4,21(a4)
 1160 04a0 4206     		slli	a2,a2,16
 1161 04a2 4D8E     		or	a2,a2,a1
 1162 04a4 6207     		slli	a4,a4,24
 1163 04a6 518F     		or	a4,a4,a2
GAS LISTING /var/folders/rt/4gvqv631095f64jvm7jfj_000000gn/T//cc3cV2cq.s 			page 29


 164:plant.c       ****       }
 1164              		.loc 1 164 29 discriminator 3
 1165 04a8 BA97     		add	a5,a5,a4
 1166              	.LVL66:
 162:plant.c       ****       {
 1167              		.loc 1 162 7 discriminator 3
 1168 04aa E39CA6FC 		bne	a3,a0,.L27
 1169              	.LBE23:
 166:plant.c       ****       averageValueThisDay /= MAX_TEMP_READINGS;
 1170              		.loc 1 166 7 is_stmt 1
 167:plant.c       ****       for (int i = AVG_HISTORY_DAYS -1; i > 0; i--)
 1171              		.loc 1 167 27 is_stmt 0
 1172 04ae B3C7D702 		div	a5,a5,a3
 1173              	.LVL67:
 166:plant.c       ****       averageValueThisDay /= MAX_TEMP_READINGS;
 1174              		.loc 1 166 35
 1175 04b2 0547     		li	a4,1
 1176 04b4 2303E432 		sb	a4,806(s0)
 1177 04b8 A3030432 		sb	zero,807(s0)
 1178 04bc 23040432 		sb	zero,808(s0)
 1179 04c0 A3040432 		sb	zero,809(s0)
 167:plant.c       ****       for (int i = AVG_HISTORY_DAYS -1; i > 0; i--)
 1180              		.loc 1 167 7 is_stmt 1
 1181              	.LVL68:
 168:plant.c       ****       {
 1182              		.loc 1 168 7
 1183              	.LBB24:
 168:plant.c       ****       {
 1184              		.loc 1 168 12
 168:plant.c       ****       {
 1185              		.loc 1 168 16 is_stmt 0
 1186 04c4 F545     		li	a1,29
 1187              	.LVL69:
 1188              	.L28:
 170:plant.c       ****       }
 1189              		.loc 1 170 9 is_stmt 1 discriminator 3
 1190 04c6 13972500 		slli	a4,a1,2
 1191 04ca 2297     		add	a4,s0,a4
 170:plant.c       ****       }
 1192              		.loc 1 170 51 is_stmt 0 discriminator 3
 1193 04cc 03467741 		lbu	a2,1047(a4)
 1194 04d0 83466741 		lbu	a3,1046(a4)
 1195 04d4 FD15     		addi	a1,a1,-1
 1196              	.LVL70:
 1197 04d6 2206     		slli	a2,a2,8
 1198 04d8 558E     		or	a2,a2,a3
 1199 04da 83468741 		lbu	a3,1048(a4)
 1200 04de C206     		slli	a3,a3,16
 1201 04e0 558E     		or	a2,a3,a2
 1202 04e2 83469741 		lbu	a3,1049(a4)
 1203 04e6 E206     		slli	a3,a3,24
 1204 04e8 D18E     		or	a3,a3,a2
 170:plant.c       ****       }
 1205              		.loc 1 170 31 discriminator 3
 1206 04ea 13D68600 		srli	a2,a3,8
 1207 04ee 230DD740 		sb	a3,1050(a4)
 1208 04f2 A30DC740 		sb	a2,1051(a4)
GAS LISTING /var/folders/rt/4gvqv631095f64jvm7jfj_000000gn/T//cc3cV2cq.s 			page 30


 1209 04f6 13D60601 		srli	a2,a3,16
 1210 04fa E182     		srli	a3,a3,24
 1211 04fc 230EC740 		sb	a2,1052(a4)
 1212 0500 A30ED740 		sb	a3,1053(a4)
 1213              	.LVL71:
 168:plant.c       ****       {
 1214              		.loc 1 168 7 discriminator 3
 1215 0504 E9F1     		bne	a1,zero,.L28
 1216              	.LBE24:
 172:plant.c       ****       if (plant->numberOfTempHistory < AVG_HISTORY_DAYS)
 1217              		.loc 1 172 7 is_stmt 1
 172:plant.c       ****       if (plant->numberOfTempHistory < AVG_HISTORY_DAYS)
 1218              		.loc 1 172 29 is_stmt 0
 1219 0506 13D78700 		srli	a4,a5,8
 1220 050a A30DE440 		sb	a4,1051(s0)
 1221 050e 13D70701 		srli	a4,a5,16
 1222 0512 230DF440 		sb	a5,1050(s0)
 1223 0516 230EE440 		sb	a4,1052(s0)
 1224 051a E183     		srli	a5,a5,24
 1225              	.LVL72:
 173:plant.c       ****         (plant->numberOfTempHistory)++;
 1226              		.loc 1 173 16
 1227 051c 0347B449 		lbu	a4,1179(s0)
 172:plant.c       ****       if (plant->numberOfTempHistory < AVG_HISTORY_DAYS)
 1228              		.loc 1 172 29
 1229 0520 A30EF440 		sb	a5,1053(s0)
 173:plant.c       ****         (plant->numberOfTempHistory)++;
 1230              		.loc 1 173 7 is_stmt 1
 173:plant.c       ****         (plant->numberOfTempHistory)++;
 1231              		.loc 1 173 16 is_stmt 0
 1232 0524 8347A449 		lbu	a5,1178(s0)
 1233 0528 2207     		slli	a4,a4,8
 1234 052a 5D8F     		or	a4,a4,a5
 1235 052c 8347C449 		lbu	a5,1180(s0)
 1236 0530 C207     		slli	a5,a5,16
 1237 0532 5D8F     		or	a4,a5,a4
 1238 0534 8347D449 		lbu	a5,1181(s0)
 1239 0538 E207     		slli	a5,a5,24
 1240 053a D98F     		or	a5,a5,a4
 173:plant.c       ****         (plant->numberOfTempHistory)++;
 1241              		.loc 1 173 10
 1242 053c 7547     		li	a4,29
 1243 053e E347F7BA 		bgt	a5,a4,.L21
 174:plant.c       ****     }
 1244              		.loc 1 174 9 is_stmt 1
 174:plant.c       ****     }
 1245              		.loc 1 174 37 is_stmt 0
 1246 0542 8507     		addi	a5,a5,1
 1247 0544 13D78700 		srli	a4,a5,8
 1248 0548 230DF448 		sb	a5,1178(s0)
 1249 054c A30DE448 		sb	a4,1179(s0)
 1250 0550 13D70701 		srli	a4,a5,16
 1251 0554 E183     		srli	a5,a5,24
 1252 0556 230EE448 		sb	a4,1180(s0)
 1253 055a A30EF448 		sb	a5,1181(s0)
 1254 055e 79B6     		j	.L21
 1255              	.LBE21:
GAS LISTING /var/folders/rt/4gvqv631095f64jvm7jfj_000000gn/T//cc3cV2cq.s 			page 31


 1256              	.LBE18:
 1257              		.cfi_endproc
 1258              	.LFE7:
 1260              		.section	.text.applyGreenFingers,"ax",@progbits
 1261              		.align	1
 1262              		.globl	applyGreenFingers
 1264              	applyGreenFingers:
 1265              	.LFB9:
 199:plant.c       **** 
 200:plant.c       **** int applyGreenFingers(Plant allPlants[], int numberOfPlants)
 201:plant.c       **** {
 1266              		.loc 1 201 1 is_stmt 1
 1267              		.cfi_startproc
 1268              	.LVL73:
 202:plant.c       ****   int updateDone = 0;
 1269              		.loc 1 202 3
 203:plant.c       ****   uint32_t currentTime = rtc_counter_get();
 1270              		.loc 1 203 3
 201:plant.c       ****   int updateDone = 0;
 1271              		.loc 1 201 1 is_stmt 0
 1272 0000 7971     		addi	sp,sp,-48
 1273              	.LCFI11:
 1274              		.cfi_def_cfa_offset 48
 1275 0002 26D2     		sw	s1,36(sp)
 1276 0004 4AD0     		sw	s2,32(sp)
 1277 0006 4ECE     		sw	s3,28(sp)
 1278 0008 52CC     		sw	s4,24(sp)
 1279 000a 56CA     		sw	s5,20(sp)
 1280 000c 5AC8     		sw	s6,16(sp)
 1281 000e 5EC6     		sw	s7,12(sp)
 1282 0010 06D6     		sw	ra,44(sp)
 1283 0012 22D4     		sw	s0,40(sp)
 1284              		.cfi_offset 9, -12
 1285              		.cfi_offset 18, -16
 1286              		.cfi_offset 19, -20
 1287              		.cfi_offset 20, -24
 1288              		.cfi_offset 21, -28
 1289              		.cfi_offset 22, -32
 1290              		.cfi_offset 23, -36
 1291              		.cfi_offset 1, -4
 1292              		.cfi_offset 8, -8
 201:plant.c       ****   int updateDone = 0;
 1293              		.loc 1 201 1
 1294 0014 2A8A     		mv	s4,a0
 1295 0016 AE89     		mv	s3,a1
 1296              		.loc 1 203 26
 1297 0018 97000000 		call	rtc_counter_get
 1297      E7800000 
 1298              	.LVL74:
 1299 0020 2A89     		mv	s2,a0
 1300              	.LVL75:
 204:plant.c       ****   for (int i = 0; i < numberOfPlants; i++)
 1301              		.loc 1 204 3 is_stmt 1
 1302              	.LBB25:
 1303              		.loc 1 204 8
 1304              		.loc 1 204 12 is_stmt 0
 1305 0022 8144     		li	s1,0
GAS LISTING /var/folders/rt/4gvqv631095f64jvm7jfj_000000gn/T//cc3cV2cq.s 			page 32


 1306              	.LBE25:
 202:plant.c       ****   uint32_t currentTime = rtc_counter_get();
 1307              		.loc 1 202 7
 1308 0024 814B     		li	s7,0
 1309 0026 930AE04C 		li	s5,1230
 1310              	.LBB28:
 1311              	.LBB26:
 205:plant.c       ****   {
 206:plant.c       ****     if (currentTime - allPlants[i].sun[allPlants[i].numberOfSunReadings - 1].timeStamp >= allPlants
 207:plant.c       ****     {
 208:plant.c       ****       updatePlantReadings(&allPlants[i], SUN, i);
 209:plant.c       ****       updateDone = 1;
 210:plant.c       ****     }
 211:plant.c       **** 
 212:plant.c       ****     if (currentTime - allPlants[i].moisture[allPlants[i].numberOfMoistureReadings - 1].timeStamp >=
 213:plant.c       ****     {
 214:plant.c       ****       updatePlantReadings(&allPlants[i], MOISTURE, i);
 215:plant.c       ****       updateDone = 1;
 216:plant.c       ****     }
 217:plant.c       **** 
 218:plant.c       ****     if (currentTime - allPlants[i].temp[allPlants[i].numberOfTempReadings - 1].timeStamp >= allPlan
 219:plant.c       ****     {
 220:plant.c       ****       updatePlantReadings(&allPlants[i], TEMPERATURE, i);
 221:plant.c       ****       updateDone = 1;
 222:plant.c       ****     }
 223:plant.c       **** 
 224:plant.c       ****     // PGA ENDAST 1 UPPSÄTTNING SENSORER SÅ KÖRS NEDAN UTANFÖR FOR LOOP.
 225:plant.c       ****     // I framtiden ska conditional nedan inte kolla (fukt > 95) utan (fukt > plant->highMoist)
 226:plant.c       ****     int fukt = ADC_read(1);
 227:plant.c       ****     if (fukt > 95) T1setPWMch0(1500); // Stanna vattenpump
 1312              		.loc 1 227 8
 1313 002a 130BF005 		li	s6,95
 1314              	.LVL76:
 1315              	.L37:
 1316              	.LBE26:
 204:plant.c       ****   {
 1317              		.loc 1 204 3 discriminator 1
 1318 002e 63CE3401 		blt	s1,s3,.L45
 1319              	.LBE28:
 228:plant.c       ****   }
 229:plant.c       ****   return updateDone;
 1320              		.loc 1 229 3 is_stmt 1
 230:plant.c       **** }...
 1321              		.loc 1 230 1 is_stmt 0
 1322 0032 B250     		lw	ra,44(sp)
 1323              		.cfi_remember_state
 1324              		.cfi_restore 1
 1325 0034 2254     		lw	s0,40(sp)
 1326              		.cfi_restore 8
 1327 0036 5E85     		mv	a0,s7
 1328 0038 9254     		lw	s1,36(sp)
 1329              		.cfi_restore 9
 1330              	.LVL77:
 1331 003a 0259     		lw	s2,32(sp)
 1332              		.cfi_restore 18
 1333              	.LVL78:
 1334 003c F249     		lw	s3,28(sp)
GAS LISTING /var/folders/rt/4gvqv631095f64jvm7jfj_000000gn/T//cc3cV2cq.s 			page 33


 1335              		.cfi_restore 19
 1336              	.LVL79:
 1337 003e 624A     		lw	s4,24(sp)
 1338              		.cfi_restore 20
 1339              	.LVL80:
 1340 0040 D24A     		lw	s5,20(sp)
 1341              		.cfi_restore 21
 1342 0042 424B     		lw	s6,16(sp)
 1343              		.cfi_restore 22
 1344 0044 B24B     		lw	s7,12(sp)
 1345              		.cfi_restore 23
 1346              	.LVL81:
 1347 0046 4561     		addi	sp,sp,48
 1348              	.LCFI12:
 1349              		.cfi_def_cfa_offset 0
 1350 0048 8280     		jr	ra
 1351              	.LVL82:
 1352              	.L45:
 1353              	.LCFI13:
 1354              		.cfi_restore_state
 1355              	.LBB29:
 1356              	.LBB27:
 206:plant.c       ****     if (currentTime - allPlants[i].sun[allPlants[i].numberOfSunReadings - 1].timeStamp >= allPlants
 1357              		.loc 1 206 5 is_stmt 1
 1358 004a 33845403 		mul	s0,s1,s5
 1359 004e 5294     		add	s0,s4,s0
 206:plant.c       ****     if (currentTime - allPlants[i].sun[allPlants[i].numberOfSunReadings - 1].timeStamp >= allPlants
 1360              		.loc 1 206 52 is_stmt 0
 1361 0050 03473432 		lbu	a4,803(s0)
 1362 0054 83472432 		lbu	a5,802(s0)
 1363 0058 2207     		slli	a4,a4,8
 1364 005a 5D8F     		or	a4,a4,a5
 1365 005c 83474432 		lbu	a5,804(s0)
 1366 0060 C207     		slli	a5,a5,16
 1367 0062 5D8F     		or	a4,a5,a4
 1368 0064 83475432 		lbu	a5,805(s0)
 1369 0068 E207     		slli	a5,a5,24
 1370 006a D98F     		or	a5,a5,a4
 206:plant.c       ****     if (currentTime - allPlants[i].sun[allPlants[i].numberOfSunReadings - 1].timeStamp >= allPlants
 1371              		.loc 1 206 77
 1372 006c E507     		addi	a5,a5,25
 1373 006e 8E07     		slli	a5,a5,3
 1374 0070 A297     		add	a5,s0,a5
 1375 0072 03C7F700 		lbu	a4,15(a5)
 1376 0076 83C6E700 		lbu	a3,14(a5)
 1377 007a 2207     		slli	a4,a4,8
 1378 007c D98E     		or	a3,a4,a3
 1379 007e 03C70701 		lbu	a4,16(a5)
 1380 0082 83C71701 		lbu	a5,17(a5)
 1381 0086 4207     		slli	a4,a4,16
 1382 0088 558F     		or	a4,a4,a3
 1383 008a E207     		slli	a5,a5,24
 206:plant.c       ****     if (currentTime - allPlants[i].sun[allPlants[i].numberOfSunReadings - 1].timeStamp >= allPlants
 1384              		.loc 1 206 103
 1385 008c 8346344A 		lbu	a3,1187(s0)
 206:plant.c       ****     if (currentTime - allPlants[i].sun[allPlants[i].numberOfSunReadings - 1].timeStamp >= allPlants
 1386              		.loc 1 206 77
GAS LISTING /var/folders/rt/4gvqv631095f64jvm7jfj_000000gn/T//cc3cV2cq.s 			page 34


 1387 0090 D98F     		or	a5,a5,a4
 206:plant.c       ****     if (currentTime - allPlants[i].sun[allPlants[i].numberOfSunReadings - 1].timeStamp >= allPlants
 1388              		.loc 1 206 103
 1389 0092 0347244A 		lbu	a4,1186(s0)
 1390 0096 A206     		slli	a3,a3,8
 206:plant.c       ****     if (currentTime - allPlants[i].sun[allPlants[i].numberOfSunReadings - 1].timeStamp >= allPlants
 1391              		.loc 1 206 21
 1392 0098 3306F940 		sub	a2,s2,a5
 206:plant.c       ****     if (currentTime - allPlants[i].sun[allPlants[i].numberOfSunReadings - 1].timeStamp >= allPlants
 1393              		.loc 1 206 103
 1394 009c D98E     		or	a3,a3,a4
 1395 009e 0347444A 		lbu	a4,1188(s0)
 1396 00a2 4207     		slli	a4,a4,16
 1397 00a4 D98E     		or	a3,a4,a3
 1398 00a6 0347544A 		lbu	a4,1189(s0)
 1399 00aa 6207     		slli	a4,a4,24
 1400 00ac 558F     		or	a4,a4,a3
 206:plant.c       ****     if (currentTime - allPlants[i].sun[allPlants[i].numberOfSunReadings - 1].timeStamp >= allPlants
 1401              		.loc 1 206 8
 1402 00ae 6373E600 		bgeu	a2,a4,.L38
 206:plant.c       ****     if (currentTime - allPlants[i].sun[allPlants[i].numberOfSunReadings - 1].timeStamp >= allPlants
 1403              		.loc 1 206 116 discriminator 1
 1404 00b2 89EB     		bne	a5,zero,.L39
 1405              	.L38:
 208:plant.c       ****       updatePlantReadings(&allPlants[i], SUN, i);
 1406              		.loc 1 208 7 is_stmt 1
 1407 00b4 2686     		mv	a2,s1
 1408 00b6 8545     		li	a1,1
 1409 00b8 2285     		mv	a0,s0
 1410 00ba 97000000 		call	updatePlantReadings
 1410      E7800000 
 1411              	.LVL83:
 209:plant.c       ****       updateDone = 1;
 1412              		.loc 1 209 7
 209:plant.c       ****       updateDone = 1;
 1413              		.loc 1 209 18 is_stmt 0
 1414 00c2 854B     		li	s7,1
 1415              	.LVL84:
 1416              	.L39:
 212:plant.c       ****     if (currentTime - allPlants[i].moisture[allPlants[i].numberOfMoistureReadings - 1].timeStamp >=
 1417              		.loc 1 212 5 is_stmt 1
 212:plant.c       ****     if (currentTime - allPlants[i].moisture[allPlants[i].numberOfMoistureReadings - 1].timeStamp >=
 1418              		.loc 1 212 57 is_stmt 0
 1419 00c4 0347F431 		lbu	a4,799(s0)
 1420 00c8 8347E431 		lbu	a5,798(s0)
 1421 00cc 2207     		slli	a4,a4,8
 1422 00ce 5D8F     		or	a4,a4,a5
 1423 00d0 83470432 		lbu	a5,800(s0)
 1424 00d4 C207     		slli	a5,a5,16
 1425 00d6 5D8F     		or	a4,a5,a4
 1426 00d8 83471432 		lbu	a5,801(s0)
 1427 00dc E207     		slli	a5,a5,24
 1428 00de D98F     		or	a5,a5,a4
 212:plant.c       ****     if (currentTime - allPlants[i].moisture[allPlants[i].numberOfMoistureReadings - 1].timeStamp >=
 1429              		.loc 1 212 87
 1430 00e0 8507     		addi	a5,a5,1
 1431 00e2 8E07     		slli	a5,a5,3
GAS LISTING /var/folders/rt/4gvqv631095f64jvm7jfj_000000gn/T//cc3cV2cq.s 			page 35


 1432 00e4 A297     		add	a5,s0,a5
 1433 00e6 03C7F700 		lbu	a4,15(a5)
 1434 00ea 83C6E700 		lbu	a3,14(a5)
 1435 00ee 2207     		slli	a4,a4,8
 1436 00f0 D98E     		or	a3,a4,a3
 1437 00f2 03C70701 		lbu	a4,16(a5)
 1438 00f6 83C71701 		lbu	a5,17(a5)
 1439 00fa 4207     		slli	a4,a4,16
 1440 00fc 558F     		or	a4,a4,a3
 1441 00fe E207     		slli	a5,a5,24
 212:plant.c       ****     if (currentTime - allPlants[i].moisture[allPlants[i].numberOfMoistureReadings - 1].timeStamp >=
 1442              		.loc 1 212 113
 1443 0100 8346F449 		lbu	a3,1183(s0)
 212:plant.c       ****     if (currentTime - allPlants[i].moisture[allPlants[i].numberOfMoistureReadings - 1].timeStamp >=
 1444              		.loc 1 212 87
 1445 0104 D98F     		or	a5,a5,a4
 212:plant.c       ****     if (currentTime - allPlants[i].moisture[allPlants[i].numberOfMoistureReadings - 1].timeStamp >=
 1446              		.loc 1 212 113
 1447 0106 0347E449 		lbu	a4,1182(s0)
 1448 010a A206     		slli	a3,a3,8
 212:plant.c       ****     if (currentTime - allPlants[i].moisture[allPlants[i].numberOfMoistureReadings - 1].timeStamp >=
 1449              		.loc 1 212 21
 1450 010c 3306F940 		sub	a2,s2,a5
 212:plant.c       ****     if (currentTime - allPlants[i].moisture[allPlants[i].numberOfMoistureReadings - 1].timeStamp >=
 1451              		.loc 1 212 113
 1452 0110 D98E     		or	a3,a3,a4
 1453 0112 0347044A 		lbu	a4,1184(s0)
 1454 0116 4207     		slli	a4,a4,16
 1455 0118 D98E     		or	a3,a4,a3
 1456 011a 0347144A 		lbu	a4,1185(s0)
 1457 011e 6207     		slli	a4,a4,24
 1458 0120 558F     		or	a4,a4,a3
 212:plant.c       ****     if (currentTime - allPlants[i].moisture[allPlants[i].numberOfMoistureReadings - 1].timeStamp >=
 1459              		.loc 1 212 8
 1460 0122 6373E600 		bgeu	a2,a4,.L40
 212:plant.c       ****     if (currentTime - allPlants[i].moisture[allPlants[i].numberOfMoistureReadings - 1].timeStamp >=
 1461              		.loc 1 212 128 discriminator 1
 1462 0126 89EB     		bne	a5,zero,.L41
 1463              	.L40:
 214:plant.c       ****       updatePlantReadings(&allPlants[i], MOISTURE, i);
 1464              		.loc 1 214 7 is_stmt 1
 1465 0128 2686     		mv	a2,s1
 1466 012a 8145     		li	a1,0
 1467 012c 2285     		mv	a0,s0
 1468 012e 97000000 		call	updatePlantReadings
 1468      E7800000 
 1469              	.LVL85:
 215:plant.c       ****       updateDone = 1;
 1470              		.loc 1 215 7
 215:plant.c       ****       updateDone = 1;
 1471              		.loc 1 215 18 is_stmt 0
 1472 0136 854B     		li	s7,1
 1473              	.LVL86:
 1474              	.L41:
 218:plant.c       ****     if (currentTime - allPlants[i].temp[allPlants[i].numberOfTempReadings - 1].timeStamp >= allPlan
 1475              		.loc 1 218 5 is_stmt 1
 218:plant.c       ****     if (currentTime - allPlants[i].temp[allPlants[i].numberOfTempReadings - 1].timeStamp >= allPlan
GAS LISTING /var/folders/rt/4gvqv631095f64jvm7jfj_000000gn/T//cc3cV2cq.s 			page 36


 1476              		.loc 1 218 53 is_stmt 0
 1477 0138 03477432 		lbu	a4,807(s0)
 1478 013c 83476432 		lbu	a5,806(s0)
 1479 0140 2207     		slli	a4,a4,8
 1480 0142 5D8F     		or	a4,a4,a5
 1481 0144 83478432 		lbu	a5,808(s0)
 1482 0148 C207     		slli	a5,a5,16
 1483 014a 5D8F     		or	a4,a5,a4
 1484 014c 83479432 		lbu	a5,809(s0)
 1485 0150 E207     		slli	a5,a5,24
 1486 0152 D98F     		or	a5,a5,a4
 218:plant.c       ****     if (currentTime - allPlants[i].temp[allPlants[i].numberOfTempReadings - 1].timeStamp >= allPlan
 1487              		.loc 1 218 79
 1488 0154 93879704 		addi	a5,a5,73
 1489 0158 8E07     		slli	a5,a5,3
 1490 015a A297     		add	a5,s0,a5
 1491 015c 03C7F700 		lbu	a4,15(a5)
 1492 0160 83C6E700 		lbu	a3,14(a5)
 1493 0164 2207     		slli	a4,a4,8
 1494 0166 D98E     		or	a3,a4,a3
 1495 0168 03C70701 		lbu	a4,16(a5)
 1496 016c 83C71701 		lbu	a5,17(a5)
 1497 0170 4207     		slli	a4,a4,16
 1498 0172 558F     		or	a4,a4,a3
 1499 0174 E207     		slli	a5,a5,24
 218:plant.c       ****     if (currentTime - allPlants[i].temp[allPlants[i].numberOfTempReadings - 1].timeStamp >= allPlan
 1500              		.loc 1 218 105
 1501 0176 8346744A 		lbu	a3,1191(s0)
 218:plant.c       ****     if (currentTime - allPlants[i].temp[allPlants[i].numberOfTempReadings - 1].timeStamp >= allPlan
 1502              		.loc 1 218 79
 1503 017a D98F     		or	a5,a5,a4
 218:plant.c       ****     if (currentTime - allPlants[i].temp[allPlants[i].numberOfTempReadings - 1].timeStamp >= allPlan
 1504              		.loc 1 218 105
 1505 017c 0347644A 		lbu	a4,1190(s0)
 1506 0180 A206     		slli	a3,a3,8
 218:plant.c       ****     if (currentTime - allPlants[i].temp[allPlants[i].numberOfTempReadings - 1].timeStamp >= allPlan
 1507              		.loc 1 218 21
 1508 0182 3306F940 		sub	a2,s2,a5
 218:plant.c       ****     if (currentTime - allPlants[i].temp[allPlants[i].numberOfTempReadings - 1].timeStamp >= allPlan
 1509              		.loc 1 218 105
 1510 0186 D98E     		or	a3,a3,a4
 1511 0188 0347844A 		lbu	a4,1192(s0)
 1512 018c 4207     		slli	a4,a4,16
 1513 018e D98E     		or	a3,a4,a3
 1514 0190 0347944A 		lbu	a4,1193(s0)
 1515 0194 6207     		slli	a4,a4,24
 1516 0196 558F     		or	a4,a4,a3
 218:plant.c       ****     if (currentTime - allPlants[i].temp[allPlants[i].numberOfTempReadings - 1].timeStamp >= allPlan
 1517              		.loc 1 218 8
 1518 0198 6373E600 		bgeu	a2,a4,.L42
 218:plant.c       ****     if (currentTime - allPlants[i].temp[allPlants[i].numberOfTempReadings - 1].timeStamp >= allPlan
 1519              		.loc 1 218 119 discriminator 1
 1520 019c 89EB     		bne	a5,zero,.L43
 1521              	.L42:
 220:plant.c       ****       updatePlantReadings(&allPlants[i], TEMPERATURE, i);
 1522              		.loc 1 220 7 is_stmt 1
 1523 019e 2686     		mv	a2,s1
GAS LISTING /var/folders/rt/4gvqv631095f64jvm7jfj_000000gn/T//cc3cV2cq.s 			page 37


 1524 01a0 8945     		li	a1,2
 1525 01a2 2285     		mv	a0,s0
 1526 01a4 97000000 		call	updatePlantReadings
 1526      E7800000 
 1527              	.LVL87:
 221:plant.c       ****       updateDone = 1;
 1528              		.loc 1 221 7
 221:plant.c       ****       updateDone = 1;
 1529              		.loc 1 221 18 is_stmt 0
 1530 01ac 854B     		li	s7,1
 1531              	.LVL88:
 1532              	.L43:
 226:plant.c       ****     int fukt = ADC_read(1);
 1533              		.loc 1 226 5 is_stmt 1
 226:plant.c       ****     int fukt = ADC_read(1);
 1534              		.loc 1 226 16 is_stmt 0
 1535 01ae 0545     		li	a0,1
 1536 01b0 97000000 		call	ADC_read
 1536      E7800000 
 1537              	.LVL89:
 227:plant.c       ****     if (fukt > 95) T1setPWMch0(1500); // Stanna vattenpump
 1538              		.loc 1 227 5 is_stmt 1
 227:plant.c       ****     if (fukt > 95) T1setPWMch0(1500); // Stanna vattenpump
 1539              		.loc 1 227 8 is_stmt 0
 1540 01b8 6358AB00 		ble	a0,s6,.L44
 227:plant.c       ****     if (fukt > 95) T1setPWMch0(1500); // Stanna vattenpump
 1541              		.loc 1 227 20 is_stmt 1 discriminator 1
 1542 01bc 1305C05D 		li	a0,1500
 1543              	.LVL90:
 1544 01c0 97000000 		call	T1setPWMch0
 1544      E7800000 
 1545              	.LVL91:
 1546              	.L44:
 1547              	.LBE27:
 204:plant.c       ****   for (int i = 0; i < numberOfPlants; i++)
 1548              		.loc 1 204 40 is_stmt 0 discriminator 2
 1549 01c8 8504     		addi	s1,s1,1
 1550              	.LVL92:
 1551 01ca 95B5     		j	.L37
 1552              	.LBE29:
 1553              		.cfi_endproc
 1554              	.LFE9:
 1556              		.section	.rodata.initPlant.str1.4,"aMS",@progbits,1
 1557              		.align	2
 1558              	.LC0:
 1559 0000 257300   		.string	"%s"
 1560 0003 00       		.zero	1
 1561              	.LC1:
 1562 0004 4F4B00   		.string	"OK"
 1563              		.section	.rodata.updatePlantStatus.str1.4,"aMS",@progbits,1
 1564              		.align	2
 1565              	.LC2:
 1566 0000 424548C3 		.string	"BEH\303\226VER SKUGGA"
 1566      96564552 
 1566      20534B55 
 1566      47474100 
 1567              	.LC3:
GAS LISTING /var/folders/rt/4gvqv631095f64jvm7jfj_000000gn/T//cc3cV2cq.s 			page 38


 1568 0010 424548C3 		.string	"BEH\303\226VER LJUS"
 1568      96564552 
 1568      204C4A55 
 1568      5300
 1569              		.text
 1570              	.Letext0:
 1571              		.file 2 "/Users/alexstrae/toolchain-gd32v-v202-osx/compiler/riscv64-unknown-elf/include/machine/_d
 1572              		.file 3 "/Users/alexstrae/toolchain-gd32v-v202-osx/compiler/riscv64-unknown-elf/include/sys/_stdin
 1573              		.file 4 "plant.h"
 1574              		.file 5 "/Users/alexstrae/toolchain-gd32v-v202-osx/compiler/lib/gcc/riscv64-unknown-elf/8.3.0/incl
 1575              		.file 6 "/Users/alexstrae/toolchain-gd32v-v202-osx/compiler/riscv64-unknown-elf/include/sys/_types
 1576              		.file 7 "/Users/alexstrae/toolchain-gd32v-v202-osx/compiler/riscv64-unknown-elf/include/sys/reent.
 1577              		.file 8 "/Users/alexstrae/toolchain-gd32v-v202-osx/compiler/riscv64-unknown-elf/include/sys/lock.h
 1578              		.file 9 "/Users/alexstrae/toolchain-gd32v-v202-osx/compiler/riscv64-unknown-elf/include/stdlib.h"
 1579              		.file 10 "../../firmware/GD32VF103_standard_peripheral/system_gd32vf103.h"
 1580              		.file 11 "lcd.h"
 1581              		.file 12 "adc.h"
 1582              		.file 13 "pwm.h"
 1583              		.file 14 "../../firmware/GD32VF103_standard_peripheral/Include/gd32vf103_rtc.h"
 1584              		.file 15 "/Users/alexstrae/toolchain-gd32v-v202-osx/compiler/riscv64-unknown-elf/include/stdio.h"
 1585              		.file 16 "../../firmware/GD32VF103_standard_peripheral/Include/gd32vf103_gpio.h"
 1586              		.file 17 "<built-in>"
GAS LISTING /var/folders/rt/4gvqv631095f64jvm7jfj_000000gn/T//cc3cV2cq.s 			page 39


DEFINED SYMBOLS
                            *ABS*:0000000000000000 plant.c
/var/folders/rt/4gvqv631095f64jvm7jfj_000000gn/T//cc3cV2cq.s:13     .text.initSensorReading:0000000000000000 initSensorReading
/var/folders/rt/4gvqv631095f64jvm7jfj_000000gn/T//cc3cV2cq.s:17     .text.initSensorReading:0000000000000000 .L0 
/var/folders/rt/4gvqv631095f64jvm7jfj_000000gn/T//cc3cV2cq.s:19     .text.initSensorReading:0000000000000000 .L0 
/var/folders/rt/4gvqv631095f64jvm7jfj_000000gn/T//cc3cV2cq.s:20     .text.initSensorReading:0000000000000000 .L0 
/var/folders/rt/4gvqv631095f64jvm7jfj_000000gn/T//cc3cV2cq.s:21     .text.initSensorReading:0000000000000000 .L0 
/var/folders/rt/4gvqv631095f64jvm7jfj_000000gn/T//cc3cV2cq.s:22     .text.initSensorReading:0000000000000000 .L0 
/var/folders/rt/4gvqv631095f64jvm7jfj_000000gn/T//cc3cV2cq.s:23     .text.initSensorReading:0000000000000000 .L0 
/var/folders/rt/4gvqv631095f64jvm7jfj_000000gn/T//cc3cV2cq.s:24     .text.initSensorReading:0000000000000000 .L0 
/var/folders/rt/4gvqv631095f64jvm7jfj_000000gn/T//cc3cV2cq.s:51     .text.initSensorReading:000000000000004a .L0 
/var/folders/rt/4gvqv631095f64jvm7jfj_000000gn/T//cc3cV2cq.s:53     .text.initSensorReading:000000000000004c .L0 
/var/folders/rt/4gvqv631095f64jvm7jfj_000000gn/T//cc3cV2cq.s:55     .text.initSensorReading:000000000000004c .L0 
/var/folders/rt/4gvqv631095f64jvm7jfj_000000gn/T//cc3cV2cq.s:60     .text.initSensorReading:0000000000000054 .L0 
/var/folders/rt/4gvqv631095f64jvm7jfj_000000gn/T//cc3cV2cq.s:64     .text.initSensorReading:000000000000005a .L0 
/var/folders/rt/4gvqv631095f64jvm7jfj_000000gn/T//cc3cV2cq.s:66     .text.initSensorReading:000000000000005c .L0 
/var/folders/rt/4gvqv631095f64jvm7jfj_000000gn/T//cc3cV2cq.s:73     .text.initPlant:0000000000000000 initPlant
/var/folders/rt/4gvqv631095f64jvm7jfj_000000gn/T//cc3cV2cq.s:76     .text.initPlant:0000000000000000 .L0 
/var/folders/rt/4gvqv631095f64jvm7jfj_000000gn/T//cc3cV2cq.s:78     .text.initPlant:0000000000000000 .L0 
/var/folders/rt/4gvqv631095f64jvm7jfj_000000gn/T//cc3cV2cq.s:79     .text.initPlant:0000000000000000 .L0 
/var/folders/rt/4gvqv631095f64jvm7jfj_000000gn/T//cc3cV2cq.s:80     .text.initPlant:0000000000000000 .L0 
/var/folders/rt/4gvqv631095f64jvm7jfj_000000gn/T//cc3cV2cq.s:82     .text.initPlant:0000000000000004 .L0 
/var/folders/rt/4gvqv631095f64jvm7jfj_000000gn/T//cc3cV2cq.s:84     .text.initPlant:0000000000000008 .L0 
/var/folders/rt/4gvqv631095f64jvm7jfj_000000gn/T//cc3cV2cq.s:97     .text.initPlant:0000000000000038 .L0 
/var/folders/rt/4gvqv631095f64jvm7jfj_000000gn/T//cc3cV2cq.s:98     .text.initPlant:0000000000000038 .L0 
/var/folders/rt/4gvqv631095f64jvm7jfj_000000gn/T//cc3cV2cq.s:99     .text.initPlant:0000000000000038 .L0 
/var/folders/rt/4gvqv631095f64jvm7jfj_000000gn/T//cc3cV2cq.s:100    .text.initPlant:0000000000000038 .L0 
/var/folders/rt/4gvqv631095f64jvm7jfj_000000gn/T//cc3cV2cq.s:101    .text.initPlant:0000000000000038 .L0 
/var/folders/rt/4gvqv631095f64jvm7jfj_000000gn/T//cc3cV2cq.s:102    .text.initPlant:0000000000000038 .L0 
/var/folders/rt/4gvqv631095f64jvm7jfj_000000gn/T//cc3cV2cq.s:103    .text.initPlant:0000000000000038 .L0 
/var/folders/rt/4gvqv631095f64jvm7jfj_000000gn/T//cc3cV2cq.s:104    .text.initPlant:0000000000000038 .L0 
/var/folders/rt/4gvqv631095f64jvm7jfj_000000gn/T//cc3cV2cq.s:105    .text.initPlant:0000000000000038 .L0 
/var/folders/rt/4gvqv631095f64jvm7jfj_000000gn/T//cc3cV2cq.s:106    .text.initPlant:0000000000000038 .L0 
/var/folders/rt/4gvqv631095f64jvm7jfj_000000gn/T//cc3cV2cq.s:107    .text.initPlant:0000000000000038 .L0 
/var/folders/rt/4gvqv631095f64jvm7jfj_000000gn/T//cc3cV2cq.s:108    .text.initPlant:0000000000000038 .L0 
/var/folders/rt/4gvqv631095f64jvm7jfj_000000gn/T//cc3cV2cq.s:110    .text.initPlant:0000000000000038 .L0 
/var/folders/rt/4gvqv631095f64jvm7jfj_000000gn/T//cc3cV2cq.s:112    .text.initPlant:000000000000003a .L0 
/var/folders/rt/4gvqv631095f64jvm7jfj_000000gn/T//cc3cV2cq.s:117    .text.initPlant:000000000000004a .L0 
/var/folders/rt/4gvqv631095f64jvm7jfj_000000gn/T//cc3cV2cq.s:120    .text.initPlant:0000000000000050 .L0 
/var/folders/rt/4gvqv631095f64jvm7jfj_000000gn/T//cc3cV2cq.s:127    .text.initPlant:000000000000005a .L0 
/var/folders/rt/4gvqv631095f64jvm7jfj_000000gn/T//cc3cV2cq.s:128    .text.initPlant:000000000000005a .L0 
/var/folders/rt/4gvqv631095f64jvm7jfj_000000gn/T//cc3cV2cq.s:129    .text.initPlant:000000000000005a .L0 
/var/folders/rt/4gvqv631095f64jvm7jfj_000000gn/T//cc3cV2cq.s:130    .text.initPlant:000000000000005a .L0 
/var/folders/rt/4gvqv631095f64jvm7jfj_000000gn/T//cc3cV2cq.s:131    .text.initPlant:000000000000005a .L0 
/var/folders/rt/4gvqv631095f64jvm7jfj_000000gn/T//cc3cV2cq.s:132    .text.initPlant:000000000000005a .L0 
/var/folders/rt/4gvqv631095f64jvm7jfj_000000gn/T//cc3cV2cq.s:133    .text.initPlant:000000000000005a .L0 
/var/folders/rt/4gvqv631095f64jvm7jfj_000000gn/T//cc3cV2cq.s:145    .text.initPlant:0000000000000072 .L0 
/var/folders/rt/4gvqv631095f64jvm7jfj_000000gn/T//cc3cV2cq.s:151    .text.initPlant:0000000000000086 .L0 
/var/folders/rt/4gvqv631095f64jvm7jfj_000000gn/T//cc3cV2cq.s:152    .text.initPlant:0000000000000086 .L0 
/var/folders/rt/4gvqv631095f64jvm7jfj_000000gn/T//cc3cV2cq.s:155    .text.initPlant:000000000000008c .L0 
/var/folders/rt/4gvqv631095f64jvm7jfj_000000gn/T//cc3cV2cq.s:157    .text.initPlant:0000000000000090 .L0 
/var/folders/rt/4gvqv631095f64jvm7jfj_000000gn/T//cc3cV2cq.s:159    .text.initPlant:0000000000000094 .L0 
/var/folders/rt/4gvqv631095f64jvm7jfj_000000gn/T//cc3cV2cq.s:161    .text.initPlant:0000000000000098 .L0 
/var/folders/rt/4gvqv631095f64jvm7jfj_000000gn/T//cc3cV2cq.s:163    .text.initPlant:000000000000009c .L0 
/var/folders/rt/4gvqv631095f64jvm7jfj_000000gn/T//cc3cV2cq.s:165    .text.initPlant:00000000000000a0 .L0 
/var/folders/rt/4gvqv631095f64jvm7jfj_000000gn/T//cc3cV2cq.s:168    .text.initPlant:00000000000000a8 .L0 
/var/folders/rt/4gvqv631095f64jvm7jfj_000000gn/T//cc3cV2cq.s:170    .text.initPlant:00000000000000ac .L0 
GAS LISTING /var/folders/rt/4gvqv631095f64jvm7jfj_000000gn/T//cc3cV2cq.s 			page 40


/var/folders/rt/4gvqv631095f64jvm7jfj_000000gn/T//cc3cV2cq.s:175    .text.initPlant:00000000000000bc .L0 
/var/folders/rt/4gvqv631095f64jvm7jfj_000000gn/T//cc3cV2cq.s:176    .text.initPlant:00000000000000bc .L0 
/var/folders/rt/4gvqv631095f64jvm7jfj_000000gn/T//cc3cV2cq.s:181    .text.initPlant:00000000000000cc .L0 
/var/folders/rt/4gvqv631095f64jvm7jfj_000000gn/T//cc3cV2cq.s:182    .text.initPlant:00000000000000cc .L0 
/var/folders/rt/4gvqv631095f64jvm7jfj_000000gn/T//cc3cV2cq.s:187    .text.initPlant:00000000000000dc .L0 
/var/folders/rt/4gvqv631095f64jvm7jfj_000000gn/T//cc3cV2cq.s:188    .text.initPlant:00000000000000dc .L0 
/var/folders/rt/4gvqv631095f64jvm7jfj_000000gn/T//cc3cV2cq.s:190    .text.initPlant:00000000000000e0 .L0 
/var/folders/rt/4gvqv631095f64jvm7jfj_000000gn/T//cc3cV2cq.s:191    .text.initPlant:00000000000000e0 .L0 
/var/folders/rt/4gvqv631095f64jvm7jfj_000000gn/T//cc3cV2cq.s:193    .text.initPlant:00000000000000e4 .L0 
/var/folders/rt/4gvqv631095f64jvm7jfj_000000gn/T//cc3cV2cq.s:194    .text.initPlant:00000000000000e4 .L0 
/var/folders/rt/4gvqv631095f64jvm7jfj_000000gn/T//cc3cV2cq.s:196    .text.initPlant:00000000000000e8 .L0 
/var/folders/rt/4gvqv631095f64jvm7jfj_000000gn/T//cc3cV2cq.s:197    .text.initPlant:00000000000000e8 .L0 
/var/folders/rt/4gvqv631095f64jvm7jfj_000000gn/T//cc3cV2cq.s:200    .text.initPlant:00000000000000f0 .L0 
/var/folders/rt/4gvqv631095f64jvm7jfj_000000gn/T//cc3cV2cq.s:201    .text.initPlant:00000000000000f0 .L0 
/var/folders/rt/4gvqv631095f64jvm7jfj_000000gn/T//cc3cV2cq.s:204    .text.initPlant:00000000000000f8 .L0 
/var/folders/rt/4gvqv631095f64jvm7jfj_000000gn/T//cc3cV2cq.s:205    .text.initPlant:00000000000000f8 .L0 
/var/folders/rt/4gvqv631095f64jvm7jfj_000000gn/T//cc3cV2cq.s:208    .text.initPlant:0000000000000100 .L0 
/var/folders/rt/4gvqv631095f64jvm7jfj_000000gn/T//cc3cV2cq.s:209    .text.initPlant:0000000000000100 .L0 
/var/folders/rt/4gvqv631095f64jvm7jfj_000000gn/T//cc3cV2cq.s:211    .text.initPlant:0000000000000104 .L0 
/var/folders/rt/4gvqv631095f64jvm7jfj_000000gn/T//cc3cV2cq.s:212    .text.initPlant:0000000000000104 .L0 
/var/folders/rt/4gvqv631095f64jvm7jfj_000000gn/T//cc3cV2cq.s:214    .text.initPlant:0000000000000108 .L0 
/var/folders/rt/4gvqv631095f64jvm7jfj_000000gn/T//cc3cV2cq.s:215    .text.initPlant:0000000000000108 .L0 
/var/folders/rt/4gvqv631095f64jvm7jfj_000000gn/T//cc3cV2cq.s:217    .text.initPlant:000000000000010c .L0 
/var/folders/rt/4gvqv631095f64jvm7jfj_000000gn/T//cc3cV2cq.s:218    .text.initPlant:000000000000010c .L0 
/var/folders/rt/4gvqv631095f64jvm7jfj_000000gn/T//cc3cV2cq.s:220    .text.initPlant:0000000000000110 .L0 
/var/folders/rt/4gvqv631095f64jvm7jfj_000000gn/T//cc3cV2cq.s:221    .text.initPlant:0000000000000110 .L0 
/var/folders/rt/4gvqv631095f64jvm7jfj_000000gn/T//cc3cV2cq.s:223    .text.initPlant:0000000000000114 .L0 
/var/folders/rt/4gvqv631095f64jvm7jfj_000000gn/T//cc3cV2cq.s:228    .text.initPlant:000000000000011e .L0 
/var/folders/rt/4gvqv631095f64jvm7jfj_000000gn/T//cc3cV2cq.s:230    .text.initPlant:0000000000000122 .L0 
/var/folders/rt/4gvqv631095f64jvm7jfj_000000gn/T//cc3cV2cq.s:232    .text.initPlant:0000000000000126 .L0 
/var/folders/rt/4gvqv631095f64jvm7jfj_000000gn/T//cc3cV2cq.s:234    .text.initPlant:000000000000012a .L0 
/var/folders/rt/4gvqv631095f64jvm7jfj_000000gn/T//cc3cV2cq.s:236    .text.initPlant:000000000000012e .L0 
/var/folders/rt/4gvqv631095f64jvm7jfj_000000gn/T//cc3cV2cq.s:238    .text.initPlant:0000000000000132 .L0 
/var/folders/rt/4gvqv631095f64jvm7jfj_000000gn/T//cc3cV2cq.s:240    .text.initPlant:0000000000000136 .L0 
/var/folders/rt/4gvqv631095f64jvm7jfj_000000gn/T//cc3cV2cq.s:242    .text.initPlant:000000000000013a .L0 
/var/folders/rt/4gvqv631095f64jvm7jfj_000000gn/T//cc3cV2cq.s:244    .text.initPlant:000000000000013e .L0 
/var/folders/rt/4gvqv631095f64jvm7jfj_000000gn/T//cc3cV2cq.s:246    .text.initPlant:0000000000000142 .L0 
/var/folders/rt/4gvqv631095f64jvm7jfj_000000gn/T//cc3cV2cq.s:248    .text.initPlant:0000000000000146 .L0 
/var/folders/rt/4gvqv631095f64jvm7jfj_000000gn/T//cc3cV2cq.s:250    .text.initPlant:000000000000014a .L0 
/var/folders/rt/4gvqv631095f64jvm7jfj_000000gn/T//cc3cV2cq.s:253    .text.initPlant:000000000000014e .L0 
/var/folders/rt/4gvqv631095f64jvm7jfj_000000gn/T//cc3cV2cq.s:256    .text.initPlant:0000000000000152 .L0 
/var/folders/rt/4gvqv631095f64jvm7jfj_000000gn/T//cc3cV2cq.s:259    .text.initPlant:0000000000000156 .L0 
/var/folders/rt/4gvqv631095f64jvm7jfj_000000gn/T//cc3cV2cq.s:262    .text.initPlant:0000000000000158 .L0 
/var/folders/rt/4gvqv631095f64jvm7jfj_000000gn/T//cc3cV2cq.s:264    .text.initPlant:000000000000015c .L0 
/var/folders/rt/4gvqv631095f64jvm7jfj_000000gn/T//cc3cV2cq.s:266    .text.initPlant:0000000000000160 .L0 
/var/folders/rt/4gvqv631095f64jvm7jfj_000000gn/T//cc3cV2cq.s:268    .text.initPlant:0000000000000164 .L0 
/var/folders/rt/4gvqv631095f64jvm7jfj_000000gn/T//cc3cV2cq.s:270    .text.initPlant:0000000000000168 .L0 
/var/folders/rt/4gvqv631095f64jvm7jfj_000000gn/T//cc3cV2cq.s:274    .text.initPlant:0000000000000170 .L0 
/var/folders/rt/4gvqv631095f64jvm7jfj_000000gn/T//cc3cV2cq.s:276    .text.initPlant:0000000000000172 .L0 
/var/folders/rt/4gvqv631095f64jvm7jfj_000000gn/T//cc3cV2cq.s:278    .text.initPlant:0000000000000176 .L0 
/var/folders/rt/4gvqv631095f64jvm7jfj_000000gn/T//cc3cV2cq.s:279    .text.initPlant:0000000000000176 .L0 
/var/folders/rt/4gvqv631095f64jvm7jfj_000000gn/T//cc3cV2cq.s:282    .text.initPlant:000000000000017e .L0 
/var/folders/rt/4gvqv631095f64jvm7jfj_000000gn/T//cc3cV2cq.s:283    .text.initPlant:000000000000017e .L0 
/var/folders/rt/4gvqv631095f64jvm7jfj_000000gn/T//cc3cV2cq.s:285    .text.initPlant:0000000000000182 .L0 
/var/folders/rt/4gvqv631095f64jvm7jfj_000000gn/T//cc3cV2cq.s:286    .text.initPlant:0000000000000182 .L0 
/var/folders/rt/4gvqv631095f64jvm7jfj_000000gn/T//cc3cV2cq.s:288    .text.initPlant:0000000000000186 .L0 
/var/folders/rt/4gvqv631095f64jvm7jfj_000000gn/T//cc3cV2cq.s:289    .text.initPlant:0000000000000186 .L0 
GAS LISTING /var/folders/rt/4gvqv631095f64jvm7jfj_000000gn/T//cc3cV2cq.s 			page 41


/var/folders/rt/4gvqv631095f64jvm7jfj_000000gn/T//cc3cV2cq.s:291    .text.initPlant:000000000000018a .L0 
/var/folders/rt/4gvqv631095f64jvm7jfj_000000gn/T//cc3cV2cq.s:292    .text.initPlant:000000000000018a .L0 
/var/folders/rt/4gvqv631095f64jvm7jfj_000000gn/T//cc3cV2cq.s:294    .text.initPlant:000000000000018e .L0 
/var/folders/rt/4gvqv631095f64jvm7jfj_000000gn/T//cc3cV2cq.s:295    .text.initPlant:000000000000018e .L0 
/var/folders/rt/4gvqv631095f64jvm7jfj_000000gn/T//cc3cV2cq.s:296    .text.initPlant:000000000000018e .L0 
/var/folders/rt/4gvqv631095f64jvm7jfj_000000gn/T//cc3cV2cq.s:298    .text.initPlant:0000000000000192 .L0 
/var/folders/rt/4gvqv631095f64jvm7jfj_000000gn/T//cc3cV2cq.s:299    .text.initPlant:0000000000000192 .L0 
/var/folders/rt/4gvqv631095f64jvm7jfj_000000gn/T//cc3cV2cq.s:301    .text.initPlant:0000000000000196 .L0 
/var/folders/rt/4gvqv631095f64jvm7jfj_000000gn/T//cc3cV2cq.s:302    .text.initPlant:0000000000000196 .L0 
/var/folders/rt/4gvqv631095f64jvm7jfj_000000gn/T//cc3cV2cq.s:304    .text.initPlant:000000000000019a .L0 
/var/folders/rt/4gvqv631095f64jvm7jfj_000000gn/T//cc3cV2cq.s:305    .text.initPlant:000000000000019a .L0 
/var/folders/rt/4gvqv631095f64jvm7jfj_000000gn/T//cc3cV2cq.s:307    .text.initPlant:000000000000019e .L0 
/var/folders/rt/4gvqv631095f64jvm7jfj_000000gn/T//cc3cV2cq.s:308    .text.initPlant:000000000000019e .L0 
/var/folders/rt/4gvqv631095f64jvm7jfj_000000gn/T//cc3cV2cq.s:311    .text.initPlant:00000000000001a6 .L0 
/var/folders/rt/4gvqv631095f64jvm7jfj_000000gn/T//cc3cV2cq.s:312    .text.initPlant:00000000000001a6 .L0 
/var/folders/rt/4gvqv631095f64jvm7jfj_000000gn/T//cc3cV2cq.s:316    .text.initPlant:00000000000001aa .L0 
/var/folders/rt/4gvqv631095f64jvm7jfj_000000gn/T//cc3cV2cq.s:317    .text.initPlant:00000000000001ae .L0 
/var/folders/rt/4gvqv631095f64jvm7jfj_000000gn/T//cc3cV2cq.s:319    .text.initPlant:00000000000001b2 .L0 
/var/folders/rt/4gvqv631095f64jvm7jfj_000000gn/T//cc3cV2cq.s:321    .text.initPlant:00000000000001b6 .L0 
/var/folders/rt/4gvqv631095f64jvm7jfj_000000gn/T//cc3cV2cq.s:323    .text.initPlant:00000000000001ba .L0 
/var/folders/rt/4gvqv631095f64jvm7jfj_000000gn/T//cc3cV2cq.s:325    .text.initPlant:00000000000001be .L0 
/var/folders/rt/4gvqv631095f64jvm7jfj_000000gn/T//cc3cV2cq.s:327    .text.initPlant:00000000000001c2 .L0 
/var/folders/rt/4gvqv631095f64jvm7jfj_000000gn/T//cc3cV2cq.s:329    .text.initPlant:00000000000001c6 .L0 
/var/folders/rt/4gvqv631095f64jvm7jfj_000000gn/T//cc3cV2cq.s:331    .text.initPlant:00000000000001ca .L0 
/var/folders/rt/4gvqv631095f64jvm7jfj_000000gn/T//cc3cV2cq.s:333    .text.initPlant:00000000000001ce .L0 
/var/folders/rt/4gvqv631095f64jvm7jfj_000000gn/T//cc3cV2cq.s:335    .text.initPlant:00000000000001d2 .L0 
/var/folders/rt/4gvqv631095f64jvm7jfj_000000gn/T//cc3cV2cq.s:337    .text.initPlant:00000000000001d6 .L0 
/var/folders/rt/4gvqv631095f64jvm7jfj_000000gn/T//cc3cV2cq.s:339    .text.initPlant:00000000000001da .L0 
/var/folders/rt/4gvqv631095f64jvm7jfj_000000gn/T//cc3cV2cq.s:342    .text.initPlant:00000000000001de .L0 
/var/folders/rt/4gvqv631095f64jvm7jfj_000000gn/T//cc3cV2cq.s:345    .text.initPlant:00000000000001e0 .L0 
/var/folders/rt/4gvqv631095f64jvm7jfj_000000gn/T//cc3cV2cq.s:352    .text.updatePlantStatus:0000000000000000 updatePlantStatus
/var/folders/rt/4gvqv631095f64jvm7jfj_000000gn/T//cc3cV2cq.s:355    .text.updatePlantStatus:0000000000000000 .L0 
/var/folders/rt/4gvqv631095f64jvm7jfj_000000gn/T//cc3cV2cq.s:357    .text.updatePlantStatus:0000000000000000 .L0 
/var/folders/rt/4gvqv631095f64jvm7jfj_000000gn/T//cc3cV2cq.s:358    .text.updatePlantStatus:0000000000000000 .L0 
/var/folders/rt/4gvqv631095f64jvm7jfj_000000gn/T//cc3cV2cq.s:359    .text.updatePlantStatus:0000000000000000 .L0 
/var/folders/rt/4gvqv631095f64jvm7jfj_000000gn/T//cc3cV2cq.s:361    .text.updatePlantStatus:0000000000000002 .L0 
/var/folders/rt/4gvqv631095f64jvm7jfj_000000gn/T//cc3cV2cq.s:364    .text.updatePlantStatus:0000000000000006 .L0 
/var/folders/rt/4gvqv631095f64jvm7jfj_000000gn/T//cc3cV2cq.s:365    .text.updatePlantStatus:0000000000000006 .L0 
/var/folders/rt/4gvqv631095f64jvm7jfj_000000gn/T//cc3cV2cq.s:367    .text.updatePlantStatus:0000000000000006 .L0 
/var/folders/rt/4gvqv631095f64jvm7jfj_000000gn/T//cc3cV2cq.s:370    .text.updatePlantStatus:000000000000000e .L0 
/var/folders/rt/4gvqv631095f64jvm7jfj_000000gn/T//cc3cV2cq.s:372    .text.updatePlantStatus:0000000000000010 .L0 
/var/folders/rt/4gvqv631095f64jvm7jfj_000000gn/T//cc3cV2cq.s:381    .text.updatePlantStatus:0000000000000024 .L0 
/var/folders/rt/4gvqv631095f64jvm7jfj_000000gn/T//cc3cV2cq.s:394    .text.updatePlantStatus:0000000000000044 .L0 
/var/folders/rt/4gvqv631095f64jvm7jfj_000000gn/T//cc3cV2cq.s:396    .text.updatePlantStatus:0000000000000048 .L0 
/var/folders/rt/4gvqv631095f64jvm7jfj_000000gn/T//cc3cV2cq.s:398    .text.updatePlantStatus:000000000000004a .L0 
/var/folders/rt/4gvqv631095f64jvm7jfj_000000gn/T//cc3cV2cq.s:408    .text.updatePlantStatus:0000000000000062 .L0 
/var/folders/rt/4gvqv631095f64jvm7jfj_000000gn/T//cc3cV2cq.s:410    .text.updatePlantStatus:0000000000000066 .L0 
/var/folders/rt/4gvqv631095f64jvm7jfj_000000gn/T//cc3cV2cq.s:420    .text.updatePlantStatus:0000000000000082 .L0 
/var/folders/rt/4gvqv631095f64jvm7jfj_000000gn/T//cc3cV2cq.s:427    .text.updatePlantStatus:0000000000000096 .L0 
/var/folders/rt/4gvqv631095f64jvm7jfj_000000gn/T//cc3cV2cq.s:428    .text.updatePlantStatus:0000000000000096 .L0 
/var/folders/rt/4gvqv631095f64jvm7jfj_000000gn/T//cc3cV2cq.s:439    .text.updatePlantStatus:00000000000000b2 .L0 
/var/folders/rt/4gvqv631095f64jvm7jfj_000000gn/T//cc3cV2cq.s:451    .text.updatePlantStatus:00000000000000d0 .L0 
/var/folders/rt/4gvqv631095f64jvm7jfj_000000gn/T//cc3cV2cq.s:453    .text.updatePlantStatus:00000000000000d4 .L0 
/var/folders/rt/4gvqv631095f64jvm7jfj_000000gn/T//cc3cV2cq.s:456    .text.updatePlantStatus:00000000000000d8 .L0 
/var/folders/rt/4gvqv631095f64jvm7jfj_000000gn/T//cc3cV2cq.s:466    .text.updatePlantStatus:00000000000000f0 .L0 
/var/folders/rt/4gvqv631095f64jvm7jfj_000000gn/T//cc3cV2cq.s:468    .text.updatePlantStatus:00000000000000f4 .L0 
/var/folders/rt/4gvqv631095f64jvm7jfj_000000gn/T//cc3cV2cq.s:469    .text.updatePlantStatus:00000000000000f4 .L0 
GAS LISTING /var/folders/rt/4gvqv631095f64jvm7jfj_000000gn/T//cc3cV2cq.s 			page 42


/var/folders/rt/4gvqv631095f64jvm7jfj_000000gn/T//cc3cV2cq.s:470    .text.updatePlantStatus:00000000000000f6 .L0 
/var/folders/rt/4gvqv631095f64jvm7jfj_000000gn/T//cc3cV2cq.s:471    .text.updatePlantStatus:00000000000000f6 .L0 
/var/folders/rt/4gvqv631095f64jvm7jfj_000000gn/T//cc3cV2cq.s:474    .text.updatePlantStatus:00000000000000f8 .L0 
/var/folders/rt/4gvqv631095f64jvm7jfj_000000gn/T//cc3cV2cq.s:476    .text.updatePlantStatus:00000000000000f8 .L0 
/var/folders/rt/4gvqv631095f64jvm7jfj_000000gn/T//cc3cV2cq.s:478    .text.updatePlantStatus:00000000000000fc .L0 
/var/folders/rt/4gvqv631095f64jvm7jfj_000000gn/T//cc3cV2cq.s:480    .text.updatePlantStatus:00000000000000fe .L0 
/var/folders/rt/4gvqv631095f64jvm7jfj_000000gn/T//cc3cV2cq.s:482    .text.updatePlantStatus:00000000000000fe .L0 
/var/folders/rt/4gvqv631095f64jvm7jfj_000000gn/T//cc3cV2cq.s:486    .text.updatePlantStatus:0000000000000106 .L0 
/var/folders/rt/4gvqv631095f64jvm7jfj_000000gn/T//cc3cV2cq.s:488    .text.updatePlantStatus:0000000000000106 .L0 
/var/folders/rt/4gvqv631095f64jvm7jfj_000000gn/T//cc3cV2cq.s:489    .text.updatePlantStatus:0000000000000106 .L0 
/var/folders/rt/4gvqv631095f64jvm7jfj_000000gn/T//cc3cV2cq.s:500    .text.updatePlantStatus:0000000000000122 .L0 
/var/folders/rt/4gvqv631095f64jvm7jfj_000000gn/T//cc3cV2cq.s:502    .text.updatePlantStatus:0000000000000126 .L0 
/var/folders/rt/4gvqv631095f64jvm7jfj_000000gn/T//cc3cV2cq.s:508    .text.updatePlantStatus:0000000000000138 .L0 
/var/folders/rt/4gvqv631095f64jvm7jfj_000000gn/T//cc3cV2cq.s:516    .text.updatePlantStatus:000000000000014e .L0 
/var/folders/rt/4gvqv631095f64jvm7jfj_000000gn/T//cc3cV2cq.s:517    .text.updatePlantStatus:0000000000000150 .L0 
/var/folders/rt/4gvqv631095f64jvm7jfj_000000gn/T//cc3cV2cq.s:519    .text.updatePlantStatus:0000000000000152 .L0 
/var/folders/rt/4gvqv631095f64jvm7jfj_000000gn/T//cc3cV2cq.s:523    .text.updatePlantStatus:0000000000000154 .L0 
/var/folders/rt/4gvqv631095f64jvm7jfj_000000gn/T//cc3cV2cq.s:525    .text.updatePlantStatus:0000000000000156 .L0 
/var/folders/rt/4gvqv631095f64jvm7jfj_000000gn/T//cc3cV2cq.s:533    .text.updatePlantReadings:0000000000000000 updatePlantReadings
/var/folders/rt/4gvqv631095f64jvm7jfj_000000gn/T//cc3cV2cq.s:536    .text.updatePlantReadings:0000000000000000 .L0 
/var/folders/rt/4gvqv631095f64jvm7jfj_000000gn/T//cc3cV2cq.s:538    .text.updatePlantReadings:0000000000000000 .L0 
/var/folders/rt/4gvqv631095f64jvm7jfj_000000gn/T//cc3cV2cq.s:539    .text.updatePlantReadings:0000000000000000 .L0 
/var/folders/rt/4gvqv631095f64jvm7jfj_000000gn/T//cc3cV2cq.s:540    .text.updatePlantReadings:0000000000000000 .L0 
/var/folders/rt/4gvqv631095f64jvm7jfj_000000gn/T//cc3cV2cq.s:542    .text.updatePlantReadings:0000000000000002 .L0 
/var/folders/rt/4gvqv631095f64jvm7jfj_000000gn/T//cc3cV2cq.s:546    .text.updatePlantReadings:0000000000000008 .L0 
/var/folders/rt/4gvqv631095f64jvm7jfj_000000gn/T//cc3cV2cq.s:547    .text.updatePlantReadings:0000000000000008 .L0 
/var/folders/rt/4gvqv631095f64jvm7jfj_000000gn/T//cc3cV2cq.s:548    .text.updatePlantReadings:0000000000000008 .L0 
/var/folders/rt/4gvqv631095f64jvm7jfj_000000gn/T//cc3cV2cq.s:550    .text.updatePlantReadings:0000000000000008 .L0 
/var/folders/rt/4gvqv631095f64jvm7jfj_000000gn/T//cc3cV2cq.s:552    .text.updatePlantReadings:000000000000000a .L0 
/var/folders/rt/4gvqv631095f64jvm7jfj_000000gn/T//cc3cV2cq.s:554    .text.updatePlantReadings:000000000000000c .L0 
/var/folders/rt/4gvqv631095f64jvm7jfj_000000gn/T//cc3cV2cq.s:557    .text.updatePlantReadings:0000000000000010 .L0 
/var/folders/rt/4gvqv631095f64jvm7jfj_000000gn/T//cc3cV2cq.s:558    .text.updatePlantReadings:0000000000000010 .L0 
/var/folders/rt/4gvqv631095f64jvm7jfj_000000gn/T//cc3cV2cq.s:563    .text.updatePlantReadings:000000000000001a .L0 
/var/folders/rt/4gvqv631095f64jvm7jfj_000000gn/T//cc3cV2cq.s:564    .text.updatePlantReadings:000000000000001a .L0 
/var/folders/rt/4gvqv631095f64jvm7jfj_000000gn/T//cc3cV2cq.s:565    .text.updatePlantReadings:000000000000001a .L0 
/var/folders/rt/4gvqv631095f64jvm7jfj_000000gn/T//cc3cV2cq.s:576    .text.updatePlantReadings:0000000000000036 .L0 
/var/folders/rt/4gvqv631095f64jvm7jfj_000000gn/T//cc3cV2cq.s:580    .text.updatePlantReadings:000000000000003e .L0 
/var/folders/rt/4gvqv631095f64jvm7jfj_000000gn/T//cc3cV2cq.s:583    .text.updatePlantReadings:0000000000000042 .L0 
/var/folders/rt/4gvqv631095f64jvm7jfj_000000gn/T//cc3cV2cq.s:590    .text.updatePlantReadings:000000000000004e .L0 
/var/folders/rt/4gvqv631095f64jvm7jfj_000000gn/T//cc3cV2cq.s:609    .text.updatePlantReadings:0000000000000086 .L0 
/var/folders/rt/4gvqv631095f64jvm7jfj_000000gn/T//cc3cV2cq.s:610    .text.updatePlantReadings:0000000000000086 .L0 
/var/folders/rt/4gvqv631095f64jvm7jfj_000000gn/T//cc3cV2cq.s:613    .text.updatePlantReadings:000000000000008e .L0 
/var/folders/rt/4gvqv631095f64jvm7jfj_000000gn/T//cc3cV2cq.s:614    .text.updatePlantReadings:000000000000008e .L0 
/var/folders/rt/4gvqv631095f64jvm7jfj_000000gn/T//cc3cV2cq.s:617    .text.updatePlantReadings:0000000000000096 .L0 
/var/folders/rt/4gvqv631095f64jvm7jfj_000000gn/T//cc3cV2cq.s:619    .text.updatePlantReadings:000000000000009a .L0 
/var/folders/rt/4gvqv631095f64jvm7jfj_000000gn/T//cc3cV2cq.s:630    .text.updatePlantReadings:00000000000000b4 .L0 
/var/folders/rt/4gvqv631095f64jvm7jfj_000000gn/T//cc3cV2cq.s:636    .text.updatePlantReadings:00000000000000c8 .L0 
/var/folders/rt/4gvqv631095f64jvm7jfj_000000gn/T//cc3cV2cq.s:637    .text.updatePlantReadings:00000000000000c8 .L0 
/var/folders/rt/4gvqv631095f64jvm7jfj_000000gn/T//cc3cV2cq.s:639    .text.updatePlantReadings:00000000000000cc .L0 
/var/folders/rt/4gvqv631095f64jvm7jfj_000000gn/T//cc3cV2cq.s:642    .text.updatePlantReadings:00000000000000d2 .L0 
/var/folders/rt/4gvqv631095f64jvm7jfj_000000gn/T//cc3cV2cq.s:643    .text.updatePlantReadings:00000000000000d2 .L0 
/var/folders/rt/4gvqv631095f64jvm7jfj_000000gn/T//cc3cV2cq.s:646    .text.updatePlantReadings:00000000000000da .L0 
/var/folders/rt/4gvqv631095f64jvm7jfj_000000gn/T//cc3cV2cq.s:647    .text.updatePlantReadings:00000000000000da .L0 
/var/folders/rt/4gvqv631095f64jvm7jfj_000000gn/T//cc3cV2cq.s:657    .text.updatePlantReadings:00000000000000ec .L0 
/var/folders/rt/4gvqv631095f64jvm7jfj_000000gn/T//cc3cV2cq.s:659    .text.updatePlantReadings:00000000000000ee .L0 
/var/folders/rt/4gvqv631095f64jvm7jfj_000000gn/T//cc3cV2cq.s:660    .text.updatePlantReadings:00000000000000f0 .L0 
/var/folders/rt/4gvqv631095f64jvm7jfj_000000gn/T//cc3cV2cq.s:661    .text.updatePlantReadings:00000000000000f0 .L0 
GAS LISTING /var/folders/rt/4gvqv631095f64jvm7jfj_000000gn/T//cc3cV2cq.s 			page 43


/var/folders/rt/4gvqv631095f64jvm7jfj_000000gn/T//cc3cV2cq.s:664    .text.updatePlantReadings:00000000000000f2 .L0 
/var/folders/rt/4gvqv631095f64jvm7jfj_000000gn/T//cc3cV2cq.s:666    .text.updatePlantReadings:00000000000000f4 .L0 
/var/folders/rt/4gvqv631095f64jvm7jfj_000000gn/T//cc3cV2cq.s:669    .text.updatePlantReadings:00000000000000f6 .L0 
/var/folders/rt/4gvqv631095f64jvm7jfj_000000gn/T//cc3cV2cq.s:671    .text.updatePlantReadings:00000000000000f6 .L0 
/var/folders/rt/4gvqv631095f64jvm7jfj_000000gn/T//cc3cV2cq.s:675    .text.updatePlantReadings:00000000000000fe .L0 
/var/folders/rt/4gvqv631095f64jvm7jfj_000000gn/T//cc3cV2cq.s:679    .text.updatePlantReadings:00000000000000fe .L0 
/var/folders/rt/4gvqv631095f64jvm7jfj_000000gn/T//cc3cV2cq.s:680    .text.updatePlantReadings:00000000000000fe .L0 
/var/folders/rt/4gvqv631095f64jvm7jfj_000000gn/T//cc3cV2cq.s:691    .text.updatePlantReadings:000000000000011a .L0 
/var/folders/rt/4gvqv631095f64jvm7jfj_000000gn/T//cc3cV2cq.s:694    .text.updatePlantReadings:000000000000011c .L0 
/var/folders/rt/4gvqv631095f64jvm7jfj_000000gn/T//cc3cV2cq.s:697    .text.updatePlantReadings:0000000000000124 .L0 
/var/folders/rt/4gvqv631095f64jvm7jfj_000000gn/T//cc3cV2cq.s:698    .text.updatePlantReadings:0000000000000124 .L0 
/var/folders/rt/4gvqv631095f64jvm7jfj_000000gn/T//cc3cV2cq.s:709    .text.updatePlantReadings:0000000000000140 .L0 
/var/folders/rt/4gvqv631095f64jvm7jfj_000000gn/T//cc3cV2cq.s:710    .text.updatePlantReadings:0000000000000140 .L0 
/var/folders/rt/4gvqv631095f64jvm7jfj_000000gn/T//cc3cV2cq.s:721    .text.updatePlantReadings:000000000000015c .L0 
/var/folders/rt/4gvqv631095f64jvm7jfj_000000gn/T//cc3cV2cq.s:726    .text.updatePlantReadings:0000000000000164 .L0 
/var/folders/rt/4gvqv631095f64jvm7jfj_000000gn/T//cc3cV2cq.s:729    .text.updatePlantReadings:0000000000000166 .L0 
/var/folders/rt/4gvqv631095f64jvm7jfj_000000gn/T//cc3cV2cq.s:732    .text.updatePlantReadings:0000000000000168 .L0 
/var/folders/rt/4gvqv631095f64jvm7jfj_000000gn/T//cc3cV2cq.s:736    .text.updatePlantReadings:000000000000016c .L0 
/var/folders/rt/4gvqv631095f64jvm7jfj_000000gn/T//cc3cV2cq.s:737    .text.updatePlantReadings:000000000000016c .L0 
/var/folders/rt/4gvqv631095f64jvm7jfj_000000gn/T//cc3cV2cq.s:743    .text.updatePlantReadings:000000000000017c .L0 
/var/folders/rt/4gvqv631095f64jvm7jfj_000000gn/T//cc3cV2cq.s:746    .text.updatePlantReadings:000000000000017e .L0 
/var/folders/rt/4gvqv631095f64jvm7jfj_000000gn/T//cc3cV2cq.s:755    .text.updatePlantReadings:0000000000000192 .L0 
/var/folders/rt/4gvqv631095f64jvm7jfj_000000gn/T//cc3cV2cq.s:758    .text.updatePlantReadings:0000000000000194 .L0 
/var/folders/rt/4gvqv631095f64jvm7jfj_000000gn/T//cc3cV2cq.s:761    .text.updatePlantReadings:0000000000000198 .L0 
/var/folders/rt/4gvqv631095f64jvm7jfj_000000gn/T//cc3cV2cq.s:762    .text.updatePlantReadings:0000000000000198 .L0 
/var/folders/rt/4gvqv631095f64jvm7jfj_000000gn/T//cc3cV2cq.s:765    .text.updatePlantReadings:000000000000019c .L0 
/var/folders/rt/4gvqv631095f64jvm7jfj_000000gn/T//cc3cV2cq.s:772    .text.updatePlantReadings:00000000000001ae .L0 
/var/folders/rt/4gvqv631095f64jvm7jfj_000000gn/T//cc3cV2cq.s:774    .text.updatePlantReadings:00000000000001ae .L0 
/var/folders/rt/4gvqv631095f64jvm7jfj_000000gn/T//cc3cV2cq.s:775    .text.updatePlantReadings:00000000000001ae .L0 
/var/folders/rt/4gvqv631095f64jvm7jfj_000000gn/T//cc3cV2cq.s:776    .text.updatePlantReadings:00000000000001ae .L0 
/var/folders/rt/4gvqv631095f64jvm7jfj_000000gn/T//cc3cV2cq.s:780    .text.updatePlantReadings:00000000000001b0 .L0 
/var/folders/rt/4gvqv631095f64jvm7jfj_000000gn/T//cc3cV2cq.s:783    .text.updatePlantReadings:00000000000001b6 .L0 
/var/folders/rt/4gvqv631095f64jvm7jfj_000000gn/T//cc3cV2cq.s:796    .text.updatePlantReadings:00000000000001d4 .L0 
/var/folders/rt/4gvqv631095f64jvm7jfj_000000gn/T//cc3cV2cq.s:805    .text.updatePlantReadings:00000000000001ee .L0 
/var/folders/rt/4gvqv631095f64jvm7jfj_000000gn/T//cc3cV2cq.s:808    .text.updatePlantReadings:00000000000001f0 .L0 
/var/folders/rt/4gvqv631095f64jvm7jfj_000000gn/T//cc3cV2cq.s:809    .text.updatePlantReadings:00000000000001f0 .L0 
/var/folders/rt/4gvqv631095f64jvm7jfj_000000gn/T//cc3cV2cq.s:817    .text.updatePlantReadings:0000000000000206 .L0 
/var/folders/rt/4gvqv631095f64jvm7jfj_000000gn/T//cc3cV2cq.s:819    .text.updatePlantReadings:000000000000020a .L0 
/var/folders/rt/4gvqv631095f64jvm7jfj_000000gn/T//cc3cV2cq.s:821    .text.updatePlantReadings:000000000000020e .L0 
/var/folders/rt/4gvqv631095f64jvm7jfj_000000gn/T//cc3cV2cq.s:822    .text.updatePlantReadings:000000000000020e .L0 
/var/folders/rt/4gvqv631095f64jvm7jfj_000000gn/T//cc3cV2cq.s:832    .text.updatePlantReadings:0000000000000226 .L0 
/var/folders/rt/4gvqv631095f64jvm7jfj_000000gn/T//cc3cV2cq.s:835    .text.updatePlantReadings:000000000000022c .L0 
/var/folders/rt/4gvqv631095f64jvm7jfj_000000gn/T//cc3cV2cq.s:836    .text.updatePlantReadings:000000000000022c .L0 
/var/folders/rt/4gvqv631095f64jvm7jfj_000000gn/T//cc3cV2cq.s:850    .text.updatePlantReadings:000000000000024a .L0 
/var/folders/rt/4gvqv631095f64jvm7jfj_000000gn/T//cc3cV2cq.s:851    .text.updatePlantReadings:000000000000024a .L0 
/var/folders/rt/4gvqv631095f64jvm7jfj_000000gn/T//cc3cV2cq.s:854    .text.updatePlantReadings:000000000000024e .L0 
/var/folders/rt/4gvqv631095f64jvm7jfj_000000gn/T//cc3cV2cq.s:855    .text.updatePlantReadings:000000000000024e .L0 
/var/folders/rt/4gvqv631095f64jvm7jfj_000000gn/T//cc3cV2cq.s:859    .text.updatePlantReadings:0000000000000258 .L0 
/var/folders/rt/4gvqv631095f64jvm7jfj_000000gn/T//cc3cV2cq.s:860    .text.updatePlantReadings:0000000000000258 .L0 
/var/folders/rt/4gvqv631095f64jvm7jfj_000000gn/T//cc3cV2cq.s:861    .text.updatePlantReadings:0000000000000258 .L0 
/var/folders/rt/4gvqv631095f64jvm7jfj_000000gn/T//cc3cV2cq.s:872    .text.updatePlantReadings:0000000000000274 .L0 
/var/folders/rt/4gvqv631095f64jvm7jfj_000000gn/T//cc3cV2cq.s:876    .text.updatePlantReadings:000000000000027a .L0 
/var/folders/rt/4gvqv631095f64jvm7jfj_000000gn/T//cc3cV2cq.s:877    .text.updatePlantReadings:000000000000027a .L0 
/var/folders/rt/4gvqv631095f64jvm7jfj_000000gn/T//cc3cV2cq.s:892    .text.updatePlantReadings:00000000000002a0 .L0 
/var/folders/rt/4gvqv631095f64jvm7jfj_000000gn/T//cc3cV2cq.s:893    .text.updatePlantReadings:00000000000002a0 .L0 
/var/folders/rt/4gvqv631095f64jvm7jfj_000000gn/T//cc3cV2cq.s:896    .text.updatePlantReadings:00000000000002a8 .L0 
/var/folders/rt/4gvqv631095f64jvm7jfj_000000gn/T//cc3cV2cq.s:897    .text.updatePlantReadings:00000000000002a8 .L0 
GAS LISTING /var/folders/rt/4gvqv631095f64jvm7jfj_000000gn/T//cc3cV2cq.s 			page 44


/var/folders/rt/4gvqv631095f64jvm7jfj_000000gn/T//cc3cV2cq.s:900    .text.updatePlantReadings:00000000000002b0 .L0 
/var/folders/rt/4gvqv631095f64jvm7jfj_000000gn/T//cc3cV2cq.s:902    .text.updatePlantReadings:00000000000002b4 .L0 
/var/folders/rt/4gvqv631095f64jvm7jfj_000000gn/T//cc3cV2cq.s:911    .text.updatePlantReadings:00000000000002c8 .L0 
/var/folders/rt/4gvqv631095f64jvm7jfj_000000gn/T//cc3cV2cq.s:923    .text.updatePlantReadings:00000000000002e6 .L0 
/var/folders/rt/4gvqv631095f64jvm7jfj_000000gn/T//cc3cV2cq.s:924    .text.updatePlantReadings:00000000000002e6 .L0 
/var/folders/rt/4gvqv631095f64jvm7jfj_000000gn/T//cc3cV2cq.s:929    .text.updatePlantReadings:00000000000002ec .L0 
/var/folders/rt/4gvqv631095f64jvm7jfj_000000gn/T//cc3cV2cq.s:932    .text.updatePlantReadings:00000000000002ee .L0 
/var/folders/rt/4gvqv631095f64jvm7jfj_000000gn/T//cc3cV2cq.s:935    .text.updatePlantReadings:00000000000002f0 .L0 
/var/folders/rt/4gvqv631095f64jvm7jfj_000000gn/T//cc3cV2cq.s:939    .text.updatePlantReadings:00000000000002f2 .L0 
/var/folders/rt/4gvqv631095f64jvm7jfj_000000gn/T//cc3cV2cq.s:940    .text.updatePlantReadings:00000000000002f2 .L0 
/var/folders/rt/4gvqv631095f64jvm7jfj_000000gn/T//cc3cV2cq.s:946    .text.updatePlantReadings:0000000000000302 .L0 
/var/folders/rt/4gvqv631095f64jvm7jfj_000000gn/T//cc3cV2cq.s:949    .text.updatePlantReadings:0000000000000304 .L0 
/var/folders/rt/4gvqv631095f64jvm7jfj_000000gn/T//cc3cV2cq.s:958    .text.updatePlantReadings:0000000000000318 .L0 
/var/folders/rt/4gvqv631095f64jvm7jfj_000000gn/T//cc3cV2cq.s:961    .text.updatePlantReadings:000000000000031a .L0 
/var/folders/rt/4gvqv631095f64jvm7jfj_000000gn/T//cc3cV2cq.s:964    .text.updatePlantReadings:000000000000031e .L0 
/var/folders/rt/4gvqv631095f64jvm7jfj_000000gn/T//cc3cV2cq.s:965    .text.updatePlantReadings:000000000000031e .L0 
/var/folders/rt/4gvqv631095f64jvm7jfj_000000gn/T//cc3cV2cq.s:968    .text.updatePlantReadings:0000000000000322 .L0 
/var/folders/rt/4gvqv631095f64jvm7jfj_000000gn/T//cc3cV2cq.s:975    .text.updatePlantReadings:0000000000000334 .L0 
/var/folders/rt/4gvqv631095f64jvm7jfj_000000gn/T//cc3cV2cq.s:977    .text.updatePlantReadings:0000000000000334 .L0 
/var/folders/rt/4gvqv631095f64jvm7jfj_000000gn/T//cc3cV2cq.s:978    .text.updatePlantReadings:0000000000000334 .L0 
/var/folders/rt/4gvqv631095f64jvm7jfj_000000gn/T//cc3cV2cq.s:979    .text.updatePlantReadings:0000000000000334 .L0 
/var/folders/rt/4gvqv631095f64jvm7jfj_000000gn/T//cc3cV2cq.s:983    .text.updatePlantReadings:0000000000000336 .L0 
/var/folders/rt/4gvqv631095f64jvm7jfj_000000gn/T//cc3cV2cq.s:986    .text.updatePlantReadings:000000000000033c .L0 
/var/folders/rt/4gvqv631095f64jvm7jfj_000000gn/T//cc3cV2cq.s:999    .text.updatePlantReadings:000000000000035a .L0 
/var/folders/rt/4gvqv631095f64jvm7jfj_000000gn/T//cc3cV2cq.s:1008   .text.updatePlantReadings:0000000000000374 .L0 
/var/folders/rt/4gvqv631095f64jvm7jfj_000000gn/T//cc3cV2cq.s:1011   .text.updatePlantReadings:0000000000000376 .L0 
/var/folders/rt/4gvqv631095f64jvm7jfj_000000gn/T//cc3cV2cq.s:1012   .text.updatePlantReadings:0000000000000376 .L0 
/var/folders/rt/4gvqv631095f64jvm7jfj_000000gn/T//cc3cV2cq.s:1020   .text.updatePlantReadings:000000000000038c .L0 
/var/folders/rt/4gvqv631095f64jvm7jfj_000000gn/T//cc3cV2cq.s:1022   .text.updatePlantReadings:0000000000000390 .L0 
/var/folders/rt/4gvqv631095f64jvm7jfj_000000gn/T//cc3cV2cq.s:1024   .text.updatePlantReadings:0000000000000394 .L0 
/var/folders/rt/4gvqv631095f64jvm7jfj_000000gn/T//cc3cV2cq.s:1025   .text.updatePlantReadings:0000000000000394 .L0 
/var/folders/rt/4gvqv631095f64jvm7jfj_000000gn/T//cc3cV2cq.s:1035   .text.updatePlantReadings:00000000000003ac .L0 
/var/folders/rt/4gvqv631095f64jvm7jfj_000000gn/T//cc3cV2cq.s:1038   .text.updatePlantReadings:00000000000003b2 .L0 
/var/folders/rt/4gvqv631095f64jvm7jfj_000000gn/T//cc3cV2cq.s:1039   .text.updatePlantReadings:00000000000003b2 .L0 
/var/folders/rt/4gvqv631095f64jvm7jfj_000000gn/T//cc3cV2cq.s:1053   .text.updatePlantReadings:00000000000003d0 .L0 
/var/folders/rt/4gvqv631095f64jvm7jfj_000000gn/T//cc3cV2cq.s:1054   .text.updatePlantReadings:00000000000003d0 .L0 
/var/folders/rt/4gvqv631095f64jvm7jfj_000000gn/T//cc3cV2cq.s:1058   .text.updatePlantReadings:00000000000003d6 .L0 
/var/folders/rt/4gvqv631095f64jvm7jfj_000000gn/T//cc3cV2cq.s:1059   .text.updatePlantReadings:00000000000003d6 .L0 
/var/folders/rt/4gvqv631095f64jvm7jfj_000000gn/T//cc3cV2cq.s:1062   .text.updatePlantReadings:00000000000003de .L0 
/var/folders/rt/4gvqv631095f64jvm7jfj_000000gn/T//cc3cV2cq.s:1063   .text.updatePlantReadings:00000000000003de .L0 
/var/folders/rt/4gvqv631095f64jvm7jfj_000000gn/T//cc3cV2cq.s:1064   .text.updatePlantReadings:00000000000003de .L0 
/var/folders/rt/4gvqv631095f64jvm7jfj_000000gn/T//cc3cV2cq.s:1075   .text.updatePlantReadings:00000000000003fa .L0 
/var/folders/rt/4gvqv631095f64jvm7jfj_000000gn/T//cc3cV2cq.s:1080   .text.updatePlantReadings:0000000000000400 .L0 
/var/folders/rt/4gvqv631095f64jvm7jfj_000000gn/T//cc3cV2cq.s:1081   .text.updatePlantReadings:0000000000000400 .L0 
/var/folders/rt/4gvqv631095f64jvm7jfj_000000gn/T//cc3cV2cq.s:1085   .text.updatePlantReadings:0000000000000408 .L0 
/var/folders/rt/4gvqv631095f64jvm7jfj_000000gn/T//cc3cV2cq.s:1099   .text.updatePlantReadings:0000000000000430 .L0 
/var/folders/rt/4gvqv631095f64jvm7jfj_000000gn/T//cc3cV2cq.s:1100   .text.updatePlantReadings:0000000000000430 .L0 
/var/folders/rt/4gvqv631095f64jvm7jfj_000000gn/T//cc3cV2cq.s:1103   .text.updatePlantReadings:0000000000000438 .L0 
/var/folders/rt/4gvqv631095f64jvm7jfj_000000gn/T//cc3cV2cq.s:1104   .text.updatePlantReadings:0000000000000438 .L0 
/var/folders/rt/4gvqv631095f64jvm7jfj_000000gn/T//cc3cV2cq.s:1107   .text.updatePlantReadings:0000000000000440 .L0 
/var/folders/rt/4gvqv631095f64jvm7jfj_000000gn/T//cc3cV2cq.s:1109   .text.updatePlantReadings:0000000000000444 .L0 
/var/folders/rt/4gvqv631095f64jvm7jfj_000000gn/T//cc3cV2cq.s:1118   .text.updatePlantReadings:0000000000000458 .L0 
/var/folders/rt/4gvqv631095f64jvm7jfj_000000gn/T//cc3cV2cq.s:1130   .text.updatePlantReadings:0000000000000476 .L0 
/var/folders/rt/4gvqv631095f64jvm7jfj_000000gn/T//cc3cV2cq.s:1131   .text.updatePlantReadings:0000000000000476 .L0 
/var/folders/rt/4gvqv631095f64jvm7jfj_000000gn/T//cc3cV2cq.s:1136   .text.updatePlantReadings:000000000000047c .L0 
/var/folders/rt/4gvqv631095f64jvm7jfj_000000gn/T//cc3cV2cq.s:1139   .text.updatePlantReadings:000000000000047e .L0 
/var/folders/rt/4gvqv631095f64jvm7jfj_000000gn/T//cc3cV2cq.s:1142   .text.updatePlantReadings:0000000000000480 .L0 
GAS LISTING /var/folders/rt/4gvqv631095f64jvm7jfj_000000gn/T//cc3cV2cq.s 			page 45


/var/folders/rt/4gvqv631095f64jvm7jfj_000000gn/T//cc3cV2cq.s:1146   .text.updatePlantReadings:0000000000000482 .L0 
/var/folders/rt/4gvqv631095f64jvm7jfj_000000gn/T//cc3cV2cq.s:1147   .text.updatePlantReadings:0000000000000482 .L0 
/var/folders/rt/4gvqv631095f64jvm7jfj_000000gn/T//cc3cV2cq.s:1153   .text.updatePlantReadings:0000000000000492 .L0 
/var/folders/rt/4gvqv631095f64jvm7jfj_000000gn/T//cc3cV2cq.s:1156   .text.updatePlantReadings:0000000000000494 .L0 
/var/folders/rt/4gvqv631095f64jvm7jfj_000000gn/T//cc3cV2cq.s:1165   .text.updatePlantReadings:00000000000004a8 .L0 
/var/folders/rt/4gvqv631095f64jvm7jfj_000000gn/T//cc3cV2cq.s:1168   .text.updatePlantReadings:00000000000004aa .L0 
/var/folders/rt/4gvqv631095f64jvm7jfj_000000gn/T//cc3cV2cq.s:1171   .text.updatePlantReadings:00000000000004ae .L0 
/var/folders/rt/4gvqv631095f64jvm7jfj_000000gn/T//cc3cV2cq.s:1172   .text.updatePlantReadings:00000000000004ae .L0 
/var/folders/rt/4gvqv631095f64jvm7jfj_000000gn/T//cc3cV2cq.s:1175   .text.updatePlantReadings:00000000000004b2 .L0 
/var/folders/rt/4gvqv631095f64jvm7jfj_000000gn/T//cc3cV2cq.s:1182   .text.updatePlantReadings:00000000000004c4 .L0 
/var/folders/rt/4gvqv631095f64jvm7jfj_000000gn/T//cc3cV2cq.s:1184   .text.updatePlantReadings:00000000000004c4 .L0 
/var/folders/rt/4gvqv631095f64jvm7jfj_000000gn/T//cc3cV2cq.s:1185   .text.updatePlantReadings:00000000000004c4 .L0 
/var/folders/rt/4gvqv631095f64jvm7jfj_000000gn/T//cc3cV2cq.s:1186   .text.updatePlantReadings:00000000000004c4 .L0 
/var/folders/rt/4gvqv631095f64jvm7jfj_000000gn/T//cc3cV2cq.s:1190   .text.updatePlantReadings:00000000000004c6 .L0 
/var/folders/rt/4gvqv631095f64jvm7jfj_000000gn/T//cc3cV2cq.s:1193   .text.updatePlantReadings:00000000000004cc .L0 
/var/folders/rt/4gvqv631095f64jvm7jfj_000000gn/T//cc3cV2cq.s:1206   .text.updatePlantReadings:00000000000004ea .L0 
/var/folders/rt/4gvqv631095f64jvm7jfj_000000gn/T//cc3cV2cq.s:1215   .text.updatePlantReadings:0000000000000504 .L0 
/var/folders/rt/4gvqv631095f64jvm7jfj_000000gn/T//cc3cV2cq.s:1218   .text.updatePlantReadings:0000000000000506 .L0 
/var/folders/rt/4gvqv631095f64jvm7jfj_000000gn/T//cc3cV2cq.s:1219   .text.updatePlantReadings:0000000000000506 .L0 
/var/folders/rt/4gvqv631095f64jvm7jfj_000000gn/T//cc3cV2cq.s:1227   .text.updatePlantReadings:000000000000051c .L0 
/var/folders/rt/4gvqv631095f64jvm7jfj_000000gn/T//cc3cV2cq.s:1229   .text.updatePlantReadings:0000000000000520 .L0 
/var/folders/rt/4gvqv631095f64jvm7jfj_000000gn/T//cc3cV2cq.s:1231   .text.updatePlantReadings:0000000000000524 .L0 
/var/folders/rt/4gvqv631095f64jvm7jfj_000000gn/T//cc3cV2cq.s:1232   .text.updatePlantReadings:0000000000000524 .L0 
/var/folders/rt/4gvqv631095f64jvm7jfj_000000gn/T//cc3cV2cq.s:1242   .text.updatePlantReadings:000000000000053c .L0 
/var/folders/rt/4gvqv631095f64jvm7jfj_000000gn/T//cc3cV2cq.s:1245   .text.updatePlantReadings:0000000000000542 .L0 
/var/folders/rt/4gvqv631095f64jvm7jfj_000000gn/T//cc3cV2cq.s:1246   .text.updatePlantReadings:0000000000000542 .L0 
/var/folders/rt/4gvqv631095f64jvm7jfj_000000gn/T//cc3cV2cq.s:1257   .text.updatePlantReadings:0000000000000560 .L0 
/var/folders/rt/4gvqv631095f64jvm7jfj_000000gn/T//cc3cV2cq.s:1264   .text.applyGreenFingers:0000000000000000 applyGreenFingers
/var/folders/rt/4gvqv631095f64jvm7jfj_000000gn/T//cc3cV2cq.s:1267   .text.applyGreenFingers:0000000000000000 .L0 
/var/folders/rt/4gvqv631095f64jvm7jfj_000000gn/T//cc3cV2cq.s:1269   .text.applyGreenFingers:0000000000000000 .L0 
/var/folders/rt/4gvqv631095f64jvm7jfj_000000gn/T//cc3cV2cq.s:1270   .text.applyGreenFingers:0000000000000000 .L0 
/var/folders/rt/4gvqv631095f64jvm7jfj_000000gn/T//cc3cV2cq.s:1271   .text.applyGreenFingers:0000000000000000 .L0 
/var/folders/rt/4gvqv631095f64jvm7jfj_000000gn/T//cc3cV2cq.s:1272   .text.applyGreenFingers:0000000000000000 .L0 
/var/folders/rt/4gvqv631095f64jvm7jfj_000000gn/T//cc3cV2cq.s:1274   .text.applyGreenFingers:0000000000000002 .L0 
/var/folders/rt/4gvqv631095f64jvm7jfj_000000gn/T//cc3cV2cq.s:1284   .text.applyGreenFingers:0000000000000014 .L0 
/var/folders/rt/4gvqv631095f64jvm7jfj_000000gn/T//cc3cV2cq.s:1285   .text.applyGreenFingers:0000000000000014 .L0 
/var/folders/rt/4gvqv631095f64jvm7jfj_000000gn/T//cc3cV2cq.s:1286   .text.applyGreenFingers:0000000000000014 .L0 
/var/folders/rt/4gvqv631095f64jvm7jfj_000000gn/T//cc3cV2cq.s:1287   .text.applyGreenFingers:0000000000000014 .L0 
/var/folders/rt/4gvqv631095f64jvm7jfj_000000gn/T//cc3cV2cq.s:1288   .text.applyGreenFingers:0000000000000014 .L0 
/var/folders/rt/4gvqv631095f64jvm7jfj_000000gn/T//cc3cV2cq.s:1289   .text.applyGreenFingers:0000000000000014 .L0 
/var/folders/rt/4gvqv631095f64jvm7jfj_000000gn/T//cc3cV2cq.s:1290   .text.applyGreenFingers:0000000000000014 .L0 
/var/folders/rt/4gvqv631095f64jvm7jfj_000000gn/T//cc3cV2cq.s:1291   .text.applyGreenFingers:0000000000000014 .L0 
/var/folders/rt/4gvqv631095f64jvm7jfj_000000gn/T//cc3cV2cq.s:1292   .text.applyGreenFingers:0000000000000014 .L0 
/var/folders/rt/4gvqv631095f64jvm7jfj_000000gn/T//cc3cV2cq.s:1294   .text.applyGreenFingers:0000000000000014 .L0 
/var/folders/rt/4gvqv631095f64jvm7jfj_000000gn/T//cc3cV2cq.s:1297   .text.applyGreenFingers:0000000000000018 .L0 
/var/folders/rt/4gvqv631095f64jvm7jfj_000000gn/T//cc3cV2cq.s:1303   .text.applyGreenFingers:0000000000000022 .L0 
/var/folders/rt/4gvqv631095f64jvm7jfj_000000gn/T//cc3cV2cq.s:1304   .text.applyGreenFingers:0000000000000022 .L0 
/var/folders/rt/4gvqv631095f64jvm7jfj_000000gn/T//cc3cV2cq.s:1305   .text.applyGreenFingers:0000000000000022 .L0 
/var/folders/rt/4gvqv631095f64jvm7jfj_000000gn/T//cc3cV2cq.s:1308   .text.applyGreenFingers:0000000000000024 .L0 
/var/folders/rt/4gvqv631095f64jvm7jfj_000000gn/T//cc3cV2cq.s:1313   .text.applyGreenFingers:000000000000002a .L0 
/var/folders/rt/4gvqv631095f64jvm7jfj_000000gn/T//cc3cV2cq.s:1318   .text.applyGreenFingers:000000000000002e .L0 
/var/folders/rt/4gvqv631095f64jvm7jfj_000000gn/T//cc3cV2cq.s:1321   .text.applyGreenFingers:0000000000000032 .L0 
/var/folders/rt/4gvqv631095f64jvm7jfj_000000gn/T//cc3cV2cq.s:1322   .text.applyGreenFingers:0000000000000032 .L0 
/var/folders/rt/4gvqv631095f64jvm7jfj_000000gn/T//cc3cV2cq.s:1323   .text.applyGreenFingers:0000000000000034 .L0 
/var/folders/rt/4gvqv631095f64jvm7jfj_000000gn/T//cc3cV2cq.s:1324   .text.applyGreenFingers:0000000000000034 .L0 
/var/folders/rt/4gvqv631095f64jvm7jfj_000000gn/T//cc3cV2cq.s:1326   .text.applyGreenFingers:0000000000000036 .L0 
/var/folders/rt/4gvqv631095f64jvm7jfj_000000gn/T//cc3cV2cq.s:1329   .text.applyGreenFingers:000000000000003a .L0 
GAS LISTING /var/folders/rt/4gvqv631095f64jvm7jfj_000000gn/T//cc3cV2cq.s 			page 46


/var/folders/rt/4gvqv631095f64jvm7jfj_000000gn/T//cc3cV2cq.s:1332   .text.applyGreenFingers:000000000000003c .L0 
/var/folders/rt/4gvqv631095f64jvm7jfj_000000gn/T//cc3cV2cq.s:1335   .text.applyGreenFingers:000000000000003e .L0 
/var/folders/rt/4gvqv631095f64jvm7jfj_000000gn/T//cc3cV2cq.s:1338   .text.applyGreenFingers:0000000000000040 .L0 
/var/folders/rt/4gvqv631095f64jvm7jfj_000000gn/T//cc3cV2cq.s:1341   .text.applyGreenFingers:0000000000000042 .L0 
/var/folders/rt/4gvqv631095f64jvm7jfj_000000gn/T//cc3cV2cq.s:1343   .text.applyGreenFingers:0000000000000044 .L0 
/var/folders/rt/4gvqv631095f64jvm7jfj_000000gn/T//cc3cV2cq.s:1345   .text.applyGreenFingers:0000000000000046 .L0 
/var/folders/rt/4gvqv631095f64jvm7jfj_000000gn/T//cc3cV2cq.s:1349   .text.applyGreenFingers:0000000000000048 .L0 
/var/folders/rt/4gvqv631095f64jvm7jfj_000000gn/T//cc3cV2cq.s:1354   .text.applyGreenFingers:000000000000004a .L0 
/var/folders/rt/4gvqv631095f64jvm7jfj_000000gn/T//cc3cV2cq.s:1358   .text.applyGreenFingers:000000000000004a .L0 
/var/folders/rt/4gvqv631095f64jvm7jfj_000000gn/T//cc3cV2cq.s:1361   .text.applyGreenFingers:0000000000000050 .L0 
/var/folders/rt/4gvqv631095f64jvm7jfj_000000gn/T//cc3cV2cq.s:1372   .text.applyGreenFingers:000000000000006c .L0 
/var/folders/rt/4gvqv631095f64jvm7jfj_000000gn/T//cc3cV2cq.s:1385   .text.applyGreenFingers:000000000000008c .L0 
/var/folders/rt/4gvqv631095f64jvm7jfj_000000gn/T//cc3cV2cq.s:1387   .text.applyGreenFingers:0000000000000090 .L0 
/var/folders/rt/4gvqv631095f64jvm7jfj_000000gn/T//cc3cV2cq.s:1389   .text.applyGreenFingers:0000000000000092 .L0 
/var/folders/rt/4gvqv631095f64jvm7jfj_000000gn/T//cc3cV2cq.s:1392   .text.applyGreenFingers:0000000000000098 .L0 
/var/folders/rt/4gvqv631095f64jvm7jfj_000000gn/T//cc3cV2cq.s:1394   .text.applyGreenFingers:000000000000009c .L0 
/var/folders/rt/4gvqv631095f64jvm7jfj_000000gn/T//cc3cV2cq.s:1402   .text.applyGreenFingers:00000000000000ae .L0 
/var/folders/rt/4gvqv631095f64jvm7jfj_000000gn/T//cc3cV2cq.s:1404   .text.applyGreenFingers:00000000000000b2 .L0 
/var/folders/rt/4gvqv631095f64jvm7jfj_000000gn/T//cc3cV2cq.s:1407   .text.applyGreenFingers:00000000000000b4 .L0 
/var/folders/rt/4gvqv631095f64jvm7jfj_000000gn/T//cc3cV2cq.s:1413   .text.applyGreenFingers:00000000000000c2 .L0 
/var/folders/rt/4gvqv631095f64jvm7jfj_000000gn/T//cc3cV2cq.s:1414   .text.applyGreenFingers:00000000000000c2 .L0 
/var/folders/rt/4gvqv631095f64jvm7jfj_000000gn/T//cc3cV2cq.s:1418   .text.applyGreenFingers:00000000000000c4 .L0 
/var/folders/rt/4gvqv631095f64jvm7jfj_000000gn/T//cc3cV2cq.s:1419   .text.applyGreenFingers:00000000000000c4 .L0 
/var/folders/rt/4gvqv631095f64jvm7jfj_000000gn/T//cc3cV2cq.s:1430   .text.applyGreenFingers:00000000000000e0 .L0 
/var/folders/rt/4gvqv631095f64jvm7jfj_000000gn/T//cc3cV2cq.s:1443   .text.applyGreenFingers:0000000000000100 .L0 
/var/folders/rt/4gvqv631095f64jvm7jfj_000000gn/T//cc3cV2cq.s:1445   .text.applyGreenFingers:0000000000000104 .L0 
/var/folders/rt/4gvqv631095f64jvm7jfj_000000gn/T//cc3cV2cq.s:1447   .text.applyGreenFingers:0000000000000106 .L0 
/var/folders/rt/4gvqv631095f64jvm7jfj_000000gn/T//cc3cV2cq.s:1450   .text.applyGreenFingers:000000000000010c .L0 
/var/folders/rt/4gvqv631095f64jvm7jfj_000000gn/T//cc3cV2cq.s:1452   .text.applyGreenFingers:0000000000000110 .L0 
/var/folders/rt/4gvqv631095f64jvm7jfj_000000gn/T//cc3cV2cq.s:1460   .text.applyGreenFingers:0000000000000122 .L0 
/var/folders/rt/4gvqv631095f64jvm7jfj_000000gn/T//cc3cV2cq.s:1462   .text.applyGreenFingers:0000000000000126 .L0 
/var/folders/rt/4gvqv631095f64jvm7jfj_000000gn/T//cc3cV2cq.s:1465   .text.applyGreenFingers:0000000000000128 .L0 
/var/folders/rt/4gvqv631095f64jvm7jfj_000000gn/T//cc3cV2cq.s:1471   .text.applyGreenFingers:0000000000000136 .L0 
/var/folders/rt/4gvqv631095f64jvm7jfj_000000gn/T//cc3cV2cq.s:1472   .text.applyGreenFingers:0000000000000136 .L0 
/var/folders/rt/4gvqv631095f64jvm7jfj_000000gn/T//cc3cV2cq.s:1476   .text.applyGreenFingers:0000000000000138 .L0 
/var/folders/rt/4gvqv631095f64jvm7jfj_000000gn/T//cc3cV2cq.s:1477   .text.applyGreenFingers:0000000000000138 .L0 
/var/folders/rt/4gvqv631095f64jvm7jfj_000000gn/T//cc3cV2cq.s:1488   .text.applyGreenFingers:0000000000000154 .L0 
/var/folders/rt/4gvqv631095f64jvm7jfj_000000gn/T//cc3cV2cq.s:1501   .text.applyGreenFingers:0000000000000176 .L0 
/var/folders/rt/4gvqv631095f64jvm7jfj_000000gn/T//cc3cV2cq.s:1503   .text.applyGreenFingers:000000000000017a .L0 
/var/folders/rt/4gvqv631095f64jvm7jfj_000000gn/T//cc3cV2cq.s:1505   .text.applyGreenFingers:000000000000017c .L0 
/var/folders/rt/4gvqv631095f64jvm7jfj_000000gn/T//cc3cV2cq.s:1508   .text.applyGreenFingers:0000000000000182 .L0 
/var/folders/rt/4gvqv631095f64jvm7jfj_000000gn/T//cc3cV2cq.s:1510   .text.applyGreenFingers:0000000000000186 .L0 
/var/folders/rt/4gvqv631095f64jvm7jfj_000000gn/T//cc3cV2cq.s:1518   .text.applyGreenFingers:0000000000000198 .L0 
/var/folders/rt/4gvqv631095f64jvm7jfj_000000gn/T//cc3cV2cq.s:1520   .text.applyGreenFingers:000000000000019c .L0 
/var/folders/rt/4gvqv631095f64jvm7jfj_000000gn/T//cc3cV2cq.s:1523   .text.applyGreenFingers:000000000000019e .L0 
/var/folders/rt/4gvqv631095f64jvm7jfj_000000gn/T//cc3cV2cq.s:1529   .text.applyGreenFingers:00000000000001ac .L0 
/var/folders/rt/4gvqv631095f64jvm7jfj_000000gn/T//cc3cV2cq.s:1530   .text.applyGreenFingers:00000000000001ac .L0 
/var/folders/rt/4gvqv631095f64jvm7jfj_000000gn/T//cc3cV2cq.s:1534   .text.applyGreenFingers:00000000000001ae .L0 
/var/folders/rt/4gvqv631095f64jvm7jfj_000000gn/T//cc3cV2cq.s:1535   .text.applyGreenFingers:00000000000001ae .L0 
/var/folders/rt/4gvqv631095f64jvm7jfj_000000gn/T//cc3cV2cq.s:1539   .text.applyGreenFingers:00000000000001b8 .L0 
/var/folders/rt/4gvqv631095f64jvm7jfj_000000gn/T//cc3cV2cq.s:1540   .text.applyGreenFingers:00000000000001b8 .L0 
/var/folders/rt/4gvqv631095f64jvm7jfj_000000gn/T//cc3cV2cq.s:1542   .text.applyGreenFingers:00000000000001bc .L0 
/var/folders/rt/4gvqv631095f64jvm7jfj_000000gn/T//cc3cV2cq.s:1549   .text.applyGreenFingers:00000000000001c8 .L0 
/var/folders/rt/4gvqv631095f64jvm7jfj_000000gn/T//cc3cV2cq.s:1553   .text.applyGreenFingers:00000000000001cc .L0 
/var/folders/rt/4gvqv631095f64jvm7jfj_000000gn/T//cc3cV2cq.s:69     .text.initSensorReading:000000000000005c .L0 
/var/folders/rt/4gvqv631095f64jvm7jfj_000000gn/T//cc3cV2cq.s:348    .text.initPlant:00000000000001e0 .L0 
/var/folders/rt/4gvqv631095f64jvm7jfj_000000gn/T//cc3cV2cq.s:529    .text.updatePlantStatus:0000000000000156 .L0 
GAS LISTING /var/folders/rt/4gvqv631095f64jvm7jfj_000000gn/T//cc3cV2cq.s 			page 47


/var/folders/rt/4gvqv631095f64jvm7jfj_000000gn/T//cc3cV2cq.s:1260   .text.updatePlantReadings:0000000000000560 .L0 
/var/folders/rt/4gvqv631095f64jvm7jfj_000000gn/T//cc3cV2cq.s:1556   .text.applyGreenFingers:00000000000001cc .L0 
                     .debug_frame:0000000000000000 .L0 
/var/folders/rt/4gvqv631095f64jvm7jfj_000000gn/T//cc3cV2cq.s:1558   .rodata.initPlant.str1.4:0000000000000000 .LC0
/var/folders/rt/4gvqv631095f64jvm7jfj_000000gn/T//cc3cV2cq.s:1561   .rodata.initPlant.str1.4:0000000000000004 .LC1
/var/folders/rt/4gvqv631095f64jvm7jfj_000000gn/T//cc3cV2cq.s:314    .text.initPlant:00000000000001aa .L3
/var/folders/rt/4gvqv631095f64jvm7jfj_000000gn/T//cc3cV2cq.s:1565   .rodata.updatePlantStatus.str1.4:0000000000000000 .LC2
/var/folders/rt/4gvqv631095f64jvm7jfj_000000gn/T//cc3cV2cq.s:1567   .rodata.updatePlantStatus.str1.4:0000000000000010 .LC3
/var/folders/rt/4gvqv631095f64jvm7jfj_000000gn/T//cc3cV2cq.s:484    .text.updatePlantStatus:0000000000000106 .L8
/var/folders/rt/4gvqv631095f64jvm7jfj_000000gn/T//cc3cV2cq.s:514    .text.updatePlantStatus:000000000000014e .L7
/var/folders/rt/4gvqv631095f64jvm7jfj_000000gn/T//cc3cV2cq.s:425    .text.updatePlantStatus:0000000000000096 .L9
/var/folders/rt/4gvqv631095f64jvm7jfj_000000gn/T//cc3cV2cq.s:846    .text.updatePlantReadings:000000000000024a .L13
/var/folders/rt/4gvqv631095f64jvm7jfj_000000gn/T//cc3cV2cq.s:653    .text.updatePlantReadings:00000000000000ec .L21
/var/folders/rt/4gvqv631095f64jvm7jfj_000000gn/T//cc3cV2cq.s:586    .text.updatePlantReadings:0000000000000048 .L15
/var/folders/rt/4gvqv631095f64jvm7jfj_000000gn/T//cc3cV2cq.s:673    .text.updatePlantReadings:00000000000000fe .L16
/var/folders/rt/4gvqv631095f64jvm7jfj_000000gn/T//cc3cV2cq.s:706    .text.updatePlantReadings:0000000000000140 .L18
/var/folders/rt/4gvqv631095f64jvm7jfj_000000gn/T//cc3cV2cq.s:733    .text.updatePlantReadings:000000000000016c .L19
/var/folders/rt/4gvqv631095f64jvm7jfj_000000gn/T//cc3cV2cq.s:778    .text.updatePlantReadings:00000000000001b0 .L20
/var/folders/rt/4gvqv631095f64jvm7jfj_000000gn/T//cc3cV2cq.s:1049   .text.updatePlantReadings:00000000000003d0 .L22
/var/folders/rt/4gvqv631095f64jvm7jfj_000000gn/T//cc3cV2cq.s:883    .text.updatePlantReadings:0000000000000286 .L23
/var/folders/rt/4gvqv631095f64jvm7jfj_000000gn/T//cc3cV2cq.s:936    .text.updatePlantReadings:00000000000002f2 .L24
/var/folders/rt/4gvqv631095f64jvm7jfj_000000gn/T//cc3cV2cq.s:981    .text.updatePlantReadings:0000000000000336 .L25
/var/folders/rt/4gvqv631095f64jvm7jfj_000000gn/T//cc3cV2cq.s:1090   .text.updatePlantReadings:0000000000000416 .L26
/var/folders/rt/4gvqv631095f64jvm7jfj_000000gn/T//cc3cV2cq.s:1143   .text.updatePlantReadings:0000000000000482 .L27
/var/folders/rt/4gvqv631095f64jvm7jfj_000000gn/T//cc3cV2cq.s:1188   .text.updatePlantReadings:00000000000004c6 .L28
/var/folders/rt/4gvqv631095f64jvm7jfj_000000gn/T//cc3cV2cq.s:1352   .text.applyGreenFingers:000000000000004a .L45
/var/folders/rt/4gvqv631095f64jvm7jfj_000000gn/T//cc3cV2cq.s:1405   .text.applyGreenFingers:00000000000000b4 .L38
/var/folders/rt/4gvqv631095f64jvm7jfj_000000gn/T//cc3cV2cq.s:1416   .text.applyGreenFingers:00000000000000c4 .L39
/var/folders/rt/4gvqv631095f64jvm7jfj_000000gn/T//cc3cV2cq.s:1463   .text.applyGreenFingers:0000000000000128 .L40
/var/folders/rt/4gvqv631095f64jvm7jfj_000000gn/T//cc3cV2cq.s:1474   .text.applyGreenFingers:0000000000000138 .L41
/var/folders/rt/4gvqv631095f64jvm7jfj_000000gn/T//cc3cV2cq.s:1521   .text.applyGreenFingers:000000000000019e .L42
/var/folders/rt/4gvqv631095f64jvm7jfj_000000gn/T//cc3cV2cq.s:1532   .text.applyGreenFingers:00000000000001ae .L43
/var/folders/rt/4gvqv631095f64jvm7jfj_000000gn/T//cc3cV2cq.s:1546   .text.applyGreenFingers:00000000000001c8 .L44
/var/folders/rt/4gvqv631095f64jvm7jfj_000000gn/T//cc3cV2cq.s:1315   .text.applyGreenFingers:000000000000002e .L37
/var/folders/rt/4gvqv631095f64jvm7jfj_000000gn/T//cc3cV2cq.s:4181   .debug_abbrev:0000000000000000 .Ldebug_abbrev0
/var/folders/rt/4gvqv631095f64jvm7jfj_000000gn/T//cc3cV2cq.s:6277   .debug_str:0000000000000654 .LASF189
/var/folders/rt/4gvqv631095f64jvm7jfj_000000gn/T//cc3cV2cq.s:6013   .debug_str:0000000000000137 .LASF190
/var/folders/rt/4gvqv631095f64jvm7jfj_000000gn/T//cc3cV2cq.s:6281   .debug_str:00000000000006e5 .LASF191
/var/folders/rt/4gvqv631095f64jvm7jfj_000000gn/T//cc3cV2cq.s:5893   .debug_ranges:0000000000000000 .Ldebug_ranges0
/var/folders/rt/4gvqv631095f64jvm7jfj_000000gn/T//cc3cV2cq.s:5957   .debug_line:0000000000000000 .Ldebug_line0
/var/folders/rt/4gvqv631095f64jvm7jfj_000000gn/T//cc3cV2cq.s:6181   .debug_str:0000000000000490 .LASF0
/var/folders/rt/4gvqv631095f64jvm7jfj_000000gn/T//cc3cV2cq.s:6009   .debug_str:000000000000011f .LASF1
/var/folders/rt/4gvqv631095f64jvm7jfj_000000gn/T//cc3cV2cq.s:6195   .debug_str:00000000000004d5 .LASF2
/var/folders/rt/4gvqv631095f64jvm7jfj_000000gn/T//cc3cV2cq.s:5963   .debug_str:0000000000000014 .LASF3
/var/folders/rt/4gvqv631095f64jvm7jfj_000000gn/T//cc3cV2cq.s:6283   .debug_str:0000000000000728 .LASF4
/var/folders/rt/4gvqv631095f64jvm7jfj_000000gn/T//cc3cV2cq.s:6271   .debug_str:000000000000063d .LASF6
/var/folders/rt/4gvqv631095f64jvm7jfj_000000gn/T//cc3cV2cq.s:6031   .debug_str:0000000000000181 .LASF5
/var/folders/rt/4gvqv631095f64jvm7jfj_000000gn/T//cc3cV2cq.s:6069   .debug_str:000000000000025b .LASF7
/var/folders/rt/4gvqv631095f64jvm7jfj_000000gn/T//cc3cV2cq.s:6097   .debug_str:00000000000002de .LASF8
/var/folders/rt/4gvqv631095f64jvm7jfj_000000gn/T//cc3cV2cq.s:6047   .debug_str:00000000000001de .LASF9
/var/folders/rt/4gvqv631095f64jvm7jfj_000000gn/T//cc3cV2cq.s:5989   .debug_str:00000000000000a0 .LASF10
/var/folders/rt/4gvqv631095f64jvm7jfj_000000gn/T//cc3cV2cq.s:6269   .debug_str:0000000000000630 .LASF11
/var/folders/rt/4gvqv631095f64jvm7jfj_000000gn/T//cc3cV2cq.s:6193   .debug_str:00000000000004cd .LASF12
/var/folders/rt/4gvqv631095f64jvm7jfj_000000gn/T//cc3cV2cq.s:6305   .debug_str:00000000000007b3 .LASF13
/var/folders/rt/4gvqv631095f64jvm7jfj_000000gn/T//cc3cV2cq.s:6231   .debug_str:000000000000057a .LASF14
/var/folders/rt/4gvqv631095f64jvm7jfj_000000gn/T//cc3cV2cq.s:5991   .debug_str:00000000000000b7 .LASF15
/var/folders/rt/4gvqv631095f64jvm7jfj_000000gn/T//cc3cV2cq.s:6223   .debug_str:0000000000000555 .LASF16
GAS LISTING /var/folders/rt/4gvqv631095f64jvm7jfj_000000gn/T//cc3cV2cq.s 			page 48


/var/folders/rt/4gvqv631095f64jvm7jfj_000000gn/T//cc3cV2cq.s:6103   .debug_str:000000000000030b .LASF17
/var/folders/rt/4gvqv631095f64jvm7jfj_000000gn/T//cc3cV2cq.s:6053   .debug_str:00000000000001fd .LASF18
/var/folders/rt/4gvqv631095f64jvm7jfj_000000gn/T//cc3cV2cq.s:6015   .debug_str:000000000000013f .LASF19
/var/folders/rt/4gvqv631095f64jvm7jfj_000000gn/T//cc3cV2cq.s:6083   .debug_str:0000000000000299 .LASF20
/var/folders/rt/4gvqv631095f64jvm7jfj_000000gn/T//cc3cV2cq.s:6159   .debug_str:0000000000000405 .LASF21
/var/folders/rt/4gvqv631095f64jvm7jfj_000000gn/T//cc3cV2cq.s:6033   .debug_str:000000000000018a .LASF22
/var/folders/rt/4gvqv631095f64jvm7jfj_000000gn/T//cc3cV2cq.s:6101   .debug_str:00000000000002f6 .LASF23
/var/folders/rt/4gvqv631095f64jvm7jfj_000000gn/T//cc3cV2cq.s:6163   .debug_str:0000000000000430 .LASF24
/var/folders/rt/4gvqv631095f64jvm7jfj_000000gn/T//cc3cV2cq.s:5977   .debug_str:000000000000005c .LASF25
/var/folders/rt/4gvqv631095f64jvm7jfj_000000gn/T//cc3cV2cq.s:6011   .debug_str:000000000000012b .LASF26
/var/folders/rt/4gvqv631095f64jvm7jfj_000000gn/T//cc3cV2cq.s:6137   .debug_str:0000000000000398 .LASF27
/var/folders/rt/4gvqv631095f64jvm7jfj_000000gn/T//cc3cV2cq.s:5999   .debug_str:00000000000000e7 .LASF28
/var/folders/rt/4gvqv631095f64jvm7jfj_000000gn/T//cc3cV2cq.s:6239   .debug_str:00000000000005af .LASF29
/var/folders/rt/4gvqv631095f64jvm7jfj_000000gn/T//cc3cV2cq.s:6347   .debug_str:000000000000088f .LASF30
/var/folders/rt/4gvqv631095f64jvm7jfj_000000gn/T//cc3cV2cq.s:6149   .debug_str:00000000000003dc .LASF31
/var/folders/rt/4gvqv631095f64jvm7jfj_000000gn/T//cc3cV2cq.s:5995   .debug_str:00000000000000ca .LASF32
/var/folders/rt/4gvqv631095f64jvm7jfj_000000gn/T//cc3cV2cq.s:6321   .debug_str:00000000000007fd .LASF33
/var/folders/rt/4gvqv631095f64jvm7jfj_000000gn/T//cc3cV2cq.s:6201   .debug_str:00000000000004f1 .LASF34
/var/folders/rt/4gvqv631095f64jvm7jfj_000000gn/T//cc3cV2cq.s:6309   .debug_str:00000000000007c9 .LASF35
/var/folders/rt/4gvqv631095f64jvm7jfj_000000gn/T//cc3cV2cq.s:6153   .debug_str:00000000000003f0 .LASF36
/var/folders/rt/4gvqv631095f64jvm7jfj_000000gn/T//cc3cV2cq.s:6275   .debug_str:000000000000064d .LASF37
/var/folders/rt/4gvqv631095f64jvm7jfj_000000gn/T//cc3cV2cq.s:6145   .debug_str:00000000000003cb .LASF38
/var/folders/rt/4gvqv631095f64jvm7jfj_000000gn/T//cc3cV2cq.s:6191   .debug_str:00000000000004c3 .LASF39
/var/folders/rt/4gvqv631095f64jvm7jfj_000000gn/T//cc3cV2cq.s:6287   .debug_str:000000000000074d .LASF40
/var/folders/rt/4gvqv631095f64jvm7jfj_000000gn/T//cc3cV2cq.s:5973   .debug_str:000000000000004d .LASF41
/var/folders/rt/4gvqv631095f64jvm7jfj_000000gn/T//cc3cV2cq.s:6263   .debug_str:000000000000061c .LASF42
/var/folders/rt/4gvqv631095f64jvm7jfj_000000gn/T//cc3cV2cq.s:6187   .debug_str:00000000000004ab .LASF43
/var/folders/rt/4gvqv631095f64jvm7jfj_000000gn/T//cc3cV2cq.s:6219   .debug_str:000000000000053d .LASF44
/var/folders/rt/4gvqv631095f64jvm7jfj_000000gn/T//cc3cV2cq.s:6065   .debug_str:000000000000024a .LASF45
/var/folders/rt/4gvqv631095f64jvm7jfj_000000gn/T//cc3cV2cq.s:6079   .debug_str:0000000000000288 .LASF46
/var/folders/rt/4gvqv631095f64jvm7jfj_000000gn/T//cc3cV2cq.s:6259   .debug_str:0000000000000609 .LASF47
/var/folders/rt/4gvqv631095f64jvm7jfj_000000gn/T//cc3cV2cq.s:6177   .debug_str:000000000000047f .LASF48
/var/folders/rt/4gvqv631095f64jvm7jfj_000000gn/T//cc3cV2cq.s:6005   .debug_str:0000000000000111 .LASF49
/var/folders/rt/4gvqv631095f64jvm7jfj_000000gn/T//cc3cV2cq.s:5965   .debug_str:000000000000001e .LASF50
/var/folders/rt/4gvqv631095f64jvm7jfj_000000gn/T//cc3cV2cq.s:6315   .debug_str:00000000000007de .LASF51
/var/folders/rt/4gvqv631095f64jvm7jfj_000000gn/T//cc3cV2cq.s:6121   .debug_str:000000000000035b .LASF52
/var/folders/rt/4gvqv631095f64jvm7jfj_000000gn/T//cc3cV2cq.s:6087   .debug_str:00000000000002a3 .LASF53
/var/folders/rt/4gvqv631095f64jvm7jfj_000000gn/T//cc3cV2cq.s:6249   .debug_str:00000000000005e0 .LASF54
/var/folders/rt/4gvqv631095f64jvm7jfj_000000gn/T//cc3cV2cq.s:6251   .debug_str:00000000000005e8 .LASF55
/var/folders/rt/4gvqv631095f64jvm7jfj_000000gn/T//cc3cV2cq.s:6185   .debug_str:00000000000004a0 .LASF56
/var/folders/rt/4gvqv631095f64jvm7jfj_000000gn/T//cc3cV2cq.s:6293   .debug_str:0000000000000764 .LASF57
/var/folders/rt/4gvqv631095f64jvm7jfj_000000gn/T//cc3cV2cq.s:6189   .debug_str:00000000000004b1 .LASF58
/var/folders/rt/4gvqv631095f64jvm7jfj_000000gn/T//cc3cV2cq.s:6205   .debug_str:0000000000000503 .LASF59
/var/folders/rt/4gvqv631095f64jvm7jfj_000000gn/T//cc3cV2cq.s:6077   .debug_str:0000000000000280 .LASF64
/var/folders/rt/4gvqv631095f64jvm7jfj_000000gn/T//cc3cV2cq.s:6273   .debug_str:0000000000000647 .LASF60
/var/folders/rt/4gvqv631095f64jvm7jfj_000000gn/T//cc3cV2cq.s:6241   .debug_str:00000000000005c3 .LASF61
/var/folders/rt/4gvqv631095f64jvm7jfj_000000gn/T//cc3cV2cq.s:6071   .debug_str:0000000000000266 .LASF62
/var/folders/rt/4gvqv631095f64jvm7jfj_000000gn/T//cc3cV2cq.s:6311   .debug_str:00000000000007d3 .LASF63
/var/folders/rt/4gvqv631095f64jvm7jfj_000000gn/T//cc3cV2cq.s:6085   .debug_str:000000000000029e .LASF65
/var/folders/rt/4gvqv631095f64jvm7jfj_000000gn/T//cc3cV2cq.s:6003   .debug_str:0000000000000108 .LASF66
/var/folders/rt/4gvqv631095f64jvm7jfj_000000gn/T//cc3cV2cq.s:6337   .debug_str:0000000000000858 .LASF67
/var/folders/rt/4gvqv631095f64jvm7jfj_000000gn/T//cc3cV2cq.s:6021   .debug_str:0000000000000154 .LASF68
/var/folders/rt/4gvqv631095f64jvm7jfj_000000gn/T//cc3cV2cq.s:6349   .debug_str:000000000000089d .LASF69
/var/folders/rt/4gvqv631095f64jvm7jfj_000000gn/T//cc3cV2cq.s:6165   .debug_str:000000000000043d .LASF70
/var/folders/rt/4gvqv631095f64jvm7jfj_000000gn/T//cc3cV2cq.s:6143   .debug_str:00000000000003c1 .LASF71
/var/folders/rt/4gvqv631095f64jvm7jfj_000000gn/T//cc3cV2cq.s:6255   .debug_str:00000000000005f6 .LASF72
/var/folders/rt/4gvqv631095f64jvm7jfj_000000gn/T//cc3cV2cq.s:6207   .debug_str:000000000000050c .LASF73
GAS LISTING /var/folders/rt/4gvqv631095f64jvm7jfj_000000gn/T//cc3cV2cq.s 			page 49


/var/folders/rt/4gvqv631095f64jvm7jfj_000000gn/T//cc3cV2cq.s:6333   .debug_str:000000000000083e .LASF74
/var/folders/rt/4gvqv631095f64jvm7jfj_000000gn/T//cc3cV2cq.s:6025   .debug_str:0000000000000163 .LASF75
/var/folders/rt/4gvqv631095f64jvm7jfj_000000gn/T//cc3cV2cq.s:6061   .debug_str:0000000000000237 .LASF76
/var/folders/rt/4gvqv631095f64jvm7jfj_000000gn/T//cc3cV2cq.s:5959   .debug_str:0000000000000000 .LASF77
/var/folders/rt/4gvqv631095f64jvm7jfj_000000gn/T//cc3cV2cq.s:6279   .debug_str:00000000000006dc .LASF78
/var/folders/rt/4gvqv631095f64jvm7jfj_000000gn/T//cc3cV2cq.s:5961   .debug_str:000000000000000c .LASF79
/var/folders/rt/4gvqv631095f64jvm7jfj_000000gn/T//cc3cV2cq.s:6167   .debug_str:0000000000000446 .LASF80
/var/folders/rt/4gvqv631095f64jvm7jfj_000000gn/T//cc3cV2cq.s:6229   .debug_str:0000000000000575 .LASF81
/var/folders/rt/4gvqv631095f64jvm7jfj_000000gn/T//cc3cV2cq.s:6067   .debug_str:0000000000000256 .LASF82
/var/folders/rt/4gvqv631095f64jvm7jfj_000000gn/T//cc3cV2cq.s:6209   .debug_str:0000000000000516 .LASF83
/var/folders/rt/4gvqv631095f64jvm7jfj_000000gn/T//cc3cV2cq.s:6019   .debug_str:000000000000014e .LASF84
/var/folders/rt/4gvqv631095f64jvm7jfj_000000gn/T//cc3cV2cq.s:6267   .debug_str:000000000000062a .LASF85
/var/folders/rt/4gvqv631095f64jvm7jfj_000000gn/T//cc3cV2cq.s:6215   .debug_str:000000000000052c .LASF86
/var/folders/rt/4gvqv631095f64jvm7jfj_000000gn/T//cc3cV2cq.s:6037   .debug_str:00000000000001aa .LASF87
/var/folders/rt/4gvqv631095f64jvm7jfj_000000gn/T//cc3cV2cq.s:6099   .debug_str:00000000000002f0 .LASF88
/var/folders/rt/4gvqv631095f64jvm7jfj_000000gn/T//cc3cV2cq.s:6345   .debug_str:0000000000000886 .LASF89
/var/folders/rt/4gvqv631095f64jvm7jfj_000000gn/T//cc3cV2cq.s:6027   .debug_str:0000000000000171 .LASF90
/var/folders/rt/4gvqv631095f64jvm7jfj_000000gn/T//cc3cV2cq.s:6081   .debug_str:0000000000000293 .LASF91
/var/folders/rt/4gvqv631095f64jvm7jfj_000000gn/T//cc3cV2cq.s:6141   .debug_str:00000000000003ba .LASF92
/var/folders/rt/4gvqv631095f64jvm7jfj_000000gn/T//cc3cV2cq.s:6253   .debug_str:00000000000005f0 .LASF93
/var/folders/rt/4gvqv631095f64jvm7jfj_000000gn/T//cc3cV2cq.s:6007   .debug_str:0000000000000118 .LASF94
/var/folders/rt/4gvqv631095f64jvm7jfj_000000gn/T//cc3cV2cq.s:6017   .debug_str:0000000000000148 .LASF95
/var/folders/rt/4gvqv631095f64jvm7jfj_000000gn/T//cc3cV2cq.s:6329   .debug_str:0000000000000830 .LASF96
/var/folders/rt/4gvqv631095f64jvm7jfj_000000gn/T//cc3cV2cq.s:6265   .debug_str:0000000000000621 .LASF97
/var/folders/rt/4gvqv631095f64jvm7jfj_000000gn/T//cc3cV2cq.s:6151   .debug_str:00000000000003e8 .LASF98
/var/folders/rt/4gvqv631095f64jvm7jfj_000000gn/T//cc3cV2cq.s:6105   .debug_str:0000000000000310 .LASF99
/var/folders/rt/4gvqv631095f64jvm7jfj_000000gn/T//cc3cV2cq.s:6133   .debug_str:000000000000038c .LASF100
/var/folders/rt/4gvqv631095f64jvm7jfj_000000gn/T//cc3cV2cq.s:6217   .debug_str:0000000000000534 .LASF101
/var/folders/rt/4gvqv631095f64jvm7jfj_000000gn/T//cc3cV2cq.s:6211   .debug_str:000000000000051d .LASF102
/var/folders/rt/4gvqv631095f64jvm7jfj_000000gn/T//cc3cV2cq.s:6243   .debug_str:00000000000005cb .LASF103
/var/folders/rt/4gvqv631095f64jvm7jfj_000000gn/T//cc3cV2cq.s:6261   .debug_str:0000000000000615 .LASF104
/var/folders/rt/4gvqv631095f64jvm7jfj_000000gn/T//cc3cV2cq.s:6041   .debug_str:00000000000001c2 .LASF105
/var/folders/rt/4gvqv631095f64jvm7jfj_000000gn/T//cc3cV2cq.s:6093   .debug_str:00000000000002ce .LASF106
/var/folders/rt/4gvqv631095f64jvm7jfj_000000gn/T//cc3cV2cq.s:6075   .debug_str:0000000000000278 .LASF107
/var/folders/rt/4gvqv631095f64jvm7jfj_000000gn/T//cc3cV2cq.s:6227   .debug_str:0000000000000570 .LASF108
/var/folders/rt/4gvqv631095f64jvm7jfj_000000gn/T//cc3cV2cq.s:5971   .debug_str:0000000000000042 .LASF109
/var/folders/rt/4gvqv631095f64jvm7jfj_000000gn/T//cc3cV2cq.s:6237   .debug_str:0000000000000596 .LASF110
/var/folders/rt/4gvqv631095f64jvm7jfj_000000gn/T//cc3cV2cq.s:6233   .debug_str:0000000000000584 .LASF111
/var/folders/rt/4gvqv631095f64jvm7jfj_000000gn/T//cc3cV2cq.s:6171   .debug_str:0000000000000458 .LASF112
/var/folders/rt/4gvqv631095f64jvm7jfj_000000gn/T//cc3cV2cq.s:6235   .debug_str:000000000000058c .LASF113
/var/folders/rt/4gvqv631095f64jvm7jfj_000000gn/T//cc3cV2cq.s:6119   .debug_str:0000000000000353 .LASF114
/var/folders/rt/4gvqv631095f64jvm7jfj_000000gn/T//cc3cV2cq.s:6043   .debug_str:00000000000001c9 .LASF115
/var/folders/rt/4gvqv631095f64jvm7jfj_000000gn/T//cc3cV2cq.s:6343   .debug_str:0000000000000881 .LASF116
/var/folders/rt/4gvqv631095f64jvm7jfj_000000gn/T//cc3cV2cq.s:6183   .debug_str:0000000000000496 .LASF117
/var/folders/rt/4gvqv631095f64jvm7jfj_000000gn/T//cc3cV2cq.s:6095   .debug_str:00000000000002d6 .LASF118
/var/folders/rt/4gvqv631095f64jvm7jfj_000000gn/T//cc3cV2cq.s:6049   .debug_str:00000000000001ec .LASF119
/var/folders/rt/4gvqv631095f64jvm7jfj_000000gn/T//cc3cV2cq.s:6127   .debug_str:000000000000036f .LASF120
/var/folders/rt/4gvqv631095f64jvm7jfj_000000gn/T//cc3cV2cq.s:5979   .debug_str:0000000000000067 .LASF121
/var/folders/rt/4gvqv631095f64jvm7jfj_000000gn/T//cc3cV2cq.s:6323   .debug_str:0000000000000808 .LASF122
/var/folders/rt/4gvqv631095f64jvm7jfj_000000gn/T//cc3cV2cq.s:6029   .debug_str:0000000000000179 .LASF123
/var/folders/rt/4gvqv631095f64jvm7jfj_000000gn/T//cc3cV2cq.s:6023   .debug_str:000000000000015e .LASF124
/var/folders/rt/4gvqv631095f64jvm7jfj_000000gn/T//cc3cV2cq.s:6213   .debug_str:0000000000000525 .LASF125
/var/folders/rt/4gvqv631095f64jvm7jfj_000000gn/T//cc3cV2cq.s:6313   .debug_str:00000000000007d8 .LASF126
/var/folders/rt/4gvqv631095f64jvm7jfj_000000gn/T//cc3cV2cq.s:6107   .debug_str:0000000000000316 .LASF127
/var/folders/rt/4gvqv631095f64jvm7jfj_000000gn/T//cc3cV2cq.s:6199   .debug_str:00000000000004eb .LASF128
/var/folders/rt/4gvqv631095f64jvm7jfj_000000gn/T//cc3cV2cq.s:6245   .debug_str:00000000000005d2 .LASF129
/var/folders/rt/4gvqv631095f64jvm7jfj_000000gn/T//cc3cV2cq.s:6247   .debug_str:00000000000005da .LASF130
GAS LISTING /var/folders/rt/4gvqv631095f64jvm7jfj_000000gn/T//cc3cV2cq.s 			page 50


/var/folders/rt/4gvqv631095f64jvm7jfj_000000gn/T//cc3cV2cq.s:6135   .debug_str:0000000000000392 .LASF131
/var/folders/rt/4gvqv631095f64jvm7jfj_000000gn/T//cc3cV2cq.s:6289   .debug_str:0000000000000755 .LASF132
/var/folders/rt/4gvqv631095f64jvm7jfj_000000gn/T//cc3cV2cq.s:6307   .debug_str:00000000000007bc .LASF133
/var/folders/rt/4gvqv631095f64jvm7jfj_000000gn/T//cc3cV2cq.s:6057   .debug_str:000000000000021c .LASF134
/var/folders/rt/4gvqv631095f64jvm7jfj_000000gn/T//cc3cV2cq.s:6117   .debug_str:0000000000000346 .LASF135
/var/folders/rt/4gvqv631095f64jvm7jfj_000000gn/T//cc3cV2cq.s:6335   .debug_str:0000000000000849 .LASF136
/var/folders/rt/4gvqv631095f64jvm7jfj_000000gn/T//cc3cV2cq.s:6173   .debug_str:0000000000000463 .LASF137
/var/folders/rt/4gvqv631095f64jvm7jfj_000000gn/T//cc3cV2cq.s:6111   .debug_str:000000000000032a .LASF138
/var/folders/rt/4gvqv631095f64jvm7jfj_000000gn/T//cc3cV2cq.s:6157   .debug_str:0000000000000400 .LASF139
/var/folders/rt/4gvqv631095f64jvm7jfj_000000gn/T//cc3cV2cq.s:6225   .debug_str:0000000000000563 .LASF140
/var/folders/rt/4gvqv631095f64jvm7jfj_000000gn/T//cc3cV2cq.s:6341   .debug_str:0000000000000873 .LASF141
/var/folders/rt/4gvqv631095f64jvm7jfj_000000gn/T//cc3cV2cq.s:6001   .debug_str:00000000000000fa .LASF142
/var/folders/rt/4gvqv631095f64jvm7jfj_000000gn/T//cc3cV2cq.s:6317   .debug_str:00000000000007e7 .LASF143
/var/folders/rt/4gvqv631095f64jvm7jfj_000000gn/T//cc3cV2cq.s:6115   .debug_str:000000000000033a .LASF144
/var/folders/rt/4gvqv631095f64jvm7jfj_000000gn/T//cc3cV2cq.s:6295   .debug_str:000000000000076c .LASF145
/var/folders/rt/4gvqv631095f64jvm7jfj_000000gn/T//cc3cV2cq.s:6059   .debug_str:0000000000000229 .LASF146
/var/folders/rt/4gvqv631095f64jvm7jfj_000000gn/T//cc3cV2cq.s:6297   .debug_str:0000000000000779 .LASF147
/var/folders/rt/4gvqv631095f64jvm7jfj_000000gn/T//cc3cV2cq.s:6055   .debug_str:000000000000020b .LASF148
/var/folders/rt/4gvqv631095f64jvm7jfj_000000gn/T//cc3cV2cq.s:5983   .debug_str:0000000000000075 .LASF149
/var/folders/rt/4gvqv631095f64jvm7jfj_000000gn/T//cc3cV2cq.s:5985   .debug_str:0000000000000084 .LASF150
/var/folders/rt/4gvqv631095f64jvm7jfj_000000gn/T//cc3cV2cq.s:6203   .debug_str:00000000000004fa .LASF151
/var/folders/rt/4gvqv631095f64jvm7jfj_000000gn/T//cc3cV2cq.s:6155   .debug_str:00000000000003f9 .LASF152
/var/folders/rt/4gvqv631095f64jvm7jfj_000000gn/T//cc3cV2cq.s:6147   .debug_str:00000000000003d3 .LASF153
/var/folders/rt/4gvqv631095f64jvm7jfj_000000gn/T//cc3cV2cq.s:6331   .debug_str:0000000000000836 .LASF154
/var/folders/rt/4gvqv631095f64jvm7jfj_000000gn/T//cc3cV2cq.s:5993   .debug_str:00000000000000bf .LASF192
/var/folders/rt/4gvqv631095f64jvm7jfj_000000gn/T//cc3cV2cq.s:6073   .debug_str:000000000000026c .LASF155
/var/folders/rt/4gvqv631095f64jvm7jfj_000000gn/T//cc3cV2cq.s:6303   .debug_str:00000000000007a0 .LASF156
/var/folders/rt/4gvqv631095f64jvm7jfj_000000gn/T//cc3cV2cq.s:6169   .debug_str:000000000000044e .LASF157
/var/folders/rt/4gvqv631095f64jvm7jfj_000000gn/T//cc3cV2cq.s:6089   .debug_str:00000000000002aa .LASF158
/var/folders/rt/4gvqv631095f64jvm7jfj_000000gn/T//cc3cV2cq.s:5987   .debug_str:0000000000000095 .LASF159
/var/folders/rt/4gvqv631095f64jvm7jfj_000000gn/T//cc3cV2cq.s:6285   .debug_str:000000000000073b .LASF193
/var/folders/rt/4gvqv631095f64jvm7jfj_000000gn/T//cc3cV2cq.s:1265   .text.applyGreenFingers:0000000000000000 .LFB9
/var/folders/rt/4gvqv631095f64jvm7jfj_000000gn/T//cc3cV2cq.s:1554   .text.applyGreenFingers:00000000000001cc .LFE9
/var/folders/rt/4gvqv631095f64jvm7jfj_000000gn/T//cc3cV2cq.s:5046   .debug_loc:0000000000000000 .LLST38
/var/folders/rt/4gvqv631095f64jvm7jfj_000000gn/T//cc3cV2cq.s:6139   .debug_str:00000000000003b0 .LASF160
/var/folders/rt/4gvqv631095f64jvm7jfj_000000gn/T//cc3cV2cq.s:5069   .debug_loc:0000000000000038 .LLST39
/var/folders/rt/4gvqv631095f64jvm7jfj_000000gn/T//cc3cV2cq.s:6221   .debug_str:0000000000000546 .LASF161
/var/folders/rt/4gvqv631095f64jvm7jfj_000000gn/T//cc3cV2cq.s:5091   .debug_loc:000000000000006f .LLST40
/var/folders/rt/4gvqv631095f64jvm7jfj_000000gn/T//cc3cV2cq.s:6045   .debug_str:00000000000001d3 .LASF162
/var/folders/rt/4gvqv631095f64jvm7jfj_000000gn/T//cc3cV2cq.s:5113   .debug_loc:00000000000000a6 .LLST41
/var/folders/rt/4gvqv631095f64jvm7jfj_000000gn/T//cc3cV2cq.s:6319   .debug_str:00000000000007f1 .LASF163
/var/folders/rt/4gvqv631095f64jvm7jfj_000000gn/T//cc3cV2cq.s:5160   .debug_loc:0000000000000120 .LLST42
/var/folders/rt/4gvqv631095f64jvm7jfj_000000gn/T//cc3cV2cq.s:5175   .debug_loc:0000000000000149 .LLST43
/var/folders/rt/4gvqv631095f64jvm7jfj_000000gn/T//cc3cV2cq.s:6113   .debug_str:0000000000000335 .LASF164
/var/folders/rt/4gvqv631095f64jvm7jfj_000000gn/T//cc3cV2cq.s:5191   .debug_loc:0000000000000173 .LLST44
/var/folders/rt/4gvqv631095f64jvm7jfj_000000gn/T//cc3cV2cq.s:1411   .text.applyGreenFingers:00000000000000c2 .LVL83
/var/folders/rt/4gvqv631095f64jvm7jfj_000000gn/T//cc3cV2cq.s:1469   .text.applyGreenFingers:0000000000000136 .LVL85
/var/folders/rt/4gvqv631095f64jvm7jfj_000000gn/T//cc3cV2cq.s:1527   .text.applyGreenFingers:00000000000001ac .LVL87
/var/folders/rt/4gvqv631095f64jvm7jfj_000000gn/T//cc3cV2cq.s:1537   .text.applyGreenFingers:00000000000001b8 .LVL89
/var/folders/rt/4gvqv631095f64jvm7jfj_000000gn/T//cc3cV2cq.s:1545   .text.applyGreenFingers:00000000000001c8 .LVL91
/var/folders/rt/4gvqv631095f64jvm7jfj_000000gn/T//cc3cV2cq.s:1298   .text.applyGreenFingers:0000000000000020 .LVL74
/var/folders/rt/4gvqv631095f64jvm7jfj_000000gn/T//cc3cV2cq.s:6339   .debug_str:0000000000000861 .LASF166
/var/folders/rt/4gvqv631095f64jvm7jfj_000000gn/T//cc3cV2cq.s:353    .text.updatePlantStatus:0000000000000000 .LFB8
/var/folders/rt/4gvqv631095f64jvm7jfj_000000gn/T//cc3cV2cq.s:526    .text.updatePlantStatus:0000000000000156 .LFE8
/var/folders/rt/4gvqv631095f64jvm7jfj_000000gn/T//cc3cV2cq.s:5198   .debug_loc:0000000000000186 .LLST17
/var/folders/rt/4gvqv631095f64jvm7jfj_000000gn/T//cc3cV2cq.s:5975   .debug_str:0000000000000056 .LASF165
/var/folders/rt/4gvqv631095f64jvm7jfj_000000gn/T//cc3cV2cq.s:5226   .debug_loc:00000000000001ca .LLST18
GAS LISTING /var/folders/rt/4gvqv631095f64jvm7jfj_000000gn/T//cc3cV2cq.s 			page 51


/var/folders/rt/4gvqv631095f64jvm7jfj_000000gn/T//cc3cV2cq.s:418    .text.updatePlantStatus:0000000000000082 .LVL20
/var/folders/rt/4gvqv631095f64jvm7jfj_000000gn/T//cc3cV2cq.s:424    .text.updatePlantStatus:0000000000000096 .LVL21
/var/folders/rt/4gvqv631095f64jvm7jfj_000000gn/T//cc3cV2cq.s:483    .text.updatePlantStatus:0000000000000106 .LVL23
/var/folders/rt/4gvqv631095f64jvm7jfj_000000gn/T//cc3cV2cq.s:506    .text.updatePlantStatus:0000000000000138 .LVL24
/var/folders/rt/4gvqv631095f64jvm7jfj_000000gn/T//cc3cV2cq.s:512    .text.updatePlantStatus:000000000000014c .LVL25
/var/folders/rt/4gvqv631095f64jvm7jfj_000000gn/T//cc3cV2cq.s:6327   .debug_str:000000000000081c .LASF167
/var/folders/rt/4gvqv631095f64jvm7jfj_000000gn/T//cc3cV2cq.s:534    .text.updatePlantReadings:0000000000000000 .LFB7
/var/folders/rt/4gvqv631095f64jvm7jfj_000000gn/T//cc3cV2cq.s:1258   .text.updatePlantReadings:0000000000000560 .LFE7
/var/folders/rt/4gvqv631095f64jvm7jfj_000000gn/T//cc3cV2cq.s:5255   .debug_loc:000000000000020f .LLST19
/var/folders/rt/4gvqv631095f64jvm7jfj_000000gn/T//cc3cV2cq.s:5278   .debug_loc:0000000000000247 .LLST20
/var/folders/rt/4gvqv631095f64jvm7jfj_000000gn/T//cc3cV2cq.s:5981   .debug_str:0000000000000070 .LASF168
/var/folders/rt/4gvqv631095f64jvm7jfj_000000gn/T//cc3cV2cq.s:5304   .debug_loc:0000000000000289 .LLST21
/var/folders/rt/4gvqv631095f64jvm7jfj_000000gn/T//cc3cV2cq.s:6197   .debug_str:00000000000004e3 .LASF169
/var/folders/rt/4gvqv631095f64jvm7jfj_000000gn/T//cc3cV2cq.s:5340   .debug_loc:00000000000002dc .LLST22
/var/folders/rt/4gvqv631095f64jvm7jfj_000000gn/T//cc3cV2cq.s:6109   .debug_str:000000000000031d .LASF170
/var/folders/rt/4gvqv631095f64jvm7jfj_000000gn/T//cc3cV2cq.s:5376   .debug_loc:000000000000032f .LLST23
/var/folders/rt/4gvqv631095f64jvm7jfj_000000gn/T//cc3cV2cq.s:5394   .debug_loc:000000000000034e .LLST24
/var/folders/rt/4gvqv631095f64jvm7jfj_000000gn/T//cc3cV2cq.s:611    .text.updatePlantReadings:000000000000008e .LVL31
/var/folders/rt/4gvqv631095f64jvm7jfj_000000gn/T//cc3cV2cq.s:723    .text.updatePlantReadings:0000000000000164 .LBB7
/var/folders/rt/4gvqv631095f64jvm7jfj_000000gn/T//cc3cV2cq.s:847    .text.updatePlantReadings:000000000000024a .LBE7
/var/folders/rt/4gvqv631095f64jvm7jfj_000000gn/T//cc3cV2cq.s:6091   .debug_str:00000000000002ba .LASF171
/var/folders/rt/4gvqv631095f64jvm7jfj_000000gn/T//cc3cV2cq.s:5405   .debug_loc:000000000000036c .LLST25
/var/folders/rt/4gvqv631095f64jvm7jfj_000000gn/T//cc3cV2cq.s:5416   .debug_loc:000000000000038a .LLST26
/var/folders/rt/4gvqv631095f64jvm7jfj_000000gn/T//cc3cV2cq.s:773    .text.updatePlantReadings:00000000000001ae .LBB10
/var/folders/rt/4gvqv631095f64jvm7jfj_000000gn/T//cc3cV2cq.s:806    .text.updatePlantReadings:00000000000001f0 .LBE10
/var/folders/rt/4gvqv631095f64jvm7jfj_000000gn/T//cc3cV2cq.s:5433   .debug_loc:00000000000003b5 .LLST27
/var/folders/rt/4gvqv631095f64jvm7jfj_000000gn/T//cc3cV2cq.s:561    .text.updatePlantReadings:000000000000001a .LVL29
/var/folders/rt/4gvqv631095f64jvm7jfj_000000gn/T//cc3cV2cq.s:852    .text.updatePlantReadings:000000000000024e .LBB12
/var/folders/rt/4gvqv631095f64jvm7jfj_000000gn/T//cc3cV2cq.s:1051   .text.updatePlantReadings:00000000000003d0 .LBE12
/var/folders/rt/4gvqv631095f64jvm7jfj_000000gn/T//cc3cV2cq.s:5451   .debug_loc:00000000000003e1 .LLST28
/var/folders/rt/4gvqv631095f64jvm7jfj_000000gn/T//cc3cV2cq.s:874    .text.updatePlantReadings:000000000000027a .LBB13
/var/folders/rt/4gvqv631095f64jvm7jfj_000000gn/T//cc3cV2cq.s:921    .text.updatePlantReadings:00000000000002e6 .LBE13
/var/folders/rt/4gvqv631095f64jvm7jfj_000000gn/T//cc3cV2cq.s:5469   .debug_loc:0000000000000400 .LLST29
/var/folders/rt/4gvqv631095f64jvm7jfj_000000gn/T//cc3cV2cq.s:894    .text.updatePlantReadings:00000000000002a8 .LVL48
/var/folders/rt/4gvqv631095f64jvm7jfj_000000gn/T//cc3cV2cq.s:926    .text.updatePlantReadings:00000000000002ec .LBB14
/var/folders/rt/4gvqv631095f64jvm7jfj_000000gn/T//cc3cV2cq.s:1050   .text.updatePlantReadings:00000000000003d0 .LBE14
/var/folders/rt/4gvqv631095f64jvm7jfj_000000gn/T//cc3cV2cq.s:5476   .debug_loc:0000000000000413 .LLST30
/var/folders/rt/4gvqv631095f64jvm7jfj_000000gn/T//cc3cV2cq.s:5487   .debug_loc:0000000000000431 .LLST31
/var/folders/rt/4gvqv631095f64jvm7jfj_000000gn/T//cc3cV2cq.s:976    .text.updatePlantReadings:0000000000000334 .LBB17
/var/folders/rt/4gvqv631095f64jvm7jfj_000000gn/T//cc3cV2cq.s:1009   .text.updatePlantReadings:0000000000000376 .LBE17
/var/folders/rt/4gvqv631095f64jvm7jfj_000000gn/T//cc3cV2cq.s:5504   .debug_loc:000000000000045c .LLST32
/var/folders/rt/4gvqv631095f64jvm7jfj_000000gn/T//cc3cV2cq.s:857    .text.updatePlantReadings:0000000000000258 .LVL46
/var/folders/rt/4gvqv631095f64jvm7jfj_000000gn/T//cc3cV2cq.s:1056   .text.updatePlantReadings:00000000000003d6 .LBB18
/var/folders/rt/4gvqv631095f64jvm7jfj_000000gn/T//cc3cV2cq.s:1256   .text.updatePlantReadings:0000000000000560 .LBE18
/var/folders/rt/4gvqv631095f64jvm7jfj_000000gn/T//cc3cV2cq.s:5522   .debug_loc:0000000000000488 .LLST33
/var/folders/rt/4gvqv631095f64jvm7jfj_000000gn/T//cc3cV2cq.s:5545   .debug_loc:00000000000004ac .LLST34
/var/folders/rt/4gvqv631095f64jvm7jfj_000000gn/T//cc3cV2cq.s:1101   .text.updatePlantReadings:0000000000000438 .LVL62
/var/folders/rt/4gvqv631095f64jvm7jfj_000000gn/T//cc3cV2cq.s:1133   .text.updatePlantReadings:000000000000047c .LBB21
/var/folders/rt/4gvqv631095f64jvm7jfj_000000gn/T//cc3cV2cq.s:1255   .text.updatePlantReadings:0000000000000560 .LBE21
/var/folders/rt/4gvqv631095f64jvm7jfj_000000gn/T//cc3cV2cq.s:5552   .debug_loc:00000000000004bf .LLST35
/var/folders/rt/4gvqv631095f64jvm7jfj_000000gn/T//cc3cV2cq.s:5563   .debug_loc:00000000000004dd .LLST36
/var/folders/rt/4gvqv631095f64jvm7jfj_000000gn/T//cc3cV2cq.s:1183   .text.updatePlantReadings:00000000000004c4 .LBB24
/var/folders/rt/4gvqv631095f64jvm7jfj_000000gn/T//cc3cV2cq.s:1216   .text.updatePlantReadings:0000000000000506 .LBE24
/var/folders/rt/4gvqv631095f64jvm7jfj_000000gn/T//cc3cV2cq.s:5580   .debug_loc:0000000000000508 .LLST37
/var/folders/rt/4gvqv631095f64jvm7jfj_000000gn/T//cc3cV2cq.s:1060   .text.updatePlantReadings:00000000000003de .LVL60
/var/folders/rt/4gvqv631095f64jvm7jfj_000000gn/T//cc3cV2cq.s:672    .text.updatePlantReadings:00000000000000fe .LVL34
/var/folders/rt/4gvqv631095f64jvm7jfj_000000gn/T//cc3cV2cq.s:6325   .debug_str:0000000000000812 .LASF172
GAS LISTING /var/folders/rt/4gvqv631095f64jvm7jfj_000000gn/T//cc3cV2cq.s 			page 52


/var/folders/rt/4gvqv631095f64jvm7jfj_000000gn/T//cc3cV2cq.s:74     .text.initPlant:0000000000000000 .LFB6
/var/folders/rt/4gvqv631095f64jvm7jfj_000000gn/T//cc3cV2cq.s:346    .text.initPlant:00000000000001e0 .LFE6
/var/folders/rt/4gvqv631095f64jvm7jfj_000000gn/T//cc3cV2cq.s:5598   .debug_loc:0000000000000534 .LLST3
/var/folders/rt/4gvqv631095f64jvm7jfj_000000gn/T//cc3cV2cq.s:6125   .debug_str:0000000000000368 .LASF173
/var/folders/rt/4gvqv631095f64jvm7jfj_000000gn/T//cc3cV2cq.s:5616   .debug_loc:0000000000000561 .LLST4
/var/folders/rt/4gvqv631095f64jvm7jfj_000000gn/T//cc3cV2cq.s:5634   .debug_loc:000000000000058d .LLST5
/var/folders/rt/4gvqv631095f64jvm7jfj_000000gn/T//cc3cV2cq.s:5652   .debug_loc:00000000000005b9 .LLST6
/var/folders/rt/4gvqv631095f64jvm7jfj_000000gn/T//cc3cV2cq.s:5670   .debug_loc:00000000000005e5 .LLST7
/var/folders/rt/4gvqv631095f64jvm7jfj_000000gn/T//cc3cV2cq.s:5688   .debug_loc:0000000000000611 .LLST8
/var/folders/rt/4gvqv631095f64jvm7jfj_000000gn/T//cc3cV2cq.s:5706   .debug_loc:000000000000063d .LLST9
/var/folders/rt/4gvqv631095f64jvm7jfj_000000gn/T//cc3cV2cq.s:5724   .debug_loc:0000000000000669 .LLST10
/var/folders/rt/4gvqv631095f64jvm7jfj_000000gn/T//cc3cV2cq.s:5742   .debug_loc:0000000000000695 .LLST11
/var/folders/rt/4gvqv631095f64jvm7jfj_000000gn/T//cc3cV2cq.s:5760   .debug_loc:00000000000006c1 .LLST12
/var/folders/rt/4gvqv631095f64jvm7jfj_000000gn/T//cc3cV2cq.s:5773   .debug_loc:00000000000006e1 .LLST13
/var/folders/rt/4gvqv631095f64jvm7jfj_000000gn/T//cc3cV2cq.s:5786   .debug_loc:0000000000000701 .LLST14
/var/folders/rt/4gvqv631095f64jvm7jfj_000000gn/T//cc3cV2cq.s:5799   .debug_loc:0000000000000721 .LLST15
/var/folders/rt/4gvqv631095f64jvm7jfj_000000gn/T//cc3cV2cq.s:6257   .debug_str:0000000000000600 .LASF174
/var/folders/rt/4gvqv631095f64jvm7jfj_000000gn/T//cc3cV2cq.s:6301   .debug_str:0000000000000791 .LASF175
/var/folders/rt/4gvqv631095f64jvm7jfj_000000gn/T//cc3cV2cq.s:5812   .debug_loc:0000000000000741 .LLST16
/var/folders/rt/4gvqv631095f64jvm7jfj_000000gn/T//cc3cV2cq.s:143    .text.initPlant:0000000000000072 .LVL8
/var/folders/rt/4gvqv631095f64jvm7jfj_000000gn/T//cc3cV2cq.s:149    .text.initPlant:0000000000000086 .LVL9
/var/folders/rt/4gvqv631095f64jvm7jfj_000000gn/T//cc3cV2cq.s:309    .text.initPlant:00000000000001a6 .LVL15
/var/folders/rt/4gvqv631095f64jvm7jfj_000000gn/T//cc3cV2cq.s:6161   .debug_str:000000000000041e .LASF194
/var/folders/rt/4gvqv631095f64jvm7jfj_000000gn/T//cc3cV2cq.s:6175   .debug_str:0000000000000472 .LASF176
/var/folders/rt/4gvqv631095f64jvm7jfj_000000gn/T//cc3cV2cq.s:6179   .debug_str:0000000000000486 .LASF177
/var/folders/rt/4gvqv631095f64jvm7jfj_000000gn/T//cc3cV2cq.s:6063   .debug_str:000000000000023f .LASF195
/var/folders/rt/4gvqv631095f64jvm7jfj_000000gn/T//cc3cV2cq.s:14     .text.initSensorReading:0000000000000000 .LFB5
/var/folders/rt/4gvqv631095f64jvm7jfj_000000gn/T//cc3cV2cq.s:67     .text.initSensorReading:000000000000005c .LFE5
/var/folders/rt/4gvqv631095f64jvm7jfj_000000gn/T//cc3cV2cq.s:5826   .debug_loc:000000000000075b .LLST0
/var/folders/rt/4gvqv631095f64jvm7jfj_000000gn/T//cc3cV2cq.s:5844   .debug_loc:0000000000000787 .LLST1
/var/folders/rt/4gvqv631095f64jvm7jfj_000000gn/T//cc3cV2cq.s:5858   .debug_loc:00000000000007a8 .LLST2
/var/folders/rt/4gvqv631095f64jvm7jfj_000000gn/T//cc3cV2cq.s:6051   .debug_str:00000000000001f4 .LASF178
/var/folders/rt/4gvqv631095f64jvm7jfj_000000gn/T//cc3cV2cq.s:6035   .debug_str:000000000000019e .LASF179
/var/folders/rt/4gvqv631095f64jvm7jfj_000000gn/T//cc3cV2cq.s:5997   .debug_str:00000000000000d7 .LASF180
/var/folders/rt/4gvqv631095f64jvm7jfj_000000gn/T//cc3cV2cq.s:6299   .debug_str:0000000000000788 .LASF181
/var/folders/rt/4gvqv631095f64jvm7jfj_000000gn/T//cc3cV2cq.s:5967   .debug_str:0000000000000026 .LASF182
/var/folders/rt/4gvqv631095f64jvm7jfj_000000gn/T//cc3cV2cq.s:6129   .debug_str:0000000000000374 .LASF185
/var/folders/rt/4gvqv631095f64jvm7jfj_000000gn/T//cc3cV2cq.s:6039   .debug_str:00000000000001b1 .LASF187
/var/folders/rt/4gvqv631095f64jvm7jfj_000000gn/T//cc3cV2cq.s:5969   .debug_str:0000000000000035 .LASF183
/var/folders/rt/4gvqv631095f64jvm7jfj_000000gn/T//cc3cV2cq.s:6291   .debug_str:000000000000075a .LASF184
/var/folders/rt/4gvqv631095f64jvm7jfj_000000gn/T//cc3cV2cq.s:6123   .debug_str:0000000000000361 .LASF186
/var/folders/rt/4gvqv631095f64jvm7jfj_000000gn/T//cc3cV2cq.s:6131   .debug_str:000000000000037b .LASF188
/var/folders/rt/4gvqv631095f64jvm7jfj_000000gn/T//cc3cV2cq.s:1273   .text.applyGreenFingers:0000000000000002 .LCFI11
/var/folders/rt/4gvqv631095f64jvm7jfj_000000gn/T//cc3cV2cq.s:1348   .text.applyGreenFingers:0000000000000048 .LCFI12
/var/folders/rt/4gvqv631095f64jvm7jfj_000000gn/T//cc3cV2cq.s:1353   .text.applyGreenFingers:000000000000004a .LCFI13
/var/folders/rt/4gvqv631095f64jvm7jfj_000000gn/T//cc3cV2cq.s:1268   .text.applyGreenFingers:0000000000000000 .LVL73
/var/folders/rt/4gvqv631095f64jvm7jfj_000000gn/T//cc3cV2cq.s:1339   .text.applyGreenFingers:0000000000000040 .LVL80
/var/folders/rt/4gvqv631095f64jvm7jfj_000000gn/T//cc3cV2cq.s:1351   .text.applyGreenFingers:000000000000004a .LVL82
/var/folders/rt/4gvqv631095f64jvm7jfj_000000gn/T//cc3cV2cq.s:1336   .text.applyGreenFingers:000000000000003e .LVL79
/var/folders/rt/4gvqv631095f64jvm7jfj_000000gn/T//cc3cV2cq.s:1314   .text.applyGreenFingers:000000000000002e .LVL76
/var/folders/rt/4gvqv631095f64jvm7jfj_000000gn/T//cc3cV2cq.s:1346   .text.applyGreenFingers:0000000000000046 .LVL81
/var/folders/rt/4gvqv631095f64jvm7jfj_000000gn/T//cc3cV2cq.s:1415   .text.applyGreenFingers:00000000000000c4 .LVL84
/var/folders/rt/4gvqv631095f64jvm7jfj_000000gn/T//cc3cV2cq.s:1473   .text.applyGreenFingers:0000000000000138 .LVL86
/var/folders/rt/4gvqv631095f64jvm7jfj_000000gn/T//cc3cV2cq.s:1531   .text.applyGreenFingers:00000000000001ae .LVL88
/var/folders/rt/4gvqv631095f64jvm7jfj_000000gn/T//cc3cV2cq.s:1300   .text.applyGreenFingers:0000000000000022 .LVL75
/var/folders/rt/4gvqv631095f64jvm7jfj_000000gn/T//cc3cV2cq.s:1333   .text.applyGreenFingers:000000000000003c .LVL78
/var/folders/rt/4gvqv631095f64jvm7jfj_000000gn/T//cc3cV2cq.s:1330   .text.applyGreenFingers:000000000000003a .LVL77
GAS LISTING /var/folders/rt/4gvqv631095f64jvm7jfj_000000gn/T//cc3cV2cq.s 			page 53


/var/folders/rt/4gvqv631095f64jvm7jfj_000000gn/T//cc3cV2cq.s:1543   .text.applyGreenFingers:00000000000001c0 .LVL90
/var/folders/rt/4gvqv631095f64jvm7jfj_000000gn/T//cc3cV2cq.s:360    .text.updatePlantStatus:0000000000000002 .LCFI4
/var/folders/rt/4gvqv631095f64jvm7jfj_000000gn/T//cc3cV2cq.s:479    .text.updatePlantStatus:00000000000000fe .LCFI5
/var/folders/rt/4gvqv631095f64jvm7jfj_000000gn/T//cc3cV2cq.s:485    .text.updatePlantStatus:0000000000000106 .LCFI6
/var/folders/rt/4gvqv631095f64jvm7jfj_000000gn/T//cc3cV2cq.s:522    .text.updatePlantStatus:0000000000000154 .LCFI7
/var/folders/rt/4gvqv631095f64jvm7jfj_000000gn/T//cc3cV2cq.s:356    .text.updatePlantStatus:0000000000000000 .LVL18
/var/folders/rt/4gvqv631095f64jvm7jfj_000000gn/T//cc3cV2cq.s:416    .text.updatePlantStatus:000000000000007a .LVL19
/var/folders/rt/4gvqv631095f64jvm7jfj_000000gn/T//cc3cV2cq.s:472    .text.updatePlantStatus:00000000000000f6 .LVL22
/var/folders/rt/4gvqv631095f64jvm7jfj_000000gn/T//cc3cV2cq.s:520    .text.updatePlantStatus:0000000000000152 .LVL26
/var/folders/rt/4gvqv631095f64jvm7jfj_000000gn/T//cc3cV2cq.s:541    .text.updatePlantReadings:0000000000000002 .LCFI8
/var/folders/rt/4gvqv631095f64jvm7jfj_000000gn/T//cc3cV2cq.s:668    .text.updatePlantReadings:00000000000000f6 .LCFI9
/var/folders/rt/4gvqv631095f64jvm7jfj_000000gn/T//cc3cV2cq.s:674    .text.updatePlantReadings:00000000000000fe .LCFI10
/var/folders/rt/4gvqv631095f64jvm7jfj_000000gn/T//cc3cV2cq.s:537    .text.updatePlantReadings:0000000000000000 .LVL27
/var/folders/rt/4gvqv631095f64jvm7jfj_000000gn/T//cc3cV2cq.s:559    .text.updatePlantReadings:0000000000000012 .LVL28
/var/folders/rt/4gvqv631095f64jvm7jfj_000000gn/T//cc3cV2cq.s:662    .text.updatePlantReadings:00000000000000f0 .LVL33
/var/folders/rt/4gvqv631095f64jvm7jfj_000000gn/T//cc3cV2cq.s:845    .text.updatePlantReadings:000000000000024a .LVL45
/var/folders/rt/4gvqv631095f64jvm7jfj_000000gn/T//cc3cV2cq.s:1048   .text.updatePlantReadings:00000000000003d0 .LVL59
/var/folders/rt/4gvqv631095f64jvm7jfj_000000gn/T//cc3cV2cq.s:585    .text.updatePlantReadings:0000000000000048 .LVL30
/var/folders/rt/4gvqv631095f64jvm7jfj_000000gn/T//cc3cV2cq.s:652    .text.updatePlantReadings:00000000000000ec .LVL32
/var/folders/rt/4gvqv631095f64jvm7jfj_000000gn/T//cc3cV2cq.s:692    .text.updatePlantReadings:000000000000011c .LVL35
/var/folders/rt/4gvqv631095f64jvm7jfj_000000gn/T//cc3cV2cq.s:734    .text.updatePlantReadings:000000000000016c .LVL36
/var/folders/rt/4gvqv631095f64jvm7jfj_000000gn/T//cc3cV2cq.s:763    .text.updatePlantReadings:000000000000019c .LVL39
/var/folders/rt/4gvqv631095f64jvm7jfj_000000gn/T//cc3cV2cq.s:771    .text.updatePlantReadings:00000000000001ae .LVL40
/var/folders/rt/4gvqv631095f64jvm7jfj_000000gn/T//cc3cV2cq.s:815    .text.updatePlantReadings:0000000000000206 .LVL44
/var/folders/rt/4gvqv631095f64jvm7jfj_000000gn/T//cc3cV2cq.s:744    .text.updatePlantReadings:000000000000017e .LVL37
/var/folders/rt/4gvqv631095f64jvm7jfj_000000gn/T//cc3cV2cq.s:756    .text.updatePlantReadings:0000000000000194 .LVL38
/var/folders/rt/4gvqv631095f64jvm7jfj_000000gn/T//cc3cV2cq.s:777    .text.updatePlantReadings:00000000000001b0 .LVL41
/var/folders/rt/4gvqv631095f64jvm7jfj_000000gn/T//cc3cV2cq.s:786    .text.updatePlantReadings:00000000000001c0 .LVL42
/var/folders/rt/4gvqv631095f64jvm7jfj_000000gn/T//cc3cV2cq.s:803    .text.updatePlantReadings:00000000000001ee .LVL43
/var/folders/rt/4gvqv631095f64jvm7jfj_000000gn/T//cc3cV2cq.s:882    .text.updatePlantReadings:0000000000000286 .LVL47
/var/folders/rt/4gvqv631095f64jvm7jfj_000000gn/T//cc3cV2cq.s:918    .text.updatePlantReadings:00000000000002de .LVL49
/var/folders/rt/4gvqv631095f64jvm7jfj_000000gn/T//cc3cV2cq.s:937    .text.updatePlantReadings:00000000000002f2 .LVL50
/var/folders/rt/4gvqv631095f64jvm7jfj_000000gn/T//cc3cV2cq.s:966    .text.updatePlantReadings:0000000000000322 .LVL53
/var/folders/rt/4gvqv631095f64jvm7jfj_000000gn/T//cc3cV2cq.s:974    .text.updatePlantReadings:0000000000000334 .LVL54
/var/folders/rt/4gvqv631095f64jvm7jfj_000000gn/T//cc3cV2cq.s:1018   .text.updatePlantReadings:000000000000038c .LVL58
/var/folders/rt/4gvqv631095f64jvm7jfj_000000gn/T//cc3cV2cq.s:947    .text.updatePlantReadings:0000000000000304 .LVL51
/var/folders/rt/4gvqv631095f64jvm7jfj_000000gn/T//cc3cV2cq.s:959    .text.updatePlantReadings:000000000000031a .LVL52
/var/folders/rt/4gvqv631095f64jvm7jfj_000000gn/T//cc3cV2cq.s:980    .text.updatePlantReadings:0000000000000336 .LVL55
/var/folders/rt/4gvqv631095f64jvm7jfj_000000gn/T//cc3cV2cq.s:989    .text.updatePlantReadings:0000000000000346 .LVL56
/var/folders/rt/4gvqv631095f64jvm7jfj_000000gn/T//cc3cV2cq.s:1006   .text.updatePlantReadings:0000000000000374 .LVL57
/var/folders/rt/4gvqv631095f64jvm7jfj_000000gn/T//cc3cV2cq.s:1082   .text.updatePlantReadings:0000000000000408 .LVL61
/var/folders/rt/4gvqv631095f64jvm7jfj_000000gn/T//cc3cV2cq.s:1125   .text.updatePlantReadings:000000000000046e .LVL63
/var/folders/rt/4gvqv631095f64jvm7jfj_000000gn/T//cc3cV2cq.s:1144   .text.updatePlantReadings:0000000000000482 .LVL64
/var/folders/rt/4gvqv631095f64jvm7jfj_000000gn/T//cc3cV2cq.s:1173   .text.updatePlantReadings:00000000000004b2 .LVL67
/var/folders/rt/4gvqv631095f64jvm7jfj_000000gn/T//cc3cV2cq.s:1181   .text.updatePlantReadings:00000000000004c4 .LVL68
/var/folders/rt/4gvqv631095f64jvm7jfj_000000gn/T//cc3cV2cq.s:1225   .text.updatePlantReadings:000000000000051c .LVL72
/var/folders/rt/4gvqv631095f64jvm7jfj_000000gn/T//cc3cV2cq.s:1154   .text.updatePlantReadings:0000000000000494 .LVL65
/var/folders/rt/4gvqv631095f64jvm7jfj_000000gn/T//cc3cV2cq.s:1166   .text.updatePlantReadings:00000000000004aa .LVL66
/var/folders/rt/4gvqv631095f64jvm7jfj_000000gn/T//cc3cV2cq.s:1187   .text.updatePlantReadings:00000000000004c6 .LVL69
/var/folders/rt/4gvqv631095f64jvm7jfj_000000gn/T//cc3cV2cq.s:1196   .text.updatePlantReadings:00000000000004d6 .LVL70
/var/folders/rt/4gvqv631095f64jvm7jfj_000000gn/T//cc3cV2cq.s:1213   .text.updatePlantReadings:0000000000000504 .LVL71
/var/folders/rt/4gvqv631095f64jvm7jfj_000000gn/T//cc3cV2cq.s:83     .text.initPlant:0000000000000008 .LCFI2
/var/folders/rt/4gvqv631095f64jvm7jfj_000000gn/T//cc3cV2cq.s:341    .text.initPlant:00000000000001de .LCFI3
/var/folders/rt/4gvqv631095f64jvm7jfj_000000gn/T//cc3cV2cq.s:77     .text.initPlant:0000000000000000 .LVL3
/var/folders/rt/4gvqv631095f64jvm7jfj_000000gn/T//cc3cV2cq.s:137    .text.initPlant:0000000000000062 .LVL7
/var/folders/rt/4gvqv631095f64jvm7jfj_000000gn/T//cc3cV2cq.s:135    .text.initPlant:0000000000000060 .LVL6
/var/folders/rt/4gvqv631095f64jvm7jfj_000000gn/T//cc3cV2cq.s:313    .text.initPlant:00000000000001aa .LVL16
GAS LISTING /var/folders/rt/4gvqv631095f64jvm7jfj_000000gn/T//cc3cV2cq.s 			page 54


/var/folders/rt/4gvqv631095f64jvm7jfj_000000gn/T//cc3cV2cq.s:121    .text.initPlant:0000000000000054 .LVL4
/var/folders/rt/4gvqv631095f64jvm7jfj_000000gn/T//cc3cV2cq.s:125    .text.initPlant:000000000000005a .LVL5
/var/folders/rt/4gvqv631095f64jvm7jfj_000000gn/T//cc3cV2cq.s:251    .text.initPlant:000000000000014e .LVL11
/var/folders/rt/4gvqv631095f64jvm7jfj_000000gn/T//cc3cV2cq.s:254    .text.initPlant:0000000000000152 .LVL12
/var/folders/rt/4gvqv631095f64jvm7jfj_000000gn/T//cc3cV2cq.s:257    .text.initPlant:0000000000000156 .LVL13
/var/folders/rt/4gvqv631095f64jvm7jfj_000000gn/T//cc3cV2cq.s:260    .text.initPlant:0000000000000158 .LVL14
/var/folders/rt/4gvqv631095f64jvm7jfj_000000gn/T//cc3cV2cq.s:225    .text.initPlant:000000000000011a .LVL10
/var/folders/rt/4gvqv631095f64jvm7jfj_000000gn/T//cc3cV2cq.s:343    .text.initPlant:00000000000001de .LVL17
/var/folders/rt/4gvqv631095f64jvm7jfj_000000gn/T//cc3cV2cq.s:52     .text.initSensorReading:000000000000004c .LCFI0
/var/folders/rt/4gvqv631095f64jvm7jfj_000000gn/T//cc3cV2cq.s:63     .text.initSensorReading:000000000000005a .LCFI1
/var/folders/rt/4gvqv631095f64jvm7jfj_000000gn/T//cc3cV2cq.s:18     .text.initSensorReading:0000000000000000 .LVL0
/var/folders/rt/4gvqv631095f64jvm7jfj_000000gn/T//cc3cV2cq.s:46     .text.initSensorReading:0000000000000046 .LVL1
/var/folders/rt/4gvqv631095f64jvm7jfj_000000gn/T//cc3cV2cq.s:49     .text.initSensorReading:000000000000004a .LVL2
/var/folders/rt/4gvqv631095f64jvm7jfj_000000gn/T//cc3cV2cq.s:1588   .debug_info:0000000000000000 .Ldebug_info0
/var/folders/rt/4gvqv631095f64jvm7jfj_000000gn/T//cc3cV2cq.s:555    .text.updatePlantReadings:0000000000000010 .LBB4
/var/folders/rt/4gvqv631095f64jvm7jfj_000000gn/T//cc3cV2cq.s:655    .text.updatePlantReadings:00000000000000ec .LBE4
/var/folders/rt/4gvqv631095f64jvm7jfj_000000gn/T//cc3cV2cq.s:676    .text.updatePlantReadings:00000000000000fe .LBB11
/var/folders/rt/4gvqv631095f64jvm7jfj_000000gn/T//cc3cV2cq.s:848    .text.updatePlantReadings:000000000000024a .LBE11
/var/folders/rt/4gvqv631095f64jvm7jfj_000000gn/T//cc3cV2cq.s:578    .text.updatePlantReadings:000000000000003e .LBB5
/var/folders/rt/4gvqv631095f64jvm7jfj_000000gn/T//cc3cV2cq.s:654    .text.updatePlantReadings:00000000000000ec .LBE5
/var/folders/rt/4gvqv631095f64jvm7jfj_000000gn/T//cc3cV2cq.s:677    .text.updatePlantReadings:00000000000000fe .LBB6
/var/folders/rt/4gvqv631095f64jvm7jfj_000000gn/T//cc3cV2cq.s:707    .text.updatePlantReadings:0000000000000140 .LBE6
/var/folders/rt/4gvqv631095f64jvm7jfj_000000gn/T//cc3cV2cq.s:724    .text.updatePlantReadings:0000000000000164 .LBB8
/var/folders/rt/4gvqv631095f64jvm7jfj_000000gn/T//cc3cV2cq.s:727    .text.updatePlantReadings:0000000000000166 .LBE8
/var/folders/rt/4gvqv631095f64jvm7jfj_000000gn/T//cc3cV2cq.s:730    .text.updatePlantReadings:0000000000000168 .LBB9
/var/folders/rt/4gvqv631095f64jvm7jfj_000000gn/T//cc3cV2cq.s:759    .text.updatePlantReadings:0000000000000198 .LBE9
/var/folders/rt/4gvqv631095f64jvm7jfj_000000gn/T//cc3cV2cq.s:927    .text.updatePlantReadings:00000000000002ec .LBB15
/var/folders/rt/4gvqv631095f64jvm7jfj_000000gn/T//cc3cV2cq.s:930    .text.updatePlantReadings:00000000000002ee .LBE15
/var/folders/rt/4gvqv631095f64jvm7jfj_000000gn/T//cc3cV2cq.s:933    .text.updatePlantReadings:00000000000002f0 .LBB16
/var/folders/rt/4gvqv631095f64jvm7jfj_000000gn/T//cc3cV2cq.s:962    .text.updatePlantReadings:000000000000031e .LBE16
/var/folders/rt/4gvqv631095f64jvm7jfj_000000gn/T//cc3cV2cq.s:1077   .text.updatePlantReadings:0000000000000400 .LBB19
/var/folders/rt/4gvqv631095f64jvm7jfj_000000gn/T//cc3cV2cq.s:1079   .text.updatePlantReadings:0000000000000400 .LBE19
/var/folders/rt/4gvqv631095f64jvm7jfj_000000gn/T//cc3cV2cq.s:1083   .text.updatePlantReadings:0000000000000408 .LBB20
/var/folders/rt/4gvqv631095f64jvm7jfj_000000gn/T//cc3cV2cq.s:1128   .text.updatePlantReadings:0000000000000476 .LBE20
/var/folders/rt/4gvqv631095f64jvm7jfj_000000gn/T//cc3cV2cq.s:1134   .text.updatePlantReadings:000000000000047c .LBB22
/var/folders/rt/4gvqv631095f64jvm7jfj_000000gn/T//cc3cV2cq.s:1137   .text.updatePlantReadings:000000000000047e .LBE22
/var/folders/rt/4gvqv631095f64jvm7jfj_000000gn/T//cc3cV2cq.s:1140   .text.updatePlantReadings:0000000000000480 .LBB23
/var/folders/rt/4gvqv631095f64jvm7jfj_000000gn/T//cc3cV2cq.s:1169   .text.updatePlantReadings:00000000000004ae .LBE23
/var/folders/rt/4gvqv631095f64jvm7jfj_000000gn/T//cc3cV2cq.s:1302   .text.applyGreenFingers:0000000000000022 .LBB25
/var/folders/rt/4gvqv631095f64jvm7jfj_000000gn/T//cc3cV2cq.s:1306   .text.applyGreenFingers:0000000000000024 .LBE25
/var/folders/rt/4gvqv631095f64jvm7jfj_000000gn/T//cc3cV2cq.s:1310   .text.applyGreenFingers:000000000000002a .LBB28
/var/folders/rt/4gvqv631095f64jvm7jfj_000000gn/T//cc3cV2cq.s:1319   .text.applyGreenFingers:0000000000000032 .LBE28
/var/folders/rt/4gvqv631095f64jvm7jfj_000000gn/T//cc3cV2cq.s:1355   .text.applyGreenFingers:000000000000004a .LBB29
/var/folders/rt/4gvqv631095f64jvm7jfj_000000gn/T//cc3cV2cq.s:1552   .text.applyGreenFingers:00000000000001cc .LBE29
/var/folders/rt/4gvqv631095f64jvm7jfj_000000gn/T//cc3cV2cq.s:1311   .text.applyGreenFingers:000000000000002a .LBB26
/var/folders/rt/4gvqv631095f64jvm7jfj_000000gn/T//cc3cV2cq.s:1316   .text.applyGreenFingers:000000000000002e .LBE26
/var/folders/rt/4gvqv631095f64jvm7jfj_000000gn/T//cc3cV2cq.s:1356   .text.applyGreenFingers:000000000000004a .LBB27
/var/folders/rt/4gvqv631095f64jvm7jfj_000000gn/T//cc3cV2cq.s:1547   .text.applyGreenFingers:00000000000001c8 .LBE27

UNDEFINED SYMBOLS
snprintf
strcpy
memcpy
gpio_bit_reset
T1setPWMch0
gpio_bit_set
__fixsfsi
GAS LISTING /var/folders/rt/4gvqv631095f64jvm7jfj_000000gn/T//cc3cV2cq.s 			page 55


ADC_read
rtc_counter_get
read_temp
