GAS LISTING /var/folders/rt/4gvqv631095f64jvm7jfj_000000gn/T//ccaxTwoZ.s 			page 1


   1              		.file	"plant.c"
   2              		.option nopic
   3              		.attribute arch, "rv32i2p0_m2p0_a2p0_c2p0"
   4              		.attribute unaligned_access, 0
   5              		.attribute stack_align, 16
   6              		.text
   7              	.Ltext0:
   8              		.cfi_sections	.debug_frame
   9              		.section	.text.initSensorReading,"ax",@progbits
  10              		.align	1
  11              		.globl	initSensorReading
  13              	initSensorReading:
  14              	.LFB5:
  15              		.file 1 "plant.c"
   1:plant.c       **** #include "plant.h"
   2:plant.c       **** #include <stdio.h>
   3:plant.c       **** #include "lcd.h"
   4:plant.c       **** #include "pwm.h"
   5:plant.c       **** #include "adc.h"
   6:plant.c       **** #include "gd32vf103.h"
   7:plant.c       **** #define STR_COPY(dest, src) \
   8:plant.c       ****   snprintf(dest, sizeof(dest), "%s", src) // AI. STR_COPY är en genväg för snprintf som i sin tu
   9:plant.c       **** 
  10:plant.c       **** SensorReading initSensorReading(int newTimeStamp, int inReading)
  11:plant.c       **** {
  16              		.loc 1 11 1
  17              		.cfi_startproc
  18              	.LVL0:
  12:plant.c       ****   SensorReading newReading;
  19              		.loc 1 12 3
  13:plant.c       ****   newReading.timeStamp = newTimeStamp;
  20              		.loc 1 13 3
  14:plant.c       ****   newReading.reading = inReading;
  21              		.loc 1 14 3
  15:plant.c       ****   return newReading;
  22              		.loc 1 15 3
  23              		.loc 1 15 10 is_stmt 0
  24 0000 93578500 		srli	a5,a0,8
  25 0004 93F7F70F 		andi	a5,a5,0xff
  26 0008 93D68500 		srli	a3,a1,8
  27 000c 1377F50F 		andi	a4,a0,0xff
  28 0010 A207     		slli	a5,a5,8
  29 0012 5D8F     		or	a4,a4,a5
  30 0014 93F6F60F 		andi	a3,a3,0xff
  31 0018 B70701FF 		li	a5,-16711680
  32 001c 1388F7FF 		addi	a6,a5,-1
  33 0020 A206     		slli	a3,a3,8
  34 0022 93F7F50F 		andi	a5,a1,0xff
  35 0026 3706FF00 		li	a2,16711680
  36 002a 698E     		and	a2,a0,a2
  37 002c D58F     		or	a5,a5,a3
  38 002e 33770701 		and	a4,a4,a6
  39 0032 B706FF00 		li	a3,16711680
  40 0036 518F     		or	a4,a4,a2
  41 0038 ED8E     		and	a3,a1,a3
  42 003a 37060001 		li	a2,16777216
  43 003e B3F70701 		and	a5,a5,a6
GAS LISTING /var/folders/rt/4gvqv631095f64jvm7jfj_000000gn/T//ccaxTwoZ.s 			page 2


  44 0042 7D16     		addi	a2,a2,-1
  45 0044 6181     		srli	a0,a0,24
  46              	.LVL1:
  47 0046 D58F     		or	a5,a5,a3
  48 0048 E181     		srli	a1,a1,24
  49              	.LVL2:
  11:plant.c       ****   SensorReading newReading;
  50              		.loc 1 11 1
  51 004a 4111     		addi	sp,sp,-16
  52              	.LCFI0:
  53              		.cfi_def_cfa_offset 16
  54              		.loc 1 15 10
  55 004c 6205     		slli	a0,a0,24
  56 004e 718F     		and	a4,a4,a2
  57 0050 E205     		slli	a1,a1,24
  58 0052 F18F     		and	a5,a5,a2
  16:plant.c       **** }
  59              		.loc 1 16 1
  60 0054 598D     		or	a0,a4,a0
  61 0056 DD8D     		or	a1,a5,a1
  62 0058 4101     		addi	sp,sp,16
  63              	.LCFI1:
  64              		.cfi_def_cfa_offset 0
  65 005a 8280     		jr	ra
  66              		.cfi_endproc
  67              	.LFE5:
  69              		.section	.text.initPlant,"ax",@progbits
  70              		.align	1
  71              		.globl	initPlant
  73              	initPlant:
  74              	.LFB6:
  17:plant.c       **** 
  18:plant.c       **** void initPlant(char inName[], int *numberOfPlants, Plant allPlants[],
  19:plant.c       ****                int idealMoist, int lowMoist, int highMoist,
  20:plant.c       ****                int idealSun, int lowSun, int highSun,
  21:plant.c       ****                int idealTemp, int lowTemp, int highTemp)
  22:plant.c       **** {
  75              		.loc 1 22 1 is_stmt 1
  76              		.cfi_startproc
  77              	.LVL3:
  23:plant.c       ****   if (*numberOfPlants > 2)
  78              		.loc 1 23 3
  79              		.loc 1 23 6 is_stmt 0
  80 0000 03AE0500 		lw	t3,0(a1)
  22:plant.c       ****   if (*numberOfPlants > 2)
  81              		.loc 1 22 1
  82 0004 130101B0 		addi	sp,sp,-1280
  83              	.LCFI2:
  84              		.cfi_def_cfa_offset 1280
  85 0008 2322514F 		sw	s5,1252(sp)
  86 000c 2320614F 		sw	s6,1248(sp)
  87 0010 232E714D 		sw	s7,1244(sp)
  88 0014 232C814D 		sw	s8,1240(sp)
  89 0018 232E114E 		sw	ra,1276(sp)
  90 001c 232C814E 		sw	s0,1272(sp)
  91 0020 232A914E 		sw	s1,1268(sp)
  92 0024 2328214F 		sw	s2,1264(sp)
GAS LISTING /var/folders/rt/4gvqv631095f64jvm7jfj_000000gn/T//ccaxTwoZ.s 			page 3


  93 0028 2326314F 		sw	s3,1260(sp)
  94 002c 2324414F 		sw	s4,1256(sp)
  95 0030 232A914D 		sw	s9,1236(sp)
  96 0034 2328A14D 		sw	s10,1232(sp)
  97              		.cfi_offset 21, -28
  98              		.cfi_offset 22, -32
  99              		.cfi_offset 23, -36
 100              		.cfi_offset 24, -40
 101              		.cfi_offset 1, -4
 102              		.cfi_offset 8, -8
 103              		.cfi_offset 9, -12
 104              		.cfi_offset 18, -16
 105              		.cfi_offset 19, -20
 106              		.cfi_offset 20, -24
 107              		.cfi_offset 25, -44
 108              		.cfi_offset 26, -48
 109              		.loc 1 23 6
 110 0038 0943     		li	t1,2
  22:plant.c       ****   if (*numberOfPlants > 2)
 111              		.loc 1 22 1
 112 003a 032C0150 		lw	s8,1280(sp)
 113 003e 832B4150 		lw	s7,1284(sp)
 114 0042 032B8150 		lw	s6,1288(sp)
 115 0046 832AC150 		lw	s5,1292(sp)
 116              		.loc 1 23 6
 117 004a 6340C317 		bgt	t3,t1,.L3
 118 004e 328D     		mv	s10,a2
  24:plant.c       ****     return;
  25:plant.c       ****   Plant newPlant;
  26:plant.c       ****   SensorReading defaultReading = initSensorReading(0, 0);
  27:plant.c       **** 
  28:plant.c       ****   STR_COPY(newPlant.name, inName);
 119              		.loc 1 28 3
 120 0050 37060000 		lui	a2,%hi(.LC0)
 121              	.LVL4:
 122 0054 368A     		mv	s4,a3
 123 0056 AE8C     		mv	s9,a1
 124 0058 AA86     		mv	a3,a0
 125              	.LVL5:
  25:plant.c       ****   SensorReading defaultReading = initSensorReading(0, 0);
 126              		.loc 1 25 3 is_stmt 1
  26:plant.c       **** 
 127              		.loc 1 26 3
  12:plant.c       ****   newReading.timeStamp = newTimeStamp;
 128              		.loc 1 12 3
  13:plant.c       ****   newReading.reading = inReading;
 129              		.loc 1 13 3
  14:plant.c       ****   return newReading;
 130              		.loc 1 14 3
  15:plant.c       **** }
 131              		.loc 1 15 3
 132              		.loc 1 28 3
 133 005a 13060600 		addi	a2,a2,%lo(.LC0)
 134 005e BD45     		li	a1,15
 135              	.LVL6:
 136 0060 0A85     		mv	a0,sp
 137              	.LVL7:
GAS LISTING /var/folders/rt/4gvqv631095f64jvm7jfj_000000gn/T//ccaxTwoZ.s 			page 4


 138 0062 4684     		mv	s0,a7
 139 0064 C284     		mv	s1,a6
 140 0066 3E89     		mv	s2,a5
 141 0068 BA89     		mv	s3,a4
 142 006a 97000000 		call	snprintf
 142      E7800000 
 143              	.LVL8:
  29:plant.c       ****   STR_COPY(newPlant.currentStatus, "OK");
 144              		.loc 1 29 3
 145 0072 B7050000 		lui	a1,%hi(.LC1)
 146 0076 93850500 		addi	a1,a1,%lo(.LC1)
 147 007a 1305F100 		addi	a0,sp,15
 148 007e 97000000 		call	strcpy
 148      E7800000 
 149              	.LVL9:
  30:plant.c       **** 
  31:plant.c       ****   newPlant.moisture[0] = defaultReading;
 150              		.loc 1 31 3
  32:plant.c       ****   newPlant.sun[0] = defaultReading;
  33:plant.c       ****   newPlant.temp[0] = defaultReading;
  34:plant.c       ****   newPlant.numberOfMoistureReadings = 1;
 151              		.loc 1 34 37 is_stmt 0
 152 0086 8547     		li	a5,1
 153 0088 231FF130 		sh	a5,798(sp)
  35:plant.c       ****   newPlant.numberOfSunReadings = 1;
 154              		.loc 1 35 32
 155 008c 2311F132 		sh	a5,802(sp)
  36:plant.c       ****   newPlant.numberOfTempReadings = 1;
 156              		.loc 1 36 33
 157 0090 2313F132 		sh	a5,806(sp)
  37:plant.c       **** 
  38:plant.c       ****   newPlant.moistHistory[0] = 0;
  39:plant.c       ****   newPlant.sunHistory[0] = 0;
  40:plant.c       ****   newPlant.tempHistory[0] = 0;
  41:plant.c       ****   newPlant.numberOfMoistureHistory = 1;
 158              		.loc 1 41 36
 159 0094 2319F148 		sh	a5,1170(sp)
  42:plant.c       ****   newPlant.numberOfSunHistory = 1;
 160              		.loc 1 42 31
 161 0098 231BF148 		sh	a5,1174(sp)
  43:plant.c       ****   newPlant.numberOfTempHistory = 1;
 162              		.loc 1 43 32
 163 009c 231DF148 		sh	a5,1178(sp)
  44:plant.c       **** 
  45:plant.c       ****   newPlant.moistInterval = 1800;
 164              		.loc 1 45 26
 165 00a0 93078070 		li	a5,1800
 166 00a4 231FF148 		sh	a5,1182(sp)
  46:plant.c       ****   newPlant.sunInterval = 60;
 167              		.loc 1 46 24
 168 00a8 1307C003 		li	a4,60
  31:plant.c       ****   newPlant.sun[0] = defaultReading;
 169              		.loc 1 31 24
 170 00ac 231F0100 		sh	zero,30(sp)
 171 00b0 23100102 		sh	zero,32(sp)
 172 00b4 23110102 		sh	zero,34(sp)
 173 00b8 23120102 		sh	zero,36(sp)
GAS LISTING /var/folders/rt/4gvqv631095f64jvm7jfj_000000gn/T//ccaxTwoZ.s 			page 5


  32:plant.c       ****   newPlant.temp[0] = defaultReading;
 174              		.loc 1 32 3 is_stmt 1
  32:plant.c       ****   newPlant.temp[0] = defaultReading;
 175              		.loc 1 32 19 is_stmt 0
 176 00bc 231F010C 		sh	zero,222(sp)
 177 00c0 2310010E 		sh	zero,224(sp)
 178 00c4 2311010E 		sh	zero,226(sp)
 179 00c8 2312010E 		sh	zero,228(sp)
  33:plant.c       ****   newPlant.numberOfMoistureReadings = 1;
 180              		.loc 1 33 3 is_stmt 1
  33:plant.c       ****   newPlant.numberOfMoistureReadings = 1;
 181              		.loc 1 33 20 is_stmt 0
 182 00cc 231F0124 		sh	zero,606(sp)
 183 00d0 23100126 		sh	zero,608(sp)
 184 00d4 23110126 		sh	zero,610(sp)
 185 00d8 23120126 		sh	zero,612(sp)
  34:plant.c       ****   newPlant.numberOfSunReadings = 1;
 186              		.loc 1 34 3 is_stmt 1
  34:plant.c       ****   newPlant.numberOfSunReadings = 1;
 187              		.loc 1 34 37 is_stmt 0
 188 00dc 23100132 		sh	zero,800(sp)
  35:plant.c       ****   newPlant.numberOfTempReadings = 1;
 189              		.loc 1 35 3 is_stmt 1
  35:plant.c       ****   newPlant.numberOfTempReadings = 1;
 190              		.loc 1 35 32 is_stmt 0
 191 00e0 23120132 		sh	zero,804(sp)
  36:plant.c       **** 
 192              		.loc 1 36 3 is_stmt 1
  36:plant.c       **** 
 193              		.loc 1 36 33 is_stmt 0
 194 00e4 23140132 		sh	zero,808(sp)
  38:plant.c       ****   newPlant.sunHistory[0] = 0;
 195              		.loc 1 38 3 is_stmt 1
  38:plant.c       ****   newPlant.sunHistory[0] = 0;
 196              		.loc 1 38 28 is_stmt 0
 197 00e8 23150132 		sh	zero,810(sp)
 198 00ec 23160132 		sh	zero,812(sp)
  39:plant.c       ****   newPlant.tempHistory[0] = 0;
 199              		.loc 1 39 3 is_stmt 1
  39:plant.c       ****   newPlant.tempHistory[0] = 0;
 200              		.loc 1 39 26 is_stmt 0
 201 00f0 2311013A 		sh	zero,930(sp)
 202 00f4 2312013A 		sh	zero,932(sp)
  40:plant.c       ****   newPlant.numberOfMoistureHistory = 1;
 203              		.loc 1 40 3 is_stmt 1
  40:plant.c       ****   newPlant.numberOfMoistureHistory = 1;
 204              		.loc 1 40 27 is_stmt 0
 205 00f8 231D0140 		sh	zero,1050(sp)
 206 00fc 231E0140 		sh	zero,1052(sp)
  41:plant.c       ****   newPlant.numberOfSunHistory = 1;
 207              		.loc 1 41 3 is_stmt 1
  41:plant.c       ****   newPlant.numberOfSunHistory = 1;
 208              		.loc 1 41 36 is_stmt 0
 209 0100 231A0148 		sh	zero,1172(sp)
  42:plant.c       ****   newPlant.numberOfTempHistory = 1;
 210              		.loc 1 42 3 is_stmt 1
  42:plant.c       ****   newPlant.numberOfTempHistory = 1;
GAS LISTING /var/folders/rt/4gvqv631095f64jvm7jfj_000000gn/T//ccaxTwoZ.s 			page 6


 211              		.loc 1 42 31 is_stmt 0
 212 0104 231C0148 		sh	zero,1176(sp)
  43:plant.c       **** 
 213              		.loc 1 43 3 is_stmt 1
  43:plant.c       **** 
 214              		.loc 1 43 32 is_stmt 0
 215 0108 231E0148 		sh	zero,1180(sp)
  45:plant.c       ****   newPlant.sunInterval = 60;
 216              		.loc 1 45 3 is_stmt 1
  45:plant.c       ****   newPlant.sunInterval = 60;
 217              		.loc 1 45 26 is_stmt 0
 218 010c 2310014A 		sh	zero,1184(sp)
 219              		.loc 1 46 3 is_stmt 1
 220              		.loc 1 46 24 is_stmt 0
 221 0110 2311E14A 		sh	a4,1186(sp)
  47:plant.c       ****   newPlant.tempInterval = 1800;
  48:plant.c       **** 
  49:plant.c       ****   newPlant.idealMoist = idealMoist;
  50:plant.c       ****   newPlant.lowMoist = lowMoist;
  51:plant.c       ****   newPlant.highMoist = highMoist;
  52:plant.c       **** 
  53:plant.c       ****   newPlant.idealSun = idealSun;
  54:plant.c       ****   newPlant.lowSun = lowSun;
 222              		.loc 1 54 19
 223 0114 231D814A 		sh	s0,1210(sp)
 224 0118 4180     		srli	s0,s0,16
 225              	.LVL10:
 226 011a 231E814A 		sh	s0,1212(sp)
  55:plant.c       ****   newPlant.highSun = highSun;
  56:plant.c       **** 
  57:plant.c       ****   newPlant.idealTemp = idealTemp;
  58:plant.c       ****   newPlant.lowTemp = lowTemp;
  59:plant.c       ****   newPlant.highTemp = highTemp;
  60:plant.c       **** 
  61:plant.c       ****   allPlants[*numberOfPlants] = newPlant;
 227              		.loc 1 61 13
 228 011e 03A40C00 		lw	s0,0(s9)
 229              		.loc 1 61 30
 230 0122 1305E04C 		li	a0,1230
  49:plant.c       ****   newPlant.lowMoist = lowMoist;
 231              		.loc 1 49 23
 232 0126 2315414B 		sh	s4,1194(sp)
 233              		.loc 1 61 30
 234 012a 3305A402 		mul	a0,s0,a0
  50:plant.c       ****   newPlant.highMoist = highMoist;
 235              		.loc 1 50 21
 236 012e 231B314B 		sh	s3,1206(sp)
  51:plant.c       **** 
 237              		.loc 1 51 22
 238 0132 2311214D 		sh	s2,1218(sp)
  53:plant.c       ****   newPlant.lowSun = lowSun;
 239              		.loc 1 53 21
 240 0136 2317914A 		sh	s1,1198(sp)
  55:plant.c       **** 
 241              		.loc 1 55 20
 242 013a 2313814D 		sh	s8,1222(sp)
  57:plant.c       ****   newPlant.lowTemp = lowTemp;
GAS LISTING /var/folders/rt/4gvqv631095f64jvm7jfj_000000gn/T//ccaxTwoZ.s 			page 7


 243              		.loc 1 57 22
 244 013e 2319714B 		sh	s7,1202(sp)
  58:plant.c       ****   newPlant.highTemp = highTemp;
 245              		.loc 1 58 20
 246 0142 231F614B 		sh	s6,1214(sp)
  59:plant.c       **** 
 247              		.loc 1 59 21
 248 0146 2315514D 		sh	s5,1226(sp)
  49:plant.c       ****   newPlant.lowMoist = lowMoist;
 249              		.loc 1 49 23
 250 014a 135A0A01 		srli	s4,s4,16
 251              	.LVL11:
  50:plant.c       ****   newPlant.highMoist = highMoist;
 252              		.loc 1 50 21
 253 014e 93D90901 		srli	s3,s3,16
 254              	.LVL12:
  51:plant.c       **** 
 255              		.loc 1 51 22
 256 0152 13590901 		srli	s2,s2,16
 257              	.LVL13:
  53:plant.c       ****   newPlant.lowSun = lowSun;
 258              		.loc 1 53 21
 259 0156 C180     		srli	s1,s1,16
 260              	.LVL14:
  55:plant.c       **** 
 261              		.loc 1 55 20
 262 0158 135C0C01 		srli	s8,s8,16
  57:plant.c       ****   newPlant.lowTemp = lowTemp;
 263              		.loc 1 57 22
 264 015c 93DB0B01 		srli	s7,s7,16
  58:plant.c       ****   newPlant.highTemp = highTemp;
 265              		.loc 1 58 20
 266 0160 135B0B01 		srli	s6,s6,16
  59:plant.c       **** 
 267              		.loc 1 59 21
 268 0164 93DA0A01 		srli	s5,s5,16
 269              		.loc 1 61 30
 270 0168 1306E04C 		li	a2,1230
 271 016c 8A85     		mv	a1,sp
 272 016e 6A95     		add	a0,s10,a0
  62:plant.c       ****   (*numberOfPlants)++;
 273              		.loc 1 62 20
 274 0170 0504     		addi	s0,s0,1
  46:plant.c       ****   newPlant.tempInterval = 1800;
 275              		.loc 1 46 24
 276 0172 2312014A 		sh	zero,1188(sp)
  47:plant.c       **** 
 277              		.loc 1 47 3 is_stmt 1
  47:plant.c       **** 
 278              		.loc 1 47 25 is_stmt 0
 279 0176 2313F14A 		sh	a5,1190(sp)
 280 017a 2314014A 		sh	zero,1192(sp)
  49:plant.c       ****   newPlant.lowMoist = lowMoist;
 281              		.loc 1 49 3 is_stmt 1
  49:plant.c       ****   newPlant.lowMoist = lowMoist;
 282              		.loc 1 49 23 is_stmt 0
 283 017e 2316414B 		sh	s4,1196(sp)
GAS LISTING /var/folders/rt/4gvqv631095f64jvm7jfj_000000gn/T//ccaxTwoZ.s 			page 8


  50:plant.c       ****   newPlant.highMoist = highMoist;
 284              		.loc 1 50 3 is_stmt 1
  50:plant.c       ****   newPlant.highMoist = highMoist;
 285              		.loc 1 50 21 is_stmt 0
 286 0182 231C314B 		sh	s3,1208(sp)
  51:plant.c       **** 
 287              		.loc 1 51 3 is_stmt 1
  51:plant.c       **** 
 288              		.loc 1 51 22 is_stmt 0
 289 0186 2312214D 		sh	s2,1220(sp)
  53:plant.c       ****   newPlant.lowSun = lowSun;
 290              		.loc 1 53 3 is_stmt 1
  53:plant.c       ****   newPlant.lowSun = lowSun;
 291              		.loc 1 53 21 is_stmt 0
 292 018a 2318914A 		sh	s1,1200(sp)
  54:plant.c       ****   newPlant.highSun = highSun;
 293              		.loc 1 54 3 is_stmt 1
  55:plant.c       **** 
 294              		.loc 1 55 3
  55:plant.c       **** 
 295              		.loc 1 55 20 is_stmt 0
 296 018e 2314814D 		sh	s8,1224(sp)
  57:plant.c       ****   newPlant.lowTemp = lowTemp;
 297              		.loc 1 57 3 is_stmt 1
  57:plant.c       ****   newPlant.lowTemp = lowTemp;
 298              		.loc 1 57 22 is_stmt 0
 299 0192 231A714B 		sh	s7,1204(sp)
  58:plant.c       ****   newPlant.highTemp = highTemp;
 300              		.loc 1 58 3 is_stmt 1
  58:plant.c       ****   newPlant.highTemp = highTemp;
 301              		.loc 1 58 20 is_stmt 0
 302 0196 2310614D 		sh	s6,1216(sp)
  59:plant.c       **** 
 303              		.loc 1 59 3 is_stmt 1
  59:plant.c       **** 
 304              		.loc 1 59 21 is_stmt 0
 305 019a 2316514D 		sh	s5,1228(sp)
  61:plant.c       ****   (*numberOfPlants)++;
 306              		.loc 1 61 3 is_stmt 1
  61:plant.c       ****   (*numberOfPlants)++;
 307              		.loc 1 61 30 is_stmt 0
 308 019e 97000000 		call	memcpy
 308      E7800000 
 309              	.LVL15:
 310              		.loc 1 62 3 is_stmt 1
 311              		.loc 1 62 20 is_stmt 0
 312 01a6 23A08C00 		sw	s0,0(s9)
 313              	.LVL16:
 314              	.L3:
  63:plant.c       **** }
 315              		.loc 1 63 1
 316 01aa 8320C14F 		lw	ra,1276(sp)
 317              		.cfi_restore 1
 318 01ae 0324814F 		lw	s0,1272(sp)
 319              		.cfi_restore 8
 320 01b2 8324414F 		lw	s1,1268(sp)
 321              		.cfi_restore 9
GAS LISTING /var/folders/rt/4gvqv631095f64jvm7jfj_000000gn/T//ccaxTwoZ.s 			page 9


 322 01b6 0329014F 		lw	s2,1264(sp)
 323              		.cfi_restore 18
 324 01ba 8329C14E 		lw	s3,1260(sp)
 325              		.cfi_restore 19
 326 01be 032A814E 		lw	s4,1256(sp)
 327              		.cfi_restore 20
 328 01c2 832A414E 		lw	s5,1252(sp)
 329              		.cfi_restore 21
 330 01c6 032B014E 		lw	s6,1248(sp)
 331              		.cfi_restore 22
 332 01ca 832BC14D 		lw	s7,1244(sp)
 333              		.cfi_restore 23
 334 01ce 032C814D 		lw	s8,1240(sp)
 335              		.cfi_restore 24
 336 01d2 832C414D 		lw	s9,1236(sp)
 337              		.cfi_restore 25
 338 01d6 032D014D 		lw	s10,1232(sp)
 339              		.cfi_restore 26
 340 01da 13010150 		addi	sp,sp,1280
 341              	.LCFI3:
 342              		.cfi_def_cfa_offset 0
 343              	.LVL17:
 344 01de 8280     		jr	ra
 345              		.cfi_endproc
 346              	.LFE6:
 348              		.section	.text.updatePlantStatus,"ax",@progbits
 349              		.align	1
 350              		.globl	updatePlantStatus
 352              	updatePlantStatus:
 353              	.LFB8:
  64:plant.c       **** 
  65:plant.c       **** // plantID används inte förräns vi löst MUX osv. När det är gjort kommer värdet vidarebefodr
  66:plant.c       **** void updatePlantReadings(Plant *plant, SensorType type, int plantID)
  67:plant.c       **** {
  68:plant.c       ****   if (type == SUN)
  69:plant.c       ****   {
  70:plant.c       ****     ADC_read(1);
  71:plant.c       ****     int currentValue = ADC_read(1);
  72:plant.c       ****     if (currentValue < 0)
  73:plant.c       ****       currentValue = 0;
  74:plant.c       ****     if (plant->numberOfSunReadings <= MAX_SUN_READINGS)
  75:plant.c       ****     {
  76:plant.c       ****       // vi ska ta averagevärde för sol för att undvika för många värden. delar på 30 efters
  77:plant.c       ****       // och vi vill uppnå ett värde som representerar hela minutens genomsnitt. Detta är dock p
  78:plant.c       ****       plant->sun[plant->numberOfSunReadings - 1].reading += currentValue / 30;
  79:plant.c       ****       int32_t currentTime = rtc_counter_get();
  80:plant.c       ****       plant->sun[plant->numberOfSunReadings - 1].timeStamp = currentTime;
  81:plant.c       ****       // Special för ljus. Om detta är första värdet som tas så har vi precis bootat. Isåfall
  82:plant.c       ****       if (plant->numberOfSunReadings == 1)
  83:plant.c       ****       {
  84:plant.c       ****         if (currentTime >= 1800)
  85:plant.c       ****           (plant->numberOfSunReadings)++;
  86:plant.c       ****       }
  87:plant.c       ****       // Om det inte är första värdet så kan vi bara jämföra med timeStampen innan
  88:plant.c       ****       else if (plant->sun[plant->numberOfSunReadings - 1].timeStamp - plant->sun[plant->numberOfSun
  89:plant.c       ****         (plant->numberOfSunReadings)++;
  90:plant.c       ****     }
GAS LISTING /var/folders/rt/4gvqv631095f64jvm7jfj_000000gn/T//ccaxTwoZ.s 			page 10


  91:plant.c       **** 
  92:plant.c       ****     if (plant->numberOfSunReadings == MAX_SUN_READINGS)
  93:plant.c       ****     {
  94:plant.c       ****       // Dags för reset: 48 värden för dygnet har uppnåtts.
  95:plant.c       ****       int averageValueThisDay = 0;
  96:plant.c       ****       for (int i = 0; i < MAX_SUN_READINGS; i++)
  97:plant.c       ****       {
  98:plant.c       ****         averageValueThisDay += plant->sun[i].reading;
  99:plant.c       ****       }
 100:plant.c       ****       plant->numberOfSunReadings = 1;
 101:plant.c       **** 
 102:plant.c       ****       averageValueThisDay /= MAX_SUN_READINGS;
 103:plant.c       ****       // Flytta nuvarande värden så att senaste värde ligger först
 104:plant.c       ****       for (int i = AVG_HISTORY_DAYS-1; i > 0; i--)
 105:plant.c       ****       {
 106:plant.c       ****         plant->sunHistory[i] = plant->sunHistory[i - 1];
 107:plant.c       ****       }
 108:plant.c       ****       plant->sunHistory[0] = averageValueThisDay;
 109:plant.c       ****       // Öka antal sparade värden om de inte redan är max
 110:plant.c       ****       if (plant->numberOfSunHistory < AVG_HISTORY_DAYS)
 111:plant.c       ****         (plant->numberOfSunHistory)++;
 112:plant.c       ****     }
 113:plant.c       ****   }
 114:plant.c       ****    // SE KOMMENTARER FÖR SOL-SENSOR OVAN FÖR BESKRIVNING - SNARLIK PROCEDUR!
 115:plant.c       ****   else if (type == MOISTURE)
 116:plant.c       ****   {
 117:plant.c       ****     ADC_read(3);
 118:plant.c       ****     int currentValue = (int) ADC_read(3);
 119:plant.c       ****     if (currentValue < 0)
 120:plant.c       ****       currentValue = 0;
 121:plant.c       ****  
 122:plant.c       ****       if (plant->numberOfMoistureReadings <= MAX_MOISTURE_READINGS)
 123:plant.c       ****     {
 124:plant.c       ****       plant->moisture[plant->numberOfMoistureReadings - 1].reading = currentValue;
 125:plant.c       ****       int32_t currentTime = rtc_counter_get();
 126:plant.c       ****       plant->moisture[plant->numberOfMoistureReadings - 1].timeStamp = currentTime;
 127:plant.c       ****     }
 128:plant.c       **** 
 129:plant.c       ****     if (plant->numberOfMoistureReadings == MAX_MOISTURE_READINGS)
 130:plant.c       ****     {
 131:plant.c       ****       int averageValueThisDay = 0;
 132:plant.c       ****       for (int i = 0; i < MAX_MOISTURE_READINGS; i++)
 133:plant.c       ****       {
 134:plant.c       ****         averageValueThisDay += plant->moisture[i].reading;
 135:plant.c       ****       }
 136:plant.c       ****       plant->numberOfMoistureReadings = 1;
 137:plant.c       ****       averageValueThisDay /= MAX_MOISTURE_READINGS;
 138:plant.c       ****       for (int i = AVG_HISTORY_DAYS -1; i > 0; i--)
 139:plant.c       ****       {
 140:plant.c       ****         plant->moistHistory[i] = plant->moistHistory[i - 1];
 141:plant.c       ****       }
 142:plant.c       ****       plant->moistHistory[0] = averageValueThisDay;
 143:plant.c       ****       if (plant->numberOfMoistureHistory < AVG_HISTORY_DAYS)
 144:plant.c       ****         (plant->numberOfMoistureHistory)++;
 145:plant.c       ****     }
 146:plant.c       ****   }
 147:plant.c       ****   else if (type == TEMPERATURE)
GAS LISTING /var/folders/rt/4gvqv631095f64jvm7jfj_000000gn/T//ccaxTwoZ.s 			page 11


 148:plant.c       ****   {
 149:plant.c       ****     int currentValue = (int) read_temp();
 150:plant.c       ****     if (currentValue < 0)
 151:plant.c       ****       currentValue = 0;
 152:plant.c       **** 
 153:plant.c       ****     if (plant->numberOfTempReadings <= MAX_TEMP_READINGS)
 154:plant.c       ****     {
 155:plant.c       ****       plant->temp[plant->numberOfTempReadings - 1].reading = currentValue;
 156:plant.c       ****       int32_t currentTime = rtc_counter_get();
 157:plant.c       ****       plant->temp[plant->numberOfTempReadings - 1].timeStamp = currentTime;
 158:plant.c       ****     }
 159:plant.c       **** 
 160:plant.c       ****     if (plant->numberOfTempReadings == MAX_TEMP_READINGS)
 161:plant.c       ****     {
 162:plant.c       ****       int averageValueThisDay = 0;
 163:plant.c       ****       for (int i = 0; i < MAX_TEMP_READINGS; i++)
 164:plant.c       ****       {
 165:plant.c       ****         averageValueThisDay += plant->temp[i].reading;
 166:plant.c       ****       }
 167:plant.c       ****       plant->numberOfTempReadings = 1;
 168:plant.c       ****       averageValueThisDay /= MAX_TEMP_READINGS;
 169:plant.c       ****       for (int i = AVG_HISTORY_DAYS -1; i > 0; i--)
 170:plant.c       ****       {
 171:plant.c       ****         plant->tempHistory[i] = plant->tempHistory[i - 1];
 172:plant.c       ****       }
 173:plant.c       ****       plant->tempHistory[0] = averageValueThisDay;
 174:plant.c       ****       if (plant->numberOfTempHistory < AVG_HISTORY_DAYS)
 175:plant.c       ****         (plant->numberOfTempHistory)++;
 176:plant.c       ****     }
 177:plant.c       ****   }
 178:plant.c       ****   updatePlantStatus(plant);
 179:plant.c       **** }
 180:plant.c       **** 
 181:plant.c       **** void updatePlantStatus(Plant *plant)
 182:plant.c       **** {
 354              		.loc 1 182 1 is_stmt 1
 355              		.cfi_startproc
 356              	.LVL18:
 183:plant.c       ****   if (plant->sun[plant->numberOfSunReadings - 1].reading > plant->highSun)
 357              		.loc 1 183 3
 182:plant.c       ****   if (plant->sun[plant->numberOfSunReadings - 1].reading > plant->highSun)
 358              		.loc 1 182 1 is_stmt 0
 359 0000 4111     		addi	sp,sp,-16
 360              	.LCFI4:
 361              		.cfi_def_cfa_offset 16
 362 0002 22C4     		sw	s0,8(sp)
 363 0004 06C6     		sw	ra,12(sp)
 364              		.cfi_offset 8, -8
 365              		.cfi_offset 1, -4
 366              		.loc 1 183 23
 367 0006 03473532 		lbu	a4,803(a0)
 368 000a 83472532 		lbu	a5,802(a0)
 182:plant.c       ****   if (plant->sun[plant->numberOfSunReadings - 1].reading > plant->highSun)
 369              		.loc 1 182 1
 370 000e 2A84     		mv	s0,a0
 371              		.loc 1 183 23
 372 0010 2207     		slli	a4,a4,8
GAS LISTING /var/folders/rt/4gvqv631095f64jvm7jfj_000000gn/T//ccaxTwoZ.s 			page 12


 373 0012 5D8F     		or	a4,a4,a5
 374 0014 83474532 		lbu	a5,804(a0)
 375 0018 C207     		slli	a5,a5,16
 376 001a 5D8F     		or	a4,a5,a4
 377 001c 83475532 		lbu	a5,805(a0)
 378 0020 E207     		slli	a5,a5,24
 379 0022 D98F     		or	a5,a5,a4
 380              		.loc 1 183 49
 381 0024 E507     		addi	a5,a5,25
 382 0026 8E07     		slli	a5,a5,3
 383 0028 AA97     		add	a5,a0,a5
 384 002a 03C73701 		lbu	a4,19(a5)
 385 002e 83C62701 		lbu	a3,18(a5)
 386 0032 2207     		slli	a4,a4,8
 387 0034 D98E     		or	a3,a4,a3
 388 0036 03C74701 		lbu	a4,20(a5)
 389 003a 83C75701 		lbu	a5,21(a5)
 390 003e 4207     		slli	a4,a4,16
 391 0040 558F     		or	a4,a4,a3
 392 0042 E207     		slli	a5,a5,24
 393              		.loc 1 183 65
 394 0044 8346754C 		lbu	a3,1223(a0)
 395              		.loc 1 183 49
 396 0048 D98F     		or	a5,a5,a4
 397              		.loc 1 183 65
 398 004a 0347654C 		lbu	a4,1222(a0)
 399 004e A206     		slli	a3,a3,8
 400 0050 D98E     		or	a3,a3,a4
 401 0052 0347854C 		lbu	a4,1224(a0)
 402 0056 4207     		slli	a4,a4,16
 403 0058 D98E     		or	a3,a4,a3
 404 005a 0347954C 		lbu	a4,1225(a0)
 405 005e 6207     		slli	a4,a4,24
 406 0060 558F     		or	a4,a4,a3
 407              		.loc 1 183 6
 408 0062 6352F70A 		ble	a5,a4,.L8
 184:plant.c       ****   {
 185:plant.c       ****     STR_COPY(plant->currentStatus, "BEHÖVER SKUGGA");
 409              		.loc 1 185 5 is_stmt 1
 410 0066 B7060000 		lui	a3,%hi(.LC2)
 411 006a 37060000 		lui	a2,%hi(.LC0)
 412 006e BD45     		li	a1,15
 413 0070 93860600 		addi	a3,a3,%lo(.LC2)
 414 0074 13060600 		addi	a2,a2,%lo(.LC0)
 415 0078 3D05     		addi	a0,a0,15
 416              	.LVL19:
 417 007a 97000000 		call	snprintf
 417      E7800000 
 418              	.LVL20:
 186:plant.c       ****     gpio_bit_reset(GPIOB, GPIO_PIN_7);
 419              		.loc 1 186 5
 420 0082 37150140 		li	a0,1073811456
 421 0086 93050008 		li	a1,128
 422 008a 130505C0 		addi	a0,a0,-1024
 423 008e 97000000 		call	gpio_bit_reset
 423      E7800000 
 424              	.LVL21:
GAS LISTING /var/folders/rt/4gvqv631095f64jvm7jfj_000000gn/T//ccaxTwoZ.s 			page 13


 425              	.L9:
 187:plant.c       ****   }
 188:plant.c       ****   else if (plant->sun[plant->numberOfSunReadings - 1].reading < plant->lowSun)
 189:plant.c       ****   {
 190:plant.c       ****     STR_COPY(plant->currentStatus, "BEHÖVER LJUS");
 191:plant.c       ****     gpio_bit_set(GPIOB, GPIO_PIN_7);
 192:plant.c       ****   }
 193:plant.c       **** 
 194:plant.c       ****   if (plant->moisture[plant->numberOfMoistureReadings - 1].reading < plant->lowMoist)
 426              		.loc 1 194 3
 427              		.loc 1 194 28 is_stmt 0
 428 0096 0347F431 		lbu	a4,799(s0)
 429 009a 8347E431 		lbu	a5,798(s0)
 430 009e 2207     		slli	a4,a4,8
 431 00a0 5D8F     		or	a4,a4,a5
 432 00a2 83470432 		lbu	a5,800(s0)
 433 00a6 C207     		slli	a5,a5,16
 434 00a8 5D8F     		or	a4,a5,a4
 435 00aa 83471432 		lbu	a5,801(s0)
 436 00ae E207     		slli	a5,a5,24
 437 00b0 D98F     		or	a5,a5,a4
 438              		.loc 1 194 59
 439 00b2 8507     		addi	a5,a5,1
 440 00b4 8E07     		slli	a5,a5,3
 441 00b6 A297     		add	a5,s0,a5
 442 00b8 83C63701 		lbu	a3,19(a5)
 443 00bc 03C72701 		lbu	a4,18(a5)
 444 00c0 A206     		slli	a3,a3,8
 445 00c2 D98E     		or	a3,a3,a4
 446 00c4 03C74701 		lbu	a4,20(a5)
 447 00c8 4207     		slli	a4,a4,16
 448 00ca D98E     		or	a3,a4,a3
 449 00cc 03C75701 		lbu	a4,21(a5)
 450              		.loc 1 194 75
 451 00d0 8347644B 		lbu	a5,1206(s0)
 452              		.loc 1 194 59
 453 00d4 6207     		slli	a4,a4,24
 454 00d6 558F     		or	a4,a4,a3
 455              		.loc 1 194 75
 456 00d8 8346744B 		lbu	a3,1207(s0)
 457 00dc A206     		slli	a3,a3,8
 458 00de DD8E     		or	a3,a3,a5
 459 00e0 8347844B 		lbu	a5,1208(s0)
 460 00e4 C207     		slli	a5,a5,16
 461 00e6 DD8E     		or	a3,a5,a3
 462 00e8 8347944B 		lbu	a5,1209(s0)
 463 00ec E207     		slli	a5,a5,24
 464 00ee D58F     		or	a5,a5,a3
 465              		.loc 1 194 6
 466 00f0 635FF704 		bge	a4,a5,.L7
 195:plant.c       ****   {
 196:plant.c       ****     T1setPWMch0(900); // BÖRJA VATTNA, LAGOM FLÖDE = 900?
 467              		.loc 1 196 5 is_stmt 1
 197:plant.c       ****   }
 198:plant.c       ****   
 199:plant.c       **** }
 468              		.loc 1 199 1 is_stmt 0
GAS LISTING /var/folders/rt/4gvqv631095f64jvm7jfj_000000gn/T//ccaxTwoZ.s 			page 14


 469 00f4 2244     		lw	s0,8(sp)
 470              		.cfi_remember_state
 471              		.cfi_restore 8
 472              	.LVL22:
 473 00f6 B240     		lw	ra,12(sp)
 474              		.cfi_restore 1
 196:plant.c       ****   }
 475              		.loc 1 196 5
 476 00f8 13054038 		li	a0,900
 477              		.loc 1 199 1
 478 00fc 4101     		addi	sp,sp,16
 479              	.LCFI5:
 480              		.cfi_def_cfa_offset 0
 196:plant.c       ****   }
 481              		.loc 1 196 5
 482 00fe 17030000 		tail	T1setPWMch0
 482      67000300 
 483              	.LVL23:
 484              	.L8:
 485              	.LCFI6:
 486              		.cfi_restore_state
 188:plant.c       ****   {
 487              		.loc 1 188 8 is_stmt 1
 188:plant.c       ****   {
 488              		.loc 1 188 70 is_stmt 0
 489 0106 8346B54B 		lbu	a3,1211(a0)
 490 010a 0347A54B 		lbu	a4,1210(a0)
 491 010e A206     		slli	a3,a3,8
 492 0110 D98E     		or	a3,a3,a4
 493 0112 0347C54B 		lbu	a4,1212(a0)
 494 0116 4207     		slli	a4,a4,16
 495 0118 D98E     		or	a3,a4,a3
 496 011a 0347D54B 		lbu	a4,1213(a0)
 497 011e 6207     		slli	a4,a4,24
 498 0120 558F     		or	a4,a4,a3
 188:plant.c       ****   {
 499              		.loc 1 188 11
 500 0122 E3DAE7F6 		bge	a5,a4,.L9
 190:plant.c       ****     gpio_bit_set(GPIOB, GPIO_PIN_7);
 501              		.loc 1 190 5 is_stmt 1
 502 0126 B7050000 		lui	a1,%hi(.LC3)
 503 012a 93850500 		addi	a1,a1,%lo(.LC3)
 504 012e 3D05     		addi	a0,a0,15
 505 0130 97000000 		call	strcpy
 505      E7800000 
 506              	.LVL24:
 191:plant.c       ****   }
 507              		.loc 1 191 5
 508 0138 37150140 		li	a0,1073811456
 509 013c 93050008 		li	a1,128
 510 0140 130505C0 		addi	a0,a0,-1024
 511 0144 97000000 		call	gpio_bit_set
 511      E7800000 
 512              	.LVL25:
 513 014c A9B7     		j	.L9
 514              	.L7:
 515              		.loc 1 199 1 is_stmt 0
GAS LISTING /var/folders/rt/4gvqv631095f64jvm7jfj_000000gn/T//ccaxTwoZ.s 			page 15


 516 014e B240     		lw	ra,12(sp)
 517              		.cfi_restore 1
 518 0150 2244     		lw	s0,8(sp)
 519              		.cfi_restore 8
 520              	.LVL26:
 521 0152 4101     		addi	sp,sp,16
 522              	.LCFI7:
 523              		.cfi_def_cfa_offset 0
 524 0154 8280     		jr	ra
 525              		.cfi_endproc
 526              	.LFE8:
 528              		.globl	__fixsfsi
 529              		.section	.text.updatePlantReadings,"ax",@progbits
 530              		.align	1
 531              		.globl	updatePlantReadings
 533              	updatePlantReadings:
 534              	.LFB7:
  67:plant.c       ****   if (type == SUN)
 535              		.loc 1 67 1 is_stmt 1
 536              		.cfi_startproc
 537              	.LVL27:
  68:plant.c       ****   {
 538              		.loc 1 68 3
  67:plant.c       ****   if (type == SUN)
 539              		.loc 1 67 1 is_stmt 0
 540 0000 4111     		addi	sp,sp,-16
 541              	.LCFI8:
 542              		.cfi_def_cfa_offset 16
 543 0002 22C4     		sw	s0,8(sp)
 544 0004 06C6     		sw	ra,12(sp)
 545 0006 26C2     		sw	s1,4(sp)
 546              		.cfi_offset 8, -8
 547              		.cfi_offset 1, -4
 548              		.cfi_offset 9, -12
  68:plant.c       ****   {
 549              		.loc 1 68 6
 550 0008 8547     		li	a5,1
  67:plant.c       ****   if (type == SUN)
 551              		.loc 1 67 1
 552 000a 2A84     		mv	s0,a0
  68:plant.c       ****   {
 553              		.loc 1 68 6
 554 000c 6394F524 		bne	a1,a5,.L13
 555              	.LBB4:
  70:plant.c       ****     int currentValue = ADC_read(1);
 556              		.loc 1 70 5 is_stmt 1
 557 0010 0545     		li	a0,1
 558              	.LVL28:
 559 0012 97000000 		call	ADC_read
 559      E7800000 
 560              	.LVL29:
  71:plant.c       ****     if (currentValue < 0)
 561              		.loc 1 71 5
  71:plant.c       ****     if (currentValue < 0)
 562              		.loc 1 71 24 is_stmt 0
 563 001a 0545     		li	a0,1
 564 001c 97000000 		call	ADC_read
GAS LISTING /var/folders/rt/4gvqv631095f64jvm7jfj_000000gn/T//ccaxTwoZ.s 			page 16


 564      E7800000 
 565              	.LVL30:
  72:plant.c       ****       currentValue = 0;
 566              		.loc 1 72 5 is_stmt 1
  74:plant.c       ****     {
 567              		.loc 1 74 5
  74:plant.c       ****     {
 568              		.loc 1 74 14 is_stmt 0
 569 0024 03473432 		lbu	a4,803(s0)
 570 0028 83472432 		lbu	a5,802(s0)
 571 002c 2207     		slli	a4,a4,8
 572 002e 5D8F     		or	a4,a4,a5
 573 0030 83474432 		lbu	a5,804(s0)
 574 0034 C207     		slli	a5,a5,16
 575 0036 5D8F     		or	a4,a5,a4
 576 0038 83475432 		lbu	a5,805(s0)
 577 003c E207     		slli	a5,a5,24
 578 003e D98F     		or	a5,a5,a4
  74:plant.c       ****     {
 579              		.loc 1 74 8
 580 0040 13070003 		li	a4,48
 581 0044 6349F70A 		bgt	a5,a4,.L21
 582              	.LBB5:
  78:plant.c       ****       int32_t currentTime = rtc_counter_get();
 583              		.loc 1 78 7 is_stmt 1
 584 0048 8E07     		slli	a5,a5,3
 585 004a A297     		add	a5,s0,a5
  78:plant.c       ****       int32_t currentTime = rtc_counter_get();
 586              		.loc 1 78 74 is_stmt 0
 587 004c 63530500 		bge	a0,zero,.L15
 588 0050 0145     		li	a0,0
 589              	.LVL31:
 590              	.L15:
 591 0052 7947     		li	a4,30
 592 0054 3345E502 		div	a0,a0,a4
  78:plant.c       ****       int32_t currentTime = rtc_counter_get();
 593              		.loc 1 78 58
 594 0058 83C6B70D 		lbu	a3,219(a5)
 595 005c 03C7A70D 		lbu	a4,218(a5)
 596 0060 A206     		slli	a3,a3,8
 597 0062 D98E     		or	a3,a3,a4
 598 0064 03C7C70D 		lbu	a4,220(a5)
 599 0068 4207     		slli	a4,a4,16
 600 006a D98E     		or	a3,a4,a3
 601 006c 03C7D70D 		lbu	a4,221(a5)
 602 0070 6207     		slli	a4,a4,24
 603 0072 558F     		or	a4,a4,a3
 604 0074 3A95     		add	a0,a0,a4
 605 0076 13578500 		srli	a4,a0,8
 606 007a 238DA70C 		sb	a0,218(a5)
 607 007e A38DE70C 		sb	a4,219(a5)
 608 0082 13570501 		srli	a4,a0,16
 609 0086 6181     		srli	a0,a0,24
 610 0088 238EE70C 		sb	a4,220(a5)
 611 008c A38EA70C 		sb	a0,221(a5)
  79:plant.c       ****       plant->sun[plant->numberOfSunReadings - 1].timeStamp = currentTime;
 612              		.loc 1 79 7 is_stmt 1
GAS LISTING /var/folders/rt/4gvqv631095f64jvm7jfj_000000gn/T//ccaxTwoZ.s 			page 17


  79:plant.c       ****       plant->sun[plant->numberOfSunReadings - 1].timeStamp = currentTime;
 613              		.loc 1 79 29 is_stmt 0
 614 0090 97000000 		call	rtc_counter_get
 614      E7800000 
 615              	.LVL32:
  80:plant.c       ****       // Special för ljus. Om detta är första värdet som tas så har vi precis bootat. Isåfall
 616              		.loc 1 80 7 is_stmt 1
  80:plant.c       ****       // Special för ljus. Om detta är första värdet som tas så har vi precis bootat. Isåfall
 617              		.loc 1 80 23 is_stmt 0
 618 0098 03473432 		lbu	a4,803(s0)
 619 009c 83472432 		lbu	a5,802(s0)
  80:plant.c       ****       // Special för ljus. Om detta är första värdet som tas så har vi precis bootat. Isåfall
 620              		.loc 1 80 60
 621 00a0 93568500 		srli	a3,a0,8
  80:plant.c       ****       // Special för ljus. Om detta är första värdet som tas så har vi precis bootat. Isåfall
 622              		.loc 1 80 23
 623 00a4 2207     		slli	a4,a4,8
 624 00a6 5D8F     		or	a4,a4,a5
 625 00a8 83474432 		lbu	a5,804(s0)
 626 00ac C207     		slli	a5,a5,16
 627 00ae 5D8F     		or	a4,a5,a4
 628 00b0 83475432 		lbu	a5,805(s0)
 629 00b4 E207     		slli	a5,a5,24
 630 00b6 D98F     		or	a5,a5,a4
 631 00b8 13973700 		slli	a4,a5,3
 632 00bc 2297     		add	a4,s0,a4
  80:plant.c       ****       // Special för ljus. Om detta är första värdet som tas så har vi precis bootat. Isåfall
 633              		.loc 1 80 60
 634 00be A30BD70C 		sb	a3,215(a4)
 635 00c2 93560501 		srli	a3,a0,16
 636 00c6 230CD70C 		sb	a3,216(a4)
 637 00ca 93568501 		srli	a3,a0,24
 638 00ce A30CD70C 		sb	a3,217(a4)
  82:plant.c       ****       {
 639              		.loc 1 82 7 is_stmt 1
  80:plant.c       ****       // Special för ljus. Om detta är första värdet som tas så har vi precis bootat. Isåfall
 640              		.loc 1 80 60 is_stmt 0
 641 00d2 230BA70C 		sb	a0,214(a4)
  82:plant.c       ****       {
 642              		.loc 1 82 10
 643 00d6 8546     		li	a3,1
 644 00d8 6398D702 		bne	a5,a3,.L16
  84:plant.c       ****           (plant->numberOfSunReadings)++;
 645              		.loc 1 84 9 is_stmt 1
  84:plant.c       ****           (plant->numberOfSunReadings)++;
 646              		.loc 1 84 12 is_stmt 0
 647 00dc 93077070 		li	a5,1799
 648 00e0 63DBA700 		ble	a0,a5,.L21
  85:plant.c       ****       }
 649              		.loc 1 85 11 is_stmt 1
  85:plant.c       ****       }
 650              		.loc 1 85 39 is_stmt 0
 651 00e4 8947     		li	a5,2
 652 00e6 2301F432 		sb	a5,802(s0)
 653 00ea A3010432 		sb	zero,803(s0)
 654 00ee 23020432 		sb	zero,804(s0)
 655 00f2 A3020432 		sb	zero,805(s0)
GAS LISTING /var/folders/rt/4gvqv631095f64jvm7jfj_000000gn/T//ccaxTwoZ.s 			page 18


 656              	.LVL33:
 657              	.L21:
 658              	.LBE5:
 659              	.LBE4:
 178:plant.c       **** }
 660              		.loc 1 178 3 is_stmt 1
 661 00f6 2285     		mv	a0,s0
 179:plant.c       **** 
 662              		.loc 1 179 1 is_stmt 0
 663 00f8 2244     		lw	s0,8(sp)
 664              		.cfi_remember_state
 665              		.cfi_restore 8
 666              	.LVL34:
 667 00fa B240     		lw	ra,12(sp)
 668              		.cfi_restore 1
 669 00fc 9244     		lw	s1,4(sp)
 670              		.cfi_restore 9
 671 00fe 4101     		addi	sp,sp,16
 672              	.LCFI9:
 673              		.cfi_def_cfa_offset 0
 178:plant.c       **** }
 674              		.loc 1 178 3
 675 0100 17030000 		tail	updatePlantStatus
 675      67000300 
 676              	.LVL35:
 677              	.L16:
 678              	.LCFI10:
 679              		.cfi_restore_state
 680              	.LBB11:
 681              	.LBB6:
  88:plant.c       ****         (plant->numberOfSunReadings)++;
 682              		.loc 1 88 12 is_stmt 1
  88:plant.c       ****         (plant->numberOfSunReadings)++;
 683              		.loc 1 88 113 is_stmt 0
 684 0108 8346F70C 		lbu	a3,207(a4)
 685 010c 0346E70C 		lbu	a2,206(a4)
 686 0110 A206     		slli	a3,a3,8
 687 0112 558E     		or	a2,a3,a2
 688 0114 8346070D 		lbu	a3,208(a4)
 689 0118 0347170D 		lbu	a4,209(a4)
 690 011c C206     		slli	a3,a3,16
 691 011e D18E     		or	a3,a3,a2
 692 0120 6207     		slli	a4,a4,24
 693 0122 558F     		or	a4,a4,a3
  88:plant.c       ****         (plant->numberOfSunReadings)++;
 694              		.loc 1 88 69
 695 0124 198D     		sub	a0,a0,a4
 696              	.LVL36:
  88:plant.c       ****         (plant->numberOfSunReadings)++;
 697              		.loc 1 88 15
 698 0126 13077070 		li	a4,1799
 699 012a 6370A702 		bleu	a0,a4,.L18
  89:plant.c       ****     }
 700              		.loc 1 89 9 is_stmt 1
  89:plant.c       ****     }
 701              		.loc 1 89 37 is_stmt 0
 702 012e 8507     		addi	a5,a5,1
GAS LISTING /var/folders/rt/4gvqv631095f64jvm7jfj_000000gn/T//ccaxTwoZ.s 			page 19


 703 0130 13D78700 		srli	a4,a5,8
 704 0134 2301F432 		sb	a5,802(s0)
 705 0138 A301E432 		sb	a4,803(s0)
 706 013c 13D70701 		srli	a4,a5,16
 707 0140 E183     		srli	a5,a5,24
 708 0142 2302E432 		sb	a4,804(s0)
 709 0146 A302F432 		sb	a5,805(s0)
 710              	.L18:
 711              	.LBE6:
  92:plant.c       ****     {
 712              		.loc 1 92 5 is_stmt 1
  92:plant.c       ****     {
 713              		.loc 1 92 14 is_stmt 0
 714 014a 03473432 		lbu	a4,803(s0)
 715 014e 83472432 		lbu	a5,802(s0)
 716 0152 2207     		slli	a4,a4,8
 717 0154 5D8F     		or	a4,a4,a5
 718 0156 83474432 		lbu	a5,804(s0)
 719 015a C207     		slli	a5,a5,16
 720 015c 5D8F     		or	a4,a5,a4
 721 015e 83475432 		lbu	a5,805(s0)
 722 0162 E207     		slli	a5,a5,24
 723 0164 D98F     		or	a5,a5,a4
  92:plant.c       ****     {
 724              		.loc 1 92 8
 725 0166 13070003 		li	a4,48
 726 016a E396E7F8 		bne	a5,a4,.L21
 727              	.LBB7:
 728              	.LBB8:
  96:plant.c       ****       {
 729              		.loc 1 96 16
 730 016e 8146     		li	a3,0
 731              	.LBE8:
  95:plant.c       ****       for (int i = 0; i < MAX_SUN_READINGS; i++)
 732              		.loc 1 95 11
 733 0170 8147     		li	a5,0
 734              	.LBB9:
  96:plant.c       ****       {
 735              		.loc 1 96 7
 736 0172 13050003 		li	a0,48
 737              	.L19:
 738              	.LVL37:
  98:plant.c       ****       }
 739              		.loc 1 98 9 is_stmt 1 discriminator 3
  98:plant.c       ****       }
 740              		.loc 1 98 45 is_stmt 0 discriminator 3
 741 0176 1387A601 		addi	a4,a3,26
 742 017a 0E07     		slli	a4,a4,3
 743 017c 2297     		add	a4,s0,a4
 744 017e 03463701 		lbu	a2,19(a4)
 745 0182 83452701 		lbu	a1,18(a4)
  96:plant.c       ****       {
 746              		.loc 1 96 46 discriminator 3
 747 0186 8506     		addi	a3,a3,1
 748              	.LVL38:
  98:plant.c       ****       }
 749              		.loc 1 98 45 discriminator 3
GAS LISTING /var/folders/rt/4gvqv631095f64jvm7jfj_000000gn/T//ccaxTwoZ.s 			page 20


 750 0188 2206     		slli	a2,a2,8
 751 018a D18D     		or	a1,a2,a1
 752 018c 03464701 		lbu	a2,20(a4)
 753 0190 03475701 		lbu	a4,21(a4)
 754 0194 4206     		slli	a2,a2,16
 755 0196 4D8E     		or	a2,a2,a1
 756 0198 6207     		slli	a4,a4,24
 757 019a 518F     		or	a4,a4,a2
  98:plant.c       ****       }
 758              		.loc 1 98 29 discriminator 3
 759 019c BA97     		add	a5,a5,a4
 760              	.LVL39:
  96:plant.c       ****       {
 761              		.loc 1 96 7 discriminator 3
 762 019e E39CA6FC 		bne	a3,a0,.L19
 763              	.LBE9:
 100:plant.c       **** 
 764              		.loc 1 100 7 is_stmt 1
 102:plant.c       ****       // Flytta nuvarande värden så att senaste värde ligger först
 765              		.loc 1 102 27 is_stmt 0
 766 01a2 B3C7D702 		div	a5,a5,a3
 767              	.LVL40:
 100:plant.c       **** 
 768              		.loc 1 100 34
 769 01a6 0547     		li	a4,1
 770 01a8 2301E432 		sb	a4,802(s0)
 771 01ac A3010432 		sb	zero,803(s0)
 772 01b0 23020432 		sb	zero,804(s0)
 773 01b4 A3020432 		sb	zero,805(s0)
 102:plant.c       ****       // Flytta nuvarande värden så att senaste värde ligger först
 774              		.loc 1 102 7 is_stmt 1
 775              	.LVL41:
 104:plant.c       ****       {
 776              		.loc 1 104 7
 777              	.LBB10:
 104:plant.c       ****       {
 778              		.loc 1 104 12
 104:plant.c       ****       {
 779              		.loc 1 104 16 is_stmt 0
 780 01b8 F545     		li	a1,29
 781              	.LVL42:
 782              	.L20:
 106:plant.c       ****       }
 783              		.loc 1 106 9 is_stmt 1 discriminator 3
 784 01ba 13972500 		slli	a4,a1,2
 785 01be 2297     		add	a4,s0,a4
 106:plant.c       ****       }
 786              		.loc 1 106 49 is_stmt 0 discriminator 3
 787 01c0 0346F739 		lbu	a2,927(a4)
 788 01c4 8346E739 		lbu	a3,926(a4)
 789 01c8 FD15     		addi	a1,a1,-1
 790              	.LVL43:
 791 01ca 2206     		slli	a2,a2,8
 792 01cc 558E     		or	a2,a2,a3
 793 01ce 8346073A 		lbu	a3,928(a4)
 794 01d2 C206     		slli	a3,a3,16
 795 01d4 558E     		or	a2,a3,a2
GAS LISTING /var/folders/rt/4gvqv631095f64jvm7jfj_000000gn/T//ccaxTwoZ.s 			page 21


 796 01d6 8346173A 		lbu	a3,929(a4)
 797 01da E206     		slli	a3,a3,24
 798 01dc D18E     		or	a3,a3,a2
 106:plant.c       ****       }
 799              		.loc 1 106 30 discriminator 3
 800 01de 13D68600 		srli	a2,a3,8
 801 01e2 2301D73A 		sb	a3,930(a4)
 802 01e6 A301C73A 		sb	a2,931(a4)
 803 01ea 13D60601 		srli	a2,a3,16
 804 01ee E182     		srli	a3,a3,24
 805 01f0 2302C73A 		sb	a2,932(a4)
 806 01f4 A302D73A 		sb	a3,933(a4)
 807              	.LVL44:
 104:plant.c       ****       {
 808              		.loc 1 104 7 discriminator 3
 809 01f8 E9F1     		bne	a1,zero,.L20
 810              	.LBE10:
 108:plant.c       ****       // Öka antal sparade värden om de inte redan är max
 811              		.loc 1 108 7 is_stmt 1
 108:plant.c       ****       // Öka antal sparade värden om de inte redan är max
 812              		.loc 1 108 28 is_stmt 0
 813 01fa 13D78700 		srli	a4,a5,8
 814 01fe A301E43A 		sb	a4,931(s0)
 815 0202 13D70701 		srli	a4,a5,16
 816 0206 2301F43A 		sb	a5,930(s0)
 817 020a 2302E43A 		sb	a4,932(s0)
 818 020e E183     		srli	a5,a5,24
 819              	.LVL45:
 110:plant.c       ****         (plant->numberOfSunHistory)++;
 820              		.loc 1 110 16
 821 0210 03477449 		lbu	a4,1175(s0)
 108:plant.c       ****       // Öka antal sparade värden om de inte redan är max
 822              		.loc 1 108 28
 823 0214 A302F43A 		sb	a5,933(s0)
 110:plant.c       ****         (plant->numberOfSunHistory)++;
 824              		.loc 1 110 7 is_stmt 1
 110:plant.c       ****         (plant->numberOfSunHistory)++;
 825              		.loc 1 110 16 is_stmt 0
 826 0218 83476449 		lbu	a5,1174(s0)
 827 021c 2207     		slli	a4,a4,8
 828 021e 5D8F     		or	a4,a4,a5
 829 0220 83478449 		lbu	a5,1176(s0)
 830 0224 C207     		slli	a5,a5,16
 831 0226 5D8F     		or	a4,a5,a4
 832 0228 83479449 		lbu	a5,1177(s0)
 833 022c E207     		slli	a5,a5,24
 834 022e D98F     		or	a5,a5,a4
 110:plant.c       ****         (plant->numberOfSunHistory)++;
 835              		.loc 1 110 10
 836 0230 7547     		li	a4,29
 837 0232 E342F7EC 		bgt	a5,a4,.L21
 111:plant.c       ****     }
 838              		.loc 1 111 9 is_stmt 1
 111:plant.c       ****     }
 839              		.loc 1 111 36 is_stmt 0
 840 0236 8507     		addi	a5,a5,1
 841 0238 13D78700 		srli	a4,a5,8
GAS LISTING /var/folders/rt/4gvqv631095f64jvm7jfj_000000gn/T//ccaxTwoZ.s 			page 22


 842 023c 230BF448 		sb	a5,1174(s0)
 843 0240 A30BE448 		sb	a4,1175(s0)
 844 0244 13D70701 		srli	a4,a5,16
 845 0248 E183     		srli	a5,a5,24
 846 024a 230CE448 		sb	a4,1176(s0)
 847 024e A30CF448 		sb	a5,1177(s0)
 848 0252 55B5     		j	.L21
 849              	.LVL46:
 850              	.L13:
 851              	.LBE7:
 852              	.LBE11:
 115:plant.c       ****   {
 853              		.loc 1 115 8 is_stmt 1
 115:plant.c       ****   {
 854              		.loc 1 115 11 is_stmt 0
 855 0254 63980518 		bne	a1,zero,.L22
 856              	.LBB12:
 117:plant.c       ****     int currentValue = (int) ADC_read(3);
 857              		.loc 1 117 5 is_stmt 1
 858 0258 0D45     		li	a0,3
 859 025a 97000000 		call	ADC_read
 859      E7800000 
 860              	.LVL47:
 118:plant.c       ****     if (currentValue < 0)
 861              		.loc 1 118 5
 118:plant.c       ****     if (currentValue < 0)
 862              		.loc 1 118 24 is_stmt 0
 863 0262 0D45     		li	a0,3
 864 0264 97000000 		call	ADC_read
 864      E7800000 
 865              	.LVL48:
 119:plant.c       ****       currentValue = 0;
 866              		.loc 1 119 5 is_stmt 1
 122:plant.c       ****     {
 867              		.loc 1 122 7
 122:plant.c       ****     {
 868              		.loc 1 122 16 is_stmt 0
 869 026c 0347F431 		lbu	a4,799(s0)
 870 0270 8347E431 		lbu	a5,798(s0)
 871 0274 2207     		slli	a4,a4,8
 872 0276 5D8F     		or	a4,a4,a5
 873 0278 83470432 		lbu	a5,800(s0)
 874 027c C207     		slli	a5,a5,16
 875 027e 5D8F     		or	a4,a5,a4
 876 0280 83471432 		lbu	a5,801(s0)
 877 0284 E207     		slli	a5,a5,24
 878 0286 D98F     		or	a5,a5,a4
 122:plant.c       ****     {
 879              		.loc 1 122 10
 880 0288 6147     		li	a4,24
 881 028a E346F7E6 		bgt	a5,a4,.L21
 882              	.LBB13:
 124:plant.c       ****       int32_t currentTime = rtc_counter_get();
 883              		.loc 1 124 7 is_stmt 1
 124:plant.c       ****       int32_t currentTime = rtc_counter_get();
 884              		.loc 1 124 68 is_stmt 0
 885 028e 8507     		addi	a5,a5,1
GAS LISTING /var/folders/rt/4gvqv631095f64jvm7jfj_000000gn/T//ccaxTwoZ.s 			page 23


 886 0290 8E07     		slli	a5,a5,3
 887 0292 A297     		add	a5,s0,a5
 888 0294 63530500 		bge	a0,zero,.L23
 889 0298 0145     		li	a0,0
 890              	.LVL49:
 891              	.L23:
 892 029a 13578500 		srli	a4,a0,8
 893 029e 2389A700 		sb	a0,18(a5)
 894 02a2 A389E700 		sb	a4,19(a5)
 895 02a6 13570501 		srli	a4,a0,16
 896 02aa 6181     		srli	a0,a0,24
 897 02ac 238AE700 		sb	a4,20(a5)
 898 02b0 A38AA700 		sb	a0,21(a5)
 125:plant.c       ****       plant->moisture[plant->numberOfMoistureReadings - 1].timeStamp = currentTime;
 899              		.loc 1 125 7 is_stmt 1
 125:plant.c       ****       plant->moisture[plant->numberOfMoistureReadings - 1].timeStamp = currentTime;
 900              		.loc 1 125 29 is_stmt 0
 901 02b4 97000000 		call	rtc_counter_get
 901      E7800000 
 902              	.LVL50:
 126:plant.c       ****     }
 903              		.loc 1 126 7 is_stmt 1
 126:plant.c       ****     }
 904              		.loc 1 126 28 is_stmt 0
 905 02bc 8347F431 		lbu	a5,799(s0)
 906 02c0 0347E431 		lbu	a4,798(s0)
 126:plant.c       ****     }
 907              		.loc 1 126 70
 908 02c4 93568500 		srli	a3,a0,8
 126:plant.c       ****     }
 909              		.loc 1 126 28
 910 02c8 A207     		slli	a5,a5,8
 911 02ca D98F     		or	a5,a5,a4
 912 02cc 03470432 		lbu	a4,800(s0)
 913 02d0 4207     		slli	a4,a4,16
 914 02d2 D98F     		or	a5,a4,a5
 915 02d4 03471432 		lbu	a4,801(s0)
 916 02d8 6207     		slli	a4,a4,24
 917 02da 5D8F     		or	a4,a4,a5
 126:plant.c       ****     }
 918              		.loc 1 126 70
 919 02dc 93071700 		addi	a5,a4,1
 920 02e0 8E07     		slli	a5,a5,3
 921 02e2 A297     		add	a5,s0,a5
 922 02e4 2387A700 		sb	a0,14(a5)
 923 02e8 A387D700 		sb	a3,15(a5)
 924 02ec 93560501 		srli	a3,a0,16
 925 02f0 6181     		srli	a0,a0,24
 926              	.LVL51:
 927 02f2 2388D700 		sb	a3,16(a5)
 928 02f6 A388A700 		sb	a0,17(a5)
 929              	.LBE13:
 129:plant.c       ****     {
 930              		.loc 1 129 5 is_stmt 1
 129:plant.c       ****     {
 931              		.loc 1 129 8 is_stmt 0
 932 02fa E147     		li	a5,24
GAS LISTING /var/folders/rt/4gvqv631095f64jvm7jfj_000000gn/T//ccaxTwoZ.s 			page 24


 933 02fc E31DF7DE 		bne	a4,a5,.L21
 934              	.LBB14:
 935              	.LBB15:
 132:plant.c       ****       {
 936              		.loc 1 132 16
 937 0300 8146     		li	a3,0
 938              	.LBE15:
 131:plant.c       ****       for (int i = 0; i < MAX_MOISTURE_READINGS; i++)
 939              		.loc 1 131 11
 940 0302 8147     		li	a5,0
 941              	.LBB16:
 132:plant.c       ****       {
 942              		.loc 1 132 7
 943 0304 6145     		li	a0,24
 944              	.L24:
 945              	.LVL52:
 134:plant.c       ****       }
 946              		.loc 1 134 9 is_stmt 1 discriminator 3
 134:plant.c       ****       }
 947              		.loc 1 134 50 is_stmt 0 discriminator 3
 948 0306 13872600 		addi	a4,a3,2
 949 030a 0E07     		slli	a4,a4,3
 950 030c 2297     		add	a4,s0,a4
 951 030e 03463701 		lbu	a2,19(a4)
 952 0312 83452701 		lbu	a1,18(a4)
 132:plant.c       ****       {
 953              		.loc 1 132 51 discriminator 3
 954 0316 8506     		addi	a3,a3,1
 955              	.LVL53:
 134:plant.c       ****       }
 956              		.loc 1 134 50 discriminator 3
 957 0318 2206     		slli	a2,a2,8
 958 031a D18D     		or	a1,a2,a1
 959 031c 03464701 		lbu	a2,20(a4)
 960 0320 03475701 		lbu	a4,21(a4)
 961 0324 4206     		slli	a2,a2,16
 962 0326 4D8E     		or	a2,a2,a1
 963 0328 6207     		slli	a4,a4,24
 964 032a 518F     		or	a4,a4,a2
 134:plant.c       ****       }
 965              		.loc 1 134 29 discriminator 3
 966 032c BA97     		add	a5,a5,a4
 967              	.LVL54:
 132:plant.c       ****       {
 968              		.loc 1 132 7 discriminator 3
 969 032e E39CA6FC 		bne	a3,a0,.L24
 970              	.LBE16:
 136:plant.c       ****       averageValueThisDay /= MAX_MOISTURE_READINGS;
 971              		.loc 1 136 7 is_stmt 1
 137:plant.c       ****       for (int i = AVG_HISTORY_DAYS -1; i > 0; i--)
 972              		.loc 1 137 27 is_stmt 0
 973 0332 B3C7D702 		div	a5,a5,a3
 974              	.LVL55:
 136:plant.c       ****       averageValueThisDay /= MAX_MOISTURE_READINGS;
 975              		.loc 1 136 39
 976 0336 0547     		li	a4,1
 977 0338 230FE430 		sb	a4,798(s0)
GAS LISTING /var/folders/rt/4gvqv631095f64jvm7jfj_000000gn/T//ccaxTwoZ.s 			page 25


 978 033c A30F0430 		sb	zero,799(s0)
 979 0340 23000432 		sb	zero,800(s0)
 980 0344 A3000432 		sb	zero,801(s0)
 137:plant.c       ****       for (int i = AVG_HISTORY_DAYS -1; i > 0; i--)
 981              		.loc 1 137 7 is_stmt 1
 982              	.LVL56:
 138:plant.c       ****       {
 983              		.loc 1 138 7
 984              	.LBB17:
 138:plant.c       ****       {
 985              		.loc 1 138 12
 138:plant.c       ****       {
 986              		.loc 1 138 16 is_stmt 0
 987 0348 F545     		li	a1,29
 988              	.LVL57:
 989              	.L25:
 140:plant.c       ****       }
 990              		.loc 1 140 9 is_stmt 1 discriminator 3
 991 034a 13972500 		slli	a4,a1,2
 992 034e 2297     		add	a4,s0,a4
 140:plant.c       ****       }
 993              		.loc 1 140 53 is_stmt 0 discriminator 3
 994 0350 03467732 		lbu	a2,807(a4)
 995 0354 83466732 		lbu	a3,806(a4)
 996 0358 FD15     		addi	a1,a1,-1
 997              	.LVL58:
 998 035a 2206     		slli	a2,a2,8
 999 035c 558E     		or	a2,a2,a3
 1000 035e 83468732 		lbu	a3,808(a4)
 1001 0362 C206     		slli	a3,a3,16
 1002 0364 558E     		or	a2,a3,a2
 1003 0366 83469732 		lbu	a3,809(a4)
 1004 036a E206     		slli	a3,a3,24
 1005 036c D18E     		or	a3,a3,a2
 140:plant.c       ****       }
 1006              		.loc 1 140 32 discriminator 3
 1007 036e 13D68600 		srli	a2,a3,8
 1008 0372 2305D732 		sb	a3,810(a4)
 1009 0376 A305C732 		sb	a2,811(a4)
 1010 037a 13D60601 		srli	a2,a3,16
 1011 037e E182     		srli	a3,a3,24
 1012 0380 2306C732 		sb	a2,812(a4)
 1013 0384 A306D732 		sb	a3,813(a4)
 1014              	.LVL59:
 138:plant.c       ****       {
 1015              		.loc 1 138 7 discriminator 3
 1016 0388 E9F1     		bne	a1,zero,.L25
 1017              	.LBE17:
 142:plant.c       ****       if (plant->numberOfMoistureHistory < AVG_HISTORY_DAYS)
 1018              		.loc 1 142 7 is_stmt 1
 142:plant.c       ****       if (plant->numberOfMoistureHistory < AVG_HISTORY_DAYS)
 1019              		.loc 1 142 30 is_stmt 0
 1020 038a 13D78700 		srli	a4,a5,8
 1021 038e A305E432 		sb	a4,811(s0)
 1022 0392 13D70701 		srli	a4,a5,16
 1023 0396 2305F432 		sb	a5,810(s0)
 1024 039a 2306E432 		sb	a4,812(s0)
GAS LISTING /var/folders/rt/4gvqv631095f64jvm7jfj_000000gn/T//ccaxTwoZ.s 			page 26


 1025 039e E183     		srli	a5,a5,24
 1026              	.LVL60:
 143:plant.c       ****         (plant->numberOfMoistureHistory)++;
 1027              		.loc 1 143 16
 1028 03a0 03473449 		lbu	a4,1171(s0)
 142:plant.c       ****       if (plant->numberOfMoistureHistory < AVG_HISTORY_DAYS)
 1029              		.loc 1 142 30
 1030 03a4 A306F432 		sb	a5,813(s0)
 143:plant.c       ****         (plant->numberOfMoistureHistory)++;
 1031              		.loc 1 143 7 is_stmt 1
 143:plant.c       ****         (plant->numberOfMoistureHistory)++;
 1032              		.loc 1 143 16 is_stmt 0
 1033 03a8 83472449 		lbu	a5,1170(s0)
 1034 03ac 2207     		slli	a4,a4,8
 1035 03ae 5D8F     		or	a4,a4,a5
 1036 03b0 83474449 		lbu	a5,1172(s0)
 1037 03b4 C207     		slli	a5,a5,16
 1038 03b6 5D8F     		or	a4,a5,a4
 1039 03b8 83475449 		lbu	a5,1173(s0)
 1040 03bc E207     		slli	a5,a5,24
 1041 03be D98F     		or	a5,a5,a4
 143:plant.c       ****         (plant->numberOfMoistureHistory)++;
 1042              		.loc 1 143 10
 1043 03c0 7547     		li	a4,29
 1044 03c2 E34AF7D2 		bgt	a5,a4,.L21
 144:plant.c       ****     }
 1045              		.loc 1 144 9 is_stmt 1
 144:plant.c       ****     }
 1046              		.loc 1 144 41 is_stmt 0
 1047 03c6 8507     		addi	a5,a5,1
 1048 03c8 13D78700 		srli	a4,a5,8
 1049 03cc 2309F448 		sb	a5,1170(s0)
 1050 03d0 A309E448 		sb	a4,1171(s0)
 1051 03d4 13D70701 		srli	a4,a5,16
 1052 03d8 E183     		srli	a5,a5,24
 1053 03da 230AE448 		sb	a4,1172(s0)
 1054 03de A30AF448 		sb	a5,1173(s0)
 1055 03e2 11BB     		j	.L21
 1056              	.LVL61:
 1057              	.L22:
 1058              	.LBE14:
 1059              	.LBE12:
 147:plant.c       ****   {
 1060              		.loc 1 147 8 is_stmt 1
 147:plant.c       ****   {
 1061              		.loc 1 147 11 is_stmt 0
 1062 03e4 8947     		li	a5,2
 1063 03e6 E398F5D0 		bne	a1,a5,.L21
 1064              	.LBB18:
 149:plant.c       ****     if (currentValue < 0)
 1065              		.loc 1 149 5 is_stmt 1
 149:plant.c       ****     if (currentValue < 0)
 1066              		.loc 1 149 30 is_stmt 0
 1067 03ea 97000000 		call	read_temp
 1067      E7800000 
 1068              	.LVL62:
 150:plant.c       ****       currentValue = 0;
GAS LISTING /var/folders/rt/4gvqv631095f64jvm7jfj_000000gn/T//ccaxTwoZ.s 			page 27


 1069              		.loc 1 150 5 is_stmt 1
 153:plant.c       ****     {
 1070              		.loc 1 153 5
 153:plant.c       ****     {
 1071              		.loc 1 153 14 is_stmt 0
 1072 03f2 83477432 		lbu	a5,807(s0)
 1073 03f6 83446432 		lbu	s1,806(s0)
 1074 03fa A207     		slli	a5,a5,8
 1075 03fc C58F     		or	a5,a5,s1
 1076 03fe 83448432 		lbu	s1,808(s0)
 1077 0402 C204     		slli	s1,s1,16
 1078 0404 C58F     		or	a5,s1,a5
 1079 0406 83449432 		lbu	s1,809(s0)
 1080 040a E204     		slli	s1,s1,24
 1081 040c DD8C     		or	s1,s1,a5
 153:plant.c       ****     {
 1082              		.loc 1 153 8
 1083 040e E147     		li	a5,24
 1084 0410 E3C397CE 		bgt	s1,a5,.L21
 1085              	.LBB19:
 155:plant.c       ****       int32_t currentTime = rtc_counter_get();
 1086              		.loc 1 155 7 is_stmt 1
 1087              	.LBE19:
 149:plant.c       ****     if (currentValue < 0)
 1088              		.loc 1 149 9 is_stmt 0
 1089 0414 97000000 		call	__fixsfsi
 1089      E7800000 
 1090              	.LVL63:
 1091              	.LBB20:
 155:plant.c       ****       int32_t currentTime = rtc_counter_get();
 1092              		.loc 1 155 60
 1093 041c 93879404 		addi	a5,s1,73
 1094 0420 8E07     		slli	a5,a5,3
 1095 0422 A297     		add	a5,s0,a5
 1096 0424 63530500 		bge	a0,zero,.L26
 1097 0428 0145     		li	a0,0
 1098              	.L26:
 1099 042a 13578500 		srli	a4,a0,8
 1100 042e 2389A700 		sb	a0,18(a5)
 1101 0432 A389E700 		sb	a4,19(a5)
 1102 0436 13570501 		srli	a4,a0,16
 1103 043a 6181     		srli	a0,a0,24
 1104 043c 238AE700 		sb	a4,20(a5)
 1105 0440 A38AA700 		sb	a0,21(a5)
 156:plant.c       ****       plant->temp[plant->numberOfTempReadings - 1].timeStamp = currentTime;
 1106              		.loc 1 156 7 is_stmt 1
 156:plant.c       ****       plant->temp[plant->numberOfTempReadings - 1].timeStamp = currentTime;
 1107              		.loc 1 156 29 is_stmt 0
 1108 0444 97000000 		call	rtc_counter_get
 1108      E7800000 
 1109              	.LVL64:
 157:plant.c       ****     }
 1110              		.loc 1 157 7 is_stmt 1
 157:plant.c       ****     }
 1111              		.loc 1 157 24 is_stmt 0
 1112 044c 83477432 		lbu	a5,807(s0)
 1113 0450 03476432 		lbu	a4,806(s0)
GAS LISTING /var/folders/rt/4gvqv631095f64jvm7jfj_000000gn/T//ccaxTwoZ.s 			page 28


 157:plant.c       ****     }
 1114              		.loc 1 157 62
 1115 0454 93568500 		srli	a3,a0,8
 157:plant.c       ****     }
 1116              		.loc 1 157 24
 1117 0458 A207     		slli	a5,a5,8
 1118 045a D98F     		or	a5,a5,a4
 1119 045c 03478432 		lbu	a4,808(s0)
 1120 0460 4207     		slli	a4,a4,16
 1121 0462 D98F     		or	a5,a4,a5
 1122 0464 03479432 		lbu	a4,809(s0)
 1123 0468 6207     		slli	a4,a4,24
 1124 046a 5D8F     		or	a4,a4,a5
 157:plant.c       ****     }
 1125              		.loc 1 157 62
 1126 046c 93079704 		addi	a5,a4,73
 1127 0470 8E07     		slli	a5,a5,3
 1128 0472 A297     		add	a5,s0,a5
 1129 0474 2387A700 		sb	a0,14(a5)
 1130 0478 A387D700 		sb	a3,15(a5)
 1131 047c 93560501 		srli	a3,a0,16
 1132 0480 6181     		srli	a0,a0,24
 1133              	.LVL65:
 1134 0482 2388D700 		sb	a3,16(a5)
 1135 0486 A388A700 		sb	a0,17(a5)
 1136              	.LBE20:
 160:plant.c       ****     {
 1137              		.loc 1 160 5 is_stmt 1
 160:plant.c       ****     {
 1138              		.loc 1 160 8 is_stmt 0
 1139 048a E147     		li	a5,24
 1140 048c E315F7C6 		bne	a4,a5,.L21
 1141              	.LBB21:
 1142              	.LBB22:
 163:plant.c       ****       {
 1143              		.loc 1 163 16
 1144 0490 8146     		li	a3,0
 1145              	.LBE22:
 162:plant.c       ****       for (int i = 0; i < MAX_TEMP_READINGS; i++)
 1146              		.loc 1 162 11
 1147 0492 8147     		li	a5,0
 1148              	.LBB23:
 163:plant.c       ****       {
 1149              		.loc 1 163 7
 1150 0494 6145     		li	a0,24
 1151              	.L27:
 1152              	.LVL66:
 165:plant.c       ****       }
 1153              		.loc 1 165 9 is_stmt 1 discriminator 3
 165:plant.c       ****       }
 1154              		.loc 1 165 46 is_stmt 0 discriminator 3
 1155 0496 1387A604 		addi	a4,a3,74
 1156 049a 0E07     		slli	a4,a4,3
 1157 049c 2297     		add	a4,s0,a4
 1158 049e 03463701 		lbu	a2,19(a4)
 1159 04a2 83452701 		lbu	a1,18(a4)
 163:plant.c       ****       {
GAS LISTING /var/folders/rt/4gvqv631095f64jvm7jfj_000000gn/T//ccaxTwoZ.s 			page 29


 1160              		.loc 1 163 47 discriminator 3
 1161 04a6 8506     		addi	a3,a3,1
 1162              	.LVL67:
 165:plant.c       ****       }
 1163              		.loc 1 165 46 discriminator 3
 1164 04a8 2206     		slli	a2,a2,8
 1165 04aa D18D     		or	a1,a2,a1
 1166 04ac 03464701 		lbu	a2,20(a4)
 1167 04b0 03475701 		lbu	a4,21(a4)
 1168 04b4 4206     		slli	a2,a2,16
 1169 04b6 4D8E     		or	a2,a2,a1
 1170 04b8 6207     		slli	a4,a4,24
 1171 04ba 518F     		or	a4,a4,a2
 165:plant.c       ****       }
 1172              		.loc 1 165 29 discriminator 3
 1173 04bc BA97     		add	a5,a5,a4
 1174              	.LVL68:
 163:plant.c       ****       {
 1175              		.loc 1 163 7 discriminator 3
 1176 04be E39CA6FC 		bne	a3,a0,.L27
 1177              	.LBE23:
 167:plant.c       ****       averageValueThisDay /= MAX_TEMP_READINGS;
 1178              		.loc 1 167 7 is_stmt 1
 168:plant.c       ****       for (int i = AVG_HISTORY_DAYS -1; i > 0; i--)
 1179              		.loc 1 168 27 is_stmt 0
 1180 04c2 B3C7D702 		div	a5,a5,a3
 1181              	.LVL69:
 167:plant.c       ****       averageValueThisDay /= MAX_TEMP_READINGS;
 1182              		.loc 1 167 35
 1183 04c6 0547     		li	a4,1
 1184 04c8 2303E432 		sb	a4,806(s0)
 1185 04cc A3030432 		sb	zero,807(s0)
 1186 04d0 23040432 		sb	zero,808(s0)
 1187 04d4 A3040432 		sb	zero,809(s0)
 168:plant.c       ****       for (int i = AVG_HISTORY_DAYS -1; i > 0; i--)
 1188              		.loc 1 168 7 is_stmt 1
 1189              	.LVL70:
 169:plant.c       ****       {
 1190              		.loc 1 169 7
 1191              	.LBB24:
 169:plant.c       ****       {
 1192              		.loc 1 169 12
 169:plant.c       ****       {
 1193              		.loc 1 169 16 is_stmt 0
 1194 04d8 F545     		li	a1,29
 1195              	.LVL71:
 1196              	.L28:
 171:plant.c       ****       }
 1197              		.loc 1 171 9 is_stmt 1 discriminator 3
 1198 04da 13972500 		slli	a4,a1,2
 1199 04de 2297     		add	a4,s0,a4
 171:plant.c       ****       }
 1200              		.loc 1 171 51 is_stmt 0 discriminator 3
 1201 04e0 03467741 		lbu	a2,1047(a4)
 1202 04e4 83466741 		lbu	a3,1046(a4)
 1203 04e8 FD15     		addi	a1,a1,-1
 1204              	.LVL72:
GAS LISTING /var/folders/rt/4gvqv631095f64jvm7jfj_000000gn/T//ccaxTwoZ.s 			page 30


 1205 04ea 2206     		slli	a2,a2,8
 1206 04ec 558E     		or	a2,a2,a3
 1207 04ee 83468741 		lbu	a3,1048(a4)
 1208 04f2 C206     		slli	a3,a3,16
 1209 04f4 558E     		or	a2,a3,a2
 1210 04f6 83469741 		lbu	a3,1049(a4)
 1211 04fa E206     		slli	a3,a3,24
 1212 04fc D18E     		or	a3,a3,a2
 171:plant.c       ****       }
 1213              		.loc 1 171 31 discriminator 3
 1214 04fe 13D68600 		srli	a2,a3,8
 1215 0502 230DD740 		sb	a3,1050(a4)
 1216 0506 A30DC740 		sb	a2,1051(a4)
 1217 050a 13D60601 		srli	a2,a3,16
 1218 050e E182     		srli	a3,a3,24
 1219 0510 230EC740 		sb	a2,1052(a4)
 1220 0514 A30ED740 		sb	a3,1053(a4)
 1221              	.LVL73:
 169:plant.c       ****       {
 1222              		.loc 1 169 7 discriminator 3
 1223 0518 E9F1     		bne	a1,zero,.L28
 1224              	.LBE24:
 173:plant.c       ****       if (plant->numberOfTempHistory < AVG_HISTORY_DAYS)
 1225              		.loc 1 173 7 is_stmt 1
 173:plant.c       ****       if (plant->numberOfTempHistory < AVG_HISTORY_DAYS)
 1226              		.loc 1 173 29 is_stmt 0
 1227 051a 13D78700 		srli	a4,a5,8
 1228 051e A30DE440 		sb	a4,1051(s0)
 1229 0522 13D70701 		srli	a4,a5,16
 1230 0526 230DF440 		sb	a5,1050(s0)
 1231 052a 230EE440 		sb	a4,1052(s0)
 1232 052e E183     		srli	a5,a5,24
 1233              	.LVL74:
 174:plant.c       ****         (plant->numberOfTempHistory)++;
 1234              		.loc 1 174 16
 1235 0530 0347B449 		lbu	a4,1179(s0)
 173:plant.c       ****       if (plant->numberOfTempHistory < AVG_HISTORY_DAYS)
 1236              		.loc 1 173 29
 1237 0534 A30EF440 		sb	a5,1053(s0)
 174:plant.c       ****         (plant->numberOfTempHistory)++;
 1238              		.loc 1 174 7 is_stmt 1
 174:plant.c       ****         (plant->numberOfTempHistory)++;
 1239              		.loc 1 174 16 is_stmt 0
 1240 0538 8347A449 		lbu	a5,1178(s0)
 1241 053c 2207     		slli	a4,a4,8
 1242 053e 5D8F     		or	a4,a4,a5
 1243 0540 8347C449 		lbu	a5,1180(s0)
 1244 0544 C207     		slli	a5,a5,16
 1245 0546 5D8F     		or	a4,a5,a4
 1246 0548 8347D449 		lbu	a5,1181(s0)
 1247 054c E207     		slli	a5,a5,24
 1248 054e D98F     		or	a5,a5,a4
 174:plant.c       ****         (plant->numberOfTempHistory)++;
 1249              		.loc 1 174 10
 1250 0550 7547     		li	a4,29
 1251 0552 E342F7BA 		bgt	a5,a4,.L21
 175:plant.c       ****     }
GAS LISTING /var/folders/rt/4gvqv631095f64jvm7jfj_000000gn/T//ccaxTwoZ.s 			page 31


 1252              		.loc 1 175 9 is_stmt 1
 175:plant.c       ****     }
 1253              		.loc 1 175 37 is_stmt 0
 1254 0556 8507     		addi	a5,a5,1
 1255 0558 13D78700 		srli	a4,a5,8
 1256 055c 230DF448 		sb	a5,1178(s0)
 1257 0560 A30DE448 		sb	a4,1179(s0)
 1258 0564 13D70701 		srli	a4,a5,16
 1259 0568 E183     		srli	a5,a5,24
 1260 056a 230EE448 		sb	a4,1180(s0)
 1261 056e A30EF448 		sb	a5,1181(s0)
 1262 0572 51B6     		j	.L21
 1263              	.LBE21:
 1264              	.LBE18:
 1265              		.cfi_endproc
 1266              	.LFE7:
 1268              		.section	.text.applyGreenFingers,"ax",@progbits
 1269              		.align	1
 1270              		.globl	applyGreenFingers
 1272              	applyGreenFingers:
 1273              	.LFB9:
 200:plant.c       **** 
 201:plant.c       **** int applyGreenFingers(Plant allPlants[], int numberOfPlants)
 202:plant.c       **** {
 1274              		.loc 1 202 1 is_stmt 1
 1275              		.cfi_startproc
 1276              	.LVL75:
 203:plant.c       ****   int updateDone = 0;
 1277              		.loc 1 203 3
 204:plant.c       ****   uint32_t currentTime = rtc_counter_get();
 1278              		.loc 1 204 3
 202:plant.c       ****   int updateDone = 0;
 1279              		.loc 1 202 1 is_stmt 0
 1280 0000 7971     		addi	sp,sp,-48
 1281              	.LCFI11:
 1282              		.cfi_def_cfa_offset 48
 1283 0002 26D2     		sw	s1,36(sp)
 1284 0004 4AD0     		sw	s2,32(sp)
 1285 0006 4ECE     		sw	s3,28(sp)
 1286 0008 52CC     		sw	s4,24(sp)
 1287 000a 56CA     		sw	s5,20(sp)
 1288 000c 5AC8     		sw	s6,16(sp)
 1289 000e 5EC6     		sw	s7,12(sp)
 1290 0010 06D6     		sw	ra,44(sp)
 1291 0012 22D4     		sw	s0,40(sp)
 1292              		.cfi_offset 9, -12
 1293              		.cfi_offset 18, -16
 1294              		.cfi_offset 19, -20
 1295              		.cfi_offset 20, -24
 1296              		.cfi_offset 21, -28
 1297              		.cfi_offset 22, -32
 1298              		.cfi_offset 23, -36
 1299              		.cfi_offset 1, -4
 1300              		.cfi_offset 8, -8
 202:plant.c       ****   int updateDone = 0;
 1301              		.loc 1 202 1
 1302 0014 2A8A     		mv	s4,a0
GAS LISTING /var/folders/rt/4gvqv631095f64jvm7jfj_000000gn/T//ccaxTwoZ.s 			page 32


 1303 0016 AE89     		mv	s3,a1
 1304              		.loc 1 204 26
 1305 0018 97000000 		call	rtc_counter_get
 1305      E7800000 
 1306              	.LVL76:
 1307 0020 2A89     		mv	s2,a0
 1308              	.LVL77:
 205:plant.c       ****   for (int i = 0; i < numberOfPlants; i++)
 1309              		.loc 1 205 3 is_stmt 1
 1310              	.LBB25:
 1311              		.loc 1 205 8
 1312              		.loc 1 205 12 is_stmt 0
 1313 0022 8144     		li	s1,0
 1314              	.LBE25:
 203:plant.c       ****   uint32_t currentTime = rtc_counter_get();
 1315              		.loc 1 203 7
 1316 0024 814B     		li	s7,0
 1317 0026 930AE04C 		li	s5,1230
 1318              	.LBB28:
 1319              	.LBB26:
 206:plant.c       ****   {
 207:plant.c       ****     if (currentTime - allPlants[i].sun[allPlants[i].numberOfSunReadings - 1].timeStamp >= allPlants
 208:plant.c       ****     {
 209:plant.c       ****       updatePlantReadings(&allPlants[i], SUN, i);
 210:plant.c       ****       updateDone = 1;
 211:plant.c       ****     }
 212:plant.c       **** 
 213:plant.c       ****     if (currentTime - allPlants[i].moisture[allPlants[i].numberOfMoistureReadings - 1].timeStamp >=
 214:plant.c       ****     {
 215:plant.c       ****       updatePlantReadings(&allPlants[i], MOISTURE, i);
 216:plant.c       ****       updateDone = 1;
 217:plant.c       ****     }
 218:plant.c       **** 
 219:plant.c       ****     if (currentTime - allPlants[i].temp[allPlants[i].numberOfTempReadings - 1].timeStamp >= allPlan
 220:plant.c       ****     {
 221:plant.c       ****       updatePlantReadings(&allPlants[i], TEMPERATURE, i);
 222:plant.c       ****       updateDone = 1;
 223:plant.c       ****     }
 224:plant.c       **** 
 225:plant.c       ****     // PGA ENDAST 1 UPPSÄTTNING SENSORER SÅ KÖRS NEDAN UTANFÖR FOR LOOP.
 226:plant.c       ****     // I framtiden ska conditional nedan inte kolla (fukt > 95) utan (fukt > plant->highMoist)
 227:plant.c       ****     ADC_read(3);
 228:plant.c       ****     int fukt = ADC_read(1);
 229:plant.c       ****     if (fukt > 90) T1setPWMch0(1500); // Stanna vattenpump
 1320              		.loc 1 229 8
 1321 002a 130BA005 		li	s6,90
 1322              	.LVL78:
 1323              	.L37:
 1324              	.LBE26:
 205:plant.c       ****   {
 1325              		.loc 1 205 3 discriminator 1
 1326 002e 63CE3401 		blt	s1,s3,.L45
 1327              	.LBE28:
 230:plant.c       ****   }
 231:plant.c       ****   return updateDone;
 1328              		.loc 1 231 3 is_stmt 1
 232:plant.c       **** }...
GAS LISTING /var/folders/rt/4gvqv631095f64jvm7jfj_000000gn/T//ccaxTwoZ.s 			page 33


 1329              		.loc 1 232 1 is_stmt 0
 1330 0032 B250     		lw	ra,44(sp)
 1331              		.cfi_remember_state
 1332              		.cfi_restore 1
 1333 0034 2254     		lw	s0,40(sp)
 1334              		.cfi_restore 8
 1335 0036 5E85     		mv	a0,s7
 1336 0038 9254     		lw	s1,36(sp)
 1337              		.cfi_restore 9
 1338              	.LVL79:
 1339 003a 0259     		lw	s2,32(sp)
 1340              		.cfi_restore 18
 1341              	.LVL80:
 1342 003c F249     		lw	s3,28(sp)
 1343              		.cfi_restore 19
 1344              	.LVL81:
 1345 003e 624A     		lw	s4,24(sp)
 1346              		.cfi_restore 20
 1347              	.LVL82:
 1348 0040 D24A     		lw	s5,20(sp)
 1349              		.cfi_restore 21
 1350 0042 424B     		lw	s6,16(sp)
 1351              		.cfi_restore 22
 1352 0044 B24B     		lw	s7,12(sp)
 1353              		.cfi_restore 23
 1354              	.LVL83:
 1355 0046 4561     		addi	sp,sp,48
 1356              	.LCFI12:
 1357              		.cfi_def_cfa_offset 0
 1358 0048 8280     		jr	ra
 1359              	.LVL84:
 1360              	.L45:
 1361              	.LCFI13:
 1362              		.cfi_restore_state
 1363              	.LBB29:
 1364              	.LBB27:
 207:plant.c       ****     if (currentTime - allPlants[i].sun[allPlants[i].numberOfSunReadings - 1].timeStamp >= allPlants
 1365              		.loc 1 207 5 is_stmt 1
 1366 004a 33845403 		mul	s0,s1,s5
 1367 004e 5294     		add	s0,s4,s0
 207:plant.c       ****     if (currentTime - allPlants[i].sun[allPlants[i].numberOfSunReadings - 1].timeStamp >= allPlants
 1368              		.loc 1 207 52 is_stmt 0
 1369 0050 03473432 		lbu	a4,803(s0)
 1370 0054 83472432 		lbu	a5,802(s0)
 1371 0058 2207     		slli	a4,a4,8
 1372 005a 5D8F     		or	a4,a4,a5
 1373 005c 83474432 		lbu	a5,804(s0)
 1374 0060 C207     		slli	a5,a5,16
 1375 0062 5D8F     		or	a4,a5,a4
 1376 0064 83475432 		lbu	a5,805(s0)
 1377 0068 E207     		slli	a5,a5,24
 1378 006a D98F     		or	a5,a5,a4
 207:plant.c       ****     if (currentTime - allPlants[i].sun[allPlants[i].numberOfSunReadings - 1].timeStamp >= allPlants
 1379              		.loc 1 207 77
 1380 006c E507     		addi	a5,a5,25
 1381 006e 8E07     		slli	a5,a5,3
 1382 0070 A297     		add	a5,s0,a5
GAS LISTING /var/folders/rt/4gvqv631095f64jvm7jfj_000000gn/T//ccaxTwoZ.s 			page 34


 1383 0072 03C7F700 		lbu	a4,15(a5)
 1384 0076 83C6E700 		lbu	a3,14(a5)
 1385 007a 2207     		slli	a4,a4,8
 1386 007c D98E     		or	a3,a4,a3
 1387 007e 03C70701 		lbu	a4,16(a5)
 1388 0082 83C71701 		lbu	a5,17(a5)
 1389 0086 4207     		slli	a4,a4,16
 1390 0088 558F     		or	a4,a4,a3
 1391 008a E207     		slli	a5,a5,24
 207:plant.c       ****     if (currentTime - allPlants[i].sun[allPlants[i].numberOfSunReadings - 1].timeStamp >= allPlants
 1392              		.loc 1 207 103
 1393 008c 8346344A 		lbu	a3,1187(s0)
 207:plant.c       ****     if (currentTime - allPlants[i].sun[allPlants[i].numberOfSunReadings - 1].timeStamp >= allPlants
 1394              		.loc 1 207 77
 1395 0090 D98F     		or	a5,a5,a4
 207:plant.c       ****     if (currentTime - allPlants[i].sun[allPlants[i].numberOfSunReadings - 1].timeStamp >= allPlants
 1396              		.loc 1 207 103
 1397 0092 0347244A 		lbu	a4,1186(s0)
 1398 0096 A206     		slli	a3,a3,8
 207:plant.c       ****     if (currentTime - allPlants[i].sun[allPlants[i].numberOfSunReadings - 1].timeStamp >= allPlants
 1399              		.loc 1 207 21
 1400 0098 3306F940 		sub	a2,s2,a5
 207:plant.c       ****     if (currentTime - allPlants[i].sun[allPlants[i].numberOfSunReadings - 1].timeStamp >= allPlants
 1401              		.loc 1 207 103
 1402 009c D98E     		or	a3,a3,a4
 1403 009e 0347444A 		lbu	a4,1188(s0)
 1404 00a2 4207     		slli	a4,a4,16
 1405 00a4 D98E     		or	a3,a4,a3
 1406 00a6 0347544A 		lbu	a4,1189(s0)
 1407 00aa 6207     		slli	a4,a4,24
 1408 00ac 558F     		or	a4,a4,a3
 207:plant.c       ****     if (currentTime - allPlants[i].sun[allPlants[i].numberOfSunReadings - 1].timeStamp >= allPlants
 1409              		.loc 1 207 8
 1410 00ae 6373E600 		bgeu	a2,a4,.L38
 207:plant.c       ****     if (currentTime - allPlants[i].sun[allPlants[i].numberOfSunReadings - 1].timeStamp >= allPlants
 1411              		.loc 1 207 116 discriminator 1
 1412 00b2 89EB     		bne	a5,zero,.L39
 1413              	.L38:
 209:plant.c       ****       updatePlantReadings(&allPlants[i], SUN, i);
 1414              		.loc 1 209 7 is_stmt 1
 1415 00b4 2686     		mv	a2,s1
 1416 00b6 8545     		li	a1,1
 1417 00b8 2285     		mv	a0,s0
 1418 00ba 97000000 		call	updatePlantReadings
 1418      E7800000 
 1419              	.LVL85:
 210:plant.c       ****       updateDone = 1;
 1420              		.loc 1 210 7
 210:plant.c       ****       updateDone = 1;
 1421              		.loc 1 210 18 is_stmt 0
 1422 00c2 854B     		li	s7,1
 1423              	.LVL86:
 1424              	.L39:
 213:plant.c       ****     if (currentTime - allPlants[i].moisture[allPlants[i].numberOfMoistureReadings - 1].timeStamp >=
 1425              		.loc 1 213 5 is_stmt 1
 213:plant.c       ****     if (currentTime - allPlants[i].moisture[allPlants[i].numberOfMoistureReadings - 1].timeStamp >=
 1426              		.loc 1 213 57 is_stmt 0
GAS LISTING /var/folders/rt/4gvqv631095f64jvm7jfj_000000gn/T//ccaxTwoZ.s 			page 35


 1427 00c4 0347F431 		lbu	a4,799(s0)
 1428 00c8 8347E431 		lbu	a5,798(s0)
 1429 00cc 2207     		slli	a4,a4,8
 1430 00ce 5D8F     		or	a4,a4,a5
 1431 00d0 83470432 		lbu	a5,800(s0)
 1432 00d4 C207     		slli	a5,a5,16
 1433 00d6 5D8F     		or	a4,a5,a4
 1434 00d8 83471432 		lbu	a5,801(s0)
 1435 00dc E207     		slli	a5,a5,24
 1436 00de D98F     		or	a5,a5,a4
 213:plant.c       ****     if (currentTime - allPlants[i].moisture[allPlants[i].numberOfMoistureReadings - 1].timeStamp >=
 1437              		.loc 1 213 87
 1438 00e0 8507     		addi	a5,a5,1
 1439 00e2 8E07     		slli	a5,a5,3
 1440 00e4 A297     		add	a5,s0,a5
 1441 00e6 03C7F700 		lbu	a4,15(a5)
 1442 00ea 83C6E700 		lbu	a3,14(a5)
 1443 00ee 2207     		slli	a4,a4,8
 1444 00f0 D98E     		or	a3,a4,a3
 1445 00f2 03C70701 		lbu	a4,16(a5)
 1446 00f6 83C71701 		lbu	a5,17(a5)
 1447 00fa 4207     		slli	a4,a4,16
 1448 00fc 558F     		or	a4,a4,a3
 1449 00fe E207     		slli	a5,a5,24
 213:plant.c       ****     if (currentTime - allPlants[i].moisture[allPlants[i].numberOfMoistureReadings - 1].timeStamp >=
 1450              		.loc 1 213 113
 1451 0100 8346F449 		lbu	a3,1183(s0)
 213:plant.c       ****     if (currentTime - allPlants[i].moisture[allPlants[i].numberOfMoistureReadings - 1].timeStamp >=
 1452              		.loc 1 213 87
 1453 0104 D98F     		or	a5,a5,a4
 213:plant.c       ****     if (currentTime - allPlants[i].moisture[allPlants[i].numberOfMoistureReadings - 1].timeStamp >=
 1454              		.loc 1 213 113
 1455 0106 0347E449 		lbu	a4,1182(s0)
 1456 010a A206     		slli	a3,a3,8
 213:plant.c       ****     if (currentTime - allPlants[i].moisture[allPlants[i].numberOfMoistureReadings - 1].timeStamp >=
 1457              		.loc 1 213 21
 1458 010c 3306F940 		sub	a2,s2,a5
 213:plant.c       ****     if (currentTime - allPlants[i].moisture[allPlants[i].numberOfMoistureReadings - 1].timeStamp >=
 1459              		.loc 1 213 113
 1460 0110 D98E     		or	a3,a3,a4
 1461 0112 0347044A 		lbu	a4,1184(s0)
 1462 0116 4207     		slli	a4,a4,16
 1463 0118 D98E     		or	a3,a4,a3
 1464 011a 0347144A 		lbu	a4,1185(s0)
 1465 011e 6207     		slli	a4,a4,24
 1466 0120 558F     		or	a4,a4,a3
 213:plant.c       ****     if (currentTime - allPlants[i].moisture[allPlants[i].numberOfMoistureReadings - 1].timeStamp >=
 1467              		.loc 1 213 8
 1468 0122 6373E600 		bgeu	a2,a4,.L40
 213:plant.c       ****     if (currentTime - allPlants[i].moisture[allPlants[i].numberOfMoistureReadings - 1].timeStamp >=
 1469              		.loc 1 213 128 discriminator 1
 1470 0126 89EB     		bne	a5,zero,.L41
 1471              	.L40:
 215:plant.c       ****       updatePlantReadings(&allPlants[i], MOISTURE, i);
 1472              		.loc 1 215 7 is_stmt 1
 1473 0128 2686     		mv	a2,s1
 1474 012a 8145     		li	a1,0
GAS LISTING /var/folders/rt/4gvqv631095f64jvm7jfj_000000gn/T//ccaxTwoZ.s 			page 36


 1475 012c 2285     		mv	a0,s0
 1476 012e 97000000 		call	updatePlantReadings
 1476      E7800000 
 1477              	.LVL87:
 216:plant.c       ****       updateDone = 1;
 1478              		.loc 1 216 7
 216:plant.c       ****       updateDone = 1;
 1479              		.loc 1 216 18 is_stmt 0
 1480 0136 854B     		li	s7,1
 1481              	.LVL88:
 1482              	.L41:
 219:plant.c       ****     if (currentTime - allPlants[i].temp[allPlants[i].numberOfTempReadings - 1].timeStamp >= allPlan
 1483              		.loc 1 219 5 is_stmt 1
 219:plant.c       ****     if (currentTime - allPlants[i].temp[allPlants[i].numberOfTempReadings - 1].timeStamp >= allPlan
 1484              		.loc 1 219 53 is_stmt 0
 1485 0138 03477432 		lbu	a4,807(s0)
 1486 013c 83476432 		lbu	a5,806(s0)
 1487 0140 2207     		slli	a4,a4,8
 1488 0142 5D8F     		or	a4,a4,a5
 1489 0144 83478432 		lbu	a5,808(s0)
 1490 0148 C207     		slli	a5,a5,16
 1491 014a 5D8F     		or	a4,a5,a4
 1492 014c 83479432 		lbu	a5,809(s0)
 1493 0150 E207     		slli	a5,a5,24
 1494 0152 D98F     		or	a5,a5,a4
 219:plant.c       ****     if (currentTime - allPlants[i].temp[allPlants[i].numberOfTempReadings - 1].timeStamp >= allPlan
 1495              		.loc 1 219 79
 1496 0154 93879704 		addi	a5,a5,73
 1497 0158 8E07     		slli	a5,a5,3
 1498 015a A297     		add	a5,s0,a5
 1499 015c 03C7F700 		lbu	a4,15(a5)
 1500 0160 83C6E700 		lbu	a3,14(a5)
 1501 0164 2207     		slli	a4,a4,8
 1502 0166 D98E     		or	a3,a4,a3
 1503 0168 03C70701 		lbu	a4,16(a5)
 1504 016c 83C71701 		lbu	a5,17(a5)
 1505 0170 4207     		slli	a4,a4,16
 1506 0172 558F     		or	a4,a4,a3
 1507 0174 E207     		slli	a5,a5,24
 219:plant.c       ****     if (currentTime - allPlants[i].temp[allPlants[i].numberOfTempReadings - 1].timeStamp >= allPlan
 1508              		.loc 1 219 105
 1509 0176 8346744A 		lbu	a3,1191(s0)
 219:plant.c       ****     if (currentTime - allPlants[i].temp[allPlants[i].numberOfTempReadings - 1].timeStamp >= allPlan
 1510              		.loc 1 219 79
 1511 017a D98F     		or	a5,a5,a4
 219:plant.c       ****     if (currentTime - allPlants[i].temp[allPlants[i].numberOfTempReadings - 1].timeStamp >= allPlan
 1512              		.loc 1 219 105
 1513 017c 0347644A 		lbu	a4,1190(s0)
 1514 0180 A206     		slli	a3,a3,8
 219:plant.c       ****     if (currentTime - allPlants[i].temp[allPlants[i].numberOfTempReadings - 1].timeStamp >= allPlan
 1515              		.loc 1 219 21
 1516 0182 3306F940 		sub	a2,s2,a5
 219:plant.c       ****     if (currentTime - allPlants[i].temp[allPlants[i].numberOfTempReadings - 1].timeStamp >= allPlan
 1517              		.loc 1 219 105
 1518 0186 D98E     		or	a3,a3,a4
 1519 0188 0347844A 		lbu	a4,1192(s0)
 1520 018c 4207     		slli	a4,a4,16
GAS LISTING /var/folders/rt/4gvqv631095f64jvm7jfj_000000gn/T//ccaxTwoZ.s 			page 37


 1521 018e D98E     		or	a3,a4,a3
 1522 0190 0347944A 		lbu	a4,1193(s0)
 1523 0194 6207     		slli	a4,a4,24
 1524 0196 558F     		or	a4,a4,a3
 219:plant.c       ****     if (currentTime - allPlants[i].temp[allPlants[i].numberOfTempReadings - 1].timeStamp >= allPlan
 1525              		.loc 1 219 8
 1526 0198 6373E600 		bgeu	a2,a4,.L42
 219:plant.c       ****     if (currentTime - allPlants[i].temp[allPlants[i].numberOfTempReadings - 1].timeStamp >= allPlan
 1527              		.loc 1 219 119 discriminator 1
 1528 019c 89EB     		bne	a5,zero,.L43
 1529              	.L42:
 221:plant.c       ****       updatePlantReadings(&allPlants[i], TEMPERATURE, i);
 1530              		.loc 1 221 7 is_stmt 1
 1531 019e 2686     		mv	a2,s1
 1532 01a0 8945     		li	a1,2
 1533 01a2 2285     		mv	a0,s0
 1534 01a4 97000000 		call	updatePlantReadings
 1534      E7800000 
 1535              	.LVL89:
 222:plant.c       ****       updateDone = 1;
 1536              		.loc 1 222 7
 222:plant.c       ****       updateDone = 1;
 1537              		.loc 1 222 18 is_stmt 0
 1538 01ac 854B     		li	s7,1
 1539              	.LVL90:
 1540              	.L43:
 227:plant.c       ****     ADC_read(3);
 1541              		.loc 1 227 5 is_stmt 1
 1542 01ae 0D45     		li	a0,3
 1543 01b0 97000000 		call	ADC_read
 1543      E7800000 
 1544              	.LVL91:
 228:plant.c       ****     int fukt = ADC_read(1);
 1545              		.loc 1 228 5
 228:plant.c       ****     int fukt = ADC_read(1);
 1546              		.loc 1 228 16 is_stmt 0
 1547 01b8 0545     		li	a0,1
 1548 01ba 97000000 		call	ADC_read
 1548      E7800000 
 1549              	.LVL92:
 229:plant.c       ****     if (fukt > 90) T1setPWMch0(1500); // Stanna vattenpump
 1550              		.loc 1 229 5 is_stmt 1
 229:plant.c       ****     if (fukt > 90) T1setPWMch0(1500); // Stanna vattenpump
 1551              		.loc 1 229 8 is_stmt 0
 1552 01c2 6358AB00 		ble	a0,s6,.L44
 229:plant.c       ****     if (fukt > 90) T1setPWMch0(1500); // Stanna vattenpump
 1553              		.loc 1 229 20 is_stmt 1 discriminator 1
 1554 01c6 1305C05D 		li	a0,1500
 1555              	.LVL93:
 1556 01ca 97000000 		call	T1setPWMch0
 1556      E7800000 
 1557              	.LVL94:
 1558              	.L44:
 1559              	.LBE27:
 205:plant.c       ****   for (int i = 0; i < numberOfPlants; i++)
 1560              		.loc 1 205 40 is_stmt 0 discriminator 2
 1561 01d2 8504     		addi	s1,s1,1
GAS LISTING /var/folders/rt/4gvqv631095f64jvm7jfj_000000gn/T//ccaxTwoZ.s 			page 38


 1562              	.LVL95:
 1563 01d4 A9BD     		j	.L37
 1564              	.LBE29:
 1565              		.cfi_endproc
 1566              	.LFE9:
 1568              		.section	.rodata.initPlant.str1.4,"aMS",@progbits,1
 1569              		.align	2
 1570              	.LC0:
 1571 0000 257300   		.string	"%s"
 1572 0003 00       		.zero	1
 1573              	.LC1:
 1574 0004 4F4B00   		.string	"OK"
 1575              		.section	.rodata.updatePlantStatus.str1.4,"aMS",@progbits,1
 1576              		.align	2
 1577              	.LC2:
 1578 0000 424548C3 		.string	"BEH\303\226VER SKUGGA"
 1578      96564552 
 1578      20534B55 
 1578      47474100 
 1579              	.LC3:
 1580 0010 424548C3 		.string	"BEH\303\226VER LJUS"
 1580      96564552 
 1580      204C4A55 
 1580      5300
 1581              		.text
 1582              	.Letext0:
 1583              		.file 2 "/Users/alexstrae/toolchain-gd32v-v202-osx/compiler/riscv64-unknown-elf/include/machine/_d
 1584              		.file 3 "/Users/alexstrae/toolchain-gd32v-v202-osx/compiler/riscv64-unknown-elf/include/sys/_stdin
 1585              		.file 4 "plant.h"
 1586              		.file 5 "/Users/alexstrae/toolchain-gd32v-v202-osx/compiler/lib/gcc/riscv64-unknown-elf/8.3.0/incl
 1587              		.file 6 "/Users/alexstrae/toolchain-gd32v-v202-osx/compiler/riscv64-unknown-elf/include/sys/_types
 1588              		.file 7 "/Users/alexstrae/toolchain-gd32v-v202-osx/compiler/riscv64-unknown-elf/include/sys/reent.
 1589              		.file 8 "/Users/alexstrae/toolchain-gd32v-v202-osx/compiler/riscv64-unknown-elf/include/sys/lock.h
 1590              		.file 9 "/Users/alexstrae/toolchain-gd32v-v202-osx/compiler/riscv64-unknown-elf/include/stdlib.h"
 1591              		.file 10 "../../firmware/GD32VF103_standard_peripheral/system_gd32vf103.h"
 1592              		.file 11 "lcd.h"
 1593              		.file 12 "adc.h"
 1594              		.file 13 "pwm.h"
 1595              		.file 14 "../../firmware/GD32VF103_standard_peripheral/Include/gd32vf103_rtc.h"
 1596              		.file 15 "/Users/alexstrae/toolchain-gd32v-v202-osx/compiler/riscv64-unknown-elf/include/stdio.h"
 1597              		.file 16 "../../firmware/GD32VF103_standard_peripheral/Include/gd32vf103_gpio.h"
 1598              		.file 17 "<built-in>"
GAS LISTING /var/folders/rt/4gvqv631095f64jvm7jfj_000000gn/T//ccaxTwoZ.s 			page 39


DEFINED SYMBOLS
                            *ABS*:0000000000000000 plant.c
/var/folders/rt/4gvqv631095f64jvm7jfj_000000gn/T//ccaxTwoZ.s:13     .text.initSensorReading:0000000000000000 initSensorReading
/var/folders/rt/4gvqv631095f64jvm7jfj_000000gn/T//ccaxTwoZ.s:17     .text.initSensorReading:0000000000000000 .L0 
/var/folders/rt/4gvqv631095f64jvm7jfj_000000gn/T//ccaxTwoZ.s:19     .text.initSensorReading:0000000000000000 .L0 
/var/folders/rt/4gvqv631095f64jvm7jfj_000000gn/T//ccaxTwoZ.s:20     .text.initSensorReading:0000000000000000 .L0 
/var/folders/rt/4gvqv631095f64jvm7jfj_000000gn/T//ccaxTwoZ.s:21     .text.initSensorReading:0000000000000000 .L0 
/var/folders/rt/4gvqv631095f64jvm7jfj_000000gn/T//ccaxTwoZ.s:22     .text.initSensorReading:0000000000000000 .L0 
/var/folders/rt/4gvqv631095f64jvm7jfj_000000gn/T//ccaxTwoZ.s:23     .text.initSensorReading:0000000000000000 .L0 
/var/folders/rt/4gvqv631095f64jvm7jfj_000000gn/T//ccaxTwoZ.s:24     .text.initSensorReading:0000000000000000 .L0 
/var/folders/rt/4gvqv631095f64jvm7jfj_000000gn/T//ccaxTwoZ.s:51     .text.initSensorReading:000000000000004a .L0 
/var/folders/rt/4gvqv631095f64jvm7jfj_000000gn/T//ccaxTwoZ.s:53     .text.initSensorReading:000000000000004c .L0 
/var/folders/rt/4gvqv631095f64jvm7jfj_000000gn/T//ccaxTwoZ.s:55     .text.initSensorReading:000000000000004c .L0 
/var/folders/rt/4gvqv631095f64jvm7jfj_000000gn/T//ccaxTwoZ.s:60     .text.initSensorReading:0000000000000054 .L0 
/var/folders/rt/4gvqv631095f64jvm7jfj_000000gn/T//ccaxTwoZ.s:64     .text.initSensorReading:000000000000005a .L0 
/var/folders/rt/4gvqv631095f64jvm7jfj_000000gn/T//ccaxTwoZ.s:66     .text.initSensorReading:000000000000005c .L0 
/var/folders/rt/4gvqv631095f64jvm7jfj_000000gn/T//ccaxTwoZ.s:73     .text.initPlant:0000000000000000 initPlant
/var/folders/rt/4gvqv631095f64jvm7jfj_000000gn/T//ccaxTwoZ.s:76     .text.initPlant:0000000000000000 .L0 
/var/folders/rt/4gvqv631095f64jvm7jfj_000000gn/T//ccaxTwoZ.s:78     .text.initPlant:0000000000000000 .L0 
/var/folders/rt/4gvqv631095f64jvm7jfj_000000gn/T//ccaxTwoZ.s:79     .text.initPlant:0000000000000000 .L0 
/var/folders/rt/4gvqv631095f64jvm7jfj_000000gn/T//ccaxTwoZ.s:80     .text.initPlant:0000000000000000 .L0 
/var/folders/rt/4gvqv631095f64jvm7jfj_000000gn/T//ccaxTwoZ.s:82     .text.initPlant:0000000000000004 .L0 
/var/folders/rt/4gvqv631095f64jvm7jfj_000000gn/T//ccaxTwoZ.s:84     .text.initPlant:0000000000000008 .L0 
/var/folders/rt/4gvqv631095f64jvm7jfj_000000gn/T//ccaxTwoZ.s:97     .text.initPlant:0000000000000038 .L0 
/var/folders/rt/4gvqv631095f64jvm7jfj_000000gn/T//ccaxTwoZ.s:98     .text.initPlant:0000000000000038 .L0 
/var/folders/rt/4gvqv631095f64jvm7jfj_000000gn/T//ccaxTwoZ.s:99     .text.initPlant:0000000000000038 .L0 
/var/folders/rt/4gvqv631095f64jvm7jfj_000000gn/T//ccaxTwoZ.s:100    .text.initPlant:0000000000000038 .L0 
/var/folders/rt/4gvqv631095f64jvm7jfj_000000gn/T//ccaxTwoZ.s:101    .text.initPlant:0000000000000038 .L0 
/var/folders/rt/4gvqv631095f64jvm7jfj_000000gn/T//ccaxTwoZ.s:102    .text.initPlant:0000000000000038 .L0 
/var/folders/rt/4gvqv631095f64jvm7jfj_000000gn/T//ccaxTwoZ.s:103    .text.initPlant:0000000000000038 .L0 
/var/folders/rt/4gvqv631095f64jvm7jfj_000000gn/T//ccaxTwoZ.s:104    .text.initPlant:0000000000000038 .L0 
/var/folders/rt/4gvqv631095f64jvm7jfj_000000gn/T//ccaxTwoZ.s:105    .text.initPlant:0000000000000038 .L0 
/var/folders/rt/4gvqv631095f64jvm7jfj_000000gn/T//ccaxTwoZ.s:106    .text.initPlant:0000000000000038 .L0 
/var/folders/rt/4gvqv631095f64jvm7jfj_000000gn/T//ccaxTwoZ.s:107    .text.initPlant:0000000000000038 .L0 
/var/folders/rt/4gvqv631095f64jvm7jfj_000000gn/T//ccaxTwoZ.s:108    .text.initPlant:0000000000000038 .L0 
/var/folders/rt/4gvqv631095f64jvm7jfj_000000gn/T//ccaxTwoZ.s:110    .text.initPlant:0000000000000038 .L0 
/var/folders/rt/4gvqv631095f64jvm7jfj_000000gn/T//ccaxTwoZ.s:112    .text.initPlant:000000000000003a .L0 
/var/folders/rt/4gvqv631095f64jvm7jfj_000000gn/T//ccaxTwoZ.s:117    .text.initPlant:000000000000004a .L0 
/var/folders/rt/4gvqv631095f64jvm7jfj_000000gn/T//ccaxTwoZ.s:120    .text.initPlant:0000000000000050 .L0 
/var/folders/rt/4gvqv631095f64jvm7jfj_000000gn/T//ccaxTwoZ.s:127    .text.initPlant:000000000000005a .L0 
/var/folders/rt/4gvqv631095f64jvm7jfj_000000gn/T//ccaxTwoZ.s:128    .text.initPlant:000000000000005a .L0 
/var/folders/rt/4gvqv631095f64jvm7jfj_000000gn/T//ccaxTwoZ.s:129    .text.initPlant:000000000000005a .L0 
/var/folders/rt/4gvqv631095f64jvm7jfj_000000gn/T//ccaxTwoZ.s:130    .text.initPlant:000000000000005a .L0 
/var/folders/rt/4gvqv631095f64jvm7jfj_000000gn/T//ccaxTwoZ.s:131    .text.initPlant:000000000000005a .L0 
/var/folders/rt/4gvqv631095f64jvm7jfj_000000gn/T//ccaxTwoZ.s:132    .text.initPlant:000000000000005a .L0 
/var/folders/rt/4gvqv631095f64jvm7jfj_000000gn/T//ccaxTwoZ.s:133    .text.initPlant:000000000000005a .L0 
/var/folders/rt/4gvqv631095f64jvm7jfj_000000gn/T//ccaxTwoZ.s:145    .text.initPlant:0000000000000072 .L0 
/var/folders/rt/4gvqv631095f64jvm7jfj_000000gn/T//ccaxTwoZ.s:151    .text.initPlant:0000000000000086 .L0 
/var/folders/rt/4gvqv631095f64jvm7jfj_000000gn/T//ccaxTwoZ.s:152    .text.initPlant:0000000000000086 .L0 
/var/folders/rt/4gvqv631095f64jvm7jfj_000000gn/T//ccaxTwoZ.s:155    .text.initPlant:000000000000008c .L0 
/var/folders/rt/4gvqv631095f64jvm7jfj_000000gn/T//ccaxTwoZ.s:157    .text.initPlant:0000000000000090 .L0 
/var/folders/rt/4gvqv631095f64jvm7jfj_000000gn/T//ccaxTwoZ.s:159    .text.initPlant:0000000000000094 .L0 
/var/folders/rt/4gvqv631095f64jvm7jfj_000000gn/T//ccaxTwoZ.s:161    .text.initPlant:0000000000000098 .L0 
/var/folders/rt/4gvqv631095f64jvm7jfj_000000gn/T//ccaxTwoZ.s:163    .text.initPlant:000000000000009c .L0 
/var/folders/rt/4gvqv631095f64jvm7jfj_000000gn/T//ccaxTwoZ.s:165    .text.initPlant:00000000000000a0 .L0 
/var/folders/rt/4gvqv631095f64jvm7jfj_000000gn/T//ccaxTwoZ.s:168    .text.initPlant:00000000000000a8 .L0 
/var/folders/rt/4gvqv631095f64jvm7jfj_000000gn/T//ccaxTwoZ.s:170    .text.initPlant:00000000000000ac .L0 
GAS LISTING /var/folders/rt/4gvqv631095f64jvm7jfj_000000gn/T//ccaxTwoZ.s 			page 40


/var/folders/rt/4gvqv631095f64jvm7jfj_000000gn/T//ccaxTwoZ.s:175    .text.initPlant:00000000000000bc .L0 
/var/folders/rt/4gvqv631095f64jvm7jfj_000000gn/T//ccaxTwoZ.s:176    .text.initPlant:00000000000000bc .L0 
/var/folders/rt/4gvqv631095f64jvm7jfj_000000gn/T//ccaxTwoZ.s:181    .text.initPlant:00000000000000cc .L0 
/var/folders/rt/4gvqv631095f64jvm7jfj_000000gn/T//ccaxTwoZ.s:182    .text.initPlant:00000000000000cc .L0 
/var/folders/rt/4gvqv631095f64jvm7jfj_000000gn/T//ccaxTwoZ.s:187    .text.initPlant:00000000000000dc .L0 
/var/folders/rt/4gvqv631095f64jvm7jfj_000000gn/T//ccaxTwoZ.s:188    .text.initPlant:00000000000000dc .L0 
/var/folders/rt/4gvqv631095f64jvm7jfj_000000gn/T//ccaxTwoZ.s:190    .text.initPlant:00000000000000e0 .L0 
/var/folders/rt/4gvqv631095f64jvm7jfj_000000gn/T//ccaxTwoZ.s:191    .text.initPlant:00000000000000e0 .L0 
/var/folders/rt/4gvqv631095f64jvm7jfj_000000gn/T//ccaxTwoZ.s:193    .text.initPlant:00000000000000e4 .L0 
/var/folders/rt/4gvqv631095f64jvm7jfj_000000gn/T//ccaxTwoZ.s:194    .text.initPlant:00000000000000e4 .L0 
/var/folders/rt/4gvqv631095f64jvm7jfj_000000gn/T//ccaxTwoZ.s:196    .text.initPlant:00000000000000e8 .L0 
/var/folders/rt/4gvqv631095f64jvm7jfj_000000gn/T//ccaxTwoZ.s:197    .text.initPlant:00000000000000e8 .L0 
/var/folders/rt/4gvqv631095f64jvm7jfj_000000gn/T//ccaxTwoZ.s:200    .text.initPlant:00000000000000f0 .L0 
/var/folders/rt/4gvqv631095f64jvm7jfj_000000gn/T//ccaxTwoZ.s:201    .text.initPlant:00000000000000f0 .L0 
/var/folders/rt/4gvqv631095f64jvm7jfj_000000gn/T//ccaxTwoZ.s:204    .text.initPlant:00000000000000f8 .L0 
/var/folders/rt/4gvqv631095f64jvm7jfj_000000gn/T//ccaxTwoZ.s:205    .text.initPlant:00000000000000f8 .L0 
/var/folders/rt/4gvqv631095f64jvm7jfj_000000gn/T//ccaxTwoZ.s:208    .text.initPlant:0000000000000100 .L0 
/var/folders/rt/4gvqv631095f64jvm7jfj_000000gn/T//ccaxTwoZ.s:209    .text.initPlant:0000000000000100 .L0 
/var/folders/rt/4gvqv631095f64jvm7jfj_000000gn/T//ccaxTwoZ.s:211    .text.initPlant:0000000000000104 .L0 
/var/folders/rt/4gvqv631095f64jvm7jfj_000000gn/T//ccaxTwoZ.s:212    .text.initPlant:0000000000000104 .L0 
/var/folders/rt/4gvqv631095f64jvm7jfj_000000gn/T//ccaxTwoZ.s:214    .text.initPlant:0000000000000108 .L0 
/var/folders/rt/4gvqv631095f64jvm7jfj_000000gn/T//ccaxTwoZ.s:215    .text.initPlant:0000000000000108 .L0 
/var/folders/rt/4gvqv631095f64jvm7jfj_000000gn/T//ccaxTwoZ.s:217    .text.initPlant:000000000000010c .L0 
/var/folders/rt/4gvqv631095f64jvm7jfj_000000gn/T//ccaxTwoZ.s:218    .text.initPlant:000000000000010c .L0 
/var/folders/rt/4gvqv631095f64jvm7jfj_000000gn/T//ccaxTwoZ.s:220    .text.initPlant:0000000000000110 .L0 
/var/folders/rt/4gvqv631095f64jvm7jfj_000000gn/T//ccaxTwoZ.s:221    .text.initPlant:0000000000000110 .L0 
/var/folders/rt/4gvqv631095f64jvm7jfj_000000gn/T//ccaxTwoZ.s:223    .text.initPlant:0000000000000114 .L0 
/var/folders/rt/4gvqv631095f64jvm7jfj_000000gn/T//ccaxTwoZ.s:228    .text.initPlant:000000000000011e .L0 
/var/folders/rt/4gvqv631095f64jvm7jfj_000000gn/T//ccaxTwoZ.s:230    .text.initPlant:0000000000000122 .L0 
/var/folders/rt/4gvqv631095f64jvm7jfj_000000gn/T//ccaxTwoZ.s:232    .text.initPlant:0000000000000126 .L0 
/var/folders/rt/4gvqv631095f64jvm7jfj_000000gn/T//ccaxTwoZ.s:234    .text.initPlant:000000000000012a .L0 
/var/folders/rt/4gvqv631095f64jvm7jfj_000000gn/T//ccaxTwoZ.s:236    .text.initPlant:000000000000012e .L0 
/var/folders/rt/4gvqv631095f64jvm7jfj_000000gn/T//ccaxTwoZ.s:238    .text.initPlant:0000000000000132 .L0 
/var/folders/rt/4gvqv631095f64jvm7jfj_000000gn/T//ccaxTwoZ.s:240    .text.initPlant:0000000000000136 .L0 
/var/folders/rt/4gvqv631095f64jvm7jfj_000000gn/T//ccaxTwoZ.s:242    .text.initPlant:000000000000013a .L0 
/var/folders/rt/4gvqv631095f64jvm7jfj_000000gn/T//ccaxTwoZ.s:244    .text.initPlant:000000000000013e .L0 
/var/folders/rt/4gvqv631095f64jvm7jfj_000000gn/T//ccaxTwoZ.s:246    .text.initPlant:0000000000000142 .L0 
/var/folders/rt/4gvqv631095f64jvm7jfj_000000gn/T//ccaxTwoZ.s:248    .text.initPlant:0000000000000146 .L0 
/var/folders/rt/4gvqv631095f64jvm7jfj_000000gn/T//ccaxTwoZ.s:250    .text.initPlant:000000000000014a .L0 
/var/folders/rt/4gvqv631095f64jvm7jfj_000000gn/T//ccaxTwoZ.s:253    .text.initPlant:000000000000014e .L0 
/var/folders/rt/4gvqv631095f64jvm7jfj_000000gn/T//ccaxTwoZ.s:256    .text.initPlant:0000000000000152 .L0 
/var/folders/rt/4gvqv631095f64jvm7jfj_000000gn/T//ccaxTwoZ.s:259    .text.initPlant:0000000000000156 .L0 
/var/folders/rt/4gvqv631095f64jvm7jfj_000000gn/T//ccaxTwoZ.s:262    .text.initPlant:0000000000000158 .L0 
/var/folders/rt/4gvqv631095f64jvm7jfj_000000gn/T//ccaxTwoZ.s:264    .text.initPlant:000000000000015c .L0 
/var/folders/rt/4gvqv631095f64jvm7jfj_000000gn/T//ccaxTwoZ.s:266    .text.initPlant:0000000000000160 .L0 
/var/folders/rt/4gvqv631095f64jvm7jfj_000000gn/T//ccaxTwoZ.s:268    .text.initPlant:0000000000000164 .L0 
/var/folders/rt/4gvqv631095f64jvm7jfj_000000gn/T//ccaxTwoZ.s:270    .text.initPlant:0000000000000168 .L0 
/var/folders/rt/4gvqv631095f64jvm7jfj_000000gn/T//ccaxTwoZ.s:274    .text.initPlant:0000000000000170 .L0 
/var/folders/rt/4gvqv631095f64jvm7jfj_000000gn/T//ccaxTwoZ.s:276    .text.initPlant:0000000000000172 .L0 
/var/folders/rt/4gvqv631095f64jvm7jfj_000000gn/T//ccaxTwoZ.s:278    .text.initPlant:0000000000000176 .L0 
/var/folders/rt/4gvqv631095f64jvm7jfj_000000gn/T//ccaxTwoZ.s:279    .text.initPlant:0000000000000176 .L0 
/var/folders/rt/4gvqv631095f64jvm7jfj_000000gn/T//ccaxTwoZ.s:282    .text.initPlant:000000000000017e .L0 
/var/folders/rt/4gvqv631095f64jvm7jfj_000000gn/T//ccaxTwoZ.s:283    .text.initPlant:000000000000017e .L0 
/var/folders/rt/4gvqv631095f64jvm7jfj_000000gn/T//ccaxTwoZ.s:285    .text.initPlant:0000000000000182 .L0 
/var/folders/rt/4gvqv631095f64jvm7jfj_000000gn/T//ccaxTwoZ.s:286    .text.initPlant:0000000000000182 .L0 
/var/folders/rt/4gvqv631095f64jvm7jfj_000000gn/T//ccaxTwoZ.s:288    .text.initPlant:0000000000000186 .L0 
/var/folders/rt/4gvqv631095f64jvm7jfj_000000gn/T//ccaxTwoZ.s:289    .text.initPlant:0000000000000186 .L0 
GAS LISTING /var/folders/rt/4gvqv631095f64jvm7jfj_000000gn/T//ccaxTwoZ.s 			page 41


/var/folders/rt/4gvqv631095f64jvm7jfj_000000gn/T//ccaxTwoZ.s:291    .text.initPlant:000000000000018a .L0 
/var/folders/rt/4gvqv631095f64jvm7jfj_000000gn/T//ccaxTwoZ.s:292    .text.initPlant:000000000000018a .L0 
/var/folders/rt/4gvqv631095f64jvm7jfj_000000gn/T//ccaxTwoZ.s:294    .text.initPlant:000000000000018e .L0 
/var/folders/rt/4gvqv631095f64jvm7jfj_000000gn/T//ccaxTwoZ.s:295    .text.initPlant:000000000000018e .L0 
/var/folders/rt/4gvqv631095f64jvm7jfj_000000gn/T//ccaxTwoZ.s:296    .text.initPlant:000000000000018e .L0 
/var/folders/rt/4gvqv631095f64jvm7jfj_000000gn/T//ccaxTwoZ.s:298    .text.initPlant:0000000000000192 .L0 
/var/folders/rt/4gvqv631095f64jvm7jfj_000000gn/T//ccaxTwoZ.s:299    .text.initPlant:0000000000000192 .L0 
/var/folders/rt/4gvqv631095f64jvm7jfj_000000gn/T//ccaxTwoZ.s:301    .text.initPlant:0000000000000196 .L0 
/var/folders/rt/4gvqv631095f64jvm7jfj_000000gn/T//ccaxTwoZ.s:302    .text.initPlant:0000000000000196 .L0 
/var/folders/rt/4gvqv631095f64jvm7jfj_000000gn/T//ccaxTwoZ.s:304    .text.initPlant:000000000000019a .L0 
/var/folders/rt/4gvqv631095f64jvm7jfj_000000gn/T//ccaxTwoZ.s:305    .text.initPlant:000000000000019a .L0 
/var/folders/rt/4gvqv631095f64jvm7jfj_000000gn/T//ccaxTwoZ.s:307    .text.initPlant:000000000000019e .L0 
/var/folders/rt/4gvqv631095f64jvm7jfj_000000gn/T//ccaxTwoZ.s:308    .text.initPlant:000000000000019e .L0 
/var/folders/rt/4gvqv631095f64jvm7jfj_000000gn/T//ccaxTwoZ.s:311    .text.initPlant:00000000000001a6 .L0 
/var/folders/rt/4gvqv631095f64jvm7jfj_000000gn/T//ccaxTwoZ.s:312    .text.initPlant:00000000000001a6 .L0 
/var/folders/rt/4gvqv631095f64jvm7jfj_000000gn/T//ccaxTwoZ.s:316    .text.initPlant:00000000000001aa .L0 
/var/folders/rt/4gvqv631095f64jvm7jfj_000000gn/T//ccaxTwoZ.s:317    .text.initPlant:00000000000001ae .L0 
/var/folders/rt/4gvqv631095f64jvm7jfj_000000gn/T//ccaxTwoZ.s:319    .text.initPlant:00000000000001b2 .L0 
/var/folders/rt/4gvqv631095f64jvm7jfj_000000gn/T//ccaxTwoZ.s:321    .text.initPlant:00000000000001b6 .L0 
/var/folders/rt/4gvqv631095f64jvm7jfj_000000gn/T//ccaxTwoZ.s:323    .text.initPlant:00000000000001ba .L0 
/var/folders/rt/4gvqv631095f64jvm7jfj_000000gn/T//ccaxTwoZ.s:325    .text.initPlant:00000000000001be .L0 
/var/folders/rt/4gvqv631095f64jvm7jfj_000000gn/T//ccaxTwoZ.s:327    .text.initPlant:00000000000001c2 .L0 
/var/folders/rt/4gvqv631095f64jvm7jfj_000000gn/T//ccaxTwoZ.s:329    .text.initPlant:00000000000001c6 .L0 
/var/folders/rt/4gvqv631095f64jvm7jfj_000000gn/T//ccaxTwoZ.s:331    .text.initPlant:00000000000001ca .L0 
/var/folders/rt/4gvqv631095f64jvm7jfj_000000gn/T//ccaxTwoZ.s:333    .text.initPlant:00000000000001ce .L0 
/var/folders/rt/4gvqv631095f64jvm7jfj_000000gn/T//ccaxTwoZ.s:335    .text.initPlant:00000000000001d2 .L0 
/var/folders/rt/4gvqv631095f64jvm7jfj_000000gn/T//ccaxTwoZ.s:337    .text.initPlant:00000000000001d6 .L0 
/var/folders/rt/4gvqv631095f64jvm7jfj_000000gn/T//ccaxTwoZ.s:339    .text.initPlant:00000000000001da .L0 
/var/folders/rt/4gvqv631095f64jvm7jfj_000000gn/T//ccaxTwoZ.s:342    .text.initPlant:00000000000001de .L0 
/var/folders/rt/4gvqv631095f64jvm7jfj_000000gn/T//ccaxTwoZ.s:345    .text.initPlant:00000000000001e0 .L0 
/var/folders/rt/4gvqv631095f64jvm7jfj_000000gn/T//ccaxTwoZ.s:352    .text.updatePlantStatus:0000000000000000 updatePlantStatus
/var/folders/rt/4gvqv631095f64jvm7jfj_000000gn/T//ccaxTwoZ.s:355    .text.updatePlantStatus:0000000000000000 .L0 
/var/folders/rt/4gvqv631095f64jvm7jfj_000000gn/T//ccaxTwoZ.s:357    .text.updatePlantStatus:0000000000000000 .L0 
/var/folders/rt/4gvqv631095f64jvm7jfj_000000gn/T//ccaxTwoZ.s:358    .text.updatePlantStatus:0000000000000000 .L0 
/var/folders/rt/4gvqv631095f64jvm7jfj_000000gn/T//ccaxTwoZ.s:359    .text.updatePlantStatus:0000000000000000 .L0 
/var/folders/rt/4gvqv631095f64jvm7jfj_000000gn/T//ccaxTwoZ.s:361    .text.updatePlantStatus:0000000000000002 .L0 
/var/folders/rt/4gvqv631095f64jvm7jfj_000000gn/T//ccaxTwoZ.s:364    .text.updatePlantStatus:0000000000000006 .L0 
/var/folders/rt/4gvqv631095f64jvm7jfj_000000gn/T//ccaxTwoZ.s:365    .text.updatePlantStatus:0000000000000006 .L0 
/var/folders/rt/4gvqv631095f64jvm7jfj_000000gn/T//ccaxTwoZ.s:367    .text.updatePlantStatus:0000000000000006 .L0 
/var/folders/rt/4gvqv631095f64jvm7jfj_000000gn/T//ccaxTwoZ.s:370    .text.updatePlantStatus:000000000000000e .L0 
/var/folders/rt/4gvqv631095f64jvm7jfj_000000gn/T//ccaxTwoZ.s:372    .text.updatePlantStatus:0000000000000010 .L0 
/var/folders/rt/4gvqv631095f64jvm7jfj_000000gn/T//ccaxTwoZ.s:381    .text.updatePlantStatus:0000000000000024 .L0 
/var/folders/rt/4gvqv631095f64jvm7jfj_000000gn/T//ccaxTwoZ.s:394    .text.updatePlantStatus:0000000000000044 .L0 
/var/folders/rt/4gvqv631095f64jvm7jfj_000000gn/T//ccaxTwoZ.s:396    .text.updatePlantStatus:0000000000000048 .L0 
/var/folders/rt/4gvqv631095f64jvm7jfj_000000gn/T//ccaxTwoZ.s:398    .text.updatePlantStatus:000000000000004a .L0 
/var/folders/rt/4gvqv631095f64jvm7jfj_000000gn/T//ccaxTwoZ.s:408    .text.updatePlantStatus:0000000000000062 .L0 
/var/folders/rt/4gvqv631095f64jvm7jfj_000000gn/T//ccaxTwoZ.s:410    .text.updatePlantStatus:0000000000000066 .L0 
/var/folders/rt/4gvqv631095f64jvm7jfj_000000gn/T//ccaxTwoZ.s:420    .text.updatePlantStatus:0000000000000082 .L0 
/var/folders/rt/4gvqv631095f64jvm7jfj_000000gn/T//ccaxTwoZ.s:427    .text.updatePlantStatus:0000000000000096 .L0 
/var/folders/rt/4gvqv631095f64jvm7jfj_000000gn/T//ccaxTwoZ.s:428    .text.updatePlantStatus:0000000000000096 .L0 
/var/folders/rt/4gvqv631095f64jvm7jfj_000000gn/T//ccaxTwoZ.s:439    .text.updatePlantStatus:00000000000000b2 .L0 
/var/folders/rt/4gvqv631095f64jvm7jfj_000000gn/T//ccaxTwoZ.s:451    .text.updatePlantStatus:00000000000000d0 .L0 
/var/folders/rt/4gvqv631095f64jvm7jfj_000000gn/T//ccaxTwoZ.s:453    .text.updatePlantStatus:00000000000000d4 .L0 
/var/folders/rt/4gvqv631095f64jvm7jfj_000000gn/T//ccaxTwoZ.s:456    .text.updatePlantStatus:00000000000000d8 .L0 
/var/folders/rt/4gvqv631095f64jvm7jfj_000000gn/T//ccaxTwoZ.s:466    .text.updatePlantStatus:00000000000000f0 .L0 
/var/folders/rt/4gvqv631095f64jvm7jfj_000000gn/T//ccaxTwoZ.s:468    .text.updatePlantStatus:00000000000000f4 .L0 
/var/folders/rt/4gvqv631095f64jvm7jfj_000000gn/T//ccaxTwoZ.s:469    .text.updatePlantStatus:00000000000000f4 .L0 
GAS LISTING /var/folders/rt/4gvqv631095f64jvm7jfj_000000gn/T//ccaxTwoZ.s 			page 42


/var/folders/rt/4gvqv631095f64jvm7jfj_000000gn/T//ccaxTwoZ.s:470    .text.updatePlantStatus:00000000000000f6 .L0 
/var/folders/rt/4gvqv631095f64jvm7jfj_000000gn/T//ccaxTwoZ.s:471    .text.updatePlantStatus:00000000000000f6 .L0 
/var/folders/rt/4gvqv631095f64jvm7jfj_000000gn/T//ccaxTwoZ.s:474    .text.updatePlantStatus:00000000000000f8 .L0 
/var/folders/rt/4gvqv631095f64jvm7jfj_000000gn/T//ccaxTwoZ.s:476    .text.updatePlantStatus:00000000000000f8 .L0 
/var/folders/rt/4gvqv631095f64jvm7jfj_000000gn/T//ccaxTwoZ.s:478    .text.updatePlantStatus:00000000000000fc .L0 
/var/folders/rt/4gvqv631095f64jvm7jfj_000000gn/T//ccaxTwoZ.s:480    .text.updatePlantStatus:00000000000000fe .L0 
/var/folders/rt/4gvqv631095f64jvm7jfj_000000gn/T//ccaxTwoZ.s:482    .text.updatePlantStatus:00000000000000fe .L0 
/var/folders/rt/4gvqv631095f64jvm7jfj_000000gn/T//ccaxTwoZ.s:486    .text.updatePlantStatus:0000000000000106 .L0 
/var/folders/rt/4gvqv631095f64jvm7jfj_000000gn/T//ccaxTwoZ.s:488    .text.updatePlantStatus:0000000000000106 .L0 
/var/folders/rt/4gvqv631095f64jvm7jfj_000000gn/T//ccaxTwoZ.s:489    .text.updatePlantStatus:0000000000000106 .L0 
/var/folders/rt/4gvqv631095f64jvm7jfj_000000gn/T//ccaxTwoZ.s:500    .text.updatePlantStatus:0000000000000122 .L0 
/var/folders/rt/4gvqv631095f64jvm7jfj_000000gn/T//ccaxTwoZ.s:502    .text.updatePlantStatus:0000000000000126 .L0 
/var/folders/rt/4gvqv631095f64jvm7jfj_000000gn/T//ccaxTwoZ.s:508    .text.updatePlantStatus:0000000000000138 .L0 
/var/folders/rt/4gvqv631095f64jvm7jfj_000000gn/T//ccaxTwoZ.s:516    .text.updatePlantStatus:000000000000014e .L0 
/var/folders/rt/4gvqv631095f64jvm7jfj_000000gn/T//ccaxTwoZ.s:517    .text.updatePlantStatus:0000000000000150 .L0 
/var/folders/rt/4gvqv631095f64jvm7jfj_000000gn/T//ccaxTwoZ.s:519    .text.updatePlantStatus:0000000000000152 .L0 
/var/folders/rt/4gvqv631095f64jvm7jfj_000000gn/T//ccaxTwoZ.s:523    .text.updatePlantStatus:0000000000000154 .L0 
/var/folders/rt/4gvqv631095f64jvm7jfj_000000gn/T//ccaxTwoZ.s:525    .text.updatePlantStatus:0000000000000156 .L0 
/var/folders/rt/4gvqv631095f64jvm7jfj_000000gn/T//ccaxTwoZ.s:533    .text.updatePlantReadings:0000000000000000 updatePlantReadings
/var/folders/rt/4gvqv631095f64jvm7jfj_000000gn/T//ccaxTwoZ.s:536    .text.updatePlantReadings:0000000000000000 .L0 
/var/folders/rt/4gvqv631095f64jvm7jfj_000000gn/T//ccaxTwoZ.s:538    .text.updatePlantReadings:0000000000000000 .L0 
/var/folders/rt/4gvqv631095f64jvm7jfj_000000gn/T//ccaxTwoZ.s:539    .text.updatePlantReadings:0000000000000000 .L0 
/var/folders/rt/4gvqv631095f64jvm7jfj_000000gn/T//ccaxTwoZ.s:540    .text.updatePlantReadings:0000000000000000 .L0 
/var/folders/rt/4gvqv631095f64jvm7jfj_000000gn/T//ccaxTwoZ.s:542    .text.updatePlantReadings:0000000000000002 .L0 
/var/folders/rt/4gvqv631095f64jvm7jfj_000000gn/T//ccaxTwoZ.s:546    .text.updatePlantReadings:0000000000000008 .L0 
/var/folders/rt/4gvqv631095f64jvm7jfj_000000gn/T//ccaxTwoZ.s:547    .text.updatePlantReadings:0000000000000008 .L0 
/var/folders/rt/4gvqv631095f64jvm7jfj_000000gn/T//ccaxTwoZ.s:548    .text.updatePlantReadings:0000000000000008 .L0 
/var/folders/rt/4gvqv631095f64jvm7jfj_000000gn/T//ccaxTwoZ.s:550    .text.updatePlantReadings:0000000000000008 .L0 
/var/folders/rt/4gvqv631095f64jvm7jfj_000000gn/T//ccaxTwoZ.s:552    .text.updatePlantReadings:000000000000000a .L0 
/var/folders/rt/4gvqv631095f64jvm7jfj_000000gn/T//ccaxTwoZ.s:554    .text.updatePlantReadings:000000000000000c .L0 
/var/folders/rt/4gvqv631095f64jvm7jfj_000000gn/T//ccaxTwoZ.s:557    .text.updatePlantReadings:0000000000000010 .L0 
/var/folders/rt/4gvqv631095f64jvm7jfj_000000gn/T//ccaxTwoZ.s:562    .text.updatePlantReadings:000000000000001a .L0 
/var/folders/rt/4gvqv631095f64jvm7jfj_000000gn/T//ccaxTwoZ.s:563    .text.updatePlantReadings:000000000000001a .L0 
/var/folders/rt/4gvqv631095f64jvm7jfj_000000gn/T//ccaxTwoZ.s:567    .text.updatePlantReadings:0000000000000024 .L0 
/var/folders/rt/4gvqv631095f64jvm7jfj_000000gn/T//ccaxTwoZ.s:568    .text.updatePlantReadings:0000000000000024 .L0 
/var/folders/rt/4gvqv631095f64jvm7jfj_000000gn/T//ccaxTwoZ.s:569    .text.updatePlantReadings:0000000000000024 .L0 
/var/folders/rt/4gvqv631095f64jvm7jfj_000000gn/T//ccaxTwoZ.s:580    .text.updatePlantReadings:0000000000000040 .L0 
/var/folders/rt/4gvqv631095f64jvm7jfj_000000gn/T//ccaxTwoZ.s:584    .text.updatePlantReadings:0000000000000048 .L0 
/var/folders/rt/4gvqv631095f64jvm7jfj_000000gn/T//ccaxTwoZ.s:587    .text.updatePlantReadings:000000000000004c .L0 
/var/folders/rt/4gvqv631095f64jvm7jfj_000000gn/T//ccaxTwoZ.s:594    .text.updatePlantReadings:0000000000000058 .L0 
/var/folders/rt/4gvqv631095f64jvm7jfj_000000gn/T//ccaxTwoZ.s:613    .text.updatePlantReadings:0000000000000090 .L0 
/var/folders/rt/4gvqv631095f64jvm7jfj_000000gn/T//ccaxTwoZ.s:614    .text.updatePlantReadings:0000000000000090 .L0 
/var/folders/rt/4gvqv631095f64jvm7jfj_000000gn/T//ccaxTwoZ.s:617    .text.updatePlantReadings:0000000000000098 .L0 
/var/folders/rt/4gvqv631095f64jvm7jfj_000000gn/T//ccaxTwoZ.s:618    .text.updatePlantReadings:0000000000000098 .L0 
/var/folders/rt/4gvqv631095f64jvm7jfj_000000gn/T//ccaxTwoZ.s:621    .text.updatePlantReadings:00000000000000a0 .L0 
/var/folders/rt/4gvqv631095f64jvm7jfj_000000gn/T//ccaxTwoZ.s:623    .text.updatePlantReadings:00000000000000a4 .L0 
/var/folders/rt/4gvqv631095f64jvm7jfj_000000gn/T//ccaxTwoZ.s:634    .text.updatePlantReadings:00000000000000be .L0 
/var/folders/rt/4gvqv631095f64jvm7jfj_000000gn/T//ccaxTwoZ.s:640    .text.updatePlantReadings:00000000000000d2 .L0 
/var/folders/rt/4gvqv631095f64jvm7jfj_000000gn/T//ccaxTwoZ.s:641    .text.updatePlantReadings:00000000000000d2 .L0 
/var/folders/rt/4gvqv631095f64jvm7jfj_000000gn/T//ccaxTwoZ.s:643    .text.updatePlantReadings:00000000000000d6 .L0 
/var/folders/rt/4gvqv631095f64jvm7jfj_000000gn/T//ccaxTwoZ.s:646    .text.updatePlantReadings:00000000000000dc .L0 
/var/folders/rt/4gvqv631095f64jvm7jfj_000000gn/T//ccaxTwoZ.s:647    .text.updatePlantReadings:00000000000000dc .L0 
/var/folders/rt/4gvqv631095f64jvm7jfj_000000gn/T//ccaxTwoZ.s:650    .text.updatePlantReadings:00000000000000e4 .L0 
/var/folders/rt/4gvqv631095f64jvm7jfj_000000gn/T//ccaxTwoZ.s:651    .text.updatePlantReadings:00000000000000e4 .L0 
/var/folders/rt/4gvqv631095f64jvm7jfj_000000gn/T//ccaxTwoZ.s:661    .text.updatePlantReadings:00000000000000f6 .L0 
/var/folders/rt/4gvqv631095f64jvm7jfj_000000gn/T//ccaxTwoZ.s:663    .text.updatePlantReadings:00000000000000f8 .L0 
/var/folders/rt/4gvqv631095f64jvm7jfj_000000gn/T//ccaxTwoZ.s:664    .text.updatePlantReadings:00000000000000fa .L0 
GAS LISTING /var/folders/rt/4gvqv631095f64jvm7jfj_000000gn/T//ccaxTwoZ.s 			page 43


/var/folders/rt/4gvqv631095f64jvm7jfj_000000gn/T//ccaxTwoZ.s:665    .text.updatePlantReadings:00000000000000fa .L0 
/var/folders/rt/4gvqv631095f64jvm7jfj_000000gn/T//ccaxTwoZ.s:668    .text.updatePlantReadings:00000000000000fc .L0 
/var/folders/rt/4gvqv631095f64jvm7jfj_000000gn/T//ccaxTwoZ.s:670    .text.updatePlantReadings:00000000000000fe .L0 
/var/folders/rt/4gvqv631095f64jvm7jfj_000000gn/T//ccaxTwoZ.s:673    .text.updatePlantReadings:0000000000000100 .L0 
/var/folders/rt/4gvqv631095f64jvm7jfj_000000gn/T//ccaxTwoZ.s:675    .text.updatePlantReadings:0000000000000100 .L0 
/var/folders/rt/4gvqv631095f64jvm7jfj_000000gn/T//ccaxTwoZ.s:679    .text.updatePlantReadings:0000000000000108 .L0 
/var/folders/rt/4gvqv631095f64jvm7jfj_000000gn/T//ccaxTwoZ.s:683    .text.updatePlantReadings:0000000000000108 .L0 
/var/folders/rt/4gvqv631095f64jvm7jfj_000000gn/T//ccaxTwoZ.s:684    .text.updatePlantReadings:0000000000000108 .L0 
/var/folders/rt/4gvqv631095f64jvm7jfj_000000gn/T//ccaxTwoZ.s:695    .text.updatePlantReadings:0000000000000124 .L0 
/var/folders/rt/4gvqv631095f64jvm7jfj_000000gn/T//ccaxTwoZ.s:698    .text.updatePlantReadings:0000000000000126 .L0 
/var/folders/rt/4gvqv631095f64jvm7jfj_000000gn/T//ccaxTwoZ.s:701    .text.updatePlantReadings:000000000000012e .L0 
/var/folders/rt/4gvqv631095f64jvm7jfj_000000gn/T//ccaxTwoZ.s:702    .text.updatePlantReadings:000000000000012e .L0 
/var/folders/rt/4gvqv631095f64jvm7jfj_000000gn/T//ccaxTwoZ.s:713    .text.updatePlantReadings:000000000000014a .L0 
/var/folders/rt/4gvqv631095f64jvm7jfj_000000gn/T//ccaxTwoZ.s:714    .text.updatePlantReadings:000000000000014a .L0 
/var/folders/rt/4gvqv631095f64jvm7jfj_000000gn/T//ccaxTwoZ.s:725    .text.updatePlantReadings:0000000000000166 .L0 
/var/folders/rt/4gvqv631095f64jvm7jfj_000000gn/T//ccaxTwoZ.s:730    .text.updatePlantReadings:000000000000016e .L0 
/var/folders/rt/4gvqv631095f64jvm7jfj_000000gn/T//ccaxTwoZ.s:733    .text.updatePlantReadings:0000000000000170 .L0 
/var/folders/rt/4gvqv631095f64jvm7jfj_000000gn/T//ccaxTwoZ.s:736    .text.updatePlantReadings:0000000000000172 .L0 
/var/folders/rt/4gvqv631095f64jvm7jfj_000000gn/T//ccaxTwoZ.s:740    .text.updatePlantReadings:0000000000000176 .L0 
/var/folders/rt/4gvqv631095f64jvm7jfj_000000gn/T//ccaxTwoZ.s:741    .text.updatePlantReadings:0000000000000176 .L0 
/var/folders/rt/4gvqv631095f64jvm7jfj_000000gn/T//ccaxTwoZ.s:747    .text.updatePlantReadings:0000000000000186 .L0 
/var/folders/rt/4gvqv631095f64jvm7jfj_000000gn/T//ccaxTwoZ.s:750    .text.updatePlantReadings:0000000000000188 .L0 
/var/folders/rt/4gvqv631095f64jvm7jfj_000000gn/T//ccaxTwoZ.s:759    .text.updatePlantReadings:000000000000019c .L0 
/var/folders/rt/4gvqv631095f64jvm7jfj_000000gn/T//ccaxTwoZ.s:762    .text.updatePlantReadings:000000000000019e .L0 
/var/folders/rt/4gvqv631095f64jvm7jfj_000000gn/T//ccaxTwoZ.s:765    .text.updatePlantReadings:00000000000001a2 .L0 
/var/folders/rt/4gvqv631095f64jvm7jfj_000000gn/T//ccaxTwoZ.s:766    .text.updatePlantReadings:00000000000001a2 .L0 
/var/folders/rt/4gvqv631095f64jvm7jfj_000000gn/T//ccaxTwoZ.s:769    .text.updatePlantReadings:00000000000001a6 .L0 
/var/folders/rt/4gvqv631095f64jvm7jfj_000000gn/T//ccaxTwoZ.s:776    .text.updatePlantReadings:00000000000001b8 .L0 
/var/folders/rt/4gvqv631095f64jvm7jfj_000000gn/T//ccaxTwoZ.s:778    .text.updatePlantReadings:00000000000001b8 .L0 
/var/folders/rt/4gvqv631095f64jvm7jfj_000000gn/T//ccaxTwoZ.s:779    .text.updatePlantReadings:00000000000001b8 .L0 
/var/folders/rt/4gvqv631095f64jvm7jfj_000000gn/T//ccaxTwoZ.s:780    .text.updatePlantReadings:00000000000001b8 .L0 
/var/folders/rt/4gvqv631095f64jvm7jfj_000000gn/T//ccaxTwoZ.s:784    .text.updatePlantReadings:00000000000001ba .L0 
/var/folders/rt/4gvqv631095f64jvm7jfj_000000gn/T//ccaxTwoZ.s:787    .text.updatePlantReadings:00000000000001c0 .L0 
/var/folders/rt/4gvqv631095f64jvm7jfj_000000gn/T//ccaxTwoZ.s:800    .text.updatePlantReadings:00000000000001de .L0 
/var/folders/rt/4gvqv631095f64jvm7jfj_000000gn/T//ccaxTwoZ.s:809    .text.updatePlantReadings:00000000000001f8 .L0 
/var/folders/rt/4gvqv631095f64jvm7jfj_000000gn/T//ccaxTwoZ.s:812    .text.updatePlantReadings:00000000000001fa .L0 
/var/folders/rt/4gvqv631095f64jvm7jfj_000000gn/T//ccaxTwoZ.s:813    .text.updatePlantReadings:00000000000001fa .L0 
/var/folders/rt/4gvqv631095f64jvm7jfj_000000gn/T//ccaxTwoZ.s:821    .text.updatePlantReadings:0000000000000210 .L0 
/var/folders/rt/4gvqv631095f64jvm7jfj_000000gn/T//ccaxTwoZ.s:823    .text.updatePlantReadings:0000000000000214 .L0 
/var/folders/rt/4gvqv631095f64jvm7jfj_000000gn/T//ccaxTwoZ.s:825    .text.updatePlantReadings:0000000000000218 .L0 
/var/folders/rt/4gvqv631095f64jvm7jfj_000000gn/T//ccaxTwoZ.s:826    .text.updatePlantReadings:0000000000000218 .L0 
/var/folders/rt/4gvqv631095f64jvm7jfj_000000gn/T//ccaxTwoZ.s:836    .text.updatePlantReadings:0000000000000230 .L0 
/var/folders/rt/4gvqv631095f64jvm7jfj_000000gn/T//ccaxTwoZ.s:839    .text.updatePlantReadings:0000000000000236 .L0 
/var/folders/rt/4gvqv631095f64jvm7jfj_000000gn/T//ccaxTwoZ.s:840    .text.updatePlantReadings:0000000000000236 .L0 
/var/folders/rt/4gvqv631095f64jvm7jfj_000000gn/T//ccaxTwoZ.s:854    .text.updatePlantReadings:0000000000000254 .L0 
/var/folders/rt/4gvqv631095f64jvm7jfj_000000gn/T//ccaxTwoZ.s:855    .text.updatePlantReadings:0000000000000254 .L0 
/var/folders/rt/4gvqv631095f64jvm7jfj_000000gn/T//ccaxTwoZ.s:858    .text.updatePlantReadings:0000000000000258 .L0 
/var/folders/rt/4gvqv631095f64jvm7jfj_000000gn/T//ccaxTwoZ.s:862    .text.updatePlantReadings:0000000000000262 .L0 
/var/folders/rt/4gvqv631095f64jvm7jfj_000000gn/T//ccaxTwoZ.s:863    .text.updatePlantReadings:0000000000000262 .L0 
/var/folders/rt/4gvqv631095f64jvm7jfj_000000gn/T//ccaxTwoZ.s:867    .text.updatePlantReadings:000000000000026c .L0 
/var/folders/rt/4gvqv631095f64jvm7jfj_000000gn/T//ccaxTwoZ.s:868    .text.updatePlantReadings:000000000000026c .L0 
/var/folders/rt/4gvqv631095f64jvm7jfj_000000gn/T//ccaxTwoZ.s:869    .text.updatePlantReadings:000000000000026c .L0 
/var/folders/rt/4gvqv631095f64jvm7jfj_000000gn/T//ccaxTwoZ.s:880    .text.updatePlantReadings:0000000000000288 .L0 
/var/folders/rt/4gvqv631095f64jvm7jfj_000000gn/T//ccaxTwoZ.s:884    .text.updatePlantReadings:000000000000028e .L0 
/var/folders/rt/4gvqv631095f64jvm7jfj_000000gn/T//ccaxTwoZ.s:885    .text.updatePlantReadings:000000000000028e .L0 
/var/folders/rt/4gvqv631095f64jvm7jfj_000000gn/T//ccaxTwoZ.s:900    .text.updatePlantReadings:00000000000002b4 .L0 
/var/folders/rt/4gvqv631095f64jvm7jfj_000000gn/T//ccaxTwoZ.s:901    .text.updatePlantReadings:00000000000002b4 .L0 
GAS LISTING /var/folders/rt/4gvqv631095f64jvm7jfj_000000gn/T//ccaxTwoZ.s 			page 44


/var/folders/rt/4gvqv631095f64jvm7jfj_000000gn/T//ccaxTwoZ.s:904    .text.updatePlantReadings:00000000000002bc .L0 
/var/folders/rt/4gvqv631095f64jvm7jfj_000000gn/T//ccaxTwoZ.s:905    .text.updatePlantReadings:00000000000002bc .L0 
/var/folders/rt/4gvqv631095f64jvm7jfj_000000gn/T//ccaxTwoZ.s:908    .text.updatePlantReadings:00000000000002c4 .L0 
/var/folders/rt/4gvqv631095f64jvm7jfj_000000gn/T//ccaxTwoZ.s:910    .text.updatePlantReadings:00000000000002c8 .L0 
/var/folders/rt/4gvqv631095f64jvm7jfj_000000gn/T//ccaxTwoZ.s:919    .text.updatePlantReadings:00000000000002dc .L0 
/var/folders/rt/4gvqv631095f64jvm7jfj_000000gn/T//ccaxTwoZ.s:931    .text.updatePlantReadings:00000000000002fa .L0 
/var/folders/rt/4gvqv631095f64jvm7jfj_000000gn/T//ccaxTwoZ.s:932    .text.updatePlantReadings:00000000000002fa .L0 
/var/folders/rt/4gvqv631095f64jvm7jfj_000000gn/T//ccaxTwoZ.s:937    .text.updatePlantReadings:0000000000000300 .L0 
/var/folders/rt/4gvqv631095f64jvm7jfj_000000gn/T//ccaxTwoZ.s:940    .text.updatePlantReadings:0000000000000302 .L0 
/var/folders/rt/4gvqv631095f64jvm7jfj_000000gn/T//ccaxTwoZ.s:943    .text.updatePlantReadings:0000000000000304 .L0 
/var/folders/rt/4gvqv631095f64jvm7jfj_000000gn/T//ccaxTwoZ.s:947    .text.updatePlantReadings:0000000000000306 .L0 
/var/folders/rt/4gvqv631095f64jvm7jfj_000000gn/T//ccaxTwoZ.s:948    .text.updatePlantReadings:0000000000000306 .L0 
/var/folders/rt/4gvqv631095f64jvm7jfj_000000gn/T//ccaxTwoZ.s:954    .text.updatePlantReadings:0000000000000316 .L0 
/var/folders/rt/4gvqv631095f64jvm7jfj_000000gn/T//ccaxTwoZ.s:957    .text.updatePlantReadings:0000000000000318 .L0 
/var/folders/rt/4gvqv631095f64jvm7jfj_000000gn/T//ccaxTwoZ.s:966    .text.updatePlantReadings:000000000000032c .L0 
/var/folders/rt/4gvqv631095f64jvm7jfj_000000gn/T//ccaxTwoZ.s:969    .text.updatePlantReadings:000000000000032e .L0 
/var/folders/rt/4gvqv631095f64jvm7jfj_000000gn/T//ccaxTwoZ.s:972    .text.updatePlantReadings:0000000000000332 .L0 
/var/folders/rt/4gvqv631095f64jvm7jfj_000000gn/T//ccaxTwoZ.s:973    .text.updatePlantReadings:0000000000000332 .L0 
/var/folders/rt/4gvqv631095f64jvm7jfj_000000gn/T//ccaxTwoZ.s:976    .text.updatePlantReadings:0000000000000336 .L0 
/var/folders/rt/4gvqv631095f64jvm7jfj_000000gn/T//ccaxTwoZ.s:983    .text.updatePlantReadings:0000000000000348 .L0 
/var/folders/rt/4gvqv631095f64jvm7jfj_000000gn/T//ccaxTwoZ.s:985    .text.updatePlantReadings:0000000000000348 .L0 
/var/folders/rt/4gvqv631095f64jvm7jfj_000000gn/T//ccaxTwoZ.s:986    .text.updatePlantReadings:0000000000000348 .L0 
/var/folders/rt/4gvqv631095f64jvm7jfj_000000gn/T//ccaxTwoZ.s:987    .text.updatePlantReadings:0000000000000348 .L0 
/var/folders/rt/4gvqv631095f64jvm7jfj_000000gn/T//ccaxTwoZ.s:991    .text.updatePlantReadings:000000000000034a .L0 
/var/folders/rt/4gvqv631095f64jvm7jfj_000000gn/T//ccaxTwoZ.s:994    .text.updatePlantReadings:0000000000000350 .L0 
/var/folders/rt/4gvqv631095f64jvm7jfj_000000gn/T//ccaxTwoZ.s:1007   .text.updatePlantReadings:000000000000036e .L0 
/var/folders/rt/4gvqv631095f64jvm7jfj_000000gn/T//ccaxTwoZ.s:1016   .text.updatePlantReadings:0000000000000388 .L0 
/var/folders/rt/4gvqv631095f64jvm7jfj_000000gn/T//ccaxTwoZ.s:1019   .text.updatePlantReadings:000000000000038a .L0 
/var/folders/rt/4gvqv631095f64jvm7jfj_000000gn/T//ccaxTwoZ.s:1020   .text.updatePlantReadings:000000000000038a .L0 
/var/folders/rt/4gvqv631095f64jvm7jfj_000000gn/T//ccaxTwoZ.s:1028   .text.updatePlantReadings:00000000000003a0 .L0 
/var/folders/rt/4gvqv631095f64jvm7jfj_000000gn/T//ccaxTwoZ.s:1030   .text.updatePlantReadings:00000000000003a4 .L0 
/var/folders/rt/4gvqv631095f64jvm7jfj_000000gn/T//ccaxTwoZ.s:1032   .text.updatePlantReadings:00000000000003a8 .L0 
/var/folders/rt/4gvqv631095f64jvm7jfj_000000gn/T//ccaxTwoZ.s:1033   .text.updatePlantReadings:00000000000003a8 .L0 
/var/folders/rt/4gvqv631095f64jvm7jfj_000000gn/T//ccaxTwoZ.s:1043   .text.updatePlantReadings:00000000000003c0 .L0 
/var/folders/rt/4gvqv631095f64jvm7jfj_000000gn/T//ccaxTwoZ.s:1046   .text.updatePlantReadings:00000000000003c6 .L0 
/var/folders/rt/4gvqv631095f64jvm7jfj_000000gn/T//ccaxTwoZ.s:1047   .text.updatePlantReadings:00000000000003c6 .L0 
/var/folders/rt/4gvqv631095f64jvm7jfj_000000gn/T//ccaxTwoZ.s:1061   .text.updatePlantReadings:00000000000003e4 .L0 
/var/folders/rt/4gvqv631095f64jvm7jfj_000000gn/T//ccaxTwoZ.s:1062   .text.updatePlantReadings:00000000000003e4 .L0 
/var/folders/rt/4gvqv631095f64jvm7jfj_000000gn/T//ccaxTwoZ.s:1066   .text.updatePlantReadings:00000000000003ea .L0 
/var/folders/rt/4gvqv631095f64jvm7jfj_000000gn/T//ccaxTwoZ.s:1067   .text.updatePlantReadings:00000000000003ea .L0 
/var/folders/rt/4gvqv631095f64jvm7jfj_000000gn/T//ccaxTwoZ.s:1070   .text.updatePlantReadings:00000000000003f2 .L0 
/var/folders/rt/4gvqv631095f64jvm7jfj_000000gn/T//ccaxTwoZ.s:1071   .text.updatePlantReadings:00000000000003f2 .L0 
/var/folders/rt/4gvqv631095f64jvm7jfj_000000gn/T//ccaxTwoZ.s:1072   .text.updatePlantReadings:00000000000003f2 .L0 
/var/folders/rt/4gvqv631095f64jvm7jfj_000000gn/T//ccaxTwoZ.s:1083   .text.updatePlantReadings:000000000000040e .L0 
/var/folders/rt/4gvqv631095f64jvm7jfj_000000gn/T//ccaxTwoZ.s:1088   .text.updatePlantReadings:0000000000000414 .L0 
/var/folders/rt/4gvqv631095f64jvm7jfj_000000gn/T//ccaxTwoZ.s:1089   .text.updatePlantReadings:0000000000000414 .L0 
/var/folders/rt/4gvqv631095f64jvm7jfj_000000gn/T//ccaxTwoZ.s:1093   .text.updatePlantReadings:000000000000041c .L0 
/var/folders/rt/4gvqv631095f64jvm7jfj_000000gn/T//ccaxTwoZ.s:1107   .text.updatePlantReadings:0000000000000444 .L0 
/var/folders/rt/4gvqv631095f64jvm7jfj_000000gn/T//ccaxTwoZ.s:1108   .text.updatePlantReadings:0000000000000444 .L0 
/var/folders/rt/4gvqv631095f64jvm7jfj_000000gn/T//ccaxTwoZ.s:1111   .text.updatePlantReadings:000000000000044c .L0 
/var/folders/rt/4gvqv631095f64jvm7jfj_000000gn/T//ccaxTwoZ.s:1112   .text.updatePlantReadings:000000000000044c .L0 
/var/folders/rt/4gvqv631095f64jvm7jfj_000000gn/T//ccaxTwoZ.s:1115   .text.updatePlantReadings:0000000000000454 .L0 
/var/folders/rt/4gvqv631095f64jvm7jfj_000000gn/T//ccaxTwoZ.s:1117   .text.updatePlantReadings:0000000000000458 .L0 
/var/folders/rt/4gvqv631095f64jvm7jfj_000000gn/T//ccaxTwoZ.s:1126   .text.updatePlantReadings:000000000000046c .L0 
/var/folders/rt/4gvqv631095f64jvm7jfj_000000gn/T//ccaxTwoZ.s:1138   .text.updatePlantReadings:000000000000048a .L0 
/var/folders/rt/4gvqv631095f64jvm7jfj_000000gn/T//ccaxTwoZ.s:1139   .text.updatePlantReadings:000000000000048a .L0 
/var/folders/rt/4gvqv631095f64jvm7jfj_000000gn/T//ccaxTwoZ.s:1144   .text.updatePlantReadings:0000000000000490 .L0 
GAS LISTING /var/folders/rt/4gvqv631095f64jvm7jfj_000000gn/T//ccaxTwoZ.s 			page 45


/var/folders/rt/4gvqv631095f64jvm7jfj_000000gn/T//ccaxTwoZ.s:1147   .text.updatePlantReadings:0000000000000492 .L0 
/var/folders/rt/4gvqv631095f64jvm7jfj_000000gn/T//ccaxTwoZ.s:1150   .text.updatePlantReadings:0000000000000494 .L0 
/var/folders/rt/4gvqv631095f64jvm7jfj_000000gn/T//ccaxTwoZ.s:1154   .text.updatePlantReadings:0000000000000496 .L0 
/var/folders/rt/4gvqv631095f64jvm7jfj_000000gn/T//ccaxTwoZ.s:1155   .text.updatePlantReadings:0000000000000496 .L0 
/var/folders/rt/4gvqv631095f64jvm7jfj_000000gn/T//ccaxTwoZ.s:1161   .text.updatePlantReadings:00000000000004a6 .L0 
/var/folders/rt/4gvqv631095f64jvm7jfj_000000gn/T//ccaxTwoZ.s:1164   .text.updatePlantReadings:00000000000004a8 .L0 
/var/folders/rt/4gvqv631095f64jvm7jfj_000000gn/T//ccaxTwoZ.s:1173   .text.updatePlantReadings:00000000000004bc .L0 
/var/folders/rt/4gvqv631095f64jvm7jfj_000000gn/T//ccaxTwoZ.s:1176   .text.updatePlantReadings:00000000000004be .L0 
/var/folders/rt/4gvqv631095f64jvm7jfj_000000gn/T//ccaxTwoZ.s:1179   .text.updatePlantReadings:00000000000004c2 .L0 
/var/folders/rt/4gvqv631095f64jvm7jfj_000000gn/T//ccaxTwoZ.s:1180   .text.updatePlantReadings:00000000000004c2 .L0 
/var/folders/rt/4gvqv631095f64jvm7jfj_000000gn/T//ccaxTwoZ.s:1183   .text.updatePlantReadings:00000000000004c6 .L0 
/var/folders/rt/4gvqv631095f64jvm7jfj_000000gn/T//ccaxTwoZ.s:1190   .text.updatePlantReadings:00000000000004d8 .L0 
/var/folders/rt/4gvqv631095f64jvm7jfj_000000gn/T//ccaxTwoZ.s:1192   .text.updatePlantReadings:00000000000004d8 .L0 
/var/folders/rt/4gvqv631095f64jvm7jfj_000000gn/T//ccaxTwoZ.s:1193   .text.updatePlantReadings:00000000000004d8 .L0 
/var/folders/rt/4gvqv631095f64jvm7jfj_000000gn/T//ccaxTwoZ.s:1194   .text.updatePlantReadings:00000000000004d8 .L0 
/var/folders/rt/4gvqv631095f64jvm7jfj_000000gn/T//ccaxTwoZ.s:1198   .text.updatePlantReadings:00000000000004da .L0 
/var/folders/rt/4gvqv631095f64jvm7jfj_000000gn/T//ccaxTwoZ.s:1201   .text.updatePlantReadings:00000000000004e0 .L0 
/var/folders/rt/4gvqv631095f64jvm7jfj_000000gn/T//ccaxTwoZ.s:1214   .text.updatePlantReadings:00000000000004fe .L0 
/var/folders/rt/4gvqv631095f64jvm7jfj_000000gn/T//ccaxTwoZ.s:1223   .text.updatePlantReadings:0000000000000518 .L0 
/var/folders/rt/4gvqv631095f64jvm7jfj_000000gn/T//ccaxTwoZ.s:1226   .text.updatePlantReadings:000000000000051a .L0 
/var/folders/rt/4gvqv631095f64jvm7jfj_000000gn/T//ccaxTwoZ.s:1227   .text.updatePlantReadings:000000000000051a .L0 
/var/folders/rt/4gvqv631095f64jvm7jfj_000000gn/T//ccaxTwoZ.s:1235   .text.updatePlantReadings:0000000000000530 .L0 
/var/folders/rt/4gvqv631095f64jvm7jfj_000000gn/T//ccaxTwoZ.s:1237   .text.updatePlantReadings:0000000000000534 .L0 
/var/folders/rt/4gvqv631095f64jvm7jfj_000000gn/T//ccaxTwoZ.s:1239   .text.updatePlantReadings:0000000000000538 .L0 
/var/folders/rt/4gvqv631095f64jvm7jfj_000000gn/T//ccaxTwoZ.s:1240   .text.updatePlantReadings:0000000000000538 .L0 
/var/folders/rt/4gvqv631095f64jvm7jfj_000000gn/T//ccaxTwoZ.s:1250   .text.updatePlantReadings:0000000000000550 .L0 
/var/folders/rt/4gvqv631095f64jvm7jfj_000000gn/T//ccaxTwoZ.s:1253   .text.updatePlantReadings:0000000000000556 .L0 
/var/folders/rt/4gvqv631095f64jvm7jfj_000000gn/T//ccaxTwoZ.s:1254   .text.updatePlantReadings:0000000000000556 .L0 
/var/folders/rt/4gvqv631095f64jvm7jfj_000000gn/T//ccaxTwoZ.s:1265   .text.updatePlantReadings:0000000000000574 .L0 
/var/folders/rt/4gvqv631095f64jvm7jfj_000000gn/T//ccaxTwoZ.s:1272   .text.applyGreenFingers:0000000000000000 applyGreenFingers
/var/folders/rt/4gvqv631095f64jvm7jfj_000000gn/T//ccaxTwoZ.s:1275   .text.applyGreenFingers:0000000000000000 .L0 
/var/folders/rt/4gvqv631095f64jvm7jfj_000000gn/T//ccaxTwoZ.s:1277   .text.applyGreenFingers:0000000000000000 .L0 
/var/folders/rt/4gvqv631095f64jvm7jfj_000000gn/T//ccaxTwoZ.s:1278   .text.applyGreenFingers:0000000000000000 .L0 
/var/folders/rt/4gvqv631095f64jvm7jfj_000000gn/T//ccaxTwoZ.s:1279   .text.applyGreenFingers:0000000000000000 .L0 
/var/folders/rt/4gvqv631095f64jvm7jfj_000000gn/T//ccaxTwoZ.s:1280   .text.applyGreenFingers:0000000000000000 .L0 
/var/folders/rt/4gvqv631095f64jvm7jfj_000000gn/T//ccaxTwoZ.s:1282   .text.applyGreenFingers:0000000000000002 .L0 
/var/folders/rt/4gvqv631095f64jvm7jfj_000000gn/T//ccaxTwoZ.s:1292   .text.applyGreenFingers:0000000000000014 .L0 
/var/folders/rt/4gvqv631095f64jvm7jfj_000000gn/T//ccaxTwoZ.s:1293   .text.applyGreenFingers:0000000000000014 .L0 
/var/folders/rt/4gvqv631095f64jvm7jfj_000000gn/T//ccaxTwoZ.s:1294   .text.applyGreenFingers:0000000000000014 .L0 
/var/folders/rt/4gvqv631095f64jvm7jfj_000000gn/T//ccaxTwoZ.s:1295   .text.applyGreenFingers:0000000000000014 .L0 
/var/folders/rt/4gvqv631095f64jvm7jfj_000000gn/T//ccaxTwoZ.s:1296   .text.applyGreenFingers:0000000000000014 .L0 
/var/folders/rt/4gvqv631095f64jvm7jfj_000000gn/T//ccaxTwoZ.s:1297   .text.applyGreenFingers:0000000000000014 .L0 
/var/folders/rt/4gvqv631095f64jvm7jfj_000000gn/T//ccaxTwoZ.s:1298   .text.applyGreenFingers:0000000000000014 .L0 
/var/folders/rt/4gvqv631095f64jvm7jfj_000000gn/T//ccaxTwoZ.s:1299   .text.applyGreenFingers:0000000000000014 .L0 
/var/folders/rt/4gvqv631095f64jvm7jfj_000000gn/T//ccaxTwoZ.s:1300   .text.applyGreenFingers:0000000000000014 .L0 
/var/folders/rt/4gvqv631095f64jvm7jfj_000000gn/T//ccaxTwoZ.s:1302   .text.applyGreenFingers:0000000000000014 .L0 
/var/folders/rt/4gvqv631095f64jvm7jfj_000000gn/T//ccaxTwoZ.s:1305   .text.applyGreenFingers:0000000000000018 .L0 
/var/folders/rt/4gvqv631095f64jvm7jfj_000000gn/T//ccaxTwoZ.s:1311   .text.applyGreenFingers:0000000000000022 .L0 
/var/folders/rt/4gvqv631095f64jvm7jfj_000000gn/T//ccaxTwoZ.s:1312   .text.applyGreenFingers:0000000000000022 .L0 
/var/folders/rt/4gvqv631095f64jvm7jfj_000000gn/T//ccaxTwoZ.s:1313   .text.applyGreenFingers:0000000000000022 .L0 
/var/folders/rt/4gvqv631095f64jvm7jfj_000000gn/T//ccaxTwoZ.s:1316   .text.applyGreenFingers:0000000000000024 .L0 
/var/folders/rt/4gvqv631095f64jvm7jfj_000000gn/T//ccaxTwoZ.s:1321   .text.applyGreenFingers:000000000000002a .L0 
/var/folders/rt/4gvqv631095f64jvm7jfj_000000gn/T//ccaxTwoZ.s:1326   .text.applyGreenFingers:000000000000002e .L0 
/var/folders/rt/4gvqv631095f64jvm7jfj_000000gn/T//ccaxTwoZ.s:1329   .text.applyGreenFingers:0000000000000032 .L0 
/var/folders/rt/4gvqv631095f64jvm7jfj_000000gn/T//ccaxTwoZ.s:1330   .text.applyGreenFingers:0000000000000032 .L0 
/var/folders/rt/4gvqv631095f64jvm7jfj_000000gn/T//ccaxTwoZ.s:1331   .text.applyGreenFingers:0000000000000034 .L0 
/var/folders/rt/4gvqv631095f64jvm7jfj_000000gn/T//ccaxTwoZ.s:1332   .text.applyGreenFingers:0000000000000034 .L0 
GAS LISTING /var/folders/rt/4gvqv631095f64jvm7jfj_000000gn/T//ccaxTwoZ.s 			page 46


/var/folders/rt/4gvqv631095f64jvm7jfj_000000gn/T//ccaxTwoZ.s:1334   .text.applyGreenFingers:0000000000000036 .L0 
/var/folders/rt/4gvqv631095f64jvm7jfj_000000gn/T//ccaxTwoZ.s:1337   .text.applyGreenFingers:000000000000003a .L0 
/var/folders/rt/4gvqv631095f64jvm7jfj_000000gn/T//ccaxTwoZ.s:1340   .text.applyGreenFingers:000000000000003c .L0 
/var/folders/rt/4gvqv631095f64jvm7jfj_000000gn/T//ccaxTwoZ.s:1343   .text.applyGreenFingers:000000000000003e .L0 
/var/folders/rt/4gvqv631095f64jvm7jfj_000000gn/T//ccaxTwoZ.s:1346   .text.applyGreenFingers:0000000000000040 .L0 
/var/folders/rt/4gvqv631095f64jvm7jfj_000000gn/T//ccaxTwoZ.s:1349   .text.applyGreenFingers:0000000000000042 .L0 
/var/folders/rt/4gvqv631095f64jvm7jfj_000000gn/T//ccaxTwoZ.s:1351   .text.applyGreenFingers:0000000000000044 .L0 
/var/folders/rt/4gvqv631095f64jvm7jfj_000000gn/T//ccaxTwoZ.s:1353   .text.applyGreenFingers:0000000000000046 .L0 
/var/folders/rt/4gvqv631095f64jvm7jfj_000000gn/T//ccaxTwoZ.s:1357   .text.applyGreenFingers:0000000000000048 .L0 
/var/folders/rt/4gvqv631095f64jvm7jfj_000000gn/T//ccaxTwoZ.s:1362   .text.applyGreenFingers:000000000000004a .L0 
/var/folders/rt/4gvqv631095f64jvm7jfj_000000gn/T//ccaxTwoZ.s:1366   .text.applyGreenFingers:000000000000004a .L0 
/var/folders/rt/4gvqv631095f64jvm7jfj_000000gn/T//ccaxTwoZ.s:1369   .text.applyGreenFingers:0000000000000050 .L0 
/var/folders/rt/4gvqv631095f64jvm7jfj_000000gn/T//ccaxTwoZ.s:1380   .text.applyGreenFingers:000000000000006c .L0 
/var/folders/rt/4gvqv631095f64jvm7jfj_000000gn/T//ccaxTwoZ.s:1393   .text.applyGreenFingers:000000000000008c .L0 
/var/folders/rt/4gvqv631095f64jvm7jfj_000000gn/T//ccaxTwoZ.s:1395   .text.applyGreenFingers:0000000000000090 .L0 
/var/folders/rt/4gvqv631095f64jvm7jfj_000000gn/T//ccaxTwoZ.s:1397   .text.applyGreenFingers:0000000000000092 .L0 
/var/folders/rt/4gvqv631095f64jvm7jfj_000000gn/T//ccaxTwoZ.s:1400   .text.applyGreenFingers:0000000000000098 .L0 
/var/folders/rt/4gvqv631095f64jvm7jfj_000000gn/T//ccaxTwoZ.s:1402   .text.applyGreenFingers:000000000000009c .L0 
/var/folders/rt/4gvqv631095f64jvm7jfj_000000gn/T//ccaxTwoZ.s:1410   .text.applyGreenFingers:00000000000000ae .L0 
/var/folders/rt/4gvqv631095f64jvm7jfj_000000gn/T//ccaxTwoZ.s:1412   .text.applyGreenFingers:00000000000000b2 .L0 
/var/folders/rt/4gvqv631095f64jvm7jfj_000000gn/T//ccaxTwoZ.s:1415   .text.applyGreenFingers:00000000000000b4 .L0 
/var/folders/rt/4gvqv631095f64jvm7jfj_000000gn/T//ccaxTwoZ.s:1421   .text.applyGreenFingers:00000000000000c2 .L0 
/var/folders/rt/4gvqv631095f64jvm7jfj_000000gn/T//ccaxTwoZ.s:1422   .text.applyGreenFingers:00000000000000c2 .L0 
/var/folders/rt/4gvqv631095f64jvm7jfj_000000gn/T//ccaxTwoZ.s:1426   .text.applyGreenFingers:00000000000000c4 .L0 
/var/folders/rt/4gvqv631095f64jvm7jfj_000000gn/T//ccaxTwoZ.s:1427   .text.applyGreenFingers:00000000000000c4 .L0 
/var/folders/rt/4gvqv631095f64jvm7jfj_000000gn/T//ccaxTwoZ.s:1438   .text.applyGreenFingers:00000000000000e0 .L0 
/var/folders/rt/4gvqv631095f64jvm7jfj_000000gn/T//ccaxTwoZ.s:1451   .text.applyGreenFingers:0000000000000100 .L0 
/var/folders/rt/4gvqv631095f64jvm7jfj_000000gn/T//ccaxTwoZ.s:1453   .text.applyGreenFingers:0000000000000104 .L0 
/var/folders/rt/4gvqv631095f64jvm7jfj_000000gn/T//ccaxTwoZ.s:1455   .text.applyGreenFingers:0000000000000106 .L0 
/var/folders/rt/4gvqv631095f64jvm7jfj_000000gn/T//ccaxTwoZ.s:1458   .text.applyGreenFingers:000000000000010c .L0 
/var/folders/rt/4gvqv631095f64jvm7jfj_000000gn/T//ccaxTwoZ.s:1460   .text.applyGreenFingers:0000000000000110 .L0 
/var/folders/rt/4gvqv631095f64jvm7jfj_000000gn/T//ccaxTwoZ.s:1468   .text.applyGreenFingers:0000000000000122 .L0 
/var/folders/rt/4gvqv631095f64jvm7jfj_000000gn/T//ccaxTwoZ.s:1470   .text.applyGreenFingers:0000000000000126 .L0 
/var/folders/rt/4gvqv631095f64jvm7jfj_000000gn/T//ccaxTwoZ.s:1473   .text.applyGreenFingers:0000000000000128 .L0 
/var/folders/rt/4gvqv631095f64jvm7jfj_000000gn/T//ccaxTwoZ.s:1479   .text.applyGreenFingers:0000000000000136 .L0 
/var/folders/rt/4gvqv631095f64jvm7jfj_000000gn/T//ccaxTwoZ.s:1480   .text.applyGreenFingers:0000000000000136 .L0 
/var/folders/rt/4gvqv631095f64jvm7jfj_000000gn/T//ccaxTwoZ.s:1484   .text.applyGreenFingers:0000000000000138 .L0 
/var/folders/rt/4gvqv631095f64jvm7jfj_000000gn/T//ccaxTwoZ.s:1485   .text.applyGreenFingers:0000000000000138 .L0 
/var/folders/rt/4gvqv631095f64jvm7jfj_000000gn/T//ccaxTwoZ.s:1496   .text.applyGreenFingers:0000000000000154 .L0 
/var/folders/rt/4gvqv631095f64jvm7jfj_000000gn/T//ccaxTwoZ.s:1509   .text.applyGreenFingers:0000000000000176 .L0 
/var/folders/rt/4gvqv631095f64jvm7jfj_000000gn/T//ccaxTwoZ.s:1511   .text.applyGreenFingers:000000000000017a .L0 
/var/folders/rt/4gvqv631095f64jvm7jfj_000000gn/T//ccaxTwoZ.s:1513   .text.applyGreenFingers:000000000000017c .L0 
/var/folders/rt/4gvqv631095f64jvm7jfj_000000gn/T//ccaxTwoZ.s:1516   .text.applyGreenFingers:0000000000000182 .L0 
/var/folders/rt/4gvqv631095f64jvm7jfj_000000gn/T//ccaxTwoZ.s:1518   .text.applyGreenFingers:0000000000000186 .L0 
/var/folders/rt/4gvqv631095f64jvm7jfj_000000gn/T//ccaxTwoZ.s:1526   .text.applyGreenFingers:0000000000000198 .L0 
/var/folders/rt/4gvqv631095f64jvm7jfj_000000gn/T//ccaxTwoZ.s:1528   .text.applyGreenFingers:000000000000019c .L0 
/var/folders/rt/4gvqv631095f64jvm7jfj_000000gn/T//ccaxTwoZ.s:1531   .text.applyGreenFingers:000000000000019e .L0 
/var/folders/rt/4gvqv631095f64jvm7jfj_000000gn/T//ccaxTwoZ.s:1537   .text.applyGreenFingers:00000000000001ac .L0 
/var/folders/rt/4gvqv631095f64jvm7jfj_000000gn/T//ccaxTwoZ.s:1538   .text.applyGreenFingers:00000000000001ac .L0 
/var/folders/rt/4gvqv631095f64jvm7jfj_000000gn/T//ccaxTwoZ.s:1542   .text.applyGreenFingers:00000000000001ae .L0 
/var/folders/rt/4gvqv631095f64jvm7jfj_000000gn/T//ccaxTwoZ.s:1546   .text.applyGreenFingers:00000000000001b8 .L0 
/var/folders/rt/4gvqv631095f64jvm7jfj_000000gn/T//ccaxTwoZ.s:1547   .text.applyGreenFingers:00000000000001b8 .L0 
/var/folders/rt/4gvqv631095f64jvm7jfj_000000gn/T//ccaxTwoZ.s:1551   .text.applyGreenFingers:00000000000001c2 .L0 
/var/folders/rt/4gvqv631095f64jvm7jfj_000000gn/T//ccaxTwoZ.s:1552   .text.applyGreenFingers:00000000000001c2 .L0 
/var/folders/rt/4gvqv631095f64jvm7jfj_000000gn/T//ccaxTwoZ.s:1554   .text.applyGreenFingers:00000000000001c6 .L0 
/var/folders/rt/4gvqv631095f64jvm7jfj_000000gn/T//ccaxTwoZ.s:1561   .text.applyGreenFingers:00000000000001d2 .L0 
/var/folders/rt/4gvqv631095f64jvm7jfj_000000gn/T//ccaxTwoZ.s:1565   .text.applyGreenFingers:00000000000001d6 .L0 
GAS LISTING /var/folders/rt/4gvqv631095f64jvm7jfj_000000gn/T//ccaxTwoZ.s 			page 47


/var/folders/rt/4gvqv631095f64jvm7jfj_000000gn/T//ccaxTwoZ.s:69     .text.initSensorReading:000000000000005c .L0 
/var/folders/rt/4gvqv631095f64jvm7jfj_000000gn/T//ccaxTwoZ.s:348    .text.initPlant:00000000000001e0 .L0 
/var/folders/rt/4gvqv631095f64jvm7jfj_000000gn/T//ccaxTwoZ.s:529    .text.updatePlantStatus:0000000000000156 .L0 
/var/folders/rt/4gvqv631095f64jvm7jfj_000000gn/T//ccaxTwoZ.s:1268   .text.updatePlantReadings:0000000000000574 .L0 
/var/folders/rt/4gvqv631095f64jvm7jfj_000000gn/T//ccaxTwoZ.s:1568   .text.applyGreenFingers:00000000000001d6 .L0 
                     .debug_frame:0000000000000000 .L0 
/var/folders/rt/4gvqv631095f64jvm7jfj_000000gn/T//ccaxTwoZ.s:1570   .rodata.initPlant.str1.4:0000000000000000 .LC0
/var/folders/rt/4gvqv631095f64jvm7jfj_000000gn/T//ccaxTwoZ.s:1573   .rodata.initPlant.str1.4:0000000000000004 .LC1
/var/folders/rt/4gvqv631095f64jvm7jfj_000000gn/T//ccaxTwoZ.s:314    .text.initPlant:00000000000001aa .L3
/var/folders/rt/4gvqv631095f64jvm7jfj_000000gn/T//ccaxTwoZ.s:1577   .rodata.updatePlantStatus.str1.4:0000000000000000 .LC2
/var/folders/rt/4gvqv631095f64jvm7jfj_000000gn/T//ccaxTwoZ.s:1579   .rodata.updatePlantStatus.str1.4:0000000000000010 .LC3
/var/folders/rt/4gvqv631095f64jvm7jfj_000000gn/T//ccaxTwoZ.s:484    .text.updatePlantStatus:0000000000000106 .L8
/var/folders/rt/4gvqv631095f64jvm7jfj_000000gn/T//ccaxTwoZ.s:514    .text.updatePlantStatus:000000000000014e .L7
/var/folders/rt/4gvqv631095f64jvm7jfj_000000gn/T//ccaxTwoZ.s:425    .text.updatePlantStatus:0000000000000096 .L9
/var/folders/rt/4gvqv631095f64jvm7jfj_000000gn/T//ccaxTwoZ.s:850    .text.updatePlantReadings:0000000000000254 .L13
/var/folders/rt/4gvqv631095f64jvm7jfj_000000gn/T//ccaxTwoZ.s:657    .text.updatePlantReadings:00000000000000f6 .L21
/var/folders/rt/4gvqv631095f64jvm7jfj_000000gn/T//ccaxTwoZ.s:590    .text.updatePlantReadings:0000000000000052 .L15
/var/folders/rt/4gvqv631095f64jvm7jfj_000000gn/T//ccaxTwoZ.s:677    .text.updatePlantReadings:0000000000000108 .L16
/var/folders/rt/4gvqv631095f64jvm7jfj_000000gn/T//ccaxTwoZ.s:710    .text.updatePlantReadings:000000000000014a .L18
/var/folders/rt/4gvqv631095f64jvm7jfj_000000gn/T//ccaxTwoZ.s:737    .text.updatePlantReadings:0000000000000176 .L19
/var/folders/rt/4gvqv631095f64jvm7jfj_000000gn/T//ccaxTwoZ.s:782    .text.updatePlantReadings:00000000000001ba .L20
/var/folders/rt/4gvqv631095f64jvm7jfj_000000gn/T//ccaxTwoZ.s:1057   .text.updatePlantReadings:00000000000003e4 .L22
/var/folders/rt/4gvqv631095f64jvm7jfj_000000gn/T//ccaxTwoZ.s:891    .text.updatePlantReadings:000000000000029a .L23
/var/folders/rt/4gvqv631095f64jvm7jfj_000000gn/T//ccaxTwoZ.s:944    .text.updatePlantReadings:0000000000000306 .L24
/var/folders/rt/4gvqv631095f64jvm7jfj_000000gn/T//ccaxTwoZ.s:989    .text.updatePlantReadings:000000000000034a .L25
/var/folders/rt/4gvqv631095f64jvm7jfj_000000gn/T//ccaxTwoZ.s:1098   .text.updatePlantReadings:000000000000042a .L26
/var/folders/rt/4gvqv631095f64jvm7jfj_000000gn/T//ccaxTwoZ.s:1151   .text.updatePlantReadings:0000000000000496 .L27
/var/folders/rt/4gvqv631095f64jvm7jfj_000000gn/T//ccaxTwoZ.s:1196   .text.updatePlantReadings:00000000000004da .L28
/var/folders/rt/4gvqv631095f64jvm7jfj_000000gn/T//ccaxTwoZ.s:1360   .text.applyGreenFingers:000000000000004a .L45
/var/folders/rt/4gvqv631095f64jvm7jfj_000000gn/T//ccaxTwoZ.s:1413   .text.applyGreenFingers:00000000000000b4 .L38
/var/folders/rt/4gvqv631095f64jvm7jfj_000000gn/T//ccaxTwoZ.s:1424   .text.applyGreenFingers:00000000000000c4 .L39
/var/folders/rt/4gvqv631095f64jvm7jfj_000000gn/T//ccaxTwoZ.s:1471   .text.applyGreenFingers:0000000000000128 .L40
/var/folders/rt/4gvqv631095f64jvm7jfj_000000gn/T//ccaxTwoZ.s:1482   .text.applyGreenFingers:0000000000000138 .L41
/var/folders/rt/4gvqv631095f64jvm7jfj_000000gn/T//ccaxTwoZ.s:1529   .text.applyGreenFingers:000000000000019e .L42
/var/folders/rt/4gvqv631095f64jvm7jfj_000000gn/T//ccaxTwoZ.s:1540   .text.applyGreenFingers:00000000000001ae .L43
/var/folders/rt/4gvqv631095f64jvm7jfj_000000gn/T//ccaxTwoZ.s:1558   .text.applyGreenFingers:00000000000001d2 .L44
/var/folders/rt/4gvqv631095f64jvm7jfj_000000gn/T//ccaxTwoZ.s:1323   .text.applyGreenFingers:000000000000002e .L37
/var/folders/rt/4gvqv631095f64jvm7jfj_000000gn/T//ccaxTwoZ.s:4223   .debug_abbrev:0000000000000000 .Ldebug_abbrev0
/var/folders/rt/4gvqv631095f64jvm7jfj_000000gn/T//ccaxTwoZ.s:6319   .debug_str:0000000000000654 .LASF189
/var/folders/rt/4gvqv631095f64jvm7jfj_000000gn/T//ccaxTwoZ.s:6055   .debug_str:0000000000000137 .LASF190
/var/folders/rt/4gvqv631095f64jvm7jfj_000000gn/T//ccaxTwoZ.s:6323   .debug_str:00000000000006e5 .LASF191
/var/folders/rt/4gvqv631095f64jvm7jfj_000000gn/T//ccaxTwoZ.s:5935   .debug_ranges:0000000000000000 .Ldebug_ranges0
/var/folders/rt/4gvqv631095f64jvm7jfj_000000gn/T//ccaxTwoZ.s:5999   .debug_line:0000000000000000 .Ldebug_line0
/var/folders/rt/4gvqv631095f64jvm7jfj_000000gn/T//ccaxTwoZ.s:6223   .debug_str:0000000000000490 .LASF0
/var/folders/rt/4gvqv631095f64jvm7jfj_000000gn/T//ccaxTwoZ.s:6051   .debug_str:000000000000011f .LASF1
/var/folders/rt/4gvqv631095f64jvm7jfj_000000gn/T//ccaxTwoZ.s:6237   .debug_str:00000000000004d5 .LASF2
/var/folders/rt/4gvqv631095f64jvm7jfj_000000gn/T//ccaxTwoZ.s:6005   .debug_str:0000000000000014 .LASF3
/var/folders/rt/4gvqv631095f64jvm7jfj_000000gn/T//ccaxTwoZ.s:6325   .debug_str:0000000000000728 .LASF4
/var/folders/rt/4gvqv631095f64jvm7jfj_000000gn/T//ccaxTwoZ.s:6313   .debug_str:000000000000063d .LASF6
/var/folders/rt/4gvqv631095f64jvm7jfj_000000gn/T//ccaxTwoZ.s:6073   .debug_str:0000000000000181 .LASF5
/var/folders/rt/4gvqv631095f64jvm7jfj_000000gn/T//ccaxTwoZ.s:6111   .debug_str:000000000000025b .LASF7
/var/folders/rt/4gvqv631095f64jvm7jfj_000000gn/T//ccaxTwoZ.s:6139   .debug_str:00000000000002de .LASF8
/var/folders/rt/4gvqv631095f64jvm7jfj_000000gn/T//ccaxTwoZ.s:6089   .debug_str:00000000000001de .LASF9
/var/folders/rt/4gvqv631095f64jvm7jfj_000000gn/T//ccaxTwoZ.s:6031   .debug_str:00000000000000a0 .LASF10
/var/folders/rt/4gvqv631095f64jvm7jfj_000000gn/T//ccaxTwoZ.s:6311   .debug_str:0000000000000630 .LASF11
/var/folders/rt/4gvqv631095f64jvm7jfj_000000gn/T//ccaxTwoZ.s:6235   .debug_str:00000000000004cd .LASF12
/var/folders/rt/4gvqv631095f64jvm7jfj_000000gn/T//ccaxTwoZ.s:6347   .debug_str:00000000000007b3 .LASF13
GAS LISTING /var/folders/rt/4gvqv631095f64jvm7jfj_000000gn/T//ccaxTwoZ.s 			page 48


/var/folders/rt/4gvqv631095f64jvm7jfj_000000gn/T//ccaxTwoZ.s:6273   .debug_str:000000000000057a .LASF14
/var/folders/rt/4gvqv631095f64jvm7jfj_000000gn/T//ccaxTwoZ.s:6033   .debug_str:00000000000000b7 .LASF15
/var/folders/rt/4gvqv631095f64jvm7jfj_000000gn/T//ccaxTwoZ.s:6265   .debug_str:0000000000000555 .LASF16
/var/folders/rt/4gvqv631095f64jvm7jfj_000000gn/T//ccaxTwoZ.s:6145   .debug_str:000000000000030b .LASF17
/var/folders/rt/4gvqv631095f64jvm7jfj_000000gn/T//ccaxTwoZ.s:6095   .debug_str:00000000000001fd .LASF18
/var/folders/rt/4gvqv631095f64jvm7jfj_000000gn/T//ccaxTwoZ.s:6057   .debug_str:000000000000013f .LASF19
/var/folders/rt/4gvqv631095f64jvm7jfj_000000gn/T//ccaxTwoZ.s:6125   .debug_str:0000000000000299 .LASF20
/var/folders/rt/4gvqv631095f64jvm7jfj_000000gn/T//ccaxTwoZ.s:6201   .debug_str:0000000000000405 .LASF21
/var/folders/rt/4gvqv631095f64jvm7jfj_000000gn/T//ccaxTwoZ.s:6075   .debug_str:000000000000018a .LASF22
/var/folders/rt/4gvqv631095f64jvm7jfj_000000gn/T//ccaxTwoZ.s:6143   .debug_str:00000000000002f6 .LASF23
/var/folders/rt/4gvqv631095f64jvm7jfj_000000gn/T//ccaxTwoZ.s:6205   .debug_str:0000000000000430 .LASF24
/var/folders/rt/4gvqv631095f64jvm7jfj_000000gn/T//ccaxTwoZ.s:6019   .debug_str:000000000000005c .LASF25
/var/folders/rt/4gvqv631095f64jvm7jfj_000000gn/T//ccaxTwoZ.s:6053   .debug_str:000000000000012b .LASF26
/var/folders/rt/4gvqv631095f64jvm7jfj_000000gn/T//ccaxTwoZ.s:6179   .debug_str:0000000000000398 .LASF27
/var/folders/rt/4gvqv631095f64jvm7jfj_000000gn/T//ccaxTwoZ.s:6041   .debug_str:00000000000000e7 .LASF28
/var/folders/rt/4gvqv631095f64jvm7jfj_000000gn/T//ccaxTwoZ.s:6281   .debug_str:00000000000005af .LASF29
/var/folders/rt/4gvqv631095f64jvm7jfj_000000gn/T//ccaxTwoZ.s:6389   .debug_str:000000000000088f .LASF30
/var/folders/rt/4gvqv631095f64jvm7jfj_000000gn/T//ccaxTwoZ.s:6191   .debug_str:00000000000003dc .LASF31
/var/folders/rt/4gvqv631095f64jvm7jfj_000000gn/T//ccaxTwoZ.s:6037   .debug_str:00000000000000ca .LASF32
/var/folders/rt/4gvqv631095f64jvm7jfj_000000gn/T//ccaxTwoZ.s:6363   .debug_str:00000000000007fd .LASF33
/var/folders/rt/4gvqv631095f64jvm7jfj_000000gn/T//ccaxTwoZ.s:6243   .debug_str:00000000000004f1 .LASF34
/var/folders/rt/4gvqv631095f64jvm7jfj_000000gn/T//ccaxTwoZ.s:6351   .debug_str:00000000000007c9 .LASF35
/var/folders/rt/4gvqv631095f64jvm7jfj_000000gn/T//ccaxTwoZ.s:6195   .debug_str:00000000000003f0 .LASF36
/var/folders/rt/4gvqv631095f64jvm7jfj_000000gn/T//ccaxTwoZ.s:6317   .debug_str:000000000000064d .LASF37
/var/folders/rt/4gvqv631095f64jvm7jfj_000000gn/T//ccaxTwoZ.s:6187   .debug_str:00000000000003cb .LASF38
/var/folders/rt/4gvqv631095f64jvm7jfj_000000gn/T//ccaxTwoZ.s:6233   .debug_str:00000000000004c3 .LASF39
/var/folders/rt/4gvqv631095f64jvm7jfj_000000gn/T//ccaxTwoZ.s:6329   .debug_str:000000000000074d .LASF40
/var/folders/rt/4gvqv631095f64jvm7jfj_000000gn/T//ccaxTwoZ.s:6015   .debug_str:000000000000004d .LASF41
/var/folders/rt/4gvqv631095f64jvm7jfj_000000gn/T//ccaxTwoZ.s:6305   .debug_str:000000000000061c .LASF42
/var/folders/rt/4gvqv631095f64jvm7jfj_000000gn/T//ccaxTwoZ.s:6229   .debug_str:00000000000004ab .LASF43
/var/folders/rt/4gvqv631095f64jvm7jfj_000000gn/T//ccaxTwoZ.s:6261   .debug_str:000000000000053d .LASF44
/var/folders/rt/4gvqv631095f64jvm7jfj_000000gn/T//ccaxTwoZ.s:6107   .debug_str:000000000000024a .LASF45
/var/folders/rt/4gvqv631095f64jvm7jfj_000000gn/T//ccaxTwoZ.s:6121   .debug_str:0000000000000288 .LASF46
/var/folders/rt/4gvqv631095f64jvm7jfj_000000gn/T//ccaxTwoZ.s:6301   .debug_str:0000000000000609 .LASF47
/var/folders/rt/4gvqv631095f64jvm7jfj_000000gn/T//ccaxTwoZ.s:6219   .debug_str:000000000000047f .LASF48
/var/folders/rt/4gvqv631095f64jvm7jfj_000000gn/T//ccaxTwoZ.s:6047   .debug_str:0000000000000111 .LASF49
/var/folders/rt/4gvqv631095f64jvm7jfj_000000gn/T//ccaxTwoZ.s:6007   .debug_str:000000000000001e .LASF50
/var/folders/rt/4gvqv631095f64jvm7jfj_000000gn/T//ccaxTwoZ.s:6357   .debug_str:00000000000007de .LASF51
/var/folders/rt/4gvqv631095f64jvm7jfj_000000gn/T//ccaxTwoZ.s:6163   .debug_str:000000000000035b .LASF52
/var/folders/rt/4gvqv631095f64jvm7jfj_000000gn/T//ccaxTwoZ.s:6129   .debug_str:00000000000002a3 .LASF53
/var/folders/rt/4gvqv631095f64jvm7jfj_000000gn/T//ccaxTwoZ.s:6291   .debug_str:00000000000005e0 .LASF54
/var/folders/rt/4gvqv631095f64jvm7jfj_000000gn/T//ccaxTwoZ.s:6293   .debug_str:00000000000005e8 .LASF55
/var/folders/rt/4gvqv631095f64jvm7jfj_000000gn/T//ccaxTwoZ.s:6227   .debug_str:00000000000004a0 .LASF56
/var/folders/rt/4gvqv631095f64jvm7jfj_000000gn/T//ccaxTwoZ.s:6335   .debug_str:0000000000000764 .LASF57
/var/folders/rt/4gvqv631095f64jvm7jfj_000000gn/T//ccaxTwoZ.s:6231   .debug_str:00000000000004b1 .LASF58
/var/folders/rt/4gvqv631095f64jvm7jfj_000000gn/T//ccaxTwoZ.s:6247   .debug_str:0000000000000503 .LASF59
/var/folders/rt/4gvqv631095f64jvm7jfj_000000gn/T//ccaxTwoZ.s:6119   .debug_str:0000000000000280 .LASF64
/var/folders/rt/4gvqv631095f64jvm7jfj_000000gn/T//ccaxTwoZ.s:6315   .debug_str:0000000000000647 .LASF60
/var/folders/rt/4gvqv631095f64jvm7jfj_000000gn/T//ccaxTwoZ.s:6283   .debug_str:00000000000005c3 .LASF61
/var/folders/rt/4gvqv631095f64jvm7jfj_000000gn/T//ccaxTwoZ.s:6113   .debug_str:0000000000000266 .LASF62
/var/folders/rt/4gvqv631095f64jvm7jfj_000000gn/T//ccaxTwoZ.s:6353   .debug_str:00000000000007d3 .LASF63
/var/folders/rt/4gvqv631095f64jvm7jfj_000000gn/T//ccaxTwoZ.s:6127   .debug_str:000000000000029e .LASF65
/var/folders/rt/4gvqv631095f64jvm7jfj_000000gn/T//ccaxTwoZ.s:6045   .debug_str:0000000000000108 .LASF66
/var/folders/rt/4gvqv631095f64jvm7jfj_000000gn/T//ccaxTwoZ.s:6379   .debug_str:0000000000000858 .LASF67
/var/folders/rt/4gvqv631095f64jvm7jfj_000000gn/T//ccaxTwoZ.s:6063   .debug_str:0000000000000154 .LASF68
/var/folders/rt/4gvqv631095f64jvm7jfj_000000gn/T//ccaxTwoZ.s:6391   .debug_str:000000000000089d .LASF69
/var/folders/rt/4gvqv631095f64jvm7jfj_000000gn/T//ccaxTwoZ.s:6207   .debug_str:000000000000043d .LASF70
GAS LISTING /var/folders/rt/4gvqv631095f64jvm7jfj_000000gn/T//ccaxTwoZ.s 			page 49


/var/folders/rt/4gvqv631095f64jvm7jfj_000000gn/T//ccaxTwoZ.s:6185   .debug_str:00000000000003c1 .LASF71
/var/folders/rt/4gvqv631095f64jvm7jfj_000000gn/T//ccaxTwoZ.s:6297   .debug_str:00000000000005f6 .LASF72
/var/folders/rt/4gvqv631095f64jvm7jfj_000000gn/T//ccaxTwoZ.s:6249   .debug_str:000000000000050c .LASF73
/var/folders/rt/4gvqv631095f64jvm7jfj_000000gn/T//ccaxTwoZ.s:6375   .debug_str:000000000000083e .LASF74
/var/folders/rt/4gvqv631095f64jvm7jfj_000000gn/T//ccaxTwoZ.s:6067   .debug_str:0000000000000163 .LASF75
/var/folders/rt/4gvqv631095f64jvm7jfj_000000gn/T//ccaxTwoZ.s:6103   .debug_str:0000000000000237 .LASF76
/var/folders/rt/4gvqv631095f64jvm7jfj_000000gn/T//ccaxTwoZ.s:6001   .debug_str:0000000000000000 .LASF77
/var/folders/rt/4gvqv631095f64jvm7jfj_000000gn/T//ccaxTwoZ.s:6321   .debug_str:00000000000006dc .LASF78
/var/folders/rt/4gvqv631095f64jvm7jfj_000000gn/T//ccaxTwoZ.s:6003   .debug_str:000000000000000c .LASF79
/var/folders/rt/4gvqv631095f64jvm7jfj_000000gn/T//ccaxTwoZ.s:6209   .debug_str:0000000000000446 .LASF80
/var/folders/rt/4gvqv631095f64jvm7jfj_000000gn/T//ccaxTwoZ.s:6271   .debug_str:0000000000000575 .LASF81
/var/folders/rt/4gvqv631095f64jvm7jfj_000000gn/T//ccaxTwoZ.s:6109   .debug_str:0000000000000256 .LASF82
/var/folders/rt/4gvqv631095f64jvm7jfj_000000gn/T//ccaxTwoZ.s:6251   .debug_str:0000000000000516 .LASF83
/var/folders/rt/4gvqv631095f64jvm7jfj_000000gn/T//ccaxTwoZ.s:6061   .debug_str:000000000000014e .LASF84
/var/folders/rt/4gvqv631095f64jvm7jfj_000000gn/T//ccaxTwoZ.s:6309   .debug_str:000000000000062a .LASF85
/var/folders/rt/4gvqv631095f64jvm7jfj_000000gn/T//ccaxTwoZ.s:6257   .debug_str:000000000000052c .LASF86
/var/folders/rt/4gvqv631095f64jvm7jfj_000000gn/T//ccaxTwoZ.s:6079   .debug_str:00000000000001aa .LASF87
/var/folders/rt/4gvqv631095f64jvm7jfj_000000gn/T//ccaxTwoZ.s:6141   .debug_str:00000000000002f0 .LASF88
/var/folders/rt/4gvqv631095f64jvm7jfj_000000gn/T//ccaxTwoZ.s:6387   .debug_str:0000000000000886 .LASF89
/var/folders/rt/4gvqv631095f64jvm7jfj_000000gn/T//ccaxTwoZ.s:6069   .debug_str:0000000000000171 .LASF90
/var/folders/rt/4gvqv631095f64jvm7jfj_000000gn/T//ccaxTwoZ.s:6123   .debug_str:0000000000000293 .LASF91
/var/folders/rt/4gvqv631095f64jvm7jfj_000000gn/T//ccaxTwoZ.s:6183   .debug_str:00000000000003ba .LASF92
/var/folders/rt/4gvqv631095f64jvm7jfj_000000gn/T//ccaxTwoZ.s:6295   .debug_str:00000000000005f0 .LASF93
/var/folders/rt/4gvqv631095f64jvm7jfj_000000gn/T//ccaxTwoZ.s:6049   .debug_str:0000000000000118 .LASF94
/var/folders/rt/4gvqv631095f64jvm7jfj_000000gn/T//ccaxTwoZ.s:6059   .debug_str:0000000000000148 .LASF95
/var/folders/rt/4gvqv631095f64jvm7jfj_000000gn/T//ccaxTwoZ.s:6371   .debug_str:0000000000000830 .LASF96
/var/folders/rt/4gvqv631095f64jvm7jfj_000000gn/T//ccaxTwoZ.s:6307   .debug_str:0000000000000621 .LASF97
/var/folders/rt/4gvqv631095f64jvm7jfj_000000gn/T//ccaxTwoZ.s:6193   .debug_str:00000000000003e8 .LASF98
/var/folders/rt/4gvqv631095f64jvm7jfj_000000gn/T//ccaxTwoZ.s:6147   .debug_str:0000000000000310 .LASF99
/var/folders/rt/4gvqv631095f64jvm7jfj_000000gn/T//ccaxTwoZ.s:6175   .debug_str:000000000000038c .LASF100
/var/folders/rt/4gvqv631095f64jvm7jfj_000000gn/T//ccaxTwoZ.s:6259   .debug_str:0000000000000534 .LASF101
/var/folders/rt/4gvqv631095f64jvm7jfj_000000gn/T//ccaxTwoZ.s:6253   .debug_str:000000000000051d .LASF102
/var/folders/rt/4gvqv631095f64jvm7jfj_000000gn/T//ccaxTwoZ.s:6285   .debug_str:00000000000005cb .LASF103
/var/folders/rt/4gvqv631095f64jvm7jfj_000000gn/T//ccaxTwoZ.s:6303   .debug_str:0000000000000615 .LASF104
/var/folders/rt/4gvqv631095f64jvm7jfj_000000gn/T//ccaxTwoZ.s:6083   .debug_str:00000000000001c2 .LASF105
/var/folders/rt/4gvqv631095f64jvm7jfj_000000gn/T//ccaxTwoZ.s:6135   .debug_str:00000000000002ce .LASF106
/var/folders/rt/4gvqv631095f64jvm7jfj_000000gn/T//ccaxTwoZ.s:6117   .debug_str:0000000000000278 .LASF107
/var/folders/rt/4gvqv631095f64jvm7jfj_000000gn/T//ccaxTwoZ.s:6269   .debug_str:0000000000000570 .LASF108
/var/folders/rt/4gvqv631095f64jvm7jfj_000000gn/T//ccaxTwoZ.s:6013   .debug_str:0000000000000042 .LASF109
/var/folders/rt/4gvqv631095f64jvm7jfj_000000gn/T//ccaxTwoZ.s:6279   .debug_str:0000000000000596 .LASF110
/var/folders/rt/4gvqv631095f64jvm7jfj_000000gn/T//ccaxTwoZ.s:6275   .debug_str:0000000000000584 .LASF111
/var/folders/rt/4gvqv631095f64jvm7jfj_000000gn/T//ccaxTwoZ.s:6213   .debug_str:0000000000000458 .LASF112
/var/folders/rt/4gvqv631095f64jvm7jfj_000000gn/T//ccaxTwoZ.s:6277   .debug_str:000000000000058c .LASF113
/var/folders/rt/4gvqv631095f64jvm7jfj_000000gn/T//ccaxTwoZ.s:6161   .debug_str:0000000000000353 .LASF114
/var/folders/rt/4gvqv631095f64jvm7jfj_000000gn/T//ccaxTwoZ.s:6085   .debug_str:00000000000001c9 .LASF115
/var/folders/rt/4gvqv631095f64jvm7jfj_000000gn/T//ccaxTwoZ.s:6385   .debug_str:0000000000000881 .LASF116
/var/folders/rt/4gvqv631095f64jvm7jfj_000000gn/T//ccaxTwoZ.s:6225   .debug_str:0000000000000496 .LASF117
/var/folders/rt/4gvqv631095f64jvm7jfj_000000gn/T//ccaxTwoZ.s:6137   .debug_str:00000000000002d6 .LASF118
/var/folders/rt/4gvqv631095f64jvm7jfj_000000gn/T//ccaxTwoZ.s:6091   .debug_str:00000000000001ec .LASF119
/var/folders/rt/4gvqv631095f64jvm7jfj_000000gn/T//ccaxTwoZ.s:6169   .debug_str:000000000000036f .LASF120
/var/folders/rt/4gvqv631095f64jvm7jfj_000000gn/T//ccaxTwoZ.s:6021   .debug_str:0000000000000067 .LASF121
/var/folders/rt/4gvqv631095f64jvm7jfj_000000gn/T//ccaxTwoZ.s:6365   .debug_str:0000000000000808 .LASF122
/var/folders/rt/4gvqv631095f64jvm7jfj_000000gn/T//ccaxTwoZ.s:6071   .debug_str:0000000000000179 .LASF123
/var/folders/rt/4gvqv631095f64jvm7jfj_000000gn/T//ccaxTwoZ.s:6065   .debug_str:000000000000015e .LASF124
/var/folders/rt/4gvqv631095f64jvm7jfj_000000gn/T//ccaxTwoZ.s:6255   .debug_str:0000000000000525 .LASF125
/var/folders/rt/4gvqv631095f64jvm7jfj_000000gn/T//ccaxTwoZ.s:6355   .debug_str:00000000000007d8 .LASF126
/var/folders/rt/4gvqv631095f64jvm7jfj_000000gn/T//ccaxTwoZ.s:6149   .debug_str:0000000000000316 .LASF127
GAS LISTING /var/folders/rt/4gvqv631095f64jvm7jfj_000000gn/T//ccaxTwoZ.s 			page 50


/var/folders/rt/4gvqv631095f64jvm7jfj_000000gn/T//ccaxTwoZ.s:6241   .debug_str:00000000000004eb .LASF128
/var/folders/rt/4gvqv631095f64jvm7jfj_000000gn/T//ccaxTwoZ.s:6287   .debug_str:00000000000005d2 .LASF129
/var/folders/rt/4gvqv631095f64jvm7jfj_000000gn/T//ccaxTwoZ.s:6289   .debug_str:00000000000005da .LASF130
/var/folders/rt/4gvqv631095f64jvm7jfj_000000gn/T//ccaxTwoZ.s:6177   .debug_str:0000000000000392 .LASF131
/var/folders/rt/4gvqv631095f64jvm7jfj_000000gn/T//ccaxTwoZ.s:6331   .debug_str:0000000000000755 .LASF132
/var/folders/rt/4gvqv631095f64jvm7jfj_000000gn/T//ccaxTwoZ.s:6349   .debug_str:00000000000007bc .LASF133
/var/folders/rt/4gvqv631095f64jvm7jfj_000000gn/T//ccaxTwoZ.s:6099   .debug_str:000000000000021c .LASF134
/var/folders/rt/4gvqv631095f64jvm7jfj_000000gn/T//ccaxTwoZ.s:6159   .debug_str:0000000000000346 .LASF135
/var/folders/rt/4gvqv631095f64jvm7jfj_000000gn/T//ccaxTwoZ.s:6377   .debug_str:0000000000000849 .LASF136
/var/folders/rt/4gvqv631095f64jvm7jfj_000000gn/T//ccaxTwoZ.s:6215   .debug_str:0000000000000463 .LASF137
/var/folders/rt/4gvqv631095f64jvm7jfj_000000gn/T//ccaxTwoZ.s:6153   .debug_str:000000000000032a .LASF138
/var/folders/rt/4gvqv631095f64jvm7jfj_000000gn/T//ccaxTwoZ.s:6199   .debug_str:0000000000000400 .LASF139
/var/folders/rt/4gvqv631095f64jvm7jfj_000000gn/T//ccaxTwoZ.s:6267   .debug_str:0000000000000563 .LASF140
/var/folders/rt/4gvqv631095f64jvm7jfj_000000gn/T//ccaxTwoZ.s:6383   .debug_str:0000000000000873 .LASF141
/var/folders/rt/4gvqv631095f64jvm7jfj_000000gn/T//ccaxTwoZ.s:6043   .debug_str:00000000000000fa .LASF142
/var/folders/rt/4gvqv631095f64jvm7jfj_000000gn/T//ccaxTwoZ.s:6359   .debug_str:00000000000007e7 .LASF143
/var/folders/rt/4gvqv631095f64jvm7jfj_000000gn/T//ccaxTwoZ.s:6157   .debug_str:000000000000033a .LASF144
/var/folders/rt/4gvqv631095f64jvm7jfj_000000gn/T//ccaxTwoZ.s:6337   .debug_str:000000000000076c .LASF145
/var/folders/rt/4gvqv631095f64jvm7jfj_000000gn/T//ccaxTwoZ.s:6101   .debug_str:0000000000000229 .LASF146
/var/folders/rt/4gvqv631095f64jvm7jfj_000000gn/T//ccaxTwoZ.s:6339   .debug_str:0000000000000779 .LASF147
/var/folders/rt/4gvqv631095f64jvm7jfj_000000gn/T//ccaxTwoZ.s:6097   .debug_str:000000000000020b .LASF148
/var/folders/rt/4gvqv631095f64jvm7jfj_000000gn/T//ccaxTwoZ.s:6025   .debug_str:0000000000000075 .LASF149
/var/folders/rt/4gvqv631095f64jvm7jfj_000000gn/T//ccaxTwoZ.s:6027   .debug_str:0000000000000084 .LASF150
/var/folders/rt/4gvqv631095f64jvm7jfj_000000gn/T//ccaxTwoZ.s:6245   .debug_str:00000000000004fa .LASF151
/var/folders/rt/4gvqv631095f64jvm7jfj_000000gn/T//ccaxTwoZ.s:6197   .debug_str:00000000000003f9 .LASF152
/var/folders/rt/4gvqv631095f64jvm7jfj_000000gn/T//ccaxTwoZ.s:6189   .debug_str:00000000000003d3 .LASF153
/var/folders/rt/4gvqv631095f64jvm7jfj_000000gn/T//ccaxTwoZ.s:6373   .debug_str:0000000000000836 .LASF154
/var/folders/rt/4gvqv631095f64jvm7jfj_000000gn/T//ccaxTwoZ.s:6035   .debug_str:00000000000000bf .LASF192
/var/folders/rt/4gvqv631095f64jvm7jfj_000000gn/T//ccaxTwoZ.s:6115   .debug_str:000000000000026c .LASF155
/var/folders/rt/4gvqv631095f64jvm7jfj_000000gn/T//ccaxTwoZ.s:6345   .debug_str:00000000000007a0 .LASF156
/var/folders/rt/4gvqv631095f64jvm7jfj_000000gn/T//ccaxTwoZ.s:6211   .debug_str:000000000000044e .LASF157
/var/folders/rt/4gvqv631095f64jvm7jfj_000000gn/T//ccaxTwoZ.s:6131   .debug_str:00000000000002aa .LASF158
/var/folders/rt/4gvqv631095f64jvm7jfj_000000gn/T//ccaxTwoZ.s:6029   .debug_str:0000000000000095 .LASF159
/var/folders/rt/4gvqv631095f64jvm7jfj_000000gn/T//ccaxTwoZ.s:6327   .debug_str:000000000000073b .LASF193
/var/folders/rt/4gvqv631095f64jvm7jfj_000000gn/T//ccaxTwoZ.s:1273   .text.applyGreenFingers:0000000000000000 .LFB9
/var/folders/rt/4gvqv631095f64jvm7jfj_000000gn/T//ccaxTwoZ.s:1566   .text.applyGreenFingers:00000000000001d6 .LFE9
/var/folders/rt/4gvqv631095f64jvm7jfj_000000gn/T//ccaxTwoZ.s:5088   .debug_loc:0000000000000000 .LLST38
/var/folders/rt/4gvqv631095f64jvm7jfj_000000gn/T//ccaxTwoZ.s:6181   .debug_str:00000000000003b0 .LASF160
/var/folders/rt/4gvqv631095f64jvm7jfj_000000gn/T//ccaxTwoZ.s:5111   .debug_loc:0000000000000038 .LLST39
/var/folders/rt/4gvqv631095f64jvm7jfj_000000gn/T//ccaxTwoZ.s:6263   .debug_str:0000000000000546 .LASF161
/var/folders/rt/4gvqv631095f64jvm7jfj_000000gn/T//ccaxTwoZ.s:5133   .debug_loc:000000000000006f .LLST40
/var/folders/rt/4gvqv631095f64jvm7jfj_000000gn/T//ccaxTwoZ.s:6087   .debug_str:00000000000001d3 .LASF162
/var/folders/rt/4gvqv631095f64jvm7jfj_000000gn/T//ccaxTwoZ.s:5155   .debug_loc:00000000000000a6 .LLST41
/var/folders/rt/4gvqv631095f64jvm7jfj_000000gn/T//ccaxTwoZ.s:6361   .debug_str:00000000000007f1 .LASF163
/var/folders/rt/4gvqv631095f64jvm7jfj_000000gn/T//ccaxTwoZ.s:5202   .debug_loc:0000000000000120 .LLST42
/var/folders/rt/4gvqv631095f64jvm7jfj_000000gn/T//ccaxTwoZ.s:5217   .debug_loc:0000000000000149 .LLST43
/var/folders/rt/4gvqv631095f64jvm7jfj_000000gn/T//ccaxTwoZ.s:6155   .debug_str:0000000000000335 .LASF164
/var/folders/rt/4gvqv631095f64jvm7jfj_000000gn/T//ccaxTwoZ.s:5233   .debug_loc:0000000000000173 .LLST44
/var/folders/rt/4gvqv631095f64jvm7jfj_000000gn/T//ccaxTwoZ.s:1419   .text.applyGreenFingers:00000000000000c2 .LVL85
/var/folders/rt/4gvqv631095f64jvm7jfj_000000gn/T//ccaxTwoZ.s:1477   .text.applyGreenFingers:0000000000000136 .LVL87
/var/folders/rt/4gvqv631095f64jvm7jfj_000000gn/T//ccaxTwoZ.s:1535   .text.applyGreenFingers:00000000000001ac .LVL89
/var/folders/rt/4gvqv631095f64jvm7jfj_000000gn/T//ccaxTwoZ.s:1544   .text.applyGreenFingers:00000000000001b8 .LVL91
/var/folders/rt/4gvqv631095f64jvm7jfj_000000gn/T//ccaxTwoZ.s:1549   .text.applyGreenFingers:00000000000001c2 .LVL92
/var/folders/rt/4gvqv631095f64jvm7jfj_000000gn/T//ccaxTwoZ.s:1557   .text.applyGreenFingers:00000000000001d2 .LVL94
/var/folders/rt/4gvqv631095f64jvm7jfj_000000gn/T//ccaxTwoZ.s:1306   .text.applyGreenFingers:0000000000000020 .LVL76
/var/folders/rt/4gvqv631095f64jvm7jfj_000000gn/T//ccaxTwoZ.s:6381   .debug_str:0000000000000861 .LASF166
/var/folders/rt/4gvqv631095f64jvm7jfj_000000gn/T//ccaxTwoZ.s:353    .text.updatePlantStatus:0000000000000000 .LFB8
GAS LISTING /var/folders/rt/4gvqv631095f64jvm7jfj_000000gn/T//ccaxTwoZ.s 			page 51


/var/folders/rt/4gvqv631095f64jvm7jfj_000000gn/T//ccaxTwoZ.s:526    .text.updatePlantStatus:0000000000000156 .LFE8
/var/folders/rt/4gvqv631095f64jvm7jfj_000000gn/T//ccaxTwoZ.s:5240   .debug_loc:0000000000000186 .LLST17
/var/folders/rt/4gvqv631095f64jvm7jfj_000000gn/T//ccaxTwoZ.s:6017   .debug_str:0000000000000056 .LASF165
/var/folders/rt/4gvqv631095f64jvm7jfj_000000gn/T//ccaxTwoZ.s:5268   .debug_loc:00000000000001ca .LLST18
/var/folders/rt/4gvqv631095f64jvm7jfj_000000gn/T//ccaxTwoZ.s:418    .text.updatePlantStatus:0000000000000082 .LVL20
/var/folders/rt/4gvqv631095f64jvm7jfj_000000gn/T//ccaxTwoZ.s:424    .text.updatePlantStatus:0000000000000096 .LVL21
/var/folders/rt/4gvqv631095f64jvm7jfj_000000gn/T//ccaxTwoZ.s:483    .text.updatePlantStatus:0000000000000106 .LVL23
/var/folders/rt/4gvqv631095f64jvm7jfj_000000gn/T//ccaxTwoZ.s:506    .text.updatePlantStatus:0000000000000138 .LVL24
/var/folders/rt/4gvqv631095f64jvm7jfj_000000gn/T//ccaxTwoZ.s:512    .text.updatePlantStatus:000000000000014c .LVL25
/var/folders/rt/4gvqv631095f64jvm7jfj_000000gn/T//ccaxTwoZ.s:6369   .debug_str:000000000000081c .LASF167
/var/folders/rt/4gvqv631095f64jvm7jfj_000000gn/T//ccaxTwoZ.s:534    .text.updatePlantReadings:0000000000000000 .LFB7
/var/folders/rt/4gvqv631095f64jvm7jfj_000000gn/T//ccaxTwoZ.s:1266   .text.updatePlantReadings:0000000000000574 .LFE7
/var/folders/rt/4gvqv631095f64jvm7jfj_000000gn/T//ccaxTwoZ.s:5297   .debug_loc:000000000000020f .LLST19
/var/folders/rt/4gvqv631095f64jvm7jfj_000000gn/T//ccaxTwoZ.s:5320   .debug_loc:0000000000000247 .LLST20
/var/folders/rt/4gvqv631095f64jvm7jfj_000000gn/T//ccaxTwoZ.s:6023   .debug_str:0000000000000070 .LASF168
/var/folders/rt/4gvqv631095f64jvm7jfj_000000gn/T//ccaxTwoZ.s:5346   .debug_loc:0000000000000289 .LLST21
/var/folders/rt/4gvqv631095f64jvm7jfj_000000gn/T//ccaxTwoZ.s:6239   .debug_str:00000000000004e3 .LASF169
/var/folders/rt/4gvqv631095f64jvm7jfj_000000gn/T//ccaxTwoZ.s:5382   .debug_loc:00000000000002dc .LLST22
/var/folders/rt/4gvqv631095f64jvm7jfj_000000gn/T//ccaxTwoZ.s:6151   .debug_str:000000000000031d .LASF170
/var/folders/rt/4gvqv631095f64jvm7jfj_000000gn/T//ccaxTwoZ.s:5418   .debug_loc:000000000000032f .LLST23
/var/folders/rt/4gvqv631095f64jvm7jfj_000000gn/T//ccaxTwoZ.s:5436   .debug_loc:000000000000034e .LLST24
/var/folders/rt/4gvqv631095f64jvm7jfj_000000gn/T//ccaxTwoZ.s:615    .text.updatePlantReadings:0000000000000098 .LVL32
/var/folders/rt/4gvqv631095f64jvm7jfj_000000gn/T//ccaxTwoZ.s:727    .text.updatePlantReadings:000000000000016e .LBB7
/var/folders/rt/4gvqv631095f64jvm7jfj_000000gn/T//ccaxTwoZ.s:851    .text.updatePlantReadings:0000000000000254 .LBE7
/var/folders/rt/4gvqv631095f64jvm7jfj_000000gn/T//ccaxTwoZ.s:6133   .debug_str:00000000000002ba .LASF171
/var/folders/rt/4gvqv631095f64jvm7jfj_000000gn/T//ccaxTwoZ.s:5447   .debug_loc:000000000000036c .LLST25
/var/folders/rt/4gvqv631095f64jvm7jfj_000000gn/T//ccaxTwoZ.s:5458   .debug_loc:000000000000038a .LLST26
/var/folders/rt/4gvqv631095f64jvm7jfj_000000gn/T//ccaxTwoZ.s:777    .text.updatePlantReadings:00000000000001b8 .LBB10
/var/folders/rt/4gvqv631095f64jvm7jfj_000000gn/T//ccaxTwoZ.s:810    .text.updatePlantReadings:00000000000001fa .LBE10
/var/folders/rt/4gvqv631095f64jvm7jfj_000000gn/T//ccaxTwoZ.s:5475   .debug_loc:00000000000003b5 .LLST27
/var/folders/rt/4gvqv631095f64jvm7jfj_000000gn/T//ccaxTwoZ.s:560    .text.updatePlantReadings:000000000000001a .LVL29
/var/folders/rt/4gvqv631095f64jvm7jfj_000000gn/T//ccaxTwoZ.s:565    .text.updatePlantReadings:0000000000000024 .LVL30
/var/folders/rt/4gvqv631095f64jvm7jfj_000000gn/T//ccaxTwoZ.s:856    .text.updatePlantReadings:0000000000000258 .LBB12
/var/folders/rt/4gvqv631095f64jvm7jfj_000000gn/T//ccaxTwoZ.s:1059   .text.updatePlantReadings:00000000000003e4 .LBE12
/var/folders/rt/4gvqv631095f64jvm7jfj_000000gn/T//ccaxTwoZ.s:5493   .debug_loc:00000000000003e1 .LLST28
/var/folders/rt/4gvqv631095f64jvm7jfj_000000gn/T//ccaxTwoZ.s:882    .text.updatePlantReadings:000000000000028e .LBB13
/var/folders/rt/4gvqv631095f64jvm7jfj_000000gn/T//ccaxTwoZ.s:929    .text.updatePlantReadings:00000000000002fa .LBE13
/var/folders/rt/4gvqv631095f64jvm7jfj_000000gn/T//ccaxTwoZ.s:5511   .debug_loc:0000000000000400 .LLST29
/var/folders/rt/4gvqv631095f64jvm7jfj_000000gn/T//ccaxTwoZ.s:902    .text.updatePlantReadings:00000000000002bc .LVL50
/var/folders/rt/4gvqv631095f64jvm7jfj_000000gn/T//ccaxTwoZ.s:934    .text.updatePlantReadings:0000000000000300 .LBB14
/var/folders/rt/4gvqv631095f64jvm7jfj_000000gn/T//ccaxTwoZ.s:1058   .text.updatePlantReadings:00000000000003e4 .LBE14
/var/folders/rt/4gvqv631095f64jvm7jfj_000000gn/T//ccaxTwoZ.s:5518   .debug_loc:0000000000000413 .LLST30
/var/folders/rt/4gvqv631095f64jvm7jfj_000000gn/T//ccaxTwoZ.s:5529   .debug_loc:0000000000000431 .LLST31
/var/folders/rt/4gvqv631095f64jvm7jfj_000000gn/T//ccaxTwoZ.s:984    .text.updatePlantReadings:0000000000000348 .LBB17
/var/folders/rt/4gvqv631095f64jvm7jfj_000000gn/T//ccaxTwoZ.s:1017   .text.updatePlantReadings:000000000000038a .LBE17
/var/folders/rt/4gvqv631095f64jvm7jfj_000000gn/T//ccaxTwoZ.s:5546   .debug_loc:000000000000045c .LLST32
/var/folders/rt/4gvqv631095f64jvm7jfj_000000gn/T//ccaxTwoZ.s:860    .text.updatePlantReadings:0000000000000262 .LVL47
/var/folders/rt/4gvqv631095f64jvm7jfj_000000gn/T//ccaxTwoZ.s:865    .text.updatePlantReadings:000000000000026c .LVL48
/var/folders/rt/4gvqv631095f64jvm7jfj_000000gn/T//ccaxTwoZ.s:1064   .text.updatePlantReadings:00000000000003ea .LBB18
/var/folders/rt/4gvqv631095f64jvm7jfj_000000gn/T//ccaxTwoZ.s:1264   .text.updatePlantReadings:0000000000000574 .LBE18
/var/folders/rt/4gvqv631095f64jvm7jfj_000000gn/T//ccaxTwoZ.s:5564   .debug_loc:0000000000000488 .LLST33
/var/folders/rt/4gvqv631095f64jvm7jfj_000000gn/T//ccaxTwoZ.s:5587   .debug_loc:00000000000004ac .LLST34
/var/folders/rt/4gvqv631095f64jvm7jfj_000000gn/T//ccaxTwoZ.s:1109   .text.updatePlantReadings:000000000000044c .LVL64
/var/folders/rt/4gvqv631095f64jvm7jfj_000000gn/T//ccaxTwoZ.s:1141   .text.updatePlantReadings:0000000000000490 .LBB21
/var/folders/rt/4gvqv631095f64jvm7jfj_000000gn/T//ccaxTwoZ.s:1263   .text.updatePlantReadings:0000000000000574 .LBE21
/var/folders/rt/4gvqv631095f64jvm7jfj_000000gn/T//ccaxTwoZ.s:5594   .debug_loc:00000000000004bf .LLST35
/var/folders/rt/4gvqv631095f64jvm7jfj_000000gn/T//ccaxTwoZ.s:5605   .debug_loc:00000000000004dd .LLST36
GAS LISTING /var/folders/rt/4gvqv631095f64jvm7jfj_000000gn/T//ccaxTwoZ.s 			page 52


/var/folders/rt/4gvqv631095f64jvm7jfj_000000gn/T//ccaxTwoZ.s:1191   .text.updatePlantReadings:00000000000004d8 .LBB24
/var/folders/rt/4gvqv631095f64jvm7jfj_000000gn/T//ccaxTwoZ.s:1224   .text.updatePlantReadings:000000000000051a .LBE24
/var/folders/rt/4gvqv631095f64jvm7jfj_000000gn/T//ccaxTwoZ.s:5622   .debug_loc:0000000000000508 .LLST37
/var/folders/rt/4gvqv631095f64jvm7jfj_000000gn/T//ccaxTwoZ.s:1068   .text.updatePlantReadings:00000000000003f2 .LVL62
/var/folders/rt/4gvqv631095f64jvm7jfj_000000gn/T//ccaxTwoZ.s:676    .text.updatePlantReadings:0000000000000108 .LVL35
/var/folders/rt/4gvqv631095f64jvm7jfj_000000gn/T//ccaxTwoZ.s:6367   .debug_str:0000000000000812 .LASF172
/var/folders/rt/4gvqv631095f64jvm7jfj_000000gn/T//ccaxTwoZ.s:74     .text.initPlant:0000000000000000 .LFB6
/var/folders/rt/4gvqv631095f64jvm7jfj_000000gn/T//ccaxTwoZ.s:346    .text.initPlant:00000000000001e0 .LFE6
/var/folders/rt/4gvqv631095f64jvm7jfj_000000gn/T//ccaxTwoZ.s:5640   .debug_loc:0000000000000534 .LLST3
/var/folders/rt/4gvqv631095f64jvm7jfj_000000gn/T//ccaxTwoZ.s:6167   .debug_str:0000000000000368 .LASF173
/var/folders/rt/4gvqv631095f64jvm7jfj_000000gn/T//ccaxTwoZ.s:5658   .debug_loc:0000000000000561 .LLST4
/var/folders/rt/4gvqv631095f64jvm7jfj_000000gn/T//ccaxTwoZ.s:5676   .debug_loc:000000000000058d .LLST5
/var/folders/rt/4gvqv631095f64jvm7jfj_000000gn/T//ccaxTwoZ.s:5694   .debug_loc:00000000000005b9 .LLST6
/var/folders/rt/4gvqv631095f64jvm7jfj_000000gn/T//ccaxTwoZ.s:5712   .debug_loc:00000000000005e5 .LLST7
/var/folders/rt/4gvqv631095f64jvm7jfj_000000gn/T//ccaxTwoZ.s:5730   .debug_loc:0000000000000611 .LLST8
/var/folders/rt/4gvqv631095f64jvm7jfj_000000gn/T//ccaxTwoZ.s:5748   .debug_loc:000000000000063d .LLST9
/var/folders/rt/4gvqv631095f64jvm7jfj_000000gn/T//ccaxTwoZ.s:5766   .debug_loc:0000000000000669 .LLST10
/var/folders/rt/4gvqv631095f64jvm7jfj_000000gn/T//ccaxTwoZ.s:5784   .debug_loc:0000000000000695 .LLST11
/var/folders/rt/4gvqv631095f64jvm7jfj_000000gn/T//ccaxTwoZ.s:5802   .debug_loc:00000000000006c1 .LLST12
/var/folders/rt/4gvqv631095f64jvm7jfj_000000gn/T//ccaxTwoZ.s:5815   .debug_loc:00000000000006e1 .LLST13
/var/folders/rt/4gvqv631095f64jvm7jfj_000000gn/T//ccaxTwoZ.s:5828   .debug_loc:0000000000000701 .LLST14
/var/folders/rt/4gvqv631095f64jvm7jfj_000000gn/T//ccaxTwoZ.s:5841   .debug_loc:0000000000000721 .LLST15
/var/folders/rt/4gvqv631095f64jvm7jfj_000000gn/T//ccaxTwoZ.s:6299   .debug_str:0000000000000600 .LASF174
/var/folders/rt/4gvqv631095f64jvm7jfj_000000gn/T//ccaxTwoZ.s:6343   .debug_str:0000000000000791 .LASF175
/var/folders/rt/4gvqv631095f64jvm7jfj_000000gn/T//ccaxTwoZ.s:5854   .debug_loc:0000000000000741 .LLST16
/var/folders/rt/4gvqv631095f64jvm7jfj_000000gn/T//ccaxTwoZ.s:143    .text.initPlant:0000000000000072 .LVL8
/var/folders/rt/4gvqv631095f64jvm7jfj_000000gn/T//ccaxTwoZ.s:149    .text.initPlant:0000000000000086 .LVL9
/var/folders/rt/4gvqv631095f64jvm7jfj_000000gn/T//ccaxTwoZ.s:309    .text.initPlant:00000000000001a6 .LVL15
/var/folders/rt/4gvqv631095f64jvm7jfj_000000gn/T//ccaxTwoZ.s:6203   .debug_str:000000000000041e .LASF194
/var/folders/rt/4gvqv631095f64jvm7jfj_000000gn/T//ccaxTwoZ.s:6217   .debug_str:0000000000000472 .LASF176
/var/folders/rt/4gvqv631095f64jvm7jfj_000000gn/T//ccaxTwoZ.s:6221   .debug_str:0000000000000486 .LASF177
/var/folders/rt/4gvqv631095f64jvm7jfj_000000gn/T//ccaxTwoZ.s:6105   .debug_str:000000000000023f .LASF195
/var/folders/rt/4gvqv631095f64jvm7jfj_000000gn/T//ccaxTwoZ.s:14     .text.initSensorReading:0000000000000000 .LFB5
/var/folders/rt/4gvqv631095f64jvm7jfj_000000gn/T//ccaxTwoZ.s:67     .text.initSensorReading:000000000000005c .LFE5
/var/folders/rt/4gvqv631095f64jvm7jfj_000000gn/T//ccaxTwoZ.s:5868   .debug_loc:000000000000075b .LLST0
/var/folders/rt/4gvqv631095f64jvm7jfj_000000gn/T//ccaxTwoZ.s:5886   .debug_loc:0000000000000787 .LLST1
/var/folders/rt/4gvqv631095f64jvm7jfj_000000gn/T//ccaxTwoZ.s:5900   .debug_loc:00000000000007a8 .LLST2
/var/folders/rt/4gvqv631095f64jvm7jfj_000000gn/T//ccaxTwoZ.s:6093   .debug_str:00000000000001f4 .LASF178
/var/folders/rt/4gvqv631095f64jvm7jfj_000000gn/T//ccaxTwoZ.s:6077   .debug_str:000000000000019e .LASF179
/var/folders/rt/4gvqv631095f64jvm7jfj_000000gn/T//ccaxTwoZ.s:6039   .debug_str:00000000000000d7 .LASF180
/var/folders/rt/4gvqv631095f64jvm7jfj_000000gn/T//ccaxTwoZ.s:6341   .debug_str:0000000000000788 .LASF181
/var/folders/rt/4gvqv631095f64jvm7jfj_000000gn/T//ccaxTwoZ.s:6009   .debug_str:0000000000000026 .LASF182
/var/folders/rt/4gvqv631095f64jvm7jfj_000000gn/T//ccaxTwoZ.s:6171   .debug_str:0000000000000374 .LASF185
/var/folders/rt/4gvqv631095f64jvm7jfj_000000gn/T//ccaxTwoZ.s:6081   .debug_str:00000000000001b1 .LASF187
/var/folders/rt/4gvqv631095f64jvm7jfj_000000gn/T//ccaxTwoZ.s:6011   .debug_str:0000000000000035 .LASF183
/var/folders/rt/4gvqv631095f64jvm7jfj_000000gn/T//ccaxTwoZ.s:6333   .debug_str:000000000000075a .LASF184
/var/folders/rt/4gvqv631095f64jvm7jfj_000000gn/T//ccaxTwoZ.s:6165   .debug_str:0000000000000361 .LASF186
/var/folders/rt/4gvqv631095f64jvm7jfj_000000gn/T//ccaxTwoZ.s:6173   .debug_str:000000000000037b .LASF188
/var/folders/rt/4gvqv631095f64jvm7jfj_000000gn/T//ccaxTwoZ.s:1281   .text.applyGreenFingers:0000000000000002 .LCFI11
/var/folders/rt/4gvqv631095f64jvm7jfj_000000gn/T//ccaxTwoZ.s:1356   .text.applyGreenFingers:0000000000000048 .LCFI12
/var/folders/rt/4gvqv631095f64jvm7jfj_000000gn/T//ccaxTwoZ.s:1361   .text.applyGreenFingers:000000000000004a .LCFI13
/var/folders/rt/4gvqv631095f64jvm7jfj_000000gn/T//ccaxTwoZ.s:1276   .text.applyGreenFingers:0000000000000000 .LVL75
/var/folders/rt/4gvqv631095f64jvm7jfj_000000gn/T//ccaxTwoZ.s:1347   .text.applyGreenFingers:0000000000000040 .LVL82
/var/folders/rt/4gvqv631095f64jvm7jfj_000000gn/T//ccaxTwoZ.s:1359   .text.applyGreenFingers:000000000000004a .LVL84
/var/folders/rt/4gvqv631095f64jvm7jfj_000000gn/T//ccaxTwoZ.s:1344   .text.applyGreenFingers:000000000000003e .LVL81
/var/folders/rt/4gvqv631095f64jvm7jfj_000000gn/T//ccaxTwoZ.s:1322   .text.applyGreenFingers:000000000000002e .LVL78
/var/folders/rt/4gvqv631095f64jvm7jfj_000000gn/T//ccaxTwoZ.s:1354   .text.applyGreenFingers:0000000000000046 .LVL83
GAS LISTING /var/folders/rt/4gvqv631095f64jvm7jfj_000000gn/T//ccaxTwoZ.s 			page 53


/var/folders/rt/4gvqv631095f64jvm7jfj_000000gn/T//ccaxTwoZ.s:1423   .text.applyGreenFingers:00000000000000c4 .LVL86
/var/folders/rt/4gvqv631095f64jvm7jfj_000000gn/T//ccaxTwoZ.s:1481   .text.applyGreenFingers:0000000000000138 .LVL88
/var/folders/rt/4gvqv631095f64jvm7jfj_000000gn/T//ccaxTwoZ.s:1539   .text.applyGreenFingers:00000000000001ae .LVL90
/var/folders/rt/4gvqv631095f64jvm7jfj_000000gn/T//ccaxTwoZ.s:1308   .text.applyGreenFingers:0000000000000022 .LVL77
/var/folders/rt/4gvqv631095f64jvm7jfj_000000gn/T//ccaxTwoZ.s:1341   .text.applyGreenFingers:000000000000003c .LVL80
/var/folders/rt/4gvqv631095f64jvm7jfj_000000gn/T//ccaxTwoZ.s:1338   .text.applyGreenFingers:000000000000003a .LVL79
/var/folders/rt/4gvqv631095f64jvm7jfj_000000gn/T//ccaxTwoZ.s:1555   .text.applyGreenFingers:00000000000001ca .LVL93
/var/folders/rt/4gvqv631095f64jvm7jfj_000000gn/T//ccaxTwoZ.s:360    .text.updatePlantStatus:0000000000000002 .LCFI4
/var/folders/rt/4gvqv631095f64jvm7jfj_000000gn/T//ccaxTwoZ.s:479    .text.updatePlantStatus:00000000000000fe .LCFI5
/var/folders/rt/4gvqv631095f64jvm7jfj_000000gn/T//ccaxTwoZ.s:485    .text.updatePlantStatus:0000000000000106 .LCFI6
/var/folders/rt/4gvqv631095f64jvm7jfj_000000gn/T//ccaxTwoZ.s:522    .text.updatePlantStatus:0000000000000154 .LCFI7
/var/folders/rt/4gvqv631095f64jvm7jfj_000000gn/T//ccaxTwoZ.s:356    .text.updatePlantStatus:0000000000000000 .LVL18
/var/folders/rt/4gvqv631095f64jvm7jfj_000000gn/T//ccaxTwoZ.s:416    .text.updatePlantStatus:000000000000007a .LVL19
/var/folders/rt/4gvqv631095f64jvm7jfj_000000gn/T//ccaxTwoZ.s:472    .text.updatePlantStatus:00000000000000f6 .LVL22
/var/folders/rt/4gvqv631095f64jvm7jfj_000000gn/T//ccaxTwoZ.s:520    .text.updatePlantStatus:0000000000000152 .LVL26
/var/folders/rt/4gvqv631095f64jvm7jfj_000000gn/T//ccaxTwoZ.s:541    .text.updatePlantReadings:0000000000000002 .LCFI8
/var/folders/rt/4gvqv631095f64jvm7jfj_000000gn/T//ccaxTwoZ.s:672    .text.updatePlantReadings:0000000000000100 .LCFI9
/var/folders/rt/4gvqv631095f64jvm7jfj_000000gn/T//ccaxTwoZ.s:678    .text.updatePlantReadings:0000000000000108 .LCFI10
/var/folders/rt/4gvqv631095f64jvm7jfj_000000gn/T//ccaxTwoZ.s:537    .text.updatePlantReadings:0000000000000000 .LVL27
/var/folders/rt/4gvqv631095f64jvm7jfj_000000gn/T//ccaxTwoZ.s:558    .text.updatePlantReadings:0000000000000012 .LVL28
/var/folders/rt/4gvqv631095f64jvm7jfj_000000gn/T//ccaxTwoZ.s:666    .text.updatePlantReadings:00000000000000fa .LVL34
/var/folders/rt/4gvqv631095f64jvm7jfj_000000gn/T//ccaxTwoZ.s:849    .text.updatePlantReadings:0000000000000254 .LVL46
/var/folders/rt/4gvqv631095f64jvm7jfj_000000gn/T//ccaxTwoZ.s:1056   .text.updatePlantReadings:00000000000003e4 .LVL61
/var/folders/rt/4gvqv631095f64jvm7jfj_000000gn/T//ccaxTwoZ.s:589    .text.updatePlantReadings:0000000000000052 .LVL31
/var/folders/rt/4gvqv631095f64jvm7jfj_000000gn/T//ccaxTwoZ.s:656    .text.updatePlantReadings:00000000000000f6 .LVL33
/var/folders/rt/4gvqv631095f64jvm7jfj_000000gn/T//ccaxTwoZ.s:696    .text.updatePlantReadings:0000000000000126 .LVL36
/var/folders/rt/4gvqv631095f64jvm7jfj_000000gn/T//ccaxTwoZ.s:738    .text.updatePlantReadings:0000000000000176 .LVL37
/var/folders/rt/4gvqv631095f64jvm7jfj_000000gn/T//ccaxTwoZ.s:767    .text.updatePlantReadings:00000000000001a6 .LVL40
/var/folders/rt/4gvqv631095f64jvm7jfj_000000gn/T//ccaxTwoZ.s:775    .text.updatePlantReadings:00000000000001b8 .LVL41
/var/folders/rt/4gvqv631095f64jvm7jfj_000000gn/T//ccaxTwoZ.s:819    .text.updatePlantReadings:0000000000000210 .LVL45
/var/folders/rt/4gvqv631095f64jvm7jfj_000000gn/T//ccaxTwoZ.s:748    .text.updatePlantReadings:0000000000000188 .LVL38
/var/folders/rt/4gvqv631095f64jvm7jfj_000000gn/T//ccaxTwoZ.s:760    .text.updatePlantReadings:000000000000019e .LVL39
/var/folders/rt/4gvqv631095f64jvm7jfj_000000gn/T//ccaxTwoZ.s:781    .text.updatePlantReadings:00000000000001ba .LVL42
/var/folders/rt/4gvqv631095f64jvm7jfj_000000gn/T//ccaxTwoZ.s:790    .text.updatePlantReadings:00000000000001ca .LVL43
/var/folders/rt/4gvqv631095f64jvm7jfj_000000gn/T//ccaxTwoZ.s:807    .text.updatePlantReadings:00000000000001f8 .LVL44
/var/folders/rt/4gvqv631095f64jvm7jfj_000000gn/T//ccaxTwoZ.s:890    .text.updatePlantReadings:000000000000029a .LVL49
/var/folders/rt/4gvqv631095f64jvm7jfj_000000gn/T//ccaxTwoZ.s:926    .text.updatePlantReadings:00000000000002f2 .LVL51
/var/folders/rt/4gvqv631095f64jvm7jfj_000000gn/T//ccaxTwoZ.s:945    .text.updatePlantReadings:0000000000000306 .LVL52
/var/folders/rt/4gvqv631095f64jvm7jfj_000000gn/T//ccaxTwoZ.s:974    .text.updatePlantReadings:0000000000000336 .LVL55
/var/folders/rt/4gvqv631095f64jvm7jfj_000000gn/T//ccaxTwoZ.s:982    .text.updatePlantReadings:0000000000000348 .LVL56
/var/folders/rt/4gvqv631095f64jvm7jfj_000000gn/T//ccaxTwoZ.s:1026   .text.updatePlantReadings:00000000000003a0 .LVL60
/var/folders/rt/4gvqv631095f64jvm7jfj_000000gn/T//ccaxTwoZ.s:955    .text.updatePlantReadings:0000000000000318 .LVL53
/var/folders/rt/4gvqv631095f64jvm7jfj_000000gn/T//ccaxTwoZ.s:967    .text.updatePlantReadings:000000000000032e .LVL54
/var/folders/rt/4gvqv631095f64jvm7jfj_000000gn/T//ccaxTwoZ.s:988    .text.updatePlantReadings:000000000000034a .LVL57
/var/folders/rt/4gvqv631095f64jvm7jfj_000000gn/T//ccaxTwoZ.s:997    .text.updatePlantReadings:000000000000035a .LVL58
/var/folders/rt/4gvqv631095f64jvm7jfj_000000gn/T//ccaxTwoZ.s:1014   .text.updatePlantReadings:0000000000000388 .LVL59
/var/folders/rt/4gvqv631095f64jvm7jfj_000000gn/T//ccaxTwoZ.s:1090   .text.updatePlantReadings:000000000000041c .LVL63
/var/folders/rt/4gvqv631095f64jvm7jfj_000000gn/T//ccaxTwoZ.s:1133   .text.updatePlantReadings:0000000000000482 .LVL65
/var/folders/rt/4gvqv631095f64jvm7jfj_000000gn/T//ccaxTwoZ.s:1152   .text.updatePlantReadings:0000000000000496 .LVL66
/var/folders/rt/4gvqv631095f64jvm7jfj_000000gn/T//ccaxTwoZ.s:1181   .text.updatePlantReadings:00000000000004c6 .LVL69
/var/folders/rt/4gvqv631095f64jvm7jfj_000000gn/T//ccaxTwoZ.s:1189   .text.updatePlantReadings:00000000000004d8 .LVL70
/var/folders/rt/4gvqv631095f64jvm7jfj_000000gn/T//ccaxTwoZ.s:1233   .text.updatePlantReadings:0000000000000530 .LVL74
/var/folders/rt/4gvqv631095f64jvm7jfj_000000gn/T//ccaxTwoZ.s:1162   .text.updatePlantReadings:00000000000004a8 .LVL67
/var/folders/rt/4gvqv631095f64jvm7jfj_000000gn/T//ccaxTwoZ.s:1174   .text.updatePlantReadings:00000000000004be .LVL68
/var/folders/rt/4gvqv631095f64jvm7jfj_000000gn/T//ccaxTwoZ.s:1195   .text.updatePlantReadings:00000000000004da .LVL71
/var/folders/rt/4gvqv631095f64jvm7jfj_000000gn/T//ccaxTwoZ.s:1204   .text.updatePlantReadings:00000000000004ea .LVL72
/var/folders/rt/4gvqv631095f64jvm7jfj_000000gn/T//ccaxTwoZ.s:1221   .text.updatePlantReadings:0000000000000518 .LVL73
GAS LISTING /var/folders/rt/4gvqv631095f64jvm7jfj_000000gn/T//ccaxTwoZ.s 			page 54


/var/folders/rt/4gvqv631095f64jvm7jfj_000000gn/T//ccaxTwoZ.s:83     .text.initPlant:0000000000000008 .LCFI2
/var/folders/rt/4gvqv631095f64jvm7jfj_000000gn/T//ccaxTwoZ.s:341    .text.initPlant:00000000000001de .LCFI3
/var/folders/rt/4gvqv631095f64jvm7jfj_000000gn/T//ccaxTwoZ.s:77     .text.initPlant:0000000000000000 .LVL3
/var/folders/rt/4gvqv631095f64jvm7jfj_000000gn/T//ccaxTwoZ.s:137    .text.initPlant:0000000000000062 .LVL7
/var/folders/rt/4gvqv631095f64jvm7jfj_000000gn/T//ccaxTwoZ.s:135    .text.initPlant:0000000000000060 .LVL6
/var/folders/rt/4gvqv631095f64jvm7jfj_000000gn/T//ccaxTwoZ.s:313    .text.initPlant:00000000000001aa .LVL16
/var/folders/rt/4gvqv631095f64jvm7jfj_000000gn/T//ccaxTwoZ.s:121    .text.initPlant:0000000000000054 .LVL4
/var/folders/rt/4gvqv631095f64jvm7jfj_000000gn/T//ccaxTwoZ.s:125    .text.initPlant:000000000000005a .LVL5
/var/folders/rt/4gvqv631095f64jvm7jfj_000000gn/T//ccaxTwoZ.s:251    .text.initPlant:000000000000014e .LVL11
/var/folders/rt/4gvqv631095f64jvm7jfj_000000gn/T//ccaxTwoZ.s:254    .text.initPlant:0000000000000152 .LVL12
/var/folders/rt/4gvqv631095f64jvm7jfj_000000gn/T//ccaxTwoZ.s:257    .text.initPlant:0000000000000156 .LVL13
/var/folders/rt/4gvqv631095f64jvm7jfj_000000gn/T//ccaxTwoZ.s:260    .text.initPlant:0000000000000158 .LVL14
/var/folders/rt/4gvqv631095f64jvm7jfj_000000gn/T//ccaxTwoZ.s:225    .text.initPlant:000000000000011a .LVL10
/var/folders/rt/4gvqv631095f64jvm7jfj_000000gn/T//ccaxTwoZ.s:343    .text.initPlant:00000000000001de .LVL17
/var/folders/rt/4gvqv631095f64jvm7jfj_000000gn/T//ccaxTwoZ.s:52     .text.initSensorReading:000000000000004c .LCFI0
/var/folders/rt/4gvqv631095f64jvm7jfj_000000gn/T//ccaxTwoZ.s:63     .text.initSensorReading:000000000000005a .LCFI1
/var/folders/rt/4gvqv631095f64jvm7jfj_000000gn/T//ccaxTwoZ.s:18     .text.initSensorReading:0000000000000000 .LVL0
/var/folders/rt/4gvqv631095f64jvm7jfj_000000gn/T//ccaxTwoZ.s:46     .text.initSensorReading:0000000000000046 .LVL1
/var/folders/rt/4gvqv631095f64jvm7jfj_000000gn/T//ccaxTwoZ.s:49     .text.initSensorReading:000000000000004a .LVL2
/var/folders/rt/4gvqv631095f64jvm7jfj_000000gn/T//ccaxTwoZ.s:1600   .debug_info:0000000000000000 .Ldebug_info0
/var/folders/rt/4gvqv631095f64jvm7jfj_000000gn/T//ccaxTwoZ.s:555    .text.updatePlantReadings:0000000000000010 .LBB4
/var/folders/rt/4gvqv631095f64jvm7jfj_000000gn/T//ccaxTwoZ.s:659    .text.updatePlantReadings:00000000000000f6 .LBE4
/var/folders/rt/4gvqv631095f64jvm7jfj_000000gn/T//ccaxTwoZ.s:680    .text.updatePlantReadings:0000000000000108 .LBB11
/var/folders/rt/4gvqv631095f64jvm7jfj_000000gn/T//ccaxTwoZ.s:852    .text.updatePlantReadings:0000000000000254 .LBE11
/var/folders/rt/4gvqv631095f64jvm7jfj_000000gn/T//ccaxTwoZ.s:582    .text.updatePlantReadings:0000000000000048 .LBB5
/var/folders/rt/4gvqv631095f64jvm7jfj_000000gn/T//ccaxTwoZ.s:658    .text.updatePlantReadings:00000000000000f6 .LBE5
/var/folders/rt/4gvqv631095f64jvm7jfj_000000gn/T//ccaxTwoZ.s:681    .text.updatePlantReadings:0000000000000108 .LBB6
/var/folders/rt/4gvqv631095f64jvm7jfj_000000gn/T//ccaxTwoZ.s:711    .text.updatePlantReadings:000000000000014a .LBE6
/var/folders/rt/4gvqv631095f64jvm7jfj_000000gn/T//ccaxTwoZ.s:728    .text.updatePlantReadings:000000000000016e .LBB8
/var/folders/rt/4gvqv631095f64jvm7jfj_000000gn/T//ccaxTwoZ.s:731    .text.updatePlantReadings:0000000000000170 .LBE8
/var/folders/rt/4gvqv631095f64jvm7jfj_000000gn/T//ccaxTwoZ.s:734    .text.updatePlantReadings:0000000000000172 .LBB9
/var/folders/rt/4gvqv631095f64jvm7jfj_000000gn/T//ccaxTwoZ.s:763    .text.updatePlantReadings:00000000000001a2 .LBE9
/var/folders/rt/4gvqv631095f64jvm7jfj_000000gn/T//ccaxTwoZ.s:935    .text.updatePlantReadings:0000000000000300 .LBB15
/var/folders/rt/4gvqv631095f64jvm7jfj_000000gn/T//ccaxTwoZ.s:938    .text.updatePlantReadings:0000000000000302 .LBE15
/var/folders/rt/4gvqv631095f64jvm7jfj_000000gn/T//ccaxTwoZ.s:941    .text.updatePlantReadings:0000000000000304 .LBB16
/var/folders/rt/4gvqv631095f64jvm7jfj_000000gn/T//ccaxTwoZ.s:970    .text.updatePlantReadings:0000000000000332 .LBE16
/var/folders/rt/4gvqv631095f64jvm7jfj_000000gn/T//ccaxTwoZ.s:1085   .text.updatePlantReadings:0000000000000414 .LBB19
/var/folders/rt/4gvqv631095f64jvm7jfj_000000gn/T//ccaxTwoZ.s:1087   .text.updatePlantReadings:0000000000000414 .LBE19
/var/folders/rt/4gvqv631095f64jvm7jfj_000000gn/T//ccaxTwoZ.s:1091   .text.updatePlantReadings:000000000000041c .LBB20
/var/folders/rt/4gvqv631095f64jvm7jfj_000000gn/T//ccaxTwoZ.s:1136   .text.updatePlantReadings:000000000000048a .LBE20
/var/folders/rt/4gvqv631095f64jvm7jfj_000000gn/T//ccaxTwoZ.s:1142   .text.updatePlantReadings:0000000000000490 .LBB22
/var/folders/rt/4gvqv631095f64jvm7jfj_000000gn/T//ccaxTwoZ.s:1145   .text.updatePlantReadings:0000000000000492 .LBE22
/var/folders/rt/4gvqv631095f64jvm7jfj_000000gn/T//ccaxTwoZ.s:1148   .text.updatePlantReadings:0000000000000494 .LBB23
/var/folders/rt/4gvqv631095f64jvm7jfj_000000gn/T//ccaxTwoZ.s:1177   .text.updatePlantReadings:00000000000004c2 .LBE23
/var/folders/rt/4gvqv631095f64jvm7jfj_000000gn/T//ccaxTwoZ.s:1310   .text.applyGreenFingers:0000000000000022 .LBB25
/var/folders/rt/4gvqv631095f64jvm7jfj_000000gn/T//ccaxTwoZ.s:1314   .text.applyGreenFingers:0000000000000024 .LBE25
/var/folders/rt/4gvqv631095f64jvm7jfj_000000gn/T//ccaxTwoZ.s:1318   .text.applyGreenFingers:000000000000002a .LBB28
/var/folders/rt/4gvqv631095f64jvm7jfj_000000gn/T//ccaxTwoZ.s:1327   .text.applyGreenFingers:0000000000000032 .LBE28
/var/folders/rt/4gvqv631095f64jvm7jfj_000000gn/T//ccaxTwoZ.s:1363   .text.applyGreenFingers:000000000000004a .LBB29
/var/folders/rt/4gvqv631095f64jvm7jfj_000000gn/T//ccaxTwoZ.s:1564   .text.applyGreenFingers:00000000000001d6 .LBE29
/var/folders/rt/4gvqv631095f64jvm7jfj_000000gn/T//ccaxTwoZ.s:1319   .text.applyGreenFingers:000000000000002a .LBB26
/var/folders/rt/4gvqv631095f64jvm7jfj_000000gn/T//ccaxTwoZ.s:1324   .text.applyGreenFingers:000000000000002e .LBE26
/var/folders/rt/4gvqv631095f64jvm7jfj_000000gn/T//ccaxTwoZ.s:1364   .text.applyGreenFingers:000000000000004a .LBB27
/var/folders/rt/4gvqv631095f64jvm7jfj_000000gn/T//ccaxTwoZ.s:1559   .text.applyGreenFingers:00000000000001d2 .LBE27

UNDEFINED SYMBOLS
snprintf
GAS LISTING /var/folders/rt/4gvqv631095f64jvm7jfj_000000gn/T//ccaxTwoZ.s 			page 55


strcpy
memcpy
gpio_bit_reset
T1setPWMch0
gpio_bit_set
__fixsfsi
ADC_read
rtc_counter_get
read_temp
