GAS LISTING /var/folders/rt/4gvqv631095f64jvm7jfj_000000gn/T//ccIPxTqM.s 			page 1


   1              		.file	"plant.c"
   2              		.option nopic
   3              		.attribute arch, "rv32i2p0_m2p0_a2p0_c2p0"
   4              		.attribute unaligned_access, 0
   5              		.attribute stack_align, 16
   6              		.text
   7              	.Ltext0:
   8              		.cfi_sections	.debug_frame
   9              		.section	.text.initSensorReading,"ax",@progbits
  10              		.align	1
  11              		.globl	initSensorReading
  13              	initSensorReading:
  14              	.LFB0:
  15              		.file 1 "plant.c"
   1:plant.c       **** #include "plant.h"
   2:plant.c       **** #define STR_COPY(dest, src) \
   3:plant.c       ****   snprintf(dest, sizeof(dest), "%s", src) // AI. STR_COPY är en genväg för snprintf som i sin tu
   4:plant.c       **** 
   5:plant.c       **** SensorReading initSensorReading(char timeStamp[], int inReading)
   6:plant.c       **** {
  16              		.loc 1 6 1
  17              		.cfi_startproc
  18              	.LVL0:
   7:plant.c       ****   SensorReading newReading;
  19              		.loc 1 7 3
   8:plant.c       ****   STR_COPY(newReading.timeStamp, timeStamp);
  20              		.loc 1 8 3
   6:plant.c       ****   SensorReading newReading;
  21              		.loc 1 6 1 is_stmt 0
  22 0000 7971     		addi	sp,sp,-48
  23              	.LCFI0:
  24              		.cfi_def_cfa_offset 48
  25 0002 26D2     		sw	s1,36(sp)
  26              		.cfi_offset 9, -12
  27 0004 B284     		mv	s1,a2
  28              		.loc 1 8 3
  29 0006 37060000 		lui	a2,%hi(.LC0)
  30              	.LVL1:
   6:plant.c       ****   SensorReading newReading;
  31              		.loc 1 6 1
  32 000a 22D4     		sw	s0,40(sp)
  33              		.loc 1 8 3
  34 000c AE86     		mv	a3,a1
  35              		.cfi_offset 8, -8
   6:plant.c       ****   SensorReading newReading;
  36              		.loc 1 6 1
  37 000e 2A84     		mv	s0,a0
  38              		.loc 1 8 3
  39 0010 13060600 		addi	a2,a2,%lo(.LC0)
  40 0014 BD45     		li	a1,15
  41              	.LVL2:
  42 0016 6800     		addi	a0,sp,12
  43              	.LVL3:
   6:plant.c       ****   SensorReading newReading;
  44              		.loc 1 6 1
  45 0018 06D6     		sw	ra,44(sp)
  46              		.cfi_offset 1, -4
GAS LISTING /var/folders/rt/4gvqv631095f64jvm7jfj_000000gn/T//ccIPxTqM.s 			page 2


  47              		.loc 1 8 3
  48 001a 97000000 		call	snprintf
  48      E7800000 
  49              	.LVL4:
   9:plant.c       ****   newReading.reading = inReading;
  50              		.loc 1 9 3 is_stmt 1
  10:plant.c       ****   return newReading;
  51              		.loc 1 10 10 is_stmt 0
  52 0022 6C00     		addi	a1,sp,12
  53 0024 2285     		mv	a0,s0
  54 0026 5146     		li	a2,20
   9:plant.c       ****   newReading.reading = inReading;
  55              		.loc 1 9 22
  56 0028 26CE     		sw	s1,28(sp)
  57              		.loc 1 10 3 is_stmt 1
  58              		.loc 1 10 10 is_stmt 0
  59 002a 97000000 		call	memcpy
  59      E7800000 
  60              	.LVL5:
  11:plant.c       **** }
  61              		.loc 1 11 1
  62 0032 2285     		mv	a0,s0
  63 0034 B250     		lw	ra,44(sp)
  64              		.cfi_restore 1
  65 0036 2254     		lw	s0,40(sp)
  66              		.cfi_restore 8
  67              	.LVL6:
  68 0038 9254     		lw	s1,36(sp)
  69              		.cfi_restore 9
  70              	.LVL7:
  71 003a 4561     		addi	sp,sp,48
  72              	.LCFI1:
  73              		.cfi_def_cfa_offset 0
  74 003c 8280     		jr	ra
  75              		.cfi_endproc
  76              	.LFE0:
  78              		.section	.text.initPlant,"ax",@progbits
  79              		.align	1
  80              		.globl	initPlant
  82              	initPlant:
  83              	.LFB1:
  12:plant.c       **** 
  13:plant.c       **** void initPlant(char inName[], int *numberOfPlants, Plant allPlants[])
  14:plant.c       **** {
  84              		.loc 1 14 1 is_stmt 1
  85              		.cfi_startproc
  86              	.LVL8:
  15:plant.c       ****   if (*numberOfPlants > 2)
  87              		.loc 1 15 3
  88              		.loc 1 15 6 is_stmt 0
  89 0000 9841     		lw	a4,0(a1)
  90 0002 8947     		li	a5,2
  91 0004 63C8E708 		bgt	a4,a5,.L7
  14:plant.c       ****   if (*numberOfPlants > 2)
  92              		.loc 1 14 1
  93 0008 1971     		addi	sp,sp,-128
  94              	.LCFI2:
GAS LISTING /var/folders/rt/4gvqv631095f64jvm7jfj_000000gn/T//ccIPxTqM.s 			page 3


  95              		.cfi_def_cfa_offset 128
  96 000a A2DC     		sw	s0,120(sp)
  97              		.cfi_offset 8, -8
  98 000c 2E84     		mv	s0,a1
  16:plant.c       ****     return;
  17:plant.c       ****   Plant newPlant;
  18:plant.c       ****   SensorReading defaultReading = initSensorReading("20250401-1200", 50);
  99              		.loc 1 18 34
 100 000e B7050000 		lui	a1,%hi(.LC1)
 101              	.LVL9:
  14:plant.c       ****   if (*numberOfPlants > 2)
 102              		.loc 1 14 1
 103 0012 A6DA     		sw	s1,116(sp)
 104 0014 2AC6     		sw	a0,12(sp)
  17:plant.c       ****   SensorReading defaultReading = initSensorReading("20250401-1200", 50);
 105              		.loc 1 17 3 is_stmt 1
 106              		.loc 1 18 3
 107              		.cfi_offset 9, -12
 108 0016 B284     		mv	s1,a2
 109              		.loc 1 18 34 is_stmt 0
 110 0018 6808     		addi	a0,sp,28
 111              	.LVL10:
 112 001a 13062003 		li	a2,50
 113              	.LVL11:
 114 001e 93850500 		addi	a1,a1,%lo(.LC1)
  14:plant.c       ****   if (*numberOfPlants > 2)
 115              		.loc 1 14 1
 116 0022 86DE     		sw	ra,124(sp)
 117              		.cfi_offset 1, -4
 118              		.loc 1 18 34
 119 0024 97000000 		call	initSensorReading
 119      E7800000 
 120              	.LVL12:
  19:plant.c       **** 
  20:plant.c       ****   STR_COPY(newPlant.name, inName);
 121              		.loc 1 20 3 is_stmt 1
 122 002c B246     		lw	a3,12(sp)
 123 002e 37060000 		lui	a2,%hi(.LC0)
 124 0032 13060600 		addi	a2,a2,%lo(.LC0)
 125 0036 A945     		li	a1,10
 126 0038 0818     		addi	a0,sp,48
 127 003a 97000000 		call	snprintf
 127      E7800000 
 128              	.LVL13:
  21:plant.c       ****   STR_COPY(newPlant.currentStatus, "OK");
 129              		.loc 1 21 3
 130 0042 B7050000 		lui	a1,%hi(.LC2)
 131 0046 93850500 		addi	a1,a1,%lo(.LC2)
 132 004a C810     		addi	a0,sp,100
 133 004c 97000000 		call	strcpy
 133      E7800000 
 134              	.LVL14:
  22:plant.c       ****   newPlant.moisture = defaultReading;
 135              		.loc 1 22 3
 136              		.loc 1 22 21 is_stmt 0
 137 0054 6C08     		addi	a1,sp,28
 138 0056 5146     		li	a2,20
GAS LISTING /var/folders/rt/4gvqv631095f64jvm7jfj_000000gn/T//ccIPxTqM.s 			page 4


 139 0058 6818     		addi	a0,sp,60
 140 005a 97000000 		call	memcpy
 140      E7800000 
 141              	.LVL15:
  23:plant.c       ****   newPlant.sun = defaultReading;
 142              		.loc 1 23 3 is_stmt 1
 143              		.loc 1 23 16 is_stmt 0
 144 0062 6C08     		addi	a1,sp,28
 145 0064 5146     		li	a2,20
 146 0066 8808     		addi	a0,sp,80
 147 0068 97000000 		call	memcpy
 147      E7800000 
 148              	.LVL16:
  24:plant.c       ****   allPlants[*numberOfPlants] = newPlant;
 149              		.loc 1 24 3 is_stmt 1
 150              		.loc 1 24 12 is_stmt 0
 151 0070 0840     		lw	a0,0(s0)
 152              		.loc 1 24 30
 153 0072 0C18     		addi	a1,sp,48
 154 0074 13060004 		li	a2,64
 155 0078 1A05     		slli	a0,a0,6
 156 007a 2695     		add	a0,s1,a0
 157 007c 97000000 		call	memcpy
 157      E7800000 
 158              	.LVL17:
  25:plant.c       ****   (*numberOfPlants)++;
 159              		.loc 1 25 3 is_stmt 1
 160              		.loc 1 25 20 is_stmt 0
 161 0084 1C40     		lw	a5,0(s0)
  26:plant.c       **** }...
 162              		.loc 1 26 1
 163 0086 F650     		lw	ra,124(sp)
 164              		.cfi_restore 1
 165 0088 D654     		lw	s1,116(sp)
 166              		.cfi_restore 9
 167              	.LVL18:
  25:plant.c       ****   (*numberOfPlants)++;
 168              		.loc 1 25 20
 169 008a 8507     		addi	a5,a5,1
 170 008c 1CC0     		sw	a5,0(s0)
 171              		.loc 1 26 1
 172 008e 6654     		lw	s0,120(sp)
 173              		.cfi_restore 8
 174              	.LVL19:
 175 0090 0961     		addi	sp,sp,128
 176              	.LCFI3:
 177              		.cfi_def_cfa_offset 0
 178              	.LVL20:
 179 0092 8280     		jr	ra
 180              	.LVL21:
 181              	.L7:
 182 0094 8280     		ret
 183              		.cfi_endproc
 184              	.LFE1:
 186              		.section	.rodata.initPlant.str1.4,"aMS",@progbits,1
 187              		.align	2
 188              	.LC1:
GAS LISTING /var/folders/rt/4gvqv631095f64jvm7jfj_000000gn/T//ccIPxTqM.s 			page 5


 189 0000 32303235 		.string	"20250401-1200"
 189      30343031 
 189      2D313230 
 189      3000
 190 000e 0000     		.zero	2
 191              	.LC2:
 192 0010 4F4B00   		.string	"OK"
 193              		.section	.rodata.initSensorReading.str1.4,"aMS",@progbits,1
 194              		.align	2
 195              	.LC0:
 196 0000 257300   		.string	"%s"
 197              		.text
 198              	.Letext0:
 199              		.file 2 "plant.h"
 200              		.file 3 "<built-in>"
GAS LISTING /var/folders/rt/4gvqv631095f64jvm7jfj_000000gn/T//ccIPxTqM.s 			page 6


DEFINED SYMBOLS
                            *ABS*:0000000000000000 plant.c
/var/folders/rt/4gvqv631095f64jvm7jfj_000000gn/T//ccIPxTqM.s:13     .text.initSensorReading:0000000000000000 initSensorReading
/var/folders/rt/4gvqv631095f64jvm7jfj_000000gn/T//ccIPxTqM.s:17     .text.initSensorReading:0000000000000000 .L0 
/var/folders/rt/4gvqv631095f64jvm7jfj_000000gn/T//ccIPxTqM.s:19     .text.initSensorReading:0000000000000000 .L0 
/var/folders/rt/4gvqv631095f64jvm7jfj_000000gn/T//ccIPxTqM.s:20     .text.initSensorReading:0000000000000000 .L0 
/var/folders/rt/4gvqv631095f64jvm7jfj_000000gn/T//ccIPxTqM.s:21     .text.initSensorReading:0000000000000000 .L0 
/var/folders/rt/4gvqv631095f64jvm7jfj_000000gn/T//ccIPxTqM.s:22     .text.initSensorReading:0000000000000000 .L0 
/var/folders/rt/4gvqv631095f64jvm7jfj_000000gn/T//ccIPxTqM.s:24     .text.initSensorReading:0000000000000002 .L0 
/var/folders/rt/4gvqv631095f64jvm7jfj_000000gn/T//ccIPxTqM.s:26     .text.initSensorReading:0000000000000004 .L0 
/var/folders/rt/4gvqv631095f64jvm7jfj_000000gn/T//ccIPxTqM.s:29     .text.initSensorReading:0000000000000006 .L0 
/var/folders/rt/4gvqv631095f64jvm7jfj_000000gn/T//ccIPxTqM.s:32     .text.initSensorReading:000000000000000a .L0 
/var/folders/rt/4gvqv631095f64jvm7jfj_000000gn/T//ccIPxTqM.s:34     .text.initSensorReading:000000000000000c .L0 
/var/folders/rt/4gvqv631095f64jvm7jfj_000000gn/T//ccIPxTqM.s:35     .text.initSensorReading:000000000000000e .L0 
/var/folders/rt/4gvqv631095f64jvm7jfj_000000gn/T//ccIPxTqM.s:37     .text.initSensorReading:000000000000000e .L0 
/var/folders/rt/4gvqv631095f64jvm7jfj_000000gn/T//ccIPxTqM.s:39     .text.initSensorReading:0000000000000010 .L0 
/var/folders/rt/4gvqv631095f64jvm7jfj_000000gn/T//ccIPxTqM.s:45     .text.initSensorReading:0000000000000018 .L0 
/var/folders/rt/4gvqv631095f64jvm7jfj_000000gn/T//ccIPxTqM.s:46     .text.initSensorReading:000000000000001a .L0 
/var/folders/rt/4gvqv631095f64jvm7jfj_000000gn/T//ccIPxTqM.s:48     .text.initSensorReading:000000000000001a .L0 
/var/folders/rt/4gvqv631095f64jvm7jfj_000000gn/T//ccIPxTqM.s:51     .text.initSensorReading:0000000000000022 .L0 
/var/folders/rt/4gvqv631095f64jvm7jfj_000000gn/T//ccIPxTqM.s:52     .text.initSensorReading:0000000000000022 .L0 
/var/folders/rt/4gvqv631095f64jvm7jfj_000000gn/T//ccIPxTqM.s:56     .text.initSensorReading:0000000000000028 .L0 
/var/folders/rt/4gvqv631095f64jvm7jfj_000000gn/T//ccIPxTqM.s:58     .text.initSensorReading:000000000000002a .L0 
/var/folders/rt/4gvqv631095f64jvm7jfj_000000gn/T//ccIPxTqM.s:59     .text.initSensorReading:000000000000002a .L0 
/var/folders/rt/4gvqv631095f64jvm7jfj_000000gn/T//ccIPxTqM.s:62     .text.initSensorReading:0000000000000032 .L0 
/var/folders/rt/4gvqv631095f64jvm7jfj_000000gn/T//ccIPxTqM.s:64     .text.initSensorReading:0000000000000036 .L0 
/var/folders/rt/4gvqv631095f64jvm7jfj_000000gn/T//ccIPxTqM.s:66     .text.initSensorReading:0000000000000038 .L0 
/var/folders/rt/4gvqv631095f64jvm7jfj_000000gn/T//ccIPxTqM.s:69     .text.initSensorReading:000000000000003a .L0 
/var/folders/rt/4gvqv631095f64jvm7jfj_000000gn/T//ccIPxTqM.s:73     .text.initSensorReading:000000000000003c .L0 
/var/folders/rt/4gvqv631095f64jvm7jfj_000000gn/T//ccIPxTqM.s:75     .text.initSensorReading:000000000000003e .L0 
/var/folders/rt/4gvqv631095f64jvm7jfj_000000gn/T//ccIPxTqM.s:82     .text.initPlant:0000000000000000 initPlant
/var/folders/rt/4gvqv631095f64jvm7jfj_000000gn/T//ccIPxTqM.s:85     .text.initPlant:0000000000000000 .L0 
/var/folders/rt/4gvqv631095f64jvm7jfj_000000gn/T//ccIPxTqM.s:87     .text.initPlant:0000000000000000 .L0 
/var/folders/rt/4gvqv631095f64jvm7jfj_000000gn/T//ccIPxTqM.s:88     .text.initPlant:0000000000000000 .L0 
/var/folders/rt/4gvqv631095f64jvm7jfj_000000gn/T//ccIPxTqM.s:89     .text.initPlant:0000000000000000 .L0 
/var/folders/rt/4gvqv631095f64jvm7jfj_000000gn/T//ccIPxTqM.s:93     .text.initPlant:0000000000000008 .L0 
/var/folders/rt/4gvqv631095f64jvm7jfj_000000gn/T//ccIPxTqM.s:95     .text.initPlant:000000000000000a .L0 
/var/folders/rt/4gvqv631095f64jvm7jfj_000000gn/T//ccIPxTqM.s:97     .text.initPlant:000000000000000c .L0 
/var/folders/rt/4gvqv631095f64jvm7jfj_000000gn/T//ccIPxTqM.s:100    .text.initPlant:000000000000000e .L0 
/var/folders/rt/4gvqv631095f64jvm7jfj_000000gn/T//ccIPxTqM.s:103    .text.initPlant:0000000000000012 .L0 
/var/folders/rt/4gvqv631095f64jvm7jfj_000000gn/T//ccIPxTqM.s:106    .text.initPlant:0000000000000016 .L0 
/var/folders/rt/4gvqv631095f64jvm7jfj_000000gn/T//ccIPxTqM.s:107    .text.initPlant:0000000000000016 .L0 
/var/folders/rt/4gvqv631095f64jvm7jfj_000000gn/T//ccIPxTqM.s:108    .text.initPlant:0000000000000016 .L0 
/var/folders/rt/4gvqv631095f64jvm7jfj_000000gn/T//ccIPxTqM.s:110    .text.initPlant:0000000000000018 .L0 
/var/folders/rt/4gvqv631095f64jvm7jfj_000000gn/T//ccIPxTqM.s:116    .text.initPlant:0000000000000022 .L0 
/var/folders/rt/4gvqv631095f64jvm7jfj_000000gn/T//ccIPxTqM.s:117    .text.initPlant:0000000000000024 .L0 
/var/folders/rt/4gvqv631095f64jvm7jfj_000000gn/T//ccIPxTqM.s:119    .text.initPlant:0000000000000024 .L0 
/var/folders/rt/4gvqv631095f64jvm7jfj_000000gn/T//ccIPxTqM.s:122    .text.initPlant:000000000000002c .L0 
/var/folders/rt/4gvqv631095f64jvm7jfj_000000gn/T//ccIPxTqM.s:130    .text.initPlant:0000000000000042 .L0 
/var/folders/rt/4gvqv631095f64jvm7jfj_000000gn/T//ccIPxTqM.s:136    .text.initPlant:0000000000000054 .L0 
/var/folders/rt/4gvqv631095f64jvm7jfj_000000gn/T//ccIPxTqM.s:137    .text.initPlant:0000000000000054 .L0 
/var/folders/rt/4gvqv631095f64jvm7jfj_000000gn/T//ccIPxTqM.s:143    .text.initPlant:0000000000000062 .L0 
/var/folders/rt/4gvqv631095f64jvm7jfj_000000gn/T//ccIPxTqM.s:144    .text.initPlant:0000000000000062 .L0 
/var/folders/rt/4gvqv631095f64jvm7jfj_000000gn/T//ccIPxTqM.s:150    .text.initPlant:0000000000000070 .L0 
/var/folders/rt/4gvqv631095f64jvm7jfj_000000gn/T//ccIPxTqM.s:151    .text.initPlant:0000000000000070 .L0 
/var/folders/rt/4gvqv631095f64jvm7jfj_000000gn/T//ccIPxTqM.s:153    .text.initPlant:0000000000000072 .L0 
/var/folders/rt/4gvqv631095f64jvm7jfj_000000gn/T//ccIPxTqM.s:160    .text.initPlant:0000000000000084 .L0 
GAS LISTING /var/folders/rt/4gvqv631095f64jvm7jfj_000000gn/T//ccIPxTqM.s 			page 7


/var/folders/rt/4gvqv631095f64jvm7jfj_000000gn/T//ccIPxTqM.s:161    .text.initPlant:0000000000000084 .L0 
/var/folders/rt/4gvqv631095f64jvm7jfj_000000gn/T//ccIPxTqM.s:163    .text.initPlant:0000000000000086 .L0 
/var/folders/rt/4gvqv631095f64jvm7jfj_000000gn/T//ccIPxTqM.s:164    .text.initPlant:0000000000000088 .L0 
/var/folders/rt/4gvqv631095f64jvm7jfj_000000gn/T//ccIPxTqM.s:166    .text.initPlant:000000000000008a .L0 
/var/folders/rt/4gvqv631095f64jvm7jfj_000000gn/T//ccIPxTqM.s:169    .text.initPlant:000000000000008a .L0 
/var/folders/rt/4gvqv631095f64jvm7jfj_000000gn/T//ccIPxTqM.s:172    .text.initPlant:000000000000008e .L0 
/var/folders/rt/4gvqv631095f64jvm7jfj_000000gn/T//ccIPxTqM.s:173    .text.initPlant:0000000000000090 .L0 
/var/folders/rt/4gvqv631095f64jvm7jfj_000000gn/T//ccIPxTqM.s:177    .text.initPlant:0000000000000092 .L0 
/var/folders/rt/4gvqv631095f64jvm7jfj_000000gn/T//ccIPxTqM.s:183    .text.initPlant:0000000000000096 .L0 
/var/folders/rt/4gvqv631095f64jvm7jfj_000000gn/T//ccIPxTqM.s:78     .text.initSensorReading:000000000000003e .L0 
/var/folders/rt/4gvqv631095f64jvm7jfj_000000gn/T//ccIPxTqM.s:186    .text.initPlant:0000000000000096 .L0 
                     .debug_frame:0000000000000000 .L0 
/var/folders/rt/4gvqv631095f64jvm7jfj_000000gn/T//ccIPxTqM.s:195    .rodata.initSensorReading.str1.4:0000000000000000 .LC0
/var/folders/rt/4gvqv631095f64jvm7jfj_000000gn/T//ccIPxTqM.s:188    .rodata.initPlant.str1.4:0000000000000000 .LC1
/var/folders/rt/4gvqv631095f64jvm7jfj_000000gn/T//ccIPxTqM.s:191    .rodata.initPlant.str1.4:0000000000000010 .LC2
/var/folders/rt/4gvqv631095f64jvm7jfj_000000gn/T//ccIPxTqM.s:181    .text.initPlant:0000000000000094 .L7
/var/folders/rt/4gvqv631095f64jvm7jfj_000000gn/T//ccIPxTqM.s:661    .debug_abbrev:0000000000000000 .Ldebug_abbrev0
/var/folders/rt/4gvqv631095f64jvm7jfj_000000gn/T//ccIPxTqM.s:1177   .debug_str:00000000000000cc .LASF21
/var/folders/rt/4gvqv631095f64jvm7jfj_000000gn/T//ccIPxTqM.s:1175   .debug_str:00000000000000c4 .LASF22
/var/folders/rt/4gvqv631095f64jvm7jfj_000000gn/T//ccIPxTqM.s:1179   .debug_str:0000000000000154 .LASF23
/var/folders/rt/4gvqv631095f64jvm7jfj_000000gn/T//ccIPxTqM.s:1127   .debug_ranges:0000000000000000 .Ldebug_ranges0
/var/folders/rt/4gvqv631095f64jvm7jfj_000000gn/T//ccIPxTqM.s:1135   .debug_line:0000000000000000 .Ldebug_line0
/var/folders/rt/4gvqv631095f64jvm7jfj_000000gn/T//ccIPxTqM.s:1159   .debug_str:0000000000000070 .LASF0
/var/folders/rt/4gvqv631095f64jvm7jfj_000000gn/T//ccIPxTqM.s:1147   .debug_str:0000000000000040 .LASF1
/var/folders/rt/4gvqv631095f64jvm7jfj_000000gn/T//ccIPxTqM.s:1141   .debug_str:0000000000000018 .LASF2
/var/folders/rt/4gvqv631095f64jvm7jfj_000000gn/T//ccIPxTqM.s:1165   .debug_str:0000000000000092 .LASF3
/var/folders/rt/4gvqv631095f64jvm7jfj_000000gn/T//ccIPxTqM.s:1187   .debug_str:00000000000001bb .LASF7
/var/folders/rt/4gvqv631095f64jvm7jfj_000000gn/T//ccIPxTqM.s:1153   .debug_str:0000000000000059 .LASF4
/var/folders/rt/4gvqv631095f64jvm7jfj_000000gn/T//ccIPxTqM.s:1155   .debug_str:000000000000005e .LASF5
/var/folders/rt/4gvqv631095f64jvm7jfj_000000gn/T//ccIPxTqM.s:1171   .debug_str:00000000000000af .LASF6
/var/folders/rt/4gvqv631095f64jvm7jfj_000000gn/T//ccIPxTqM.s:1161   .debug_str:000000000000007a .LASF8
/var/folders/rt/4gvqv631095f64jvm7jfj_000000gn/T//ccIPxTqM.s:1151   .debug_str:000000000000004f .LASF24
/var/folders/rt/4gvqv631095f64jvm7jfj_000000gn/T//ccIPxTqM.s:83     .text.initPlant:0000000000000000 .LFB1
/var/folders/rt/4gvqv631095f64jvm7jfj_000000gn/T//ccIPxTqM.s:184    .text.initPlant:0000000000000096 .LFE1
/var/folders/rt/4gvqv631095f64jvm7jfj_000000gn/T//ccIPxTqM.s:975    .debug_loc:0000000000000000 .LLST3
/var/folders/rt/4gvqv631095f64jvm7jfj_000000gn/T//ccIPxTqM.s:1149   .debug_str:0000000000000048 .LASF9
/var/folders/rt/4gvqv631095f64jvm7jfj_000000gn/T//ccIPxTqM.s:993    .debug_loc:000000000000002d .LLST4
/var/folders/rt/4gvqv631095f64jvm7jfj_000000gn/T//ccIPxTqM.s:1169   .debug_str:00000000000000a0 .LASF10
/var/folders/rt/4gvqv631095f64jvm7jfj_000000gn/T//ccIPxTqM.s:1014   .debug_loc:0000000000000065 .LLST5
/var/folders/rt/4gvqv631095f64jvm7jfj_000000gn/T//ccIPxTqM.s:1143   .debug_str:0000000000000025 .LASF11
/var/folders/rt/4gvqv631095f64jvm7jfj_000000gn/T//ccIPxTqM.s:1036   .debug_loc:000000000000009c .LLST6
/var/folders/rt/4gvqv631095f64jvm7jfj_000000gn/T//ccIPxTqM.s:1167   .debug_str:0000000000000097 .LASF12
/var/folders/rt/4gvqv631095f64jvm7jfj_000000gn/T//ccIPxTqM.s:1185   .debug_str:00000000000001ac .LASF13
/var/folders/rt/4gvqv631095f64jvm7jfj_000000gn/T//ccIPxTqM.s:1157   .debug_str:0000000000000067 .LASF16
/var/folders/rt/4gvqv631095f64jvm7jfj_000000gn/T//ccIPxTqM.s:120    .text.initPlant:000000000000002c .LVL12
/var/folders/rt/4gvqv631095f64jvm7jfj_000000gn/T//ccIPxTqM.s:128    .text.initPlant:0000000000000042 .LVL13
/var/folders/rt/4gvqv631095f64jvm7jfj_000000gn/T//ccIPxTqM.s:134    .text.initPlant:0000000000000054 .LVL14
/var/folders/rt/4gvqv631095f64jvm7jfj_000000gn/T//ccIPxTqM.s:141    .text.initPlant:0000000000000062 .LVL15
/var/folders/rt/4gvqv631095f64jvm7jfj_000000gn/T//ccIPxTqM.s:148    .text.initPlant:0000000000000070 .LVL16
/var/folders/rt/4gvqv631095f64jvm7jfj_000000gn/T//ccIPxTqM.s:158    .text.initPlant:0000000000000084 .LVL17
/var/folders/rt/4gvqv631095f64jvm7jfj_000000gn/T//ccIPxTqM.s:1163   .debug_str:0000000000000080 .LASF25
/var/folders/rt/4gvqv631095f64jvm7jfj_000000gn/T//ccIPxTqM.s:14     .text.initSensorReading:0000000000000000 .LFB0
/var/folders/rt/4gvqv631095f64jvm7jfj_000000gn/T//ccIPxTqM.s:76     .text.initSensorReading:000000000000003e .LFE0
/var/folders/rt/4gvqv631095f64jvm7jfj_000000gn/T//ccIPxTqM.s:1058   .debug_loc:00000000000000d3 .LLST0
/var/folders/rt/4gvqv631095f64jvm7jfj_000000gn/T//ccIPxTqM.s:1076   .debug_loc:00000000000000ff .LLST1
/var/folders/rt/4gvqv631095f64jvm7jfj_000000gn/T//ccIPxTqM.s:1183   .debug_str:00000000000001a2 .LASF14
/var/folders/rt/4gvqv631095f64jvm7jfj_000000gn/T//ccIPxTqM.s:1094   .debug_loc:000000000000012b .LLST2
GAS LISTING /var/folders/rt/4gvqv631095f64jvm7jfj_000000gn/T//ccIPxTqM.s 			page 8


/var/folders/rt/4gvqv631095f64jvm7jfj_000000gn/T//ccIPxTqM.s:1181   .debug_str:0000000000000197 .LASF15
/var/folders/rt/4gvqv631095f64jvm7jfj_000000gn/T//ccIPxTqM.s:49     .text.initSensorReading:0000000000000022 .LVL4
/var/folders/rt/4gvqv631095f64jvm7jfj_000000gn/T//ccIPxTqM.s:60     .text.initSensorReading:0000000000000032 .LVL5
/var/folders/rt/4gvqv631095f64jvm7jfj_000000gn/T//ccIPxTqM.s:1137   .debug_str:0000000000000000 .LASF17
/var/folders/rt/4gvqv631095f64jvm7jfj_000000gn/T//ccIPxTqM.s:1145   .debug_str:000000000000002f .LASF18
/var/folders/rt/4gvqv631095f64jvm7jfj_000000gn/T//ccIPxTqM.s:1173   .debug_str:00000000000000bd .LASF19
/var/folders/rt/4gvqv631095f64jvm7jfj_000000gn/T//ccIPxTqM.s:1139   .debug_str:0000000000000007 .LASF20
/var/folders/rt/4gvqv631095f64jvm7jfj_000000gn/T//ccIPxTqM.s:94     .text.initPlant:000000000000000a .LCFI2
/var/folders/rt/4gvqv631095f64jvm7jfj_000000gn/T//ccIPxTqM.s:176    .text.initPlant:0000000000000092 .LCFI3
/var/folders/rt/4gvqv631095f64jvm7jfj_000000gn/T//ccIPxTqM.s:86     .text.initPlant:0000000000000000 .LVL8
/var/folders/rt/4gvqv631095f64jvm7jfj_000000gn/T//ccIPxTqM.s:111    .text.initPlant:000000000000001a .LVL10
/var/folders/rt/4gvqv631095f64jvm7jfj_000000gn/T//ccIPxTqM.s:178    .text.initPlant:0000000000000092 .LVL20
/var/folders/rt/4gvqv631095f64jvm7jfj_000000gn/T//ccIPxTqM.s:180    .text.initPlant:0000000000000094 .LVL21
/var/folders/rt/4gvqv631095f64jvm7jfj_000000gn/T//ccIPxTqM.s:101    .text.initPlant:0000000000000012 .LVL9
/var/folders/rt/4gvqv631095f64jvm7jfj_000000gn/T//ccIPxTqM.s:174    .text.initPlant:0000000000000090 .LVL19
/var/folders/rt/4gvqv631095f64jvm7jfj_000000gn/T//ccIPxTqM.s:113    .text.initPlant:000000000000001e .LVL11
/var/folders/rt/4gvqv631095f64jvm7jfj_000000gn/T//ccIPxTqM.s:167    .text.initPlant:000000000000008a .LVL18
/var/folders/rt/4gvqv631095f64jvm7jfj_000000gn/T//ccIPxTqM.s:23     .text.initSensorReading:0000000000000002 .LCFI0
/var/folders/rt/4gvqv631095f64jvm7jfj_000000gn/T//ccIPxTqM.s:72     .text.initSensorReading:000000000000003c .LCFI1
/var/folders/rt/4gvqv631095f64jvm7jfj_000000gn/T//ccIPxTqM.s:18     .text.initSensorReading:0000000000000000 .LVL0
/var/folders/rt/4gvqv631095f64jvm7jfj_000000gn/T//ccIPxTqM.s:41     .text.initSensorReading:0000000000000016 .LVL2
/var/folders/rt/4gvqv631095f64jvm7jfj_000000gn/T//ccIPxTqM.s:30     .text.initSensorReading:000000000000000a .LVL1
/var/folders/rt/4gvqv631095f64jvm7jfj_000000gn/T//ccIPxTqM.s:70     .text.initSensorReading:000000000000003a .LVL7
/var/folders/rt/4gvqv631095f64jvm7jfj_000000gn/T//ccIPxTqM.s:202    .debug_info:0000000000000000 .Ldebug_info0

UNDEFINED SYMBOLS
snprintf
memcpy
strcpy
