GAS LISTING /var/folders/rt/4gvqv631095f64jvm7jfj_000000gn/T//cc7GTxSc.s 			page 1


   1              		.file	"plant.c"
   2              		.option nopic
   3              		.attribute arch, "rv32i2p0_m2p0_a2p0_c2p0"
   4              		.attribute unaligned_access, 0
   5              		.attribute stack_align, 16
   6              		.text
   7              	.Ltext0:
   8              		.cfi_sections	.debug_frame
   9              		.section	.text.initSensorReading,"ax",@progbits
  10              		.align	1
  11              		.globl	initSensorReading
  13              	initSensorReading:
  14              	.LFB5:
  15              		.file 1 "plant.c"
   1:plant.c       **** #include "plant.h"
   2:plant.c       **** #include <stdio.h>
   3:plant.c       **** #include "lcd.h"
   4:plant.c       **** #include "adc.h"
   5:plant.c       **** #include "gd32vf103.h"
   6:plant.c       **** #define STR_COPY(dest, src) \
   7:plant.c       ****   snprintf(dest, sizeof(dest), "%s", src) // AI. STR_COPY är en genväg för snprintf som i sin tu
   8:plant.c       **** 
   9:plant.c       **** SensorReading initSensorReading(int newTimeStamp, int inReading)
  10:plant.c       **** {
  16              		.loc 1 10 1
  17              		.cfi_startproc
  18              	.LVL0:
  11:plant.c       ****   SensorReading newReading;
  19              		.loc 1 11 3
  12:plant.c       ****   newReading.timeStamp = newTimeStamp;
  20              		.loc 1 12 3
  13:plant.c       ****   newReading.reading = inReading;
  21              		.loc 1 13 3
  14:plant.c       ****   return newReading;
  22              		.loc 1 14 3
  10:plant.c       ****   SensorReading newReading;
  23              		.loc 1 10 1 is_stmt 0
  24 0000 4111     		addi	sp,sp,-16
  25              	.LCFI0:
  26              		.cfi_def_cfa_offset 16
  15:plant.c       **** }
  27              		.loc 1 15 1
  28 0002 4101     		addi	sp,sp,16
  29              	.LCFI1:
  30              		.cfi_def_cfa_offset 0
  31 0004 8280     		jr	ra
  32              		.cfi_endproc
  33              	.LFE5:
  35              		.section	.text.initPlant,"ax",@progbits
  36              		.align	1
  37              		.globl	initPlant
  39              	initPlant:
  40              	.LFB6:
  16:plant.c       **** 
  17:plant.c       **** void initPlant(char inName[], int *numberOfPlants, Plant allPlants[],
  18:plant.c       ****                int idealMoist, int lowMoist, int highMoist,
  19:plant.c       ****                int idealSun, int lowSun, int highSun,
GAS LISTING /var/folders/rt/4gvqv631095f64jvm7jfj_000000gn/T//cc7GTxSc.s 			page 2


  20:plant.c       ****                int idealTemp, int lowTemp, int highTemp)
  21:plant.c       **** {
  41              		.loc 1 21 1 is_stmt 1
  42              		.cfi_startproc
  43              	.LVL1:
  22:plant.c       ****   if (*numberOfPlants > 2)
  44              		.loc 1 22 3
  45              		.loc 1 22 6 is_stmt 0
  46 0000 03AE0500 		lw	t3,0(a1)
  47 0004 0943     		li	t1,2
  48 0006 6342C313 		bgt	t3,t1,.L7
  21:plant.c       ****   if (*numberOfPlants > 2)
  49              		.loc 1 21 1
  50 000a 130101B1 		addi	sp,sp,-1264
  51              	.LCFI2:
  52              		.cfi_def_cfa_offset 1264
  53 000e 2322914E 		sw	s1,1252(sp)
  54              		.cfi_offset 9, -12
  55 0012 B284     		mv	s1,a2
  23:plant.c       ****     return;
  24:plant.c       ****   Plant newPlant;
  25:plant.c       ****   SensorReading defaultReading = initSensorReading(0, 0);
  26:plant.c       **** 
  27:plant.c       ****   STR_COPY(newPlant.name, inName);
  56              		.loc 1 27 3
  57 0014 37060000 		lui	a2,%hi(.LC0)
  58              	.LVL2:
  21:plant.c       ****   if (*numberOfPlants > 2)
  59              		.loc 1 21 1
  60 0018 2324814E 		sw	s0,1256(sp)
  61 001c 2328614D 		sw	s6,1232(sp)
  62              		.cfi_offset 8, -8
  63              		.cfi_offset 22, -32
  64 0020 2E84     		mv	s0,a1
  65 0022 368B     		mv	s6,a3
  66              		.loc 1 27 3
  67 0024 13060600 		addi	a2,a2,%lo(.LC0)
  68 0028 AA86     		mv	a3,a0
  69              	.LVL3:
  24:plant.c       ****   SensorReading defaultReading = initSensorReading(0, 0);
  70              		.loc 1 24 3 is_stmt 1
  25:plant.c       **** 
  71              		.loc 1 25 3
  11:plant.c       ****   newReading.timeStamp = newTimeStamp;
  72              		.loc 1 11 3
  12:plant.c       ****   newReading.reading = inReading;
  73              		.loc 1 12 3
  13:plant.c       ****   return newReading;
  74              		.loc 1 13 3
  14:plant.c       **** }
  75              		.loc 1 14 3
  76              		.loc 1 27 3
  77 002a BD45     		li	a1,15
  78              	.LVL4:
  79 002c 0A85     		mv	a0,sp
  80              	.LVL5:
  21:plant.c       ****   if (*numberOfPlants > 2)
GAS LISTING /var/folders/rt/4gvqv631095f64jvm7jfj_000000gn/T//cc7GTxSc.s 			page 3


  81              		.loc 1 21 1 is_stmt 0
  82 002e 2326114E 		sw	ra,1260(sp)
  83 0032 2320214F 		sw	s2,1248(sp)
  84 0036 232E314D 		sw	s3,1244(sp)
  85 003a 232C414D 		sw	s4,1240(sp)
  86 003e 232A514D 		sw	s5,1236(sp)
  87              		.cfi_offset 1, -4
  88              		.cfi_offset 18, -16
  89              		.cfi_offset 19, -20
  90              		.cfi_offset 20, -24
  91              		.cfi_offset 21, -28
  92 0042 4689     		mv	s2,a7
  93 0044 C289     		mv	s3,a6
  94 0046 3E8A     		mv	s4,a5
  95 0048 BA8A     		mv	s5,a4
  96              		.loc 1 27 3
  97 004a 97000000 		call	snprintf
  97      E7800000 
  98              	.LVL6:
  28:plant.c       ****   STR_COPY(newPlant.currentStatus, "OK");
  99              		.loc 1 28 3 is_stmt 1
 100 0052 B7050000 		lui	a1,%hi(.LC1)
 101 0056 93850500 		addi	a1,a1,%lo(.LC1)
 102 005a 1305F100 		addi	a0,sp,15
 103 005e 97000000 		call	strcpy
 103      E7800000 
 104              	.LVL7:
  29:plant.c       **** 
  30:plant.c       ****   newPlant.moisture[0] = defaultReading;
 105              		.loc 1 30 3
  31:plant.c       ****   newPlant.sun[0] = defaultReading;
  32:plant.c       ****   newPlant.temp[0] = defaultReading;
  33:plant.c       ****   newPlant.numberOfMoistureReadings = 1;
  34:plant.c       ****   newPlant.numberOfSunReadings = 1;
  35:plant.c       ****   newPlant.numberOfTempReadings = 1;
  36:plant.c       **** 
  37:plant.c       ****   newPlant.moistHistory[0] = 0;
  38:plant.c       ****   newPlant.sunHistory[0] = 0;
  39:plant.c       ****   newPlant.tempHistory[0] = 0;
  40:plant.c       ****   newPlant.numberOfMoistureHistory = 1;
  41:plant.c       ****   newPlant.numberOfSunHistory = 1;
  42:plant.c       ****   newPlant.numberOfTempHistory = 1;
  43:plant.c       **** 
  44:plant.c       ****   newPlant.moistInterval = 1800;
 106              		.loc 1 44 26 is_stmt 0
 107 0066 93078070 		li	a5,1800
 108 006a 2320F14A 		sw	a5,1184(sp)
  45:plant.c       ****   newPlant.sunInterval = 60;
  46:plant.c       ****   newPlant.tempInterval = 1800;
 109              		.loc 1 46 25
 110 006e 2324F14A 		sw	a5,1192(sp)
  47:plant.c       **** 
  48:plant.c       ****   newPlant.idealMoist = idealMoist;
  49:plant.c       ****   newPlant.lowMoist = lowMoist;
  50:plant.c       ****   newPlant.highMoist = highMoist;
  51:plant.c       **** 
  52:plant.c       ****   newPlant.idealSun = idealSun;
GAS LISTING /var/folders/rt/4gvqv631095f64jvm7jfj_000000gn/T//cc7GTxSc.s 			page 4


  53:plant.c       ****   newPlant.lowSun = lowSun;
  54:plant.c       ****   newPlant.highSun = highSun;
 111              		.loc 1 54 20
 112 0072 8327014F 		lw	a5,1264(sp)
  55:plant.c       **** 
  56:plant.c       ****   newPlant.idealTemp = idealTemp;
  57:plant.c       ****   newPlant.lowTemp = lowTemp;
  58:plant.c       ****   newPlant.highTemp = highTemp;
  59:plant.c       **** 
  60:plant.c       ****   allPlants[*numberOfPlants] = newPlant;
 113              		.loc 1 60 12
 114 0076 0840     		lw	a0,0(s0)
  33:plant.c       ****   newPlant.numberOfSunReadings = 1;
 115              		.loc 1 33 37
 116 0078 8545     		li	a1,1
  54:plant.c       **** 
 117              		.loc 1 54 20
 118 007a 2324F14C 		sw	a5,1224(sp)
  56:plant.c       ****   newPlant.lowTemp = lowTemp;
 119              		.loc 1 56 22
 120 007e 8327414F 		lw	a5,1268(sp)
  33:plant.c       ****   newPlant.numberOfSunReadings = 1;
 121              		.loc 1 33 37
 122 0082 2320B132 		sw	a1,800(sp)
  34:plant.c       ****   newPlant.numberOfTempReadings = 1;
 123              		.loc 1 34 32
 124 0086 2322B132 		sw	a1,804(sp)
  56:plant.c       ****   newPlant.lowTemp = lowTemp;
 125              		.loc 1 56 22
 126 008a 232AF14A 		sw	a5,1204(sp)
  57:plant.c       ****   newPlant.highTemp = highTemp;
 127              		.loc 1 57 20
 128 008e 8327814F 		lw	a5,1272(sp)
  35:plant.c       **** 
 129              		.loc 1 35 33
 130 0092 2324B132 		sw	a1,808(sp)
  40:plant.c       ****   newPlant.numberOfSunHistory = 1;
 131              		.loc 1 40 36
 132 0096 232AB148 		sw	a1,1172(sp)
  57:plant.c       ****   newPlant.highTemp = highTemp;
 133              		.loc 1 57 20
 134 009a 2320F14C 		sw	a5,1216(sp)
  58:plant.c       **** 
 135              		.loc 1 58 21
 136 009e 8327C14F 		lw	a5,1276(sp)
  41:plant.c       ****   newPlant.numberOfTempHistory = 1;
 137              		.loc 1 41 31
 138 00a2 232CB148 		sw	a1,1176(sp)
  42:plant.c       **** 
 139              		.loc 1 42 32
 140 00a6 232EB148 		sw	a1,1180(sp)
  58:plant.c       **** 
 141              		.loc 1 58 21
 142 00aa 2326F14C 		sw	a5,1228(sp)
 143              		.loc 1 60 30
 144 00ae 9307004D 		li	a5,1232
 145 00b2 3305F502 		mul	a0,a0,a5
GAS LISTING /var/folders/rt/4gvqv631095f64jvm7jfj_000000gn/T//cc7GTxSc.s 			page 5


  45:plant.c       ****   newPlant.tempInterval = 1800;
 146              		.loc 1 45 24
 147 00b6 1307C003 		li	a4,60
 148              		.loc 1 60 30
 149 00ba 8A85     		mv	a1,sp
 150 00bc 1306004D 		li	a2,1232
  48:plant.c       ****   newPlant.lowMoist = lowMoist;
 151              		.loc 1 48 23
 152 00c0 2326614B 		sw	s6,1196(sp)
  49:plant.c       ****   newPlant.highMoist = highMoist;
 153              		.loc 1 49 21
 154 00c4 232C514B 		sw	s5,1208(sp)
  50:plant.c       **** 
 155              		.loc 1 50 22
 156 00c8 2322414D 		sw	s4,1220(sp)
  52:plant.c       ****   newPlant.lowSun = lowSun;
 157              		.loc 1 52 21
 158 00cc 2328314B 		sw	s3,1200(sp)
  53:plant.c       ****   newPlant.highSun = highSun;
 159              		.loc 1 53 19
 160 00d0 232E214B 		sw	s2,1212(sp)
  30:plant.c       ****   newPlant.sun[0] = defaultReading;
 161              		.loc 1 30 24
 162 00d4 02D0     		sw	zero,32(sp)
 163              		.loc 1 60 30
 164 00d6 2695     		add	a0,s1,a0
  30:plant.c       ****   newPlant.sun[0] = defaultReading;
 165              		.loc 1 30 24
 166 00d8 02D2     		sw	zero,36(sp)
  31:plant.c       ****   newPlant.temp[0] = defaultReading;
 167              		.loc 1 31 3 is_stmt 1
  31:plant.c       ****   newPlant.temp[0] = defaultReading;
 168              		.loc 1 31 19 is_stmt 0
 169 00da 82D1     		sw	zero,224(sp)
 170 00dc 82D3     		sw	zero,228(sp)
  32:plant.c       ****   newPlant.numberOfMoistureReadings = 1;
 171              		.loc 1 32 3 is_stmt 1
  32:plant.c       ****   newPlant.numberOfMoistureReadings = 1;
 172              		.loc 1 32 20 is_stmt 0
 173 00de 23200126 		sw	zero,608(sp)
 174 00e2 23220126 		sw	zero,612(sp)
  33:plant.c       ****   newPlant.numberOfSunReadings = 1;
 175              		.loc 1 33 3 is_stmt 1
  34:plant.c       ****   newPlant.numberOfTempReadings = 1;
 176              		.loc 1 34 3
  35:plant.c       **** 
 177              		.loc 1 35 3
  37:plant.c       ****   newPlant.sunHistory[0] = 0;
 178              		.loc 1 37 3
  37:plant.c       ****   newPlant.sunHistory[0] = 0;
 179              		.loc 1 37 28 is_stmt 0
 180 00e6 23260132 		sw	zero,812(sp)
  38:plant.c       ****   newPlant.tempHistory[0] = 0;
 181              		.loc 1 38 3 is_stmt 1
  38:plant.c       ****   newPlant.tempHistory[0] = 0;
 182              		.loc 1 38 26 is_stmt 0
 183 00ea 2322013A 		sw	zero,932(sp)
GAS LISTING /var/folders/rt/4gvqv631095f64jvm7jfj_000000gn/T//cc7GTxSc.s 			page 6


  39:plant.c       ****   newPlant.numberOfMoistureHistory = 1;
 184              		.loc 1 39 3 is_stmt 1
  39:plant.c       ****   newPlant.numberOfMoistureHistory = 1;
 185              		.loc 1 39 27 is_stmt 0
 186 00ee 232E0140 		sw	zero,1052(sp)
  40:plant.c       ****   newPlant.numberOfSunHistory = 1;
 187              		.loc 1 40 3 is_stmt 1
  41:plant.c       ****   newPlant.numberOfTempHistory = 1;
 188              		.loc 1 41 3
  42:plant.c       **** 
 189              		.loc 1 42 3
  44:plant.c       ****   newPlant.sunInterval = 60;
 190              		.loc 1 44 3
  45:plant.c       ****   newPlant.tempInterval = 1800;
 191              		.loc 1 45 3
  45:plant.c       ****   newPlant.tempInterval = 1800;
 192              		.loc 1 45 24 is_stmt 0
 193 00f2 2322E14A 		sw	a4,1188(sp)
  46:plant.c       **** 
 194              		.loc 1 46 3 is_stmt 1
  48:plant.c       ****   newPlant.lowMoist = lowMoist;
 195              		.loc 1 48 3
  49:plant.c       ****   newPlant.highMoist = highMoist;
 196              		.loc 1 49 3
  50:plant.c       **** 
 197              		.loc 1 50 3
  52:plant.c       ****   newPlant.lowSun = lowSun;
 198              		.loc 1 52 3
  53:plant.c       ****   newPlant.highSun = highSun;
 199              		.loc 1 53 3
  54:plant.c       **** 
 200              		.loc 1 54 3
  56:plant.c       ****   newPlant.lowTemp = lowTemp;
 201              		.loc 1 56 3
  57:plant.c       ****   newPlant.highTemp = highTemp;
 202              		.loc 1 57 3
  58:plant.c       **** 
 203              		.loc 1 58 3
 204              		.loc 1 60 3
 205              		.loc 1 60 30 is_stmt 0
 206 00f6 97000000 		call	memcpy
 206      E7800000 
 207              	.LVL8:
  61:plant.c       ****   (*numberOfPlants)++;
 208              		.loc 1 61 3 is_stmt 1
 209              		.loc 1 61 20 is_stmt 0
 210 00fe 1C40     		lw	a5,0(s0)
  62:plant.c       **** }
 211              		.loc 1 62 1
 212 0100 8320C14E 		lw	ra,1260(sp)
 213              		.cfi_restore 1
 214 0104 8324414E 		lw	s1,1252(sp)
 215              		.cfi_restore 9
 216              	.LVL9:
  61:plant.c       ****   (*numberOfPlants)++;
 217              		.loc 1 61 20
 218 0108 8507     		addi	a5,a5,1
GAS LISTING /var/folders/rt/4gvqv631095f64jvm7jfj_000000gn/T//cc7GTxSc.s 			page 7


 219 010a 1CC0     		sw	a5,0(s0)
 220              	.LVL10:
 221              		.loc 1 62 1
 222 010c 0324814E 		lw	s0,1256(sp)
 223              		.cfi_restore 8
 224              	.LVL11:
 225 0110 0329014E 		lw	s2,1248(sp)
 226              		.cfi_restore 18
 227              	.LVL12:
 228 0114 8329C14D 		lw	s3,1244(sp)
 229              		.cfi_restore 19
 230              	.LVL13:
 231 0118 032A814D 		lw	s4,1240(sp)
 232              		.cfi_restore 20
 233              	.LVL14:
 234 011c 832A414D 		lw	s5,1236(sp)
 235              		.cfi_restore 21
 236              	.LVL15:
 237 0120 032B014D 		lw	s6,1232(sp)
 238              		.cfi_restore 22
 239              	.LVL16:
 240 0124 1301014F 		addi	sp,sp,1264
 241              	.LCFI3:
 242              		.cfi_def_cfa_offset 0
 243              	.LVL17:
 244 0128 8280     		jr	ra
 245              	.LVL18:
 246              	.L7:
 247 012a 8280     		ret
 248              		.cfi_endproc
 249              	.LFE6:
 251              		.section	.text.updatePlantStatus,"ax",@progbits
 252              		.align	1
 253              		.globl	updatePlantStatus
 255              	updatePlantStatus:
 256              	.LFB8:
  63:plant.c       **** 
  64:plant.c       **** // plantID används inte förräns vi löst MUX osv. När det är gjort kommer värdet vidarebefodr
  65:plant.c       **** void updatePlantReadings(Plant *plant, SensorType type, int plantID)
  66:plant.c       **** {
  67:plant.c       ****   if (type == SUN)
  68:plant.c       ****   {
  69:plant.c       ****     //int currentValue = readLightSensor(ADC0, ADC_FLAG_EOC);
  70:plant.c       ****     int currentValue = ADC_read(3);
  71:plant.c       ****     if (currentValue < 0)
  72:plant.c       ****       currentValue = 0;
  73:plant.c       ****     if (plant->numberOfSunReadings <= MAX_SUN_READINGS)
  74:plant.c       ****     {
  75:plant.c       ****       // vi ska ta averagevärde för sol för att undvika för många värden. delar på 30 efters
  76:plant.c       ****       // och vi vill uppnå ett värde som representerar hela minutens genomsnitt. Detta är dock p
  77:plant.c       ****       plant->sun[plant->numberOfSunReadings - 1].reading += currentValue / 30;
  78:plant.c       ****       int32_t currentTime = rtc_counter_get();
  79:plant.c       ****       plant->sun[plant->numberOfSunReadings - 1].timeStamp = currentTime;
  80:plant.c       ****       // Special för ljus. Om detta är första värdet som tas så har vi precis bootat. Isåfall
  81:plant.c       ****       if (plant->numberOfSunReadings == 1)
  82:plant.c       ****       {
  83:plant.c       ****         if (currentTime >= 1800)
GAS LISTING /var/folders/rt/4gvqv631095f64jvm7jfj_000000gn/T//cc7GTxSc.s 			page 8


  84:plant.c       ****           (plant->numberOfSunReadings)++;
  85:plant.c       ****       }
  86:plant.c       ****       // Om det inte är första värdet så kan vi bara jämföra med timeStampen innan
  87:plant.c       ****       else if (plant->sun[plant->numberOfSunReadings - 1].timeStamp - plant->sun[plant->numberOfSun
  88:plant.c       ****         (plant->numberOfSunReadings)++;
  89:plant.c       ****     }
  90:plant.c       **** 
  91:plant.c       ****     if (plant->numberOfSunReadings == MAX_SUN_READINGS)
  92:plant.c       ****     {
  93:plant.c       ****       // Dags för reset: 48 värden för dygnet har uppnåtts.
  94:plant.c       ****       int averageValueThisDay = 0;
  95:plant.c       ****       for (int i = 0; i < MAX_SUN_READINGS; i++)
  96:plant.c       ****       {
  97:plant.c       ****         averageValueThisDay += plant->sun[i].reading;
  98:plant.c       ****       }
  99:plant.c       ****       plant->numberOfSunReadings = 1;
 100:plant.c       **** 
 101:plant.c       ****       averageValueThisDay /= MAX_SUN_READINGS;
 102:plant.c       ****       // Flytta nuvarande värden så att senaste värde ligger först
 103:plant.c       ****       for (int i = AVG_HISTORY_DAYS-1; i > 0; i--)
 104:plant.c       ****       {
 105:plant.c       ****         plant->sunHistory[i] = plant->sunHistory[i - 1];
 106:plant.c       ****       }
 107:plant.c       ****       plant->sunHistory[0] = averageValueThisDay;
 108:plant.c       ****       // Öka antal sparade värden om de inte redan är max
 109:plant.c       ****       if (plant->numberOfSunHistory < AVG_HISTORY_DAYS)
 110:plant.c       ****         (plant->numberOfSunHistory)++;
 111:plant.c       ****     }
 112:plant.c       ****   }
 113:plant.c       ****    // SE KOMMENTARER FÖR SOL-SENSOR OVAN FÖR BESKRIVNING - SNARLIK PROCEDUR!
 114:plant.c       ****   else if (type == MOISTURE)
 115:plant.c       ****   {
 116:plant.c       ****     int currentValue = (int) ADC_read(1);
 117:plant.c       ****     if (currentValue < 0)
 118:plant.c       ****       currentValue = 0;
 119:plant.c       ****  
 120:plant.c       ****       if (plant->numberOfMoistureReadings <= MAX_MOISTURE_READINGS)
 121:plant.c       ****     {
 122:plant.c       ****       plant->moisture[plant->numberOfMoistureReadings - 1].reading = currentValue;
 123:plant.c       ****       int32_t currentTime = rtc_counter_get();
 124:plant.c       ****       plant->moisture[plant->numberOfMoistureReadings - 1].timeStamp = currentTime;
 125:plant.c       ****     }
 126:plant.c       **** 
 127:plant.c       ****     if (plant->numberOfMoistureReadings == MAX_MOISTURE_READINGS)
 128:plant.c       ****     {
 129:plant.c       ****       int averageValueThisDay = 0;
 130:plant.c       ****       for (int i = 0; i < MAX_MOISTURE_READINGS; i++)
 131:plant.c       ****       {
 132:plant.c       ****         averageValueThisDay += plant->moisture[i].reading;
 133:plant.c       ****       }
 134:plant.c       ****       plant->numberOfMoistureReadings = 1;
 135:plant.c       ****       averageValueThisDay /= MAX_MOISTURE_READINGS;
 136:plant.c       ****       for (int i = AVG_HISTORY_DAYS -1; i > 0; i--)
 137:plant.c       ****       {
 138:plant.c       ****         plant->moistHistory[i] = plant->moistHistory[i - 1];
 139:plant.c       ****       }
 140:plant.c       ****       plant->moistHistory[0] = averageValueThisDay;
GAS LISTING /var/folders/rt/4gvqv631095f64jvm7jfj_000000gn/T//cc7GTxSc.s 			page 9


 141:plant.c       ****       if (plant->numberOfMoistureHistory < AVG_HISTORY_DAYS)
 142:plant.c       ****         (plant->numberOfMoistureHistory)++;
 143:plant.c       ****     }
 144:plant.c       ****   }
 145:plant.c       ****   else if (type == TEMPERATURE)
 146:plant.c       ****   {
 147:plant.c       ****     int currentValue = (int) read_temp();
 148:plant.c       ****     if (currentValue < 0)
 149:plant.c       ****       currentValue = 0;
 150:plant.c       **** 
 151:plant.c       ****     if (plant->numberOfTempReadings <= MAX_TEMP_READINGS)
 152:plant.c       ****     {
 153:plant.c       ****       plant->temp[plant->numberOfTempReadings - 1].reading = currentValue;
 154:plant.c       ****       int32_t currentTime = rtc_counter_get();
 155:plant.c       ****       plant->temp[plant->numberOfTempReadings - 1].timeStamp = currentTime;
 156:plant.c       ****     }
 157:plant.c       **** 
 158:plant.c       ****     if (plant->numberOfTempReadings == MAX_TEMP_READINGS)
 159:plant.c       ****     {
 160:plant.c       ****       int averageValueThisDay = 0;
 161:plant.c       ****       for (int i = 0; i < MAX_TEMP_READINGS; i++)
 162:plant.c       ****       {
 163:plant.c       ****         averageValueThisDay += plant->temp[i].reading;
 164:plant.c       ****       }
 165:plant.c       ****       plant->numberOfTempReadings = 1;
 166:plant.c       ****       averageValueThisDay /= MAX_TEMP_READINGS;
 167:plant.c       ****       for (int i = AVG_HISTORY_DAYS -1; i > 0; i--)
 168:plant.c       ****       {
 169:plant.c       ****         plant->tempHistory[i] = plant->tempHistory[i - 1];
 170:plant.c       ****       }
 171:plant.c       ****       plant->tempHistory[0] = averageValueThisDay;
 172:plant.c       ****       if (plant->numberOfTempHistory < AVG_HISTORY_DAYS)
 173:plant.c       ****         (plant->numberOfTempHistory)++;
 174:plant.c       ****     }
 175:plant.c       ****   }
 176:plant.c       ****   updatePlantStatus(plant);
 177:plant.c       **** }
 178:plant.c       **** 
 179:plant.c       **** void updatePlantStatus(Plant *plant)
 180:plant.c       **** {
 257              		.loc 1 180 1 is_stmt 1
 258              		.cfi_startproc
 259              	.LVL19:
 181:plant.c       ****   if (plant->sun[plant->numberOfSunReadings - 1].reading > plant->highSun)
 260              		.loc 1 181 3
 261              		.loc 1 181 49 is_stmt 0
 262 0000 83274532 		lw	a5,804(a0)
 263              		.loc 1 181 6
 264 0004 0327854C 		lw	a4,1224(a0)
 265              		.loc 1 181 49
 266 0008 ED07     		addi	a5,a5,27
 267 000a 8E07     		slli	a5,a5,3
 268 000c AA97     		add	a5,a0,a5
 269 000e DC43     		lw	a5,4(a5)
 270              		.loc 1 181 6
 271 0010 6350F702 		ble	a5,a4,.L11
 182:plant.c       ****   {
GAS LISTING /var/folders/rt/4gvqv631095f64jvm7jfj_000000gn/T//cc7GTxSc.s 			page 10


 183:plant.c       ****     STR_COPY(plant->currentStatus, "BEHÖVER SKUGGA");
 272              		.loc 1 183 5 is_stmt 1
 273 0014 B7060000 		lui	a3,%hi(.LC2)
 274 0018 37060000 		lui	a2,%hi(.LC0)
 275 001c 93860600 		addi	a3,a3,%lo(.LC2)
 276 0020 13060600 		addi	a2,a2,%lo(.LC0)
 277 0024 BD45     		li	a1,15
 278 0026 3D05     		addi	a0,a0,15
 279              	.LVL20:
 280 0028 17030000 		tail	snprintf
 280      67000300 
 281              	.LVL21:
 282              	.L11:
 184:plant.c       ****   }
 185:plant.c       ****   else if (plant->sun[plant->numberOfSunReadings - 1].reading < plant->lowSun)
 283              		.loc 1 185 8
 284              		.loc 1 185 11 is_stmt 0
 285 0030 0327C54B 		lw	a4,1212(a0)
 286 0034 63DBE700 		bge	a5,a4,.L10
 287              	.LVL22:
 288              	.LBB6:
 289              	.LBB7:
 186:plant.c       ****   {
 187:plant.c       ****     STR_COPY(plant->currentStatus, "BEHÖVER LJUS");
 290              		.loc 1 187 5 is_stmt 1
 291 0038 B7050000 		lui	a1,%hi(.LC3)
 292 003c 93850500 		addi	a1,a1,%lo(.LC3)
 293 0040 3D05     		addi	a0,a0,15
 294              	.LVL23:
 295 0042 17030000 		tail	strcpy
 295      67000300 
 296              	.LVL24:
 297              	.L10:
 298              	.LBE7:
 299              	.LBE6:
 188:plant.c       ****   }
 189:plant.c       **** }
 300              		.loc 1 189 1 is_stmt 0
 301 004a 8280     		ret
 302              		.cfi_endproc
 303              	.LFE8:
 305              		.globl	__fixsfsi
 306              		.section	.text.updatePlantReadings,"ax",@progbits
 307              		.align	1
 308              		.globl	updatePlantReadings
 310              	updatePlantReadings:
 311              	.LFB7:
  66:plant.c       ****   if (type == SUN)
 312              		.loc 1 66 1 is_stmt 1
 313              		.cfi_startproc
 314              	.LVL25:
  67:plant.c       ****   {
 315              		.loc 1 67 3
  66:plant.c       ****   if (type == SUN)
 316              		.loc 1 66 1 is_stmt 0
 317 0000 4111     		addi	sp,sp,-16
 318              	.LCFI4:
GAS LISTING /var/folders/rt/4gvqv631095f64jvm7jfj_000000gn/T//cc7GTxSc.s 			page 11


 319              		.cfi_def_cfa_offset 16
 320 0002 22C4     		sw	s0,8(sp)
 321 0004 06C6     		sw	ra,12(sp)
 322 0006 26C2     		sw	s1,4(sp)
 323              		.cfi_offset 8, -8
 324              		.cfi_offset 1, -4
 325              		.cfi_offset 9, -12
  67:plant.c       ****   {
 326              		.loc 1 67 6
 327 0008 8547     		li	a5,1
  66:plant.c       ****   if (type == SUN)
 328              		.loc 1 66 1
 329 000a 2A84     		mv	s0,a0
  67:plant.c       ****   {
 330              		.loc 1 67 6
 331 000c 639DF50C 		bne	a1,a5,.L14
 332              	.LBB8:
  70:plant.c       ****     if (currentValue < 0)
 333              		.loc 1 70 5 is_stmt 1
  70:plant.c       ****     if (currentValue < 0)
 334              		.loc 1 70 24 is_stmt 0
 335 0010 0D45     		li	a0,3
 336              	.LVL26:
 337 0012 97000000 		call	ADC_read
 337      E7800000 
 338              	.LVL27:
  71:plant.c       ****       currentValue = 0;
 339              		.loc 1 71 5 is_stmt 1
  73:plant.c       ****     {
 340              		.loc 1 73 5
  73:plant.c       ****     {
 341              		.loc 1 73 14 is_stmt 0
 342 001a 83274432 		lw	a5,804(s0)
  73:plant.c       ****     {
 343              		.loc 1 73 8
 344 001e 13070003 		li	a4,48
 345 0022 6344F704 		bgt	a5,a4,.L22
 346              	.LBB9:
  77:plant.c       ****       int32_t currentTime = rtc_counter_get();
 347              		.loc 1 77 7 is_stmt 1
 348 0026 8E07     		slli	a5,a5,3
 349 0028 A297     		add	a5,s0,a5
  77:plant.c       ****       int32_t currentTime = rtc_counter_get();
 350              		.loc 1 77 74 is_stmt 0
 351 002a 63530500 		bge	a0,zero,.L16
 352 002e 0145     		li	a0,0
 353              	.LVL28:
 354              	.L16:
 355 0030 7947     		li	a4,30
 356 0032 3345E502 		div	a0,a0,a4
  77:plant.c       ****       int32_t currentTime = rtc_counter_get();
 357              		.loc 1 77 58
 358 0036 03A7C70D 		lw	a4,220(a5)
 359 003a 3A95     		add	a0,a4,a0
 360 003c 23AEA70C 		sw	a0,220(a5)
  78:plant.c       ****       plant->sun[plant->numberOfSunReadings - 1].timeStamp = currentTime;
 361              		.loc 1 78 7 is_stmt 1
GAS LISTING /var/folders/rt/4gvqv631095f64jvm7jfj_000000gn/T//cc7GTxSc.s 			page 12


  78:plant.c       ****       plant->sun[plant->numberOfSunReadings - 1].timeStamp = currentTime;
 362              		.loc 1 78 29 is_stmt 0
 363 0040 97000000 		call	rtc_counter_get
 363      E7800000 
 364              	.LVL29:
  79:plant.c       ****       // Special för ljus. Om detta är första värdet som tas så har vi precis bootat. Isåfall
 365              		.loc 1 79 7 is_stmt 1
  79:plant.c       ****       // Special för ljus. Om detta är första värdet som tas så har vi precis bootat. Isåfall
 366              		.loc 1 79 23 is_stmt 0
 367 0048 83274432 		lw	a5,804(s0)
  81:plant.c       ****       {
 368              		.loc 1 81 10
 369 004c 8546     		li	a3,1
 370 004e 13973700 		slli	a4,a5,3
 371 0052 2297     		add	a4,s0,a4
  79:plant.c       ****       // Special för ljus. Om detta är första värdet som tas så har vi precis bootat. Isåfall
 372              		.loc 1 79 60
 373 0054 232CA70C 		sw	a0,216(a4)
  81:plant.c       ****       {
 374              		.loc 1 81 7 is_stmt 1
  81:plant.c       ****       {
 375              		.loc 1 81 10 is_stmt 0
 376 0058 6392D702 		bne	a5,a3,.L17
  83:plant.c       ****           (plant->numberOfSunReadings)++;
 377              		.loc 1 83 9 is_stmt 1
  83:plant.c       ****           (plant->numberOfSunReadings)++;
 378              		.loc 1 83 12 is_stmt 0
 379 005c 93077070 		li	a5,1799
 380 0060 63D5A700 		ble	a0,a5,.L22
  84:plant.c       ****       }
 381              		.loc 1 84 11 is_stmt 1
  84:plant.c       ****       }
 382              		.loc 1 84 39 is_stmt 0
 383 0064 8947     		li	a5,2
 384 0066 2322F432 		sw	a5,804(s0)
 385              	.LVL30:
 386              	.L22:
 387              	.LBE9:
 388              	.LBE8:
 176:plant.c       **** }
 389              		.loc 1 176 3 is_stmt 1
 390 006a 2285     		mv	a0,s0
 177:plant.c       **** 
 391              		.loc 1 177 1 is_stmt 0
 392 006c 2244     		lw	s0,8(sp)
 393              		.cfi_remember_state
 394              		.cfi_restore 8
 395              	.LVL31:
 396 006e B240     		lw	ra,12(sp)
 397              		.cfi_restore 1
 398 0070 9244     		lw	s1,4(sp)
 399              		.cfi_restore 9
 400 0072 4101     		addi	sp,sp,16
 401              	.LCFI5:
 402              		.cfi_def_cfa_offset 0
 176:plant.c       **** }
 403              		.loc 1 176 3
GAS LISTING /var/folders/rt/4gvqv631095f64jvm7jfj_000000gn/T//cc7GTxSc.s 			page 13


 404 0074 17030000 		tail	updatePlantStatus
 404      67000300 
 405              	.LVL32:
 406              	.L17:
 407              	.LCFI6:
 408              		.cfi_restore_state
 409              	.LBB14:
 410              	.LBB10:
  87:plant.c       ****         (plant->numberOfSunReadings)++;
 411              		.loc 1 87 12 is_stmt 1
  87:plant.c       ****         (plant->numberOfSunReadings)++;
 412              		.loc 1 87 69 is_stmt 0
 413 007c 0327070D 		lw	a4,208(a4)
 414 0080 198D     		sub	a0,a0,a4
 415              	.LVL33:
  87:plant.c       ****         (plant->numberOfSunReadings)++;
 416              		.loc 1 87 15
 417 0082 13077070 		li	a4,1799
 418 0086 6375A700 		bleu	a0,a4,.L19
  88:plant.c       ****     }
 419              		.loc 1 88 9 is_stmt 1
  88:plant.c       ****     }
 420              		.loc 1 88 37 is_stmt 0
 421 008a 8507     		addi	a5,a5,1
 422              	.LVL34:
 423 008c 2322F432 		sw	a5,804(s0)
 424              	.LVL35:
 425              	.L19:
 426              	.LBE10:
  91:plant.c       ****     {
 427              		.loc 1 91 5 is_stmt 1
  91:plant.c       ****     {
 428              		.loc 1 91 8 is_stmt 0
 429 0090 03274432 		lw	a4,804(s0)
 430 0094 93070003 		li	a5,48
 431 0098 E319F7FC 		bne	a4,a5,.L22
 432 009c 1307440E 		addi	a4,s0,228
 433 00a0 93064426 		addi	a3,s0,612
 434              	.LBB11:
  94:plant.c       ****       for (int i = 0; i < MAX_SUN_READINGS; i++)
 435              		.loc 1 94 11
 436 00a4 8147     		li	a5,0
 437              	.L20:
 438              	.LVL36:
 439              	.LBB12:
  97:plant.c       ****       }
 440              		.loc 1 97 9 is_stmt 1 discriminator 3
  97:plant.c       ****       }
 441              		.loc 1 97 29 is_stmt 0 discriminator 3
 442 00a6 1043     		lw	a2,0(a4)
 443 00a8 2107     		addi	a4,a4,8
 444 00aa B297     		add	a5,a5,a2
 445              	.LVL37:
  95:plant.c       ****       {
 446              		.loc 1 95 7 discriminator 3
 447 00ac E39DE6FE 		bne	a3,a4,.L20
 448              	.LBE12:
GAS LISTING /var/folders/rt/4gvqv631095f64jvm7jfj_000000gn/T//cc7GTxSc.s 			page 14


  99:plant.c       **** 
 449              		.loc 1 99 7 is_stmt 1
  99:plant.c       **** 
 450              		.loc 1 99 34 is_stmt 0
 451 00b0 0547     		li	a4,1
 452 00b2 2322E432 		sw	a4,804(s0)
 101:plant.c       ****       // Flytta nuvarande värden så att senaste värde ligger först
 453              		.loc 1 101 7 is_stmt 1
 101:plant.c       ****       // Flytta nuvarande värden så att senaste värde ligger först
 454              		.loc 1 101 27 is_stmt 0
 455 00b6 13070003 		li	a4,48
 456 00ba B3C7E702 		div	a5,a5,a4
 457              	.LVL38:
 103:plant.c       ****       {
 458              		.loc 1 103 7 is_stmt 1
 459              	.LBB13:
 103:plant.c       ****       {
 460              		.loc 1 103 12
 461 00be 9306043A 		addi	a3,s0,928
 462 00c2 13074441 		addi	a4,s0,1044
 463              	.LVL39:
 464              	.L21:
 105:plant.c       ****       }
 465              		.loc 1 105 9 discriminator 3
 105:plant.c       ****       }
 466              		.loc 1 105 30 is_stmt 0 discriminator 3
 467 00c6 1043     		lw	a2,0(a4)
 468 00c8 7117     		addi	a4,a4,-4
 469 00ca 10C7     		sw	a2,8(a4)
 103:plant.c       ****       {
 470              		.loc 1 103 7 discriminator 3
 471 00cc E39DE6FE 		bne	a3,a4,.L21
 472              	.LBE13:
 107:plant.c       ****       // Öka antal sparade värden om de inte redan är max
 473              		.loc 1 107 7 is_stmt 1
 107:plant.c       ****       // Öka antal sparade värden om de inte redan är max
 474              		.loc 1 107 28 is_stmt 0
 475 00d0 2322F43A 		sw	a5,932(s0)
 109:plant.c       ****         (plant->numberOfSunHistory)++;
 476              		.loc 1 109 7 is_stmt 1
 109:plant.c       ****         (plant->numberOfSunHistory)++;
 477              		.loc 1 109 16 is_stmt 0
 478 00d4 83278449 		lw	a5,1176(s0)
 479              	.LVL40:
 109:plant.c       ****         (plant->numberOfSunHistory)++;
 480              		.loc 1 109 10
 481 00d8 7547     		li	a4,29
 482 00da E348F7F8 		bgt	a5,a4,.L22
 110:plant.c       ****     }
 483              		.loc 1 110 9 is_stmt 1
 110:plant.c       ****     }
 484              		.loc 1 110 36 is_stmt 0
 485 00de 8507     		addi	a5,a5,1
 486 00e0 232CF448 		sw	a5,1176(s0)
 487 00e4 59B7     		j	.L22
 488              	.LVL41:
 489              	.L14:
GAS LISTING /var/folders/rt/4gvqv631095f64jvm7jfj_000000gn/T//cc7GTxSc.s 			page 15


 490              	.LBE11:
 491              	.LBE14:
 114:plant.c       ****   {
 492              		.loc 1 114 8 is_stmt 1
 114:plant.c       ****   {
 493              		.loc 1 114 11 is_stmt 0
 494 00e6 C1E5     		bne	a1,zero,.L23
 495              	.LBB15:
 116:plant.c       ****     if (currentValue < 0)
 496              		.loc 1 116 5 is_stmt 1
 116:plant.c       ****     if (currentValue < 0)
 497              		.loc 1 116 24 is_stmt 0
 498 00e8 0545     		li	a0,1
 499 00ea 97000000 		call	ADC_read
 499      E7800000 
 500              	.LVL42:
 117:plant.c       ****       currentValue = 0;
 501              		.loc 1 117 5 is_stmt 1
 120:plant.c       ****     {
 502              		.loc 1 120 7
 120:plant.c       ****     {
 503              		.loc 1 120 16 is_stmt 0
 504 00f2 83270432 		lw	a5,800(s0)
 120:plant.c       ****     {
 505              		.loc 1 120 10
 506 00f6 6147     		li	a4,24
 507 00f8 E349F7F6 		bgt	a5,a4,.L22
 508              	.LBB16:
 122:plant.c       ****       int32_t currentTime = rtc_counter_get();
 509              		.loc 1 122 7 is_stmt 1
 122:plant.c       ****       int32_t currentTime = rtc_counter_get();
 510              		.loc 1 122 68 is_stmt 0
 511 00fc 8D07     		addi	a5,a5,3
 512 00fe 8E07     		slli	a5,a5,3
 513 0100 A297     		add	a5,s0,a5
 514 0102 63530500 		bge	a0,zero,.L24
 515 0106 0145     		li	a0,0
 516              	.LVL43:
 517              	.L24:
 518 0108 C8C3     		sw	a0,4(a5)
 123:plant.c       ****       plant->moisture[plant->numberOfMoistureReadings - 1].timeStamp = currentTime;
 519              		.loc 1 123 7 is_stmt 1
 123:plant.c       ****       plant->moisture[plant->numberOfMoistureReadings - 1].timeStamp = currentTime;
 520              		.loc 1 123 29 is_stmt 0
 521 010a 97000000 		call	rtc_counter_get
 521      E7800000 
 522              	.LVL44:
 124:plant.c       ****     }
 523              		.loc 1 124 7 is_stmt 1
 124:plant.c       ****     }
 524              		.loc 1 124 28 is_stmt 0
 525 0112 03270432 		lw	a4,800(s0)
 124:plant.c       ****     }
 526              		.loc 1 124 70
 527 0116 93073700 		addi	a5,a4,3
 528 011a 8E07     		slli	a5,a5,3
 529 011c A297     		add	a5,s0,a5
GAS LISTING /var/folders/rt/4gvqv631095f64jvm7jfj_000000gn/T//cc7GTxSc.s 			page 16


 530 011e 88C3     		sw	a0,0(a5)
 531              	.LBE16:
 127:plant.c       ****     {
 532              		.loc 1 127 5 is_stmt 1
 127:plant.c       ****     {
 533              		.loc 1 127 8 is_stmt 0
 534 0120 E147     		li	a5,24
 535 0122 E314F7F4 		bne	a4,a5,.L22
 536 0126 13074402 		addi	a4,s0,36
 537 012a 9306440E 		addi	a3,s0,228
 538              	.LBB17:
 129:plant.c       ****       for (int i = 0; i < MAX_MOISTURE_READINGS; i++)
 539              		.loc 1 129 11
 540 012e 8147     		li	a5,0
 541              	.L25:
 542              	.LVL45:
 543              	.LBB18:
 132:plant.c       ****       }
 544              		.loc 1 132 9 is_stmt 1 discriminator 3
 132:plant.c       ****       }
 545              		.loc 1 132 29 is_stmt 0 discriminator 3
 546 0130 1043     		lw	a2,0(a4)
 547 0132 2107     		addi	a4,a4,8
 548 0134 B297     		add	a5,a5,a2
 549              	.LVL46:
 130:plant.c       ****       {
 550              		.loc 1 130 7 discriminator 3
 551 0136 E39DE6FE 		bne	a3,a4,.L25
 552              	.LBE18:
 134:plant.c       ****       averageValueThisDay /= MAX_MOISTURE_READINGS;
 553              		.loc 1 134 7 is_stmt 1
 134:plant.c       ****       averageValueThisDay /= MAX_MOISTURE_READINGS;
 554              		.loc 1 134 39 is_stmt 0
 555 013a 0547     		li	a4,1
 556 013c 2320E432 		sw	a4,800(s0)
 135:plant.c       ****       for (int i = AVG_HISTORY_DAYS -1; i > 0; i--)
 557              		.loc 1 135 7 is_stmt 1
 135:plant.c       ****       for (int i = AVG_HISTORY_DAYS -1; i > 0; i--)
 558              		.loc 1 135 27 is_stmt 0
 559 0140 6147     		li	a4,24
 560 0142 B3C7E702 		div	a5,a5,a4
 561              	.LVL47:
 136:plant.c       ****       {
 562              		.loc 1 136 7 is_stmt 1
 563              	.LBB19:
 136:plant.c       ****       {
 564              		.loc 1 136 12
 565 0146 93068432 		addi	a3,s0,808
 566 014a 1307C439 		addi	a4,s0,924
 567              	.LVL48:
 568              	.L26:
 138:plant.c       ****       }
 569              		.loc 1 138 9 discriminator 3
 138:plant.c       ****       }
 570              		.loc 1 138 32 is_stmt 0 discriminator 3
 571 014e 1043     		lw	a2,0(a4)
 572 0150 7117     		addi	a4,a4,-4
GAS LISTING /var/folders/rt/4gvqv631095f64jvm7jfj_000000gn/T//cc7GTxSc.s 			page 17


 573 0152 10C7     		sw	a2,8(a4)
 136:plant.c       ****       {
 574              		.loc 1 136 7 discriminator 3
 575 0154 E31DD7FE 		bne	a4,a3,.L26
 576              	.LBE19:
 140:plant.c       ****       if (plant->numberOfMoistureHistory < AVG_HISTORY_DAYS)
 577              		.loc 1 140 7 is_stmt 1
 140:plant.c       ****       if (plant->numberOfMoistureHistory < AVG_HISTORY_DAYS)
 578              		.loc 1 140 30 is_stmt 0
 579 0158 2326F432 		sw	a5,812(s0)
 141:plant.c       ****         (plant->numberOfMoistureHistory)++;
 580              		.loc 1 141 7 is_stmt 1
 141:plant.c       ****         (plant->numberOfMoistureHistory)++;
 581              		.loc 1 141 16 is_stmt 0
 582 015c 83274449 		lw	a5,1172(s0)
 583              	.LVL49:
 141:plant.c       ****         (plant->numberOfMoistureHistory)++;
 584              		.loc 1 141 10
 585 0160 7547     		li	a4,29
 586 0162 E344F7F0 		bgt	a5,a4,.L22
 142:plant.c       ****     }
 587              		.loc 1 142 9 is_stmt 1
 142:plant.c       ****     }
 588              		.loc 1 142 41 is_stmt 0
 589 0166 8507     		addi	a5,a5,1
 590 0168 232AF448 		sw	a5,1172(s0)
 591 016c FDBD     		j	.L22
 592              	.LVL50:
 593              	.L23:
 594              	.LBE17:
 595              	.LBE15:
 145:plant.c       ****   {
 596              		.loc 1 145 8 is_stmt 1
 145:plant.c       ****   {
 597              		.loc 1 145 11 is_stmt 0
 598 016e 8947     		li	a5,2
 599 0170 E39DF5EE 		bne	a1,a5,.L22
 600              	.LBB20:
 147:plant.c       ****     if (currentValue < 0)
 601              		.loc 1 147 5 is_stmt 1
 147:plant.c       ****     if (currentValue < 0)
 602              		.loc 1 147 30 is_stmt 0
 603 0174 97000000 		call	read_temp
 603      E7800000 
 604              	.LVL51:
 148:plant.c       ****       currentValue = 0;
 605              		.loc 1 148 5 is_stmt 1
 151:plant.c       ****     {
 606              		.loc 1 151 5
 151:plant.c       ****     {
 607              		.loc 1 151 14 is_stmt 0
 608 017c 83248432 		lw	s1,808(s0)
 151:plant.c       ****     {
 609              		.loc 1 151 8
 610 0180 E147     		li	a5,24
 611 0182 E3C497EE 		bgt	s1,a5,.L22
 612              	.LBB21:
GAS LISTING /var/folders/rt/4gvqv631095f64jvm7jfj_000000gn/T//cc7GTxSc.s 			page 18


 153:plant.c       ****       int32_t currentTime = rtc_counter_get();
 613              		.loc 1 153 7 is_stmt 1
 153:plant.c       ****       int32_t currentTime = rtc_counter_get();
 614              		.loc 1 153 60 is_stmt 0
 615 0186 9384B404 		addi	s1,s1,75
 616 018a 8E04     		slli	s1,s1,3
 617              	.LBE21:
 147:plant.c       ****     if (currentValue < 0)
 618              		.loc 1 147 9
 619 018c 97000000 		call	__fixsfsi
 619      E7800000 
 620              	.LVL52:
 621              	.LBB22:
 153:plant.c       ****       int32_t currentTime = rtc_counter_get();
 622              		.loc 1 153 60
 623 0194 A294     		add	s1,s0,s1
 624 0196 63530500 		bge	a0,zero,.L27
 625 019a 0145     		li	a0,0
 626              	.L27:
 627 019c C8C0     		sw	a0,4(s1)
 154:plant.c       ****       plant->temp[plant->numberOfTempReadings - 1].timeStamp = currentTime;
 628              		.loc 1 154 7 is_stmt 1
 154:plant.c       ****       plant->temp[plant->numberOfTempReadings - 1].timeStamp = currentTime;
 629              		.loc 1 154 29 is_stmt 0
 630 019e 97000000 		call	rtc_counter_get
 630      E7800000 
 631              	.LVL53:
 155:plant.c       ****     }
 632              		.loc 1 155 7 is_stmt 1
 155:plant.c       ****     }
 633              		.loc 1 155 24 is_stmt 0
 634 01a6 03278432 		lw	a4,808(s0)
 155:plant.c       ****     }
 635              		.loc 1 155 62
 636 01aa 9307B704 		addi	a5,a4,75
 637 01ae 8E07     		slli	a5,a5,3
 638 01b0 A297     		add	a5,s0,a5
 639 01b2 88C3     		sw	a0,0(a5)
 640              	.LBE22:
 158:plant.c       ****     {
 641              		.loc 1 158 5 is_stmt 1
 158:plant.c       ****     {
 642              		.loc 1 158 8 is_stmt 0
 643 01b4 E147     		li	a5,24
 644 01b6 E31AF7EA 		bne	a4,a5,.L22
 645 01ba 13074426 		addi	a4,s0,612
 646 01be 93064432 		addi	a3,s0,804
 647              	.LBB23:
 160:plant.c       ****       for (int i = 0; i < MAX_TEMP_READINGS; i++)
 648              		.loc 1 160 11
 649 01c2 8147     		li	a5,0
 650              	.L28:
 651              	.LVL54:
 652              	.LBB24:
 163:plant.c       ****       }
 653              		.loc 1 163 9 is_stmt 1 discriminator 3
 163:plant.c       ****       }
GAS LISTING /var/folders/rt/4gvqv631095f64jvm7jfj_000000gn/T//cc7GTxSc.s 			page 19


 654              		.loc 1 163 29 is_stmt 0 discriminator 3
 655 01c4 1043     		lw	a2,0(a4)
 656 01c6 2107     		addi	a4,a4,8
 657 01c8 B297     		add	a5,a5,a2
 658              	.LVL55:
 161:plant.c       ****       {
 659              		.loc 1 161 7 discriminator 3
 660 01ca E31DD7FE 		bne	a4,a3,.L28
 661              	.LBE24:
 165:plant.c       ****       averageValueThisDay /= MAX_TEMP_READINGS;
 662              		.loc 1 165 7 is_stmt 1
 165:plant.c       ****       averageValueThisDay /= MAX_TEMP_READINGS;
 663              		.loc 1 165 35 is_stmt 0
 664 01ce 0547     		li	a4,1
 665 01d0 2324E432 		sw	a4,808(s0)
 166:plant.c       ****       for (int i = AVG_HISTORY_DAYS -1; i > 0; i--)
 666              		.loc 1 166 7 is_stmt 1
 166:plant.c       ****       for (int i = AVG_HISTORY_DAYS -1; i > 0; i--)
 667              		.loc 1 166 27 is_stmt 0
 668 01d4 6147     		li	a4,24
 669 01d6 B3C7E702 		div	a5,a5,a4
 670              	.LVL56:
 167:plant.c       ****       {
 671              		.loc 1 167 7 is_stmt 1
 672              	.LBB25:
 167:plant.c       ****       {
 673              		.loc 1 167 12
 674 01da 93068441 		addi	a3,s0,1048
 675 01de 1307C448 		addi	a4,s0,1164
 676              	.LVL57:
 677              	.L29:
 169:plant.c       ****       }
 678              		.loc 1 169 9 discriminator 3
 169:plant.c       ****       }
 679              		.loc 1 169 31 is_stmt 0 discriminator 3
 680 01e2 1043     		lw	a2,0(a4)
 681 01e4 7117     		addi	a4,a4,-4
 682 01e6 10C7     		sw	a2,8(a4)
 167:plant.c       ****       {
 683              		.loc 1 167 7 discriminator 3
 684 01e8 E39DE6FE 		bne	a3,a4,.L29
 685              	.LBE25:
 171:plant.c       ****       if (plant->numberOfTempHistory < AVG_HISTORY_DAYS)
 686              		.loc 1 171 7 is_stmt 1
 171:plant.c       ****       if (plant->numberOfTempHistory < AVG_HISTORY_DAYS)
 687              		.loc 1 171 29 is_stmt 0
 688 01ec 232EF440 		sw	a5,1052(s0)
 172:plant.c       ****         (plant->numberOfTempHistory)++;
 689              		.loc 1 172 7 is_stmt 1
 172:plant.c       ****         (plant->numberOfTempHistory)++;
 690              		.loc 1 172 16 is_stmt 0
 691 01f0 8327C449 		lw	a5,1180(s0)
 692              	.LVL58:
 172:plant.c       ****         (plant->numberOfTempHistory)++;
 693              		.loc 1 172 10
 694 01f4 7547     		li	a4,29
 695 01f6 E34AF7E6 		bgt	a5,a4,.L22
GAS LISTING /var/folders/rt/4gvqv631095f64jvm7jfj_000000gn/T//cc7GTxSc.s 			page 20


 173:plant.c       ****     }
 696              		.loc 1 173 9 is_stmt 1
 173:plant.c       ****     }
 697              		.loc 1 173 37 is_stmt 0
 698 01fa 8507     		addi	a5,a5,1
 699 01fc 232EF448 		sw	a5,1180(s0)
 700 0200 ADB5     		j	.L22
 701              	.LBE23:
 702              	.LBE20:
 703              		.cfi_endproc
 704              	.LFE7:
 706              		.section	.text.applyGreenFingers,"ax",@progbits
 707              		.align	1
 708              		.globl	applyGreenFingers
 710              	applyGreenFingers:
 711              	.LFB9:
 190:plant.c       **** 
 191:plant.c       **** int applyGreenFingers(Plant allPlants[], int numberOfPlants)
 192:plant.c       **** {
 712              		.loc 1 192 1 is_stmt 1
 713              		.cfi_startproc
 714              	.LVL59:
 193:plant.c       ****   int updateDone = 0;
 715              		.loc 1 193 3
 194:plant.c       ****   uint32_t currentTime = rtc_counter_get();
 716              		.loc 1 194 3
 192:plant.c       ****   int updateDone = 0;
 717              		.loc 1 192 1 is_stmt 0
 718 0000 0111     		addi	sp,sp,-32
 719              	.LCFI7:
 720              		.cfi_def_cfa_offset 32
 721 0002 22CC     		sw	s0,24(sp)
 722 0004 26CA     		sw	s1,20(sp)
 723 0006 4AC8     		sw	s2,16(sp)
 724 0008 4EC6     		sw	s3,12(sp)
 725 000a 06CE     		sw	ra,28(sp)
 726              		.cfi_offset 8, -8
 727              		.cfi_offset 9, -12
 728              		.cfi_offset 18, -16
 729              		.cfi_offset 19, -20
 730              		.cfi_offset 1, -4
 192:plant.c       ****   int updateDone = 0;
 731              		.loc 1 192 1
 732 000c 2A84     		mv	s0,a0
 733 000e 2E89     		mv	s2,a1
 734              		.loc 1 194 26
 735 0010 97000000 		call	rtc_counter_get
 735      E7800000 
 736              	.LVL60:
 737 0018 AA84     		mv	s1,a0
 738              	.LVL61:
 195:plant.c       ****   for (int i = 0; i < numberOfPlants; i++)
 739              		.loc 1 195 3 is_stmt 1
 740              	.LBB26:
 741              		.loc 1 195 8
 742              		.loc 1 195 12 is_stmt 0
 743 001a 8149     		li	s3,0
GAS LISTING /var/folders/rt/4gvqv631095f64jvm7jfj_000000gn/T//cc7GTxSc.s 			page 21


 744              	.LBE26:
 193:plant.c       ****   uint32_t currentTime = rtc_counter_get();
 745              		.loc 1 193 7
 746 001c 0145     		li	a0,0
 747              	.LVL62:
 748              	.L38:
 749              	.LBB27:
 750              		.loc 1 195 3 discriminator 1
 751 001e 63C92901 		blt	s3,s2,.L45
 752              	.LBE27:
 196:plant.c       ****   {
 197:plant.c       ****     if (currentTime - allPlants[i].sun[allPlants[i].numberOfSunReadings - 1].timeStamp >= allPlants
 198:plant.c       ****     {
 199:plant.c       ****       updatePlantReadings(&allPlants[i], SUN, i);
 200:plant.c       ****       updateDone = 1;
 201:plant.c       ****     }
 202:plant.c       **** 
 203:plant.c       ****     if (currentTime - allPlants[i].moisture[allPlants[i].numberOfMoistureReadings - 1].timeStamp >=
 204:plant.c       ****     {
 205:plant.c       ****       updatePlantReadings(&allPlants[i], MOISTURE, i);
 206:plant.c       ****       updateDone = 1;
 207:plant.c       ****     }
 208:plant.c       **** 
 209:plant.c       ****     if (currentTime - allPlants[i].temp[allPlants[i].numberOfTempReadings - 1].timeStamp >= allPlan
 210:plant.c       ****     {
 211:plant.c       ****       updatePlantReadings(&allPlants[i], TEMPERATURE, i);
 212:plant.c       ****       updateDone = 1;
 213:plant.c       ****     }
 214:plant.c       ****   }
 215:plant.c       ****   return updateDone;
 216:plant.c       **** }...
 753              		.loc 1 216 1
 754 0022 F240     		lw	ra,28(sp)
 755              		.cfi_remember_state
 756              		.cfi_restore 1
 757 0024 6244     		lw	s0,24(sp)
 758              		.cfi_restore 8
 759 0026 D244     		lw	s1,20(sp)
 760              		.cfi_restore 9
 761              	.LVL63:
 762 0028 4249     		lw	s2,16(sp)
 763              		.cfi_restore 18
 764              	.LVL64:
 765 002a B249     		lw	s3,12(sp)
 766              		.cfi_restore 19
 767              	.LVL65:
 768 002c 0561     		addi	sp,sp,32
 769              	.LCFI8:
 770              		.cfi_def_cfa_offset 0
 771 002e 8280     		jr	ra
 772              	.LVL66:
 773              	.L45:
 774              	.LCFI9:
 775              		.cfi_restore_state
 776              	.LBB28:
 197:plant.c       ****     if (currentTime - allPlants[i].sun[allPlants[i].numberOfSunReadings - 1].timeStamp >= allPlants
 777              		.loc 1 197 5 is_stmt 1
GAS LISTING /var/folders/rt/4gvqv631095f64jvm7jfj_000000gn/T//cc7GTxSc.s 			page 22


 197:plant.c       ****     if (currentTime - allPlants[i].sun[allPlants[i].numberOfSunReadings - 1].timeStamp >= allPlants
 778              		.loc 1 197 77 is_stmt 0
 779 0030 83274432 		lw	a5,804(s0)
 197:plant.c       ****     if (currentTime - allPlants[i].sun[allPlants[i].numberOfSunReadings - 1].timeStamp >= allPlants
 780              		.loc 1 197 8
 781 0034 0327444A 		lw	a4,1188(s0)
 197:plant.c       ****     if (currentTime - allPlants[i].sun[allPlants[i].numberOfSunReadings - 1].timeStamp >= allPlants
 782              		.loc 1 197 77
 783 0038 ED07     		addi	a5,a5,27
 784 003a 8E07     		slli	a5,a5,3
 785 003c A297     		add	a5,s0,a5
 786 003e 9C43     		lw	a5,0(a5)
 197:plant.c       ****     if (currentTime - allPlants[i].sun[allPlants[i].numberOfSunReadings - 1].timeStamp >= allPlants
 787              		.loc 1 197 21
 788 0040 B386F440 		sub	a3,s1,a5
 197:plant.c       ****     if (currentTime - allPlants[i].sun[allPlants[i].numberOfSunReadings - 1].timeStamp >= allPlants
 789              		.loc 1 197 8
 790 0044 63F3E600 		bgeu	a3,a4,.L39
 197:plant.c       ****     if (currentTime - allPlants[i].sun[allPlants[i].numberOfSunReadings - 1].timeStamp >= allPlants
 791              		.loc 1 197 116 discriminator 1
 792 0048 89EB     		bne	a5,zero,.L40
 793              	.L39:
 199:plant.c       ****       updatePlantReadings(&allPlants[i], SUN, i);
 794              		.loc 1 199 7 is_stmt 1
 795 004a 2285     		mv	a0,s0
 796              	.LVL67:
 797 004c 4E86     		mv	a2,s3
 798 004e 8545     		li	a1,1
 799 0050 97000000 		call	updatePlantReadings
 799      E7800000 
 800              	.LVL68:
 200:plant.c       ****       updateDone = 1;
 801              		.loc 1 200 7
 200:plant.c       ****       updateDone = 1;
 802              		.loc 1 200 18 is_stmt 0
 803 0058 0545     		li	a0,1
 804              	.LVL69:
 805              	.L40:
 203:plant.c       ****     if (currentTime - allPlants[i].moisture[allPlants[i].numberOfMoistureReadings - 1].timeStamp >=
 806              		.loc 1 203 5 is_stmt 1
 203:plant.c       ****     if (currentTime - allPlants[i].moisture[allPlants[i].numberOfMoistureReadings - 1].timeStamp >=
 807              		.loc 1 203 87 is_stmt 0
 808 005a 83270432 		lw	a5,800(s0)
 203:plant.c       ****     if (currentTime - allPlants[i].moisture[allPlants[i].numberOfMoistureReadings - 1].timeStamp >=
 809              		.loc 1 203 8
 810 005e 0327044A 		lw	a4,1184(s0)
 203:plant.c       ****     if (currentTime - allPlants[i].moisture[allPlants[i].numberOfMoistureReadings - 1].timeStamp >=
 811              		.loc 1 203 87
 812 0062 8D07     		addi	a5,a5,3
 813 0064 8E07     		slli	a5,a5,3
 814 0066 A297     		add	a5,s0,a5
 815 0068 9C43     		lw	a5,0(a5)
 203:plant.c       ****     if (currentTime - allPlants[i].moisture[allPlants[i].numberOfMoistureReadings - 1].timeStamp >=
 816              		.loc 1 203 21
 817 006a B386F440 		sub	a3,s1,a5
 203:plant.c       ****     if (currentTime - allPlants[i].moisture[allPlants[i].numberOfMoistureReadings - 1].timeStamp >=
 818              		.loc 1 203 8
GAS LISTING /var/folders/rt/4gvqv631095f64jvm7jfj_000000gn/T//cc7GTxSc.s 			page 23


 819 006e 63F3E600 		bgeu	a3,a4,.L41
 203:plant.c       ****     if (currentTime - allPlants[i].moisture[allPlants[i].numberOfMoistureReadings - 1].timeStamp >=
 820              		.loc 1 203 128 discriminator 1
 821 0072 89EB     		bne	a5,zero,.L42
 822              	.L41:
 205:plant.c       ****       updatePlantReadings(&allPlants[i], MOISTURE, i);
 823              		.loc 1 205 7 is_stmt 1
 824 0074 2285     		mv	a0,s0
 825              	.LVL70:
 826 0076 4E86     		mv	a2,s3
 827 0078 8145     		li	a1,0
 828 007a 97000000 		call	updatePlantReadings
 828      E7800000 
 829              	.LVL71:
 206:plant.c       ****       updateDone = 1;
 830              		.loc 1 206 7
 206:plant.c       ****       updateDone = 1;
 831              		.loc 1 206 18 is_stmt 0
 832 0082 0545     		li	a0,1
 833              	.LVL72:
 834              	.L42:
 209:plant.c       ****     if (currentTime - allPlants[i].temp[allPlants[i].numberOfTempReadings - 1].timeStamp >= allPlan
 835              		.loc 1 209 5 is_stmt 1
 209:plant.c       ****     if (currentTime - allPlants[i].temp[allPlants[i].numberOfTempReadings - 1].timeStamp >= allPlan
 836              		.loc 1 209 79 is_stmt 0
 837 0084 83278432 		lw	a5,808(s0)
 209:plant.c       ****     if (currentTime - allPlants[i].temp[allPlants[i].numberOfTempReadings - 1].timeStamp >= allPlan
 838              		.loc 1 209 8
 839 0088 0327844A 		lw	a4,1192(s0)
 209:plant.c       ****     if (currentTime - allPlants[i].temp[allPlants[i].numberOfTempReadings - 1].timeStamp >= allPlan
 840              		.loc 1 209 79
 841 008c 9387B704 		addi	a5,a5,75
 842 0090 8E07     		slli	a5,a5,3
 843 0092 A297     		add	a5,s0,a5
 844 0094 9C43     		lw	a5,0(a5)
 209:plant.c       ****     if (currentTime - allPlants[i].temp[allPlants[i].numberOfTempReadings - 1].timeStamp >= allPlan
 845              		.loc 1 209 21
 846 0096 B386F440 		sub	a3,s1,a5
 209:plant.c       ****     if (currentTime - allPlants[i].temp[allPlants[i].numberOfTempReadings - 1].timeStamp >= allPlan
 847              		.loc 1 209 8
 848 009a 63F3E600 		bgeu	a3,a4,.L43
 209:plant.c       ****     if (currentTime - allPlants[i].temp[allPlants[i].numberOfTempReadings - 1].timeStamp >= allPlan
 849              		.loc 1 209 119 discriminator 1
 850 009e 89EB     		bne	a5,zero,.L44
 851              	.L43:
 211:plant.c       ****       updatePlantReadings(&allPlants[i], TEMPERATURE, i);
 852              		.loc 1 211 7 is_stmt 1
 853 00a0 2285     		mv	a0,s0
 854              	.LVL73:
 855 00a2 4E86     		mv	a2,s3
 856 00a4 8945     		li	a1,2
 857 00a6 97000000 		call	updatePlantReadings
 857      E7800000 
 858              	.LVL74:
 212:plant.c       ****       updateDone = 1;
 859              		.loc 1 212 7
 212:plant.c       ****       updateDone = 1;
GAS LISTING /var/folders/rt/4gvqv631095f64jvm7jfj_000000gn/T//cc7GTxSc.s 			page 24


 860              		.loc 1 212 18 is_stmt 0
 861 00ae 0545     		li	a0,1
 862              	.LVL75:
 863              	.L44:
 195:plant.c       ****   for (int i = 0; i < numberOfPlants; i++)
 864              		.loc 1 195 40 discriminator 2
 865 00b0 8509     		addi	s3,s3,1
 866              	.LVL76:
 867 00b2 1304044D 		addi	s0,s0,1232
 868 00b6 A5B7     		j	.L38
 869              	.LBE28:
 870              		.cfi_endproc
 871              	.LFE9:
 873              		.section	.rodata.initPlant.str1.4,"aMS",@progbits,1
 874              		.align	2
 875              	.LC0:
 876 0000 257300   		.string	"%s"
 877 0003 00       		.zero	1
 878              	.LC1:
 879 0004 4F4B00   		.string	"OK"
 880              		.section	.rodata.updatePlantStatus.str1.4,"aMS",@progbits,1
 881              		.align	2
 882              	.LC2:
 883 0000 424548C3 		.string	"BEH\303\226VER SKUGGA"
 883      96564552 
 883      20534B55 
 883      47474100 
 884              	.LC3:
 885 0010 424548C3 		.string	"BEH\303\226VER LJUS"
 885      96564552 
 885      204C4A55 
 885      5300
 886              		.text
 887              	.Letext0:
 888              		.file 2 "/Users/alexstrae/toolchain-gd32v-v202-osx/compiler/riscv64-unknown-elf/include/machine/_d
 889              		.file 3 "/Users/alexstrae/toolchain-gd32v-v202-osx/compiler/riscv64-unknown-elf/include/sys/_stdin
 890              		.file 4 "plant.h"
 891              		.file 5 "/Users/alexstrae/toolchain-gd32v-v202-osx/compiler/lib/gcc/riscv64-unknown-elf/8.3.0/incl
 892              		.file 6 "/Users/alexstrae/toolchain-gd32v-v202-osx/compiler/riscv64-unknown-elf/include/sys/_types
 893              		.file 7 "/Users/alexstrae/toolchain-gd32v-v202-osx/compiler/riscv64-unknown-elf/include/sys/reent.
 894              		.file 8 "/Users/alexstrae/toolchain-gd32v-v202-osx/compiler/riscv64-unknown-elf/include/sys/lock.h
 895              		.file 9 "/Users/alexstrae/toolchain-gd32v-v202-osx/compiler/riscv64-unknown-elf/include/stdlib.h"
 896              		.file 10 "../../firmware/GD32VF103_standard_peripheral/system_gd32vf103.h"
 897              		.file 11 "lcd.h"
 898              		.file 12 "../../firmware/GD32VF103_standard_peripheral/Include/gd32vf103_rtc.h"
 899              		.file 13 "adc.h"
 900              		.file 14 "/Users/alexstrae/toolchain-gd32v-v202-osx/compiler/riscv64-unknown-elf/include/stdio.h"
 901              		.file 15 "<built-in>"
GAS LISTING /var/folders/rt/4gvqv631095f64jvm7jfj_000000gn/T//cc7GTxSc.s 			page 25


DEFINED SYMBOLS
                            *ABS*:0000000000000000 plant.c
/var/folders/rt/4gvqv631095f64jvm7jfj_000000gn/T//cc7GTxSc.s:13     .text.initSensorReading:0000000000000000 initSensorReading
/var/folders/rt/4gvqv631095f64jvm7jfj_000000gn/T//cc7GTxSc.s:17     .text.initSensorReading:0000000000000000 .L0 
/var/folders/rt/4gvqv631095f64jvm7jfj_000000gn/T//cc7GTxSc.s:19     .text.initSensorReading:0000000000000000 .L0 
/var/folders/rt/4gvqv631095f64jvm7jfj_000000gn/T//cc7GTxSc.s:20     .text.initSensorReading:0000000000000000 .L0 
/var/folders/rt/4gvqv631095f64jvm7jfj_000000gn/T//cc7GTxSc.s:21     .text.initSensorReading:0000000000000000 .L0 
/var/folders/rt/4gvqv631095f64jvm7jfj_000000gn/T//cc7GTxSc.s:22     .text.initSensorReading:0000000000000000 .L0 
/var/folders/rt/4gvqv631095f64jvm7jfj_000000gn/T//cc7GTxSc.s:23     .text.initSensorReading:0000000000000000 .L0 
/var/folders/rt/4gvqv631095f64jvm7jfj_000000gn/T//cc7GTxSc.s:24     .text.initSensorReading:0000000000000000 .L0 
/var/folders/rt/4gvqv631095f64jvm7jfj_000000gn/T//cc7GTxSc.s:26     .text.initSensorReading:0000000000000002 .L0 
/var/folders/rt/4gvqv631095f64jvm7jfj_000000gn/T//cc7GTxSc.s:28     .text.initSensorReading:0000000000000002 .L0 
/var/folders/rt/4gvqv631095f64jvm7jfj_000000gn/T//cc7GTxSc.s:30     .text.initSensorReading:0000000000000004 .L0 
/var/folders/rt/4gvqv631095f64jvm7jfj_000000gn/T//cc7GTxSc.s:32     .text.initSensorReading:0000000000000006 .L0 
/var/folders/rt/4gvqv631095f64jvm7jfj_000000gn/T//cc7GTxSc.s:39     .text.initPlant:0000000000000000 initPlant
/var/folders/rt/4gvqv631095f64jvm7jfj_000000gn/T//cc7GTxSc.s:42     .text.initPlant:0000000000000000 .L0 
/var/folders/rt/4gvqv631095f64jvm7jfj_000000gn/T//cc7GTxSc.s:44     .text.initPlant:0000000000000000 .L0 
/var/folders/rt/4gvqv631095f64jvm7jfj_000000gn/T//cc7GTxSc.s:45     .text.initPlant:0000000000000000 .L0 
/var/folders/rt/4gvqv631095f64jvm7jfj_000000gn/T//cc7GTxSc.s:46     .text.initPlant:0000000000000000 .L0 
/var/folders/rt/4gvqv631095f64jvm7jfj_000000gn/T//cc7GTxSc.s:50     .text.initPlant:000000000000000a .L0 
/var/folders/rt/4gvqv631095f64jvm7jfj_000000gn/T//cc7GTxSc.s:52     .text.initPlant:000000000000000e .L0 
/var/folders/rt/4gvqv631095f64jvm7jfj_000000gn/T//cc7GTxSc.s:54     .text.initPlant:0000000000000012 .L0 
/var/folders/rt/4gvqv631095f64jvm7jfj_000000gn/T//cc7GTxSc.s:57     .text.initPlant:0000000000000014 .L0 
/var/folders/rt/4gvqv631095f64jvm7jfj_000000gn/T//cc7GTxSc.s:60     .text.initPlant:0000000000000018 .L0 
/var/folders/rt/4gvqv631095f64jvm7jfj_000000gn/T//cc7GTxSc.s:62     .text.initPlant:0000000000000020 .L0 
/var/folders/rt/4gvqv631095f64jvm7jfj_000000gn/T//cc7GTxSc.s:63     .text.initPlant:0000000000000020 .L0 
/var/folders/rt/4gvqv631095f64jvm7jfj_000000gn/T//cc7GTxSc.s:67     .text.initPlant:0000000000000024 .L0 
/var/folders/rt/4gvqv631095f64jvm7jfj_000000gn/T//cc7GTxSc.s:71     .text.initPlant:000000000000002a .L0 
/var/folders/rt/4gvqv631095f64jvm7jfj_000000gn/T//cc7GTxSc.s:72     .text.initPlant:000000000000002a .L0 
/var/folders/rt/4gvqv631095f64jvm7jfj_000000gn/T//cc7GTxSc.s:73     .text.initPlant:000000000000002a .L0 
/var/folders/rt/4gvqv631095f64jvm7jfj_000000gn/T//cc7GTxSc.s:74     .text.initPlant:000000000000002a .L0 
/var/folders/rt/4gvqv631095f64jvm7jfj_000000gn/T//cc7GTxSc.s:75     .text.initPlant:000000000000002a .L0 
/var/folders/rt/4gvqv631095f64jvm7jfj_000000gn/T//cc7GTxSc.s:76     .text.initPlant:000000000000002a .L0 
/var/folders/rt/4gvqv631095f64jvm7jfj_000000gn/T//cc7GTxSc.s:77     .text.initPlant:000000000000002a .L0 
/var/folders/rt/4gvqv631095f64jvm7jfj_000000gn/T//cc7GTxSc.s:82     .text.initPlant:000000000000002e .L0 
/var/folders/rt/4gvqv631095f64jvm7jfj_000000gn/T//cc7GTxSc.s:87     .text.initPlant:0000000000000042 .L0 
/var/folders/rt/4gvqv631095f64jvm7jfj_000000gn/T//cc7GTxSc.s:88     .text.initPlant:0000000000000042 .L0 
/var/folders/rt/4gvqv631095f64jvm7jfj_000000gn/T//cc7GTxSc.s:89     .text.initPlant:0000000000000042 .L0 
/var/folders/rt/4gvqv631095f64jvm7jfj_000000gn/T//cc7GTxSc.s:90     .text.initPlant:0000000000000042 .L0 
/var/folders/rt/4gvqv631095f64jvm7jfj_000000gn/T//cc7GTxSc.s:91     .text.initPlant:0000000000000042 .L0 
/var/folders/rt/4gvqv631095f64jvm7jfj_000000gn/T//cc7GTxSc.s:97     .text.initPlant:000000000000004a .L0 
/var/folders/rt/4gvqv631095f64jvm7jfj_000000gn/T//cc7GTxSc.s:100    .text.initPlant:0000000000000052 .L0 
/var/folders/rt/4gvqv631095f64jvm7jfj_000000gn/T//cc7GTxSc.s:106    .text.initPlant:0000000000000066 .L0 
/var/folders/rt/4gvqv631095f64jvm7jfj_000000gn/T//cc7GTxSc.s:107    .text.initPlant:0000000000000066 .L0 
/var/folders/rt/4gvqv631095f64jvm7jfj_000000gn/T//cc7GTxSc.s:110    .text.initPlant:000000000000006e .L0 
/var/folders/rt/4gvqv631095f64jvm7jfj_000000gn/T//cc7GTxSc.s:112    .text.initPlant:0000000000000072 .L0 
/var/folders/rt/4gvqv631095f64jvm7jfj_000000gn/T//cc7GTxSc.s:114    .text.initPlant:0000000000000076 .L0 
/var/folders/rt/4gvqv631095f64jvm7jfj_000000gn/T//cc7GTxSc.s:116    .text.initPlant:0000000000000078 .L0 
/var/folders/rt/4gvqv631095f64jvm7jfj_000000gn/T//cc7GTxSc.s:118    .text.initPlant:000000000000007a .L0 
/var/folders/rt/4gvqv631095f64jvm7jfj_000000gn/T//cc7GTxSc.s:120    .text.initPlant:000000000000007e .L0 
/var/folders/rt/4gvqv631095f64jvm7jfj_000000gn/T//cc7GTxSc.s:122    .text.initPlant:0000000000000082 .L0 
/var/folders/rt/4gvqv631095f64jvm7jfj_000000gn/T//cc7GTxSc.s:124    .text.initPlant:0000000000000086 .L0 
/var/folders/rt/4gvqv631095f64jvm7jfj_000000gn/T//cc7GTxSc.s:126    .text.initPlant:000000000000008a .L0 
/var/folders/rt/4gvqv631095f64jvm7jfj_000000gn/T//cc7GTxSc.s:128    .text.initPlant:000000000000008e .L0 
/var/folders/rt/4gvqv631095f64jvm7jfj_000000gn/T//cc7GTxSc.s:130    .text.initPlant:0000000000000092 .L0 
/var/folders/rt/4gvqv631095f64jvm7jfj_000000gn/T//cc7GTxSc.s:132    .text.initPlant:0000000000000096 .L0 
/var/folders/rt/4gvqv631095f64jvm7jfj_000000gn/T//cc7GTxSc.s:134    .text.initPlant:000000000000009a .L0 
GAS LISTING /var/folders/rt/4gvqv631095f64jvm7jfj_000000gn/T//cc7GTxSc.s 			page 26


/var/folders/rt/4gvqv631095f64jvm7jfj_000000gn/T//cc7GTxSc.s:136    .text.initPlant:000000000000009e .L0 
/var/folders/rt/4gvqv631095f64jvm7jfj_000000gn/T//cc7GTxSc.s:138    .text.initPlant:00000000000000a2 .L0 
/var/folders/rt/4gvqv631095f64jvm7jfj_000000gn/T//cc7GTxSc.s:140    .text.initPlant:00000000000000a6 .L0 
/var/folders/rt/4gvqv631095f64jvm7jfj_000000gn/T//cc7GTxSc.s:142    .text.initPlant:00000000000000aa .L0 
/var/folders/rt/4gvqv631095f64jvm7jfj_000000gn/T//cc7GTxSc.s:144    .text.initPlant:00000000000000ae .L0 
/var/folders/rt/4gvqv631095f64jvm7jfj_000000gn/T//cc7GTxSc.s:147    .text.initPlant:00000000000000b6 .L0 
/var/folders/rt/4gvqv631095f64jvm7jfj_000000gn/T//cc7GTxSc.s:149    .text.initPlant:00000000000000ba .L0 
/var/folders/rt/4gvqv631095f64jvm7jfj_000000gn/T//cc7GTxSc.s:152    .text.initPlant:00000000000000c0 .L0 
/var/folders/rt/4gvqv631095f64jvm7jfj_000000gn/T//cc7GTxSc.s:154    .text.initPlant:00000000000000c4 .L0 
/var/folders/rt/4gvqv631095f64jvm7jfj_000000gn/T//cc7GTxSc.s:156    .text.initPlant:00000000000000c8 .L0 
/var/folders/rt/4gvqv631095f64jvm7jfj_000000gn/T//cc7GTxSc.s:158    .text.initPlant:00000000000000cc .L0 
/var/folders/rt/4gvqv631095f64jvm7jfj_000000gn/T//cc7GTxSc.s:160    .text.initPlant:00000000000000d0 .L0 
/var/folders/rt/4gvqv631095f64jvm7jfj_000000gn/T//cc7GTxSc.s:162    .text.initPlant:00000000000000d4 .L0 
/var/folders/rt/4gvqv631095f64jvm7jfj_000000gn/T//cc7GTxSc.s:164    .text.initPlant:00000000000000d6 .L0 
/var/folders/rt/4gvqv631095f64jvm7jfj_000000gn/T//cc7GTxSc.s:166    .text.initPlant:00000000000000d8 .L0 
/var/folders/rt/4gvqv631095f64jvm7jfj_000000gn/T//cc7GTxSc.s:168    .text.initPlant:00000000000000da .L0 
/var/folders/rt/4gvqv631095f64jvm7jfj_000000gn/T//cc7GTxSc.s:169    .text.initPlant:00000000000000da .L0 
/var/folders/rt/4gvqv631095f64jvm7jfj_000000gn/T//cc7GTxSc.s:172    .text.initPlant:00000000000000de .L0 
/var/folders/rt/4gvqv631095f64jvm7jfj_000000gn/T//cc7GTxSc.s:173    .text.initPlant:00000000000000de .L0 
/var/folders/rt/4gvqv631095f64jvm7jfj_000000gn/T//cc7GTxSc.s:176    .text.initPlant:00000000000000e6 .L0 
/var/folders/rt/4gvqv631095f64jvm7jfj_000000gn/T//cc7GTxSc.s:177    .text.initPlant:00000000000000e6 .L0 
/var/folders/rt/4gvqv631095f64jvm7jfj_000000gn/T//cc7GTxSc.s:178    .text.initPlant:00000000000000e6 .L0 
/var/folders/rt/4gvqv631095f64jvm7jfj_000000gn/T//cc7GTxSc.s:179    .text.initPlant:00000000000000e6 .L0 
/var/folders/rt/4gvqv631095f64jvm7jfj_000000gn/T//cc7GTxSc.s:180    .text.initPlant:00000000000000e6 .L0 
/var/folders/rt/4gvqv631095f64jvm7jfj_000000gn/T//cc7GTxSc.s:182    .text.initPlant:00000000000000ea .L0 
/var/folders/rt/4gvqv631095f64jvm7jfj_000000gn/T//cc7GTxSc.s:183    .text.initPlant:00000000000000ea .L0 
/var/folders/rt/4gvqv631095f64jvm7jfj_000000gn/T//cc7GTxSc.s:185    .text.initPlant:00000000000000ee .L0 
/var/folders/rt/4gvqv631095f64jvm7jfj_000000gn/T//cc7GTxSc.s:186    .text.initPlant:00000000000000ee .L0 
/var/folders/rt/4gvqv631095f64jvm7jfj_000000gn/T//cc7GTxSc.s:188    .text.initPlant:00000000000000f2 .L0 
/var/folders/rt/4gvqv631095f64jvm7jfj_000000gn/T//cc7GTxSc.s:189    .text.initPlant:00000000000000f2 .L0 
/var/folders/rt/4gvqv631095f64jvm7jfj_000000gn/T//cc7GTxSc.s:190    .text.initPlant:00000000000000f2 .L0 
/var/folders/rt/4gvqv631095f64jvm7jfj_000000gn/T//cc7GTxSc.s:191    .text.initPlant:00000000000000f2 .L0 
/var/folders/rt/4gvqv631095f64jvm7jfj_000000gn/T//cc7GTxSc.s:192    .text.initPlant:00000000000000f2 .L0 
/var/folders/rt/4gvqv631095f64jvm7jfj_000000gn/T//cc7GTxSc.s:193    .text.initPlant:00000000000000f2 .L0 
/var/folders/rt/4gvqv631095f64jvm7jfj_000000gn/T//cc7GTxSc.s:195    .text.initPlant:00000000000000f6 .L0 
/var/folders/rt/4gvqv631095f64jvm7jfj_000000gn/T//cc7GTxSc.s:196    .text.initPlant:00000000000000f6 .L0 
/var/folders/rt/4gvqv631095f64jvm7jfj_000000gn/T//cc7GTxSc.s:197    .text.initPlant:00000000000000f6 .L0 
/var/folders/rt/4gvqv631095f64jvm7jfj_000000gn/T//cc7GTxSc.s:198    .text.initPlant:00000000000000f6 .L0 
/var/folders/rt/4gvqv631095f64jvm7jfj_000000gn/T//cc7GTxSc.s:199    .text.initPlant:00000000000000f6 .L0 
/var/folders/rt/4gvqv631095f64jvm7jfj_000000gn/T//cc7GTxSc.s:200    .text.initPlant:00000000000000f6 .L0 
/var/folders/rt/4gvqv631095f64jvm7jfj_000000gn/T//cc7GTxSc.s:201    .text.initPlant:00000000000000f6 .L0 
/var/folders/rt/4gvqv631095f64jvm7jfj_000000gn/T//cc7GTxSc.s:202    .text.initPlant:00000000000000f6 .L0 
/var/folders/rt/4gvqv631095f64jvm7jfj_000000gn/T//cc7GTxSc.s:203    .text.initPlant:00000000000000f6 .L0 
/var/folders/rt/4gvqv631095f64jvm7jfj_000000gn/T//cc7GTxSc.s:204    .text.initPlant:00000000000000f6 .L0 
/var/folders/rt/4gvqv631095f64jvm7jfj_000000gn/T//cc7GTxSc.s:205    .text.initPlant:00000000000000f6 .L0 
/var/folders/rt/4gvqv631095f64jvm7jfj_000000gn/T//cc7GTxSc.s:206    .text.initPlant:00000000000000f6 .L0 
/var/folders/rt/4gvqv631095f64jvm7jfj_000000gn/T//cc7GTxSc.s:209    .text.initPlant:00000000000000fe .L0 
/var/folders/rt/4gvqv631095f64jvm7jfj_000000gn/T//cc7GTxSc.s:210    .text.initPlant:00000000000000fe .L0 
/var/folders/rt/4gvqv631095f64jvm7jfj_000000gn/T//cc7GTxSc.s:212    .text.initPlant:0000000000000100 .L0 
/var/folders/rt/4gvqv631095f64jvm7jfj_000000gn/T//cc7GTxSc.s:213    .text.initPlant:0000000000000104 .L0 
/var/folders/rt/4gvqv631095f64jvm7jfj_000000gn/T//cc7GTxSc.s:215    .text.initPlant:0000000000000108 .L0 
/var/folders/rt/4gvqv631095f64jvm7jfj_000000gn/T//cc7GTxSc.s:218    .text.initPlant:0000000000000108 .L0 
/var/folders/rt/4gvqv631095f64jvm7jfj_000000gn/T//cc7GTxSc.s:222    .text.initPlant:000000000000010c .L0 
/var/folders/rt/4gvqv631095f64jvm7jfj_000000gn/T//cc7GTxSc.s:223    .text.initPlant:0000000000000110 .L0 
/var/folders/rt/4gvqv631095f64jvm7jfj_000000gn/T//cc7GTxSc.s:226    .text.initPlant:0000000000000114 .L0 
/var/folders/rt/4gvqv631095f64jvm7jfj_000000gn/T//cc7GTxSc.s:229    .text.initPlant:0000000000000118 .L0 
/var/folders/rt/4gvqv631095f64jvm7jfj_000000gn/T//cc7GTxSc.s:232    .text.initPlant:000000000000011c .L0 
GAS LISTING /var/folders/rt/4gvqv631095f64jvm7jfj_000000gn/T//cc7GTxSc.s 			page 27


/var/folders/rt/4gvqv631095f64jvm7jfj_000000gn/T//cc7GTxSc.s:235    .text.initPlant:0000000000000120 .L0 
/var/folders/rt/4gvqv631095f64jvm7jfj_000000gn/T//cc7GTxSc.s:238    .text.initPlant:0000000000000124 .L0 
/var/folders/rt/4gvqv631095f64jvm7jfj_000000gn/T//cc7GTxSc.s:242    .text.initPlant:0000000000000128 .L0 
/var/folders/rt/4gvqv631095f64jvm7jfj_000000gn/T//cc7GTxSc.s:248    .text.initPlant:000000000000012c .L0 
/var/folders/rt/4gvqv631095f64jvm7jfj_000000gn/T//cc7GTxSc.s:255    .text.updatePlantStatus:0000000000000000 updatePlantStatus
/var/folders/rt/4gvqv631095f64jvm7jfj_000000gn/T//cc7GTxSc.s:258    .text.updatePlantStatus:0000000000000000 .L0 
/var/folders/rt/4gvqv631095f64jvm7jfj_000000gn/T//cc7GTxSc.s:260    .text.updatePlantStatus:0000000000000000 .L0 
/var/folders/rt/4gvqv631095f64jvm7jfj_000000gn/T//cc7GTxSc.s:261    .text.updatePlantStatus:0000000000000000 .L0 
/var/folders/rt/4gvqv631095f64jvm7jfj_000000gn/T//cc7GTxSc.s:262    .text.updatePlantStatus:0000000000000000 .L0 
/var/folders/rt/4gvqv631095f64jvm7jfj_000000gn/T//cc7GTxSc.s:264    .text.updatePlantStatus:0000000000000004 .L0 
/var/folders/rt/4gvqv631095f64jvm7jfj_000000gn/T//cc7GTxSc.s:266    .text.updatePlantStatus:0000000000000008 .L0 
/var/folders/rt/4gvqv631095f64jvm7jfj_000000gn/T//cc7GTxSc.s:271    .text.updatePlantStatus:0000000000000010 .L0 
/var/folders/rt/4gvqv631095f64jvm7jfj_000000gn/T//cc7GTxSc.s:273    .text.updatePlantStatus:0000000000000014 .L0 
/var/folders/rt/4gvqv631095f64jvm7jfj_000000gn/T//cc7GTxSc.s:284    .text.updatePlantStatus:0000000000000030 .L0 
/var/folders/rt/4gvqv631095f64jvm7jfj_000000gn/T//cc7GTxSc.s:285    .text.updatePlantStatus:0000000000000030 .L0 
/var/folders/rt/4gvqv631095f64jvm7jfj_000000gn/T//cc7GTxSc.s:291    .text.updatePlantStatus:0000000000000038 .L0 
/var/folders/rt/4gvqv631095f64jvm7jfj_000000gn/T//cc7GTxSc.s:301    .text.updatePlantStatus:000000000000004a .L0 
/var/folders/rt/4gvqv631095f64jvm7jfj_000000gn/T//cc7GTxSc.s:302    .text.updatePlantStatus:000000000000004c .L0 
/var/folders/rt/4gvqv631095f64jvm7jfj_000000gn/T//cc7GTxSc.s:310    .text.updatePlantReadings:0000000000000000 updatePlantReadings
/var/folders/rt/4gvqv631095f64jvm7jfj_000000gn/T//cc7GTxSc.s:313    .text.updatePlantReadings:0000000000000000 .L0 
/var/folders/rt/4gvqv631095f64jvm7jfj_000000gn/T//cc7GTxSc.s:315    .text.updatePlantReadings:0000000000000000 .L0 
/var/folders/rt/4gvqv631095f64jvm7jfj_000000gn/T//cc7GTxSc.s:316    .text.updatePlantReadings:0000000000000000 .L0 
/var/folders/rt/4gvqv631095f64jvm7jfj_000000gn/T//cc7GTxSc.s:317    .text.updatePlantReadings:0000000000000000 .L0 
/var/folders/rt/4gvqv631095f64jvm7jfj_000000gn/T//cc7GTxSc.s:319    .text.updatePlantReadings:0000000000000002 .L0 
/var/folders/rt/4gvqv631095f64jvm7jfj_000000gn/T//cc7GTxSc.s:323    .text.updatePlantReadings:0000000000000008 .L0 
/var/folders/rt/4gvqv631095f64jvm7jfj_000000gn/T//cc7GTxSc.s:324    .text.updatePlantReadings:0000000000000008 .L0 
/var/folders/rt/4gvqv631095f64jvm7jfj_000000gn/T//cc7GTxSc.s:325    .text.updatePlantReadings:0000000000000008 .L0 
/var/folders/rt/4gvqv631095f64jvm7jfj_000000gn/T//cc7GTxSc.s:327    .text.updatePlantReadings:0000000000000008 .L0 
/var/folders/rt/4gvqv631095f64jvm7jfj_000000gn/T//cc7GTxSc.s:329    .text.updatePlantReadings:000000000000000a .L0 
/var/folders/rt/4gvqv631095f64jvm7jfj_000000gn/T//cc7GTxSc.s:331    .text.updatePlantReadings:000000000000000c .L0 
/var/folders/rt/4gvqv631095f64jvm7jfj_000000gn/T//cc7GTxSc.s:334    .text.updatePlantReadings:0000000000000010 .L0 
/var/folders/rt/4gvqv631095f64jvm7jfj_000000gn/T//cc7GTxSc.s:335    .text.updatePlantReadings:0000000000000010 .L0 
/var/folders/rt/4gvqv631095f64jvm7jfj_000000gn/T//cc7GTxSc.s:340    .text.updatePlantReadings:000000000000001a .L0 
/var/folders/rt/4gvqv631095f64jvm7jfj_000000gn/T//cc7GTxSc.s:341    .text.updatePlantReadings:000000000000001a .L0 
/var/folders/rt/4gvqv631095f64jvm7jfj_000000gn/T//cc7GTxSc.s:342    .text.updatePlantReadings:000000000000001a .L0 
/var/folders/rt/4gvqv631095f64jvm7jfj_000000gn/T//cc7GTxSc.s:344    .text.updatePlantReadings:000000000000001e .L0 
/var/folders/rt/4gvqv631095f64jvm7jfj_000000gn/T//cc7GTxSc.s:348    .text.updatePlantReadings:0000000000000026 .L0 
/var/folders/rt/4gvqv631095f64jvm7jfj_000000gn/T//cc7GTxSc.s:351    .text.updatePlantReadings:000000000000002a .L0 
/var/folders/rt/4gvqv631095f64jvm7jfj_000000gn/T//cc7GTxSc.s:358    .text.updatePlantReadings:0000000000000036 .L0 
/var/folders/rt/4gvqv631095f64jvm7jfj_000000gn/T//cc7GTxSc.s:362    .text.updatePlantReadings:0000000000000040 .L0 
/var/folders/rt/4gvqv631095f64jvm7jfj_000000gn/T//cc7GTxSc.s:363    .text.updatePlantReadings:0000000000000040 .L0 
/var/folders/rt/4gvqv631095f64jvm7jfj_000000gn/T//cc7GTxSc.s:366    .text.updatePlantReadings:0000000000000048 .L0 
/var/folders/rt/4gvqv631095f64jvm7jfj_000000gn/T//cc7GTxSc.s:367    .text.updatePlantReadings:0000000000000048 .L0 
/var/folders/rt/4gvqv631095f64jvm7jfj_000000gn/T//cc7GTxSc.s:369    .text.updatePlantReadings:000000000000004c .L0 
/var/folders/rt/4gvqv631095f64jvm7jfj_000000gn/T//cc7GTxSc.s:373    .text.updatePlantReadings:0000000000000054 .L0 
/var/folders/rt/4gvqv631095f64jvm7jfj_000000gn/T//cc7GTxSc.s:375    .text.updatePlantReadings:0000000000000058 .L0 
/var/folders/rt/4gvqv631095f64jvm7jfj_000000gn/T//cc7GTxSc.s:376    .text.updatePlantReadings:0000000000000058 .L0 
/var/folders/rt/4gvqv631095f64jvm7jfj_000000gn/T//cc7GTxSc.s:378    .text.updatePlantReadings:000000000000005c .L0 
/var/folders/rt/4gvqv631095f64jvm7jfj_000000gn/T//cc7GTxSc.s:379    .text.updatePlantReadings:000000000000005c .L0 
/var/folders/rt/4gvqv631095f64jvm7jfj_000000gn/T//cc7GTxSc.s:382    .text.updatePlantReadings:0000000000000064 .L0 
/var/folders/rt/4gvqv631095f64jvm7jfj_000000gn/T//cc7GTxSc.s:383    .text.updatePlantReadings:0000000000000064 .L0 
/var/folders/rt/4gvqv631095f64jvm7jfj_000000gn/T//cc7GTxSc.s:390    .text.updatePlantReadings:000000000000006a .L0 
/var/folders/rt/4gvqv631095f64jvm7jfj_000000gn/T//cc7GTxSc.s:392    .text.updatePlantReadings:000000000000006c .L0 
/var/folders/rt/4gvqv631095f64jvm7jfj_000000gn/T//cc7GTxSc.s:393    .text.updatePlantReadings:000000000000006e .L0 
/var/folders/rt/4gvqv631095f64jvm7jfj_000000gn/T//cc7GTxSc.s:394    .text.updatePlantReadings:000000000000006e .L0 
/var/folders/rt/4gvqv631095f64jvm7jfj_000000gn/T//cc7GTxSc.s:397    .text.updatePlantReadings:0000000000000070 .L0 
/var/folders/rt/4gvqv631095f64jvm7jfj_000000gn/T//cc7GTxSc.s:399    .text.updatePlantReadings:0000000000000072 .L0 
GAS LISTING /var/folders/rt/4gvqv631095f64jvm7jfj_000000gn/T//cc7GTxSc.s 			page 28


/var/folders/rt/4gvqv631095f64jvm7jfj_000000gn/T//cc7GTxSc.s:402    .text.updatePlantReadings:0000000000000074 .L0 
/var/folders/rt/4gvqv631095f64jvm7jfj_000000gn/T//cc7GTxSc.s:404    .text.updatePlantReadings:0000000000000074 .L0 
/var/folders/rt/4gvqv631095f64jvm7jfj_000000gn/T//cc7GTxSc.s:408    .text.updatePlantReadings:000000000000007c .L0 
/var/folders/rt/4gvqv631095f64jvm7jfj_000000gn/T//cc7GTxSc.s:412    .text.updatePlantReadings:000000000000007c .L0 
/var/folders/rt/4gvqv631095f64jvm7jfj_000000gn/T//cc7GTxSc.s:413    .text.updatePlantReadings:000000000000007c .L0 
/var/folders/rt/4gvqv631095f64jvm7jfj_000000gn/T//cc7GTxSc.s:417    .text.updatePlantReadings:0000000000000082 .L0 
/var/folders/rt/4gvqv631095f64jvm7jfj_000000gn/T//cc7GTxSc.s:420    .text.updatePlantReadings:000000000000008a .L0 
/var/folders/rt/4gvqv631095f64jvm7jfj_000000gn/T//cc7GTxSc.s:421    .text.updatePlantReadings:000000000000008a .L0 
/var/folders/rt/4gvqv631095f64jvm7jfj_000000gn/T//cc7GTxSc.s:428    .text.updatePlantReadings:0000000000000090 .L0 
/var/folders/rt/4gvqv631095f64jvm7jfj_000000gn/T//cc7GTxSc.s:429    .text.updatePlantReadings:0000000000000090 .L0 
/var/folders/rt/4gvqv631095f64jvm7jfj_000000gn/T//cc7GTxSc.s:436    .text.updatePlantReadings:00000000000000a4 .L0 
/var/folders/rt/4gvqv631095f64jvm7jfj_000000gn/T//cc7GTxSc.s:441    .text.updatePlantReadings:00000000000000a6 .L0 
/var/folders/rt/4gvqv631095f64jvm7jfj_000000gn/T//cc7GTxSc.s:442    .text.updatePlantReadings:00000000000000a6 .L0 
/var/folders/rt/4gvqv631095f64jvm7jfj_000000gn/T//cc7GTxSc.s:447    .text.updatePlantReadings:00000000000000ac .L0 
/var/folders/rt/4gvqv631095f64jvm7jfj_000000gn/T//cc7GTxSc.s:450    .text.updatePlantReadings:00000000000000b0 .L0 
/var/folders/rt/4gvqv631095f64jvm7jfj_000000gn/T//cc7GTxSc.s:451    .text.updatePlantReadings:00000000000000b0 .L0 
/var/folders/rt/4gvqv631095f64jvm7jfj_000000gn/T//cc7GTxSc.s:454    .text.updatePlantReadings:00000000000000b6 .L0 
/var/folders/rt/4gvqv631095f64jvm7jfj_000000gn/T//cc7GTxSc.s:455    .text.updatePlantReadings:00000000000000b6 .L0 
/var/folders/rt/4gvqv631095f64jvm7jfj_000000gn/T//cc7GTxSc.s:460    .text.updatePlantReadings:00000000000000be .L0 
/var/folders/rt/4gvqv631095f64jvm7jfj_000000gn/T//cc7GTxSc.s:461    .text.updatePlantReadings:00000000000000be .L0 
/var/folders/rt/4gvqv631095f64jvm7jfj_000000gn/T//cc7GTxSc.s:466    .text.updatePlantReadings:00000000000000c6 .L0 
/var/folders/rt/4gvqv631095f64jvm7jfj_000000gn/T//cc7GTxSc.s:467    .text.updatePlantReadings:00000000000000c6 .L0 
/var/folders/rt/4gvqv631095f64jvm7jfj_000000gn/T//cc7GTxSc.s:471    .text.updatePlantReadings:00000000000000cc .L0 
/var/folders/rt/4gvqv631095f64jvm7jfj_000000gn/T//cc7GTxSc.s:474    .text.updatePlantReadings:00000000000000d0 .L0 
/var/folders/rt/4gvqv631095f64jvm7jfj_000000gn/T//cc7GTxSc.s:475    .text.updatePlantReadings:00000000000000d0 .L0 
/var/folders/rt/4gvqv631095f64jvm7jfj_000000gn/T//cc7GTxSc.s:477    .text.updatePlantReadings:00000000000000d4 .L0 
/var/folders/rt/4gvqv631095f64jvm7jfj_000000gn/T//cc7GTxSc.s:478    .text.updatePlantReadings:00000000000000d4 .L0 
/var/folders/rt/4gvqv631095f64jvm7jfj_000000gn/T//cc7GTxSc.s:481    .text.updatePlantReadings:00000000000000d8 .L0 
/var/folders/rt/4gvqv631095f64jvm7jfj_000000gn/T//cc7GTxSc.s:484    .text.updatePlantReadings:00000000000000de .L0 
/var/folders/rt/4gvqv631095f64jvm7jfj_000000gn/T//cc7GTxSc.s:485    .text.updatePlantReadings:00000000000000de .L0 
/var/folders/rt/4gvqv631095f64jvm7jfj_000000gn/T//cc7GTxSc.s:493    .text.updatePlantReadings:00000000000000e6 .L0 
/var/folders/rt/4gvqv631095f64jvm7jfj_000000gn/T//cc7GTxSc.s:494    .text.updatePlantReadings:00000000000000e6 .L0 
/var/folders/rt/4gvqv631095f64jvm7jfj_000000gn/T//cc7GTxSc.s:497    .text.updatePlantReadings:00000000000000e8 .L0 
/var/folders/rt/4gvqv631095f64jvm7jfj_000000gn/T//cc7GTxSc.s:498    .text.updatePlantReadings:00000000000000e8 .L0 
/var/folders/rt/4gvqv631095f64jvm7jfj_000000gn/T//cc7GTxSc.s:502    .text.updatePlantReadings:00000000000000f2 .L0 
/var/folders/rt/4gvqv631095f64jvm7jfj_000000gn/T//cc7GTxSc.s:503    .text.updatePlantReadings:00000000000000f2 .L0 
/var/folders/rt/4gvqv631095f64jvm7jfj_000000gn/T//cc7GTxSc.s:504    .text.updatePlantReadings:00000000000000f2 .L0 
/var/folders/rt/4gvqv631095f64jvm7jfj_000000gn/T//cc7GTxSc.s:506    .text.updatePlantReadings:00000000000000f6 .L0 
/var/folders/rt/4gvqv631095f64jvm7jfj_000000gn/T//cc7GTxSc.s:510    .text.updatePlantReadings:00000000000000fc .L0 
/var/folders/rt/4gvqv631095f64jvm7jfj_000000gn/T//cc7GTxSc.s:511    .text.updatePlantReadings:00000000000000fc .L0 
/var/folders/rt/4gvqv631095f64jvm7jfj_000000gn/T//cc7GTxSc.s:520    .text.updatePlantReadings:000000000000010a .L0 
/var/folders/rt/4gvqv631095f64jvm7jfj_000000gn/T//cc7GTxSc.s:521    .text.updatePlantReadings:000000000000010a .L0 
/var/folders/rt/4gvqv631095f64jvm7jfj_000000gn/T//cc7GTxSc.s:524    .text.updatePlantReadings:0000000000000112 .L0 
/var/folders/rt/4gvqv631095f64jvm7jfj_000000gn/T//cc7GTxSc.s:525    .text.updatePlantReadings:0000000000000112 .L0 
/var/folders/rt/4gvqv631095f64jvm7jfj_000000gn/T//cc7GTxSc.s:527    .text.updatePlantReadings:0000000000000116 .L0 
/var/folders/rt/4gvqv631095f64jvm7jfj_000000gn/T//cc7GTxSc.s:533    .text.updatePlantReadings:0000000000000120 .L0 
/var/folders/rt/4gvqv631095f64jvm7jfj_000000gn/T//cc7GTxSc.s:534    .text.updatePlantReadings:0000000000000120 .L0 
/var/folders/rt/4gvqv631095f64jvm7jfj_000000gn/T//cc7GTxSc.s:540    .text.updatePlantReadings:000000000000012e .L0 
/var/folders/rt/4gvqv631095f64jvm7jfj_000000gn/T//cc7GTxSc.s:545    .text.updatePlantReadings:0000000000000130 .L0 
/var/folders/rt/4gvqv631095f64jvm7jfj_000000gn/T//cc7GTxSc.s:546    .text.updatePlantReadings:0000000000000130 .L0 
/var/folders/rt/4gvqv631095f64jvm7jfj_000000gn/T//cc7GTxSc.s:551    .text.updatePlantReadings:0000000000000136 .L0 
/var/folders/rt/4gvqv631095f64jvm7jfj_000000gn/T//cc7GTxSc.s:554    .text.updatePlantReadings:000000000000013a .L0 
/var/folders/rt/4gvqv631095f64jvm7jfj_000000gn/T//cc7GTxSc.s:555    .text.updatePlantReadings:000000000000013a .L0 
/var/folders/rt/4gvqv631095f64jvm7jfj_000000gn/T//cc7GTxSc.s:558    .text.updatePlantReadings:0000000000000140 .L0 
/var/folders/rt/4gvqv631095f64jvm7jfj_000000gn/T//cc7GTxSc.s:559    .text.updatePlantReadings:0000000000000140 .L0 
/var/folders/rt/4gvqv631095f64jvm7jfj_000000gn/T//cc7GTxSc.s:564    .text.updatePlantReadings:0000000000000146 .L0 
/var/folders/rt/4gvqv631095f64jvm7jfj_000000gn/T//cc7GTxSc.s:565    .text.updatePlantReadings:0000000000000146 .L0 
GAS LISTING /var/folders/rt/4gvqv631095f64jvm7jfj_000000gn/T//cc7GTxSc.s 			page 29


/var/folders/rt/4gvqv631095f64jvm7jfj_000000gn/T//cc7GTxSc.s:570    .text.updatePlantReadings:000000000000014e .L0 
/var/folders/rt/4gvqv631095f64jvm7jfj_000000gn/T//cc7GTxSc.s:571    .text.updatePlantReadings:000000000000014e .L0 
/var/folders/rt/4gvqv631095f64jvm7jfj_000000gn/T//cc7GTxSc.s:575    .text.updatePlantReadings:0000000000000154 .L0 
/var/folders/rt/4gvqv631095f64jvm7jfj_000000gn/T//cc7GTxSc.s:578    .text.updatePlantReadings:0000000000000158 .L0 
/var/folders/rt/4gvqv631095f64jvm7jfj_000000gn/T//cc7GTxSc.s:579    .text.updatePlantReadings:0000000000000158 .L0 
/var/folders/rt/4gvqv631095f64jvm7jfj_000000gn/T//cc7GTxSc.s:581    .text.updatePlantReadings:000000000000015c .L0 
/var/folders/rt/4gvqv631095f64jvm7jfj_000000gn/T//cc7GTxSc.s:582    .text.updatePlantReadings:000000000000015c .L0 
/var/folders/rt/4gvqv631095f64jvm7jfj_000000gn/T//cc7GTxSc.s:585    .text.updatePlantReadings:0000000000000160 .L0 
/var/folders/rt/4gvqv631095f64jvm7jfj_000000gn/T//cc7GTxSc.s:588    .text.updatePlantReadings:0000000000000166 .L0 
/var/folders/rt/4gvqv631095f64jvm7jfj_000000gn/T//cc7GTxSc.s:589    .text.updatePlantReadings:0000000000000166 .L0 
/var/folders/rt/4gvqv631095f64jvm7jfj_000000gn/T//cc7GTxSc.s:597    .text.updatePlantReadings:000000000000016e .L0 
/var/folders/rt/4gvqv631095f64jvm7jfj_000000gn/T//cc7GTxSc.s:598    .text.updatePlantReadings:000000000000016e .L0 
/var/folders/rt/4gvqv631095f64jvm7jfj_000000gn/T//cc7GTxSc.s:602    .text.updatePlantReadings:0000000000000174 .L0 
/var/folders/rt/4gvqv631095f64jvm7jfj_000000gn/T//cc7GTxSc.s:603    .text.updatePlantReadings:0000000000000174 .L0 
/var/folders/rt/4gvqv631095f64jvm7jfj_000000gn/T//cc7GTxSc.s:606    .text.updatePlantReadings:000000000000017c .L0 
/var/folders/rt/4gvqv631095f64jvm7jfj_000000gn/T//cc7GTxSc.s:607    .text.updatePlantReadings:000000000000017c .L0 
/var/folders/rt/4gvqv631095f64jvm7jfj_000000gn/T//cc7GTxSc.s:608    .text.updatePlantReadings:000000000000017c .L0 
/var/folders/rt/4gvqv631095f64jvm7jfj_000000gn/T//cc7GTxSc.s:610    .text.updatePlantReadings:0000000000000180 .L0 
/var/folders/rt/4gvqv631095f64jvm7jfj_000000gn/T//cc7GTxSc.s:614    .text.updatePlantReadings:0000000000000186 .L0 
/var/folders/rt/4gvqv631095f64jvm7jfj_000000gn/T//cc7GTxSc.s:615    .text.updatePlantReadings:0000000000000186 .L0 
/var/folders/rt/4gvqv631095f64jvm7jfj_000000gn/T//cc7GTxSc.s:619    .text.updatePlantReadings:000000000000018c .L0 
/var/folders/rt/4gvqv631095f64jvm7jfj_000000gn/T//cc7GTxSc.s:623    .text.updatePlantReadings:0000000000000194 .L0 
/var/folders/rt/4gvqv631095f64jvm7jfj_000000gn/T//cc7GTxSc.s:629    .text.updatePlantReadings:000000000000019e .L0 
/var/folders/rt/4gvqv631095f64jvm7jfj_000000gn/T//cc7GTxSc.s:630    .text.updatePlantReadings:000000000000019e .L0 
/var/folders/rt/4gvqv631095f64jvm7jfj_000000gn/T//cc7GTxSc.s:633    .text.updatePlantReadings:00000000000001a6 .L0 
/var/folders/rt/4gvqv631095f64jvm7jfj_000000gn/T//cc7GTxSc.s:634    .text.updatePlantReadings:00000000000001a6 .L0 
/var/folders/rt/4gvqv631095f64jvm7jfj_000000gn/T//cc7GTxSc.s:636    .text.updatePlantReadings:00000000000001aa .L0 
/var/folders/rt/4gvqv631095f64jvm7jfj_000000gn/T//cc7GTxSc.s:642    .text.updatePlantReadings:00000000000001b4 .L0 
/var/folders/rt/4gvqv631095f64jvm7jfj_000000gn/T//cc7GTxSc.s:643    .text.updatePlantReadings:00000000000001b4 .L0 
/var/folders/rt/4gvqv631095f64jvm7jfj_000000gn/T//cc7GTxSc.s:649    .text.updatePlantReadings:00000000000001c2 .L0 
/var/folders/rt/4gvqv631095f64jvm7jfj_000000gn/T//cc7GTxSc.s:654    .text.updatePlantReadings:00000000000001c4 .L0 
/var/folders/rt/4gvqv631095f64jvm7jfj_000000gn/T//cc7GTxSc.s:655    .text.updatePlantReadings:00000000000001c4 .L0 
/var/folders/rt/4gvqv631095f64jvm7jfj_000000gn/T//cc7GTxSc.s:660    .text.updatePlantReadings:00000000000001ca .L0 
/var/folders/rt/4gvqv631095f64jvm7jfj_000000gn/T//cc7GTxSc.s:663    .text.updatePlantReadings:00000000000001ce .L0 
/var/folders/rt/4gvqv631095f64jvm7jfj_000000gn/T//cc7GTxSc.s:664    .text.updatePlantReadings:00000000000001ce .L0 
/var/folders/rt/4gvqv631095f64jvm7jfj_000000gn/T//cc7GTxSc.s:667    .text.updatePlantReadings:00000000000001d4 .L0 
/var/folders/rt/4gvqv631095f64jvm7jfj_000000gn/T//cc7GTxSc.s:668    .text.updatePlantReadings:00000000000001d4 .L0 
/var/folders/rt/4gvqv631095f64jvm7jfj_000000gn/T//cc7GTxSc.s:673    .text.updatePlantReadings:00000000000001da .L0 
/var/folders/rt/4gvqv631095f64jvm7jfj_000000gn/T//cc7GTxSc.s:674    .text.updatePlantReadings:00000000000001da .L0 
/var/folders/rt/4gvqv631095f64jvm7jfj_000000gn/T//cc7GTxSc.s:679    .text.updatePlantReadings:00000000000001e2 .L0 
/var/folders/rt/4gvqv631095f64jvm7jfj_000000gn/T//cc7GTxSc.s:680    .text.updatePlantReadings:00000000000001e2 .L0 
/var/folders/rt/4gvqv631095f64jvm7jfj_000000gn/T//cc7GTxSc.s:684    .text.updatePlantReadings:00000000000001e8 .L0 
/var/folders/rt/4gvqv631095f64jvm7jfj_000000gn/T//cc7GTxSc.s:687    .text.updatePlantReadings:00000000000001ec .L0 
/var/folders/rt/4gvqv631095f64jvm7jfj_000000gn/T//cc7GTxSc.s:688    .text.updatePlantReadings:00000000000001ec .L0 
/var/folders/rt/4gvqv631095f64jvm7jfj_000000gn/T//cc7GTxSc.s:690    .text.updatePlantReadings:00000000000001f0 .L0 
/var/folders/rt/4gvqv631095f64jvm7jfj_000000gn/T//cc7GTxSc.s:691    .text.updatePlantReadings:00000000000001f0 .L0 
/var/folders/rt/4gvqv631095f64jvm7jfj_000000gn/T//cc7GTxSc.s:694    .text.updatePlantReadings:00000000000001f4 .L0 
/var/folders/rt/4gvqv631095f64jvm7jfj_000000gn/T//cc7GTxSc.s:697    .text.updatePlantReadings:00000000000001fa .L0 
/var/folders/rt/4gvqv631095f64jvm7jfj_000000gn/T//cc7GTxSc.s:698    .text.updatePlantReadings:00000000000001fa .L0 
/var/folders/rt/4gvqv631095f64jvm7jfj_000000gn/T//cc7GTxSc.s:703    .text.updatePlantReadings:0000000000000202 .L0 
/var/folders/rt/4gvqv631095f64jvm7jfj_000000gn/T//cc7GTxSc.s:710    .text.applyGreenFingers:0000000000000000 applyGreenFingers
/var/folders/rt/4gvqv631095f64jvm7jfj_000000gn/T//cc7GTxSc.s:713    .text.applyGreenFingers:0000000000000000 .L0 
/var/folders/rt/4gvqv631095f64jvm7jfj_000000gn/T//cc7GTxSc.s:715    .text.applyGreenFingers:0000000000000000 .L0 
/var/folders/rt/4gvqv631095f64jvm7jfj_000000gn/T//cc7GTxSc.s:716    .text.applyGreenFingers:0000000000000000 .L0 
/var/folders/rt/4gvqv631095f64jvm7jfj_000000gn/T//cc7GTxSc.s:717    .text.applyGreenFingers:0000000000000000 .L0 
/var/folders/rt/4gvqv631095f64jvm7jfj_000000gn/T//cc7GTxSc.s:718    .text.applyGreenFingers:0000000000000000 .L0 
/var/folders/rt/4gvqv631095f64jvm7jfj_000000gn/T//cc7GTxSc.s:720    .text.applyGreenFingers:0000000000000002 .L0 
GAS LISTING /var/folders/rt/4gvqv631095f64jvm7jfj_000000gn/T//cc7GTxSc.s 			page 30


/var/folders/rt/4gvqv631095f64jvm7jfj_000000gn/T//cc7GTxSc.s:726    .text.applyGreenFingers:000000000000000c .L0 
/var/folders/rt/4gvqv631095f64jvm7jfj_000000gn/T//cc7GTxSc.s:727    .text.applyGreenFingers:000000000000000c .L0 
/var/folders/rt/4gvqv631095f64jvm7jfj_000000gn/T//cc7GTxSc.s:728    .text.applyGreenFingers:000000000000000c .L0 
/var/folders/rt/4gvqv631095f64jvm7jfj_000000gn/T//cc7GTxSc.s:729    .text.applyGreenFingers:000000000000000c .L0 
/var/folders/rt/4gvqv631095f64jvm7jfj_000000gn/T//cc7GTxSc.s:730    .text.applyGreenFingers:000000000000000c .L0 
/var/folders/rt/4gvqv631095f64jvm7jfj_000000gn/T//cc7GTxSc.s:732    .text.applyGreenFingers:000000000000000c .L0 
/var/folders/rt/4gvqv631095f64jvm7jfj_000000gn/T//cc7GTxSc.s:735    .text.applyGreenFingers:0000000000000010 .L0 
/var/folders/rt/4gvqv631095f64jvm7jfj_000000gn/T//cc7GTxSc.s:741    .text.applyGreenFingers:000000000000001a .L0 
/var/folders/rt/4gvqv631095f64jvm7jfj_000000gn/T//cc7GTxSc.s:742    .text.applyGreenFingers:000000000000001a .L0 
/var/folders/rt/4gvqv631095f64jvm7jfj_000000gn/T//cc7GTxSc.s:743    .text.applyGreenFingers:000000000000001a .L0 
/var/folders/rt/4gvqv631095f64jvm7jfj_000000gn/T//cc7GTxSc.s:746    .text.applyGreenFingers:000000000000001c .L0 
/var/folders/rt/4gvqv631095f64jvm7jfj_000000gn/T//cc7GTxSc.s:751    .text.applyGreenFingers:000000000000001e .L0 
/var/folders/rt/4gvqv631095f64jvm7jfj_000000gn/T//cc7GTxSc.s:754    .text.applyGreenFingers:0000000000000022 .L0 
/var/folders/rt/4gvqv631095f64jvm7jfj_000000gn/T//cc7GTxSc.s:755    .text.applyGreenFingers:0000000000000024 .L0 
/var/folders/rt/4gvqv631095f64jvm7jfj_000000gn/T//cc7GTxSc.s:756    .text.applyGreenFingers:0000000000000024 .L0 
/var/folders/rt/4gvqv631095f64jvm7jfj_000000gn/T//cc7GTxSc.s:758    .text.applyGreenFingers:0000000000000026 .L0 
/var/folders/rt/4gvqv631095f64jvm7jfj_000000gn/T//cc7GTxSc.s:760    .text.applyGreenFingers:0000000000000028 .L0 
/var/folders/rt/4gvqv631095f64jvm7jfj_000000gn/T//cc7GTxSc.s:763    .text.applyGreenFingers:000000000000002a .L0 
/var/folders/rt/4gvqv631095f64jvm7jfj_000000gn/T//cc7GTxSc.s:766    .text.applyGreenFingers:000000000000002c .L0 
/var/folders/rt/4gvqv631095f64jvm7jfj_000000gn/T//cc7GTxSc.s:770    .text.applyGreenFingers:000000000000002e .L0 
/var/folders/rt/4gvqv631095f64jvm7jfj_000000gn/T//cc7GTxSc.s:775    .text.applyGreenFingers:0000000000000030 .L0 
/var/folders/rt/4gvqv631095f64jvm7jfj_000000gn/T//cc7GTxSc.s:778    .text.applyGreenFingers:0000000000000030 .L0 
/var/folders/rt/4gvqv631095f64jvm7jfj_000000gn/T//cc7GTxSc.s:779    .text.applyGreenFingers:0000000000000030 .L0 
/var/folders/rt/4gvqv631095f64jvm7jfj_000000gn/T//cc7GTxSc.s:781    .text.applyGreenFingers:0000000000000034 .L0 
/var/folders/rt/4gvqv631095f64jvm7jfj_000000gn/T//cc7GTxSc.s:783    .text.applyGreenFingers:0000000000000038 .L0 
/var/folders/rt/4gvqv631095f64jvm7jfj_000000gn/T//cc7GTxSc.s:788    .text.applyGreenFingers:0000000000000040 .L0 
/var/folders/rt/4gvqv631095f64jvm7jfj_000000gn/T//cc7GTxSc.s:790    .text.applyGreenFingers:0000000000000044 .L0 
/var/folders/rt/4gvqv631095f64jvm7jfj_000000gn/T//cc7GTxSc.s:792    .text.applyGreenFingers:0000000000000048 .L0 
/var/folders/rt/4gvqv631095f64jvm7jfj_000000gn/T//cc7GTxSc.s:795    .text.applyGreenFingers:000000000000004a .L0 
/var/folders/rt/4gvqv631095f64jvm7jfj_000000gn/T//cc7GTxSc.s:802    .text.applyGreenFingers:0000000000000058 .L0 
/var/folders/rt/4gvqv631095f64jvm7jfj_000000gn/T//cc7GTxSc.s:803    .text.applyGreenFingers:0000000000000058 .L0 
/var/folders/rt/4gvqv631095f64jvm7jfj_000000gn/T//cc7GTxSc.s:807    .text.applyGreenFingers:000000000000005a .L0 
/var/folders/rt/4gvqv631095f64jvm7jfj_000000gn/T//cc7GTxSc.s:808    .text.applyGreenFingers:000000000000005a .L0 
/var/folders/rt/4gvqv631095f64jvm7jfj_000000gn/T//cc7GTxSc.s:810    .text.applyGreenFingers:000000000000005e .L0 
/var/folders/rt/4gvqv631095f64jvm7jfj_000000gn/T//cc7GTxSc.s:812    .text.applyGreenFingers:0000000000000062 .L0 
/var/folders/rt/4gvqv631095f64jvm7jfj_000000gn/T//cc7GTxSc.s:817    .text.applyGreenFingers:000000000000006a .L0 
/var/folders/rt/4gvqv631095f64jvm7jfj_000000gn/T//cc7GTxSc.s:819    .text.applyGreenFingers:000000000000006e .L0 
/var/folders/rt/4gvqv631095f64jvm7jfj_000000gn/T//cc7GTxSc.s:821    .text.applyGreenFingers:0000000000000072 .L0 
/var/folders/rt/4gvqv631095f64jvm7jfj_000000gn/T//cc7GTxSc.s:824    .text.applyGreenFingers:0000000000000074 .L0 
/var/folders/rt/4gvqv631095f64jvm7jfj_000000gn/T//cc7GTxSc.s:831    .text.applyGreenFingers:0000000000000082 .L0 
/var/folders/rt/4gvqv631095f64jvm7jfj_000000gn/T//cc7GTxSc.s:832    .text.applyGreenFingers:0000000000000082 .L0 
/var/folders/rt/4gvqv631095f64jvm7jfj_000000gn/T//cc7GTxSc.s:836    .text.applyGreenFingers:0000000000000084 .L0 
/var/folders/rt/4gvqv631095f64jvm7jfj_000000gn/T//cc7GTxSc.s:837    .text.applyGreenFingers:0000000000000084 .L0 
/var/folders/rt/4gvqv631095f64jvm7jfj_000000gn/T//cc7GTxSc.s:839    .text.applyGreenFingers:0000000000000088 .L0 
/var/folders/rt/4gvqv631095f64jvm7jfj_000000gn/T//cc7GTxSc.s:841    .text.applyGreenFingers:000000000000008c .L0 
/var/folders/rt/4gvqv631095f64jvm7jfj_000000gn/T//cc7GTxSc.s:846    .text.applyGreenFingers:0000000000000096 .L0 
/var/folders/rt/4gvqv631095f64jvm7jfj_000000gn/T//cc7GTxSc.s:848    .text.applyGreenFingers:000000000000009a .L0 
/var/folders/rt/4gvqv631095f64jvm7jfj_000000gn/T//cc7GTxSc.s:850    .text.applyGreenFingers:000000000000009e .L0 
/var/folders/rt/4gvqv631095f64jvm7jfj_000000gn/T//cc7GTxSc.s:853    .text.applyGreenFingers:00000000000000a0 .L0 
/var/folders/rt/4gvqv631095f64jvm7jfj_000000gn/T//cc7GTxSc.s:860    .text.applyGreenFingers:00000000000000ae .L0 
/var/folders/rt/4gvqv631095f64jvm7jfj_000000gn/T//cc7GTxSc.s:861    .text.applyGreenFingers:00000000000000ae .L0 
/var/folders/rt/4gvqv631095f64jvm7jfj_000000gn/T//cc7GTxSc.s:865    .text.applyGreenFingers:00000000000000b0 .L0 
/var/folders/rt/4gvqv631095f64jvm7jfj_000000gn/T//cc7GTxSc.s:870    .text.applyGreenFingers:00000000000000b8 .L0 
/var/folders/rt/4gvqv631095f64jvm7jfj_000000gn/T//cc7GTxSc.s:35     .text.initSensorReading:0000000000000006 .L0 
/var/folders/rt/4gvqv631095f64jvm7jfj_000000gn/T//cc7GTxSc.s:251    .text.initPlant:000000000000012c .L0 
/var/folders/rt/4gvqv631095f64jvm7jfj_000000gn/T//cc7GTxSc.s:306    .text.updatePlantStatus:000000000000004c .L0 
/var/folders/rt/4gvqv631095f64jvm7jfj_000000gn/T//cc7GTxSc.s:706    .text.updatePlantReadings:0000000000000202 .L0 
GAS LISTING /var/folders/rt/4gvqv631095f64jvm7jfj_000000gn/T//cc7GTxSc.s 			page 31


/var/folders/rt/4gvqv631095f64jvm7jfj_000000gn/T//cc7GTxSc.s:873    .text.applyGreenFingers:00000000000000b8 .L0 
                     .debug_frame:0000000000000000 .L0 
/var/folders/rt/4gvqv631095f64jvm7jfj_000000gn/T//cc7GTxSc.s:875    .rodata.initPlant.str1.4:0000000000000000 .LC0
/var/folders/rt/4gvqv631095f64jvm7jfj_000000gn/T//cc7GTxSc.s:878    .rodata.initPlant.str1.4:0000000000000004 .LC1
/var/folders/rt/4gvqv631095f64jvm7jfj_000000gn/T//cc7GTxSc.s:246    .text.initPlant:000000000000012a .L7
/var/folders/rt/4gvqv631095f64jvm7jfj_000000gn/T//cc7GTxSc.s:882    .rodata.updatePlantStatus.str1.4:0000000000000000 .LC2
/var/folders/rt/4gvqv631095f64jvm7jfj_000000gn/T//cc7GTxSc.s:884    .rodata.updatePlantStatus.str1.4:0000000000000010 .LC3
/var/folders/rt/4gvqv631095f64jvm7jfj_000000gn/T//cc7GTxSc.s:282    .text.updatePlantStatus:0000000000000030 .L11
/var/folders/rt/4gvqv631095f64jvm7jfj_000000gn/T//cc7GTxSc.s:297    .text.updatePlantStatus:000000000000004a .L10
/var/folders/rt/4gvqv631095f64jvm7jfj_000000gn/T//cc7GTxSc.s:489    .text.updatePlantReadings:00000000000000e6 .L14
/var/folders/rt/4gvqv631095f64jvm7jfj_000000gn/T//cc7GTxSc.s:386    .text.updatePlantReadings:000000000000006a .L22
/var/folders/rt/4gvqv631095f64jvm7jfj_000000gn/T//cc7GTxSc.s:354    .text.updatePlantReadings:0000000000000030 .L16
/var/folders/rt/4gvqv631095f64jvm7jfj_000000gn/T//cc7GTxSc.s:406    .text.updatePlantReadings:000000000000007c .L17
/var/folders/rt/4gvqv631095f64jvm7jfj_000000gn/T//cc7GTxSc.s:425    .text.updatePlantReadings:0000000000000090 .L19
/var/folders/rt/4gvqv631095f64jvm7jfj_000000gn/T//cc7GTxSc.s:437    .text.updatePlantReadings:00000000000000a6 .L20
/var/folders/rt/4gvqv631095f64jvm7jfj_000000gn/T//cc7GTxSc.s:464    .text.updatePlantReadings:00000000000000c6 .L21
/var/folders/rt/4gvqv631095f64jvm7jfj_000000gn/T//cc7GTxSc.s:593    .text.updatePlantReadings:000000000000016e .L23
/var/folders/rt/4gvqv631095f64jvm7jfj_000000gn/T//cc7GTxSc.s:517    .text.updatePlantReadings:0000000000000108 .L24
/var/folders/rt/4gvqv631095f64jvm7jfj_000000gn/T//cc7GTxSc.s:541    .text.updatePlantReadings:0000000000000130 .L25
/var/folders/rt/4gvqv631095f64jvm7jfj_000000gn/T//cc7GTxSc.s:568    .text.updatePlantReadings:000000000000014e .L26
/var/folders/rt/4gvqv631095f64jvm7jfj_000000gn/T//cc7GTxSc.s:626    .text.updatePlantReadings:000000000000019c .L27
/var/folders/rt/4gvqv631095f64jvm7jfj_000000gn/T//cc7GTxSc.s:650    .text.updatePlantReadings:00000000000001c4 .L28
/var/folders/rt/4gvqv631095f64jvm7jfj_000000gn/T//cc7GTxSc.s:677    .text.updatePlantReadings:00000000000001e2 .L29
/var/folders/rt/4gvqv631095f64jvm7jfj_000000gn/T//cc7GTxSc.s:773    .text.applyGreenFingers:0000000000000030 .L45
/var/folders/rt/4gvqv631095f64jvm7jfj_000000gn/T//cc7GTxSc.s:793    .text.applyGreenFingers:000000000000004a .L39
/var/folders/rt/4gvqv631095f64jvm7jfj_000000gn/T//cc7GTxSc.s:805    .text.applyGreenFingers:000000000000005a .L40
/var/folders/rt/4gvqv631095f64jvm7jfj_000000gn/T//cc7GTxSc.s:822    .text.applyGreenFingers:0000000000000074 .L41
/var/folders/rt/4gvqv631095f64jvm7jfj_000000gn/T//cc7GTxSc.s:834    .text.applyGreenFingers:0000000000000084 .L42
/var/folders/rt/4gvqv631095f64jvm7jfj_000000gn/T//cc7GTxSc.s:851    .text.applyGreenFingers:00000000000000a0 .L43
/var/folders/rt/4gvqv631095f64jvm7jfj_000000gn/T//cc7GTxSc.s:863    .text.applyGreenFingers:00000000000000b0 .L44
/var/folders/rt/4gvqv631095f64jvm7jfj_000000gn/T//cc7GTxSc.s:748    .text.applyGreenFingers:000000000000001e .L38
/var/folders/rt/4gvqv631095f64jvm7jfj_000000gn/T//cc7GTxSc.s:3414   .debug_abbrev:0000000000000000 .Ldebug_abbrev0
/var/folders/rt/4gvqv631095f64jvm7jfj_000000gn/T//cc7GTxSc.s:5483   .debug_str:0000000000000627 .LASF185
/var/folders/rt/4gvqv631095f64jvm7jfj_000000gn/T//cc7GTxSc.s:5225   .debug_str:0000000000000123 .LASF186
/var/folders/rt/4gvqv631095f64jvm7jfj_000000gn/T//cc7GTxSc.s:5487   .debug_str:00000000000006b8 .LASF187
/var/folders/rt/4gvqv631095f64jvm7jfj_000000gn/T//cc7GTxSc.s:5131   .debug_ranges:0000000000000000 .Ldebug_ranges0
/var/folders/rt/4gvqv631095f64jvm7jfj_000000gn/T//cc7GTxSc.s:5171   .debug_line:0000000000000000 .Ldebug_line0
/var/folders/rt/4gvqv631095f64jvm7jfj_000000gn/T//cc7GTxSc.s:5389   .debug_str:000000000000046b .LASF0
/var/folders/rt/4gvqv631095f64jvm7jfj_000000gn/T//cc7GTxSc.s:5221   .debug_str:000000000000010b .LASF1
/var/folders/rt/4gvqv631095f64jvm7jfj_000000gn/T//cc7GTxSc.s:5403   .debug_str:00000000000004b0 .LASF2
/var/folders/rt/4gvqv631095f64jvm7jfj_000000gn/T//cc7GTxSc.s:5177   .debug_str:0000000000000014 .LASF3
/var/folders/rt/4gvqv631095f64jvm7jfj_000000gn/T//cc7GTxSc.s:5489   .debug_str:00000000000006fb .LASF4
/var/folders/rt/4gvqv631095f64jvm7jfj_000000gn/T//cc7GTxSc.s:5477   .debug_str:0000000000000610 .LASF6
/var/folders/rt/4gvqv631095f64jvm7jfj_000000gn/T//cc7GTxSc.s:5243   .debug_str:000000000000016d .LASF5
/var/folders/rt/4gvqv631095f64jvm7jfj_000000gn/T//cc7GTxSc.s:5279   .debug_str:000000000000023b .LASF7
/var/folders/rt/4gvqv631095f64jvm7jfj_000000gn/T//cc7GTxSc.s:5307   .debug_str:00000000000002be .LASF8
/var/folders/rt/4gvqv631095f64jvm7jfj_000000gn/T//cc7GTxSc.s:5257   .debug_str:00000000000001be .LASF9
/var/folders/rt/4gvqv631095f64jvm7jfj_000000gn/T//cc7GTxSc.s:5201   .debug_str:000000000000008c .LASF10
/var/folders/rt/4gvqv631095f64jvm7jfj_000000gn/T//cc7GTxSc.s:5475   .debug_str:0000000000000603 .LASF11
/var/folders/rt/4gvqv631095f64jvm7jfj_000000gn/T//cc7GTxSc.s:5401   .debug_str:00000000000004a8 .LASF12
/var/folders/rt/4gvqv631095f64jvm7jfj_000000gn/T//cc7GTxSc.s:5511   .debug_str:0000000000000786 .LASF13
/var/folders/rt/4gvqv631095f64jvm7jfj_000000gn/T//cc7GTxSc.s:5439   .debug_str:0000000000000555 .LASF14
/var/folders/rt/4gvqv631095f64jvm7jfj_000000gn/T//cc7GTxSc.s:5203   .debug_str:00000000000000a3 .LASF15
/var/folders/rt/4gvqv631095f64jvm7jfj_000000gn/T//cc7GTxSc.s:5431   .debug_str:0000000000000530 .LASF16
/var/folders/rt/4gvqv631095f64jvm7jfj_000000gn/T//cc7GTxSc.s:5313   .debug_str:00000000000002eb .LASF17
/var/folders/rt/4gvqv631095f64jvm7jfj_000000gn/T//cc7GTxSc.s:5263   .debug_str:00000000000001dd .LASF18
/var/folders/rt/4gvqv631095f64jvm7jfj_000000gn/T//cc7GTxSc.s:5227   .debug_str:000000000000012b .LASF19
GAS LISTING /var/folders/rt/4gvqv631095f64jvm7jfj_000000gn/T//cc7GTxSc.s 			page 32


/var/folders/rt/4gvqv631095f64jvm7jfj_000000gn/T//cc7GTxSc.s:5293   .debug_str:0000000000000279 .LASF20
/var/folders/rt/4gvqv631095f64jvm7jfj_000000gn/T//cc7GTxSc.s:5367   .debug_str:00000000000003e0 .LASF21
/var/folders/rt/4gvqv631095f64jvm7jfj_000000gn/T//cc7GTxSc.s:5245   .debug_str:0000000000000176 .LASF22
/var/folders/rt/4gvqv631095f64jvm7jfj_000000gn/T//cc7GTxSc.s:5311   .debug_str:00000000000002d6 .LASF23
/var/folders/rt/4gvqv631095f64jvm7jfj_000000gn/T//cc7GTxSc.s:5371   .debug_str:000000000000040b .LASF24
/var/folders/rt/4gvqv631095f64jvm7jfj_000000gn/T//cc7GTxSc.s:5189   .debug_str:0000000000000048 .LASF25
/var/folders/rt/4gvqv631095f64jvm7jfj_000000gn/T//cc7GTxSc.s:5223   .debug_str:0000000000000117 .LASF26
/var/folders/rt/4gvqv631095f64jvm7jfj_000000gn/T//cc7GTxSc.s:5345   .debug_str:0000000000000373 .LASF27
/var/folders/rt/4gvqv631095f64jvm7jfj_000000gn/T//cc7GTxSc.s:5211   .debug_str:00000000000000d3 .LASF28
/var/folders/rt/4gvqv631095f64jvm7jfj_000000gn/T//cc7GTxSc.s:5447   .debug_str:000000000000058a .LASF29
/var/folders/rt/4gvqv631095f64jvm7jfj_000000gn/T//cc7GTxSc.s:5553   .debug_str:0000000000000862 .LASF30
/var/folders/rt/4gvqv631095f64jvm7jfj_000000gn/T//cc7GTxSc.s:5357   .debug_str:00000000000003b7 .LASF31
/var/folders/rt/4gvqv631095f64jvm7jfj_000000gn/T//cc7GTxSc.s:5207   .debug_str:00000000000000b6 .LASF32
/var/folders/rt/4gvqv631095f64jvm7jfj_000000gn/T//cc7GTxSc.s:5527   .debug_str:00000000000007d0 .LASF33
/var/folders/rt/4gvqv631095f64jvm7jfj_000000gn/T//cc7GTxSc.s:5409   .debug_str:00000000000004cc .LASF34
/var/folders/rt/4gvqv631095f64jvm7jfj_000000gn/T//cc7GTxSc.s:5515   .debug_str:000000000000079c .LASF35
/var/folders/rt/4gvqv631095f64jvm7jfj_000000gn/T//cc7GTxSc.s:5361   .debug_str:00000000000003cb .LASF36
/var/folders/rt/4gvqv631095f64jvm7jfj_000000gn/T//cc7GTxSc.s:5481   .debug_str:0000000000000620 .LASF37
/var/folders/rt/4gvqv631095f64jvm7jfj_000000gn/T//cc7GTxSc.s:5353   .debug_str:00000000000003a6 .LASF38
/var/folders/rt/4gvqv631095f64jvm7jfj_000000gn/T//cc7GTxSc.s:5399   .debug_str:000000000000049e .LASF39
/var/folders/rt/4gvqv631095f64jvm7jfj_000000gn/T//cc7GTxSc.s:5493   .debug_str:0000000000000720 .LASF40
/var/folders/rt/4gvqv631095f64jvm7jfj_000000gn/T//cc7GTxSc.s:5185   .debug_str:0000000000000039 .LASF41
/var/folders/rt/4gvqv631095f64jvm7jfj_000000gn/T//cc7GTxSc.s:5469   .debug_str:00000000000005ef .LASF42
/var/folders/rt/4gvqv631095f64jvm7jfj_000000gn/T//cc7GTxSc.s:5395   .debug_str:0000000000000486 .LASF43
/var/folders/rt/4gvqv631095f64jvm7jfj_000000gn/T//cc7GTxSc.s:5427   .debug_str:0000000000000518 .LASF44
/var/folders/rt/4gvqv631095f64jvm7jfj_000000gn/T//cc7GTxSc.s:5275   .debug_str:000000000000022a .LASF45
/var/folders/rt/4gvqv631095f64jvm7jfj_000000gn/T//cc7GTxSc.s:5289   .debug_str:0000000000000268 .LASF46
/var/folders/rt/4gvqv631095f64jvm7jfj_000000gn/T//cc7GTxSc.s:5465   .debug_str:00000000000005dc .LASF47
/var/folders/rt/4gvqv631095f64jvm7jfj_000000gn/T//cc7GTxSc.s:5385   .debug_str:000000000000045a .LASF48
/var/folders/rt/4gvqv631095f64jvm7jfj_000000gn/T//cc7GTxSc.s:5217   .debug_str:00000000000000fd .LASF49
/var/folders/rt/4gvqv631095f64jvm7jfj_000000gn/T//cc7GTxSc.s:5179   .debug_str:000000000000001e .LASF50
/var/folders/rt/4gvqv631095f64jvm7jfj_000000gn/T//cc7GTxSc.s:5521   .debug_str:00000000000007b1 .LASF51
/var/folders/rt/4gvqv631095f64jvm7jfj_000000gn/T//cc7GTxSc.s:5329   .debug_str:0000000000000336 .LASF52
/var/folders/rt/4gvqv631095f64jvm7jfj_000000gn/T//cc7GTxSc.s:5297   .debug_str:0000000000000283 .LASF53
/var/folders/rt/4gvqv631095f64jvm7jfj_000000gn/T//cc7GTxSc.s:5455   .debug_str:00000000000005b3 .LASF54
/var/folders/rt/4gvqv631095f64jvm7jfj_000000gn/T//cc7GTxSc.s:5457   .debug_str:00000000000005bb .LASF55
/var/folders/rt/4gvqv631095f64jvm7jfj_000000gn/T//cc7GTxSc.s:5393   .debug_str:000000000000047b .LASF56
/var/folders/rt/4gvqv631095f64jvm7jfj_000000gn/T//cc7GTxSc.s:5499   .debug_str:0000000000000737 .LASF57
/var/folders/rt/4gvqv631095f64jvm7jfj_000000gn/T//cc7GTxSc.s:5397   .debug_str:000000000000048c .LASF58
/var/folders/rt/4gvqv631095f64jvm7jfj_000000gn/T//cc7GTxSc.s:5413   .debug_str:00000000000004de .LASF59
/var/folders/rt/4gvqv631095f64jvm7jfj_000000gn/T//cc7GTxSc.s:5287   .debug_str:0000000000000260 .LASF64
/var/folders/rt/4gvqv631095f64jvm7jfj_000000gn/T//cc7GTxSc.s:5479   .debug_str:000000000000061a .LASF60
/var/folders/rt/4gvqv631095f64jvm7jfj_000000gn/T//cc7GTxSc.s:5449   .debug_str:000000000000059e .LASF61
/var/folders/rt/4gvqv631095f64jvm7jfj_000000gn/T//cc7GTxSc.s:5281   .debug_str:0000000000000246 .LASF62
/var/folders/rt/4gvqv631095f64jvm7jfj_000000gn/T//cc7GTxSc.s:5517   .debug_str:00000000000007a6 .LASF63
/var/folders/rt/4gvqv631095f64jvm7jfj_000000gn/T//cc7GTxSc.s:5295   .debug_str:000000000000027e .LASF65
/var/folders/rt/4gvqv631095f64jvm7jfj_000000gn/T//cc7GTxSc.s:5215   .debug_str:00000000000000f4 .LASF66
/var/folders/rt/4gvqv631095f64jvm7jfj_000000gn/T//cc7GTxSc.s:5543   .debug_str:000000000000082b .LASF67
/var/folders/rt/4gvqv631095f64jvm7jfj_000000gn/T//cc7GTxSc.s:5233   .debug_str:0000000000000140 .LASF68
/var/folders/rt/4gvqv631095f64jvm7jfj_000000gn/T//cc7GTxSc.s:5555   .debug_str:0000000000000870 .LASF69
/var/folders/rt/4gvqv631095f64jvm7jfj_000000gn/T//cc7GTxSc.s:5373   .debug_str:0000000000000418 .LASF70
/var/folders/rt/4gvqv631095f64jvm7jfj_000000gn/T//cc7GTxSc.s:5351   .debug_str:000000000000039c .LASF71
/var/folders/rt/4gvqv631095f64jvm7jfj_000000gn/T//cc7GTxSc.s:5461   .debug_str:00000000000005c9 .LASF72
/var/folders/rt/4gvqv631095f64jvm7jfj_000000gn/T//cc7GTxSc.s:5415   .debug_str:00000000000004e7 .LASF73
/var/folders/rt/4gvqv631095f64jvm7jfj_000000gn/T//cc7GTxSc.s:5539   .debug_str:0000000000000811 .LASF74
/var/folders/rt/4gvqv631095f64jvm7jfj_000000gn/T//cc7GTxSc.s:5237   .debug_str:000000000000014f .LASF75
/var/folders/rt/4gvqv631095f64jvm7jfj_000000gn/T//cc7GTxSc.s:5271   .debug_str:0000000000000217 .LASF76
GAS LISTING /var/folders/rt/4gvqv631095f64jvm7jfj_000000gn/T//cc7GTxSc.s 			page 33


/var/folders/rt/4gvqv631095f64jvm7jfj_000000gn/T//cc7GTxSc.s:5173   .debug_str:0000000000000000 .LASF77
/var/folders/rt/4gvqv631095f64jvm7jfj_000000gn/T//cc7GTxSc.s:5485   .debug_str:00000000000006af .LASF78
/var/folders/rt/4gvqv631095f64jvm7jfj_000000gn/T//cc7GTxSc.s:5175   .debug_str:000000000000000c .LASF79
/var/folders/rt/4gvqv631095f64jvm7jfj_000000gn/T//cc7GTxSc.s:5375   .debug_str:0000000000000421 .LASF80
/var/folders/rt/4gvqv631095f64jvm7jfj_000000gn/T//cc7GTxSc.s:5437   .debug_str:0000000000000550 .LASF81
/var/folders/rt/4gvqv631095f64jvm7jfj_000000gn/T//cc7GTxSc.s:5277   .debug_str:0000000000000236 .LASF82
/var/folders/rt/4gvqv631095f64jvm7jfj_000000gn/T//cc7GTxSc.s:5417   .debug_str:00000000000004f1 .LASF83
/var/folders/rt/4gvqv631095f64jvm7jfj_000000gn/T//cc7GTxSc.s:5231   .debug_str:000000000000013a .LASF84
/var/folders/rt/4gvqv631095f64jvm7jfj_000000gn/T//cc7GTxSc.s:5473   .debug_str:00000000000005fd .LASF85
/var/folders/rt/4gvqv631095f64jvm7jfj_000000gn/T//cc7GTxSc.s:5423   .debug_str:0000000000000507 .LASF86
/var/folders/rt/4gvqv631095f64jvm7jfj_000000gn/T//cc7GTxSc.s:5247   .debug_str:000000000000018a .LASF87
/var/folders/rt/4gvqv631095f64jvm7jfj_000000gn/T//cc7GTxSc.s:5309   .debug_str:00000000000002d0 .LASF88
/var/folders/rt/4gvqv631095f64jvm7jfj_000000gn/T//cc7GTxSc.s:5551   .debug_str:0000000000000859 .LASF89
/var/folders/rt/4gvqv631095f64jvm7jfj_000000gn/T//cc7GTxSc.s:5239   .debug_str:000000000000015d .LASF90
/var/folders/rt/4gvqv631095f64jvm7jfj_000000gn/T//cc7GTxSc.s:5291   .debug_str:0000000000000273 .LASF91
/var/folders/rt/4gvqv631095f64jvm7jfj_000000gn/T//cc7GTxSc.s:5349   .debug_str:0000000000000395 .LASF92
/var/folders/rt/4gvqv631095f64jvm7jfj_000000gn/T//cc7GTxSc.s:5459   .debug_str:00000000000005c3 .LASF93
/var/folders/rt/4gvqv631095f64jvm7jfj_000000gn/T//cc7GTxSc.s:5219   .debug_str:0000000000000104 .LASF94
/var/folders/rt/4gvqv631095f64jvm7jfj_000000gn/T//cc7GTxSc.s:5229   .debug_str:0000000000000134 .LASF95
/var/folders/rt/4gvqv631095f64jvm7jfj_000000gn/T//cc7GTxSc.s:5535   .debug_str:0000000000000803 .LASF96
/var/folders/rt/4gvqv631095f64jvm7jfj_000000gn/T//cc7GTxSc.s:5471   .debug_str:00000000000005f4 .LASF97
/var/folders/rt/4gvqv631095f64jvm7jfj_000000gn/T//cc7GTxSc.s:5359   .debug_str:00000000000003c3 .LASF98
/var/folders/rt/4gvqv631095f64jvm7jfj_000000gn/T//cc7GTxSc.s:5315   .debug_str:00000000000002f0 .LASF99
/var/folders/rt/4gvqv631095f64jvm7jfj_000000gn/T//cc7GTxSc.s:5341   .debug_str:0000000000000367 .LASF100
/var/folders/rt/4gvqv631095f64jvm7jfj_000000gn/T//cc7GTxSc.s:5425   .debug_str:000000000000050f .LASF101
/var/folders/rt/4gvqv631095f64jvm7jfj_000000gn/T//cc7GTxSc.s:5419   .debug_str:00000000000004f8 .LASF102
/var/folders/rt/4gvqv631095f64jvm7jfj_000000gn/T//cc7GTxSc.s:5451   .debug_str:00000000000005a6 .LASF103
/var/folders/rt/4gvqv631095f64jvm7jfj_000000gn/T//cc7GTxSc.s:5467   .debug_str:00000000000005e8 .LASF104
/var/folders/rt/4gvqv631095f64jvm7jfj_000000gn/T//cc7GTxSc.s:5251   .debug_str:00000000000001a2 .LASF105
/var/folders/rt/4gvqv631095f64jvm7jfj_000000gn/T//cc7GTxSc.s:5303   .debug_str:00000000000002ae .LASF106
/var/folders/rt/4gvqv631095f64jvm7jfj_000000gn/T//cc7GTxSc.s:5285   .debug_str:0000000000000258 .LASF107
/var/folders/rt/4gvqv631095f64jvm7jfj_000000gn/T//cc7GTxSc.s:5435   .debug_str:000000000000054b .LASF108
/var/folders/rt/4gvqv631095f64jvm7jfj_000000gn/T//cc7GTxSc.s:5183   .debug_str:000000000000002e .LASF109
/var/folders/rt/4gvqv631095f64jvm7jfj_000000gn/T//cc7GTxSc.s:5445   .debug_str:0000000000000571 .LASF110
/var/folders/rt/4gvqv631095f64jvm7jfj_000000gn/T//cc7GTxSc.s:5441   .debug_str:000000000000055f .LASF111
/var/folders/rt/4gvqv631095f64jvm7jfj_000000gn/T//cc7GTxSc.s:5379   .debug_str:0000000000000433 .LASF112
/var/folders/rt/4gvqv631095f64jvm7jfj_000000gn/T//cc7GTxSc.s:5443   .debug_str:0000000000000567 .LASF113
/var/folders/rt/4gvqv631095f64jvm7jfj_000000gn/T//cc7GTxSc.s:5327   .debug_str:000000000000032e .LASF114
/var/folders/rt/4gvqv631095f64jvm7jfj_000000gn/T//cc7GTxSc.s:5253   .debug_str:00000000000001a9 .LASF115
/var/folders/rt/4gvqv631095f64jvm7jfj_000000gn/T//cc7GTxSc.s:5549   .debug_str:0000000000000854 .LASF116
/var/folders/rt/4gvqv631095f64jvm7jfj_000000gn/T//cc7GTxSc.s:5391   .debug_str:0000000000000471 .LASF117
/var/folders/rt/4gvqv631095f64jvm7jfj_000000gn/T//cc7GTxSc.s:5305   .debug_str:00000000000002b6 .LASF118
/var/folders/rt/4gvqv631095f64jvm7jfj_000000gn/T//cc7GTxSc.s:5259   .debug_str:00000000000001cc .LASF119
/var/folders/rt/4gvqv631095f64jvm7jfj_000000gn/T//cc7GTxSc.s:5335   .debug_str:000000000000034a .LASF120
/var/folders/rt/4gvqv631095f64jvm7jfj_000000gn/T//cc7GTxSc.s:5191   .debug_str:0000000000000053 .LASF121
/var/folders/rt/4gvqv631095f64jvm7jfj_000000gn/T//cc7GTxSc.s:5529   .debug_str:00000000000007db .LASF122
/var/folders/rt/4gvqv631095f64jvm7jfj_000000gn/T//cc7GTxSc.s:5241   .debug_str:0000000000000165 .LASF123
/var/folders/rt/4gvqv631095f64jvm7jfj_000000gn/T//cc7GTxSc.s:5235   .debug_str:000000000000014a .LASF124
/var/folders/rt/4gvqv631095f64jvm7jfj_000000gn/T//cc7GTxSc.s:5421   .debug_str:0000000000000500 .LASF125
/var/folders/rt/4gvqv631095f64jvm7jfj_000000gn/T//cc7GTxSc.s:5519   .debug_str:00000000000007ab .LASF126
/var/folders/rt/4gvqv631095f64jvm7jfj_000000gn/T//cc7GTxSc.s:5317   .debug_str:00000000000002f6 .LASF127
/var/folders/rt/4gvqv631095f64jvm7jfj_000000gn/T//cc7GTxSc.s:5407   .debug_str:00000000000004c6 .LASF128
/var/folders/rt/4gvqv631095f64jvm7jfj_000000gn/T//cc7GTxSc.s:5181   .debug_str:0000000000000026 .LASF129
/var/folders/rt/4gvqv631095f64jvm7jfj_000000gn/T//cc7GTxSc.s:5453   .debug_str:00000000000005ad .LASF130
/var/folders/rt/4gvqv631095f64jvm7jfj_000000gn/T//cc7GTxSc.s:5343   .debug_str:000000000000036d .LASF131
/var/folders/rt/4gvqv631095f64jvm7jfj_000000gn/T//cc7GTxSc.s:5495   .debug_str:0000000000000728 .LASF132
/var/folders/rt/4gvqv631095f64jvm7jfj_000000gn/T//cc7GTxSc.s:5513   .debug_str:000000000000078f .LASF133
GAS LISTING /var/folders/rt/4gvqv631095f64jvm7jfj_000000gn/T//cc7GTxSc.s 			page 34


/var/folders/rt/4gvqv631095f64jvm7jfj_000000gn/T//cc7GTxSc.s:5267   .debug_str:00000000000001fc .LASF134
/var/folders/rt/4gvqv631095f64jvm7jfj_000000gn/T//cc7GTxSc.s:5325   .debug_str:0000000000000321 .LASF135
/var/folders/rt/4gvqv631095f64jvm7jfj_000000gn/T//cc7GTxSc.s:5541   .debug_str:000000000000081c .LASF136
/var/folders/rt/4gvqv631095f64jvm7jfj_000000gn/T//cc7GTxSc.s:5381   .debug_str:000000000000043e .LASF137
/var/folders/rt/4gvqv631095f64jvm7jfj_000000gn/T//cc7GTxSc.s:5321   .debug_str:000000000000030a .LASF138
/var/folders/rt/4gvqv631095f64jvm7jfj_000000gn/T//cc7GTxSc.s:5365   .debug_str:00000000000003db .LASF139
/var/folders/rt/4gvqv631095f64jvm7jfj_000000gn/T//cc7GTxSc.s:5433   .debug_str:000000000000053e .LASF140
/var/folders/rt/4gvqv631095f64jvm7jfj_000000gn/T//cc7GTxSc.s:5547   .debug_str:0000000000000846 .LASF141
/var/folders/rt/4gvqv631095f64jvm7jfj_000000gn/T//cc7GTxSc.s:5213   .debug_str:00000000000000e6 .LASF142
/var/folders/rt/4gvqv631095f64jvm7jfj_000000gn/T//cc7GTxSc.s:5523   .debug_str:00000000000007ba .LASF143
/var/folders/rt/4gvqv631095f64jvm7jfj_000000gn/T//cc7GTxSc.s:5323   .debug_str:0000000000000315 .LASF144
/var/folders/rt/4gvqv631095f64jvm7jfj_000000gn/T//cc7GTxSc.s:5501   .debug_str:000000000000073f .LASF145
/var/folders/rt/4gvqv631095f64jvm7jfj_000000gn/T//cc7GTxSc.s:5269   .debug_str:0000000000000209 .LASF146
/var/folders/rt/4gvqv631095f64jvm7jfj_000000gn/T//cc7GTxSc.s:5503   .debug_str:000000000000074c .LASF147
/var/folders/rt/4gvqv631095f64jvm7jfj_000000gn/T//cc7GTxSc.s:5265   .debug_str:00000000000001eb .LASF148
/var/folders/rt/4gvqv631095f64jvm7jfj_000000gn/T//cc7GTxSc.s:5195   .debug_str:0000000000000061 .LASF149
/var/folders/rt/4gvqv631095f64jvm7jfj_000000gn/T//cc7GTxSc.s:5197   .debug_str:0000000000000070 .LASF150
/var/folders/rt/4gvqv631095f64jvm7jfj_000000gn/T//cc7GTxSc.s:5411   .debug_str:00000000000004d5 .LASF151
/var/folders/rt/4gvqv631095f64jvm7jfj_000000gn/T//cc7GTxSc.s:5363   .debug_str:00000000000003d4 .LASF152
/var/folders/rt/4gvqv631095f64jvm7jfj_000000gn/T//cc7GTxSc.s:5355   .debug_str:00000000000003ae .LASF153
/var/folders/rt/4gvqv631095f64jvm7jfj_000000gn/T//cc7GTxSc.s:5537   .debug_str:0000000000000809 .LASF154
/var/folders/rt/4gvqv631095f64jvm7jfj_000000gn/T//cc7GTxSc.s:5205   .debug_str:00000000000000ab .LASF188
/var/folders/rt/4gvqv631095f64jvm7jfj_000000gn/T//cc7GTxSc.s:5283   .debug_str:000000000000024c .LASF155
/var/folders/rt/4gvqv631095f64jvm7jfj_000000gn/T//cc7GTxSc.s:5509   .debug_str:0000000000000773 .LASF156
/var/folders/rt/4gvqv631095f64jvm7jfj_000000gn/T//cc7GTxSc.s:5377   .debug_str:0000000000000429 .LASF157
/var/folders/rt/4gvqv631095f64jvm7jfj_000000gn/T//cc7GTxSc.s:5299   .debug_str:000000000000028a .LASF158
/var/folders/rt/4gvqv631095f64jvm7jfj_000000gn/T//cc7GTxSc.s:5199   .debug_str:0000000000000081 .LASF159
/var/folders/rt/4gvqv631095f64jvm7jfj_000000gn/T//cc7GTxSc.s:5491   .debug_str:000000000000070e .LASF189
/var/folders/rt/4gvqv631095f64jvm7jfj_000000gn/T//cc7GTxSc.s:711    .text.applyGreenFingers:0000000000000000 .LFB9
/var/folders/rt/4gvqv631095f64jvm7jfj_000000gn/T//cc7GTxSc.s:871    .text.applyGreenFingers:00000000000000b8 .LFE9
/var/folders/rt/4gvqv631095f64jvm7jfj_000000gn/T//cc7GTxSc.s:4340   .debug_loc:0000000000000000 .LLST32
/var/folders/rt/4gvqv631095f64jvm7jfj_000000gn/T//cc7GTxSc.s:5347   .debug_str:000000000000038b .LASF160
/var/folders/rt/4gvqv631095f64jvm7jfj_000000gn/T//cc7GTxSc.s:4363   .debug_loc:0000000000000038 .LLST33
/var/folders/rt/4gvqv631095f64jvm7jfj_000000gn/T//cc7GTxSc.s:5429   .debug_str:0000000000000521 .LASF161
/var/folders/rt/4gvqv631095f64jvm7jfj_000000gn/T//cc7GTxSc.s:4381   .debug_loc:0000000000000064 .LLST34
/var/folders/rt/4gvqv631095f64jvm7jfj_000000gn/T//cc7GTxSc.s:5255   .debug_str:00000000000001b3 .LASF162
/var/folders/rt/4gvqv631095f64jvm7jfj_000000gn/T//cc7GTxSc.s:4403   .debug_loc:000000000000009b .LLST35
/var/folders/rt/4gvqv631095f64jvm7jfj_000000gn/T//cc7GTxSc.s:5525   .debug_str:00000000000007c4 .LASF163
/var/folders/rt/4gvqv631095f64jvm7jfj_000000gn/T//cc7GTxSc.s:4442   .debug_loc:00000000000000ff .LLST36
/var/folders/rt/4gvqv631095f64jvm7jfj_000000gn/T//cc7GTxSc.s:4453   .debug_loc:000000000000011d .LLST37
/var/folders/rt/4gvqv631095f64jvm7jfj_000000gn/T//cc7GTxSc.s:800    .text.applyGreenFingers:0000000000000058 .LVL68
/var/folders/rt/4gvqv631095f64jvm7jfj_000000gn/T//cc7GTxSc.s:829    .text.applyGreenFingers:0000000000000082 .LVL71
/var/folders/rt/4gvqv631095f64jvm7jfj_000000gn/T//cc7GTxSc.s:858    .text.applyGreenFingers:00000000000000ae .LVL74
/var/folders/rt/4gvqv631095f64jvm7jfj_000000gn/T//cc7GTxSc.s:736    .text.applyGreenFingers:0000000000000018 .LVL60
/var/folders/rt/4gvqv631095f64jvm7jfj_000000gn/T//cc7GTxSc.s:5545   .debug_str:0000000000000834 .LASF190
/var/folders/rt/4gvqv631095f64jvm7jfj_000000gn/T//cc7GTxSc.s:5187   .debug_str:0000000000000042 .LASF164
/var/folders/rt/4gvqv631095f64jvm7jfj_000000gn/T//cc7GTxSc.s:5533   .debug_str:00000000000007ef .LASF169
/var/folders/rt/4gvqv631095f64jvm7jfj_000000gn/T//cc7GTxSc.s:311    .text.updatePlantReadings:0000000000000000 .LFB7
/var/folders/rt/4gvqv631095f64jvm7jfj_000000gn/T//cc7GTxSc.s:704    .text.updatePlantReadings:0000000000000202 .LFE7
/var/folders/rt/4gvqv631095f64jvm7jfj_000000gn/T//cc7GTxSc.s:4469   .debug_loc:0000000000000147 .LLST17
/var/folders/rt/4gvqv631095f64jvm7jfj_000000gn/T//cc7GTxSc.s:4492   .debug_loc:000000000000017f .LLST18
/var/folders/rt/4gvqv631095f64jvm7jfj_000000gn/T//cc7GTxSc.s:5193   .debug_str:000000000000005c .LASF165
/var/folders/rt/4gvqv631095f64jvm7jfj_000000gn/T//cc7GTxSc.s:4518   .debug_loc:00000000000001c1 .LLST19
/var/folders/rt/4gvqv631095f64jvm7jfj_000000gn/T//cc7GTxSc.s:5405   .debug_str:00000000000004be .LASF166
/var/folders/rt/4gvqv631095f64jvm7jfj_000000gn/T//cc7GTxSc.s:4554   .debug_loc:0000000000000214 .LLST20
/var/folders/rt/4gvqv631095f64jvm7jfj_000000gn/T//cc7GTxSc.s:5319   .debug_str:00000000000002fd .LASF167
/var/folders/rt/4gvqv631095f64jvm7jfj_000000gn/T//cc7GTxSc.s:4590   .debug_loc:0000000000000267 .LLST21
GAS LISTING /var/folders/rt/4gvqv631095f64jvm7jfj_000000gn/T//cc7GTxSc.s 			page 35


/var/folders/rt/4gvqv631095f64jvm7jfj_000000gn/T//cc7GTxSc.s:4608   .debug_loc:0000000000000286 .LLST22
/var/folders/rt/4gvqv631095f64jvm7jfj_000000gn/T//cc7GTxSc.s:364    .text.updatePlantReadings:0000000000000048 .LVL29
/var/folders/rt/4gvqv631095f64jvm7jfj_000000gn/T//cc7GTxSc.s:434    .text.updatePlantReadings:00000000000000a4 .LBB11
/var/folders/rt/4gvqv631095f64jvm7jfj_000000gn/T//cc7GTxSc.s:490    .text.updatePlantReadings:00000000000000e6 .LBE11
/var/folders/rt/4gvqv631095f64jvm7jfj_000000gn/T//cc7GTxSc.s:5301   .debug_str:000000000000029a .LASF168
/var/folders/rt/4gvqv631095f64jvm7jfj_000000gn/T//cc7GTxSc.s:4643   .debug_loc:00000000000002cc .LLST23
/var/folders/rt/4gvqv631095f64jvm7jfj_000000gn/T//cc7GTxSc.s:439    .text.updatePlantReadings:00000000000000a6 .LBB12
/var/folders/rt/4gvqv631095f64jvm7jfj_000000gn/T//cc7GTxSc.s:448    .text.updatePlantReadings:00000000000000b0 .LBE12
/var/folders/rt/4gvqv631095f64jvm7jfj_000000gn/T//cc7GTxSc.s:459    .text.updatePlantReadings:00000000000000be .LBB13
/var/folders/rt/4gvqv631095f64jvm7jfj_000000gn/T//cc7GTxSc.s:472    .text.updatePlantReadings:00000000000000d0 .LBE13
/var/folders/rt/4gvqv631095f64jvm7jfj_000000gn/T//cc7GTxSc.s:4655   .debug_loc:00000000000002ec .LLST24
/var/folders/rt/4gvqv631095f64jvm7jfj_000000gn/T//cc7GTxSc.s:338    .text.updatePlantReadings:000000000000001a .LVL27
/var/folders/rt/4gvqv631095f64jvm7jfj_000000gn/T//cc7GTxSc.s:495    .text.updatePlantReadings:00000000000000e8 .LBB15
/var/folders/rt/4gvqv631095f64jvm7jfj_000000gn/T//cc7GTxSc.s:595    .text.updatePlantReadings:000000000000016e .LBE15
/var/folders/rt/4gvqv631095f64jvm7jfj_000000gn/T//cc7GTxSc.s:4663   .debug_loc:0000000000000300 .LLST25
/var/folders/rt/4gvqv631095f64jvm7jfj_000000gn/T//cc7GTxSc.s:508    .text.updatePlantReadings:00000000000000fc .LBB16
/var/folders/rt/4gvqv631095f64jvm7jfj_000000gn/T//cc7GTxSc.s:531    .text.updatePlantReadings:0000000000000120 .LBE16
/var/folders/rt/4gvqv631095f64jvm7jfj_000000gn/T//cc7GTxSc.s:4681   .debug_loc:000000000000031f .LLST26
/var/folders/rt/4gvqv631095f64jvm7jfj_000000gn/T//cc7GTxSc.s:522    .text.updatePlantReadings:0000000000000112 .LVL44
/var/folders/rt/4gvqv631095f64jvm7jfj_000000gn/T//cc7GTxSc.s:538    .text.updatePlantReadings:000000000000012e .LBB17
/var/folders/rt/4gvqv631095f64jvm7jfj_000000gn/T//cc7GTxSc.s:594    .text.updatePlantReadings:000000000000016e .LBE17
/var/folders/rt/4gvqv631095f64jvm7jfj_000000gn/T//cc7GTxSc.s:4688   .debug_loc:0000000000000332 .LLST27
/var/folders/rt/4gvqv631095f64jvm7jfj_000000gn/T//cc7GTxSc.s:543    .text.updatePlantReadings:0000000000000130 .LBB18
/var/folders/rt/4gvqv631095f64jvm7jfj_000000gn/T//cc7GTxSc.s:552    .text.updatePlantReadings:000000000000013a .LBE18
/var/folders/rt/4gvqv631095f64jvm7jfj_000000gn/T//cc7GTxSc.s:563    .text.updatePlantReadings:0000000000000146 .LBB19
/var/folders/rt/4gvqv631095f64jvm7jfj_000000gn/T//cc7GTxSc.s:576    .text.updatePlantReadings:0000000000000158 .LBE19
/var/folders/rt/4gvqv631095f64jvm7jfj_000000gn/T//cc7GTxSc.s:4700   .debug_loc:0000000000000352 .LLST28
/var/folders/rt/4gvqv631095f64jvm7jfj_000000gn/T//cc7GTxSc.s:500    .text.updatePlantReadings:00000000000000f2 .LVL42
/var/folders/rt/4gvqv631095f64jvm7jfj_000000gn/T//cc7GTxSc.s:600    .text.updatePlantReadings:0000000000000174 .LBB20
/var/folders/rt/4gvqv631095f64jvm7jfj_000000gn/T//cc7GTxSc.s:702    .text.updatePlantReadings:0000000000000202 .LBE20
/var/folders/rt/4gvqv631095f64jvm7jfj_000000gn/T//cc7GTxSc.s:4708   .debug_loc:0000000000000366 .LLST29
/var/folders/rt/4gvqv631095f64jvm7jfj_000000gn/T//cc7GTxSc.s:631    .text.updatePlantReadings:00000000000001a6 .LVL53
/var/folders/rt/4gvqv631095f64jvm7jfj_000000gn/T//cc7GTxSc.s:647    .text.updatePlantReadings:00000000000001c2 .LBB23
/var/folders/rt/4gvqv631095f64jvm7jfj_000000gn/T//cc7GTxSc.s:701    .text.updatePlantReadings:0000000000000202 .LBE23
/var/folders/rt/4gvqv631095f64jvm7jfj_000000gn/T//cc7GTxSc.s:4731   .debug_loc:000000000000038a .LLST30
/var/folders/rt/4gvqv631095f64jvm7jfj_000000gn/T//cc7GTxSc.s:652    .text.updatePlantReadings:00000000000001c4 .LBB24
/var/folders/rt/4gvqv631095f64jvm7jfj_000000gn/T//cc7GTxSc.s:661    .text.updatePlantReadings:00000000000001ce .LBE24
/var/folders/rt/4gvqv631095f64jvm7jfj_000000gn/T//cc7GTxSc.s:672    .text.updatePlantReadings:00000000000001da .LBB25
/var/folders/rt/4gvqv631095f64jvm7jfj_000000gn/T//cc7GTxSc.s:685    .text.updatePlantReadings:00000000000001ec .LBE25
/var/folders/rt/4gvqv631095f64jvm7jfj_000000gn/T//cc7GTxSc.s:4743   .debug_loc:00000000000003aa .LLST31
/var/folders/rt/4gvqv631095f64jvm7jfj_000000gn/T//cc7GTxSc.s:604    .text.updatePlantReadings:000000000000017c .LVL51
/var/folders/rt/4gvqv631095f64jvm7jfj_000000gn/T//cc7GTxSc.s:405    .text.updatePlantReadings:000000000000007c .LVL32
/var/folders/rt/4gvqv631095f64jvm7jfj_000000gn/T//cc7GTxSc.s:5531   .debug_str:00000000000007e5 .LASF170
/var/folders/rt/4gvqv631095f64jvm7jfj_000000gn/T//cc7GTxSc.s:40     .text.initPlant:0000000000000000 .LFB6
/var/folders/rt/4gvqv631095f64jvm7jfj_000000gn/T//cc7GTxSc.s:249    .text.initPlant:000000000000012c .LFE6
/var/folders/rt/4gvqv631095f64jvm7jfj_000000gn/T//cc7GTxSc.s:4751   .debug_loc:00000000000003be .LLST1
/var/folders/rt/4gvqv631095f64jvm7jfj_000000gn/T//cc7GTxSc.s:5333   .debug_str:0000000000000343 .LASF171
/var/folders/rt/4gvqv631095f64jvm7jfj_000000gn/T//cc7GTxSc.s:4769   .debug_loc:00000000000003eb .LLST2
/var/folders/rt/4gvqv631095f64jvm7jfj_000000gn/T//cc7GTxSc.s:4791   .debug_loc:0000000000000422 .LLST3
/var/folders/rt/4gvqv631095f64jvm7jfj_000000gn/T//cc7GTxSc.s:4813   .debug_loc:0000000000000459 .LLST4
/var/folders/rt/4gvqv631095f64jvm7jfj_000000gn/T//cc7GTxSc.s:4835   .debug_loc:0000000000000490 .LLST5
/var/folders/rt/4gvqv631095f64jvm7jfj_000000gn/T//cc7GTxSc.s:4857   .debug_loc:00000000000004c7 .LLST6
/var/folders/rt/4gvqv631095f64jvm7jfj_000000gn/T//cc7GTxSc.s:4879   .debug_loc:00000000000004fe .LLST7
/var/folders/rt/4gvqv631095f64jvm7jfj_000000gn/T//cc7GTxSc.s:4901   .debug_loc:0000000000000535 .LLST8
/var/folders/rt/4gvqv631095f64jvm7jfj_000000gn/T//cc7GTxSc.s:4923   .debug_loc:000000000000056c .LLST9
/var/folders/rt/4gvqv631095f64jvm7jfj_000000gn/T//cc7GTxSc.s:4945   .debug_loc:00000000000005a3 .LLST10
/var/folders/rt/4gvqv631095f64jvm7jfj_000000gn/T//cc7GTxSc.s:4963   .debug_loc:00000000000005cf .LLST11
GAS LISTING /var/folders/rt/4gvqv631095f64jvm7jfj_000000gn/T//cc7GTxSc.s 			page 36


/var/folders/rt/4gvqv631095f64jvm7jfj_000000gn/T//cc7GTxSc.s:4981   .debug_loc:00000000000005fb .LLST12
/var/folders/rt/4gvqv631095f64jvm7jfj_000000gn/T//cc7GTxSc.s:4999   .debug_loc:0000000000000627 .LLST13
/var/folders/rt/4gvqv631095f64jvm7jfj_000000gn/T//cc7GTxSc.s:5463   .debug_str:00000000000005d3 .LASF172
/var/folders/rt/4gvqv631095f64jvm7jfj_000000gn/T//cc7GTxSc.s:5507   .debug_str:0000000000000764 .LASF173
/var/folders/rt/4gvqv631095f64jvm7jfj_000000gn/T//cc7GTxSc.s:5017   .debug_loc:0000000000000653 .LLST14
/var/folders/rt/4gvqv631095f64jvm7jfj_000000gn/T//cc7GTxSc.s:98     .text.initPlant:0000000000000052 .LVL6
/var/folders/rt/4gvqv631095f64jvm7jfj_000000gn/T//cc7GTxSc.s:104    .text.initPlant:0000000000000066 .LVL7
/var/folders/rt/4gvqv631095f64jvm7jfj_000000gn/T//cc7GTxSc.s:207    .text.initPlant:00000000000000fe .LVL8
/var/folders/rt/4gvqv631095f64jvm7jfj_000000gn/T//cc7GTxSc.s:5369   .debug_str:00000000000003f9 .LASF191
/var/folders/rt/4gvqv631095f64jvm7jfj_000000gn/T//cc7GTxSc.s:5383   .debug_str:000000000000044d .LASF174
/var/folders/rt/4gvqv631095f64jvm7jfj_000000gn/T//cc7GTxSc.s:5387   .debug_str:0000000000000461 .LASF175
/var/folders/rt/4gvqv631095f64jvm7jfj_000000gn/T//cc7GTxSc.s:5273   .debug_str:000000000000021f .LASF176
/var/folders/rt/4gvqv631095f64jvm7jfj_000000gn/T//cc7GTxSc.s:14     .text.initSensorReading:0000000000000000 .LFB5
/var/folders/rt/4gvqv631095f64jvm7jfj_000000gn/T//cc7GTxSc.s:33     .text.initSensorReading:0000000000000006 .LFE5
/var/folders/rt/4gvqv631095f64jvm7jfj_000000gn/T//cc7GTxSc.s:5031   .debug_loc:000000000000066d .LLST0
/var/folders/rt/4gvqv631095f64jvm7jfj_000000gn/T//cc7GTxSc.s:256    .text.updatePlantStatus:0000000000000000 .LFB8
/var/folders/rt/4gvqv631095f64jvm7jfj_000000gn/T//cc7GTxSc.s:303    .text.updatePlantStatus:000000000000004c .LFE8
/var/folders/rt/4gvqv631095f64jvm7jfj_000000gn/T//cc7GTxSc.s:5049   .debug_loc:0000000000000699 .LLST15
/var/folders/rt/4gvqv631095f64jvm7jfj_000000gn/T//cc7GTxSc.s:288    .text.updatePlantStatus:0000000000000038 .LBB6
/var/folders/rt/4gvqv631095f64jvm7jfj_000000gn/T//cc7GTxSc.s:299    .text.updatePlantStatus:000000000000004a .LBE6
/var/folders/rt/4gvqv631095f64jvm7jfj_000000gn/T//cc7GTxSc.s:5090   .debug_loc:00000000000006f8 .LLST16
/var/folders/rt/4gvqv631095f64jvm7jfj_000000gn/T//cc7GTxSc.s:296    .text.updatePlantStatus:000000000000004a .LVL24
/var/folders/rt/4gvqv631095f64jvm7jfj_000000gn/T//cc7GTxSc.s:281    .text.updatePlantStatus:0000000000000030 .LVL21
/var/folders/rt/4gvqv631095f64jvm7jfj_000000gn/T//cc7GTxSc.s:5209   .debug_str:00000000000000c3 .LASF177
/var/folders/rt/4gvqv631095f64jvm7jfj_000000gn/T//cc7GTxSc.s:5261   .debug_str:00000000000001d4 .LASF178
/var/folders/rt/4gvqv631095f64jvm7jfj_000000gn/T//cc7GTxSc.s:5497   .debug_str:000000000000072d .LASF179
/var/folders/rt/4gvqv631095f64jvm7jfj_000000gn/T//cc7GTxSc.s:5505   .debug_str:000000000000075b .LASF180
/var/folders/rt/4gvqv631095f64jvm7jfj_000000gn/T//cc7GTxSc.s:5337   .debug_str:000000000000034f .LASF181
/var/folders/rt/4gvqv631095f64jvm7jfj_000000gn/T//cc7GTxSc.s:5249   .debug_str:0000000000000191 .LASF183
/var/folders/rt/4gvqv631095f64jvm7jfj_000000gn/T//cc7GTxSc.s:5331   .debug_str:000000000000033c .LASF182
/var/folders/rt/4gvqv631095f64jvm7jfj_000000gn/T//cc7GTxSc.s:5339   .debug_str:0000000000000356 .LASF184
/var/folders/rt/4gvqv631095f64jvm7jfj_000000gn/T//cc7GTxSc.s:719    .text.applyGreenFingers:0000000000000002 .LCFI7
/var/folders/rt/4gvqv631095f64jvm7jfj_000000gn/T//cc7GTxSc.s:769    .text.applyGreenFingers:000000000000002e .LCFI8
/var/folders/rt/4gvqv631095f64jvm7jfj_000000gn/T//cc7GTxSc.s:774    .text.applyGreenFingers:0000000000000030 .LCFI9
/var/folders/rt/4gvqv631095f64jvm7jfj_000000gn/T//cc7GTxSc.s:714    .text.applyGreenFingers:0000000000000000 .LVL59
/var/folders/rt/4gvqv631095f64jvm7jfj_000000gn/T//cc7GTxSc.s:747    .text.applyGreenFingers:000000000000001e .LVL62
/var/folders/rt/4gvqv631095f64jvm7jfj_000000gn/T//cc7GTxSc.s:764    .text.applyGreenFingers:000000000000002a .LVL64
/var/folders/rt/4gvqv631095f64jvm7jfj_000000gn/T//cc7GTxSc.s:772    .text.applyGreenFingers:0000000000000030 .LVL66
/var/folders/rt/4gvqv631095f64jvm7jfj_000000gn/T//cc7GTxSc.s:796    .text.applyGreenFingers:000000000000004c .LVL67
/var/folders/rt/4gvqv631095f64jvm7jfj_000000gn/T//cc7GTxSc.s:804    .text.applyGreenFingers:000000000000005a .LVL69
/var/folders/rt/4gvqv631095f64jvm7jfj_000000gn/T//cc7GTxSc.s:825    .text.applyGreenFingers:0000000000000076 .LVL70
/var/folders/rt/4gvqv631095f64jvm7jfj_000000gn/T//cc7GTxSc.s:833    .text.applyGreenFingers:0000000000000084 .LVL72
/var/folders/rt/4gvqv631095f64jvm7jfj_000000gn/T//cc7GTxSc.s:854    .text.applyGreenFingers:00000000000000a2 .LVL73
/var/folders/rt/4gvqv631095f64jvm7jfj_000000gn/T//cc7GTxSc.s:862    .text.applyGreenFingers:00000000000000b0 .LVL75
/var/folders/rt/4gvqv631095f64jvm7jfj_000000gn/T//cc7GTxSc.s:738    .text.applyGreenFingers:000000000000001a .LVL61
/var/folders/rt/4gvqv631095f64jvm7jfj_000000gn/T//cc7GTxSc.s:761    .text.applyGreenFingers:0000000000000028 .LVL63
/var/folders/rt/4gvqv631095f64jvm7jfj_000000gn/T//cc7GTxSc.s:767    .text.applyGreenFingers:000000000000002c .LVL65
/var/folders/rt/4gvqv631095f64jvm7jfj_000000gn/T//cc7GTxSc.s:318    .text.updatePlantReadings:0000000000000002 .LCFI4
/var/folders/rt/4gvqv631095f64jvm7jfj_000000gn/T//cc7GTxSc.s:401    .text.updatePlantReadings:0000000000000074 .LCFI5
/var/folders/rt/4gvqv631095f64jvm7jfj_000000gn/T//cc7GTxSc.s:407    .text.updatePlantReadings:000000000000007c .LCFI6
/var/folders/rt/4gvqv631095f64jvm7jfj_000000gn/T//cc7GTxSc.s:314    .text.updatePlantReadings:0000000000000000 .LVL25
/var/folders/rt/4gvqv631095f64jvm7jfj_000000gn/T//cc7GTxSc.s:336    .text.updatePlantReadings:0000000000000012 .LVL26
/var/folders/rt/4gvqv631095f64jvm7jfj_000000gn/T//cc7GTxSc.s:395    .text.updatePlantReadings:000000000000006e .LVL31
/var/folders/rt/4gvqv631095f64jvm7jfj_000000gn/T//cc7GTxSc.s:488    .text.updatePlantReadings:00000000000000e6 .LVL41
/var/folders/rt/4gvqv631095f64jvm7jfj_000000gn/T//cc7GTxSc.s:592    .text.updatePlantReadings:000000000000016e .LVL50
/var/folders/rt/4gvqv631095f64jvm7jfj_000000gn/T//cc7GTxSc.s:353    .text.updatePlantReadings:0000000000000030 .LVL28
/var/folders/rt/4gvqv631095f64jvm7jfj_000000gn/T//cc7GTxSc.s:385    .text.updatePlantReadings:000000000000006a .LVL30
GAS LISTING /var/folders/rt/4gvqv631095f64jvm7jfj_000000gn/T//cc7GTxSc.s 			page 37


/var/folders/rt/4gvqv631095f64jvm7jfj_000000gn/T//cc7GTxSc.s:415    .text.updatePlantReadings:0000000000000082 .LVL33
/var/folders/rt/4gvqv631095f64jvm7jfj_000000gn/T//cc7GTxSc.s:422    .text.updatePlantReadings:000000000000008c .LVL34
/var/folders/rt/4gvqv631095f64jvm7jfj_000000gn/T//cc7GTxSc.s:424    .text.updatePlantReadings:0000000000000090 .LVL35
/var/folders/rt/4gvqv631095f64jvm7jfj_000000gn/T//cc7GTxSc.s:438    .text.updatePlantReadings:00000000000000a6 .LVL36
/var/folders/rt/4gvqv631095f64jvm7jfj_000000gn/T//cc7GTxSc.s:479    .text.updatePlantReadings:00000000000000d8 .LVL40
/var/folders/rt/4gvqv631095f64jvm7jfj_000000gn/T//cc7GTxSc.s:457    .text.updatePlantReadings:00000000000000be .LVL38
/var/folders/rt/4gvqv631095f64jvm7jfj_000000gn/T//cc7GTxSc.s:463    .text.updatePlantReadings:00000000000000c6 .LVL39
/var/folders/rt/4gvqv631095f64jvm7jfj_000000gn/T//cc7GTxSc.s:516    .text.updatePlantReadings:0000000000000108 .LVL43
/var/folders/rt/4gvqv631095f64jvm7jfj_000000gn/T//cc7GTxSc.s:542    .text.updatePlantReadings:0000000000000130 .LVL45
/var/folders/rt/4gvqv631095f64jvm7jfj_000000gn/T//cc7GTxSc.s:583    .text.updatePlantReadings:0000000000000160 .LVL49
/var/folders/rt/4gvqv631095f64jvm7jfj_000000gn/T//cc7GTxSc.s:561    .text.updatePlantReadings:0000000000000146 .LVL47
/var/folders/rt/4gvqv631095f64jvm7jfj_000000gn/T//cc7GTxSc.s:567    .text.updatePlantReadings:000000000000014e .LVL48
/var/folders/rt/4gvqv631095f64jvm7jfj_000000gn/T//cc7GTxSc.s:620    .text.updatePlantReadings:0000000000000194 .LVL52
/var/folders/rt/4gvqv631095f64jvm7jfj_000000gn/T//cc7GTxSc.s:651    .text.updatePlantReadings:00000000000001c4 .LVL54
/var/folders/rt/4gvqv631095f64jvm7jfj_000000gn/T//cc7GTxSc.s:692    .text.updatePlantReadings:00000000000001f4 .LVL58
/var/folders/rt/4gvqv631095f64jvm7jfj_000000gn/T//cc7GTxSc.s:670    .text.updatePlantReadings:00000000000001da .LVL56
/var/folders/rt/4gvqv631095f64jvm7jfj_000000gn/T//cc7GTxSc.s:676    .text.updatePlantReadings:00000000000001e2 .LVL57
/var/folders/rt/4gvqv631095f64jvm7jfj_000000gn/T//cc7GTxSc.s:51     .text.initPlant:000000000000000e .LCFI2
/var/folders/rt/4gvqv631095f64jvm7jfj_000000gn/T//cc7GTxSc.s:241    .text.initPlant:0000000000000128 .LCFI3
/var/folders/rt/4gvqv631095f64jvm7jfj_000000gn/T//cc7GTxSc.s:43     .text.initPlant:0000000000000000 .LVL1
/var/folders/rt/4gvqv631095f64jvm7jfj_000000gn/T//cc7GTxSc.s:80     .text.initPlant:000000000000002e .LVL5
/var/folders/rt/4gvqv631095f64jvm7jfj_000000gn/T//cc7GTxSc.s:245    .text.initPlant:000000000000012a .LVL18
/var/folders/rt/4gvqv631095f64jvm7jfj_000000gn/T//cc7GTxSc.s:78     .text.initPlant:000000000000002c .LVL4
/var/folders/rt/4gvqv631095f64jvm7jfj_000000gn/T//cc7GTxSc.s:224    .text.initPlant:0000000000000110 .LVL11
/var/folders/rt/4gvqv631095f64jvm7jfj_000000gn/T//cc7GTxSc.s:58     .text.initPlant:0000000000000018 .LVL2
/var/folders/rt/4gvqv631095f64jvm7jfj_000000gn/T//cc7GTxSc.s:216    .text.initPlant:0000000000000108 .LVL9
/var/folders/rt/4gvqv631095f64jvm7jfj_000000gn/T//cc7GTxSc.s:69     .text.initPlant:000000000000002a .LVL3
/var/folders/rt/4gvqv631095f64jvm7jfj_000000gn/T//cc7GTxSc.s:239    .text.initPlant:0000000000000124 .LVL16
/var/folders/rt/4gvqv631095f64jvm7jfj_000000gn/T//cc7GTxSc.s:236    .text.initPlant:0000000000000120 .LVL15
/var/folders/rt/4gvqv631095f64jvm7jfj_000000gn/T//cc7GTxSc.s:233    .text.initPlant:000000000000011c .LVL14
/var/folders/rt/4gvqv631095f64jvm7jfj_000000gn/T//cc7GTxSc.s:230    .text.initPlant:0000000000000118 .LVL13
/var/folders/rt/4gvqv631095f64jvm7jfj_000000gn/T//cc7GTxSc.s:227    .text.initPlant:0000000000000114 .LVL12
/var/folders/rt/4gvqv631095f64jvm7jfj_000000gn/T//cc7GTxSc.s:243    .text.initPlant:0000000000000128 .LVL17
/var/folders/rt/4gvqv631095f64jvm7jfj_000000gn/T//cc7GTxSc.s:220    .text.initPlant:000000000000010c .LVL10
/var/folders/rt/4gvqv631095f64jvm7jfj_000000gn/T//cc7GTxSc.s:25     .text.initSensorReading:0000000000000002 .LCFI0
/var/folders/rt/4gvqv631095f64jvm7jfj_000000gn/T//cc7GTxSc.s:29     .text.initSensorReading:0000000000000004 .LCFI1
/var/folders/rt/4gvqv631095f64jvm7jfj_000000gn/T//cc7GTxSc.s:259    .text.updatePlantStatus:0000000000000000 .LVL19
/var/folders/rt/4gvqv631095f64jvm7jfj_000000gn/T//cc7GTxSc.s:279    .text.updatePlantStatus:0000000000000028 .LVL20
/var/folders/rt/4gvqv631095f64jvm7jfj_000000gn/T//cc7GTxSc.s:294    .text.updatePlantStatus:0000000000000042 .LVL23
/var/folders/rt/4gvqv631095f64jvm7jfj_000000gn/T//cc7GTxSc.s:287    .text.updatePlantStatus:0000000000000038 .LVL22
/var/folders/rt/4gvqv631095f64jvm7jfj_000000gn/T//cc7GTxSc.s:903    .debug_info:0000000000000000 .Ldebug_info0
/var/folders/rt/4gvqv631095f64jvm7jfj_000000gn/T//cc7GTxSc.s:332    .text.updatePlantReadings:0000000000000010 .LBB8
/var/folders/rt/4gvqv631095f64jvm7jfj_000000gn/T//cc7GTxSc.s:388    .text.updatePlantReadings:000000000000006a .LBE8
/var/folders/rt/4gvqv631095f64jvm7jfj_000000gn/T//cc7GTxSc.s:409    .text.updatePlantReadings:000000000000007c .LBB14
/var/folders/rt/4gvqv631095f64jvm7jfj_000000gn/T//cc7GTxSc.s:491    .text.updatePlantReadings:00000000000000e6 .LBE14
/var/folders/rt/4gvqv631095f64jvm7jfj_000000gn/T//cc7GTxSc.s:346    .text.updatePlantReadings:0000000000000026 .LBB9
/var/folders/rt/4gvqv631095f64jvm7jfj_000000gn/T//cc7GTxSc.s:387    .text.updatePlantReadings:000000000000006a .LBE9
/var/folders/rt/4gvqv631095f64jvm7jfj_000000gn/T//cc7GTxSc.s:410    .text.updatePlantReadings:000000000000007c .LBB10
/var/folders/rt/4gvqv631095f64jvm7jfj_000000gn/T//cc7GTxSc.s:426    .text.updatePlantReadings:0000000000000090 .LBE10
/var/folders/rt/4gvqv631095f64jvm7jfj_000000gn/T//cc7GTxSc.s:612    .text.updatePlantReadings:0000000000000186 .LBB21
/var/folders/rt/4gvqv631095f64jvm7jfj_000000gn/T//cc7GTxSc.s:617    .text.updatePlantReadings:000000000000018c .LBE21
/var/folders/rt/4gvqv631095f64jvm7jfj_000000gn/T//cc7GTxSc.s:621    .text.updatePlantReadings:0000000000000194 .LBB22
/var/folders/rt/4gvqv631095f64jvm7jfj_000000gn/T//cc7GTxSc.s:640    .text.updatePlantReadings:00000000000001b4 .LBE22
/var/folders/rt/4gvqv631095f64jvm7jfj_000000gn/T//cc7GTxSc.s:740    .text.applyGreenFingers:000000000000001a .LBB26
/var/folders/rt/4gvqv631095f64jvm7jfj_000000gn/T//cc7GTxSc.s:744    .text.applyGreenFingers:000000000000001c .LBE26
/var/folders/rt/4gvqv631095f64jvm7jfj_000000gn/T//cc7GTxSc.s:749    .text.applyGreenFingers:000000000000001e .LBB27
/var/folders/rt/4gvqv631095f64jvm7jfj_000000gn/T//cc7GTxSc.s:752    .text.applyGreenFingers:0000000000000022 .LBE27
GAS LISTING /var/folders/rt/4gvqv631095f64jvm7jfj_000000gn/T//cc7GTxSc.s 			page 38


/var/folders/rt/4gvqv631095f64jvm7jfj_000000gn/T//cc7GTxSc.s:776    .text.applyGreenFingers:0000000000000030 .LBB28
/var/folders/rt/4gvqv631095f64jvm7jfj_000000gn/T//cc7GTxSc.s:869    .text.applyGreenFingers:00000000000000b8 .LBE28

UNDEFINED SYMBOLS
snprintf
strcpy
memcpy
__fixsfsi
ADC_read
rtc_counter_get
read_temp
