GAS LISTING /var/folders/rt/4gvqv631095f64jvm7jfj_000000gn/T//cc71IUJd.s 			page 1


   1              		.file	"plant.c"
   2              		.option nopic
   3              		.attribute arch, "rv32i2p0_m2p0_a2p0_c2p0"
   4              		.attribute unaligned_access, 0
   5              		.attribute stack_align, 16
   6              		.text
   7              	.Ltext0:
   8              		.cfi_sections	.debug_frame
   9              		.section	.text.initSensorReading,"ax",@progbits
  10              		.align	1
  11              		.globl	initSensorReading
  13              	initSensorReading:
  14              	.LFB3:
  15              		.file 1 "plant.c"
   1:plant.c       **** #include "plant.h"
   2:plant.c       **** #include <stdio.h>
   3:plant.c       **** #define STR_COPY(dest, src) \
   4:plant.c       ****   snprintf(dest, sizeof(dest), "%s", src) // AI. STR_COPY är en genväg för snprintf som i sin tu
   5:plant.c       **** 
   6:plant.c       **** SensorReading initSensorReading(char timeStamp[], int inReading)
   7:plant.c       **** {
  16              		.loc 1 7 1
  17              		.cfi_startproc
  18              	.LVL0:
   8:plant.c       ****   SensorReading newReading;
  19              		.loc 1 8 3
   9:plant.c       ****   STR_COPY(newReading.timeStamp, timeStamp);
  20              		.loc 1 9 3
   7:plant.c       ****   SensorReading newReading;
  21              		.loc 1 7 1 is_stmt 0
  22 0000 0111     		addi	sp,sp,-32
  23              	.LCFI0:
  24              		.cfi_def_cfa_offset 32
  25 0002 26CA     		sw	s1,20(sp)
  26              		.cfi_offset 9, -12
  27 0004 B284     		mv	s1,a2
  28              		.loc 1 9 3
  29 0006 37060000 		lui	a2,%hi(.LC0)
  30              	.LVL1:
   7:plant.c       ****   SensorReading newReading;
  31              		.loc 1 7 1
  32 000a 22CC     		sw	s0,24(sp)
  33              		.loc 1 9 3
  34 000c AE86     		mv	a3,a1
  35              		.cfi_offset 8, -8
   7:plant.c       ****   SensorReading newReading;
  36              		.loc 1 7 1
  37 000e 2A84     		mv	s0,a0
  38              		.loc 1 9 3
  39 0010 13060600 		addi	a2,a2,%lo(.LC0)
  40 0014 A945     		li	a1,10
  41              	.LVL2:
  42 0016 0A85     		mv	a0,sp
  43              	.LVL3:
   7:plant.c       ****   SensorReading newReading;
  44              		.loc 1 7 1
  45 0018 06CE     		sw	ra,28(sp)
GAS LISTING /var/folders/rt/4gvqv631095f64jvm7jfj_000000gn/T//cc71IUJd.s 			page 2


  46              		.cfi_offset 1, -4
  47              		.loc 1 9 3
  48 001a 97000000 		call	snprintf
  48      E7800000 
  49              	.LVL4:
  10:plant.c       ****   newReading.reading = inReading;
  50              		.loc 1 10 3 is_stmt 1
  11:plant.c       ****   return newReading;
  51              		.loc 1 11 10 is_stmt 0
  52 0022 8A85     		mv	a1,sp
  53 0024 2285     		mv	a0,s0
  54 0026 4146     		li	a2,16
  10:plant.c       ****   newReading.reading = inReading;
  55              		.loc 1 10 22
  56 0028 26C6     		sw	s1,12(sp)
  57              		.loc 1 11 3 is_stmt 1
  58              		.loc 1 11 10 is_stmt 0
  59 002a 97000000 		call	memcpy
  59      E7800000 
  60              	.LVL5:
  12:plant.c       **** }
  61              		.loc 1 12 1
  62 0032 2285     		mv	a0,s0
  63 0034 F240     		lw	ra,28(sp)
  64              		.cfi_restore 1
  65 0036 6244     		lw	s0,24(sp)
  66              		.cfi_restore 8
  67              	.LVL6:
  68 0038 D244     		lw	s1,20(sp)
  69              		.cfi_restore 9
  70              	.LVL7:
  71 003a 0561     		addi	sp,sp,32
  72              	.LCFI1:
  73              		.cfi_def_cfa_offset 0
  74 003c 8280     		jr	ra
  75              		.cfi_endproc
  76              	.LFE3:
  78              		.section	.text.initPlant,"ax",@progbits
  79              		.align	1
  80              		.globl	initPlant
  82              	initPlant:
  83              	.LFB4:
  13:plant.c       **** 
  14:plant.c       **** void initPlant(char inName[], int *numberOfPlants, Plant allPlants[],
  15:plant.c       ****   int moistInterval, int sunInterval, int tempInterval, 
  16:plant.c       ****    int idealMoist, int lowMoist, int highMoist,
  17:plant.c       ****    int idealSun, int lowSun, int highSun,
  18:plant.c       ****    int idealTemp, int lowTemp, int highTemp)
  19:plant.c       **** {
  84              		.loc 1 19 1 is_stmt 1
  85              		.cfi_startproc
  86              	.LVL8:
  20:plant.c       ****   if (*numberOfPlants > 2)
  87              		.loc 1 20 3
  88              		.loc 1 20 6 is_stmt 0
  89 0000 03AE0500 		lw	t3,0(a1)
  90 0004 0943     		li	t1,2
GAS LISTING /var/folders/rt/4gvqv631095f64jvm7jfj_000000gn/T//cc71IUJd.s 			page 3


  91 0006 6340C317 		bgt	t3,t1,.L7
  19:plant.c       ****   if (*numberOfPlants > 2)
  92              		.loc 1 19 1
  93 000a 7971     		addi	sp,sp,-48
  94              	.LCFI2:
  95              		.cfi_def_cfa_offset 48
  96 000c 06D6     		sw	ra,44(sp)
  97 000e 22D4     		sw	s0,40(sp)
  98 0010 26D2     		sw	s1,36(sp)
  99 0012 4AD0     		sw	s2,32(sp)
 100 0014 4ECE     		sw	s3,28(sp)
 101 0016 52CC     		sw	s4,24(sp)
 102 0018 56CA     		sw	s5,20(sp)
 103 001a 5AC8     		sw	s6,16(sp)
 104              		.cfi_offset 1, -4
 105              		.cfi_offset 8, -8
 106              		.cfi_offset 9, -12
 107              		.cfi_offset 18, -16
 108              		.cfi_offset 19, -20
 109              		.cfi_offset 20, -24
 110              		.cfi_offset 21, -28
 111              		.cfi_offset 22, -32
 112 001c 2E84     		mv	s0,a1
 113 001e 13010182 		addi	sp,sp,-2016
 114              	.LCFI3:
 115              		.cfi_def_cfa_offset 2064
  21:plant.c       ****     return;
  22:plant.c       ****   Plant newPlant;
  23:plant.c       ****   SensorReading defaultReading = initSensorReading("00:00:00", 50);
 116              		.loc 1 23 34
 117 0022 B7050000 		lui	a1,%hi(.LC1)
 118              	.LVL9:
 119 0026 B284     		mv	s1,a2
 120 0028 2AC6     		sw	a0,12(sp)
  22:plant.c       ****   SensorReading defaultReading = initSensorReading("00:00:00", 50);
 121              		.loc 1 22 3 is_stmt 1
 122              		.loc 1 23 3
 123              		.loc 1 23 34 is_stmt 0
 124 002a 13062003 		li	a2,50
 125              	.LVL10:
 126 002e 0808     		addi	a0,sp,16
 127              	.LVL11:
 128 0030 93850500 		addi	a1,a1,%lo(.LC1)
 129 0034 4689     		mv	s2,a7
 130 0036 C289     		mv	s3,a6
 131 0038 3E8A     		mv	s4,a5
 132 003a BA8A     		mv	s5,a4
 133 003c 368B     		mv	s6,a3
 134 003e 97000000 		call	initSensorReading
 134      E7800000 
 135              	.LVL12:
  24:plant.c       **** 
  25:plant.c       ****   STR_COPY(newPlant.name, inName);
 136              		.loc 1 25 3 is_stmt 1
 137 0046 B246     		lw	a3,12(sp)
 138 0048 37060000 		lui	a2,%hi(.LC0)
 139 004c 13060600 		addi	a2,a2,%lo(.LC0)
GAS LISTING /var/folders/rt/4gvqv631095f64jvm7jfj_000000gn/T//cc71IUJd.s 			page 4


 140 0050 BD45     		li	a1,15
 141 0052 0810     		addi	a0,sp,32
 142 0054 97000000 		call	snprintf
 142      E7800000 
 143              	.LVL13:
  26:plant.c       ****   STR_COPY(newPlant.currentStatus, "OK");
 144              		.loc 1 26 3
 145 005c B7050000 		lui	a1,%hi(.LC2)
 146 0060 93850500 		addi	a1,a1,%lo(.LC2)
 147 0064 1305F102 		addi	a0,sp,47
 148 0068 97000000 		call	strcpy
 148      E7800000 
 149              	.LVL14:
  27:plant.c       **** 
  28:plant.c       ****   newPlant.moisture[0] = defaultReading;
 150              		.loc 1 28 3
 151              		.loc 1 28 24 is_stmt 0
 152 0070 0C08     		addi	a1,sp,16
 153 0072 4146     		li	a2,16
 154 0074 8800     		addi	a0,sp,64
 155 0076 97000000 		call	memcpy
 155      E7800000 
 156              	.LVL15:
  29:plant.c       ****   newPlant.sun[0] = defaultReading;
 157              		.loc 1 29 3 is_stmt 1
 158              		.loc 1 29 19 is_stmt 0
 159 007e 0C08     		addi	a1,sp,16
 160 0080 4146     		li	a2,16
 161 0082 8803     		addi	a0,sp,448
 162 0084 97000000 		call	memcpy
 162      E7800000 
 163              	.LVL16:
  30:plant.c       ****   newPlant.temp[0] = defaultReading;
 164              		.loc 1 30 3 is_stmt 1
 165              		.loc 1 30 20 is_stmt 0
 166 008c 0C08     		addi	a1,sp,16
 167 008e 4146     		li	a2,16
 168 0090 1305014C 		addi	a0,sp,1216
 169 0094 97000000 		call	memcpy
 169      E7800000 
 170              	.LVL17:
  31:plant.c       ****   newPlant.numberOfMoistureReadings = 1;
 171              		.loc 1 31 3 is_stmt 1
  32:plant.c       ****   newPlant.numberOfSunReadings = 1;
  33:plant.c       ****   newPlant.numberOfTempReadings = 1;
  34:plant.c       **** 
  35:plant.c       ****   newPlant.moistHistory[0] = 0;
  36:plant.c       ****   newPlant.sunHistory[0] = 0;
  37:plant.c       ****   newPlant.tempHistory[0] = 0;
  38:plant.c       ****   newPlant.numberOfMoistureHistory = 1;
  39:plant.c       ****   newPlant.numberOfSunHistory = 1;
  40:plant.c       ****   newPlant.numberOfTempHistory = 1;
  41:plant.c       **** 
  42:plant.c       ****   newPlant.moistInterval = moistInterval;
  43:plant.c       ****   newPlant.sunInterval = sunInterval;
  44:plant.c       ****   newPlant.tempInterval = tempInterval;
  45:plant.c       **** 
GAS LISTING /var/folders/rt/4gvqv631095f64jvm7jfj_000000gn/T//cc71IUJd.s 			page 5


  46:plant.c       ****   newPlant.idealMoist = idealMoist;
  47:plant.c       ****   newPlant.lowMoist = lowMoist;
  48:plant.c       ****   newPlant.highMoist = highMoist;
 172              		.loc 1 48 22 is_stmt 0
 173 009c 0567     		li	a4,4096
 174 009e 1408     		addi	a3,sp,16
 175 00a0 93070780 		addi	a5,a4,-2048
 176 00a4 B697     		add	a5,a5,a3
 177 00a6 9C43     		lw	a5,0(a5)
  49:plant.c       ****   
  50:plant.c       ****   newPlant.idealSun = idealSun;
  51:plant.c       ****   newPlant.lowSun = lowSun;
  52:plant.c       ****   newPlant.highSun = highSun;
  53:plant.c       **** 
  54:plant.c       ****   newPlant.idealTemp = idealTemp;
  55:plant.c       ****   newPlant.lowTemp = lowTemp;
  56:plant.c       ****   newPlant.highTemp = highTemp;
  57:plant.c       **** 
  58:plant.c       ****   allPlants[*numberOfPlants] = newPlant;
 178              		.loc 1 58 12
 179 00a8 0840     		lw	a0,0(s0)
  31:plant.c       ****   newPlant.numberOfSunReadings = 1;
 180              		.loc 1 31 37
 181 00aa 8545     		li	a1,1
  48:plant.c       ****   
 182              		.loc 1 48 22
 183 00ac 2322F17E 		sw	a5,2020(sp)
  50:plant.c       ****   newPlant.lowSun = lowSun;
 184              		.loc 1 50 21
 185 00b0 93074780 		addi	a5,a4,-2044
 186 00b4 B697     		add	a5,a5,a3
 187 00b6 9C43     		lw	a5,0(a5)
  31:plant.c       ****   newPlant.numberOfSunReadings = 1;
 188              		.loc 1 31 37
 189 00b8 2320B164 		sw	a1,1600(sp)
  32:plant.c       ****   newPlant.numberOfTempReadings = 1;
 190              		.loc 1 32 3 is_stmt 1
  32:plant.c       ****   newPlant.numberOfTempReadings = 1;
 191              		.loc 1 32 32 is_stmt 0
 192 00bc 2322B164 		sw	a1,1604(sp)
  33:plant.c       **** 
 193              		.loc 1 33 3 is_stmt 1
  50:plant.c       ****   newPlant.lowSun = lowSun;
 194              		.loc 1 50 21 is_stmt 0
 195 00c0 2328F17C 		sw	a5,2000(sp)
  51:plant.c       ****   newPlant.highSun = highSun;
 196              		.loc 1 51 19
 197 00c4 93078780 		addi	a5,a4,-2040
 198 00c8 B697     		add	a5,a5,a3
 199 00ca 9C43     		lw	a5,0(a5)
  33:plant.c       **** 
 200              		.loc 1 33 33
 201 00cc 2324B164 		sw	a1,1608(sp)
  35:plant.c       ****   newPlant.sunHistory[0] = 0;
 202              		.loc 1 35 3 is_stmt 1
  38:plant.c       ****   newPlant.numberOfSunHistory = 1;
 203              		.loc 1 38 36 is_stmt 0
GAS LISTING /var/folders/rt/4gvqv631095f64jvm7jfj_000000gn/T//cc71IUJd.s 			page 6


 204 00d0 232AB17A 		sw	a1,1972(sp)
  51:plant.c       ****   newPlant.highSun = highSun;
 205              		.loc 1 51 19
 206 00d4 232EF17C 		sw	a5,2012(sp)
  52:plant.c       **** 
 207              		.loc 1 52 20
 208 00d8 9307C780 		addi	a5,a4,-2036
 209 00dc B697     		add	a5,a5,a3
 210 00de 9C43     		lw	a5,0(a5)
  39:plant.c       ****   newPlant.numberOfTempHistory = 1;
 211              		.loc 1 39 31
 212 00e0 232CB17A 		sw	a1,1976(sp)
  40:plant.c       **** 
 213              		.loc 1 40 32
 214 00e4 232EB17A 		sw	a1,1980(sp)
  52:plant.c       **** 
 215              		.loc 1 52 20
 216 00e8 2324F17E 		sw	a5,2024(sp)
  54:plant.c       ****   newPlant.lowTemp = lowTemp;
 217              		.loc 1 54 22
 218 00ec 93070781 		addi	a5,a4,-2032
 219 00f0 B697     		add	a5,a5,a3
 220 00f2 9C43     		lw	a5,0(a5)
 221              		.loc 1 58 30
 222 00f4 0C10     		addi	a1,sp,32
 223 00f6 1306007D 		li	a2,2000
  54:plant.c       ****   newPlant.lowTemp = lowTemp;
 224              		.loc 1 54 22
 225 00fa 232AF17C 		sw	a5,2004(sp)
  55:plant.c       ****   newPlant.highTemp = highTemp;
 226              		.loc 1 55 20
 227 00fe 93074781 		addi	a5,a4,-2028
 228 0102 B697     		add	a5,a5,a3
 229 0104 9C43     		lw	a5,0(a5)
  42:plant.c       ****   newPlant.sunInterval = sunInterval;
 230              		.loc 1 42 26
 231 0106 2320617D 		sw	s6,1984(sp)
  43:plant.c       ****   newPlant.tempInterval = tempInterval;
 232              		.loc 1 43 24
 233 010a 2322517D 		sw	s5,1988(sp)
  55:plant.c       ****   newPlant.highTemp = highTemp;
 234              		.loc 1 55 20
 235 010e 2320F17E 		sw	a5,2016(sp)
  56:plant.c       **** 
 236              		.loc 1 56 21
 237 0112 93078781 		addi	a5,a4,-2024
 238 0116 B697     		add	a5,a5,a3
 239 0118 9C43     		lw	a5,0(a5)
  44:plant.c       **** 
 240              		.loc 1 44 25
 241 011a 2324417D 		sw	s4,1992(sp)
  46:plant.c       ****   newPlant.lowMoist = lowMoist;
 242              		.loc 1 46 23
 243 011e 2326317D 		sw	s3,1996(sp)
  56:plant.c       **** 
 244              		.loc 1 56 21
 245 0122 2326F17E 		sw	a5,2028(sp)
GAS LISTING /var/folders/rt/4gvqv631095f64jvm7jfj_000000gn/T//cc71IUJd.s 			page 7


 246              		.loc 1 58 30
 247 0126 9307007D 		li	a5,2000
 248 012a 3305F502 		mul	a0,a0,a5
  47:plant.c       ****   newPlant.highMoist = highMoist;
 249              		.loc 1 47 21
 250 012e 232C217D 		sw	s2,2008(sp)
  35:plant.c       ****   newPlant.sunHistory[0] = 0;
 251              		.loc 1 35 28
 252 0132 23260164 		sw	zero,1612(sp)
  36:plant.c       ****   newPlant.tempHistory[0] = 0;
 253              		.loc 1 36 3 is_stmt 1
  36:plant.c       ****   newPlant.tempHistory[0] = 0;
 254              		.loc 1 36 26 is_stmt 0
 255 0136 2322016C 		sw	zero,1732(sp)
  37:plant.c       ****   newPlant.numberOfMoistureHistory = 1;
 256              		.loc 1 37 3 is_stmt 1
  37:plant.c       ****   newPlant.numberOfMoistureHistory = 1;
 257              		.loc 1 37 27 is_stmt 0
 258 013a 232E0172 		sw	zero,1852(sp)
  38:plant.c       ****   newPlant.numberOfSunHistory = 1;
 259              		.loc 1 38 3 is_stmt 1
  39:plant.c       ****   newPlant.numberOfTempHistory = 1;
 260              		.loc 1 39 3
  40:plant.c       **** 
 261              		.loc 1 40 3
  42:plant.c       ****   newPlant.sunInterval = sunInterval;
 262              		.loc 1 42 3
  43:plant.c       ****   newPlant.tempInterval = tempInterval;
 263              		.loc 1 43 3
  44:plant.c       **** 
 264              		.loc 1 44 3
  46:plant.c       ****   newPlant.lowMoist = lowMoist;
 265              		.loc 1 46 3
  47:plant.c       ****   newPlant.highMoist = highMoist;
 266              		.loc 1 47 3
  48:plant.c       ****   
 267              		.loc 1 48 3
  50:plant.c       ****   newPlant.lowSun = lowSun;
 268              		.loc 1 50 3
  51:plant.c       ****   newPlant.highSun = highSun;
 269              		.loc 1 51 3
  52:plant.c       **** 
 270              		.loc 1 52 3
  54:plant.c       ****   newPlant.lowTemp = lowTemp;
 271              		.loc 1 54 3
  55:plant.c       ****   newPlant.highTemp = highTemp;
 272              		.loc 1 55 3
  56:plant.c       **** 
 273              		.loc 1 56 3
 274              		.loc 1 58 3
 275              		.loc 1 58 30 is_stmt 0
 276 013e 2695     		add	a0,s1,a0
 277 0140 97000000 		call	memcpy
 277      E7800000 
 278              	.LVL18:
  59:plant.c       ****   (*numberOfPlants)++;
 279              		.loc 1 59 3 is_stmt 1
GAS LISTING /var/folders/rt/4gvqv631095f64jvm7jfj_000000gn/T//cc71IUJd.s 			page 8


 280              		.loc 1 59 20 is_stmt 0
 281 0148 1C40     		lw	a5,0(s0)
 282 014a 8507     		addi	a5,a5,1
 283 014c 1CC0     		sw	a5,0(s0)
  60:plant.c       **** }
 284              		.loc 1 60 1
 285 014e 1301017E 		addi	sp,sp,2016
 286              	.LCFI4:
 287              		.cfi_def_cfa_offset 48
 288 0152 B250     		lw	ra,44(sp)
 289              		.cfi_restore 1
 290 0154 2254     		lw	s0,40(sp)
 291              		.cfi_restore 8
 292              	.LVL19:
 293 0156 9254     		lw	s1,36(sp)
 294              		.cfi_restore 9
 295              	.LVL20:
 296 0158 0259     		lw	s2,32(sp)
 297              		.cfi_restore 18
 298              	.LVL21:
 299 015a F249     		lw	s3,28(sp)
 300              		.cfi_restore 19
 301              	.LVL22:
 302 015c 624A     		lw	s4,24(sp)
 303              		.cfi_restore 20
 304              	.LVL23:
 305 015e D24A     		lw	s5,20(sp)
 306              		.cfi_restore 21
 307              	.LVL24:
 308 0160 424B     		lw	s6,16(sp)
 309              		.cfi_restore 22
 310              	.LVL25:
 311 0162 4561     		addi	sp,sp,48
 312              	.LCFI5:
 313              		.cfi_def_cfa_offset 0
 314              	.LVL26:
 315 0164 8280     		jr	ra
 316              	.LVL27:
 317              	.L7:
 318 0166 8280     		ret
 319              		.cfi_endproc
 320              	.LFE4:
 322              		.section	.rodata.initPlant.str1.4,"aMS",@progbits,1
 323              		.align	2
 324              	.LC1:
 325 0000 30303A30 		.string	"00:00:00"
 325      303A3030 
 325      00
 326 0009 000000   		.zero	3
 327              	.LC2:
 328 000c 4F4B00   		.string	"OK"
 329              		.section	.rodata.initSensorReading.str1.4,"aMS",@progbits,1
 330              		.align	2
 331              	.LC0:
 332 0000 257300   		.string	"%s"
 333              		.text
 334              	.Letext0:
GAS LISTING /var/folders/rt/4gvqv631095f64jvm7jfj_000000gn/T//cc71IUJd.s 			page 9


 335              		.file 2 "plant.h"
 336              		.file 3 "/Users/alexstrae/toolchain-gd32v-v202-osx/compiler/lib/gcc/riscv64-unknown-elf/8.3.0/incl
 337              		.file 4 "/Users/alexstrae/toolchain-gd32v-v202-osx/compiler/riscv64-unknown-elf/include/sys/_types
 338              		.file 5 "/Users/alexstrae/toolchain-gd32v-v202-osx/compiler/riscv64-unknown-elf/include/sys/reent.
 339              		.file 6 "/Users/alexstrae/toolchain-gd32v-v202-osx/compiler/riscv64-unknown-elf/include/sys/lock.h
 340              		.file 7 "<built-in>"
 341              		.file 8 "/Users/alexstrae/toolchain-gd32v-v202-osx/compiler/riscv64-unknown-elf/include/stdio.h"
GAS LISTING /var/folders/rt/4gvqv631095f64jvm7jfj_000000gn/T//cc71IUJd.s 			page 10


DEFINED SYMBOLS
                            *ABS*:0000000000000000 plant.c
/var/folders/rt/4gvqv631095f64jvm7jfj_000000gn/T//cc71IUJd.s:13     .text.initSensorReading:0000000000000000 initSensorReading
/var/folders/rt/4gvqv631095f64jvm7jfj_000000gn/T//cc71IUJd.s:17     .text.initSensorReading:0000000000000000 .L0 
/var/folders/rt/4gvqv631095f64jvm7jfj_000000gn/T//cc71IUJd.s:19     .text.initSensorReading:0000000000000000 .L0 
/var/folders/rt/4gvqv631095f64jvm7jfj_000000gn/T//cc71IUJd.s:20     .text.initSensorReading:0000000000000000 .L0 
/var/folders/rt/4gvqv631095f64jvm7jfj_000000gn/T//cc71IUJd.s:21     .text.initSensorReading:0000000000000000 .L0 
/var/folders/rt/4gvqv631095f64jvm7jfj_000000gn/T//cc71IUJd.s:22     .text.initSensorReading:0000000000000000 .L0 
/var/folders/rt/4gvqv631095f64jvm7jfj_000000gn/T//cc71IUJd.s:24     .text.initSensorReading:0000000000000002 .L0 
/var/folders/rt/4gvqv631095f64jvm7jfj_000000gn/T//cc71IUJd.s:26     .text.initSensorReading:0000000000000004 .L0 
/var/folders/rt/4gvqv631095f64jvm7jfj_000000gn/T//cc71IUJd.s:29     .text.initSensorReading:0000000000000006 .L0 
/var/folders/rt/4gvqv631095f64jvm7jfj_000000gn/T//cc71IUJd.s:32     .text.initSensorReading:000000000000000a .L0 
/var/folders/rt/4gvqv631095f64jvm7jfj_000000gn/T//cc71IUJd.s:34     .text.initSensorReading:000000000000000c .L0 
/var/folders/rt/4gvqv631095f64jvm7jfj_000000gn/T//cc71IUJd.s:35     .text.initSensorReading:000000000000000e .L0 
/var/folders/rt/4gvqv631095f64jvm7jfj_000000gn/T//cc71IUJd.s:37     .text.initSensorReading:000000000000000e .L0 
/var/folders/rt/4gvqv631095f64jvm7jfj_000000gn/T//cc71IUJd.s:39     .text.initSensorReading:0000000000000010 .L0 
/var/folders/rt/4gvqv631095f64jvm7jfj_000000gn/T//cc71IUJd.s:45     .text.initSensorReading:0000000000000018 .L0 
/var/folders/rt/4gvqv631095f64jvm7jfj_000000gn/T//cc71IUJd.s:46     .text.initSensorReading:000000000000001a .L0 
/var/folders/rt/4gvqv631095f64jvm7jfj_000000gn/T//cc71IUJd.s:48     .text.initSensorReading:000000000000001a .L0 
/var/folders/rt/4gvqv631095f64jvm7jfj_000000gn/T//cc71IUJd.s:51     .text.initSensorReading:0000000000000022 .L0 
/var/folders/rt/4gvqv631095f64jvm7jfj_000000gn/T//cc71IUJd.s:52     .text.initSensorReading:0000000000000022 .L0 
/var/folders/rt/4gvqv631095f64jvm7jfj_000000gn/T//cc71IUJd.s:56     .text.initSensorReading:0000000000000028 .L0 
/var/folders/rt/4gvqv631095f64jvm7jfj_000000gn/T//cc71IUJd.s:58     .text.initSensorReading:000000000000002a .L0 
/var/folders/rt/4gvqv631095f64jvm7jfj_000000gn/T//cc71IUJd.s:59     .text.initSensorReading:000000000000002a .L0 
/var/folders/rt/4gvqv631095f64jvm7jfj_000000gn/T//cc71IUJd.s:62     .text.initSensorReading:0000000000000032 .L0 
/var/folders/rt/4gvqv631095f64jvm7jfj_000000gn/T//cc71IUJd.s:64     .text.initSensorReading:0000000000000036 .L0 
/var/folders/rt/4gvqv631095f64jvm7jfj_000000gn/T//cc71IUJd.s:66     .text.initSensorReading:0000000000000038 .L0 
/var/folders/rt/4gvqv631095f64jvm7jfj_000000gn/T//cc71IUJd.s:69     .text.initSensorReading:000000000000003a .L0 
/var/folders/rt/4gvqv631095f64jvm7jfj_000000gn/T//cc71IUJd.s:73     .text.initSensorReading:000000000000003c .L0 
/var/folders/rt/4gvqv631095f64jvm7jfj_000000gn/T//cc71IUJd.s:75     .text.initSensorReading:000000000000003e .L0 
/var/folders/rt/4gvqv631095f64jvm7jfj_000000gn/T//cc71IUJd.s:82     .text.initPlant:0000000000000000 initPlant
/var/folders/rt/4gvqv631095f64jvm7jfj_000000gn/T//cc71IUJd.s:85     .text.initPlant:0000000000000000 .L0 
/var/folders/rt/4gvqv631095f64jvm7jfj_000000gn/T//cc71IUJd.s:87     .text.initPlant:0000000000000000 .L0 
/var/folders/rt/4gvqv631095f64jvm7jfj_000000gn/T//cc71IUJd.s:88     .text.initPlant:0000000000000000 .L0 
/var/folders/rt/4gvqv631095f64jvm7jfj_000000gn/T//cc71IUJd.s:89     .text.initPlant:0000000000000000 .L0 
/var/folders/rt/4gvqv631095f64jvm7jfj_000000gn/T//cc71IUJd.s:93     .text.initPlant:000000000000000a .L0 
/var/folders/rt/4gvqv631095f64jvm7jfj_000000gn/T//cc71IUJd.s:95     .text.initPlant:000000000000000c .L0 
/var/folders/rt/4gvqv631095f64jvm7jfj_000000gn/T//cc71IUJd.s:104    .text.initPlant:000000000000001c .L0 
/var/folders/rt/4gvqv631095f64jvm7jfj_000000gn/T//cc71IUJd.s:105    .text.initPlant:000000000000001c .L0 
/var/folders/rt/4gvqv631095f64jvm7jfj_000000gn/T//cc71IUJd.s:106    .text.initPlant:000000000000001c .L0 
/var/folders/rt/4gvqv631095f64jvm7jfj_000000gn/T//cc71IUJd.s:107    .text.initPlant:000000000000001c .L0 
/var/folders/rt/4gvqv631095f64jvm7jfj_000000gn/T//cc71IUJd.s:108    .text.initPlant:000000000000001c .L0 
/var/folders/rt/4gvqv631095f64jvm7jfj_000000gn/T//cc71IUJd.s:109    .text.initPlant:000000000000001c .L0 
/var/folders/rt/4gvqv631095f64jvm7jfj_000000gn/T//cc71IUJd.s:110    .text.initPlant:000000000000001c .L0 
/var/folders/rt/4gvqv631095f64jvm7jfj_000000gn/T//cc71IUJd.s:111    .text.initPlant:000000000000001c .L0 
/var/folders/rt/4gvqv631095f64jvm7jfj_000000gn/T//cc71IUJd.s:115    .text.initPlant:0000000000000022 .L0 
/var/folders/rt/4gvqv631095f64jvm7jfj_000000gn/T//cc71IUJd.s:117    .text.initPlant:0000000000000022 .L0 
/var/folders/rt/4gvqv631095f64jvm7jfj_000000gn/T//cc71IUJd.s:122    .text.initPlant:000000000000002a .L0 
/var/folders/rt/4gvqv631095f64jvm7jfj_000000gn/T//cc71IUJd.s:123    .text.initPlant:000000000000002a .L0 
/var/folders/rt/4gvqv631095f64jvm7jfj_000000gn/T//cc71IUJd.s:124    .text.initPlant:000000000000002a .L0 
/var/folders/rt/4gvqv631095f64jvm7jfj_000000gn/T//cc71IUJd.s:137    .text.initPlant:0000000000000046 .L0 
/var/folders/rt/4gvqv631095f64jvm7jfj_000000gn/T//cc71IUJd.s:145    .text.initPlant:000000000000005c .L0 
/var/folders/rt/4gvqv631095f64jvm7jfj_000000gn/T//cc71IUJd.s:151    .text.initPlant:0000000000000070 .L0 
/var/folders/rt/4gvqv631095f64jvm7jfj_000000gn/T//cc71IUJd.s:152    .text.initPlant:0000000000000070 .L0 
/var/folders/rt/4gvqv631095f64jvm7jfj_000000gn/T//cc71IUJd.s:158    .text.initPlant:000000000000007e .L0 
/var/folders/rt/4gvqv631095f64jvm7jfj_000000gn/T//cc71IUJd.s:159    .text.initPlant:000000000000007e .L0 
/var/folders/rt/4gvqv631095f64jvm7jfj_000000gn/T//cc71IUJd.s:165    .text.initPlant:000000000000008c .L0 
GAS LISTING /var/folders/rt/4gvqv631095f64jvm7jfj_000000gn/T//cc71IUJd.s 			page 11


/var/folders/rt/4gvqv631095f64jvm7jfj_000000gn/T//cc71IUJd.s:166    .text.initPlant:000000000000008c .L0 
/var/folders/rt/4gvqv631095f64jvm7jfj_000000gn/T//cc71IUJd.s:172    .text.initPlant:000000000000009c .L0 
/var/folders/rt/4gvqv631095f64jvm7jfj_000000gn/T//cc71IUJd.s:173    .text.initPlant:000000000000009c .L0 
/var/folders/rt/4gvqv631095f64jvm7jfj_000000gn/T//cc71IUJd.s:179    .text.initPlant:00000000000000a8 .L0 
/var/folders/rt/4gvqv631095f64jvm7jfj_000000gn/T//cc71IUJd.s:181    .text.initPlant:00000000000000aa .L0 
/var/folders/rt/4gvqv631095f64jvm7jfj_000000gn/T//cc71IUJd.s:183    .text.initPlant:00000000000000ac .L0 
/var/folders/rt/4gvqv631095f64jvm7jfj_000000gn/T//cc71IUJd.s:185    .text.initPlant:00000000000000b0 .L0 
/var/folders/rt/4gvqv631095f64jvm7jfj_000000gn/T//cc71IUJd.s:189    .text.initPlant:00000000000000b8 .L0 
/var/folders/rt/4gvqv631095f64jvm7jfj_000000gn/T//cc71IUJd.s:191    .text.initPlant:00000000000000bc .L0 
/var/folders/rt/4gvqv631095f64jvm7jfj_000000gn/T//cc71IUJd.s:192    .text.initPlant:00000000000000bc .L0 
/var/folders/rt/4gvqv631095f64jvm7jfj_000000gn/T//cc71IUJd.s:194    .text.initPlant:00000000000000c0 .L0 
/var/folders/rt/4gvqv631095f64jvm7jfj_000000gn/T//cc71IUJd.s:195    .text.initPlant:00000000000000c0 .L0 
/var/folders/rt/4gvqv631095f64jvm7jfj_000000gn/T//cc71IUJd.s:197    .text.initPlant:00000000000000c4 .L0 
/var/folders/rt/4gvqv631095f64jvm7jfj_000000gn/T//cc71IUJd.s:201    .text.initPlant:00000000000000cc .L0 
/var/folders/rt/4gvqv631095f64jvm7jfj_000000gn/T//cc71IUJd.s:203    .text.initPlant:00000000000000d0 .L0 
/var/folders/rt/4gvqv631095f64jvm7jfj_000000gn/T//cc71IUJd.s:204    .text.initPlant:00000000000000d0 .L0 
/var/folders/rt/4gvqv631095f64jvm7jfj_000000gn/T//cc71IUJd.s:206    .text.initPlant:00000000000000d4 .L0 
/var/folders/rt/4gvqv631095f64jvm7jfj_000000gn/T//cc71IUJd.s:208    .text.initPlant:00000000000000d8 .L0 
/var/folders/rt/4gvqv631095f64jvm7jfj_000000gn/T//cc71IUJd.s:212    .text.initPlant:00000000000000e0 .L0 
/var/folders/rt/4gvqv631095f64jvm7jfj_000000gn/T//cc71IUJd.s:214    .text.initPlant:00000000000000e4 .L0 
/var/folders/rt/4gvqv631095f64jvm7jfj_000000gn/T//cc71IUJd.s:216    .text.initPlant:00000000000000e8 .L0 
/var/folders/rt/4gvqv631095f64jvm7jfj_000000gn/T//cc71IUJd.s:218    .text.initPlant:00000000000000ec .L0 
/var/folders/rt/4gvqv631095f64jvm7jfj_000000gn/T//cc71IUJd.s:222    .text.initPlant:00000000000000f4 .L0 
/var/folders/rt/4gvqv631095f64jvm7jfj_000000gn/T//cc71IUJd.s:225    .text.initPlant:00000000000000fa .L0 
/var/folders/rt/4gvqv631095f64jvm7jfj_000000gn/T//cc71IUJd.s:227    .text.initPlant:00000000000000fe .L0 
/var/folders/rt/4gvqv631095f64jvm7jfj_000000gn/T//cc71IUJd.s:231    .text.initPlant:0000000000000106 .L0 
/var/folders/rt/4gvqv631095f64jvm7jfj_000000gn/T//cc71IUJd.s:233    .text.initPlant:000000000000010a .L0 
/var/folders/rt/4gvqv631095f64jvm7jfj_000000gn/T//cc71IUJd.s:235    .text.initPlant:000000000000010e .L0 
/var/folders/rt/4gvqv631095f64jvm7jfj_000000gn/T//cc71IUJd.s:237    .text.initPlant:0000000000000112 .L0 
/var/folders/rt/4gvqv631095f64jvm7jfj_000000gn/T//cc71IUJd.s:241    .text.initPlant:000000000000011a .L0 
/var/folders/rt/4gvqv631095f64jvm7jfj_000000gn/T//cc71IUJd.s:243    .text.initPlant:000000000000011e .L0 
/var/folders/rt/4gvqv631095f64jvm7jfj_000000gn/T//cc71IUJd.s:245    .text.initPlant:0000000000000122 .L0 
/var/folders/rt/4gvqv631095f64jvm7jfj_000000gn/T//cc71IUJd.s:247    .text.initPlant:0000000000000126 .L0 
/var/folders/rt/4gvqv631095f64jvm7jfj_000000gn/T//cc71IUJd.s:250    .text.initPlant:000000000000012e .L0 
/var/folders/rt/4gvqv631095f64jvm7jfj_000000gn/T//cc71IUJd.s:252    .text.initPlant:0000000000000132 .L0 
/var/folders/rt/4gvqv631095f64jvm7jfj_000000gn/T//cc71IUJd.s:254    .text.initPlant:0000000000000136 .L0 
/var/folders/rt/4gvqv631095f64jvm7jfj_000000gn/T//cc71IUJd.s:255    .text.initPlant:0000000000000136 .L0 
/var/folders/rt/4gvqv631095f64jvm7jfj_000000gn/T//cc71IUJd.s:257    .text.initPlant:000000000000013a .L0 
/var/folders/rt/4gvqv631095f64jvm7jfj_000000gn/T//cc71IUJd.s:258    .text.initPlant:000000000000013a .L0 
/var/folders/rt/4gvqv631095f64jvm7jfj_000000gn/T//cc71IUJd.s:260    .text.initPlant:000000000000013e .L0 
/var/folders/rt/4gvqv631095f64jvm7jfj_000000gn/T//cc71IUJd.s:261    .text.initPlant:000000000000013e .L0 
/var/folders/rt/4gvqv631095f64jvm7jfj_000000gn/T//cc71IUJd.s:262    .text.initPlant:000000000000013e .L0 
/var/folders/rt/4gvqv631095f64jvm7jfj_000000gn/T//cc71IUJd.s:263    .text.initPlant:000000000000013e .L0 
/var/folders/rt/4gvqv631095f64jvm7jfj_000000gn/T//cc71IUJd.s:264    .text.initPlant:000000000000013e .L0 
/var/folders/rt/4gvqv631095f64jvm7jfj_000000gn/T//cc71IUJd.s:265    .text.initPlant:000000000000013e .L0 
/var/folders/rt/4gvqv631095f64jvm7jfj_000000gn/T//cc71IUJd.s:266    .text.initPlant:000000000000013e .L0 
/var/folders/rt/4gvqv631095f64jvm7jfj_000000gn/T//cc71IUJd.s:267    .text.initPlant:000000000000013e .L0 
/var/folders/rt/4gvqv631095f64jvm7jfj_000000gn/T//cc71IUJd.s:268    .text.initPlant:000000000000013e .L0 
/var/folders/rt/4gvqv631095f64jvm7jfj_000000gn/T//cc71IUJd.s:269    .text.initPlant:000000000000013e .L0 
/var/folders/rt/4gvqv631095f64jvm7jfj_000000gn/T//cc71IUJd.s:270    .text.initPlant:000000000000013e .L0 
/var/folders/rt/4gvqv631095f64jvm7jfj_000000gn/T//cc71IUJd.s:271    .text.initPlant:000000000000013e .L0 
/var/folders/rt/4gvqv631095f64jvm7jfj_000000gn/T//cc71IUJd.s:272    .text.initPlant:000000000000013e .L0 
/var/folders/rt/4gvqv631095f64jvm7jfj_000000gn/T//cc71IUJd.s:273    .text.initPlant:000000000000013e .L0 
/var/folders/rt/4gvqv631095f64jvm7jfj_000000gn/T//cc71IUJd.s:274    .text.initPlant:000000000000013e .L0 
/var/folders/rt/4gvqv631095f64jvm7jfj_000000gn/T//cc71IUJd.s:275    .text.initPlant:000000000000013e .L0 
/var/folders/rt/4gvqv631095f64jvm7jfj_000000gn/T//cc71IUJd.s:276    .text.initPlant:000000000000013e .L0 
/var/folders/rt/4gvqv631095f64jvm7jfj_000000gn/T//cc71IUJd.s:280    .text.initPlant:0000000000000148 .L0 
GAS LISTING /var/folders/rt/4gvqv631095f64jvm7jfj_000000gn/T//cc71IUJd.s 			page 12


/var/folders/rt/4gvqv631095f64jvm7jfj_000000gn/T//cc71IUJd.s:281    .text.initPlant:0000000000000148 .L0 
/var/folders/rt/4gvqv631095f64jvm7jfj_000000gn/T//cc71IUJd.s:285    .text.initPlant:000000000000014e .L0 
/var/folders/rt/4gvqv631095f64jvm7jfj_000000gn/T//cc71IUJd.s:287    .text.initPlant:0000000000000152 .L0 
/var/folders/rt/4gvqv631095f64jvm7jfj_000000gn/T//cc71IUJd.s:289    .text.initPlant:0000000000000154 .L0 
/var/folders/rt/4gvqv631095f64jvm7jfj_000000gn/T//cc71IUJd.s:291    .text.initPlant:0000000000000156 .L0 
/var/folders/rt/4gvqv631095f64jvm7jfj_000000gn/T//cc71IUJd.s:294    .text.initPlant:0000000000000158 .L0 
/var/folders/rt/4gvqv631095f64jvm7jfj_000000gn/T//cc71IUJd.s:297    .text.initPlant:000000000000015a .L0 
/var/folders/rt/4gvqv631095f64jvm7jfj_000000gn/T//cc71IUJd.s:300    .text.initPlant:000000000000015c .L0 
/var/folders/rt/4gvqv631095f64jvm7jfj_000000gn/T//cc71IUJd.s:303    .text.initPlant:000000000000015e .L0 
/var/folders/rt/4gvqv631095f64jvm7jfj_000000gn/T//cc71IUJd.s:306    .text.initPlant:0000000000000160 .L0 
/var/folders/rt/4gvqv631095f64jvm7jfj_000000gn/T//cc71IUJd.s:309    .text.initPlant:0000000000000162 .L0 
/var/folders/rt/4gvqv631095f64jvm7jfj_000000gn/T//cc71IUJd.s:313    .text.initPlant:0000000000000164 .L0 
/var/folders/rt/4gvqv631095f64jvm7jfj_000000gn/T//cc71IUJd.s:319    .text.initPlant:0000000000000168 .L0 
/var/folders/rt/4gvqv631095f64jvm7jfj_000000gn/T//cc71IUJd.s:78     .text.initSensorReading:000000000000003e .L0 
/var/folders/rt/4gvqv631095f64jvm7jfj_000000gn/T//cc71IUJd.s:322    .text.initPlant:0000000000000168 .L0 
                     .debug_frame:0000000000000000 .L0 
/var/folders/rt/4gvqv631095f64jvm7jfj_000000gn/T//cc71IUJd.s:331    .rodata.initSensorReading.str1.4:0000000000000000 .LC0
/var/folders/rt/4gvqv631095f64jvm7jfj_000000gn/T//cc71IUJd.s:324    .rodata.initPlant.str1.4:0000000000000000 .LC1
/var/folders/rt/4gvqv631095f64jvm7jfj_000000gn/T//cc71IUJd.s:327    .rodata.initPlant.str1.4:000000000000000c .LC2
/var/folders/rt/4gvqv631095f64jvm7jfj_000000gn/T//cc71IUJd.s:317    .text.initPlant:0000000000000166 .L7
/var/folders/rt/4gvqv631095f64jvm7jfj_000000gn/T//cc71IUJd.s:2446   .debug_abbrev:0000000000000000 .Ldebug_abbrev0
/var/folders/rt/4gvqv631095f64jvm7jfj_000000gn/T//cc71IUJd.s:3683   .debug_str:000000000000055e .LASF160
/var/folders/rt/4gvqv631095f64jvm7jfj_000000gn/T//cc71IUJd.s:3451   .debug_str:00000000000000dd .LASF161
/var/folders/rt/4gvqv631095f64jvm7jfj_000000gn/T//cc71IUJd.s:3687   .debug_str:00000000000005ef .LASF162
/var/folders/rt/4gvqv631095f64jvm7jfj_000000gn/T//cc71IUJd.s:3403   .debug_ranges:0000000000000000 .Ldebug_ranges0
/var/folders/rt/4gvqv631095f64jvm7jfj_000000gn/T//cc71IUJd.s:3411   .debug_line:0000000000000000 .Ldebug_line0
/var/folders/rt/4gvqv631095f64jvm7jfj_000000gn/T//cc71IUJd.s:3637   .debug_str:000000000000047c .LASF0
/var/folders/rt/4gvqv631095f64jvm7jfj_000000gn/T//cc71IUJd.s:3481   .debug_str:0000000000000160 .LASF1
/var/folders/rt/4gvqv631095f64jvm7jfj_000000gn/T//cc71IUJd.s:3513   .debug_str:00000000000001fb .LASF2
/var/folders/rt/4gvqv631095f64jvm7jfj_000000gn/T//cc71IUJd.s:3667   .debug_str:0000000000000514 .LASF3
/var/folders/rt/4gvqv631095f64jvm7jfj_000000gn/T//cc71IUJd.s:3629   .debug_str:0000000000000457 .LASF29
/var/folders/rt/4gvqv631095f64jvm7jfj_000000gn/T//cc71IUJd.s:3529   .debug_str:000000000000025d .LASF4
/var/folders/rt/4gvqv631095f64jvm7jfj_000000gn/T//cc71IUJd.s:3483   .debug_str:0000000000000168 .LASF5
/var/folders/rt/4gvqv631095f64jvm7jfj_000000gn/T//cc71IUJd.s:3507   .debug_str:00000000000001e8 .LASF6
/var/folders/rt/4gvqv631095f64jvm7jfj_000000gn/T//cc71IUJd.s:3509   .debug_str:00000000000001f1 .LASF7
/var/folders/rt/4gvqv631095f64jvm7jfj_000000gn/T//cc71IUJd.s:3581   .debug_str:0000000000000359 .LASF8
/var/folders/rt/4gvqv631095f64jvm7jfj_000000gn/T//cc71IUJd.s:3469   .debug_str:0000000000000127 .LASF9
/var/folders/rt/4gvqv631095f64jvm7jfj_000000gn/T//cc71IUJd.s:3527   .debug_str:0000000000000248 .LASF10
/var/folders/rt/4gvqv631095f64jvm7jfj_000000gn/T//cc71IUJd.s:3449   .debug_str:00000000000000d0 .LASF11
/var/folders/rt/4gvqv631095f64jvm7jfj_000000gn/T//cc71IUJd.s:3425   .debug_str:0000000000000034 .LASF12
/var/folders/rt/4gvqv631095f64jvm7jfj_000000gn/T//cc71IUJd.s:3675   .debug_str:000000000000053f .LASF13
/var/folders/rt/4gvqv631095f64jvm7jfj_000000gn/T//cc71IUJd.s:3559   .debug_str:00000000000002e5 .LASF14
/var/folders/rt/4gvqv631095f64jvm7jfj_000000gn/T//cc71IUJd.s:3439   .debug_str:000000000000008c .LASF15
/var/folders/rt/4gvqv631095f64jvm7jfj_000000gn/T//cc71IUJd.s:3645   .debug_str:00000000000004b1 .LASF16
/var/folders/rt/4gvqv631095f64jvm7jfj_000000gn/T//cc71IUJd.s:3743   .debug_str:000000000000073e .LASF17
/var/folders/rt/4gvqv631095f64jvm7jfj_000000gn/T//cc71IUJd.s:3571   .debug_str:0000000000000329 .LASF18
/var/folders/rt/4gvqv631095f64jvm7jfj_000000gn/T//cc71IUJd.s:3431   .debug_str:0000000000000054 .LASF19
/var/folders/rt/4gvqv631095f64jvm7jfj_000000gn/T//cc71IUJd.s:3721   .debug_str:00000000000006d8 .LASF20
/var/folders/rt/4gvqv631095f64jvm7jfj_000000gn/T//cc71IUJd.s:3709   .debug_str:00000000000006a5 .LASF21
/var/folders/rt/4gvqv631095f64jvm7jfj_000000gn/T//cc71IUJd.s:3707   .debug_str:000000000000069b .LASF22
/var/folders/rt/4gvqv631095f64jvm7jfj_000000gn/T//cc71IUJd.s:3577   .debug_str:0000000000000349 .LASF23
/var/folders/rt/4gvqv631095f64jvm7jfj_000000gn/T//cc71IUJd.s:3681   .debug_str:0000000000000557 .LASF24
/var/folders/rt/4gvqv631095f64jvm7jfj_000000gn/T//cc71IUJd.s:3567   .debug_str:0000000000000318 .LASF25
/var/folders/rt/4gvqv631095f64jvm7jfj_000000gn/T//cc71IUJd.s:3601   .debug_str:00000000000003d3 .LASF26
/var/folders/rt/4gvqv631095f64jvm7jfj_000000gn/T//cc71IUJd.s:3689   .debug_str:0000000000000632 .LASF27
/var/folders/rt/4gvqv631095f64jvm7jfj_000000gn/T//cc71IUJd.s:3423   .debug_str:000000000000002b .LASF28
/var/folders/rt/4gvqv631095f64jvm7jfj_000000gn/T//cc71IUJd.s:3415   .debug_str:000000000000000c .LASF30
GAS LISTING /var/folders/rt/4gvqv631095f64jvm7jfj_000000gn/T//cc71IUJd.s 			page 13


/var/folders/rt/4gvqv631095f64jvm7jfj_000000gn/T//cc71IUJd.s:3447   .debug_str:00000000000000c4 .LASF31
/var/folders/rt/4gvqv631095f64jvm7jfj_000000gn/T//cc71IUJd.s:3603   .debug_str:00000000000003dd .LASF32
/var/folders/rt/4gvqv631095f64jvm7jfj_000000gn/T//cc71IUJd.s:3609   .debug_str:00000000000003f9 .LASF33
/var/folders/rt/4gvqv631095f64jvm7jfj_000000gn/T//cc71IUJd.s:3533   .debug_str:0000000000000269 .LASF34
/var/folders/rt/4gvqv631095f64jvm7jfj_000000gn/T//cc71IUJd.s:3467   .debug_str:000000000000011e .LASF35
/var/folders/rt/4gvqv631095f64jvm7jfj_000000gn/T//cc71IUJd.s:3523   .debug_str:0000000000000230 .LASF36
/var/folders/rt/4gvqv631095f64jvm7jfj_000000gn/T//cc71IUJd.s:3445   .debug_str:00000000000000b6 .LASF37
/var/folders/rt/4gvqv631095f64jvm7jfj_000000gn/T//cc71IUJd.s:3433   .debug_str:0000000000000061 .LASF38
/var/folders/rt/4gvqv631095f64jvm7jfj_000000gn/T//cc71IUJd.s:3575   .debug_str:000000000000033d .LASF39
/var/folders/rt/4gvqv631095f64jvm7jfj_000000gn/T//cc71IUJd.s:3549   .debug_str:00000000000002b8 .LASF40
/var/folders/rt/4gvqv631095f64jvm7jfj_000000gn/T//cc71IUJd.s:3591   .debug_str:00000000000003a0 .LASF41
/var/folders/rt/4gvqv631095f64jvm7jfj_000000gn/T//cc71IUJd.s:3663   .debug_str:0000000000000505 .LASF42
/var/folders/rt/4gvqv631095f64jvm7jfj_000000gn/T//cc71IUJd.s:3717   .debug_str:00000000000006c5 .LASF43
/var/folders/rt/4gvqv631095f64jvm7jfj_000000gn/T//cc71IUJd.s:3543   .debug_str:00000000000002a4 .LASF44
/var/folders/rt/4gvqv631095f64jvm7jfj_000000gn/T//cc71IUJd.s:3515   .debug_str:0000000000000208 .LASF45
/var/folders/rt/4gvqv631095f64jvm7jfj_000000gn/T//cc71IUJd.s:3655   .debug_str:00000000000004e3 .LASF46
/var/folders/rt/4gvqv631095f64jvm7jfj_000000gn/T//cc71IUJd.s:3657   .debug_str:00000000000004eb .LASF47
/var/folders/rt/4gvqv631095f64jvm7jfj_000000gn/T//cc71IUJd.s:3619   .debug_str:0000000000000421 .LASF48
/var/folders/rt/4gvqv631095f64jvm7jfj_000000gn/T//cc71IUJd.s:3693   .debug_str:000000000000063f .LASF49
/var/folders/rt/4gvqv631095f64jvm7jfj_000000gn/T//cc71IUJd.s:3597   .debug_str:00000000000003bb .LASF50
/var/folders/rt/4gvqv631095f64jvm7jfj_000000gn/T//cc71IUJd.s:3499   .debug_str:00000000000001c0 .LASF51
/var/folders/rt/4gvqv631095f64jvm7jfj_000000gn/T//cc71IUJd.s:3503   .debug_str:00000000000001d1 .LASF56
/var/folders/rt/4gvqv631095f64jvm7jfj_000000gn/T//cc71IUJd.s:3679   .debug_str:0000000000000551 .LASF52
/var/folders/rt/4gvqv631095f64jvm7jfj_000000gn/T//cc71IUJd.s:3647   .debug_str:00000000000004c5 .LASF53
/var/folders/rt/4gvqv631095f64jvm7jfj_000000gn/T//cc71IUJd.s:3497   .debug_str:00000000000001ba .LASF54
/var/folders/rt/4gvqv631095f64jvm7jfj_000000gn/T//cc71IUJd.s:3475   .debug_str:000000000000014a .LASF55
/var/folders/rt/4gvqv631095f64jvm7jfj_000000gn/T//cc71IUJd.s:3511   .debug_str:00000000000001f6 .LASF57
/var/folders/rt/4gvqv631095f64jvm7jfj_000000gn/T//cc71IUJd.s:3443   .debug_str:00000000000000ad .LASF58
/var/folders/rt/4gvqv631095f64jvm7jfj_000000gn/T//cc71IUJd.s:3673   .debug_str:0000000000000536 .LASF59
/var/folders/rt/4gvqv631095f64jvm7jfj_000000gn/T//cc71IUJd.s:3457   .debug_str:00000000000000f1 .LASF60
/var/folders/rt/4gvqv631095f64jvm7jfj_000000gn/T//cc71IUJd.s:3745   .debug_str:000000000000074c .LASF61
/var/folders/rt/4gvqv631095f64jvm7jfj_000000gn/T//cc71IUJd.s:3585   .debug_str:0000000000000384 .LASF62
/var/folders/rt/4gvqv631095f64jvm7jfj_000000gn/T//cc71IUJd.s:3565   .debug_str:000000000000030e .LASF63
/var/folders/rt/4gvqv631095f64jvm7jfj_000000gn/T//cc71IUJd.s:3711   .debug_str:00000000000006ae .LASF64
/var/folders/rt/4gvqv631095f64jvm7jfj_000000gn/T//cc71IUJd.s:3611   .debug_str:0000000000000403 .LASF65
/var/folders/rt/4gvqv631095f64jvm7jfj_000000gn/T//cc71IUJd.s:3731   .debug_str:0000000000000705 .LASF66
/var/folders/rt/4gvqv631095f64jvm7jfj_000000gn/T//cc71IUJd.s:3461   .debug_str:0000000000000100 .LASF67
/var/folders/rt/4gvqv631095f64jvm7jfj_000000gn/T//cc71IUJd.s:3491   .debug_str:00000000000001a2 .LASF68
/var/folders/rt/4gvqv631095f64jvm7jfj_000000gn/T//cc71IUJd.s:3413   .debug_str:0000000000000000 .LASF69
/var/folders/rt/4gvqv631095f64jvm7jfj_000000gn/T//cc71IUJd.s:3685   .debug_str:00000000000005e6 .LASF70
/var/folders/rt/4gvqv631095f64jvm7jfj_000000gn/T//cc71IUJd.s:3473   .debug_str:0000000000000142 .LASF71
/var/folders/rt/4gvqv631095f64jvm7jfj_000000gn/T//cc71IUJd.s:3587   .debug_str:000000000000038d .LASF72
/var/folders/rt/4gvqv631095f64jvm7jfj_000000gn/T//cc71IUJd.s:3635   .debug_str:0000000000000477 .LASF73
/var/folders/rt/4gvqv631095f64jvm7jfj_000000gn/T//cc71IUJd.s:3495   .debug_str:00000000000001b5 .LASF74
/var/folders/rt/4gvqv631095f64jvm7jfj_000000gn/T//cc71IUJd.s:3613   .debug_str:000000000000040d .LASF75
/var/folders/rt/4gvqv631095f64jvm7jfj_000000gn/T//cc71IUJd.s:3455   .debug_str:00000000000000eb .LASF76
/var/folders/rt/4gvqv631095f64jvm7jfj_000000gn/T//cc71IUJd.s:3417   .debug_str:0000000000000012 .LASF77
/var/folders/rt/4gvqv631095f64jvm7jfj_000000gn/T//cc71IUJd.s:3621   .debug_str:000000000000042c .LASF78
/var/folders/rt/4gvqv631095f64jvm7jfj_000000gn/T//cc71IUJd.s:3471   .debug_str:000000000000013b .LASF79
/var/folders/rt/4gvqv631095f64jvm7jfj_000000gn/T//cc71IUJd.s:3525   .debug_str:0000000000000242 .LASF80
/var/folders/rt/4gvqv631095f64jvm7jfj_000000gn/T//cc71IUJd.s:3435   .debug_str:0000000000000078 .LASF81
/var/folders/rt/4gvqv631095f64jvm7jfj_000000gn/T//cc71IUJd.s:3463   .debug_str:000000000000010e .LASF82
/var/folders/rt/4gvqv631095f64jvm7jfj_000000gn/T//cc71IUJd.s:3599   .debug_str:00000000000003cd .LASF83
/var/folders/rt/4gvqv631095f64jvm7jfj_000000gn/T//cc71IUJd.s:3563   .debug_str:0000000000000307 .LASF84
/var/folders/rt/4gvqv631095f64jvm7jfj_000000gn/T//cc71IUJd.s:3659   .debug_str:00000000000004f3 .LASF85
/var/folders/rt/4gvqv631095f64jvm7jfj_000000gn/T//cc71IUJd.s:3735   .debug_str:000000000000071f .LASF86
/var/folders/rt/4gvqv631095f64jvm7jfj_000000gn/T//cc71IUJd.s:3453   .debug_str:00000000000000e5 .LASF87
GAS LISTING /var/folders/rt/4gvqv631095f64jvm7jfj_000000gn/T//cc71IUJd.s 			page 14


/var/folders/rt/4gvqv631095f64jvm7jfj_000000gn/T//cc71IUJd.s:3727   .debug_str:00000000000006f7 .LASF88
/var/folders/rt/4gvqv631095f64jvm7jfj_000000gn/T//cc71IUJd.s:3477   .debug_str:000000000000014f .LASF89
/var/folders/rt/4gvqv631095f64jvm7jfj_000000gn/T//cc71IUJd.s:3573   .debug_str:0000000000000335 .LASF90
/var/folders/rt/4gvqv631095f64jvm7jfj_000000gn/T//cc71IUJd.s:3427   .debug_str:000000000000003f .LASF91
/var/folders/rt/4gvqv631095f64jvm7jfj_000000gn/T//cc71IUJd.s:3555   .debug_str:00000000000002d7 .LASF92
/var/folders/rt/4gvqv631095f64jvm7jfj_000000gn/T//cc71IUJd.s:3623   .debug_str:0000000000000434 .LASF93
/var/folders/rt/4gvqv631095f64jvm7jfj_000000gn/T//cc71IUJd.s:3557   .debug_str:00000000000002dd .LASF94
/var/folders/rt/4gvqv631095f64jvm7jfj_000000gn/T//cc71IUJd.s:3649   .debug_str:00000000000004cd .LASF95
/var/folders/rt/4gvqv631095f64jvm7jfj_000000gn/T//cc71IUJd.s:3665   .debug_str:000000000000050d .LASF96
/var/folders/rt/4gvqv631095f64jvm7jfj_000000gn/T//cc71IUJd.s:3715   .debug_str:00000000000006be .LASF97
/var/folders/rt/4gvqv631095f64jvm7jfj_000000gn/T//cc71IUJd.s:3519   .debug_str:0000000000000220 .LASF98
/var/folders/rt/4gvqv631095f64jvm7jfj_000000gn/T//cc71IUJd.s:3501   .debug_str:00000000000001c9 .LASF99
/var/folders/rt/4gvqv631095f64jvm7jfj_000000gn/T//cc71IUJd.s:3633   .debug_str:0000000000000472 .LASF100
/var/folders/rt/4gvqv631095f64jvm7jfj_000000gn/T//cc71IUJd.s:3421   .debug_str:0000000000000020 .LASF101
/var/folders/rt/4gvqv631095f64jvm7jfj_000000gn/T//cc71IUJd.s:3643   .debug_str:0000000000000498 .LASF102
/var/folders/rt/4gvqv631095f64jvm7jfj_000000gn/T//cc71IUJd.s:3639   .debug_str:0000000000000486 .LASF103
/var/folders/rt/4gvqv631095f64jvm7jfj_000000gn/T//cc71IUJd.s:3589   .debug_str:0000000000000395 .LASF104
/var/folders/rt/4gvqv631095f64jvm7jfj_000000gn/T//cc71IUJd.s:3641   .debug_str:000000000000048e .LASF105
/var/folders/rt/4gvqv631095f64jvm7jfj_000000gn/T//cc71IUJd.s:3541   .debug_str:000000000000029c .LASF106
/var/folders/rt/4gvqv631095f64jvm7jfj_000000gn/T//cc71IUJd.s:3537   .debug_str:0000000000000285 .LASF107
/var/folders/rt/4gvqv631095f64jvm7jfj_000000gn/T//cc71IUJd.s:3741   .debug_str:0000000000000739 .LASF108
/var/folders/rt/4gvqv631095f64jvm7jfj_000000gn/T//cc71IUJd.s:3595   .debug_str:00000000000003b1 .LASF109
/var/folders/rt/4gvqv631095f64jvm7jfj_000000gn/T//cc71IUJd.s:3521   .debug_str:0000000000000228 .LASF110
/var/folders/rt/4gvqv631095f64jvm7jfj_000000gn/T//cc71IUJd.s:3479   .debug_str:0000000000000158 .LASF111
/var/folders/rt/4gvqv631095f64jvm7jfj_000000gn/T//cc71IUJd.s:3605   .debug_str:00000000000003eb .LASF112
/var/folders/rt/4gvqv631095f64jvm7jfj_000000gn/T//cc71IUJd.s:3535   .debug_str:000000000000027c .LASF113
/var/folders/rt/4gvqv631095f64jvm7jfj_000000gn/T//cc71IUJd.s:3723   .debug_str:00000000000006e3 .LASF114
/var/folders/rt/4gvqv631095f64jvm7jfj_000000gn/T//cc71IUJd.s:3465   .debug_str:0000000000000116 .LASF115
/var/folders/rt/4gvqv631095f64jvm7jfj_000000gn/T//cc71IUJd.s:3459   .debug_str:00000000000000fb .LASF116
/var/folders/rt/4gvqv631095f64jvm7jfj_000000gn/T//cc71IUJd.s:3617   .debug_str:000000000000041a .LASF117
/var/folders/rt/4gvqv631095f64jvm7jfj_000000gn/T//cc71IUJd.s:3713   .debug_str:00000000000006b8 .LASF118
/var/folders/rt/4gvqv631095f64jvm7jfj_000000gn/T//cc71IUJd.s:3531   .debug_str:0000000000000262 .LASF119
/var/folders/rt/4gvqv631095f64jvm7jfj_000000gn/T//cc71IUJd.s:3615   .debug_str:0000000000000414 .LASF120
/var/folders/rt/4gvqv631095f64jvm7jfj_000000gn/T//cc71IUJd.s:3419   .debug_str:0000000000000018 .LASF121
/var/folders/rt/4gvqv631095f64jvm7jfj_000000gn/T//cc71IUJd.s:3651   .debug_str:00000000000004d4 .LASF122
/var/folders/rt/4gvqv631095f64jvm7jfj_000000gn/T//cc71IUJd.s:3677   .debug_str:000000000000054b .LASF123
/var/folders/rt/4gvqv631095f64jvm7jfj_000000gn/T//cc71IUJd.s:3691   .debug_str:000000000000063a .LASF124
/var/folders/rt/4gvqv631095f64jvm7jfj_000000gn/T//cc71IUJd.s:3705   .debug_str:000000000000068e .LASF125
/var/folders/rt/4gvqv631095f64jvm7jfj_000000gn/T//cc71IUJd.s:3487   .debug_str:0000000000000187 .LASF126
/var/folders/rt/4gvqv631095f64jvm7jfj_000000gn/T//cc71IUJd.s:3539   .debug_str:000000000000028f .LASF127
/var/folders/rt/4gvqv631095f64jvm7jfj_000000gn/T//cc71IUJd.s:3733   .debug_str:0000000000000710 .LASF128
/var/folders/rt/4gvqv631095f64jvm7jfj_000000gn/T//cc71IUJd.s:3505   .debug_str:00000000000001d9 .LASF129
/var/folders/rt/4gvqv631095f64jvm7jfj_000000gn/T//cc71IUJd.s:3625   .debug_str:000000000000043d .LASF130
/var/folders/rt/4gvqv631095f64jvm7jfj_000000gn/T//cc71IUJd.s:3737   .debug_str:0000000000000726 .LASF131
/var/folders/rt/4gvqv631095f64jvm7jfj_000000gn/T//cc71IUJd.s:3631   .debug_str:0000000000000465 .LASF132
/var/folders/rt/4gvqv631095f64jvm7jfj_000000gn/T//cc71IUJd.s:3739   .debug_str:000000000000072b .LASF133
/var/folders/rt/4gvqv631095f64jvm7jfj_000000gn/T//cc71IUJd.s:3441   .debug_str:000000000000009f .LASF134
/var/folders/rt/4gvqv631095f64jvm7jfj_000000gn/T//cc71IUJd.s:3719   .debug_str:00000000000006ce .LASF135
/var/folders/rt/4gvqv631095f64jvm7jfj_000000gn/T//cc71IUJd.s:3669   .debug_str:0000000000000519 .LASF136
/var/folders/rt/4gvqv631095f64jvm7jfj_000000gn/T//cc71IUJd.s:3695   .debug_str:0000000000000647 .LASF137
/var/folders/rt/4gvqv631095f64jvm7jfj_000000gn/T//cc71IUJd.s:3489   .debug_str:0000000000000194 .LASF138
/var/folders/rt/4gvqv631095f64jvm7jfj_000000gn/T//cc71IUJd.s:3697   .debug_str:0000000000000654 .LASF139
/var/folders/rt/4gvqv631095f64jvm7jfj_000000gn/T//cc71IUJd.s:3485   .debug_str:0000000000000176 .LASF140
/var/folders/rt/4gvqv631095f64jvm7jfj_000000gn/T//cc71IUJd.s:3429   .debug_str:0000000000000045 .LASF141
/var/folders/rt/4gvqv631095f64jvm7jfj_000000gn/T//cc71IUJd.s:3517   .debug_str:000000000000020f .LASF142
/var/folders/rt/4gvqv631095f64jvm7jfj_000000gn/T//cc71IUJd.s:3607   .debug_str:00000000000003f0 .LASF143
/var/folders/rt/4gvqv631095f64jvm7jfj_000000gn/T//cc71IUJd.s:3579   .debug_str:0000000000000352 .LASF144
GAS LISTING /var/folders/rt/4gvqv631095f64jvm7jfj_000000gn/T//cc71IUJd.s 			page 15


/var/folders/rt/4gvqv631095f64jvm7jfj_000000gn/T//cc71IUJd.s:3569   .debug_str:0000000000000320 .LASF145
/var/folders/rt/4gvqv631095f64jvm7jfj_000000gn/T//cc71IUJd.s:3729   .debug_str:00000000000006fd .LASF146
/var/folders/rt/4gvqv631095f64jvm7jfj_000000gn/T//cc71IUJd.s:3437   .debug_str:0000000000000081 .LASF163
/var/folders/rt/4gvqv631095f64jvm7jfj_000000gn/T//cc71IUJd.s:3661   .debug_str:00000000000004f9 .LASF147
/var/folders/rt/4gvqv631095f64jvm7jfj_000000gn/T//cc71IUJd.s:3703   .debug_str:000000000000067b .LASF148
/var/folders/rt/4gvqv631095f64jvm7jfj_000000gn/T//cc71IUJd.s:3725   .debug_str:00000000000006ed .LASF164
/var/folders/rt/4gvqv631095f64jvm7jfj_000000gn/T//cc71IUJd.s:83     .text.initPlant:0000000000000000 .LFB4
/var/folders/rt/4gvqv631095f64jvm7jfj_000000gn/T//cc71IUJd.s:320    .text.initPlant:0000000000000168 .LFE4
/var/folders/rt/4gvqv631095f64jvm7jfj_000000gn/T//cc71IUJd.s:3005   .debug_loc:0000000000000000 .LLST3
/var/folders/rt/4gvqv631095f64jvm7jfj_000000gn/T//cc71IUJd.s:3547   .debug_str:00000000000002b1 .LASF149
/var/folders/rt/4gvqv631095f64jvm7jfj_000000gn/T//cc71IUJd.s:3033   .debug_loc:0000000000000045 .LLST4
/var/folders/rt/4gvqv631095f64jvm7jfj_000000gn/T//cc71IUJd.s:3627   .debug_str:0000000000000448 .LASF150
/var/folders/rt/4gvqv631095f64jvm7jfj_000000gn/T//cc71IUJd.s:3054   .debug_loc:000000000000007d .LLST5
/var/folders/rt/4gvqv631095f64jvm7jfj_000000gn/T//cc71IUJd.s:3561   .debug_str:00000000000002fd .LASF151
/var/folders/rt/4gvqv631095f64jvm7jfj_000000gn/T//cc71IUJd.s:3076   .debug_loc:00000000000000b4 .LLST6
/var/folders/rt/4gvqv631095f64jvm7jfj_000000gn/T//cc71IUJd.s:3098   .debug_loc:00000000000000eb .LLST7
/var/folders/rt/4gvqv631095f64jvm7jfj_000000gn/T//cc71IUJd.s:3120   .debug_loc:0000000000000122 .LLST8
/var/folders/rt/4gvqv631095f64jvm7jfj_000000gn/T//cc71IUJd.s:3142   .debug_loc:0000000000000159 .LLST9
/var/folders/rt/4gvqv631095f64jvm7jfj_000000gn/T//cc71IUJd.s:3164   .debug_loc:0000000000000190 .LLST10
/var/folders/rt/4gvqv631095f64jvm7jfj_000000gn/T//cc71IUJd.s:3186   .debug_loc:00000000000001c7 .LLST11
/var/folders/rt/4gvqv631095f64jvm7jfj_000000gn/T//cc71IUJd.s:3208   .debug_loc:00000000000001fe .LLST12
/var/folders/rt/4gvqv631095f64jvm7jfj_000000gn/T//cc71IUJd.s:3226   .debug_loc:000000000000022a .LLST13
/var/folders/rt/4gvqv631095f64jvm7jfj_000000gn/T//cc71IUJd.s:3244   .debug_loc:0000000000000256 .LLST14
/var/folders/rt/4gvqv631095f64jvm7jfj_000000gn/T//cc71IUJd.s:3262   .debug_loc:0000000000000282 .LLST15
/var/folders/rt/4gvqv631095f64jvm7jfj_000000gn/T//cc71IUJd.s:3280   .debug_loc:00000000000002ae .LLST16
/var/folders/rt/4gvqv631095f64jvm7jfj_000000gn/T//cc71IUJd.s:3298   .debug_loc:00000000000002da .LLST17
/var/folders/rt/4gvqv631095f64jvm7jfj_000000gn/T//cc71IUJd.s:3316   .debug_loc:0000000000000306 .LLST18
/var/folders/rt/4gvqv631095f64jvm7jfj_000000gn/T//cc71IUJd.s:3653   .debug_str:00000000000004da .LASF152
/var/folders/rt/4gvqv631095f64jvm7jfj_000000gn/T//cc71IUJd.s:3701   .debug_str:000000000000066c .LASF153
/var/folders/rt/4gvqv631095f64jvm7jfj_000000gn/T//cc71IUJd.s:135    .text.initPlant:0000000000000046 .LVL12
/var/folders/rt/4gvqv631095f64jvm7jfj_000000gn/T//cc71IUJd.s:143    .text.initPlant:000000000000005c .LVL13
/var/folders/rt/4gvqv631095f64jvm7jfj_000000gn/T//cc71IUJd.s:149    .text.initPlant:0000000000000070 .LVL14
/var/folders/rt/4gvqv631095f64jvm7jfj_000000gn/T//cc71IUJd.s:156    .text.initPlant:000000000000007e .LVL15
/var/folders/rt/4gvqv631095f64jvm7jfj_000000gn/T//cc71IUJd.s:163    .text.initPlant:000000000000008c .LVL16
/var/folders/rt/4gvqv631095f64jvm7jfj_000000gn/T//cc71IUJd.s:170    .text.initPlant:000000000000009c .LVL17
/var/folders/rt/4gvqv631095f64jvm7jfj_000000gn/T//cc71IUJd.s:278    .text.initPlant:0000000000000148 .LVL18
/var/folders/rt/4gvqv631095f64jvm7jfj_000000gn/T//cc71IUJd.s:3583   .debug_str:0000000000000372 .LASF165
/var/folders/rt/4gvqv631095f64jvm7jfj_000000gn/T//cc71IUJd.s:14     .text.initSensorReading:0000000000000000 .LFB3
/var/folders/rt/4gvqv631095f64jvm7jfj_000000gn/T//cc71IUJd.s:76     .text.initSensorReading:000000000000003e .LFE3
/var/folders/rt/4gvqv631095f64jvm7jfj_000000gn/T//cc71IUJd.s:3334   .debug_loc:0000000000000332 .LLST0
/var/folders/rt/4gvqv631095f64jvm7jfj_000000gn/T//cc71IUJd.s:3352   .debug_loc:000000000000035e .LLST1
/var/folders/rt/4gvqv631095f64jvm7jfj_000000gn/T//cc71IUJd.s:3593   .debug_str:00000000000003a7 .LASF154
/var/folders/rt/4gvqv631095f64jvm7jfj_000000gn/T//cc71IUJd.s:3370   .debug_loc:000000000000038a .LLST2
/var/folders/rt/4gvqv631095f64jvm7jfj_000000gn/T//cc71IUJd.s:3493   .debug_str:00000000000001aa .LASF155
/var/folders/rt/4gvqv631095f64jvm7jfj_000000gn/T//cc71IUJd.s:49     .text.initSensorReading:0000000000000022 .LVL4
/var/folders/rt/4gvqv631095f64jvm7jfj_000000gn/T//cc71IUJd.s:60     .text.initSensorReading:0000000000000032 .LVL5
/var/folders/rt/4gvqv631095f64jvm7jfj_000000gn/T//cc71IUJd.s:3699   .debug_str:0000000000000663 .LASF166
/var/folders/rt/4gvqv631095f64jvm7jfj_000000gn/T//cc71IUJd.s:3551   .debug_str:00000000000002bf .LASF156
/var/folders/rt/4gvqv631095f64jvm7jfj_000000gn/T//cc71IUJd.s:3671   .debug_str:0000000000000525 .LASF158
/var/folders/rt/4gvqv631095f64jvm7jfj_000000gn/T//cc71IUJd.s:3545   .debug_str:00000000000002aa .LASF157
/var/folders/rt/4gvqv631095f64jvm7jfj_000000gn/T//cc71IUJd.s:3553   .debug_str:00000000000002c6 .LASF159
/var/folders/rt/4gvqv631095f64jvm7jfj_000000gn/T//cc71IUJd.s:94     .text.initPlant:000000000000000c .LCFI2
/var/folders/rt/4gvqv631095f64jvm7jfj_000000gn/T//cc71IUJd.s:114    .text.initPlant:0000000000000022 .LCFI3
/var/folders/rt/4gvqv631095f64jvm7jfj_000000gn/T//cc71IUJd.s:286    .text.initPlant:0000000000000152 .LCFI4
/var/folders/rt/4gvqv631095f64jvm7jfj_000000gn/T//cc71IUJd.s:312    .text.initPlant:0000000000000164 .LCFI5
/var/folders/rt/4gvqv631095f64jvm7jfj_000000gn/T//cc71IUJd.s:86     .text.initPlant:0000000000000000 .LVL8
/var/folders/rt/4gvqv631095f64jvm7jfj_000000gn/T//cc71IUJd.s:127    .text.initPlant:0000000000000030 .LVL11
GAS LISTING /var/folders/rt/4gvqv631095f64jvm7jfj_000000gn/T//cc71IUJd.s 			page 16


/var/folders/rt/4gvqv631095f64jvm7jfj_000000gn/T//cc71IUJd.s:314    .text.initPlant:0000000000000164 .LVL26
/var/folders/rt/4gvqv631095f64jvm7jfj_000000gn/T//cc71IUJd.s:316    .text.initPlant:0000000000000166 .LVL27
/var/folders/rt/4gvqv631095f64jvm7jfj_000000gn/T//cc71IUJd.s:118    .text.initPlant:0000000000000026 .LVL9
/var/folders/rt/4gvqv631095f64jvm7jfj_000000gn/T//cc71IUJd.s:292    .text.initPlant:0000000000000156 .LVL19
/var/folders/rt/4gvqv631095f64jvm7jfj_000000gn/T//cc71IUJd.s:125    .text.initPlant:000000000000002e .LVL10
/var/folders/rt/4gvqv631095f64jvm7jfj_000000gn/T//cc71IUJd.s:295    .text.initPlant:0000000000000158 .LVL20
/var/folders/rt/4gvqv631095f64jvm7jfj_000000gn/T//cc71IUJd.s:310    .text.initPlant:0000000000000162 .LVL25
/var/folders/rt/4gvqv631095f64jvm7jfj_000000gn/T//cc71IUJd.s:307    .text.initPlant:0000000000000160 .LVL24
/var/folders/rt/4gvqv631095f64jvm7jfj_000000gn/T//cc71IUJd.s:304    .text.initPlant:000000000000015e .LVL23
/var/folders/rt/4gvqv631095f64jvm7jfj_000000gn/T//cc71IUJd.s:301    .text.initPlant:000000000000015c .LVL22
/var/folders/rt/4gvqv631095f64jvm7jfj_000000gn/T//cc71IUJd.s:298    .text.initPlant:000000000000015a .LVL21
/var/folders/rt/4gvqv631095f64jvm7jfj_000000gn/T//cc71IUJd.s:23     .text.initSensorReading:0000000000000002 .LCFI0
/var/folders/rt/4gvqv631095f64jvm7jfj_000000gn/T//cc71IUJd.s:72     .text.initSensorReading:000000000000003c .LCFI1
/var/folders/rt/4gvqv631095f64jvm7jfj_000000gn/T//cc71IUJd.s:18     .text.initSensorReading:0000000000000000 .LVL0
/var/folders/rt/4gvqv631095f64jvm7jfj_000000gn/T//cc71IUJd.s:41     .text.initSensorReading:0000000000000016 .LVL2
/var/folders/rt/4gvqv631095f64jvm7jfj_000000gn/T//cc71IUJd.s:30     .text.initSensorReading:000000000000000a .LVL1
/var/folders/rt/4gvqv631095f64jvm7jfj_000000gn/T//cc71IUJd.s:70     .text.initSensorReading:000000000000003a .LVL7
/var/folders/rt/4gvqv631095f64jvm7jfj_000000gn/T//cc71IUJd.s:343    .debug_info:0000000000000000 .Ldebug_info0

UNDEFINED SYMBOLS
snprintf
memcpy
strcpy
