GAS LISTING /var/folders/rt/4gvqv631095f64jvm7jfj_000000gn/T//ccXylRzz.s 			page 1


   1              		.file	"plant.c"
   2              		.option nopic
   3              		.attribute arch, "rv32i2p0_m2p0_a2p0_c2p0"
   4              		.attribute unaligned_access, 0
   5              		.attribute stack_align, 16
   6              		.text
   7              	.Ltext0:
   8              		.cfi_sections	.debug_frame
   9              		.section	.text.initSensorReading,"ax",@progbits
  10              		.align	1
  11              		.globl	initSensorReading
  13              	initSensorReading:
  14              	.LFB3:
  15              		.file 1 "plant.c"
   1:plant.c       **** #include "plant.h"
   2:plant.c       **** #include <stdio.h>
   3:plant.c       **** #define STR_COPY(dest, src) \
   4:plant.c       ****   snprintf(dest, sizeof(dest), "%s", src) // AI. STR_COPY är en genväg för snprintf som i sin tu
   5:plant.c       **** 
   6:plant.c       **** SensorReading initSensorReading(char timeStamp[], int inReading)
   7:plant.c       **** {
  16              		.loc 1 7 1
  17              		.cfi_startproc
  18              	.LVL0:
   8:plant.c       ****   SensorReading newReading;
  19              		.loc 1 8 3
   9:plant.c       ****   STR_COPY(newReading.timeStamp, timeStamp);
  20              		.loc 1 9 3
   7:plant.c       ****   SensorReading newReading;
  21              		.loc 1 7 1 is_stmt 0
  22 0000 0111     		addi	sp,sp,-32
  23              	.LCFI0:
  24              		.cfi_def_cfa_offset 32
  25 0002 26CA     		sw	s1,20(sp)
  26              		.cfi_offset 9, -12
  27 0004 B284     		mv	s1,a2
  28              		.loc 1 9 3
  29 0006 37060000 		lui	a2,%hi(.LC0)
  30              	.LVL1:
   7:plant.c       ****   SensorReading newReading;
  31              		.loc 1 7 1
  32 000a 22CC     		sw	s0,24(sp)
  33              		.loc 1 9 3
  34 000c AE86     		mv	a3,a1
  35              		.cfi_offset 8, -8
   7:plant.c       ****   SensorReading newReading;
  36              		.loc 1 7 1
  37 000e 2A84     		mv	s0,a0
  38              		.loc 1 9 3
  39 0010 13060600 		addi	a2,a2,%lo(.LC0)
  40 0014 B145     		li	a1,12
  41              	.LVL2:
  42 0016 0A85     		mv	a0,sp
  43              	.LVL3:
   7:plant.c       ****   SensorReading newReading;
  44              		.loc 1 7 1
  45 0018 06CE     		sw	ra,28(sp)
GAS LISTING /var/folders/rt/4gvqv631095f64jvm7jfj_000000gn/T//ccXylRzz.s 			page 2


  46              		.cfi_offset 1, -4
  47              		.loc 1 9 3
  48 001a 97000000 		call	snprintf
  48      E7800000 
  49              	.LVL4:
  10:plant.c       ****   newReading.reading = inReading;
  50              		.loc 1 10 3 is_stmt 1
  11:plant.c       ****   return newReading;
  51              		.loc 1 11 10 is_stmt 0
  52 0022 8A85     		mv	a1,sp
  53 0024 2285     		mv	a0,s0
  54 0026 4146     		li	a2,16
  10:plant.c       ****   newReading.reading = inReading;
  55              		.loc 1 10 22
  56 0028 26C6     		sw	s1,12(sp)
  57              		.loc 1 11 3 is_stmt 1
  58              		.loc 1 11 10 is_stmt 0
  59 002a 97000000 		call	memcpy
  59      E7800000 
  60              	.LVL5:
  12:plant.c       **** }
  61              		.loc 1 12 1
  62 0032 2285     		mv	a0,s0
  63 0034 F240     		lw	ra,28(sp)
  64              		.cfi_restore 1
  65 0036 6244     		lw	s0,24(sp)
  66              		.cfi_restore 8
  67              	.LVL6:
  68 0038 D244     		lw	s1,20(sp)
  69              		.cfi_restore 9
  70              	.LVL7:
  71 003a 0561     		addi	sp,sp,32
  72              	.LCFI1:
  73              		.cfi_def_cfa_offset 0
  74 003c 8280     		jr	ra
  75              		.cfi_endproc
  76              	.LFE3:
  78              		.section	.text.initPlant,"ax",@progbits
  79              		.align	1
  80              		.globl	initPlant
  82              	initPlant:
  83              	.LFB4:
  13:plant.c       **** 
  14:plant.c       **** void initPlant(char inName[], int *numberOfPlants, Plant allPlants[])
  15:plant.c       **** {
  84              		.loc 1 15 1 is_stmt 1
  85              		.cfi_startproc
  86              	.LVL8:
  16:plant.c       ****   if (*numberOfPlants > 2)
  87              		.loc 1 16 3
  88              		.loc 1 16 6 is_stmt 0
  89 0000 9841     		lw	a4,0(a1)
  90 0002 8947     		li	a5,2
  91 0004 63C4E70A 		bgt	a4,a5,.L7
  15:plant.c       ****   if (*numberOfPlants > 2)
  92              		.loc 1 15 1
  93 0008 1301019B 		addi	sp,sp,-1616
GAS LISTING /var/folders/rt/4gvqv631095f64jvm7jfj_000000gn/T//ccXylRzz.s 			page 3


  94              	.LCFI2:
  95              		.cfi_def_cfa_offset 1616
  96 000c 23248164 		sw	s0,1608(sp)
  97              		.cfi_offset 8, -8
  98 0010 2E84     		mv	s0,a1
  17:plant.c       ****     return;
  18:plant.c       ****   Plant newPlant;
  19:plant.c       ****   SensorReading defaultReading = initSensorReading("00H:00M:00S", 50);
  99              		.loc 1 19 34
 100 0012 B7050000 		lui	a1,%hi(.LC1)
 101              	.LVL9:
  15:plant.c       ****   if (*numberOfPlants > 2)
 102              		.loc 1 15 1
 103 0016 23229164 		sw	s1,1604(sp)
 104 001a 2AC6     		sw	a0,12(sp)
  18:plant.c       ****   SensorReading defaultReading = initSensorReading("00H:00M:00S", 50);
 105              		.loc 1 18 3 is_stmt 1
 106              		.loc 1 19 3
 107              		.cfi_offset 9, -12
 108 001c B284     		mv	s1,a2
 109              		.loc 1 19 34 is_stmt 0
 110 001e 2808     		addi	a0,sp,24
 111              	.LVL10:
 112 0020 13062003 		li	a2,50
 113              	.LVL11:
 114 0024 93850500 		addi	a1,a1,%lo(.LC1)
  15:plant.c       ****   if (*numberOfPlants > 2)
 115              		.loc 1 15 1
 116 0028 23261164 		sw	ra,1612(sp)
 117              		.cfi_offset 1, -4
 118              		.loc 1 19 34
 119 002c 97000000 		call	initSensorReading
 119      E7800000 
 120              	.LVL12:
  20:plant.c       **** 
  21:plant.c       ****   STR_COPY(newPlant.name, inName);
 121              		.loc 1 21 3 is_stmt 1
 122 0034 B246     		lw	a3,12(sp)
 123 0036 37060000 		lui	a2,%hi(.LC0)
 124 003a 13060600 		addi	a2,a2,%lo(.LC0)
 125 003e A945     		li	a1,10
 126 0040 2810     		addi	a0,sp,40
 127 0042 97000000 		call	snprintf
 127      E7800000 
 128              	.LVL13:
  22:plant.c       ****   STR_COPY(newPlant.currentStatus, "OK");
 129              		.loc 1 22 3
 130 004a B7050000 		lui	a1,%hi(.LC2)
 131 004e 93850500 		addi	a1,a1,%lo(.LC2)
 132 0052 13054163 		addi	a0,sp,1588
 133 0056 97000000 		call	strcpy
 133      E7800000 
 134              	.LVL14:
  23:plant.c       ****   newPlant.moisture[0] = defaultReading;
 135              		.loc 1 23 3
 136              		.loc 1 23 24 is_stmt 0
 137 005e 2C08     		addi	a1,sp,24
GAS LISTING /var/folders/rt/4gvqv631095f64jvm7jfj_000000gn/T//ccXylRzz.s 			page 4


 138 0060 4146     		li	a2,16
 139 0062 4818     		addi	a0,sp,52
 140 0064 97000000 		call	memcpy
 140      E7800000 
 141              	.LVL15:
  24:plant.c       ****   newPlant.sun[0] = defaultReading;
 142              		.loc 1 24 3 is_stmt 1
 143              		.loc 1 24 19 is_stmt 0
 144 006c 2C08     		addi	a1,sp,24
 145 006e 4146     		li	a2,16
 146 0070 481E     		addi	a0,sp,820
 147 0072 97000000 		call	memcpy
 147      E7800000 
 148              	.LVL16:
  25:plant.c       ****   allPlants[*numberOfPlants] = newPlant;
 149              		.loc 1 25 3 is_stmt 1
 150              		.loc 1 25 12 is_stmt 0
 151 007a 0840     		lw	a0,0(s0)
 152              		.loc 1 25 30
 153 007c 93078061 		li	a5,1560
 154 0080 2C10     		addi	a1,sp,40
 155 0082 3305F502 		mul	a0,a0,a5
 156 0086 13068061 		li	a2,1560
 157 008a 2695     		add	a0,s1,a0
 158 008c 97000000 		call	memcpy
 158      E7800000 
 159              	.LVL17:
  26:plant.c       ****   (*numberOfPlants)++;
 160              		.loc 1 26 3 is_stmt 1
 161              		.loc 1 26 20 is_stmt 0
 162 0094 1C40     		lw	a5,0(s0)
  27:plant.c       **** }...
 163              		.loc 1 27 1
 164 0096 8320C164 		lw	ra,1612(sp)
 165              		.cfi_restore 1
 166 009a 83244164 		lw	s1,1604(sp)
 167              		.cfi_restore 9
 168              	.LVL18:
  26:plant.c       ****   (*numberOfPlants)++;
 169              		.loc 1 26 20
 170 009e 8507     		addi	a5,a5,1
 171 00a0 1CC0     		sw	a5,0(s0)
 172              		.loc 1 27 1
 173 00a2 03248164 		lw	s0,1608(sp)
 174              		.cfi_restore 8
 175              	.LVL19:
 176 00a6 13010165 		addi	sp,sp,1616
 177              	.LCFI3:
 178              		.cfi_def_cfa_offset 0
 179              	.LVL20:
 180 00aa 8280     		jr	ra
 181              	.LVL21:
 182              	.L7:
 183 00ac 8280     		ret
 184              		.cfi_endproc
 185              	.LFE4:
 187              		.section	.rodata.initPlant.str1.4,"aMS",@progbits,1
GAS LISTING /var/folders/rt/4gvqv631095f64jvm7jfj_000000gn/T//ccXylRzz.s 			page 5


 188              		.align	2
 189              	.LC1:
 190 0000 3030483A 		.string	"00H:00M:00S"
 190      30304D3A 
 190      30305300 
 191              	.LC2:
 192 000c 4F4B00   		.string	"OK"
 193              		.section	.rodata.initSensorReading.str1.4,"aMS",@progbits,1
 194              		.align	2
 195              	.LC0:
 196 0000 257300   		.string	"%s"
 197              		.text
 198              	.Letext0:
 199              		.file 2 "plant.h"
 200              		.file 3 "/Users/alexstrae/toolchain-gd32v-v202-osx/compiler/lib/gcc/riscv64-unknown-elf/8.3.0/incl
 201              		.file 4 "/Users/alexstrae/toolchain-gd32v-v202-osx/compiler/riscv64-unknown-elf/include/sys/_types
 202              		.file 5 "/Users/alexstrae/toolchain-gd32v-v202-osx/compiler/riscv64-unknown-elf/include/sys/reent.
 203              		.file 6 "/Users/alexstrae/toolchain-gd32v-v202-osx/compiler/riscv64-unknown-elf/include/sys/lock.h
 204              		.file 7 "<built-in>"
 205              		.file 8 "/Users/alexstrae/toolchain-gd32v-v202-osx/compiler/riscv64-unknown-elf/include/stdio.h"
GAS LISTING /var/folders/rt/4gvqv631095f64jvm7jfj_000000gn/T//ccXylRzz.s 			page 6


DEFINED SYMBOLS
                            *ABS*:0000000000000000 plant.c
/var/folders/rt/4gvqv631095f64jvm7jfj_000000gn/T//ccXylRzz.s:13     .text.initSensorReading:0000000000000000 initSensorReading
/var/folders/rt/4gvqv631095f64jvm7jfj_000000gn/T//ccXylRzz.s:17     .text.initSensorReading:0000000000000000 .L0 
/var/folders/rt/4gvqv631095f64jvm7jfj_000000gn/T//ccXylRzz.s:19     .text.initSensorReading:0000000000000000 .L0 
/var/folders/rt/4gvqv631095f64jvm7jfj_000000gn/T//ccXylRzz.s:20     .text.initSensorReading:0000000000000000 .L0 
/var/folders/rt/4gvqv631095f64jvm7jfj_000000gn/T//ccXylRzz.s:21     .text.initSensorReading:0000000000000000 .L0 
/var/folders/rt/4gvqv631095f64jvm7jfj_000000gn/T//ccXylRzz.s:22     .text.initSensorReading:0000000000000000 .L0 
/var/folders/rt/4gvqv631095f64jvm7jfj_000000gn/T//ccXylRzz.s:24     .text.initSensorReading:0000000000000002 .L0 
/var/folders/rt/4gvqv631095f64jvm7jfj_000000gn/T//ccXylRzz.s:26     .text.initSensorReading:0000000000000004 .L0 
/var/folders/rt/4gvqv631095f64jvm7jfj_000000gn/T//ccXylRzz.s:29     .text.initSensorReading:0000000000000006 .L0 
/var/folders/rt/4gvqv631095f64jvm7jfj_000000gn/T//ccXylRzz.s:32     .text.initSensorReading:000000000000000a .L0 
/var/folders/rt/4gvqv631095f64jvm7jfj_000000gn/T//ccXylRzz.s:34     .text.initSensorReading:000000000000000c .L0 
/var/folders/rt/4gvqv631095f64jvm7jfj_000000gn/T//ccXylRzz.s:35     .text.initSensorReading:000000000000000e .L0 
/var/folders/rt/4gvqv631095f64jvm7jfj_000000gn/T//ccXylRzz.s:37     .text.initSensorReading:000000000000000e .L0 
/var/folders/rt/4gvqv631095f64jvm7jfj_000000gn/T//ccXylRzz.s:39     .text.initSensorReading:0000000000000010 .L0 
/var/folders/rt/4gvqv631095f64jvm7jfj_000000gn/T//ccXylRzz.s:45     .text.initSensorReading:0000000000000018 .L0 
/var/folders/rt/4gvqv631095f64jvm7jfj_000000gn/T//ccXylRzz.s:46     .text.initSensorReading:000000000000001a .L0 
/var/folders/rt/4gvqv631095f64jvm7jfj_000000gn/T//ccXylRzz.s:48     .text.initSensorReading:000000000000001a .L0 
/var/folders/rt/4gvqv631095f64jvm7jfj_000000gn/T//ccXylRzz.s:51     .text.initSensorReading:0000000000000022 .L0 
/var/folders/rt/4gvqv631095f64jvm7jfj_000000gn/T//ccXylRzz.s:52     .text.initSensorReading:0000000000000022 .L0 
/var/folders/rt/4gvqv631095f64jvm7jfj_000000gn/T//ccXylRzz.s:56     .text.initSensorReading:0000000000000028 .L0 
/var/folders/rt/4gvqv631095f64jvm7jfj_000000gn/T//ccXylRzz.s:58     .text.initSensorReading:000000000000002a .L0 
/var/folders/rt/4gvqv631095f64jvm7jfj_000000gn/T//ccXylRzz.s:59     .text.initSensorReading:000000000000002a .L0 
/var/folders/rt/4gvqv631095f64jvm7jfj_000000gn/T//ccXylRzz.s:62     .text.initSensorReading:0000000000000032 .L0 
/var/folders/rt/4gvqv631095f64jvm7jfj_000000gn/T//ccXylRzz.s:64     .text.initSensorReading:0000000000000036 .L0 
/var/folders/rt/4gvqv631095f64jvm7jfj_000000gn/T//ccXylRzz.s:66     .text.initSensorReading:0000000000000038 .L0 
/var/folders/rt/4gvqv631095f64jvm7jfj_000000gn/T//ccXylRzz.s:69     .text.initSensorReading:000000000000003a .L0 
/var/folders/rt/4gvqv631095f64jvm7jfj_000000gn/T//ccXylRzz.s:73     .text.initSensorReading:000000000000003c .L0 
/var/folders/rt/4gvqv631095f64jvm7jfj_000000gn/T//ccXylRzz.s:75     .text.initSensorReading:000000000000003e .L0 
/var/folders/rt/4gvqv631095f64jvm7jfj_000000gn/T//ccXylRzz.s:82     .text.initPlant:0000000000000000 initPlant
/var/folders/rt/4gvqv631095f64jvm7jfj_000000gn/T//ccXylRzz.s:85     .text.initPlant:0000000000000000 .L0 
/var/folders/rt/4gvqv631095f64jvm7jfj_000000gn/T//ccXylRzz.s:87     .text.initPlant:0000000000000000 .L0 
/var/folders/rt/4gvqv631095f64jvm7jfj_000000gn/T//ccXylRzz.s:88     .text.initPlant:0000000000000000 .L0 
/var/folders/rt/4gvqv631095f64jvm7jfj_000000gn/T//ccXylRzz.s:89     .text.initPlant:0000000000000000 .L0 
/var/folders/rt/4gvqv631095f64jvm7jfj_000000gn/T//ccXylRzz.s:93     .text.initPlant:0000000000000008 .L0 
/var/folders/rt/4gvqv631095f64jvm7jfj_000000gn/T//ccXylRzz.s:95     .text.initPlant:000000000000000c .L0 
/var/folders/rt/4gvqv631095f64jvm7jfj_000000gn/T//ccXylRzz.s:97     .text.initPlant:0000000000000010 .L0 
/var/folders/rt/4gvqv631095f64jvm7jfj_000000gn/T//ccXylRzz.s:100    .text.initPlant:0000000000000012 .L0 
/var/folders/rt/4gvqv631095f64jvm7jfj_000000gn/T//ccXylRzz.s:103    .text.initPlant:0000000000000016 .L0 
/var/folders/rt/4gvqv631095f64jvm7jfj_000000gn/T//ccXylRzz.s:106    .text.initPlant:000000000000001c .L0 
/var/folders/rt/4gvqv631095f64jvm7jfj_000000gn/T//ccXylRzz.s:107    .text.initPlant:000000000000001c .L0 
/var/folders/rt/4gvqv631095f64jvm7jfj_000000gn/T//ccXylRzz.s:108    .text.initPlant:000000000000001c .L0 
/var/folders/rt/4gvqv631095f64jvm7jfj_000000gn/T//ccXylRzz.s:110    .text.initPlant:000000000000001e .L0 
/var/folders/rt/4gvqv631095f64jvm7jfj_000000gn/T//ccXylRzz.s:116    .text.initPlant:0000000000000028 .L0 
/var/folders/rt/4gvqv631095f64jvm7jfj_000000gn/T//ccXylRzz.s:117    .text.initPlant:000000000000002c .L0 
/var/folders/rt/4gvqv631095f64jvm7jfj_000000gn/T//ccXylRzz.s:119    .text.initPlant:000000000000002c .L0 
/var/folders/rt/4gvqv631095f64jvm7jfj_000000gn/T//ccXylRzz.s:122    .text.initPlant:0000000000000034 .L0 
/var/folders/rt/4gvqv631095f64jvm7jfj_000000gn/T//ccXylRzz.s:130    .text.initPlant:000000000000004a .L0 
/var/folders/rt/4gvqv631095f64jvm7jfj_000000gn/T//ccXylRzz.s:136    .text.initPlant:000000000000005e .L0 
/var/folders/rt/4gvqv631095f64jvm7jfj_000000gn/T//ccXylRzz.s:137    .text.initPlant:000000000000005e .L0 
/var/folders/rt/4gvqv631095f64jvm7jfj_000000gn/T//ccXylRzz.s:143    .text.initPlant:000000000000006c .L0 
/var/folders/rt/4gvqv631095f64jvm7jfj_000000gn/T//ccXylRzz.s:144    .text.initPlant:000000000000006c .L0 
/var/folders/rt/4gvqv631095f64jvm7jfj_000000gn/T//ccXylRzz.s:150    .text.initPlant:000000000000007a .L0 
/var/folders/rt/4gvqv631095f64jvm7jfj_000000gn/T//ccXylRzz.s:151    .text.initPlant:000000000000007a .L0 
/var/folders/rt/4gvqv631095f64jvm7jfj_000000gn/T//ccXylRzz.s:153    .text.initPlant:000000000000007c .L0 
/var/folders/rt/4gvqv631095f64jvm7jfj_000000gn/T//ccXylRzz.s:161    .text.initPlant:0000000000000094 .L0 
GAS LISTING /var/folders/rt/4gvqv631095f64jvm7jfj_000000gn/T//ccXylRzz.s 			page 7


/var/folders/rt/4gvqv631095f64jvm7jfj_000000gn/T//ccXylRzz.s:162    .text.initPlant:0000000000000094 .L0 
/var/folders/rt/4gvqv631095f64jvm7jfj_000000gn/T//ccXylRzz.s:164    .text.initPlant:0000000000000096 .L0 
/var/folders/rt/4gvqv631095f64jvm7jfj_000000gn/T//ccXylRzz.s:165    .text.initPlant:000000000000009a .L0 
/var/folders/rt/4gvqv631095f64jvm7jfj_000000gn/T//ccXylRzz.s:167    .text.initPlant:000000000000009e .L0 
/var/folders/rt/4gvqv631095f64jvm7jfj_000000gn/T//ccXylRzz.s:170    .text.initPlant:000000000000009e .L0 
/var/folders/rt/4gvqv631095f64jvm7jfj_000000gn/T//ccXylRzz.s:173    .text.initPlant:00000000000000a2 .L0 
/var/folders/rt/4gvqv631095f64jvm7jfj_000000gn/T//ccXylRzz.s:174    .text.initPlant:00000000000000a6 .L0 
/var/folders/rt/4gvqv631095f64jvm7jfj_000000gn/T//ccXylRzz.s:178    .text.initPlant:00000000000000aa .L0 
/var/folders/rt/4gvqv631095f64jvm7jfj_000000gn/T//ccXylRzz.s:184    .text.initPlant:00000000000000ae .L0 
/var/folders/rt/4gvqv631095f64jvm7jfj_000000gn/T//ccXylRzz.s:78     .text.initSensorReading:000000000000003e .L0 
/var/folders/rt/4gvqv631095f64jvm7jfj_000000gn/T//ccXylRzz.s:187    .text.initPlant:00000000000000ae .L0 
                     .debug_frame:0000000000000000 .L0 
/var/folders/rt/4gvqv631095f64jvm7jfj_000000gn/T//ccXylRzz.s:195    .rodata.initSensorReading.str1.4:0000000000000000 .LC0
/var/folders/rt/4gvqv631095f64jvm7jfj_000000gn/T//ccXylRzz.s:189    .rodata.initPlant.str1.4:0000000000000000 .LC1
/var/folders/rt/4gvqv631095f64jvm7jfj_000000gn/T//ccXylRzz.s:191    .rodata.initPlant.str1.4:000000000000000c .LC2
/var/folders/rt/4gvqv631095f64jvm7jfj_000000gn/T//ccXylRzz.s:182    .text.initPlant:00000000000000ac .L7
/var/folders/rt/4gvqv631095f64jvm7jfj_000000gn/T//ccXylRzz.s:1992   .debug_abbrev:0000000000000000 .Ldebug_abbrev0
/var/folders/rt/4gvqv631095f64jvm7jfj_000000gn/T//ccXylRzz.s:2951   .debug_str:0000000000000481 .LASF138
/var/folders/rt/4gvqv631095f64jvm7jfj_000000gn/T//ccXylRzz.s:2745   .debug_str:00000000000000bc .LASF139
/var/folders/rt/4gvqv631095f64jvm7jfj_000000gn/T//ccXylRzz.s:2955   .debug_str:0000000000000512 .LASF140
/var/folders/rt/4gvqv631095f64jvm7jfj_000000gn/T//ccXylRzz.s:2703   .debug_ranges:0000000000000000 .Ldebug_ranges0
/var/folders/rt/4gvqv631095f64jvm7jfj_000000gn/T//ccXylRzz.s:2711   .debug_line:0000000000000000 .Ldebug_line0
/var/folders/rt/4gvqv631095f64jvm7jfj_000000gn/T//ccXylRzz.s:2911   .debug_str:00000000000003c5 .LASF0
/var/folders/rt/4gvqv631095f64jvm7jfj_000000gn/T//ccXylRzz.s:2773   .debug_str:000000000000012d .LASF1
/var/folders/rt/4gvqv631095f64jvm7jfj_000000gn/T//ccXylRzz.s:2803   .debug_str:00000000000001c0 .LASF2
/var/folders/rt/4gvqv631095f64jvm7jfj_000000gn/T//ccXylRzz.s:2939   .debug_str:0000000000000449 .LASF3
/var/folders/rt/4gvqv631095f64jvm7jfj_000000gn/T//ccXylRzz.s:2903   .debug_str:00000000000003a0 .LASF7
/var/folders/rt/4gvqv631095f64jvm7jfj_000000gn/T//ccXylRzz.s:2815   .debug_str:00000000000001fc .LASF4
/var/folders/rt/4gvqv631095f64jvm7jfj_000000gn/T//ccXylRzz.s:2797   .debug_str:00000000000001a8 .LASF5
/var/folders/rt/4gvqv631095f64jvm7jfj_000000gn/T//ccXylRzz.s:2775   .debug_str:0000000000000135 .LASF6
/var/folders/rt/4gvqv631095f64jvm7jfj_000000gn/T//ccXylRzz.s:2715   .debug_str:000000000000000c .LASF8
/var/folders/rt/4gvqv631095f64jvm7jfj_000000gn/T//ccXylRzz.s:2743   .debug_str:00000000000000b0 .LASF9
/var/folders/rt/4gvqv631095f64jvm7jfj_000000gn/T//ccXylRzz.s:2877   .debug_str:0000000000000326 .LASF10
/var/folders/rt/4gvqv631095f64jvm7jfj_000000gn/T//ccXylRzz.s:2883   .debug_str:0000000000000342 .LASF11
/var/folders/rt/4gvqv631095f64jvm7jfj_000000gn/T//ccXylRzz.s:2819   .debug_str:0000000000000208 .LASF12
/var/folders/rt/4gvqv631095f64jvm7jfj_000000gn/T//ccXylRzz.s:2761   .debug_str:00000000000000fd .LASF13
/var/folders/rt/4gvqv631095f64jvm7jfj_000000gn/T//ccXylRzz.s:2811   .debug_str:00000000000001e4 .LASF14
/var/folders/rt/4gvqv631095f64jvm7jfj_000000gn/T//ccXylRzz.s:2741   .debug_str:00000000000000a2 .LASF15
/var/folders/rt/4gvqv631095f64jvm7jfj_000000gn/T//ccXylRzz.s:2729   .debug_str:0000000000000051 .LASF16
/var/folders/rt/4gvqv631095f64jvm7jfj_000000gn/T//ccXylRzz.s:2855   .debug_str:00000000000002b2 .LASF17
/var/folders/rt/4gvqv631095f64jvm7jfj_000000gn/T//ccXylRzz.s:2835   .debug_str:0000000000000259 .LASF18
/var/folders/rt/4gvqv631095f64jvm7jfj_000000gn/T//ccXylRzz.s:2867   .debug_str:00000000000002f3 .LASF19
/var/folders/rt/4gvqv631095f64jvm7jfj_000000gn/T//ccXylRzz.s:2935   .debug_str:000000000000043a .LASF20
/var/folders/rt/4gvqv631095f64jvm7jfj_000000gn/T//ccXylRzz.s:2977   .debug_str:00000000000005bc .LASF21
/var/folders/rt/4gvqv631095f64jvm7jfj_000000gn/T//ccXylRzz.s:2829   .debug_str:0000000000000245 .LASF22
/var/folders/rt/4gvqv631095f64jvm7jfj_000000gn/T//ccXylRzz.s:2805   .debug_str:00000000000001cd .LASF23
/var/folders/rt/4gvqv631095f64jvm7jfj_000000gn/T//ccXylRzz.s:2927   .debug_str:0000000000000418 .LASF24
/var/folders/rt/4gvqv631095f64jvm7jfj_000000gn/T//ccXylRzz.s:2929   .debug_str:0000000000000420 .LASF25
/var/folders/rt/4gvqv631095f64jvm7jfj_000000gn/T//ccXylRzz.s:2893   .debug_str:000000000000036a .LASF26
/var/folders/rt/4gvqv631095f64jvm7jfj_000000gn/T//ccXylRzz.s:2959   .debug_str:000000000000055a .LASF27
/var/folders/rt/4gvqv631095f64jvm7jfj_000000gn/T//ccXylRzz.s:2873   .debug_str:000000000000030e .LASF28
/var/folders/rt/4gvqv631095f64jvm7jfj_000000gn/T//ccXylRzz.s:2789   .debug_str:0000000000000180 .LASF29
/var/folders/rt/4gvqv631095f64jvm7jfj_000000gn/T//ccXylRzz.s:2793   .debug_str:0000000000000191 .LASF34
/var/folders/rt/4gvqv631095f64jvm7jfj_000000gn/T//ccXylRzz.s:2947   .debug_str:000000000000046e .LASF30
/var/folders/rt/4gvqv631095f64jvm7jfj_000000gn/T//ccXylRzz.s:2919   .debug_str:00000000000003fa .LASF31
/var/folders/rt/4gvqv631095f64jvm7jfj_000000gn/T//ccXylRzz.s:2787   .debug_str:000000000000017a .LASF32
/var/folders/rt/4gvqv631095f64jvm7jfj_000000gn/T//ccXylRzz.s:2971   .debug_str:00000000000005a7 .LASF33
GAS LISTING /var/folders/rt/4gvqv631095f64jvm7jfj_000000gn/T//ccXylRzz.s 			page 8


/var/folders/rt/4gvqv631095f64jvm7jfj_000000gn/T//ccXylRzz.s:2801   .debug_str:00000000000001bb .LASF35
/var/folders/rt/4gvqv631095f64jvm7jfj_000000gn/T//ccXylRzz.s:2739   .debug_str:0000000000000099 .LASF36
/var/folders/rt/4gvqv631095f64jvm7jfj_000000gn/T//ccXylRzz.s:2943   .debug_str:000000000000045f .LASF37
/var/folders/rt/4gvqv631095f64jvm7jfj_000000gn/T//ccXylRzz.s:2751   .debug_str:00000000000000d0 .LASF38
/var/folders/rt/4gvqv631095f64jvm7jfj_000000gn/T//ccXylRzz.s:3001   .debug_str:000000000000062a .LASF39
/var/folders/rt/4gvqv631095f64jvm7jfj_000000gn/T//ccXylRzz.s:2861   .debug_str:00000000000002d7 .LASF40
/var/folders/rt/4gvqv631095f64jvm7jfj_000000gn/T//ccXylRzz.s:2849   .debug_str:0000000000000297 .LASF41
/var/folders/rt/4gvqv631095f64jvm7jfj_000000gn/T//ccXylRzz.s:2973   .debug_str:00000000000005ac .LASF42
/var/folders/rt/4gvqv631095f64jvm7jfj_000000gn/T//ccXylRzz.s:2885   .debug_str:000000000000034c .LASF43
/var/folders/rt/4gvqv631095f64jvm7jfj_000000gn/T//ccXylRzz.s:2989   .debug_str:00000000000005f1 .LASF44
/var/folders/rt/4gvqv631095f64jvm7jfj_000000gn/T//ccXylRzz.s:2755   .debug_str:00000000000000df .LASF45
/var/folders/rt/4gvqv631095f64jvm7jfj_000000gn/T//ccXylRzz.s:2781   .debug_str:0000000000000162 .LASF46
/var/folders/rt/4gvqv631095f64jvm7jfj_000000gn/T//ccXylRzz.s:2713   .debug_str:0000000000000000 .LASF47
/var/folders/rt/4gvqv631095f64jvm7jfj_000000gn/T//ccXylRzz.s:2953   .debug_str:0000000000000509 .LASF48
/var/folders/rt/4gvqv631095f64jvm7jfj_000000gn/T//ccXylRzz.s:2765   .debug_str:000000000000010d .LASF49
/var/folders/rt/4gvqv631095f64jvm7jfj_000000gn/T//ccXylRzz.s:2863   .debug_str:00000000000002e0 .LASF50
/var/folders/rt/4gvqv631095f64jvm7jfj_000000gn/T//ccXylRzz.s:2909   .debug_str:00000000000003c0 .LASF51
/var/folders/rt/4gvqv631095f64jvm7jfj_000000gn/T//ccXylRzz.s:2785   .debug_str:0000000000000175 .LASF52
/var/folders/rt/4gvqv631095f64jvm7jfj_000000gn/T//ccXylRzz.s:2887   .debug_str:0000000000000356 .LASF53
/var/folders/rt/4gvqv631095f64jvm7jfj_000000gn/T//ccXylRzz.s:2749   .debug_str:00000000000000ca .LASF54
/var/folders/rt/4gvqv631095f64jvm7jfj_000000gn/T//ccXylRzz.s:2717   .debug_str:0000000000000012 .LASF55
/var/folders/rt/4gvqv631095f64jvm7jfj_000000gn/T//ccXylRzz.s:2895   .debug_str:0000000000000375 .LASF56
/var/folders/rt/4gvqv631095f64jvm7jfj_000000gn/T//ccXylRzz.s:2763   .debug_str:0000000000000106 .LASF57
/var/folders/rt/4gvqv631095f64jvm7jfj_000000gn/T//ccXylRzz.s:2813   .debug_str:00000000000001f6 .LASF58
/var/folders/rt/4gvqv631095f64jvm7jfj_000000gn/T//ccXylRzz.s:2731   .debug_str:0000000000000068 .LASF59
/var/folders/rt/4gvqv631095f64jvm7jfj_000000gn/T//ccXylRzz.s:2757   .debug_str:00000000000000ed .LASF60
/var/folders/rt/4gvqv631095f64jvm7jfj_000000gn/T//ccXylRzz.s:2875   .debug_str:0000000000000320 .LASF61
/var/folders/rt/4gvqv631095f64jvm7jfj_000000gn/T//ccXylRzz.s:2847   .debug_str:0000000000000290 .LASF62
/var/folders/rt/4gvqv631095f64jvm7jfj_000000gn/T//ccXylRzz.s:2931   .debug_str:0000000000000428 .LASF63
/var/folders/rt/4gvqv631095f64jvm7jfj_000000gn/T//ccXylRzz.s:2993   .debug_str:000000000000060b .LASF64
/var/folders/rt/4gvqv631095f64jvm7jfj_000000gn/T//ccXylRzz.s:2747   .debug_str:00000000000000c4 .LASF65
/var/folders/rt/4gvqv631095f64jvm7jfj_000000gn/T//ccXylRzz.s:2985   .debug_str:00000000000005e3 .LASF66
/var/folders/rt/4gvqv631095f64jvm7jfj_000000gn/T//ccXylRzz.s:2769   .debug_str:000000000000011c .LASF67
/var/folders/rt/4gvqv631095f64jvm7jfj_000000gn/T//ccXylRzz.s:2853   .debug_str:00000000000002aa .LASF68
/var/folders/rt/4gvqv631095f64jvm7jfj_000000gn/T//ccXylRzz.s:2723   .debug_str:000000000000002b .LASF69
/var/folders/rt/4gvqv631095f64jvm7jfj_000000gn/T//ccXylRzz.s:2841   .debug_str:0000000000000278 .LASF70
/var/folders/rt/4gvqv631095f64jvm7jfj_000000gn/T//ccXylRzz.s:2897   .debug_str:000000000000037d .LASF71
/var/folders/rt/4gvqv631095f64jvm7jfj_000000gn/T//ccXylRzz.s:2843   .debug_str:000000000000027e .LASF72
/var/folders/rt/4gvqv631095f64jvm7jfj_000000gn/T//ccXylRzz.s:2921   .debug_str:0000000000000402 .LASF73
/var/folders/rt/4gvqv631095f64jvm7jfj_000000gn/T//ccXylRzz.s:2937   .debug_str:0000000000000442 .LASF74
/var/folders/rt/4gvqv631095f64jvm7jfj_000000gn/T//ccXylRzz.s:2767   .debug_str:0000000000000115 .LASF75
/var/folders/rt/4gvqv631095f64jvm7jfj_000000gn/T//ccXylRzz.s:2807   .debug_str:00000000000001d4 .LASF76
/var/folders/rt/4gvqv631095f64jvm7jfj_000000gn/T//ccXylRzz.s:2791   .debug_str:0000000000000189 .LASF77
/var/folders/rt/4gvqv631095f64jvm7jfj_000000gn/T//ccXylRzz.s:2907   .debug_str:00000000000003bb .LASF78
/var/folders/rt/4gvqv631095f64jvm7jfj_000000gn/T//ccXylRzz.s:2721   .debug_str:0000000000000020 .LASF79
/var/folders/rt/4gvqv631095f64jvm7jfj_000000gn/T//ccXylRzz.s:2917   .debug_str:00000000000003e1 .LASF80
/var/folders/rt/4gvqv631095f64jvm7jfj_000000gn/T//ccXylRzz.s:2913   .debug_str:00000000000003cf .LASF81
/var/folders/rt/4gvqv631095f64jvm7jfj_000000gn/T//ccXylRzz.s:2865   .debug_str:00000000000002e8 .LASF82
/var/folders/rt/4gvqv631095f64jvm7jfj_000000gn/T//ccXylRzz.s:2915   .debug_str:00000000000003d7 .LASF83
/var/folders/rt/4gvqv631095f64jvm7jfj_000000gn/T//ccXylRzz.s:2827   .debug_str:000000000000023d .LASF84
/var/folders/rt/4gvqv631095f64jvm7jfj_000000gn/T//ccXylRzz.s:2799   .debug_str:00000000000001b1 .LASF85
/var/folders/rt/4gvqv631095f64jvm7jfj_000000gn/T//ccXylRzz.s:2999   .debug_str:0000000000000625 .LASF86
/var/folders/rt/4gvqv631095f64jvm7jfj_000000gn/T//ccXylRzz.s:2871   .debug_str:0000000000000304 .LASF87
/var/folders/rt/4gvqv631095f64jvm7jfj_000000gn/T//ccXylRzz.s:2809   .debug_str:00000000000001dc .LASF88
/var/folders/rt/4gvqv631095f64jvm7jfj_000000gn/T//ccXylRzz.s:2771   .debug_str:0000000000000125 .LASF89
/var/folders/rt/4gvqv631095f64jvm7jfj_000000gn/T//ccXylRzz.s:2879   .debug_str:0000000000000334 .LASF90
/var/folders/rt/4gvqv631095f64jvm7jfj_000000gn/T//ccXylRzz.s:2821   .debug_str:000000000000021b .LASF91
GAS LISTING /var/folders/rt/4gvqv631095f64jvm7jfj_000000gn/T//ccXylRzz.s 			page 9


/var/folders/rt/4gvqv631095f64jvm7jfj_000000gn/T//ccXylRzz.s:2981   .debug_str:00000000000005cf .LASF92
/var/folders/rt/4gvqv631095f64jvm7jfj_000000gn/T//ccXylRzz.s:2759   .debug_str:00000000000000f5 .LASF93
/var/folders/rt/4gvqv631095f64jvm7jfj_000000gn/T//ccXylRzz.s:2753   .debug_str:00000000000000da .LASF94
/var/folders/rt/4gvqv631095f64jvm7jfj_000000gn/T//ccXylRzz.s:2891   .debug_str:0000000000000363 .LASF95
/var/folders/rt/4gvqv631095f64jvm7jfj_000000gn/T//ccXylRzz.s:2975   .debug_str:00000000000005b6 .LASF96
/var/folders/rt/4gvqv631095f64jvm7jfj_000000gn/T//ccXylRzz.s:2817   .debug_str:0000000000000201 .LASF97
/var/folders/rt/4gvqv631095f64jvm7jfj_000000gn/T//ccXylRzz.s:2889   .debug_str:000000000000035d .LASF98
/var/folders/rt/4gvqv631095f64jvm7jfj_000000gn/T//ccXylRzz.s:2719   .debug_str:0000000000000018 .LASF99
/var/folders/rt/4gvqv631095f64jvm7jfj_000000gn/T//ccXylRzz.s:2923   .debug_str:0000000000000409 .LASF100
/var/folders/rt/4gvqv631095f64jvm7jfj_000000gn/T//ccXylRzz.s:2945   .debug_str:0000000000000468 .LASF101
/var/folders/rt/4gvqv631095f64jvm7jfj_000000gn/T//ccXylRzz.s:2957   .debug_str:0000000000000555 .LASF102
/var/folders/rt/4gvqv631095f64jvm7jfj_000000gn/T//ccXylRzz.s:2969   .debug_str:000000000000059a .LASF103
/var/folders/rt/4gvqv631095f64jvm7jfj_000000gn/T//ccXylRzz.s:2949   .debug_str:0000000000000474 .LASF104
/var/folders/rt/4gvqv631095f64jvm7jfj_000000gn/T//ccXylRzz.s:2825   .debug_str:0000000000000230 .LASF105
/var/folders/rt/4gvqv631095f64jvm7jfj_000000gn/T//ccXylRzz.s:2991   .debug_str:00000000000005fc .LASF106
/var/folders/rt/4gvqv631095f64jvm7jfj_000000gn/T//ccXylRzz.s:2795   .debug_str:0000000000000199 .LASF107
/var/folders/rt/4gvqv631095f64jvm7jfj_000000gn/T//ccXylRzz.s:2899   .debug_str:0000000000000386 .LASF108
/var/folders/rt/4gvqv631095f64jvm7jfj_000000gn/T//ccXylRzz.s:2995   .debug_str:0000000000000612 .LASF109
/var/folders/rt/4gvqv631095f64jvm7jfj_000000gn/T//ccXylRzz.s:2905   .debug_str:00000000000003ae .LASF110
/var/folders/rt/4gvqv631095f64jvm7jfj_000000gn/T//ccXylRzz.s:2997   .debug_str:0000000000000617 .LASF111
/var/folders/rt/4gvqv631095f64jvm7jfj_000000gn/T//ccXylRzz.s:2737   .debug_str:000000000000008b .LASF112
/var/folders/rt/4gvqv631095f64jvm7jfj_000000gn/T//ccXylRzz.s:2979   .debug_str:00000000000005c5 .LASF113
/var/folders/rt/4gvqv631095f64jvm7jfj_000000gn/T//ccXylRzz.s:2823   .debug_str:0000000000000224 .LASF114
/var/folders/rt/4gvqv631095f64jvm7jfj_000000gn/T//ccXylRzz.s:2961   .debug_str:0000000000000562 .LASF115
/var/folders/rt/4gvqv631095f64jvm7jfj_000000gn/T//ccXylRzz.s:2779   .debug_str:0000000000000154 .LASF116
/var/folders/rt/4gvqv631095f64jvm7jfj_000000gn/T//ccXylRzz.s:2735   .debug_str:000000000000007c .LASF117
/var/folders/rt/4gvqv631095f64jvm7jfj_000000gn/T//ccXylRzz.s:2777   .debug_str:0000000000000143 .LASF118
/var/folders/rt/4gvqv631095f64jvm7jfj_000000gn/T//ccXylRzz.s:2725   .debug_str:0000000000000031 .LASF119
/var/folders/rt/4gvqv631095f64jvm7jfj_000000gn/T//ccXylRzz.s:2727   .debug_str:0000000000000040 .LASF120
/var/folders/rt/4gvqv631095f64jvm7jfj_000000gn/T//ccXylRzz.s:2881   .debug_str:0000000000000339 .LASF121
/var/folders/rt/4gvqv631095f64jvm7jfj_000000gn/T//ccXylRzz.s:2857   .debug_str:00000000000002be .LASF122
/var/folders/rt/4gvqv631095f64jvm7jfj_000000gn/T//ccXylRzz.s:2851   .debug_str:00000000000002a1 .LASF123
/var/folders/rt/4gvqv631095f64jvm7jfj_000000gn/T//ccXylRzz.s:2987   .debug_str:00000000000005e9 .LASF124
/var/folders/rt/4gvqv631095f64jvm7jfj_000000gn/T//ccXylRzz.s:2733   .debug_str:0000000000000071 .LASF141
/var/folders/rt/4gvqv631095f64jvm7jfj_000000gn/T//ccXylRzz.s:2933   .debug_str:000000000000042e .LASF125
/var/folders/rt/4gvqv631095f64jvm7jfj_000000gn/T//ccXylRzz.s:2967   .debug_str:0000000000000587 .LASF126
/var/folders/rt/4gvqv631095f64jvm7jfj_000000gn/T//ccXylRzz.s:2983   .debug_str:00000000000005d9 .LASF142
/var/folders/rt/4gvqv631095f64jvm7jfj_000000gn/T//ccXylRzz.s:83     .text.initPlant:0000000000000000 .LFB4
/var/folders/rt/4gvqv631095f64jvm7jfj_000000gn/T//ccXylRzz.s:185    .text.initPlant:00000000000000ae .LFE4
/var/folders/rt/4gvqv631095f64jvm7jfj_000000gn/T//ccXylRzz.s:2551   .debug_loc:0000000000000000 .LLST3
/var/folders/rt/4gvqv631095f64jvm7jfj_000000gn/T//ccXylRzz.s:2833   .debug_str:0000000000000252 .LASF127
/var/folders/rt/4gvqv631095f64jvm7jfj_000000gn/T//ccXylRzz.s:2569   .debug_loc:000000000000002d .LLST4
/var/folders/rt/4gvqv631095f64jvm7jfj_000000gn/T//ccXylRzz.s:2901   .debug_str:0000000000000391 .LASF128
/var/folders/rt/4gvqv631095f64jvm7jfj_000000gn/T//ccXylRzz.s:2590   .debug_loc:0000000000000065 .LLST5
/var/folders/rt/4gvqv631095f64jvm7jfj_000000gn/T//ccXylRzz.s:2845   .debug_str:0000000000000286 .LASF129
/var/folders/rt/4gvqv631095f64jvm7jfj_000000gn/T//ccXylRzz.s:2612   .debug_loc:000000000000009c .LLST6
/var/folders/rt/4gvqv631095f64jvm7jfj_000000gn/T//ccXylRzz.s:2925   .debug_str:000000000000040f .LASF130
/var/folders/rt/4gvqv631095f64jvm7jfj_000000gn/T//ccXylRzz.s:2965   .debug_str:0000000000000578 .LASF131
/var/folders/rt/4gvqv631095f64jvm7jfj_000000gn/T//ccXylRzz.s:120    .text.initPlant:0000000000000034 .LVL12
/var/folders/rt/4gvqv631095f64jvm7jfj_000000gn/T//ccXylRzz.s:128    .text.initPlant:000000000000004a .LVL13
/var/folders/rt/4gvqv631095f64jvm7jfj_000000gn/T//ccXylRzz.s:134    .text.initPlant:000000000000005e .LVL14
/var/folders/rt/4gvqv631095f64jvm7jfj_000000gn/T//ccXylRzz.s:141    .text.initPlant:000000000000006c .LVL15
/var/folders/rt/4gvqv631095f64jvm7jfj_000000gn/T//ccXylRzz.s:148    .text.initPlant:000000000000007a .LVL16
/var/folders/rt/4gvqv631095f64jvm7jfj_000000gn/T//ccXylRzz.s:159    .text.initPlant:0000000000000094 .LVL17
/var/folders/rt/4gvqv631095f64jvm7jfj_000000gn/T//ccXylRzz.s:2859   .debug_str:00000000000002c5 .LASF143
/var/folders/rt/4gvqv631095f64jvm7jfj_000000gn/T//ccXylRzz.s:14     .text.initSensorReading:0000000000000000 .LFB3
/var/folders/rt/4gvqv631095f64jvm7jfj_000000gn/T//ccXylRzz.s:76     .text.initSensorReading:000000000000003e .LFE3
GAS LISTING /var/folders/rt/4gvqv631095f64jvm7jfj_000000gn/T//ccXylRzz.s 			page 10


/var/folders/rt/4gvqv631095f64jvm7jfj_000000gn/T//ccXylRzz.s:2634   .debug_loc:00000000000000d3 .LLST0
/var/folders/rt/4gvqv631095f64jvm7jfj_000000gn/T//ccXylRzz.s:2652   .debug_loc:00000000000000ff .LLST1
/var/folders/rt/4gvqv631095f64jvm7jfj_000000gn/T//ccXylRzz.s:2869   .debug_str:00000000000002fa .LASF132
/var/folders/rt/4gvqv631095f64jvm7jfj_000000gn/T//ccXylRzz.s:2670   .debug_loc:000000000000012b .LLST2
/var/folders/rt/4gvqv631095f64jvm7jfj_000000gn/T//ccXylRzz.s:2783   .debug_str:000000000000016a .LASF133
/var/folders/rt/4gvqv631095f64jvm7jfj_000000gn/T//ccXylRzz.s:49     .text.initSensorReading:0000000000000022 .LVL4
/var/folders/rt/4gvqv631095f64jvm7jfj_000000gn/T//ccXylRzz.s:60     .text.initSensorReading:0000000000000032 .LVL5
/var/folders/rt/4gvqv631095f64jvm7jfj_000000gn/T//ccXylRzz.s:2963   .debug_str:000000000000056f .LASF144
/var/folders/rt/4gvqv631095f64jvm7jfj_000000gn/T//ccXylRzz.s:2837   .debug_str:0000000000000260 .LASF134
/var/folders/rt/4gvqv631095f64jvm7jfj_000000gn/T//ccXylRzz.s:2941   .debug_str:000000000000044e .LASF136
/var/folders/rt/4gvqv631095f64jvm7jfj_000000gn/T//ccXylRzz.s:2831   .debug_str:000000000000024b .LASF135
/var/folders/rt/4gvqv631095f64jvm7jfj_000000gn/T//ccXylRzz.s:2839   .debug_str:0000000000000267 .LASF137
/var/folders/rt/4gvqv631095f64jvm7jfj_000000gn/T//ccXylRzz.s:94     .text.initPlant:000000000000000c .LCFI2
/var/folders/rt/4gvqv631095f64jvm7jfj_000000gn/T//ccXylRzz.s:177    .text.initPlant:00000000000000aa .LCFI3
/var/folders/rt/4gvqv631095f64jvm7jfj_000000gn/T//ccXylRzz.s:86     .text.initPlant:0000000000000000 .LVL8
/var/folders/rt/4gvqv631095f64jvm7jfj_000000gn/T//ccXylRzz.s:111    .text.initPlant:0000000000000020 .LVL10
/var/folders/rt/4gvqv631095f64jvm7jfj_000000gn/T//ccXylRzz.s:179    .text.initPlant:00000000000000aa .LVL20
/var/folders/rt/4gvqv631095f64jvm7jfj_000000gn/T//ccXylRzz.s:181    .text.initPlant:00000000000000ac .LVL21
/var/folders/rt/4gvqv631095f64jvm7jfj_000000gn/T//ccXylRzz.s:101    .text.initPlant:0000000000000016 .LVL9
/var/folders/rt/4gvqv631095f64jvm7jfj_000000gn/T//ccXylRzz.s:175    .text.initPlant:00000000000000a6 .LVL19
/var/folders/rt/4gvqv631095f64jvm7jfj_000000gn/T//ccXylRzz.s:113    .text.initPlant:0000000000000024 .LVL11
/var/folders/rt/4gvqv631095f64jvm7jfj_000000gn/T//ccXylRzz.s:168    .text.initPlant:000000000000009e .LVL18
/var/folders/rt/4gvqv631095f64jvm7jfj_000000gn/T//ccXylRzz.s:23     .text.initSensorReading:0000000000000002 .LCFI0
/var/folders/rt/4gvqv631095f64jvm7jfj_000000gn/T//ccXylRzz.s:72     .text.initSensorReading:000000000000003c .LCFI1
/var/folders/rt/4gvqv631095f64jvm7jfj_000000gn/T//ccXylRzz.s:18     .text.initSensorReading:0000000000000000 .LVL0
/var/folders/rt/4gvqv631095f64jvm7jfj_000000gn/T//ccXylRzz.s:41     .text.initSensorReading:0000000000000016 .LVL2
/var/folders/rt/4gvqv631095f64jvm7jfj_000000gn/T//ccXylRzz.s:30     .text.initSensorReading:000000000000000a .LVL1
/var/folders/rt/4gvqv631095f64jvm7jfj_000000gn/T//ccXylRzz.s:70     .text.initSensorReading:000000000000003a .LVL7
/var/folders/rt/4gvqv631095f64jvm7jfj_000000gn/T//ccXylRzz.s:207    .debug_info:0000000000000000 .Ldebug_info0

UNDEFINED SYMBOLS
snprintf
memcpy
strcpy
