GAS LISTING /var/folders/rt/4gvqv631095f64jvm7jfj_000000gn/T//ccfoHY0O.s 			page 1


   1              		.file	"pwm.c"
   2              		.option nopic
   3              		.attribute arch, "rv32i2p0_m2p0_a2p0_c2p0"
   4              		.attribute unaligned_access, 0
   5              		.attribute stack_align, 16
   6              		.text
   7              	.Ltext0:
   8              		.cfi_sections	.debug_frame
   9              		.section	.text.T1powerUpInitPWM,"ax",@progbits
  10              		.align	1
  11              		.globl	T1powerUpInitPWM
  13              	T1powerUpInitPWM:
  14              	.LFB2:
  15              		.file 1 "pwm.c"
   1:pwm.c         **** #include "pwm.h"
   2:pwm.c         **** 
   3:pwm.c         **** void T1powerUpInitPWM(uint16_t ch){
  16              		.loc 1 3 35
  17              		.cfi_startproc
  18              	.LVL0:
   4:pwm.c         ****     timer_oc_parameter_struct timer_ocinitpara;
  19              		.loc 1 4 5
   5:pwm.c         ****     timer_parameter_struct timer_initpara;
  20              		.loc 1 5 5
   6:pwm.c         ****     rcu_periph_clock_enable(RCU_GPIOA);
  21              		.loc 1 6 5
   3:pwm.c         ****     timer_oc_parameter_struct timer_ocinitpara;
  22              		.loc 1 3 35 is_stmt 0
  23 0000 3971     		addi	sp,sp,-64
  24              	.LCFI0:
  25              		.cfi_def_cfa_offset 64
  26 0002 22DC     		sw	s0,56(sp)
  27              		.cfi_offset 8, -8
  28 0004 2A84     		mv	s0,a0
  29              		.loc 1 6 5
  30 0006 13052060 		li	a0,1538
  31              	.LVL1:
   3:pwm.c         ****     timer_oc_parameter_struct timer_ocinitpara;
  32              		.loc 1 3 35
  33 000a 06DE     		sw	ra,60(sp)
  34 000c 4ED6     		sw	s3,44(sp)
  35 000e 26DA     		sw	s1,52(sp)
  36 0010 4AD8     		sw	s2,48(sp)
  37              		.cfi_offset 1, -4
  38              		.cfi_offset 19, -20
  39              		.cfi_offset 9, -12
  40              		.cfi_offset 18, -16
  41              		.loc 1 6 5
  42 0012 97000000 		call	rcu_periph_clock_enable
  42      E7800000 
  43              	.LVL2:
   7:pwm.c         ****     rcu_periph_clock_enable(RCU_AF);
  44              		.loc 1 7 5 is_stmt 1
  45 001a 13050060 		li	a0,1536
  46 001e 93791400 		andi	s3,s0,1
  47 0022 97000000 		call	rcu_periph_clock_enable
  47      E7800000 
GAS LISTING /var/folders/rt/4gvqv631095f64jvm7jfj_000000gn/T//ccfoHY0O.s 			page 2


  48              	.LVL3:
   8:pwm.c         ****     if (ch&0x1) gpio_init(GPIOA, GPIO_MODE_AF_PP, GPIO_OSPEED_50MHZ, GPIO_PIN_0);
  49              		.loc 1 8 5
  50              		.loc 1 8 8 is_stmt 0
  51 002a 638D0900 		beq	s3,zero,.L2
  52              		.loc 1 8 17 is_stmt 1 discriminator 1
  53 002e 37150140 		li	a0,1073811456
  54 0032 8546     		li	a3,1
  55 0034 0D46     		li	a2,3
  56 0036 E145     		li	a1,24
  57 0038 13050580 		addi	a0,a0,-2048
  58 003c 97000000 		call	gpio_init
  58      E7800000 
  59              	.LVL4:
  60              	.L2:
   9:pwm.c         ****     if (ch&0x2) gpio_init(GPIOA, GPIO_MODE_AF_PP, GPIO_OSPEED_50MHZ, GPIO_PIN_1);
  61              		.loc 1 9 5
  62 0044 13792400 		andi	s2,s0,2
  63              		.loc 1 9 8 is_stmt 0
  64 0048 630D0900 		beq	s2,zero,.L3
  65              		.loc 1 9 17 is_stmt 1 discriminator 1
  66 004c 37150140 		li	a0,1073811456
  67 0050 8946     		li	a3,2
  68 0052 0D46     		li	a2,3
  69 0054 E145     		li	a1,24
  70 0056 13050580 		addi	a0,a0,-2048
  71 005a 97000000 		call	gpio_init
  71      E7800000 
  72              	.LVL5:
  73              	.L3:
  10:pwm.c         ****     if (ch&0x4) gpio_init(GPIOA, GPIO_MODE_AF_PP, GPIO_OSPEED_50MHZ, GPIO_PIN_2);
  74              		.loc 1 10 5
  75 0062 93744400 		andi	s1,s0,4
  76              		.loc 1 10 8 is_stmt 0
  77 0066 81CC     		beq	s1,zero,.L4
  78              		.loc 1 10 17 is_stmt 1 discriminator 1
  79 0068 37150140 		li	a0,1073811456
  80 006c 9146     		li	a3,4
  81 006e 0D46     		li	a2,3
  82 0070 E145     		li	a1,24
  83 0072 13050580 		addi	a0,a0,-2048
  84 0076 97000000 		call	gpio_init
  84      E7800000 
  85              	.LVL6:
  86              	.L4:
  11:pwm.c         ****     if (ch&0x8) gpio_init(GPIOA, GPIO_MODE_AF_PP, GPIO_OSPEED_50MHZ, GPIO_PIN_3);
  87              		.loc 1 11 5
  88 007e 2188     		andi	s0,s0,8
  89              		.loc 1 11 8 is_stmt 0
  90 0080 01CC     		beq	s0,zero,.L5
  91              		.loc 1 11 17 is_stmt 1 discriminator 1
  92 0082 37150140 		li	a0,1073811456
  93 0086 A146     		li	a3,8
  94 0088 0D46     		li	a2,3
  95 008a E145     		li	a1,24
  96 008c 13050580 		addi	a0,a0,-2048
  97 0090 97000000 		call	gpio_init
GAS LISTING /var/folders/rt/4gvqv631095f64jvm7jfj_000000gn/T//ccfoHY0O.s 			page 3


  97      E7800000 
  98              	.LVL7:
  99              	.L5:
  12:pwm.c         ****     rcu_periph_clock_enable(RCU_TIMER1);
 100              		.loc 1 12 5
 101 0098 13050070 		li	a0,1792
 102 009c 97000000 		call	rcu_periph_clock_enable
 102      E7800000 
 103              	.LVL8:
  13:pwm.c         **** 
  14:pwm.c         ****     timer_deinit(TIMER1);
 104              		.loc 1 14 5
 105 00a4 37050040 		li	a0,1073741824
 106 00a8 97000000 		call	timer_deinit
 106      E7800000 
 107              	.LVL9:
  15:pwm.c         ****     timer_struct_para_init(&timer_initpara);
 108              		.loc 1 15 5
 109 00b0 0808     		addi	a0,sp,16
 110 00b2 97000000 		call	timer_struct_para_init
 110      E7800000 
 111              	.LVL10:
  16:pwm.c         ****     timer_initpara.prescaler         = 107;
 112              		.loc 1 16 5
  17:pwm.c         ****     timer_initpara.alignedmode       = TIMER_COUNTER_EDGE;
 113              		.loc 1 17 5
  18:pwm.c         ****     timer_initpara.counterdirection  = TIMER_COUNTER_UP;
 114              		.loc 1 18 5
  16:pwm.c         ****     timer_initpara.prescaler         = 107;
 115              		.loc 1 16 38 is_stmt 0
 116 00ba 9307B006 		li	a5,107
 117 00be 3EC8     		sw	a5,16(sp)
  19:pwm.c         ****     timer_initpara.period            = 15999;
 118              		.loc 1 19 38
 119 00c0 9167     		li	a5,16384
 120 00c2 9387F7E7 		addi	a5,a5,-385
  20:pwm.c         ****     timer_initpara.clockdivision     = TIMER_CKDIV_DIV1;
  21:pwm.c         ****     timer_initpara.repetitioncounter = 0;
  22:pwm.c         ****     timer_init(TIMER1, &timer_initpara);
 121              		.loc 1 22 5
 122 00c6 0C08     		addi	a1,sp,16
 123 00c8 37050040 		li	a0,1073741824
  19:pwm.c         ****     timer_initpara.period            = 15999;
 124              		.loc 1 19 38
 125 00cc 3ECC     		sw	a5,24(sp)
  18:pwm.c         ****     timer_initpara.period            = 15999;
 126              		.loc 1 18 38
 127 00ce 231A0100 		sh	zero,20(sp)
  19:pwm.c         ****     timer_initpara.period            = 15999;
 128              		.loc 1 19 5 is_stmt 1
  20:pwm.c         ****     timer_initpara.clockdivision     = TIMER_CKDIV_DIV1;
 129              		.loc 1 20 5
  20:pwm.c         ****     timer_initpara.clockdivision     = TIMER_CKDIV_DIV1;
 130              		.loc 1 20 38 is_stmt 0
 131 00d2 231E0100 		sh	zero,28(sp)
  21:pwm.c         ****     timer_init(TIMER1, &timer_initpara);
 132              		.loc 1 21 5 is_stmt 1
GAS LISTING /var/folders/rt/4gvqv631095f64jvm7jfj_000000gn/T//ccfoHY0O.s 			page 4


  21:pwm.c         ****     timer_init(TIMER1, &timer_initpara);
 133              		.loc 1 21 38 is_stmt 0
 134 00d6 230F0100 		sb	zero,30(sp)
 135              		.loc 1 22 5 is_stmt 1
 136 00da 97000000 		call	timer_init
 136      E7800000 
 137              	.LVL11:
  23:pwm.c         **** 
  24:pwm.c         ****     timer_channel_output_struct_para_init(&timer_ocinitpara);
 138              		.loc 1 24 5
 139 00e2 4800     		addi	a0,sp,4
 140 00e4 97000000 		call	timer_channel_output_struct_para_init
 140      E7800000 
 141              	.LVL12:
  25:pwm.c         ****     timer_ocinitpara.outputstate  = TIMER_CCX_ENABLE;
 142              		.loc 1 25 5
  26:pwm.c         ****     timer_ocinitpara.outputnstate = TIMER_CCXN_DISABLE;
 143              		.loc 1 26 5
  27:pwm.c         ****     timer_ocinitpara.ocpolarity   = TIMER_OC_POLARITY_HIGH;
 144              		.loc 1 27 5
  28:pwm.c         ****     timer_ocinitpara.ocnpolarity  = TIMER_OCN_POLARITY_HIGH;
 145              		.loc 1 28 5
  29:pwm.c         ****     timer_ocinitpara.ocidlestate  = TIMER_OC_IDLE_STATE_LOW;
 146              		.loc 1 29 5
  30:pwm.c         ****     timer_ocinitpara.ocnidlestate = TIMER_OCN_IDLE_STATE_LOW;
 147              		.loc 1 30 5
  25:pwm.c         ****     timer_ocinitpara.outputnstate = TIMER_CCXN_DISABLE;
 148              		.loc 1 25 35 is_stmt 0
 149 00ec 8547     		li	a5,1
 150 00ee 3EC2     		sw	a5,4(sp)
  27:pwm.c         ****     timer_ocinitpara.ocnpolarity  = TIMER_OCN_POLARITY_HIGH;
 151              		.loc 1 27 35
 152 00f0 02C4     		sw	zero,8(sp)
  29:pwm.c         ****     timer_ocinitpara.ocnidlestate = TIMER_OCN_IDLE_STATE_LOW;
 153              		.loc 1 29 35
 154 00f2 02C6     		sw	zero,12(sp)
  31:pwm.c         ****     if (ch&0x1) timer_channel_output_config(TIMER1,TIMER_CH_0,&timer_ocinitpara);
 155              		.loc 1 31 5 is_stmt 1
 156              		.loc 1 31 8 is_stmt 0
 157 00f4 638A0900 		beq	s3,zero,.L6
 158              		.loc 1 31 17 is_stmt 1 discriminator 1
 159 00f8 5000     		addi	a2,sp,4
 160 00fa 8145     		li	a1,0
 161 00fc 37050040 		li	a0,1073741824
 162 0100 97000000 		call	timer_channel_output_config
 162      E7800000 
 163              	.LVL13:
 164              	.L6:
  32:pwm.c         ****     if (ch&0x2) timer_channel_output_config(TIMER1,TIMER_CH_1,&timer_ocinitpara);
 165              		.loc 1 32 5
 166              		.loc 1 32 8 is_stmt 0
 167 0108 630A0900 		beq	s2,zero,.L7
 168              		.loc 1 32 17 is_stmt 1 discriminator 1
 169 010c 5000     		addi	a2,sp,4
 170 010e 8545     		li	a1,1
 171 0110 37050040 		li	a0,1073741824
 172 0114 97000000 		call	timer_channel_output_config
GAS LISTING /var/folders/rt/4gvqv631095f64jvm7jfj_000000gn/T//ccfoHY0O.s 			page 5


 172      E7800000 
 173              	.LVL14:
 174              	.L7:
  33:pwm.c         ****     if (ch&0x4) timer_channel_output_config(TIMER1,TIMER_CH_2,&timer_ocinitpara);
 175              		.loc 1 33 5
 176              		.loc 1 33 8 is_stmt 0
 177 011c 89C8     		beq	s1,zero,.L8
 178              		.loc 1 33 17 is_stmt 1 discriminator 1
 179 011e 5000     		addi	a2,sp,4
 180 0120 8945     		li	a1,2
 181 0122 37050040 		li	a0,1073741824
 182 0126 97000000 		call	timer_channel_output_config
 182      E7800000 
 183              	.LVL15:
 184              	.L8:
  34:pwm.c         ****     if (ch&0x8) timer_channel_output_config(TIMER1,TIMER_CH_3,&timer_ocinitpara);
 185              		.loc 1 34 5
 186              		.loc 1 34 8 is_stmt 0
 187 012e 09C8     		beq	s0,zero,.L9
 188              		.loc 1 34 17 is_stmt 1 discriminator 1
 189 0130 5000     		addi	a2,sp,4
 190 0132 8D45     		li	a1,3
 191 0134 37050040 		li	a0,1073741824
 192 0138 97000000 		call	timer_channel_output_config
 192      E7800000 
 193              	.LVL16:
 194              	.L9:
  35:pwm.c         **** 
  36:pwm.c         ****     if (ch&0x1) {
 195              		.loc 1 36 5
 196              		.loc 1 36 8 is_stmt 0
 197 0140 638D0902 		beq	s3,zero,.L10
  37:pwm.c         ****         timer_channel_output_pulse_value_config(TIMER1,TIMER_CH_0,11999);
 198              		.loc 1 37 9 is_stmt 1
 199 0144 0D66     		li	a2,12288
 200 0146 1306F6ED 		addi	a2,a2,-289
 201 014a 8145     		li	a1,0
 202 014c 37050040 		li	a0,1073741824
 203 0150 97000000 		call	timer_channel_output_pulse_value_config
 203      E7800000 
 204              	.LVL17:
  38:pwm.c         ****         timer_channel_output_mode_config(TIMER1,TIMER_CH_0,TIMER_OC_MODE_PWM0);
 205              		.loc 1 38 9
 206 0158 13060006 		li	a2,96
 207 015c 8145     		li	a1,0
 208 015e 37050040 		li	a0,1073741824
 209 0162 97000000 		call	timer_channel_output_mode_config
 209      E7800000 
 210              	.LVL18:
  39:pwm.c         ****         timer_channel_output_shadow_config(TIMER1,TIMER_CH_0,TIMER_OC_SHADOW_DISABLE);
 211              		.loc 1 39 9
 212 016a 0146     		li	a2,0
 213 016c 8145     		li	a1,0
 214 016e 37050040 		li	a0,1073741824
 215 0172 97000000 		call	timer_channel_output_shadow_config
 215      E7800000 
 216              	.LVL19:
GAS LISTING /var/folders/rt/4gvqv631095f64jvm7jfj_000000gn/T//ccfoHY0O.s 			page 6


 217              	.L10:
  40:pwm.c         ****     }
  41:pwm.c         ****    if (ch&0x2) {
 218              		.loc 1 41 4
 219              		.loc 1 41 7 is_stmt 0
 220 017a 630D0902 		beq	s2,zero,.L11
  42:pwm.c         ****         timer_channel_output_pulse_value_config(TIMER1,TIMER_CH_1,11999);
 221              		.loc 1 42 9 is_stmt 1
 222 017e 0D66     		li	a2,12288
 223 0180 1306F6ED 		addi	a2,a2,-289
 224 0184 8545     		li	a1,1
 225 0186 37050040 		li	a0,1073741824
 226 018a 97000000 		call	timer_channel_output_pulse_value_config
 226      E7800000 
 227              	.LVL20:
  43:pwm.c         ****         timer_channel_output_mode_config(TIMER1,TIMER_CH_1,TIMER_OC_MODE_PWM0);
 228              		.loc 1 43 9
 229 0192 13060006 		li	a2,96
 230 0196 8545     		li	a1,1
 231 0198 37050040 		li	a0,1073741824
 232 019c 97000000 		call	timer_channel_output_mode_config
 232      E7800000 
 233              	.LVL21:
  44:pwm.c         ****         timer_channel_output_shadow_config(TIMER1,TIMER_CH_1,TIMER_OC_SHADOW_DISABLE);
 234              		.loc 1 44 9
 235 01a4 0146     		li	a2,0
 236 01a6 8545     		li	a1,1
 237 01a8 37050040 		li	a0,1073741824
 238 01ac 97000000 		call	timer_channel_output_shadow_config
 238      E7800000 
 239              	.LVL22:
 240              	.L11:
  45:pwm.c         ****     }
  46:pwm.c         ****    if (ch&0x4) {
 241              		.loc 1 46 4
 242              		.loc 1 46 7 is_stmt 0
 243 01b4 85CC     		beq	s1,zero,.L12
  47:pwm.c         ****         timer_channel_output_pulse_value_config(TIMER1,TIMER_CH_2,11999);
 244              		.loc 1 47 9 is_stmt 1
 245 01b6 0D66     		li	a2,12288
 246 01b8 1306F6ED 		addi	a2,a2,-289
 247 01bc 8945     		li	a1,2
 248 01be 37050040 		li	a0,1073741824
 249 01c2 97000000 		call	timer_channel_output_pulse_value_config
 249      E7800000 
 250              	.LVL23:
  48:pwm.c         ****         timer_channel_output_mode_config(TIMER1,TIMER_CH_2,TIMER_OC_MODE_PWM0);
 251              		.loc 1 48 9
 252 01ca 13060006 		li	a2,96
 253 01ce 8945     		li	a1,2
 254 01d0 37050040 		li	a0,1073741824
 255 01d4 97000000 		call	timer_channel_output_mode_config
 255      E7800000 
 256              	.LVL24:
  49:pwm.c         ****         timer_channel_output_shadow_config(TIMER1,TIMER_CH_2,TIMER_OC_SHADOW_DISABLE);
 257              		.loc 1 49 9
 258 01dc 0146     		li	a2,0
GAS LISTING /var/folders/rt/4gvqv631095f64jvm7jfj_000000gn/T//ccfoHY0O.s 			page 7


 259 01de 8945     		li	a1,2
 260 01e0 37050040 		li	a0,1073741824
 261 01e4 97000000 		call	timer_channel_output_shadow_config
 261      E7800000 
 262              	.LVL25:
 263              	.L12:
  50:pwm.c         ****     }
  51:pwm.c         ****    if (ch&0x8) {
 264              		.loc 1 51 4
 265              		.loc 1 51 7 is_stmt 0
 266 01ec 05CC     		beq	s0,zero,.L13
  52:pwm.c         ****         timer_channel_output_pulse_value_config(TIMER1,TIMER_CH_3,11999);
 267              		.loc 1 52 9 is_stmt 1
 268 01ee 0D66     		li	a2,12288
 269 01f0 1306F6ED 		addi	a2,a2,-289
 270 01f4 8D45     		li	a1,3
 271 01f6 37050040 		li	a0,1073741824
 272 01fa 97000000 		call	timer_channel_output_pulse_value_config
 272      E7800000 
 273              	.LVL26:
  53:pwm.c         ****         timer_channel_output_mode_config(TIMER1,TIMER_CH_3,TIMER_OC_MODE_PWM0);
 274              		.loc 1 53 9
 275 0202 13060006 		li	a2,96
 276 0206 8D45     		li	a1,3
 277 0208 37050040 		li	a0,1073741824
 278 020c 97000000 		call	timer_channel_output_mode_config
 278      E7800000 
 279              	.LVL27:
  54:pwm.c         ****         timer_channel_output_shadow_config(TIMER1,TIMER_CH_3,TIMER_OC_SHADOW_DISABLE);
 280              		.loc 1 54 9
 281 0214 0146     		li	a2,0
 282 0216 8D45     		li	a1,3
 283 0218 37050040 		li	a0,1073741824
 284 021c 97000000 		call	timer_channel_output_shadow_config
 284      E7800000 
 285              	.LVL28:
 286              	.L13:
  55:pwm.c         ****     }
  56:pwm.c         ****     
  57:pwm.c         ****     timer_auto_reload_shadow_enable(TIMER1);
 287              		.loc 1 57 5
 288 0224 37050040 		li	a0,1073741824
 289 0228 97000000 		call	timer_auto_reload_shadow_enable
 289      E7800000 
 290              	.LVL29:
  58:pwm.c         ****     timer_enable(TIMER1);
 291              		.loc 1 58 5
 292 0230 37050040 		li	a0,1073741824
 293 0234 97000000 		call	timer_enable
 293      E7800000 
 294              	.LVL30:
  59:pwm.c         **** }
 295              		.loc 1 59 1 is_stmt 0
 296 023c F250     		lw	ra,60(sp)
 297              		.cfi_restore 1
 298 023e 6254     		lw	s0,56(sp)
 299              		.cfi_restore 8
GAS LISTING /var/folders/rt/4gvqv631095f64jvm7jfj_000000gn/T//ccfoHY0O.s 			page 8


 300 0240 D254     		lw	s1,52(sp)
 301              		.cfi_restore 9
 302 0242 4259     		lw	s2,48(sp)
 303              		.cfi_restore 18
 304 0244 B259     		lw	s3,44(sp)
 305              		.cfi_restore 19
 306 0246 2161     		addi	sp,sp,64
 307              	.LCFI1:
 308              		.cfi_def_cfa_offset 0
 309 0248 8280     		jr	ra
 310              		.cfi_endproc
 311              	.LFE2:
 313              		.section	.text.T1setPWMch2,"ax",@progbits
 314              		.align	1
 315              		.globl	T1setPWMch2
 317              	T1setPWMch2:
 318              	.LFB3:
  60:pwm.c         **** 
  61:pwm.c         **** void T1setPWMch2(int value) {
 319              		.loc 1 61 29 is_stmt 1
 320              		.cfi_startproc
 321              	.LVL31:
  62:pwm.c         ****     timer_channel_output_pulse_value_config(TIMER1,TIMER_CH_2,value);
 322              		.loc 1 62 5
 323 0000 2A86     		mv	a2,a0
 324 0002 8945     		li	a1,2
 325 0004 37050040 		li	a0,1073741824
 326              	.LVL32:
 327 0008 17030000 		tail	timer_channel_output_pulse_value_config
 327      67000300 
 328              	.LVL33:
 329              		.cfi_endproc
 330              	.LFE3:
 332              		.section	.text.T1setPWMch0,"ax",@progbits
 333              		.align	1
 334              		.globl	T1setPWMch0
 336              	T1setPWMch0:
 337              	.LFB4:
  63:pwm.c         **** }
  64:pwm.c         **** 
  65:pwm.c         **** void T1setPWMch0(int value) {
 338              		.loc 1 65 29
 339              		.cfi_startproc
 340              	.LVL34:
  66:pwm.c         ****     timer_channel_output_pulse_value_config(TIMER1,TIMER_CH_0,(value));
 341              		.loc 1 66 5
 342 0000 2A86     		mv	a2,a0
 343 0002 8145     		li	a1,0
 344 0004 37050040 		li	a0,1073741824
 345              	.LVL35:
 346 0008 17030000 		tail	timer_channel_output_pulse_value_config
 346      67000300 
 347              	.LVL36:
 348              		.cfi_endproc
 349              	.LFE4:
 351              		.globl	__floatsidf
 352              		.globl	__divdf3
GAS LISTING /var/folders/rt/4gvqv631095f64jvm7jfj_000000gn/T//ccfoHY0O.s 			page 9


 353              		.globl	__muldf3
 354              		.globl	__fixunsdfsi
 355              		.section	.text.T1setPWMmotorB,"ax",@progbits
 356              		.align	1
 357              		.globl	T1setPWMmotorB
 359              	T1setPWMmotorB:
 360              	.LFB5:
  67:pwm.c         **** }
  68:pwm.c         **** 
  69:pwm.c         **** void T1setPWMmotorB(int throttel){
 361              		.loc 1 69 34
 362              		.cfi_startproc
 363              	.LVL37:
  70:pwm.c         ****     if (throttel>0) {
 364              		.loc 1 70 5
  69:pwm.c         ****     if (throttel>0) {
 365              		.loc 1 69 34 is_stmt 0
 366 0000 4111     		addi	sp,sp,-16
 367              	.LCFI2:
 368              		.cfi_def_cfa_offset 16
 369 0002 22C4     		sw	s0,8(sp)
 370 0004 26C2     		sw	s1,4(sp)
 371 0006 06C6     		sw	ra,12(sp)
 372 0008 4AC0     		sw	s2,0(sp)
 373              		.cfi_offset 8, -8
 374              		.cfi_offset 9, -12
 375              		.cfi_offset 1, -4
 376              		.cfi_offset 18, -16
 377 000a B7040000 		lui	s1,%hi(.LC0)
 378 000e 37040000 		lui	s0,%hi(.LC1)
 379              		.loc 1 70 8
 380 0012 635FA004 		ble	a0,zero,.L54
  71:pwm.c         ****        timer_channel_output_pulse_value_config(TIMER1,TIMER_CH_2,(throttel/100.0)*16000);
 381              		.loc 1 71 8 is_stmt 1
 382              		.loc 1 71 75 is_stmt 0
 383 0016 97000000 		call	__floatsidf
 383      E7800000 
 384              	.LVL38:
 385 001e 03A60400 		lw	a2,%lo(.LC0)(s1)
 386 0022 83A64400 		lw	a3,%lo(.LC0+4)(s1)
 387 0026 97000000 		call	__divdf3
 387      E7800000 
 388              	.LVL39:
 389              		.loc 1 71 82
 390 002e 03260400 		lw	a2,%lo(.LC1)(s0)
 391 0032 83264400 		lw	a3,%lo(.LC1+4)(s0)
 392 0036 97000000 		call	__muldf3
 392      E7800000 
 393              	.LVL40:
 394              		.loc 1 71 8
 395 003e 97000000 		call	__fixunsdfsi
 395      E7800000 
 396              	.LVL41:
 397 0046 2A86     		mv	a2,a0
 398 0048 8945     		li	a1,2
 399 004a 37050040 		li	a0,1073741824
 400 004e 97000000 		call	timer_channel_output_pulse_value_config
GAS LISTING /var/folders/rt/4gvqv631095f64jvm7jfj_000000gn/T//ccfoHY0O.s 			page 10


 400      E7800000 
 401              	.LVL42:
  72:pwm.c         ****        timer_channel_output_pulse_value_config(TIMER1,TIMER_CH_3,0);
 402              		.loc 1 72 8 is_stmt 1
 403 0056 0146     		li	a2,0
 404              	.L56:
  73:pwm.c         ****     } else {
  74:pwm.c         ****        timer_channel_output_pulse_value_config(TIMER1,TIMER_CH_2,0);
  75:pwm.c         ****        timer_channel_output_pulse_value_config(TIMER1,TIMER_CH_3,(-throttel/100.0)*16000);
  76:pwm.c         ****     }
  77:pwm.c         **** }
 405              		.loc 1 77 1 is_stmt 0
 406 0058 2244     		lw	s0,8(sp)
 407              		.cfi_remember_state
 408              		.cfi_restore 8
 409 005a B240     		lw	ra,12(sp)
 410              		.cfi_restore 1
 411 005c 9244     		lw	s1,4(sp)
 412              		.cfi_restore 9
 413 005e 0249     		lw	s2,0(sp)
 414              		.cfi_restore 18
  75:pwm.c         ****     }
 415              		.loc 1 75 8
 416 0060 8D45     		li	a1,3
 417              		.loc 1 77 1
  75:pwm.c         ****     }
 418              		.loc 1 75 8
 419 0062 37050040 		li	a0,1073741824
 420              		.loc 1 77 1
 421 0066 4101     		addi	sp,sp,16
 422              	.LCFI3:
 423              		.cfi_def_cfa_offset 0
  75:pwm.c         ****     }
 424              		.loc 1 75 8
 425 0068 17030000 		tail	timer_channel_output_pulse_value_config
 425      67000300 
 426              	.LVL43:
 427              	.L54:
 428              	.LCFI4:
 429              		.cfi_restore_state
  74:pwm.c         ****        timer_channel_output_pulse_value_config(TIMER1,TIMER_CH_3,(-throttel/100.0)*16000);
 430              		.loc 1 74 8
 431 0070 0146     		li	a2,0
 432 0072 2A89     		mv	s2,a0
  74:pwm.c         ****        timer_channel_output_pulse_value_config(TIMER1,TIMER_CH_3,(-throttel/100.0)*16000);
 433              		.loc 1 74 8 is_stmt 1
 434 0074 8945     		li	a1,2
 435 0076 37050040 		li	a0,1073741824
 436              	.LVL44:
 437 007a 97000000 		call	timer_channel_output_pulse_value_config
 437      E7800000 
 438              	.LVL45:
  75:pwm.c         ****     }
 439              		.loc 1 75 8
  75:pwm.c         ****     }
 440              		.loc 1 75 76 is_stmt 0
 441 0082 33052041 		neg	a0,s2
GAS LISTING /var/folders/rt/4gvqv631095f64jvm7jfj_000000gn/T//ccfoHY0O.s 			page 11


 442 0086 97000000 		call	__floatsidf
 442      E7800000 
 443              	.LVL46:
 444 008e 03A60400 		lw	a2,%lo(.LC0)(s1)
 445 0092 83A64400 		lw	a3,%lo(.LC0+4)(s1)
 446 0096 97000000 		call	__divdf3
 446      E7800000 
 447              	.LVL47:
  75:pwm.c         ****     }
 448              		.loc 1 75 83
 449 009e 03260400 		lw	a2,%lo(.LC1)(s0)
 450 00a2 83264400 		lw	a3,%lo(.LC1+4)(s0)
 451 00a6 97000000 		call	__muldf3
 451      E7800000 
 452              	.LVL48:
  75:pwm.c         ****     }
 453              		.loc 1 75 8
 454 00ae 97000000 		call	__fixunsdfsi
 454      E7800000 
 455              	.LVL49:
 456 00b6 2A86     		mv	a2,a0
 457 00b8 45B7     		j	.L56
 458              		.cfi_endproc
 459              	.LFE5:
 461              		.section	.rodata.T1setPWMmotorB.cst8,"aM",@progbits,8
 462              		.align	3
 463              	.LC0:
 464 0000 00000000 		.word	0
 465 0004 00005940 		.word	1079574528
 466              	.LC1:
 467 0008 00000000 		.word	0
 468 000c 0040CF40 		.word	1087324160
 469              		.text
 470              	.Letext0:
 471              		.file 2 "/Users/alexstrae/toolchain-gd32v-v202-osx/compiler/riscv64-unknown-elf/include/machine/_d
 472              		.file 3 "/Users/alexstrae/toolchain-gd32v-v202-osx/compiler/riscv64-unknown-elf/include/sys/_stdin
 473              		.file 4 "../../firmware/GD32VF103_standard_peripheral/Include/gd32vf103_timer.h"
 474              		.file 5 "../../firmware/GD32VF103_standard_peripheral/Include/gd32vf103_rcu.h"
 475              		.file 6 "../../firmware/GD32VF103_standard_peripheral/Include/gd32vf103_gpio.h"
 476              		.file 7 "../../firmware/GD32VF103_standard_peripheral/system_gd32vf103.h"
GAS LISTING /var/folders/rt/4gvqv631095f64jvm7jfj_000000gn/T//ccfoHY0O.s 			page 12


DEFINED SYMBOLS
                            *ABS*:0000000000000000 pwm.c
/var/folders/rt/4gvqv631095f64jvm7jfj_000000gn/T//ccfoHY0O.s:13     .text.T1powerUpInitPWM:0000000000000000 T1powerUpInitPWM
/var/folders/rt/4gvqv631095f64jvm7jfj_000000gn/T//ccfoHY0O.s:17     .text.T1powerUpInitPWM:0000000000000000 .L0 
/var/folders/rt/4gvqv631095f64jvm7jfj_000000gn/T//ccfoHY0O.s:19     .text.T1powerUpInitPWM:0000000000000000 .L0 
/var/folders/rt/4gvqv631095f64jvm7jfj_000000gn/T//ccfoHY0O.s:20     .text.T1powerUpInitPWM:0000000000000000 .L0 
/var/folders/rt/4gvqv631095f64jvm7jfj_000000gn/T//ccfoHY0O.s:21     .text.T1powerUpInitPWM:0000000000000000 .L0 
/var/folders/rt/4gvqv631095f64jvm7jfj_000000gn/T//ccfoHY0O.s:22     .text.T1powerUpInitPWM:0000000000000000 .L0 
/var/folders/rt/4gvqv631095f64jvm7jfj_000000gn/T//ccfoHY0O.s:23     .text.T1powerUpInitPWM:0000000000000000 .L0 
/var/folders/rt/4gvqv631095f64jvm7jfj_000000gn/T//ccfoHY0O.s:25     .text.T1powerUpInitPWM:0000000000000002 .L0 
/var/folders/rt/4gvqv631095f64jvm7jfj_000000gn/T//ccfoHY0O.s:27     .text.T1powerUpInitPWM:0000000000000004 .L0 
/var/folders/rt/4gvqv631095f64jvm7jfj_000000gn/T//ccfoHY0O.s:30     .text.T1powerUpInitPWM:0000000000000006 .L0 
/var/folders/rt/4gvqv631095f64jvm7jfj_000000gn/T//ccfoHY0O.s:33     .text.T1powerUpInitPWM:000000000000000a .L0 
/var/folders/rt/4gvqv631095f64jvm7jfj_000000gn/T//ccfoHY0O.s:37     .text.T1powerUpInitPWM:0000000000000012 .L0 
/var/folders/rt/4gvqv631095f64jvm7jfj_000000gn/T//ccfoHY0O.s:38     .text.T1powerUpInitPWM:0000000000000012 .L0 
/var/folders/rt/4gvqv631095f64jvm7jfj_000000gn/T//ccfoHY0O.s:39     .text.T1powerUpInitPWM:0000000000000012 .L0 
/var/folders/rt/4gvqv631095f64jvm7jfj_000000gn/T//ccfoHY0O.s:40     .text.T1powerUpInitPWM:0000000000000012 .L0 
/var/folders/rt/4gvqv631095f64jvm7jfj_000000gn/T//ccfoHY0O.s:42     .text.T1powerUpInitPWM:0000000000000012 .L0 
/var/folders/rt/4gvqv631095f64jvm7jfj_000000gn/T//ccfoHY0O.s:45     .text.T1powerUpInitPWM:000000000000001a .L0 
/var/folders/rt/4gvqv631095f64jvm7jfj_000000gn/T//ccfoHY0O.s:50     .text.T1powerUpInitPWM:000000000000002a .L0 
/var/folders/rt/4gvqv631095f64jvm7jfj_000000gn/T//ccfoHY0O.s:51     .text.T1powerUpInitPWM:000000000000002a .L0 
/var/folders/rt/4gvqv631095f64jvm7jfj_000000gn/T//ccfoHY0O.s:53     .text.T1powerUpInitPWM:000000000000002e .L0 
/var/folders/rt/4gvqv631095f64jvm7jfj_000000gn/T//ccfoHY0O.s:62     .text.T1powerUpInitPWM:0000000000000044 .L0 
/var/folders/rt/4gvqv631095f64jvm7jfj_000000gn/T//ccfoHY0O.s:64     .text.T1powerUpInitPWM:0000000000000048 .L0 
/var/folders/rt/4gvqv631095f64jvm7jfj_000000gn/T//ccfoHY0O.s:66     .text.T1powerUpInitPWM:000000000000004c .L0 
/var/folders/rt/4gvqv631095f64jvm7jfj_000000gn/T//ccfoHY0O.s:75     .text.T1powerUpInitPWM:0000000000000062 .L0 
/var/folders/rt/4gvqv631095f64jvm7jfj_000000gn/T//ccfoHY0O.s:77     .text.T1powerUpInitPWM:0000000000000066 .L0 
/var/folders/rt/4gvqv631095f64jvm7jfj_000000gn/T//ccfoHY0O.s:79     .text.T1powerUpInitPWM:0000000000000068 .L0 
/var/folders/rt/4gvqv631095f64jvm7jfj_000000gn/T//ccfoHY0O.s:88     .text.T1powerUpInitPWM:000000000000007e .L0 
/var/folders/rt/4gvqv631095f64jvm7jfj_000000gn/T//ccfoHY0O.s:90     .text.T1powerUpInitPWM:0000000000000080 .L0 
/var/folders/rt/4gvqv631095f64jvm7jfj_000000gn/T//ccfoHY0O.s:92     .text.T1powerUpInitPWM:0000000000000082 .L0 
/var/folders/rt/4gvqv631095f64jvm7jfj_000000gn/T//ccfoHY0O.s:101    .text.T1powerUpInitPWM:0000000000000098 .L0 
/var/folders/rt/4gvqv631095f64jvm7jfj_000000gn/T//ccfoHY0O.s:105    .text.T1powerUpInitPWM:00000000000000a4 .L0 
/var/folders/rt/4gvqv631095f64jvm7jfj_000000gn/T//ccfoHY0O.s:109    .text.T1powerUpInitPWM:00000000000000b0 .L0 
/var/folders/rt/4gvqv631095f64jvm7jfj_000000gn/T//ccfoHY0O.s:113    .text.T1powerUpInitPWM:00000000000000ba .L0 
/var/folders/rt/4gvqv631095f64jvm7jfj_000000gn/T//ccfoHY0O.s:114    .text.T1powerUpInitPWM:00000000000000ba .L0 
/var/folders/rt/4gvqv631095f64jvm7jfj_000000gn/T//ccfoHY0O.s:115    .text.T1powerUpInitPWM:00000000000000ba .L0 
/var/folders/rt/4gvqv631095f64jvm7jfj_000000gn/T//ccfoHY0O.s:116    .text.T1powerUpInitPWM:00000000000000ba .L0 
/var/folders/rt/4gvqv631095f64jvm7jfj_000000gn/T//ccfoHY0O.s:119    .text.T1powerUpInitPWM:00000000000000c0 .L0 
/var/folders/rt/4gvqv631095f64jvm7jfj_000000gn/T//ccfoHY0O.s:122    .text.T1powerUpInitPWM:00000000000000c6 .L0 
/var/folders/rt/4gvqv631095f64jvm7jfj_000000gn/T//ccfoHY0O.s:125    .text.T1powerUpInitPWM:00000000000000cc .L0 
/var/folders/rt/4gvqv631095f64jvm7jfj_000000gn/T//ccfoHY0O.s:127    .text.T1powerUpInitPWM:00000000000000ce .L0 
/var/folders/rt/4gvqv631095f64jvm7jfj_000000gn/T//ccfoHY0O.s:129    .text.T1powerUpInitPWM:00000000000000d2 .L0 
/var/folders/rt/4gvqv631095f64jvm7jfj_000000gn/T//ccfoHY0O.s:130    .text.T1powerUpInitPWM:00000000000000d2 .L0 
/var/folders/rt/4gvqv631095f64jvm7jfj_000000gn/T//ccfoHY0O.s:131    .text.T1powerUpInitPWM:00000000000000d2 .L0 
/var/folders/rt/4gvqv631095f64jvm7jfj_000000gn/T//ccfoHY0O.s:133    .text.T1powerUpInitPWM:00000000000000d6 .L0 
/var/folders/rt/4gvqv631095f64jvm7jfj_000000gn/T//ccfoHY0O.s:134    .text.T1powerUpInitPWM:00000000000000d6 .L0 
/var/folders/rt/4gvqv631095f64jvm7jfj_000000gn/T//ccfoHY0O.s:136    .text.T1powerUpInitPWM:00000000000000da .L0 
/var/folders/rt/4gvqv631095f64jvm7jfj_000000gn/T//ccfoHY0O.s:139    .text.T1powerUpInitPWM:00000000000000e2 .L0 
/var/folders/rt/4gvqv631095f64jvm7jfj_000000gn/T//ccfoHY0O.s:143    .text.T1powerUpInitPWM:00000000000000ec .L0 
/var/folders/rt/4gvqv631095f64jvm7jfj_000000gn/T//ccfoHY0O.s:144    .text.T1powerUpInitPWM:00000000000000ec .L0 
/var/folders/rt/4gvqv631095f64jvm7jfj_000000gn/T//ccfoHY0O.s:145    .text.T1powerUpInitPWM:00000000000000ec .L0 
/var/folders/rt/4gvqv631095f64jvm7jfj_000000gn/T//ccfoHY0O.s:146    .text.T1powerUpInitPWM:00000000000000ec .L0 
/var/folders/rt/4gvqv631095f64jvm7jfj_000000gn/T//ccfoHY0O.s:147    .text.T1powerUpInitPWM:00000000000000ec .L0 
/var/folders/rt/4gvqv631095f64jvm7jfj_000000gn/T//ccfoHY0O.s:148    .text.T1powerUpInitPWM:00000000000000ec .L0 
/var/folders/rt/4gvqv631095f64jvm7jfj_000000gn/T//ccfoHY0O.s:149    .text.T1powerUpInitPWM:00000000000000ec .L0 
/var/folders/rt/4gvqv631095f64jvm7jfj_000000gn/T//ccfoHY0O.s:152    .text.T1powerUpInitPWM:00000000000000f0 .L0 
GAS LISTING /var/folders/rt/4gvqv631095f64jvm7jfj_000000gn/T//ccfoHY0O.s 			page 13


/var/folders/rt/4gvqv631095f64jvm7jfj_000000gn/T//ccfoHY0O.s:154    .text.T1powerUpInitPWM:00000000000000f2 .L0 
/var/folders/rt/4gvqv631095f64jvm7jfj_000000gn/T//ccfoHY0O.s:156    .text.T1powerUpInitPWM:00000000000000f4 .L0 
/var/folders/rt/4gvqv631095f64jvm7jfj_000000gn/T//ccfoHY0O.s:157    .text.T1powerUpInitPWM:00000000000000f4 .L0 
/var/folders/rt/4gvqv631095f64jvm7jfj_000000gn/T//ccfoHY0O.s:159    .text.T1powerUpInitPWM:00000000000000f8 .L0 
/var/folders/rt/4gvqv631095f64jvm7jfj_000000gn/T//ccfoHY0O.s:166    .text.T1powerUpInitPWM:0000000000000108 .L0 
/var/folders/rt/4gvqv631095f64jvm7jfj_000000gn/T//ccfoHY0O.s:167    .text.T1powerUpInitPWM:0000000000000108 .L0 
/var/folders/rt/4gvqv631095f64jvm7jfj_000000gn/T//ccfoHY0O.s:169    .text.T1powerUpInitPWM:000000000000010c .L0 
/var/folders/rt/4gvqv631095f64jvm7jfj_000000gn/T//ccfoHY0O.s:176    .text.T1powerUpInitPWM:000000000000011c .L0 
/var/folders/rt/4gvqv631095f64jvm7jfj_000000gn/T//ccfoHY0O.s:177    .text.T1powerUpInitPWM:000000000000011c .L0 
/var/folders/rt/4gvqv631095f64jvm7jfj_000000gn/T//ccfoHY0O.s:179    .text.T1powerUpInitPWM:000000000000011e .L0 
/var/folders/rt/4gvqv631095f64jvm7jfj_000000gn/T//ccfoHY0O.s:186    .text.T1powerUpInitPWM:000000000000012e .L0 
/var/folders/rt/4gvqv631095f64jvm7jfj_000000gn/T//ccfoHY0O.s:187    .text.T1powerUpInitPWM:000000000000012e .L0 
/var/folders/rt/4gvqv631095f64jvm7jfj_000000gn/T//ccfoHY0O.s:189    .text.T1powerUpInitPWM:0000000000000130 .L0 
/var/folders/rt/4gvqv631095f64jvm7jfj_000000gn/T//ccfoHY0O.s:196    .text.T1powerUpInitPWM:0000000000000140 .L0 
/var/folders/rt/4gvqv631095f64jvm7jfj_000000gn/T//ccfoHY0O.s:197    .text.T1powerUpInitPWM:0000000000000140 .L0 
/var/folders/rt/4gvqv631095f64jvm7jfj_000000gn/T//ccfoHY0O.s:199    .text.T1powerUpInitPWM:0000000000000144 .L0 
/var/folders/rt/4gvqv631095f64jvm7jfj_000000gn/T//ccfoHY0O.s:206    .text.T1powerUpInitPWM:0000000000000158 .L0 
/var/folders/rt/4gvqv631095f64jvm7jfj_000000gn/T//ccfoHY0O.s:212    .text.T1powerUpInitPWM:000000000000016a .L0 
/var/folders/rt/4gvqv631095f64jvm7jfj_000000gn/T//ccfoHY0O.s:219    .text.T1powerUpInitPWM:000000000000017a .L0 
/var/folders/rt/4gvqv631095f64jvm7jfj_000000gn/T//ccfoHY0O.s:220    .text.T1powerUpInitPWM:000000000000017a .L0 
/var/folders/rt/4gvqv631095f64jvm7jfj_000000gn/T//ccfoHY0O.s:222    .text.T1powerUpInitPWM:000000000000017e .L0 
/var/folders/rt/4gvqv631095f64jvm7jfj_000000gn/T//ccfoHY0O.s:229    .text.T1powerUpInitPWM:0000000000000192 .L0 
/var/folders/rt/4gvqv631095f64jvm7jfj_000000gn/T//ccfoHY0O.s:235    .text.T1powerUpInitPWM:00000000000001a4 .L0 
/var/folders/rt/4gvqv631095f64jvm7jfj_000000gn/T//ccfoHY0O.s:242    .text.T1powerUpInitPWM:00000000000001b4 .L0 
/var/folders/rt/4gvqv631095f64jvm7jfj_000000gn/T//ccfoHY0O.s:243    .text.T1powerUpInitPWM:00000000000001b4 .L0 
/var/folders/rt/4gvqv631095f64jvm7jfj_000000gn/T//ccfoHY0O.s:245    .text.T1powerUpInitPWM:00000000000001b6 .L0 
/var/folders/rt/4gvqv631095f64jvm7jfj_000000gn/T//ccfoHY0O.s:252    .text.T1powerUpInitPWM:00000000000001ca .L0 
/var/folders/rt/4gvqv631095f64jvm7jfj_000000gn/T//ccfoHY0O.s:258    .text.T1powerUpInitPWM:00000000000001dc .L0 
/var/folders/rt/4gvqv631095f64jvm7jfj_000000gn/T//ccfoHY0O.s:265    .text.T1powerUpInitPWM:00000000000001ec .L0 
/var/folders/rt/4gvqv631095f64jvm7jfj_000000gn/T//ccfoHY0O.s:266    .text.T1powerUpInitPWM:00000000000001ec .L0 
/var/folders/rt/4gvqv631095f64jvm7jfj_000000gn/T//ccfoHY0O.s:268    .text.T1powerUpInitPWM:00000000000001ee .L0 
/var/folders/rt/4gvqv631095f64jvm7jfj_000000gn/T//ccfoHY0O.s:275    .text.T1powerUpInitPWM:0000000000000202 .L0 
/var/folders/rt/4gvqv631095f64jvm7jfj_000000gn/T//ccfoHY0O.s:281    .text.T1powerUpInitPWM:0000000000000214 .L0 
/var/folders/rt/4gvqv631095f64jvm7jfj_000000gn/T//ccfoHY0O.s:288    .text.T1powerUpInitPWM:0000000000000224 .L0 
/var/folders/rt/4gvqv631095f64jvm7jfj_000000gn/T//ccfoHY0O.s:292    .text.T1powerUpInitPWM:0000000000000230 .L0 
/var/folders/rt/4gvqv631095f64jvm7jfj_000000gn/T//ccfoHY0O.s:296    .text.T1powerUpInitPWM:000000000000023c .L0 
/var/folders/rt/4gvqv631095f64jvm7jfj_000000gn/T//ccfoHY0O.s:297    .text.T1powerUpInitPWM:000000000000023e .L0 
/var/folders/rt/4gvqv631095f64jvm7jfj_000000gn/T//ccfoHY0O.s:299    .text.T1powerUpInitPWM:0000000000000240 .L0 
/var/folders/rt/4gvqv631095f64jvm7jfj_000000gn/T//ccfoHY0O.s:301    .text.T1powerUpInitPWM:0000000000000242 .L0 
/var/folders/rt/4gvqv631095f64jvm7jfj_000000gn/T//ccfoHY0O.s:303    .text.T1powerUpInitPWM:0000000000000244 .L0 
/var/folders/rt/4gvqv631095f64jvm7jfj_000000gn/T//ccfoHY0O.s:305    .text.T1powerUpInitPWM:0000000000000246 .L0 
/var/folders/rt/4gvqv631095f64jvm7jfj_000000gn/T//ccfoHY0O.s:308    .text.T1powerUpInitPWM:0000000000000248 .L0 
/var/folders/rt/4gvqv631095f64jvm7jfj_000000gn/T//ccfoHY0O.s:310    .text.T1powerUpInitPWM:000000000000024a .L0 
/var/folders/rt/4gvqv631095f64jvm7jfj_000000gn/T//ccfoHY0O.s:317    .text.T1setPWMch2:0000000000000000 T1setPWMch2
/var/folders/rt/4gvqv631095f64jvm7jfj_000000gn/T//ccfoHY0O.s:320    .text.T1setPWMch2:0000000000000000 .L0 
/var/folders/rt/4gvqv631095f64jvm7jfj_000000gn/T//ccfoHY0O.s:322    .text.T1setPWMch2:0000000000000000 .L0 
/var/folders/rt/4gvqv631095f64jvm7jfj_000000gn/T//ccfoHY0O.s:323    .text.T1setPWMch2:0000000000000000 .L0 
/var/folders/rt/4gvqv631095f64jvm7jfj_000000gn/T//ccfoHY0O.s:329    .text.T1setPWMch2:0000000000000010 .L0 
/var/folders/rt/4gvqv631095f64jvm7jfj_000000gn/T//ccfoHY0O.s:336    .text.T1setPWMch0:0000000000000000 T1setPWMch0
/var/folders/rt/4gvqv631095f64jvm7jfj_000000gn/T//ccfoHY0O.s:339    .text.T1setPWMch0:0000000000000000 .L0 
/var/folders/rt/4gvqv631095f64jvm7jfj_000000gn/T//ccfoHY0O.s:341    .text.T1setPWMch0:0000000000000000 .L0 
/var/folders/rt/4gvqv631095f64jvm7jfj_000000gn/T//ccfoHY0O.s:342    .text.T1setPWMch0:0000000000000000 .L0 
/var/folders/rt/4gvqv631095f64jvm7jfj_000000gn/T//ccfoHY0O.s:348    .text.T1setPWMch0:0000000000000010 .L0 
/var/folders/rt/4gvqv631095f64jvm7jfj_000000gn/T//ccfoHY0O.s:359    .text.T1setPWMmotorB:0000000000000000 T1setPWMmotorB
/var/folders/rt/4gvqv631095f64jvm7jfj_000000gn/T//ccfoHY0O.s:362    .text.T1setPWMmotorB:0000000000000000 .L0 
/var/folders/rt/4gvqv631095f64jvm7jfj_000000gn/T//ccfoHY0O.s:364    .text.T1setPWMmotorB:0000000000000000 .L0 
/var/folders/rt/4gvqv631095f64jvm7jfj_000000gn/T//ccfoHY0O.s:365    .text.T1setPWMmotorB:0000000000000000 .L0 
GAS LISTING /var/folders/rt/4gvqv631095f64jvm7jfj_000000gn/T//ccfoHY0O.s 			page 14


/var/folders/rt/4gvqv631095f64jvm7jfj_000000gn/T//ccfoHY0O.s:366    .text.T1setPWMmotorB:0000000000000000 .L0 
/var/folders/rt/4gvqv631095f64jvm7jfj_000000gn/T//ccfoHY0O.s:368    .text.T1setPWMmotorB:0000000000000002 .L0 
/var/folders/rt/4gvqv631095f64jvm7jfj_000000gn/T//ccfoHY0O.s:373    .text.T1setPWMmotorB:000000000000000a .L0 
/var/folders/rt/4gvqv631095f64jvm7jfj_000000gn/T//ccfoHY0O.s:374    .text.T1setPWMmotorB:000000000000000a .L0 
/var/folders/rt/4gvqv631095f64jvm7jfj_000000gn/T//ccfoHY0O.s:375    .text.T1setPWMmotorB:000000000000000a .L0 
/var/folders/rt/4gvqv631095f64jvm7jfj_000000gn/T//ccfoHY0O.s:376    .text.T1setPWMmotorB:000000000000000a .L0 
/var/folders/rt/4gvqv631095f64jvm7jfj_000000gn/T//ccfoHY0O.s:380    .text.T1setPWMmotorB:0000000000000012 .L0 
/var/folders/rt/4gvqv631095f64jvm7jfj_000000gn/T//ccfoHY0O.s:382    .text.T1setPWMmotorB:0000000000000016 .L0 
/var/folders/rt/4gvqv631095f64jvm7jfj_000000gn/T//ccfoHY0O.s:383    .text.T1setPWMmotorB:0000000000000016 .L0 
/var/folders/rt/4gvqv631095f64jvm7jfj_000000gn/T//ccfoHY0O.s:390    .text.T1setPWMmotorB:000000000000002e .L0 
/var/folders/rt/4gvqv631095f64jvm7jfj_000000gn/T//ccfoHY0O.s:395    .text.T1setPWMmotorB:000000000000003e .L0 
/var/folders/rt/4gvqv631095f64jvm7jfj_000000gn/T//ccfoHY0O.s:403    .text.T1setPWMmotorB:0000000000000056 .L0 
/var/folders/rt/4gvqv631095f64jvm7jfj_000000gn/T//ccfoHY0O.s:406    .text.T1setPWMmotorB:0000000000000058 .L0 
/var/folders/rt/4gvqv631095f64jvm7jfj_000000gn/T//ccfoHY0O.s:407    .text.T1setPWMmotorB:000000000000005a .L0 
/var/folders/rt/4gvqv631095f64jvm7jfj_000000gn/T//ccfoHY0O.s:408    .text.T1setPWMmotorB:000000000000005a .L0 
/var/folders/rt/4gvqv631095f64jvm7jfj_000000gn/T//ccfoHY0O.s:410    .text.T1setPWMmotorB:000000000000005c .L0 
/var/folders/rt/4gvqv631095f64jvm7jfj_000000gn/T//ccfoHY0O.s:412    .text.T1setPWMmotorB:000000000000005e .L0 
/var/folders/rt/4gvqv631095f64jvm7jfj_000000gn/T//ccfoHY0O.s:414    .text.T1setPWMmotorB:0000000000000060 .L0 
/var/folders/rt/4gvqv631095f64jvm7jfj_000000gn/T//ccfoHY0O.s:416    .text.T1setPWMmotorB:0000000000000060 .L0 
/var/folders/rt/4gvqv631095f64jvm7jfj_000000gn/T//ccfoHY0O.s:418    .text.T1setPWMmotorB:0000000000000062 .L0 
/var/folders/rt/4gvqv631095f64jvm7jfj_000000gn/T//ccfoHY0O.s:419    .text.T1setPWMmotorB:0000000000000062 .L0 
/var/folders/rt/4gvqv631095f64jvm7jfj_000000gn/T//ccfoHY0O.s:421    .text.T1setPWMmotorB:0000000000000066 .L0 
/var/folders/rt/4gvqv631095f64jvm7jfj_000000gn/T//ccfoHY0O.s:423    .text.T1setPWMmotorB:0000000000000068 .L0 
/var/folders/rt/4gvqv631095f64jvm7jfj_000000gn/T//ccfoHY0O.s:425    .text.T1setPWMmotorB:0000000000000068 .L0 
/var/folders/rt/4gvqv631095f64jvm7jfj_000000gn/T//ccfoHY0O.s:429    .text.T1setPWMmotorB:0000000000000070 .L0 
/var/folders/rt/4gvqv631095f64jvm7jfj_000000gn/T//ccfoHY0O.s:431    .text.T1setPWMmotorB:0000000000000070 .L0 
/var/folders/rt/4gvqv631095f64jvm7jfj_000000gn/T//ccfoHY0O.s:434    .text.T1setPWMmotorB:0000000000000074 .L0 
/var/folders/rt/4gvqv631095f64jvm7jfj_000000gn/T//ccfoHY0O.s:440    .text.T1setPWMmotorB:0000000000000082 .L0 
/var/folders/rt/4gvqv631095f64jvm7jfj_000000gn/T//ccfoHY0O.s:441    .text.T1setPWMmotorB:0000000000000082 .L0 
/var/folders/rt/4gvqv631095f64jvm7jfj_000000gn/T//ccfoHY0O.s:449    .text.T1setPWMmotorB:000000000000009e .L0 
/var/folders/rt/4gvqv631095f64jvm7jfj_000000gn/T//ccfoHY0O.s:454    .text.T1setPWMmotorB:00000000000000ae .L0 
/var/folders/rt/4gvqv631095f64jvm7jfj_000000gn/T//ccfoHY0O.s:458    .text.T1setPWMmotorB:00000000000000ba .L0 
/var/folders/rt/4gvqv631095f64jvm7jfj_000000gn/T//ccfoHY0O.s:313    .text.T1powerUpInitPWM:000000000000024a .L0 
/var/folders/rt/4gvqv631095f64jvm7jfj_000000gn/T//ccfoHY0O.s:332    .text.T1setPWMch2:0000000000000010 .L0 
/var/folders/rt/4gvqv631095f64jvm7jfj_000000gn/T//ccfoHY0O.s:355    .text.T1setPWMch0:0000000000000010 .L0 
/var/folders/rt/4gvqv631095f64jvm7jfj_000000gn/T//ccfoHY0O.s:461    .text.T1setPWMmotorB:00000000000000ba .L0 
                     .debug_frame:0000000000000000 .L0 
/var/folders/rt/4gvqv631095f64jvm7jfj_000000gn/T//ccfoHY0O.s:60     .text.T1powerUpInitPWM:0000000000000044 .L2
/var/folders/rt/4gvqv631095f64jvm7jfj_000000gn/T//ccfoHY0O.s:73     .text.T1powerUpInitPWM:0000000000000062 .L3
/var/folders/rt/4gvqv631095f64jvm7jfj_000000gn/T//ccfoHY0O.s:86     .text.T1powerUpInitPWM:000000000000007e .L4
/var/folders/rt/4gvqv631095f64jvm7jfj_000000gn/T//ccfoHY0O.s:99     .text.T1powerUpInitPWM:0000000000000098 .L5
/var/folders/rt/4gvqv631095f64jvm7jfj_000000gn/T//ccfoHY0O.s:164    .text.T1powerUpInitPWM:0000000000000108 .L6
/var/folders/rt/4gvqv631095f64jvm7jfj_000000gn/T//ccfoHY0O.s:174    .text.T1powerUpInitPWM:000000000000011c .L7
/var/folders/rt/4gvqv631095f64jvm7jfj_000000gn/T//ccfoHY0O.s:184    .text.T1powerUpInitPWM:000000000000012e .L8
/var/folders/rt/4gvqv631095f64jvm7jfj_000000gn/T//ccfoHY0O.s:194    .text.T1powerUpInitPWM:0000000000000140 .L9
/var/folders/rt/4gvqv631095f64jvm7jfj_000000gn/T//ccfoHY0O.s:217    .text.T1powerUpInitPWM:000000000000017a .L10
/var/folders/rt/4gvqv631095f64jvm7jfj_000000gn/T//ccfoHY0O.s:240    .text.T1powerUpInitPWM:00000000000001b4 .L11
/var/folders/rt/4gvqv631095f64jvm7jfj_000000gn/T//ccfoHY0O.s:263    .text.T1powerUpInitPWM:00000000000001ec .L12
/var/folders/rt/4gvqv631095f64jvm7jfj_000000gn/T//ccfoHY0O.s:286    .text.T1powerUpInitPWM:0000000000000224 .L13
/var/folders/rt/4gvqv631095f64jvm7jfj_000000gn/T//ccfoHY0O.s:463    .rodata.T1setPWMmotorB.cst8:0000000000000000 .LC0
/var/folders/rt/4gvqv631095f64jvm7jfj_000000gn/T//ccfoHY0O.s:466    .rodata.T1setPWMmotorB.cst8:0000000000000008 .LC1
/var/folders/rt/4gvqv631095f64jvm7jfj_000000gn/T//ccfoHY0O.s:427    .text.T1setPWMmotorB:0000000000000070 .L54
/var/folders/rt/4gvqv631095f64jvm7jfj_000000gn/T//ccfoHY0O.s:404    .text.T1setPWMmotorB:0000000000000058 .L56
/var/folders/rt/4gvqv631095f64jvm7jfj_000000gn/T//ccfoHY0O.s:1714   .debug_abbrev:0000000000000000 .Ldebug_abbrev0
/var/folders/rt/4gvqv631095f64jvm7jfj_000000gn/T//ccfoHY0O.s:2252   .debug_str:0000000000000000 .LASF87
/var/folders/rt/4gvqv631095f64jvm7jfj_000000gn/T//ccfoHY0O.s:2284   .debug_str:0000000000000183 .LASF88
/var/folders/rt/4gvqv631095f64jvm7jfj_000000gn/T//ccfoHY0O.s:2270   .debug_str:00000000000000dc .LASF89
GAS LISTING /var/folders/rt/4gvqv631095f64jvm7jfj_000000gn/T//ccfoHY0O.s 			page 15


/var/folders/rt/4gvqv631095f64jvm7jfj_000000gn/T//ccfoHY0O.s:2238   .debug_ranges:0000000000000000 .Ldebug_ranges0
/var/folders/rt/4gvqv631095f64jvm7jfj_000000gn/T//ccfoHY0O.s:2250   .debug_line:0000000000000000 .Ldebug_line0
/var/folders/rt/4gvqv631095f64jvm7jfj_000000gn/T//ccfoHY0O.s:2356   .debug_str:000000000000034e .LASF0
/var/folders/rt/4gvqv631095f64jvm7jfj_000000gn/T//ccfoHY0O.s:2350   .debug_str:0000000000000322 .LASF1
/var/folders/rt/4gvqv631095f64jvm7jfj_000000gn/T//ccfoHY0O.s:2432   .debug_str:0000000000000560 .LASF4
/var/folders/rt/4gvqv631095f64jvm7jfj_000000gn/T//ccfoHY0O.s:2340   .debug_str:00000000000002e2 .LASF2
/var/folders/rt/4gvqv631095f64jvm7jfj_000000gn/T//ccfoHY0O.s:2318   .debug_str:0000000000000234 .LASF3
/var/folders/rt/4gvqv631095f64jvm7jfj_000000gn/T//ccfoHY0O.s:2274   .debug_str:0000000000000127 .LASF5
/var/folders/rt/4gvqv631095f64jvm7jfj_000000gn/T//ccfoHY0O.s:2366   .debug_str:0000000000000390 .LASF6
/var/folders/rt/4gvqv631095f64jvm7jfj_000000gn/T//ccfoHY0O.s:2306   .debug_str:00000000000001f7 .LASF7
/var/folders/rt/4gvqv631095f64jvm7jfj_000000gn/T//ccfoHY0O.s:2268   .debug_str:00000000000000d1 .LASF8
/var/folders/rt/4gvqv631095f64jvm7jfj_000000gn/T//ccfoHY0O.s:2388   .debug_str:0000000000000427 .LASF9
/var/folders/rt/4gvqv631095f64jvm7jfj_000000gn/T//ccfoHY0O.s:2266   .debug_str:00000000000000c3 .LASF10
/var/folders/rt/4gvqv631095f64jvm7jfj_000000gn/T//ccfoHY0O.s:2352   .debug_str:000000000000032e .LASF11
/var/folders/rt/4gvqv631095f64jvm7jfj_000000gn/T//ccfoHY0O.s:2288   .debug_str:0000000000000198 .LASF12
/var/folders/rt/4gvqv631095f64jvm7jfj_000000gn/T//ccfoHY0O.s:2358   .debug_str:000000000000035b .LASF13
/var/folders/rt/4gvqv631095f64jvm7jfj_000000gn/T//ccfoHY0O.s:2354   .debug_str:0000000000000345 .LASF14
/var/folders/rt/4gvqv631095f64jvm7jfj_000000gn/T//ccfoHY0O.s:2380   .debug_str:0000000000000400 .LASF90
/var/folders/rt/4gvqv631095f64jvm7jfj_000000gn/T//ccfoHY0O.s:2290   .debug_str:00000000000001a0 .LASF15
/var/folders/rt/4gvqv631095f64jvm7jfj_000000gn/T//ccfoHY0O.s:2382   .debug_str:0000000000000410 .LASF16
/var/folders/rt/4gvqv631095f64jvm7jfj_000000gn/T//ccfoHY0O.s:2426   .debug_str:000000000000052f .LASF17
/var/folders/rt/4gvqv631095f64jvm7jfj_000000gn/T//ccfoHY0O.s:2422   .debug_str:000000000000051a .LASF18
/var/folders/rt/4gvqv631095f64jvm7jfj_000000gn/T//ccfoHY0O.s:2402   .debug_str:000000000000047e .LASF19
/var/folders/rt/4gvqv631095f64jvm7jfj_000000gn/T//ccfoHY0O.s:2324   .debug_str:0000000000000271 .LASF20
/var/folders/rt/4gvqv631095f64jvm7jfj_000000gn/T//ccfoHY0O.s:2326   .debug_str:000000000000027c .LASF21
/var/folders/rt/4gvqv631095f64jvm7jfj_000000gn/T//ccfoHY0O.s:2328   .debug_str:0000000000000287 .LASF22
/var/folders/rt/4gvqv631095f64jvm7jfj_000000gn/T//ccfoHY0O.s:2330   .debug_str:0000000000000292 .LASF23
/var/folders/rt/4gvqv631095f64jvm7jfj_000000gn/T//ccfoHY0O.s:2332   .debug_str:000000000000029d .LASF24
/var/folders/rt/4gvqv631095f64jvm7jfj_000000gn/T//ccfoHY0O.s:2334   .debug_str:00000000000002a8 .LASF25
/var/folders/rt/4gvqv631095f64jvm7jfj_000000gn/T//ccfoHY0O.s:2300   .debug_str:00000000000001d3 .LASF26
/var/folders/rt/4gvqv631095f64jvm7jfj_000000gn/T//ccfoHY0O.s:2310   .debug_str:0000000000000209 .LASF27
/var/folders/rt/4gvqv631095f64jvm7jfj_000000gn/T//ccfoHY0O.s:2312   .debug_str:0000000000000212 .LASF28
/var/folders/rt/4gvqv631095f64jvm7jfj_000000gn/T//ccfoHY0O.s:2398   .debug_str:0000000000000468 .LASF29
/var/folders/rt/4gvqv631095f64jvm7jfj_000000gn/T//ccfoHY0O.s:2400   .debug_str:0000000000000473 .LASF30
/var/folders/rt/4gvqv631095f64jvm7jfj_000000gn/T//ccfoHY0O.s:2404   .debug_str:0000000000000488 .LASF31
/var/folders/rt/4gvqv631095f64jvm7jfj_000000gn/T//ccfoHY0O.s:2406   .debug_str:0000000000000492 .LASF32
/var/folders/rt/4gvqv631095f64jvm7jfj_000000gn/T//ccfoHY0O.s:2372   .debug_str:00000000000003d4 .LASF33
/var/folders/rt/4gvqv631095f64jvm7jfj_000000gn/T//ccfoHY0O.s:2374   .debug_str:00000000000003dd .LASF34
/var/folders/rt/4gvqv631095f64jvm7jfj_000000gn/T//ccfoHY0O.s:2296   .debug_str:00000000000001c1 .LASF35
/var/folders/rt/4gvqv631095f64jvm7jfj_000000gn/T//ccfoHY0O.s:2298   .debug_str:00000000000001ca .LASF36
/var/folders/rt/4gvqv631095f64jvm7jfj_000000gn/T//ccfoHY0O.s:2348   .debug_str:0000000000000319 .LASF37
/var/folders/rt/4gvqv631095f64jvm7jfj_000000gn/T//ccfoHY0O.s:2346   .debug_str:0000000000000311 .LASF38
/var/folders/rt/4gvqv631095f64jvm7jfj_000000gn/T//ccfoHY0O.s:2428   .debug_str:0000000000000537 .LASF39
/var/folders/rt/4gvqv631095f64jvm7jfj_000000gn/T//ccfoHY0O.s:2272   .debug_str:000000000000011f .LASF40
/var/folders/rt/4gvqv631095f64jvm7jfj_000000gn/T//ccfoHY0O.s:2386   .debug_str:0000000000000420 .LASF41
/var/folders/rt/4gvqv631095f64jvm7jfj_000000gn/T//ccfoHY0O.s:2254   .debug_str:0000000000000088 .LASF42
/var/folders/rt/4gvqv631095f64jvm7jfj_000000gn/T//ccfoHY0O.s:2256   .debug_str:0000000000000092 .LASF43
/var/folders/rt/4gvqv631095f64jvm7jfj_000000gn/T//ccfoHY0O.s:2258   .debug_str:000000000000009c .LASF44
/var/folders/rt/4gvqv631095f64jvm7jfj_000000gn/T//ccfoHY0O.s:2260   .debug_str:00000000000000a6 .LASF45
/var/folders/rt/4gvqv631095f64jvm7jfj_000000gn/T//ccfoHY0O.s:2262   .debug_str:00000000000000b0 .LASF46
/var/folders/rt/4gvqv631095f64jvm7jfj_000000gn/T//ccfoHY0O.s:2344   .debug_str:0000000000000308 .LASF47
/var/folders/rt/4gvqv631095f64jvm7jfj_000000gn/T//ccfoHY0O.s:2378   .debug_str:00000000000003f7 .LASF48
/var/folders/rt/4gvqv631095f64jvm7jfj_000000gn/T//ccfoHY0O.s:2322   .debug_str:0000000000000266 .LASF49
/var/folders/rt/4gvqv631095f64jvm7jfj_000000gn/T//ccfoHY0O.s:2308   .debug_str:0000000000000200 .LASF50
/var/folders/rt/4gvqv631095f64jvm7jfj_000000gn/T//ccfoHY0O.s:2396   .debug_str:000000000000045d .LASF51
/var/folders/rt/4gvqv631095f64jvm7jfj_000000gn/T//ccfoHY0O.s:2362   .debug_str:0000000000000375 .LASF52
/var/folders/rt/4gvqv631095f64jvm7jfj_000000gn/T//ccfoHY0O.s:2314   .debug_str:000000000000021b .LASF53
GAS LISTING /var/folders/rt/4gvqv631095f64jvm7jfj_000000gn/T//ccfoHY0O.s 			page 16


/var/folders/rt/4gvqv631095f64jvm7jfj_000000gn/T//ccfoHY0O.s:2376   .debug_str:00000000000003e6 .LASF54
/var/folders/rt/4gvqv631095f64jvm7jfj_000000gn/T//ccfoHY0O.s:2384   .debug_str:0000000000000419 .LASF55
/var/folders/rt/4gvqv631095f64jvm7jfj_000000gn/T//ccfoHY0O.s:2280   .debug_str:000000000000016f .LASF56
/var/folders/rt/4gvqv631095f64jvm7jfj_000000gn/T//ccfoHY0O.s:2408   .debug_str:000000000000049c .LASF57
/var/folders/rt/4gvqv631095f64jvm7jfj_000000gn/T//ccfoHY0O.s:2278   .debug_str:0000000000000158 .LASF58
/var/folders/rt/4gvqv631095f64jvm7jfj_000000gn/T//ccfoHY0O.s:2294   .debug_str:00000000000001b5 .LASF59
/var/folders/rt/4gvqv631095f64jvm7jfj_000000gn/T//ccfoHY0O.s:2394   .debug_str:0000000000000450 .LASF60
/var/folders/rt/4gvqv631095f64jvm7jfj_000000gn/T//ccfoHY0O.s:2412   .debug_str:00000000000004ce .LASF61
/var/folders/rt/4gvqv631095f64jvm7jfj_000000gn/T//ccfoHY0O.s:2424   .debug_str:0000000000000523 .LASF62
/var/folders/rt/4gvqv631095f64jvm7jfj_000000gn/T//ccfoHY0O.s:2292   .debug_str:00000000000001a9 .LASF63
/var/folders/rt/4gvqv631095f64jvm7jfj_000000gn/T//ccfoHY0O.s:2390   .debug_str:0000000000000439 .LASF64
/var/folders/rt/4gvqv631095f64jvm7jfj_000000gn/T//ccfoHY0O.s:2370   .debug_str:00000000000003ba .LASF65
/var/folders/rt/4gvqv631095f64jvm7jfj_000000gn/T//ccfoHY0O.s:2336   .debug_str:00000000000002b3 .LASF66
/var/folders/rt/4gvqv631095f64jvm7jfj_000000gn/T//ccfoHY0O.s:2302   .debug_str:00000000000001dd .LASF67
/var/folders/rt/4gvqv631095f64jvm7jfj_000000gn/T//ccfoHY0O.s:360    .text.T1setPWMmotorB:0000000000000000 .LFB5
/var/folders/rt/4gvqv631095f64jvm7jfj_000000gn/T//ccfoHY0O.s:459    .text.T1setPWMmotorB:00000000000000ba .LFE5
/var/folders/rt/4gvqv631095f64jvm7jfj_000000gn/T//ccfoHY0O.s:2106   .debug_loc:0000000000000000 .LLST4
/var/folders/rt/4gvqv631095f64jvm7jfj_000000gn/T//ccfoHY0O.s:2264   .debug_str:00000000000000ba .LASF69
/var/folders/rt/4gvqv631095f64jvm7jfj_000000gn/T//ccfoHY0O.s:2129   .debug_loc:0000000000000038 .LLST5
/var/folders/rt/4gvqv631095f64jvm7jfj_000000gn/T//ccfoHY0O.s:401    .text.T1setPWMmotorB:0000000000000056 .LVL42
/var/folders/rt/4gvqv631095f64jvm7jfj_000000gn/T//ccfoHY0O.s:426    .text.T1setPWMmotorB:0000000000000070 .LVL43
/var/folders/rt/4gvqv631095f64jvm7jfj_000000gn/T//ccfoHY0O.s:438    .text.T1setPWMmotorB:0000000000000082 .LVL45
/var/folders/rt/4gvqv631095f64jvm7jfj_000000gn/T//ccfoHY0O.s:2416   .debug_str:00000000000004f5 .LASF68
/var/folders/rt/4gvqv631095f64jvm7jfj_000000gn/T//ccfoHY0O.s:337    .text.T1setPWMch0:0000000000000000 .LFB4
/var/folders/rt/4gvqv631095f64jvm7jfj_000000gn/T//ccfoHY0O.s:349    .text.T1setPWMch0:0000000000000010 .LFE4
/var/folders/rt/4gvqv631095f64jvm7jfj_000000gn/T//ccfoHY0O.s:2282   .debug_str:000000000000017d .LASF70
/var/folders/rt/4gvqv631095f64jvm7jfj_000000gn/T//ccfoHY0O.s:2151   .debug_loc:000000000000006f .LLST3
/var/folders/rt/4gvqv631095f64jvm7jfj_000000gn/T//ccfoHY0O.s:347    .text.T1setPWMch0:0000000000000010 .LVL36
/var/folders/rt/4gvqv631095f64jvm7jfj_000000gn/T//ccfoHY0O.s:2418   .debug_str:0000000000000501 .LASF71
/var/folders/rt/4gvqv631095f64jvm7jfj_000000gn/T//ccfoHY0O.s:318    .text.T1setPWMch2:0000000000000000 .LFB3
/var/folders/rt/4gvqv631095f64jvm7jfj_000000gn/T//ccfoHY0O.s:330    .text.T1setPWMch2:0000000000000010 .LFE3
/var/folders/rt/4gvqv631095f64jvm7jfj_000000gn/T//ccfoHY0O.s:2169   .debug_loc:000000000000009b .LLST2
/var/folders/rt/4gvqv631095f64jvm7jfj_000000gn/T//ccfoHY0O.s:328    .text.T1setPWMch2:0000000000000010 .LVL33
/var/folders/rt/4gvqv631095f64jvm7jfj_000000gn/T//ccfoHY0O.s:2364   .debug_str:000000000000037f .LASF72
/var/folders/rt/4gvqv631095f64jvm7jfj_000000gn/T//ccfoHY0O.s:14     .text.T1powerUpInitPWM:0000000000000000 .LFB2
/var/folders/rt/4gvqv631095f64jvm7jfj_000000gn/T//ccfoHY0O.s:311    .text.T1powerUpInitPWM:000000000000024a .LFE2
/var/folders/rt/4gvqv631095f64jvm7jfj_000000gn/T//ccfoHY0O.s:2187   .debug_loc:00000000000000c7 .LLST0
/var/folders/rt/4gvqv631095f64jvm7jfj_000000gn/T//ccfoHY0O.s:2205   .debug_loc:00000000000000f4 .LLST1
/var/folders/rt/4gvqv631095f64jvm7jfj_000000gn/T//ccfoHY0O.s:2360   .debug_str:0000000000000364 .LASF73
/var/folders/rt/4gvqv631095f64jvm7jfj_000000gn/T//ccfoHY0O.s:2286   .debug_str:0000000000000189 .LASF74
/var/folders/rt/4gvqv631095f64jvm7jfj_000000gn/T//ccfoHY0O.s:43     .text.T1powerUpInitPWM:000000000000001a .LVL2
/var/folders/rt/4gvqv631095f64jvm7jfj_000000gn/T//ccfoHY0O.s:48     .text.T1powerUpInitPWM:000000000000002a .LVL3
/var/folders/rt/4gvqv631095f64jvm7jfj_000000gn/T//ccfoHY0O.s:59     .text.T1powerUpInitPWM:0000000000000044 .LVL4
/var/folders/rt/4gvqv631095f64jvm7jfj_000000gn/T//ccfoHY0O.s:72     .text.T1powerUpInitPWM:0000000000000062 .LVL5
/var/folders/rt/4gvqv631095f64jvm7jfj_000000gn/T//ccfoHY0O.s:85     .text.T1powerUpInitPWM:000000000000007e .LVL6
/var/folders/rt/4gvqv631095f64jvm7jfj_000000gn/T//ccfoHY0O.s:98     .text.T1powerUpInitPWM:0000000000000098 .LVL7
/var/folders/rt/4gvqv631095f64jvm7jfj_000000gn/T//ccfoHY0O.s:103    .text.T1powerUpInitPWM:00000000000000a4 .LVL8
/var/folders/rt/4gvqv631095f64jvm7jfj_000000gn/T//ccfoHY0O.s:107    .text.T1powerUpInitPWM:00000000000000b0 .LVL9
/var/folders/rt/4gvqv631095f64jvm7jfj_000000gn/T//ccfoHY0O.s:111    .text.T1powerUpInitPWM:00000000000000ba .LVL10
/var/folders/rt/4gvqv631095f64jvm7jfj_000000gn/T//ccfoHY0O.s:137    .text.T1powerUpInitPWM:00000000000000e2 .LVL11
/var/folders/rt/4gvqv631095f64jvm7jfj_000000gn/T//ccfoHY0O.s:141    .text.T1powerUpInitPWM:00000000000000ec .LVL12
/var/folders/rt/4gvqv631095f64jvm7jfj_000000gn/T//ccfoHY0O.s:163    .text.T1powerUpInitPWM:0000000000000108 .LVL13
/var/folders/rt/4gvqv631095f64jvm7jfj_000000gn/T//ccfoHY0O.s:173    .text.T1powerUpInitPWM:000000000000011c .LVL14
/var/folders/rt/4gvqv631095f64jvm7jfj_000000gn/T//ccfoHY0O.s:183    .text.T1powerUpInitPWM:000000000000012e .LVL15
/var/folders/rt/4gvqv631095f64jvm7jfj_000000gn/T//ccfoHY0O.s:193    .text.T1powerUpInitPWM:0000000000000140 .LVL16
/var/folders/rt/4gvqv631095f64jvm7jfj_000000gn/T//ccfoHY0O.s:204    .text.T1powerUpInitPWM:0000000000000158 .LVL17
/var/folders/rt/4gvqv631095f64jvm7jfj_000000gn/T//ccfoHY0O.s:210    .text.T1powerUpInitPWM:000000000000016a .LVL18
GAS LISTING /var/folders/rt/4gvqv631095f64jvm7jfj_000000gn/T//ccfoHY0O.s 			page 17


/var/folders/rt/4gvqv631095f64jvm7jfj_000000gn/T//ccfoHY0O.s:216    .text.T1powerUpInitPWM:000000000000017a .LVL19
/var/folders/rt/4gvqv631095f64jvm7jfj_000000gn/T//ccfoHY0O.s:227    .text.T1powerUpInitPWM:0000000000000192 .LVL20
/var/folders/rt/4gvqv631095f64jvm7jfj_000000gn/T//ccfoHY0O.s:233    .text.T1powerUpInitPWM:00000000000001a4 .LVL21
/var/folders/rt/4gvqv631095f64jvm7jfj_000000gn/T//ccfoHY0O.s:239    .text.T1powerUpInitPWM:00000000000001b4 .LVL22
/var/folders/rt/4gvqv631095f64jvm7jfj_000000gn/T//ccfoHY0O.s:250    .text.T1powerUpInitPWM:00000000000001ca .LVL23
/var/folders/rt/4gvqv631095f64jvm7jfj_000000gn/T//ccfoHY0O.s:256    .text.T1powerUpInitPWM:00000000000001dc .LVL24
/var/folders/rt/4gvqv631095f64jvm7jfj_000000gn/T//ccfoHY0O.s:262    .text.T1powerUpInitPWM:00000000000001ec .LVL25
/var/folders/rt/4gvqv631095f64jvm7jfj_000000gn/T//ccfoHY0O.s:273    .text.T1powerUpInitPWM:0000000000000202 .LVL26
/var/folders/rt/4gvqv631095f64jvm7jfj_000000gn/T//ccfoHY0O.s:279    .text.T1powerUpInitPWM:0000000000000214 .LVL27
/var/folders/rt/4gvqv631095f64jvm7jfj_000000gn/T//ccfoHY0O.s:285    .text.T1powerUpInitPWM:0000000000000224 .LVL28
/var/folders/rt/4gvqv631095f64jvm7jfj_000000gn/T//ccfoHY0O.s:290    .text.T1powerUpInitPWM:0000000000000230 .LVL29
/var/folders/rt/4gvqv631095f64jvm7jfj_000000gn/T//ccfoHY0O.s:294    .text.T1powerUpInitPWM:000000000000023c .LVL30
/var/folders/rt/4gvqv631095f64jvm7jfj_000000gn/T//ccfoHY0O.s:2320   .debug_str:000000000000023e .LASF75
/var/folders/rt/4gvqv631095f64jvm7jfj_000000gn/T//ccfoHY0O.s:2342   .debug_str:00000000000002f0 .LASF76
/var/folders/rt/4gvqv631095f64jvm7jfj_000000gn/T//ccfoHY0O.s:2392   .debug_str:0000000000000446 .LASF77
/var/folders/rt/4gvqv631095f64jvm7jfj_000000gn/T//ccfoHY0O.s:2420   .debug_str:000000000000050d .LASF78
/var/folders/rt/4gvqv631095f64jvm7jfj_000000gn/T//ccfoHY0O.s:2368   .debug_str:00000000000003a3 .LASF79
/var/folders/rt/4gvqv631095f64jvm7jfj_000000gn/T//ccfoHY0O.s:2304   .debug_str:00000000000001ec .LASF80
/var/folders/rt/4gvqv631095f64jvm7jfj_000000gn/T//ccfoHY0O.s:2276   .debug_str:0000000000000132 .LASF81
/var/folders/rt/4gvqv631095f64jvm7jfj_000000gn/T//ccfoHY0O.s:2414   .debug_str:00000000000004d9 .LASF82
/var/folders/rt/4gvqv631095f64jvm7jfj_000000gn/T//ccfoHY0O.s:2430   .debug_str:000000000000053f .LASF83
/var/folders/rt/4gvqv631095f64jvm7jfj_000000gn/T//ccfoHY0O.s:2338   .debug_str:00000000000002bf .LASF84
/var/folders/rt/4gvqv631095f64jvm7jfj_000000gn/T//ccfoHY0O.s:2410   .debug_str:00000000000004ae .LASF85
/var/folders/rt/4gvqv631095f64jvm7jfj_000000gn/T//ccfoHY0O.s:2316   .debug_str:0000000000000227 .LASF86
/var/folders/rt/4gvqv631095f64jvm7jfj_000000gn/T//ccfoHY0O.s:367    .text.T1setPWMmotorB:0000000000000002 .LCFI2
/var/folders/rt/4gvqv631095f64jvm7jfj_000000gn/T//ccfoHY0O.s:422    .text.T1setPWMmotorB:0000000000000068 .LCFI3
/var/folders/rt/4gvqv631095f64jvm7jfj_000000gn/T//ccfoHY0O.s:428    .text.T1setPWMmotorB:0000000000000070 .LCFI4
/var/folders/rt/4gvqv631095f64jvm7jfj_000000gn/T//ccfoHY0O.s:363    .text.T1setPWMmotorB:0000000000000000 .LVL37
/var/folders/rt/4gvqv631095f64jvm7jfj_000000gn/T//ccfoHY0O.s:384    .text.T1setPWMmotorB:000000000000001e .LVL38
/var/folders/rt/4gvqv631095f64jvm7jfj_000000gn/T//ccfoHY0O.s:436    .text.T1setPWMmotorB:000000000000007a .LVL44
/var/folders/rt/4gvqv631095f64jvm7jfj_000000gn/T//ccfoHY0O.s:340    .text.T1setPWMch0:0000000000000000 .LVL34
/var/folders/rt/4gvqv631095f64jvm7jfj_000000gn/T//ccfoHY0O.s:345    .text.T1setPWMch0:0000000000000008 .LVL35
/var/folders/rt/4gvqv631095f64jvm7jfj_000000gn/T//ccfoHY0O.s:321    .text.T1setPWMch2:0000000000000000 .LVL31
/var/folders/rt/4gvqv631095f64jvm7jfj_000000gn/T//ccfoHY0O.s:326    .text.T1setPWMch2:0000000000000008 .LVL32
/var/folders/rt/4gvqv631095f64jvm7jfj_000000gn/T//ccfoHY0O.s:24     .text.T1powerUpInitPWM:0000000000000002 .LCFI0
/var/folders/rt/4gvqv631095f64jvm7jfj_000000gn/T//ccfoHY0O.s:307    .text.T1powerUpInitPWM:0000000000000248 .LCFI1
/var/folders/rt/4gvqv631095f64jvm7jfj_000000gn/T//ccfoHY0O.s:18     .text.T1powerUpInitPWM:0000000000000000 .LVL0
/var/folders/rt/4gvqv631095f64jvm7jfj_000000gn/T//ccfoHY0O.s:31     .text.T1powerUpInitPWM:000000000000000a .LVL1
/var/folders/rt/4gvqv631095f64jvm7jfj_000000gn/T//ccfoHY0O.s:478    .debug_info:0000000000000000 .Ldebug_info0

UNDEFINED SYMBOLS
rcu_periph_clock_enable
gpio_init
timer_deinit
timer_struct_para_init
timer_init
timer_channel_output_struct_para_init
timer_channel_output_config
timer_channel_output_pulse_value_config
timer_channel_output_mode_config
timer_channel_output_shadow_config
timer_auto_reload_shadow_enable
timer_enable
__floatsidf
__divdf3
__muldf3
__fixunsdfsi
GAS LISTING /var/folders/rt/4gvqv631095f64jvm7jfj_000000gn/T//ccfoHY0O.s 			page 18


