GAS LISTING /var/folders/rt/4gvqv631095f64jvm7jfj_000000gn/T//ccirfROm.s 			page 1


   1              		.file	"renderPlants.c"
   2              		.option nopic
   3              		.attribute arch, "rv32i2p0_m2p0_a2p0_c2p0"
   4              		.attribute unaligned_access, 0
   5              		.attribute stack_align, 16
   6              		.text
   7              	.Ltext0:
   8              		.cfi_sections	.debug_frame
   9              		.section	.text.renderAllPlants,"ax",@progbits
  10              		.align	1
  11              		.globl	renderAllPlants
  13              	renderAllPlants:
  14              	.LFB3:
  15              		.file 1 "renderPlants.c"
   1:renderPlants.c **** // render methods av Alex. Blir eventuellt obsolete av Davids mer avancerade meny-renderare.
   2:renderPlants.c **** #include "lcd.h"
   3:renderPlants.c **** #include "plant.h"
   4:renderPlants.c **** #include <string.h>
   5:renderPlants.c **** #include "utilities.h"
   6:renderPlants.c **** #include "renderPlants.h"
   7:renderPlants.c **** 
   8:renderPlants.c **** void renderAllPlants(Plant allPlants[], int numberOfPlants)
   9:renderPlants.c **** {
  16              		.loc 1 9 1
  17              		.cfi_startproc
  18              	.LVL0:
  10:renderPlants.c ****   for (int i = 0; i < numberOfPlants; i++)
  19              		.loc 1 10 3
  20              	.LBB2:
  21              		.loc 1 10 8
  22              	.LBE2:
   9:renderPlants.c ****   for (int i = 0; i < numberOfPlants; i++)
  23              		.loc 1 9 1 is_stmt 0
  24 0000 7971     		addi	sp,sp,-48
  25              	.LCFI0:
  26              		.cfi_def_cfa_offset 48
  27 0002 26D2     		sw	s1,36(sp)
  28              		.cfi_offset 9, -12
  29              	.LBB3:
  11:renderPlants.c ****   {
  12:renderPlants.c ****     LCD_ShowStr(i * 55, 0, allPlants[i].name, WHITE, TRANSPARENT);
  30              		.loc 1 12 5
  31 0004 C164     		li	s1,65536
  32              	.LBE3:
   9:renderPlants.c ****   for (int i = 0; i < numberOfPlants; i++)
  33              		.loc 1 9 1
  34 0006 22D4     		sw	s0,40(sp)
  35 0008 4ECE     		sw	s3,28(sp)
  36 000a 52CC     		sw	s4,24(sp)
  37 000c 56CA     		sw	s5,20(sp)
  38 000e 5AC8     		sw	s6,16(sp)
  39 0010 06D6     		sw	ra,44(sp)
  40 0012 4AD0     		sw	s2,32(sp)
  41 0014 5EC6     		sw	s7,12(sp)
  42              		.cfi_offset 8, -8
  43              		.cfi_offset 19, -20
  44              		.cfi_offset 20, -24
GAS LISTING /var/folders/rt/4gvqv631095f64jvm7jfj_000000gn/T//ccirfROm.s 			page 2


  45              		.cfi_offset 21, -28
  46              		.cfi_offset 22, -32
  47              		.cfi_offset 1, -4
  48              		.cfi_offset 18, -16
  49              		.cfi_offset 23, -36
   9:renderPlants.c ****   for (int i = 0; i < numberOfPlants; i++)
  50              		.loc 1 9 1
  51 0016 AE8A     		mv	s5,a1
  52 0018 2A84     		mv	s0,a0
  53              	.LBB4:
  10:renderPlants.c ****   {
  54              		.loc 1 10 12
  55 001a 014A     		li	s4,0
  56 001c 130B7003 		li	s6,55
  57              		.loc 1 12 5
  58 0020 FD14     		addi	s1,s1,-1
  13:renderPlants.c ****     LCD_ShowNum(i * 55, 20, allPlants[i].moisture[allPlants[i].numberOfMoistureReadings - 1].readin
  14:renderPlants.c ****     LCD_ShowStr(i * 55 + 30, 20, "%", WHITE, TRANSPARENT);
  59              		.loc 1 14 5
  60 0022 B7090000 		lui	s3,%hi(.LC0)
  61              	.LVL1:
  62              	.L2:
  10:renderPlants.c ****   {
  63              		.loc 1 10 3 discriminator 1
  64 0026 634D5A01 		blt	s4,s5,.L3
  65              	.LBE4:
  15:renderPlants.c ****     LCD_ShowNum(i * 55, 40, allPlants[i].sun[allPlants[i].numberOfSunReadings - 1].reading, 3, WHIT
  16:renderPlants.c ****     LCD_ShowStr(i * 55 + 30, 40, "%", WHITE, TRANSPARENT);
  17:renderPlants.c ****     LCD_ShowStr(i * 55, 60, allPlants[i].currentStatus, GBLUE, TRANSPARENT);
  18:renderPlants.c ****   }
  19:renderPlants.c **** }
  66              		.loc 1 19 1
  67 002a B250     		lw	ra,44(sp)
  68              		.cfi_remember_state
  69              		.cfi_restore 1
  70 002c 2254     		lw	s0,40(sp)
  71              		.cfi_restore 8
  72 002e 9254     		lw	s1,36(sp)
  73              		.cfi_restore 9
  74 0030 0259     		lw	s2,32(sp)
  75              		.cfi_restore 18
  76 0032 F249     		lw	s3,28(sp)
  77              		.cfi_restore 19
  78 0034 624A     		lw	s4,24(sp)
  79              		.cfi_restore 20
  80              	.LVL2:
  81 0036 D24A     		lw	s5,20(sp)
  82              		.cfi_restore 21
  83              	.LVL3:
  84 0038 424B     		lw	s6,16(sp)
  85              		.cfi_restore 22
  86 003a B24B     		lw	s7,12(sp)
  87              		.cfi_restore 23
  88 003c 4561     		addi	sp,sp,48
  89              	.LCFI1:
  90              		.cfi_def_cfa_offset 0
  91 003e 8280     		jr	ra
GAS LISTING /var/folders/rt/4gvqv631095f64jvm7jfj_000000gn/T//ccirfROm.s 			page 3


  92              	.LVL4:
  93              	.L3:
  94              	.LCFI2:
  95              		.cfi_restore_state
  96              	.LBB5:
  12:renderPlants.c ****     LCD_ShowNum(i * 55, 20, allPlants[i].moisture[allPlants[i].numberOfMoistureReadings - 1].readin
  97              		.loc 1 12 5 is_stmt 1 discriminator 3
  98 0040 33096A03 		mul	s2,s4,s6
  99 0044 2286     		mv	a2,s0
 100 0046 0547     		li	a4,1
 101 0048 A686     		mv	a3,s1
 102 004a 8145     		li	a1,0
  10:renderPlants.c ****   {
 103              		.loc 1 10 40 is_stmt 0 discriminator 3
 104 004c 050A     		addi	s4,s4,1
 105              	.LVL5:
  12:renderPlants.c ****     LCD_ShowNum(i * 55, 20, allPlants[i].moisture[allPlants[i].numberOfMoistureReadings - 1].readin
 106              		.loc 1 12 5 discriminator 3
 107 004e 4A85     		mv	a0,s2
 108 0050 97000000 		call	LCD_ShowStr
 108      E7800000 
 109              	.LVL6:
  13:renderPlants.c ****     LCD_ShowStr(i * 55 + 30, 20, "%", WHITE, TRANSPARENT);
 110              		.loc 1 13 5 is_stmt 1 discriminator 3
  13:renderPlants.c ****     LCD_ShowStr(i * 55 + 30, 20, "%", WHITE, TRANSPARENT);
 111              		.loc 1 13 63 is_stmt 0 discriminator 3
 112 0058 0347F431 		lbu	a4,799(s0)
 113 005c 8347E431 		lbu	a5,798(s0)
  13:renderPlants.c ****     LCD_ShowStr(i * 55 + 30, 20, "%", WHITE, TRANSPARENT);
 114              		.loc 1 13 5 discriminator 3
 115 0060 8D46     		li	a3,3
  13:renderPlants.c ****     LCD_ShowStr(i * 55 + 30, 20, "%", WHITE, TRANSPARENT);
 116              		.loc 1 13 63 discriminator 3
 117 0062 2207     		slli	a4,a4,8
 118 0064 5D8F     		or	a4,a4,a5
 119 0066 83470432 		lbu	a5,800(s0)
  13:renderPlants.c ****     LCD_ShowStr(i * 55 + 30, 20, "%", WHITE, TRANSPARENT);
 120              		.loc 1 13 5 discriminator 3
 121 006a 4A85     		mv	a0,s2
 122 006c 930BE901 		addi	s7,s2,30
  13:renderPlants.c ****     LCD_ShowStr(i * 55 + 30, 20, "%", WHITE, TRANSPARENT);
 123              		.loc 1 13 63 discriminator 3
 124 0070 C207     		slli	a5,a5,16
 125 0072 5D8F     		or	a4,a5,a4
 126 0074 83471432 		lbu	a5,801(s0)
 127 0078 E207     		slli	a5,a5,24
 128 007a D98F     		or	a5,a5,a4
  13:renderPlants.c ****     LCD_ShowStr(i * 55 + 30, 20, "%", WHITE, TRANSPARENT);
 129              		.loc 1 13 93 discriminator 3
 130 007c 8507     		addi	a5,a5,1
 131 007e 8E07     		slli	a5,a5,3
 132 0080 A297     		add	a5,s0,a5
 133 0082 03C63701 		lbu	a2,19(a5)
 134 0086 83C52701 		lbu	a1,18(a5)
  13:renderPlants.c ****     LCD_ShowStr(i * 55 + 30, 20, "%", WHITE, TRANSPARENT);
 135              		.loc 1 13 5 discriminator 3
 136 008a 2687     		mv	a4,s1
GAS LISTING /var/folders/rt/4gvqv631095f64jvm7jfj_000000gn/T//ccirfROm.s 			page 4


  13:renderPlants.c ****     LCD_ShowStr(i * 55 + 30, 20, "%", WHITE, TRANSPARENT);
 137              		.loc 1 13 93 discriminator 3
 138 008c 2206     		slli	a2,a2,8
 139 008e 4D8E     		or	a2,a2,a1
 140 0090 83C54701 		lbu	a1,20(a5)
 141 0094 C205     		slli	a1,a1,16
 142 0096 D18D     		or	a1,a1,a2
 143 0098 03C65701 		lbu	a2,21(a5)
 144 009c 6206     		slli	a2,a2,24
  13:renderPlants.c ****     LCD_ShowStr(i * 55 + 30, 20, "%", WHITE, TRANSPARENT);
 145              		.loc 1 13 5 discriminator 3
 146 009e 4D8E     		or	a2,a2,a1
 147 00a0 D145     		li	a1,20
 148 00a2 97000000 		call	LCD_ShowNum
 148      E7800000 
 149              	.LVL7:
  14:renderPlants.c ****     LCD_ShowNum(i * 55, 40, allPlants[i].sun[allPlants[i].numberOfSunReadings - 1].reading, 3, WHIT
 150              		.loc 1 14 5 is_stmt 1 discriminator 3
 151 00aa 0547     		li	a4,1
 152 00ac A686     		mv	a3,s1
 153 00ae 13860900 		addi	a2,s3,%lo(.LC0)
 154 00b2 D145     		li	a1,20
 155 00b4 5E85     		mv	a0,s7
 156 00b6 97000000 		call	LCD_ShowStr
 156      E7800000 
 157              	.LVL8:
  15:renderPlants.c ****     LCD_ShowStr(i * 55 + 30, 40, "%", WHITE, TRANSPARENT);
 158              		.loc 1 15 5 discriminator 3
  15:renderPlants.c ****     LCD_ShowStr(i * 55 + 30, 40, "%", WHITE, TRANSPARENT);
 159              		.loc 1 15 58 is_stmt 0 discriminator 3
 160 00be 03473432 		lbu	a4,803(s0)
 161 00c2 83472432 		lbu	a5,802(s0)
  15:renderPlants.c ****     LCD_ShowStr(i * 55 + 30, 40, "%", WHITE, TRANSPARENT);
 162              		.loc 1 15 5 discriminator 3
 163 00c6 8D46     		li	a3,3
  15:renderPlants.c ****     LCD_ShowStr(i * 55 + 30, 40, "%", WHITE, TRANSPARENT);
 164              		.loc 1 15 58 discriminator 3
 165 00c8 2207     		slli	a4,a4,8
 166 00ca 5D8F     		or	a4,a4,a5
 167 00cc 83474432 		lbu	a5,804(s0)
  15:renderPlants.c ****     LCD_ShowStr(i * 55 + 30, 40, "%", WHITE, TRANSPARENT);
 168              		.loc 1 15 5 discriminator 3
 169 00d0 4A85     		mv	a0,s2
  15:renderPlants.c ****     LCD_ShowStr(i * 55 + 30, 40, "%", WHITE, TRANSPARENT);
 170              		.loc 1 15 58 discriminator 3
 171 00d2 C207     		slli	a5,a5,16
 172 00d4 5D8F     		or	a4,a5,a4
 173 00d6 83475432 		lbu	a5,805(s0)
 174 00da E207     		slli	a5,a5,24
 175 00dc D98F     		or	a5,a5,a4
  15:renderPlants.c ****     LCD_ShowStr(i * 55 + 30, 40, "%", WHITE, TRANSPARENT);
 176              		.loc 1 15 83 discriminator 3
 177 00de E507     		addi	a5,a5,25
 178 00e0 8E07     		slli	a5,a5,3
 179 00e2 A297     		add	a5,s0,a5
 180 00e4 03C63701 		lbu	a2,19(a5)
 181 00e8 83C52701 		lbu	a1,18(a5)
GAS LISTING /var/folders/rt/4gvqv631095f64jvm7jfj_000000gn/T//ccirfROm.s 			page 5


  15:renderPlants.c ****     LCD_ShowStr(i * 55 + 30, 40, "%", WHITE, TRANSPARENT);
 182              		.loc 1 15 5 discriminator 3
 183 00ec 2687     		mv	a4,s1
  15:renderPlants.c ****     LCD_ShowStr(i * 55 + 30, 40, "%", WHITE, TRANSPARENT);
 184              		.loc 1 15 83 discriminator 3
 185 00ee 2206     		slli	a2,a2,8
 186 00f0 4D8E     		or	a2,a2,a1
 187 00f2 83C54701 		lbu	a1,20(a5)
 188 00f6 C205     		slli	a1,a1,16
 189 00f8 D18D     		or	a1,a1,a2
 190 00fa 03C65701 		lbu	a2,21(a5)
 191 00fe 6206     		slli	a2,a2,24
  15:renderPlants.c ****     LCD_ShowStr(i * 55 + 30, 40, "%", WHITE, TRANSPARENT);
 192              		.loc 1 15 5 discriminator 3
 193 0100 4D8E     		or	a2,a2,a1
 194 0102 93058002 		li	a1,40
 195 0106 97000000 		call	LCD_ShowNum
 195      E7800000 
 196              	.LVL9:
  16:renderPlants.c ****     LCD_ShowStr(i * 55, 60, allPlants[i].currentStatus, GBLUE, TRANSPARENT);
 197              		.loc 1 16 5 is_stmt 1 discriminator 3
 198 010e 0547     		li	a4,1
 199 0110 A686     		mv	a3,s1
 200 0112 13860900 		addi	a2,s3,%lo(.LC0)
 201 0116 93058002 		li	a1,40
 202 011a 5E85     		mv	a0,s7
 203 011c 97000000 		call	LCD_ShowStr
 203      E7800000 
 204              	.LVL10:
  17:renderPlants.c ****   }
 205              		.loc 1 17 5 discriminator 3
 206 0124 1306F400 		addi	a2,s0,15
 207 0128 0547     		li	a4,1
 208 012a 9306F07F 		li	a3,2047
 209 012e 9305C003 		li	a1,60
 210 0132 4A85     		mv	a0,s2
 211 0134 97000000 		call	LCD_ShowStr
 211      E7800000 
 212              	.LVL11:
 213 013c 1304E44C 		addi	s0,s0,1230
 214 0140 DDB5     		j	.L2
 215              	.LBE5:
 216              		.cfi_endproc
 217              	.LFE3:
 219              		.section	.text.renderOnePlant,"ax",@progbits
 220              		.align	1
 221              		.globl	renderOnePlant
 223              	renderOnePlant:
 224              	.LFB4:
  20:renderPlants.c **** 
  21:renderPlants.c **** void renderOnePlant(Plant allPlants[], int numberOfPlants, char name[])
  22:renderPlants.c **** {
 225              		.loc 1 22 1
 226              		.cfi_startproc
 227              	.LVL12:
  23:renderPlants.c ****   for (int i = 0; i < numberOfPlants; i++)
 228              		.loc 1 23 3
GAS LISTING /var/folders/rt/4gvqv631095f64jvm7jfj_000000gn/T//ccirfROm.s 			page 6


 229              	.LBB6:
 230              		.loc 1 23 8
 231              	.LBE6:
  22:renderPlants.c ****   for (int i = 0; i < numberOfPlants; i++)
 232              		.loc 1 22 1 is_stmt 0
 233 0000 5D71     		addi	sp,sp,-80
 234              	.LCFI3:
 235              		.cfi_def_cfa_offset 80
 236 0002 A6C2     		sw	s1,68(sp)
 237 0004 CAC0     		sw	s2,64(sp)
 238 0006 4EDE     		sw	s3,60(sp)
 239 0008 86C6     		sw	ra,76(sp)
 240 000a A2C4     		sw	s0,72(sp)
 241              		.cfi_offset 9, -12
 242              		.cfi_offset 18, -16
 243              		.cfi_offset 19, -20
 244              		.cfi_offset 1, -4
 245              		.cfi_offset 8, -8
  22:renderPlants.c ****   for (int i = 0; i < numberOfPlants; i++)
 246              		.loc 1 22 1
 247 000c AE89     		mv	s3,a1
 248 000e AA84     		mv	s1,a0
 249              	.LBB8:
 250              		.loc 1 23 12
 251 0010 0149     		li	s2,0
 252              	.LVL13:
 253              	.L6:
 254              		.loc 1 23 3 discriminator 1
 255 0012 634C3901 		blt	s2,s3,.L9
 256              	.LBE8:
  24:renderPlants.c ****   {
  25:renderPlants.c ****     if (strcmp(allPlants[i].name, name) == 0)
  26:renderPlants.c ****     {
  27:renderPlants.c ****       char toTimeStampMoisture[9];
  28:renderPlants.c ****       generateTimeStampFromValue(toTimeStampMoisture, allPlants[i].moisture[allPlants[i].numberOfMo
  29:renderPlants.c ****       char toTimeStampSun[9];
  30:renderPlants.c ****       generateTimeStampFromValue(toTimeStampSun, allPlants[i].sun[allPlants[i].numberOfSunReadings 
  31:renderPlants.c **** 
  32:renderPlants.c ****       LCD_ShowStr(0, 0, allPlants[i].name, WHITE, TRANSPARENT);
  33:renderPlants.c ****       LCD_ShowStr(100, 0, allPlants[i].currentStatus, GBLUE, TRANSPARENT);
  34:renderPlants.c ****       LCD_ShowNum(0, 20, allPlants[i].moisture[allPlants[i].numberOfMoistureReadings - 1].reading, 
  35:renderPlants.c ****       LCD_ShowStr(0 + 30, 20, "%", WHITE, TRANSPARENT);
  36:renderPlants.c ****       LCD_ShowStr(50, 20, toTimeStampMoisture, WHITE, TRANSPARENT);
  37:renderPlants.c ****       LCD_ShowNum(0, 40, allPlants[i].sun[allPlants[i].numberOfSunReadings - 1].reading, 3, WHITE);
  38:renderPlants.c ****       LCD_ShowStr(0 + 30, 40, "%", WHITE, TRANSPARENT);
  39:renderPlants.c ****       LCD_Fill(50, 40, 160, 53, BLACK); // Black out old reading before writing new
  40:renderPlants.c ****       LCD_ShowStr(50, 40, toTimeStampSun, WHITE, TRANSPARENT);
  41:renderPlants.c ****       return;
  42:renderPlants.c ****     }
  43:renderPlants.c ****   }
  44:renderPlants.c ****   LCD_ShowStr(50, 4, "NO SUCH PLANT", RED, TRANSPARENT);
 257              		.loc 1 44 3 is_stmt 1
 258 0016 C166     		li	a3,65536
 259 0018 37060000 		lui	a2,%hi(.LC1)
 260              	.LVL14:
 261 001c 0547     		li	a4,1
 262 001e 93860680 		addi	a3,a3,-2048
GAS LISTING /var/folders/rt/4gvqv631095f64jvm7jfj_000000gn/T//ccirfROm.s 			page 7


 263 0022 13060600 		addi	a2,a2,%lo(.LC1)
 264 0026 9145     		li	a1,4
 265 0028 EDA2     		j	.L11
 266              	.LVL15:
 267              	.L9:
 268              	.LBB9:
  25:renderPlants.c ****     {
 269              		.loc 1 25 5
  25:renderPlants.c ****     {
 270              		.loc 1 25 9 is_stmt 0
 271 002a B285     		mv	a1,a2
 272 002c 2685     		mv	a0,s1
 273 002e 32C6     		sw	a2,12(sp)
 274 0030 97000000 		call	strcmp
 274      E7800000 
 275              	.LVL16:
  25:renderPlants.c ****     {
 276              		.loc 1 25 25
 277 0038 2684     		mv	s0,s1
  25:renderPlants.c ****     {
 278              		.loc 1 25 8
 279 003a 3246     		lw	a2,12(sp)
 280 003c 9384E44C 		addi	s1,s1,1230
 281 0040 6316051E 		bne	a0,zero,.L7
 282              	.LVL17:
 283              	.LBB7:
  27:renderPlants.c ****       generateTimeStampFromValue(toTimeStampMoisture, allPlants[i].moisture[allPlants[i].numberOfMo
 284              		.loc 1 27 7 is_stmt 1
  28:renderPlants.c ****       char toTimeStampSun[9];
 285              		.loc 1 28 7
  28:renderPlants.c ****       char toTimeStampSun[9];
 286              		.loc 1 28 89 is_stmt 0
 287 0044 0347F431 		lbu	a4,799(s0)
 288 0048 8347E431 		lbu	a5,798(s0)
  28:renderPlants.c ****       char toTimeStampSun[9];
 289              		.loc 1 28 7
 290 004c 2808     		addi	a0,sp,24
  28:renderPlants.c ****       char toTimeStampSun[9];
 291              		.loc 1 28 89
 292 004e 2207     		slli	a4,a4,8
 293 0050 5D8F     		or	a4,a4,a5
 294 0052 83470432 		lbu	a5,800(s0)
  32:renderPlants.c ****       LCD_ShowStr(100, 0, allPlants[i].currentStatus, GBLUE, TRANSPARENT);
 295              		.loc 1 32 7
 296 0056 C164     		li	s1,65536
  35:renderPlants.c ****       LCD_ShowStr(50, 20, toTimeStampMoisture, WHITE, TRANSPARENT);
 297              		.loc 1 35 7
 298 0058 37090000 		lui	s2,%hi(.LC0)
 299              	.LVL18:
  28:renderPlants.c ****       char toTimeStampSun[9];
 300              		.loc 1 28 89
 301 005c C207     		slli	a5,a5,16
 302 005e 5D8F     		or	a4,a5,a4
 303 0060 83471432 		lbu	a5,801(s0)
 304 0064 E207     		slli	a5,a5,24
 305 0066 D98F     		or	a5,a5,a4
  28:renderPlants.c ****       char toTimeStampSun[9];
GAS LISTING /var/folders/rt/4gvqv631095f64jvm7jfj_000000gn/T//ccirfROm.s 			page 8


 306              		.loc 1 28 7
 307 0068 8507     		addi	a5,a5,1
 308 006a 8E07     		slli	a5,a5,3
 309 006c A297     		add	a5,s0,a5
 310 006e 83C5F700 		lbu	a1,15(a5)
 311 0072 03C7E700 		lbu	a4,14(a5)
 312 0076 A205     		slli	a1,a1,8
 313 0078 D98D     		or	a1,a1,a4
 314 007a 03C70701 		lbu	a4,16(a5)
 315 007e 4207     		slli	a4,a4,16
 316 0080 4D8F     		or	a4,a4,a1
 317 0082 83C51701 		lbu	a1,17(a5)
 318 0086 E205     		slli	a1,a1,24
 319 0088 D98D     		or	a1,a1,a4
 320 008a 97000000 		call	generateTimeStampFromValue
 320      E7800000 
 321              	.LVL19:
  29:renderPlants.c ****       generateTimeStampFromValue(toTimeStampSun, allPlants[i].sun[allPlants[i].numberOfSunReadings 
 322              		.loc 1 29 7 is_stmt 1
  30:renderPlants.c **** 
 323              		.loc 1 30 7
  30:renderPlants.c **** 
 324              		.loc 1 30 79 is_stmt 0
 325 0092 03473432 		lbu	a4,803(s0)
 326 0096 83472432 		lbu	a5,802(s0)
  30:renderPlants.c **** 
 327              		.loc 1 30 7
 328 009a 4810     		addi	a0,sp,36
  30:renderPlants.c **** 
 329              		.loc 1 30 79
 330 009c 2207     		slli	a4,a4,8
 331 009e 5D8F     		or	a4,a4,a5
 332 00a0 83474432 		lbu	a5,804(s0)
 333 00a4 C207     		slli	a5,a5,16
 334 00a6 5D8F     		or	a4,a5,a4
 335 00a8 83475432 		lbu	a5,805(s0)
 336 00ac E207     		slli	a5,a5,24
 337 00ae D98F     		or	a5,a5,a4
  30:renderPlants.c **** 
 338              		.loc 1 30 7
 339 00b0 E507     		addi	a5,a5,25
 340 00b2 8E07     		slli	a5,a5,3
 341 00b4 A297     		add	a5,s0,a5
 342 00b6 83C5F700 		lbu	a1,15(a5)
 343 00ba 03C7E700 		lbu	a4,14(a5)
 344 00be A205     		slli	a1,a1,8
 345 00c0 D98D     		or	a1,a1,a4
 346 00c2 03C70701 		lbu	a4,16(a5)
 347 00c6 4207     		slli	a4,a4,16
 348 00c8 4D8F     		or	a4,a4,a1
 349 00ca 83C51701 		lbu	a1,17(a5)
 350 00ce E205     		slli	a1,a1,24
 351 00d0 D98D     		or	a1,a1,a4
 352 00d2 97000000 		call	generateTimeStampFromValue
 352      E7800000 
 353              	.LVL20:
  32:renderPlants.c ****       LCD_ShowStr(100, 0, allPlants[i].currentStatus, GBLUE, TRANSPARENT);
GAS LISTING /var/folders/rt/4gvqv631095f64jvm7jfj_000000gn/T//ccirfROm.s 			page 9


 354              		.loc 1 32 7 is_stmt 1
 355 00da 2286     		mv	a2,s0
 356 00dc 0547     		li	a4,1
 357 00de 9386F4FF 		addi	a3,s1,-1
 358 00e2 8145     		li	a1,0
 359 00e4 0145     		li	a0,0
 360 00e6 97000000 		call	LCD_ShowStr
 360      E7800000 
 361              	.LVL21:
  33:renderPlants.c ****       LCD_ShowNum(0, 20, allPlants[i].moisture[allPlants[i].numberOfMoistureReadings - 1].reading, 
 362              		.loc 1 33 7
 363 00ee 1306F400 		addi	a2,s0,15
 364 00f2 0547     		li	a4,1
 365 00f4 9306F07F 		li	a3,2047
 366 00f8 8145     		li	a1,0
 367 00fa 13054006 		li	a0,100
 368 00fe 97000000 		call	LCD_ShowStr
 368      E7800000 
 369              	.LVL22:
  34:renderPlants.c ****       LCD_ShowStr(0 + 30, 20, "%", WHITE, TRANSPARENT);
 370              		.loc 1 34 7
  34:renderPlants.c ****       LCD_ShowStr(0 + 30, 20, "%", WHITE, TRANSPARENT);
 371              		.loc 1 34 60 is_stmt 0
 372 0106 0347F431 		lbu	a4,799(s0)
 373 010a 8347E431 		lbu	a5,798(s0)
  34:renderPlants.c ****       LCD_ShowStr(0 + 30, 20, "%", WHITE, TRANSPARENT);
 374              		.loc 1 34 7
 375 010e 8D46     		li	a3,3
  34:renderPlants.c ****       LCD_ShowStr(0 + 30, 20, "%", WHITE, TRANSPARENT);
 376              		.loc 1 34 60
 377 0110 2207     		slli	a4,a4,8
 378 0112 5D8F     		or	a4,a4,a5
 379 0114 83470432 		lbu	a5,800(s0)
  34:renderPlants.c ****       LCD_ShowStr(0 + 30, 20, "%", WHITE, TRANSPARENT);
 380              		.loc 1 34 7
 381 0118 0145     		li	a0,0
  34:renderPlants.c ****       LCD_ShowStr(0 + 30, 20, "%", WHITE, TRANSPARENT);
 382              		.loc 1 34 60
 383 011a C207     		slli	a5,a5,16
 384 011c 5D8F     		or	a4,a5,a4
 385 011e 83471432 		lbu	a5,801(s0)
 386 0122 E207     		slli	a5,a5,24
 387 0124 D98F     		or	a5,a5,a4
  34:renderPlants.c ****       LCD_ShowStr(0 + 30, 20, "%", WHITE, TRANSPARENT);
 388              		.loc 1 34 90
 389 0126 8507     		addi	a5,a5,1
 390 0128 8E07     		slli	a5,a5,3
 391 012a A297     		add	a5,s0,a5
 392 012c 03C63701 		lbu	a2,19(a5)
 393 0130 83C52701 		lbu	a1,18(a5)
  34:renderPlants.c ****       LCD_ShowStr(0 + 30, 20, "%", WHITE, TRANSPARENT);
 394              		.loc 1 34 7
 395 0134 1387F4FF 		addi	a4,s1,-1
  34:renderPlants.c ****       LCD_ShowStr(0 + 30, 20, "%", WHITE, TRANSPARENT);
 396              		.loc 1 34 90
 397 0138 2206     		slli	a2,a2,8
 398 013a 4D8E     		or	a2,a2,a1
GAS LISTING /var/folders/rt/4gvqv631095f64jvm7jfj_000000gn/T//ccirfROm.s 			page 10


 399 013c 83C54701 		lbu	a1,20(a5)
 400 0140 C205     		slli	a1,a1,16
 401 0142 D18D     		or	a1,a1,a2
 402 0144 03C65701 		lbu	a2,21(a5)
 403 0148 6206     		slli	a2,a2,24
  34:renderPlants.c ****       LCD_ShowStr(0 + 30, 20, "%", WHITE, TRANSPARENT);
 404              		.loc 1 34 7
 405 014a 4D8E     		or	a2,a2,a1
 406 014c D145     		li	a1,20
 407 014e 97000000 		call	LCD_ShowNum
 407      E7800000 
 408              	.LVL23:
  35:renderPlants.c ****       LCD_ShowStr(50, 20, toTimeStampMoisture, WHITE, TRANSPARENT);
 409              		.loc 1 35 7 is_stmt 1
 410 0156 0547     		li	a4,1
 411 0158 9386F4FF 		addi	a3,s1,-1
 412 015c 13060900 		addi	a2,s2,%lo(.LC0)
 413 0160 D145     		li	a1,20
 414 0162 7945     		li	a0,30
 415 0164 97000000 		call	LCD_ShowStr
 415      E7800000 
 416              	.LVL24:
  36:renderPlants.c ****       LCD_ShowNum(0, 40, allPlants[i].sun[allPlants[i].numberOfSunReadings - 1].reading, 3, WHITE);
 417              		.loc 1 36 7
 418 016c 0547     		li	a4,1
 419 016e 9386F4FF 		addi	a3,s1,-1
 420 0172 3008     		addi	a2,sp,24
 421 0174 D145     		li	a1,20
 422 0176 13052003 		li	a0,50
 423 017a 97000000 		call	LCD_ShowStr
 423      E7800000 
 424              	.LVL25:
  37:renderPlants.c ****       LCD_ShowStr(0 + 30, 40, "%", WHITE, TRANSPARENT);
 425              		.loc 1 37 7
  37:renderPlants.c ****       LCD_ShowStr(0 + 30, 40, "%", WHITE, TRANSPARENT);
 426              		.loc 1 37 55 is_stmt 0
 427 0182 03473432 		lbu	a4,803(s0)
 428 0186 83472432 		lbu	a5,802(s0)
  37:renderPlants.c ****       LCD_ShowStr(0 + 30, 40, "%", WHITE, TRANSPARENT);
 429              		.loc 1 37 7
 430 018a 8D46     		li	a3,3
  37:renderPlants.c ****       LCD_ShowStr(0 + 30, 40, "%", WHITE, TRANSPARENT);
 431              		.loc 1 37 55
 432 018c 2207     		slli	a4,a4,8
 433 018e 5D8F     		or	a4,a4,a5
 434 0190 83474432 		lbu	a5,804(s0)
  37:renderPlants.c ****       LCD_ShowStr(0 + 30, 40, "%", WHITE, TRANSPARENT);
 435              		.loc 1 37 7
 436 0194 93058002 		li	a1,40
 437 0198 0145     		li	a0,0
  37:renderPlants.c ****       LCD_ShowStr(0 + 30, 40, "%", WHITE, TRANSPARENT);
 438              		.loc 1 37 55
 439 019a C207     		slli	a5,a5,16
 440 019c 5D8F     		or	a4,a5,a4
 441 019e 83475432 		lbu	a5,805(s0)
 442 01a2 E207     		slli	a5,a5,24
 443 01a4 D98F     		or	a5,a5,a4
GAS LISTING /var/folders/rt/4gvqv631095f64jvm7jfj_000000gn/T//ccirfROm.s 			page 11


  37:renderPlants.c ****       LCD_ShowStr(0 + 30, 40, "%", WHITE, TRANSPARENT);
 444              		.loc 1 37 80
 445 01a6 E507     		addi	a5,a5,25
 446 01a8 8E07     		slli	a5,a5,3
 447 01aa 3E94     		add	s0,s0,a5
 448 01ac 03463401 		lbu	a2,19(s0)
 449 01b0 83472401 		lbu	a5,18(s0)
  37:renderPlants.c ****       LCD_ShowStr(0 + 30, 40, "%", WHITE, TRANSPARENT);
 450              		.loc 1 37 7
 451 01b4 1387F4FF 		addi	a4,s1,-1
  37:renderPlants.c ****       LCD_ShowStr(0 + 30, 40, "%", WHITE, TRANSPARENT);
 452              		.loc 1 37 80
 453 01b8 2206     		slli	a2,a2,8
 454 01ba 5D8E     		or	a2,a2,a5
 455 01bc 83474401 		lbu	a5,20(s0)
 456 01c0 C207     		slli	a5,a5,16
 457 01c2 D18F     		or	a5,a5,a2
 458 01c4 03465401 		lbu	a2,21(s0)
 459 01c8 6206     		slli	a2,a2,24
  37:renderPlants.c ****       LCD_ShowStr(0 + 30, 40, "%", WHITE, TRANSPARENT);
 460              		.loc 1 37 7
 461 01ca 5D8E     		or	a2,a2,a5
 462 01cc 97000000 		call	LCD_ShowNum
 462      E7800000 
 463              	.LVL26:
  38:renderPlants.c ****       LCD_Fill(50, 40, 160, 53, BLACK); // Black out old reading before writing new
 464              		.loc 1 38 7 is_stmt 1
 465 01d4 0547     		li	a4,1
 466 01d6 9386F4FF 		addi	a3,s1,-1
 467 01da 13060900 		addi	a2,s2,%lo(.LC0)
 468 01de 93058002 		li	a1,40
 469 01e2 7945     		li	a0,30
 470 01e4 97000000 		call	LCD_ShowStr
 470      E7800000 
 471              	.LVL27:
  39:renderPlants.c ****       LCD_ShowStr(50, 40, toTimeStampSun, WHITE, TRANSPARENT);
 472              		.loc 1 39 7
 473 01ec 0147     		li	a4,0
 474 01ee 93065003 		li	a3,53
 475 01f2 1306000A 		li	a2,160
 476 01f6 93058002 		li	a1,40
 477 01fa 13052003 		li	a0,50
 478 01fe 97000000 		call	LCD_Fill
 478      E7800000 
 479              	.LVL28:
  40:renderPlants.c ****       return;
 480              		.loc 1 40 7
 481 0206 0547     		li	a4,1
 482 0208 9386F4FF 		addi	a3,s1,-1
 483 020c 5010     		addi	a2,sp,36
 484 020e 93058002 		li	a1,40
 485              	.LVL29:
 486              	.L11:
 487              	.LBE7:
 488              	.LBE9:
 489              		.loc 1 44 3 is_stmt 0
 490 0212 13052003 		li	a0,50
GAS LISTING /var/folders/rt/4gvqv631095f64jvm7jfj_000000gn/T//ccirfROm.s 			page 12


 491 0216 97000000 		call	LCD_ShowStr
 491      E7800000 
 492              	.LVL30:
  45:renderPlants.c **** }
 493              		.loc 1 45 1
 494 021e B640     		lw	ra,76(sp)
 495              		.cfi_remember_state
 496              		.cfi_restore 1
 497 0220 2644     		lw	s0,72(sp)
 498              		.cfi_restore 8
 499 0222 9644     		lw	s1,68(sp)
 500              		.cfi_restore 9
 501 0224 0649     		lw	s2,64(sp)
 502              		.cfi_restore 18
 503 0226 F259     		lw	s3,60(sp)
 504              		.cfi_restore 19
 505              	.LVL31:
 506 0228 6161     		addi	sp,sp,80
 507              	.LCFI4:
 508              		.cfi_def_cfa_offset 0
 509 022a 8280     		jr	ra
 510              	.LVL32:
 511              	.L7:
 512              	.LCFI5:
 513              		.cfi_restore_state
 514              	.LBB10:
  23:renderPlants.c ****   {
 515              		.loc 1 23 40 discriminator 2
 516 022c 0509     		addi	s2,s2,1
 517              	.LVL33:
 518 022e D5B3     		j	.L6
 519              	.LBE10:
 520              		.cfi_endproc
 521              	.LFE4:
 523              		.section	.text.renderAllHistory,"ax",@progbits
 524              		.align	1
 525              		.globl	renderAllHistory
 527              	renderAllHistory:
 528              	.LFB5:
  46:renderPlants.c **** 
  47:renderPlants.c **** void renderAllHistory(Plant allPlants[], int numberOfPlants) {
 529              		.loc 1 47 62 is_stmt 1
 530              		.cfi_startproc
 531              	.LVL34:
  48:renderPlants.c ****   /// WIP
  49:renderPlants.c ****   for (int i = 0; i < numberOfPlants; i++)
 532              		.loc 1 49 3
 533              	.LBB11:
 534              		.loc 1 49 8
 535              	.LBE11:
  47:renderPlants.c ****   /// WIP
 536              		.loc 1 47 62 is_stmt 0
 537 0000 7971     		addi	sp,sp,-48
 538              	.LCFI6:
 539              		.cfi_def_cfa_offset 48
 540 0002 26D2     		sw	s1,36(sp)
 541              		.cfi_offset 9, -12
GAS LISTING /var/folders/rt/4gvqv631095f64jvm7jfj_000000gn/T//ccirfROm.s 			page 13


 542              	.LBB12:
  50:renderPlants.c ****   {
  51:renderPlants.c ****     LCD_ShowStr(0, 10+i*1, "SUN:", WHITE, TRANSPARENT);        
 543              		.loc 1 51 5
 544 0004 C164     		li	s1,65536
 545              	.LBE12:
  47:renderPlants.c ****   /// WIP
 546              		.loc 1 47 62
 547 0006 22D4     		sw	s0,40(sp)
 548 0008 4AD0     		sw	s2,32(sp)
 549 000a 56CA     		sw	s5,20(sp)
 550 000c 5AC8     		sw	s6,16(sp)
 551 000e 5EC6     		sw	s7,12(sp)
 552 0010 62C4     		sw	s8,8(sp)
 553 0012 66C2     		sw	s9,4(sp)
 554 0014 06D6     		sw	ra,44(sp)
 555 0016 4ECE     		sw	s3,28(sp)
 556 0018 52CC     		sw	s4,24(sp)
 557              		.cfi_offset 8, -8
 558              		.cfi_offset 18, -16
 559              		.cfi_offset 21, -28
 560              		.cfi_offset 22, -32
 561              		.cfi_offset 23, -36
 562              		.cfi_offset 24, -40
 563              		.cfi_offset 25, -44
 564              		.cfi_offset 1, -4
 565              		.cfi_offset 19, -20
 566              		.cfi_offset 20, -24
  47:renderPlants.c ****   /// WIP
 567              		.loc 1 47 62
 568 001a 2E8C     		mv	s8,a1
 569 001c 2A84     		mv	s0,a0
 570              	.LBB13:
  49:renderPlants.c ****   {
 571              		.loc 1 49 3
 572 001e 2949     		li	s2,10
 573              		.loc 1 51 5
 574 0020 FD14     		addi	s1,s1,-1
 575 0022 B70C0000 		lui	s9,%hi(.LC2)
  52:renderPlants.c ****     LCD_ShowStr(0, 20+(i*2), "MOIST:", WHITE, TRANSPARENT);
 576              		.loc 1 52 5
 577 0026 B70A0000 		lui	s5,%hi(.LC3)
 578 002a 0D4B     		li	s6,3
  53:renderPlants.c ****     LCD_ShowStr(0, 30+(i*3), "TEMP:", WHITE, TRANSPARENT);
 579              		.loc 1 53 5
 580 002c B70B0000 		lui	s7,%hi(.LC4)
 581              	.LVL35:
 582              	.L13:
  49:renderPlants.c ****   {
 583              		.loc 1 49 3 discriminator 1
 584 0030 930769FF 		addi	a5,s2,-10
 585              	.LVL36:
 586 0034 63CF8701 		bgt	s8,a5,.L14
 587              	.LBE13:
  54:renderPlants.c ****     LCD_ShowNum(30, 10+i*1, allPlants[i].sunHistory[0], 3, WHITE);
  55:renderPlants.c ****     LCD_ShowNum(30, 20+(i*2), allPlants[i].moistHistory[0], 3, WHITE);
  56:renderPlants.c ****     LCD_ShowNum(30, 30+(i*3), allPlants[i].tempHistory[0], 3, WHITE);
GAS LISTING /var/folders/rt/4gvqv631095f64jvm7jfj_000000gn/T//ccirfROm.s 			page 14


  57:renderPlants.c ****     LCD_ShowNum(55, 10+i*1, allPlants[i].sunHistory[1], 3, WHITE);
  58:renderPlants.c ****     LCD_ShowNum(55, 20+(i*2), allPlants[i].moistHistory[1], 3, WHITE);
  59:renderPlants.c ****     LCD_ShowNum(55, 30+(i*3), allPlants[i].tempHistory[1], 3, WHITE);
  60:renderPlants.c ****     LCD_ShowNum(70, 10+i*1, allPlants[i].sunHistory[2], 3, WHITE);
  61:renderPlants.c ****     LCD_ShowNum(70, 20+(i*2), allPlants[i].moistHistory[2], 3, WHITE);
  62:renderPlants.c ****     LCD_ShowNum(70, 30+(i*3), allPlants[i].tempHistory[2], 3, WHITE);
  63:renderPlants.c ****     LCD_ShowNum(95, 10+i*1, allPlants[i].sunHistory[3], 3, WHITE);
  64:renderPlants.c ****     LCD_ShowNum(95, 20+(i*2), allPlants[i].moistHistory[3], 3, WHITE);
  65:renderPlants.c ****     LCD_ShowNum(95, 30+(i*3), allPlants[i].tempHistory[3], 3, WHITE);
  66:renderPlants.c ****     LCD_ShowNum(120, 10+i*1, allPlants[i].sunHistory[4], 3, WHITE);
  67:renderPlants.c ****     LCD_ShowNum(120, 20+(i*2), allPlants[i].moistHistory[4], 3, WHITE);
  68:renderPlants.c ****     LCD_ShowNum(120, 30+(i*3), allPlants[i].tempHistory[4], 3, WHITE);
  69:renderPlants.c ****     LCD_ShowNum(145, 10+i*1, allPlants[i].sunHistory[5], 3, WHITE);
  70:renderPlants.c ****     LCD_ShowNum(145, 20+(i*2), allPlants[i].moistHistory[5], 3, WHITE);
  71:renderPlants.c ****     LCD_ShowNum(145, 30+(i*3), allPlants[i].tempHistory[5], 3, WHITE);
  72:renderPlants.c ****   }
  73:renderPlants.c **** }...
 588              		.loc 1 73 1
 589 0038 B250     		lw	ra,44(sp)
 590              		.cfi_remember_state
 591              		.cfi_restore 1
 592 003a 2254     		lw	s0,40(sp)
 593              		.cfi_restore 8
 594 003c 9254     		lw	s1,36(sp)
 595              		.cfi_restore 9
 596 003e 0259     		lw	s2,32(sp)
 597              		.cfi_restore 18
 598 0040 F249     		lw	s3,28(sp)
 599              		.cfi_restore 19
 600 0042 624A     		lw	s4,24(sp)
 601              		.cfi_restore 20
 602 0044 D24A     		lw	s5,20(sp)
 603              		.cfi_restore 21
 604 0046 424B     		lw	s6,16(sp)
 605              		.cfi_restore 22
 606 0048 B24B     		lw	s7,12(sp)
 607              		.cfi_restore 23
 608 004a 224C     		lw	s8,8(sp)
 609              		.cfi_restore 24
 610              	.LVL37:
 611 004c 924C     		lw	s9,4(sp)
 612              		.cfi_restore 25
 613 004e 4561     		addi	sp,sp,48
 614              	.LCFI7:
 615              		.cfi_def_cfa_offset 0
 616 0050 8280     		jr	ra
 617              	.LVL38:
 618              	.L14:
 619              	.LCFI8:
 620              		.cfi_restore_state
 621              	.LBB14:
  51:renderPlants.c ****     LCD_ShowStr(0, 10+i*1, "SUN:", WHITE, TRANSPARENT);        
 622              		.loc 1 51 5 is_stmt 1 discriminator 3
 623 0052 B3096903 		mul	s3,s2,s6
 624 0056 CA85     		mv	a1,s2
 625 0058 0547     		li	a4,1
 626 005a A686     		mv	a3,s1
GAS LISTING /var/folders/rt/4gvqv631095f64jvm7jfj_000000gn/T//ccirfROm.s 			page 15


 627 005c 13860C00 		addi	a2,s9,%lo(.LC2)
 628 0060 0145     		li	a0,0
 629 0062 131A1900 		slli	s4,s2,1
 630 0066 97000000 		call	LCD_ShowStr
 630      E7800000 
 631              	.LVL39:
  52:renderPlants.c ****     LCD_ShowStr(0, 20+(i*2), "MOIST:", WHITE, TRANSPARENT);
 632              		.loc 1 52 5 discriminator 3
 633 006e 0547     		li	a4,1
 634 0070 A686     		mv	a3,s1
 635 0072 13860A00 		addi	a2,s5,%lo(.LC3)
 636 0076 D285     		mv	a1,s4
 637 0078 0145     		li	a0,0
 638 007a 97000000 		call	LCD_ShowStr
 638      E7800000 
 639              	.LVL40:
  53:renderPlants.c ****     LCD_ShowStr(0, 30+(i*3), "TEMP:", WHITE, TRANSPARENT);
 640              		.loc 1 53 5 discriminator 3
 641 0082 0547     		li	a4,1
 642 0084 A686     		mv	a3,s1
 643 0086 13860B00 		addi	a2,s7,%lo(.LC4)
 644 008a CE85     		mv	a1,s3
 645 008c 0145     		li	a0,0
 646 008e 97000000 		call	LCD_ShowStr
 646      E7800000 
 647              	.LVL41:
  54:renderPlants.c ****     LCD_ShowNum(30, 10+i*1, allPlants[i].sunHistory[0], 3, WHITE);
 648              		.loc 1 54 5 discriminator 3
  54:renderPlants.c ****     LCD_ShowNum(30, 10+i*1, allPlants[i].sunHistory[0], 3, WHITE);
 649              		.loc 1 54 52 is_stmt 0 discriminator 3
 650 0096 0346343A 		lbu	a2,931(s0)
 651 009a 8347243A 		lbu	a5,930(s0)
  54:renderPlants.c ****     LCD_ShowNum(30, 10+i*1, allPlants[i].sunHistory[0], 3, WHITE);
 652              		.loc 1 54 5 discriminator 3
 653 009e CA85     		mv	a1,s2
  54:renderPlants.c ****     LCD_ShowNum(30, 10+i*1, allPlants[i].sunHistory[0], 3, WHITE);
 654              		.loc 1 54 52 discriminator 3
 655 00a0 2206     		slli	a2,a2,8
 656 00a2 5D8E     		or	a2,a2,a5
 657 00a4 8347443A 		lbu	a5,932(s0)
  54:renderPlants.c ****     LCD_ShowNum(30, 10+i*1, allPlants[i].sunHistory[0], 3, WHITE);
 658              		.loc 1 54 5 discriminator 3
 659 00a8 2687     		mv	a4,s1
 660 00aa 8D46     		li	a3,3
  54:renderPlants.c ****     LCD_ShowNum(30, 10+i*1, allPlants[i].sunHistory[0], 3, WHITE);
 661              		.loc 1 54 52 discriminator 3
 662 00ac C207     		slli	a5,a5,16
 663 00ae D18F     		or	a5,a5,a2
 664 00b0 0346543A 		lbu	a2,933(s0)
  54:renderPlants.c ****     LCD_ShowNum(30, 10+i*1, allPlants[i].sunHistory[0], 3, WHITE);
 665              		.loc 1 54 5 discriminator 3
 666 00b4 7945     		li	a0,30
 667 00b6 1304E44C 		addi	s0,s0,1230
  54:renderPlants.c ****     LCD_ShowNum(30, 10+i*1, allPlants[i].sunHistory[0], 3, WHITE);
 668              		.loc 1 54 52 discriminator 3
 669 00ba 6206     		slli	a2,a2,24
  54:renderPlants.c ****     LCD_ShowNum(30, 10+i*1, allPlants[i].sunHistory[0], 3, WHITE);
GAS LISTING /var/folders/rt/4gvqv631095f64jvm7jfj_000000gn/T//ccirfROm.s 			page 16


 670              		.loc 1 54 5 discriminator 3
 671 00bc 5D8E     		or	a2,a2,a5
 672 00be 97000000 		call	LCD_ShowNum
 672      E7800000 
 673              	.LVL42:
  55:renderPlants.c ****     LCD_ShowNum(30, 20+(i*2), allPlants[i].moistHistory[0], 3, WHITE);
 674              		.loc 1 55 5 is_stmt 1 discriminator 3
  55:renderPlants.c ****     LCD_ShowNum(30, 20+(i*2), allPlants[i].moistHistory[0], 3, WHITE);
 675              		.loc 1 55 56 is_stmt 0 discriminator 3
 676 00c6 0346D4E5 		lbu	a2,-419(s0)
 677 00ca 8347C4E5 		lbu	a5,-420(s0)
  55:renderPlants.c ****     LCD_ShowNum(30, 20+(i*2), allPlants[i].moistHistory[0], 3, WHITE);
 678              		.loc 1 55 5 discriminator 3
 679 00ce 2687     		mv	a4,s1
  55:renderPlants.c ****     LCD_ShowNum(30, 20+(i*2), allPlants[i].moistHistory[0], 3, WHITE);
 680              		.loc 1 55 56 discriminator 3
 681 00d0 2206     		slli	a2,a2,8
 682 00d2 5D8E     		or	a2,a2,a5
 683 00d4 8347E4E5 		lbu	a5,-418(s0)
  55:renderPlants.c ****     LCD_ShowNum(30, 20+(i*2), allPlants[i].moistHistory[0], 3, WHITE);
 684              		.loc 1 55 5 discriminator 3
 685 00d8 8D46     		li	a3,3
 686 00da D285     		mv	a1,s4
  55:renderPlants.c ****     LCD_ShowNum(30, 20+(i*2), allPlants[i].moistHistory[0], 3, WHITE);
 687              		.loc 1 55 56 discriminator 3
 688 00dc C207     		slli	a5,a5,16
 689 00de D18F     		or	a5,a5,a2
 690 00e0 0346F4E5 		lbu	a2,-417(s0)
  55:renderPlants.c ****     LCD_ShowNum(30, 20+(i*2), allPlants[i].moistHistory[0], 3, WHITE);
 691              		.loc 1 55 5 discriminator 3
 692 00e4 7945     		li	a0,30
  55:renderPlants.c ****     LCD_ShowNum(30, 20+(i*2), allPlants[i].moistHistory[0], 3, WHITE);
 693              		.loc 1 55 56 discriminator 3
 694 00e6 6206     		slli	a2,a2,24
  55:renderPlants.c ****     LCD_ShowNum(30, 20+(i*2), allPlants[i].moistHistory[0], 3, WHITE);
 695              		.loc 1 55 5 discriminator 3
 696 00e8 5D8E     		or	a2,a2,a5
 697 00ea 97000000 		call	LCD_ShowNum
 697      E7800000 
 698              	.LVL43:
  56:renderPlants.c ****     LCD_ShowNum(30, 30+(i*3), allPlants[i].tempHistory[0], 3, WHITE);
 699              		.loc 1 56 5 is_stmt 1 discriminator 3
  56:renderPlants.c ****     LCD_ShowNum(30, 30+(i*3), allPlants[i].tempHistory[0], 3, WHITE);
 700              		.loc 1 56 55 is_stmt 0 discriminator 3
 701 00f2 0346D4F4 		lbu	a2,-179(s0)
 702 00f6 8347C4F4 		lbu	a5,-180(s0)
  56:renderPlants.c ****     LCD_ShowNum(30, 30+(i*3), allPlants[i].tempHistory[0], 3, WHITE);
 703              		.loc 1 56 5 discriminator 3
 704 00fa 2687     		mv	a4,s1
  56:renderPlants.c ****     LCD_ShowNum(30, 30+(i*3), allPlants[i].tempHistory[0], 3, WHITE);
 705              		.loc 1 56 55 discriminator 3
 706 00fc 2206     		slli	a2,a2,8
 707 00fe 5D8E     		or	a2,a2,a5
 708 0100 8347E4F4 		lbu	a5,-178(s0)
  56:renderPlants.c ****     LCD_ShowNum(30, 30+(i*3), allPlants[i].tempHistory[0], 3, WHITE);
 709              		.loc 1 56 5 discriminator 3
 710 0104 8D46     		li	a3,3
GAS LISTING /var/folders/rt/4gvqv631095f64jvm7jfj_000000gn/T//ccirfROm.s 			page 17


 711 0106 CE85     		mv	a1,s3
  56:renderPlants.c ****     LCD_ShowNum(30, 30+(i*3), allPlants[i].tempHistory[0], 3, WHITE);
 712              		.loc 1 56 55 discriminator 3
 713 0108 C207     		slli	a5,a5,16
 714 010a D18F     		or	a5,a5,a2
 715 010c 0346F4F4 		lbu	a2,-177(s0)
  56:renderPlants.c ****     LCD_ShowNum(30, 30+(i*3), allPlants[i].tempHistory[0], 3, WHITE);
 716              		.loc 1 56 5 discriminator 3
 717 0110 7945     		li	a0,30
  56:renderPlants.c ****     LCD_ShowNum(30, 30+(i*3), allPlants[i].tempHistory[0], 3, WHITE);
 718              		.loc 1 56 55 discriminator 3
 719 0112 6206     		slli	a2,a2,24
  56:renderPlants.c ****     LCD_ShowNum(30, 30+(i*3), allPlants[i].tempHistory[0], 3, WHITE);
 720              		.loc 1 56 5 discriminator 3
 721 0114 5D8E     		or	a2,a2,a5
 722 0116 97000000 		call	LCD_ShowNum
 722      E7800000 
 723              	.LVL44:
  57:renderPlants.c ****     LCD_ShowNum(55, 10+i*1, allPlants[i].sunHistory[1], 3, WHITE);
 724              		.loc 1 57 5 is_stmt 1 discriminator 3
  57:renderPlants.c ****     LCD_ShowNum(55, 10+i*1, allPlants[i].sunHistory[1], 3, WHITE);
 725              		.loc 1 57 52 is_stmt 0 discriminator 3
 726 011e 034694ED 		lbu	a2,-295(s0)
 727 0122 834784ED 		lbu	a5,-296(s0)
  57:renderPlants.c ****     LCD_ShowNum(55, 10+i*1, allPlants[i].sunHistory[1], 3, WHITE);
 728              		.loc 1 57 5 discriminator 3
 729 0126 CA85     		mv	a1,s2
  57:renderPlants.c ****     LCD_ShowNum(55, 10+i*1, allPlants[i].sunHistory[1], 3, WHITE);
 730              		.loc 1 57 52 discriminator 3
 731 0128 2206     		slli	a2,a2,8
 732 012a 5D8E     		or	a2,a2,a5
 733 012c 8347A4ED 		lbu	a5,-294(s0)
  57:renderPlants.c ****     LCD_ShowNum(55, 10+i*1, allPlants[i].sunHistory[1], 3, WHITE);
 734              		.loc 1 57 5 discriminator 3
 735 0130 2687     		mv	a4,s1
 736 0132 8D46     		li	a3,3
  57:renderPlants.c ****     LCD_ShowNum(55, 10+i*1, allPlants[i].sunHistory[1], 3, WHITE);
 737              		.loc 1 57 52 discriminator 3
 738 0134 C207     		slli	a5,a5,16
 739 0136 D18F     		or	a5,a5,a2
 740 0138 0346B4ED 		lbu	a2,-293(s0)
  57:renderPlants.c ****     LCD_ShowNum(55, 10+i*1, allPlants[i].sunHistory[1], 3, WHITE);
 741              		.loc 1 57 5 discriminator 3
 742 013c 13057003 		li	a0,55
  57:renderPlants.c ****     LCD_ShowNum(55, 10+i*1, allPlants[i].sunHistory[1], 3, WHITE);
 743              		.loc 1 57 52 discriminator 3
 744 0140 6206     		slli	a2,a2,24
  57:renderPlants.c ****     LCD_ShowNum(55, 10+i*1, allPlants[i].sunHistory[1], 3, WHITE);
 745              		.loc 1 57 5 discriminator 3
 746 0142 5D8E     		or	a2,a2,a5
 747 0144 97000000 		call	LCD_ShowNum
 747      E7800000 
 748              	.LVL45:
  58:renderPlants.c ****     LCD_ShowNum(55, 20+(i*2), allPlants[i].moistHistory[1], 3, WHITE);
 749              		.loc 1 58 5 is_stmt 1 discriminator 3
  58:renderPlants.c ****     LCD_ShowNum(55, 20+(i*2), allPlants[i].moistHistory[1], 3, WHITE);
 750              		.loc 1 58 56 is_stmt 0 discriminator 3
GAS LISTING /var/folders/rt/4gvqv631095f64jvm7jfj_000000gn/T//ccirfROm.s 			page 18


 751 014c 034614E6 		lbu	a2,-415(s0)
 752 0150 834704E6 		lbu	a5,-416(s0)
  58:renderPlants.c ****     LCD_ShowNum(55, 20+(i*2), allPlants[i].moistHistory[1], 3, WHITE);
 753              		.loc 1 58 5 discriminator 3
 754 0154 2687     		mv	a4,s1
  58:renderPlants.c ****     LCD_ShowNum(55, 20+(i*2), allPlants[i].moistHistory[1], 3, WHITE);
 755              		.loc 1 58 56 discriminator 3
 756 0156 2206     		slli	a2,a2,8
 757 0158 5D8E     		or	a2,a2,a5
 758 015a 834724E6 		lbu	a5,-414(s0)
  58:renderPlants.c ****     LCD_ShowNum(55, 20+(i*2), allPlants[i].moistHistory[1], 3, WHITE);
 759              		.loc 1 58 5 discriminator 3
 760 015e 8D46     		li	a3,3
 761 0160 D285     		mv	a1,s4
  58:renderPlants.c ****     LCD_ShowNum(55, 20+(i*2), allPlants[i].moistHistory[1], 3, WHITE);
 762              		.loc 1 58 56 discriminator 3
 763 0162 C207     		slli	a5,a5,16
 764 0164 D18F     		or	a5,a5,a2
 765 0166 034634E6 		lbu	a2,-413(s0)
  58:renderPlants.c ****     LCD_ShowNum(55, 20+(i*2), allPlants[i].moistHistory[1], 3, WHITE);
 766              		.loc 1 58 5 discriminator 3
 767 016a 13057003 		li	a0,55
  58:renderPlants.c ****     LCD_ShowNum(55, 20+(i*2), allPlants[i].moistHistory[1], 3, WHITE);
 768              		.loc 1 58 56 discriminator 3
 769 016e 6206     		slli	a2,a2,24
  58:renderPlants.c ****     LCD_ShowNum(55, 20+(i*2), allPlants[i].moistHistory[1], 3, WHITE);
 770              		.loc 1 58 5 discriminator 3
 771 0170 5D8E     		or	a2,a2,a5
 772 0172 97000000 		call	LCD_ShowNum
 772      E7800000 
 773              	.LVL46:
  59:renderPlants.c ****     LCD_ShowNum(55, 30+(i*3), allPlants[i].tempHistory[1], 3, WHITE);
 774              		.loc 1 59 5 is_stmt 1 discriminator 3
  59:renderPlants.c ****     LCD_ShowNum(55, 30+(i*3), allPlants[i].tempHistory[1], 3, WHITE);
 775              		.loc 1 59 55 is_stmt 0 discriminator 3
 776 017a 034614F5 		lbu	a2,-175(s0)
 777 017e 834704F5 		lbu	a5,-176(s0)
  59:renderPlants.c ****     LCD_ShowNum(55, 30+(i*3), allPlants[i].tempHistory[1], 3, WHITE);
 778              		.loc 1 59 5 discriminator 3
 779 0182 2687     		mv	a4,s1
  59:renderPlants.c ****     LCD_ShowNum(55, 30+(i*3), allPlants[i].tempHistory[1], 3, WHITE);
 780              		.loc 1 59 55 discriminator 3
 781 0184 2206     		slli	a2,a2,8
 782 0186 5D8E     		or	a2,a2,a5
 783 0188 834724F5 		lbu	a5,-174(s0)
  59:renderPlants.c ****     LCD_ShowNum(55, 30+(i*3), allPlants[i].tempHistory[1], 3, WHITE);
 784              		.loc 1 59 5 discriminator 3
 785 018c 8D46     		li	a3,3
 786 018e CE85     		mv	a1,s3
  59:renderPlants.c ****     LCD_ShowNum(55, 30+(i*3), allPlants[i].tempHistory[1], 3, WHITE);
 787              		.loc 1 59 55 discriminator 3
 788 0190 C207     		slli	a5,a5,16
 789 0192 D18F     		or	a5,a5,a2
 790 0194 034634F5 		lbu	a2,-173(s0)
  59:renderPlants.c ****     LCD_ShowNum(55, 30+(i*3), allPlants[i].tempHistory[1], 3, WHITE);
 791              		.loc 1 59 5 discriminator 3
 792 0198 13057003 		li	a0,55
GAS LISTING /var/folders/rt/4gvqv631095f64jvm7jfj_000000gn/T//ccirfROm.s 			page 19


  59:renderPlants.c ****     LCD_ShowNum(55, 30+(i*3), allPlants[i].tempHistory[1], 3, WHITE);
 793              		.loc 1 59 55 discriminator 3
 794 019c 6206     		slli	a2,a2,24
  59:renderPlants.c ****     LCD_ShowNum(55, 30+(i*3), allPlants[i].tempHistory[1], 3, WHITE);
 795              		.loc 1 59 5 discriminator 3
 796 019e 5D8E     		or	a2,a2,a5
 797 01a0 97000000 		call	LCD_ShowNum
 797      E7800000 
 798              	.LVL47:
  60:renderPlants.c ****     LCD_ShowNum(70, 10+i*1, allPlants[i].sunHistory[2], 3, WHITE);
 799              		.loc 1 60 5 is_stmt 1 discriminator 3
  60:renderPlants.c ****     LCD_ShowNum(70, 10+i*1, allPlants[i].sunHistory[2], 3, WHITE);
 800              		.loc 1 60 52 is_stmt 0 discriminator 3
 801 01a8 0346D4ED 		lbu	a2,-291(s0)
 802 01ac 8347C4ED 		lbu	a5,-292(s0)
  60:renderPlants.c ****     LCD_ShowNum(70, 10+i*1, allPlants[i].sunHistory[2], 3, WHITE);
 803              		.loc 1 60 5 discriminator 3
 804 01b0 CA85     		mv	a1,s2
  60:renderPlants.c ****     LCD_ShowNum(70, 10+i*1, allPlants[i].sunHistory[2], 3, WHITE);
 805              		.loc 1 60 52 discriminator 3
 806 01b2 2206     		slli	a2,a2,8
 807 01b4 5D8E     		or	a2,a2,a5
 808 01b6 8347E4ED 		lbu	a5,-290(s0)
  60:renderPlants.c ****     LCD_ShowNum(70, 10+i*1, allPlants[i].sunHistory[2], 3, WHITE);
 809              		.loc 1 60 5 discriminator 3
 810 01ba 2687     		mv	a4,s1
 811 01bc 8D46     		li	a3,3
  60:renderPlants.c ****     LCD_ShowNum(70, 10+i*1, allPlants[i].sunHistory[2], 3, WHITE);
 812              		.loc 1 60 52 discriminator 3
 813 01be C207     		slli	a5,a5,16
 814 01c0 D18F     		or	a5,a5,a2
 815 01c2 0346F4ED 		lbu	a2,-289(s0)
  60:renderPlants.c ****     LCD_ShowNum(70, 10+i*1, allPlants[i].sunHistory[2], 3, WHITE);
 816              		.loc 1 60 5 discriminator 3
 817 01c6 13056004 		li	a0,70
  60:renderPlants.c ****     LCD_ShowNum(70, 10+i*1, allPlants[i].sunHistory[2], 3, WHITE);
 818              		.loc 1 60 52 discriminator 3
 819 01ca 6206     		slli	a2,a2,24
  60:renderPlants.c ****     LCD_ShowNum(70, 10+i*1, allPlants[i].sunHistory[2], 3, WHITE);
 820              		.loc 1 60 5 discriminator 3
 821 01cc 5D8E     		or	a2,a2,a5
 822 01ce 97000000 		call	LCD_ShowNum
 822      E7800000 
 823              	.LVL48:
  61:renderPlants.c ****     LCD_ShowNum(70, 20+(i*2), allPlants[i].moistHistory[2], 3, WHITE);
 824              		.loc 1 61 5 is_stmt 1 discriminator 3
  61:renderPlants.c ****     LCD_ShowNum(70, 20+(i*2), allPlants[i].moistHistory[2], 3, WHITE);
 825              		.loc 1 61 56 is_stmt 0 discriminator 3
 826 01d6 034654E6 		lbu	a2,-411(s0)
 827 01da 834744E6 		lbu	a5,-412(s0)
  61:renderPlants.c ****     LCD_ShowNum(70, 20+(i*2), allPlants[i].moistHistory[2], 3, WHITE);
 828              		.loc 1 61 5 discriminator 3
 829 01de 2687     		mv	a4,s1
  61:renderPlants.c ****     LCD_ShowNum(70, 20+(i*2), allPlants[i].moistHistory[2], 3, WHITE);
 830              		.loc 1 61 56 discriminator 3
 831 01e0 2206     		slli	a2,a2,8
 832 01e2 5D8E     		or	a2,a2,a5
GAS LISTING /var/folders/rt/4gvqv631095f64jvm7jfj_000000gn/T//ccirfROm.s 			page 20


 833 01e4 834764E6 		lbu	a5,-410(s0)
  61:renderPlants.c ****     LCD_ShowNum(70, 20+(i*2), allPlants[i].moistHistory[2], 3, WHITE);
 834              		.loc 1 61 5 discriminator 3
 835 01e8 8D46     		li	a3,3
 836 01ea D285     		mv	a1,s4
  61:renderPlants.c ****     LCD_ShowNum(70, 20+(i*2), allPlants[i].moistHistory[2], 3, WHITE);
 837              		.loc 1 61 56 discriminator 3
 838 01ec C207     		slli	a5,a5,16
 839 01ee D18F     		or	a5,a5,a2
 840 01f0 034674E6 		lbu	a2,-409(s0)
  61:renderPlants.c ****     LCD_ShowNum(70, 20+(i*2), allPlants[i].moistHistory[2], 3, WHITE);
 841              		.loc 1 61 5 discriminator 3
 842 01f4 13056004 		li	a0,70
  61:renderPlants.c ****     LCD_ShowNum(70, 20+(i*2), allPlants[i].moistHistory[2], 3, WHITE);
 843              		.loc 1 61 56 discriminator 3
 844 01f8 6206     		slli	a2,a2,24
  61:renderPlants.c ****     LCD_ShowNum(70, 20+(i*2), allPlants[i].moistHistory[2], 3, WHITE);
 845              		.loc 1 61 5 discriminator 3
 846 01fa 5D8E     		or	a2,a2,a5
 847 01fc 97000000 		call	LCD_ShowNum
 847      E7800000 
 848              	.LVL49:
  62:renderPlants.c ****     LCD_ShowNum(70, 30+(i*3), allPlants[i].tempHistory[2], 3, WHITE);
 849              		.loc 1 62 5 is_stmt 1 discriminator 3
  62:renderPlants.c ****     LCD_ShowNum(70, 30+(i*3), allPlants[i].tempHistory[2], 3, WHITE);
 850              		.loc 1 62 55 is_stmt 0 discriminator 3
 851 0204 034654F5 		lbu	a2,-171(s0)
 852 0208 834744F5 		lbu	a5,-172(s0)
  62:renderPlants.c ****     LCD_ShowNum(70, 30+(i*3), allPlants[i].tempHistory[2], 3, WHITE);
 853              		.loc 1 62 5 discriminator 3
 854 020c 2687     		mv	a4,s1
  62:renderPlants.c ****     LCD_ShowNum(70, 30+(i*3), allPlants[i].tempHistory[2], 3, WHITE);
 855              		.loc 1 62 55 discriminator 3
 856 020e 2206     		slli	a2,a2,8
 857 0210 5D8E     		or	a2,a2,a5
 858 0212 834764F5 		lbu	a5,-170(s0)
  62:renderPlants.c ****     LCD_ShowNum(70, 30+(i*3), allPlants[i].tempHistory[2], 3, WHITE);
 859              		.loc 1 62 5 discriminator 3
 860 0216 8D46     		li	a3,3
 861 0218 CE85     		mv	a1,s3
  62:renderPlants.c ****     LCD_ShowNum(70, 30+(i*3), allPlants[i].tempHistory[2], 3, WHITE);
 862              		.loc 1 62 55 discriminator 3
 863 021a C207     		slli	a5,a5,16
 864 021c D18F     		or	a5,a5,a2
 865 021e 034674F5 		lbu	a2,-169(s0)
  62:renderPlants.c ****     LCD_ShowNum(70, 30+(i*3), allPlants[i].tempHistory[2], 3, WHITE);
 866              		.loc 1 62 5 discriminator 3
 867 0222 13056004 		li	a0,70
  62:renderPlants.c ****     LCD_ShowNum(70, 30+(i*3), allPlants[i].tempHistory[2], 3, WHITE);
 868              		.loc 1 62 55 discriminator 3
 869 0226 6206     		slli	a2,a2,24
  62:renderPlants.c ****     LCD_ShowNum(70, 30+(i*3), allPlants[i].tempHistory[2], 3, WHITE);
 870              		.loc 1 62 5 discriminator 3
 871 0228 5D8E     		or	a2,a2,a5
 872 022a 97000000 		call	LCD_ShowNum
 872      E7800000 
 873              	.LVL50:
GAS LISTING /var/folders/rt/4gvqv631095f64jvm7jfj_000000gn/T//ccirfROm.s 			page 21


  63:renderPlants.c ****     LCD_ShowNum(95, 10+i*1, allPlants[i].sunHistory[3], 3, WHITE);
 874              		.loc 1 63 5 is_stmt 1 discriminator 3
  63:renderPlants.c ****     LCD_ShowNum(95, 10+i*1, allPlants[i].sunHistory[3], 3, WHITE);
 875              		.loc 1 63 52 is_stmt 0 discriminator 3
 876 0232 034614EE 		lbu	a2,-287(s0)
 877 0236 834704EE 		lbu	a5,-288(s0)
  63:renderPlants.c ****     LCD_ShowNum(95, 10+i*1, allPlants[i].sunHistory[3], 3, WHITE);
 878              		.loc 1 63 5 discriminator 3
 879 023a CA85     		mv	a1,s2
  63:renderPlants.c ****     LCD_ShowNum(95, 10+i*1, allPlants[i].sunHistory[3], 3, WHITE);
 880              		.loc 1 63 52 discriminator 3
 881 023c 2206     		slli	a2,a2,8
 882 023e 5D8E     		or	a2,a2,a5
 883 0240 834724EE 		lbu	a5,-286(s0)
  63:renderPlants.c ****     LCD_ShowNum(95, 10+i*1, allPlants[i].sunHistory[3], 3, WHITE);
 884              		.loc 1 63 5 discriminator 3
 885 0244 2687     		mv	a4,s1
 886 0246 8D46     		li	a3,3
  63:renderPlants.c ****     LCD_ShowNum(95, 10+i*1, allPlants[i].sunHistory[3], 3, WHITE);
 887              		.loc 1 63 52 discriminator 3
 888 0248 C207     		slli	a5,a5,16
 889 024a D18F     		or	a5,a5,a2
 890 024c 034634EE 		lbu	a2,-285(s0)
  63:renderPlants.c ****     LCD_ShowNum(95, 10+i*1, allPlants[i].sunHistory[3], 3, WHITE);
 891              		.loc 1 63 5 discriminator 3
 892 0250 1305F005 		li	a0,95
  63:renderPlants.c ****     LCD_ShowNum(95, 10+i*1, allPlants[i].sunHistory[3], 3, WHITE);
 893              		.loc 1 63 52 discriminator 3
 894 0254 6206     		slli	a2,a2,24
  63:renderPlants.c ****     LCD_ShowNum(95, 10+i*1, allPlants[i].sunHistory[3], 3, WHITE);
 895              		.loc 1 63 5 discriminator 3
 896 0256 5D8E     		or	a2,a2,a5
 897 0258 97000000 		call	LCD_ShowNum
 897      E7800000 
 898              	.LVL51:
  64:renderPlants.c ****     LCD_ShowNum(95, 20+(i*2), allPlants[i].moistHistory[3], 3, WHITE);
 899              		.loc 1 64 5 is_stmt 1 discriminator 3
  64:renderPlants.c ****     LCD_ShowNum(95, 20+(i*2), allPlants[i].moistHistory[3], 3, WHITE);
 900              		.loc 1 64 56 is_stmt 0 discriminator 3
 901 0260 034694E6 		lbu	a2,-407(s0)
 902 0264 834784E6 		lbu	a5,-408(s0)
  64:renderPlants.c ****     LCD_ShowNum(95, 20+(i*2), allPlants[i].moistHistory[3], 3, WHITE);
 903              		.loc 1 64 5 discriminator 3
 904 0268 2687     		mv	a4,s1
  64:renderPlants.c ****     LCD_ShowNum(95, 20+(i*2), allPlants[i].moistHistory[3], 3, WHITE);
 905              		.loc 1 64 56 discriminator 3
 906 026a 2206     		slli	a2,a2,8
 907 026c 5D8E     		or	a2,a2,a5
 908 026e 8347A4E6 		lbu	a5,-406(s0)
  64:renderPlants.c ****     LCD_ShowNum(95, 20+(i*2), allPlants[i].moistHistory[3], 3, WHITE);
 909              		.loc 1 64 5 discriminator 3
 910 0272 8D46     		li	a3,3
 911 0274 D285     		mv	a1,s4
  64:renderPlants.c ****     LCD_ShowNum(95, 20+(i*2), allPlants[i].moistHistory[3], 3, WHITE);
 912              		.loc 1 64 56 discriminator 3
 913 0276 C207     		slli	a5,a5,16
 914 0278 D18F     		or	a5,a5,a2
GAS LISTING /var/folders/rt/4gvqv631095f64jvm7jfj_000000gn/T//ccirfROm.s 			page 22


 915 027a 0346B4E6 		lbu	a2,-405(s0)
  64:renderPlants.c ****     LCD_ShowNum(95, 20+(i*2), allPlants[i].moistHistory[3], 3, WHITE);
 916              		.loc 1 64 5 discriminator 3
 917 027e 1305F005 		li	a0,95
  64:renderPlants.c ****     LCD_ShowNum(95, 20+(i*2), allPlants[i].moistHistory[3], 3, WHITE);
 918              		.loc 1 64 56 discriminator 3
 919 0282 6206     		slli	a2,a2,24
  64:renderPlants.c ****     LCD_ShowNum(95, 20+(i*2), allPlants[i].moistHistory[3], 3, WHITE);
 920              		.loc 1 64 5 discriminator 3
 921 0284 5D8E     		or	a2,a2,a5
 922 0286 97000000 		call	LCD_ShowNum
 922      E7800000 
 923              	.LVL52:
  65:renderPlants.c ****     LCD_ShowNum(95, 30+(i*3), allPlants[i].tempHistory[3], 3, WHITE);
 924              		.loc 1 65 5 is_stmt 1 discriminator 3
  65:renderPlants.c ****     LCD_ShowNum(95, 30+(i*3), allPlants[i].tempHistory[3], 3, WHITE);
 925              		.loc 1 65 55 is_stmt 0 discriminator 3
 926 028e 034694F5 		lbu	a2,-167(s0)
 927 0292 834784F5 		lbu	a5,-168(s0)
  65:renderPlants.c ****     LCD_ShowNum(95, 30+(i*3), allPlants[i].tempHistory[3], 3, WHITE);
 928              		.loc 1 65 5 discriminator 3
 929 0296 2687     		mv	a4,s1
  65:renderPlants.c ****     LCD_ShowNum(95, 30+(i*3), allPlants[i].tempHistory[3], 3, WHITE);
 930              		.loc 1 65 55 discriminator 3
 931 0298 2206     		slli	a2,a2,8
 932 029a 5D8E     		or	a2,a2,a5
 933 029c 8347A4F5 		lbu	a5,-166(s0)
  65:renderPlants.c ****     LCD_ShowNum(95, 30+(i*3), allPlants[i].tempHistory[3], 3, WHITE);
 934              		.loc 1 65 5 discriminator 3
 935 02a0 8D46     		li	a3,3
 936 02a2 CE85     		mv	a1,s3
  65:renderPlants.c ****     LCD_ShowNum(95, 30+(i*3), allPlants[i].tempHistory[3], 3, WHITE);
 937              		.loc 1 65 55 discriminator 3
 938 02a4 C207     		slli	a5,a5,16
 939 02a6 D18F     		or	a5,a5,a2
 940 02a8 0346B4F5 		lbu	a2,-165(s0)
  65:renderPlants.c ****     LCD_ShowNum(95, 30+(i*3), allPlants[i].tempHistory[3], 3, WHITE);
 941              		.loc 1 65 5 discriminator 3
 942 02ac 1305F005 		li	a0,95
  65:renderPlants.c ****     LCD_ShowNum(95, 30+(i*3), allPlants[i].tempHistory[3], 3, WHITE);
 943              		.loc 1 65 55 discriminator 3
 944 02b0 6206     		slli	a2,a2,24
  65:renderPlants.c ****     LCD_ShowNum(95, 30+(i*3), allPlants[i].tempHistory[3], 3, WHITE);
 945              		.loc 1 65 5 discriminator 3
 946 02b2 5D8E     		or	a2,a2,a5
 947 02b4 97000000 		call	LCD_ShowNum
 947      E7800000 
 948              	.LVL53:
  66:renderPlants.c ****     LCD_ShowNum(120, 10+i*1, allPlants[i].sunHistory[4], 3, WHITE);
 949              		.loc 1 66 5 is_stmt 1 discriminator 3
  66:renderPlants.c ****     LCD_ShowNum(120, 10+i*1, allPlants[i].sunHistory[4], 3, WHITE);
 950              		.loc 1 66 53 is_stmt 0 discriminator 3
 951 02bc 034654EE 		lbu	a2,-283(s0)
 952 02c0 834744EE 		lbu	a5,-284(s0)
  66:renderPlants.c ****     LCD_ShowNum(120, 10+i*1, allPlants[i].sunHistory[4], 3, WHITE);
 953              		.loc 1 66 5 discriminator 3
 954 02c4 CA85     		mv	a1,s2
GAS LISTING /var/folders/rt/4gvqv631095f64jvm7jfj_000000gn/T//ccirfROm.s 			page 23


  66:renderPlants.c ****     LCD_ShowNum(120, 10+i*1, allPlants[i].sunHistory[4], 3, WHITE);
 955              		.loc 1 66 53 discriminator 3
 956 02c6 2206     		slli	a2,a2,8
 957 02c8 5D8E     		or	a2,a2,a5
 958 02ca 834764EE 		lbu	a5,-282(s0)
  66:renderPlants.c ****     LCD_ShowNum(120, 10+i*1, allPlants[i].sunHistory[4], 3, WHITE);
 959              		.loc 1 66 5 discriminator 3
 960 02ce 2687     		mv	a4,s1
 961 02d0 8D46     		li	a3,3
  66:renderPlants.c ****     LCD_ShowNum(120, 10+i*1, allPlants[i].sunHistory[4], 3, WHITE);
 962              		.loc 1 66 53 discriminator 3
 963 02d2 C207     		slli	a5,a5,16
 964 02d4 D18F     		or	a5,a5,a2
 965 02d6 034674EE 		lbu	a2,-281(s0)
  66:renderPlants.c ****     LCD_ShowNum(120, 10+i*1, allPlants[i].sunHistory[4], 3, WHITE);
 966              		.loc 1 66 5 discriminator 3
 967 02da 13058007 		li	a0,120
  66:renderPlants.c ****     LCD_ShowNum(120, 10+i*1, allPlants[i].sunHistory[4], 3, WHITE);
 968              		.loc 1 66 53 discriminator 3
 969 02de 6206     		slli	a2,a2,24
  66:renderPlants.c ****     LCD_ShowNum(120, 10+i*1, allPlants[i].sunHistory[4], 3, WHITE);
 970              		.loc 1 66 5 discriminator 3
 971 02e0 5D8E     		or	a2,a2,a5
 972 02e2 97000000 		call	LCD_ShowNum
 972      E7800000 
 973              	.LVL54:
  67:renderPlants.c ****     LCD_ShowNum(120, 20+(i*2), allPlants[i].moistHistory[4], 3, WHITE);
 974              		.loc 1 67 5 is_stmt 1 discriminator 3
  67:renderPlants.c ****     LCD_ShowNum(120, 20+(i*2), allPlants[i].moistHistory[4], 3, WHITE);
 975              		.loc 1 67 57 is_stmt 0 discriminator 3
 976 02ea 0346D4E6 		lbu	a2,-403(s0)
 977 02ee 8347C4E6 		lbu	a5,-404(s0)
  67:renderPlants.c ****     LCD_ShowNum(120, 20+(i*2), allPlants[i].moistHistory[4], 3, WHITE);
 978              		.loc 1 67 5 discriminator 3
 979 02f2 2687     		mv	a4,s1
  67:renderPlants.c ****     LCD_ShowNum(120, 20+(i*2), allPlants[i].moistHistory[4], 3, WHITE);
 980              		.loc 1 67 57 discriminator 3
 981 02f4 2206     		slli	a2,a2,8
 982 02f6 5D8E     		or	a2,a2,a5
 983 02f8 8347E4E6 		lbu	a5,-402(s0)
  67:renderPlants.c ****     LCD_ShowNum(120, 20+(i*2), allPlants[i].moistHistory[4], 3, WHITE);
 984              		.loc 1 67 5 discriminator 3
 985 02fc 8D46     		li	a3,3
 986 02fe D285     		mv	a1,s4
  67:renderPlants.c ****     LCD_ShowNum(120, 20+(i*2), allPlants[i].moistHistory[4], 3, WHITE);
 987              		.loc 1 67 57 discriminator 3
 988 0300 C207     		slli	a5,a5,16
 989 0302 D18F     		or	a5,a5,a2
 990 0304 0346F4E6 		lbu	a2,-401(s0)
  67:renderPlants.c ****     LCD_ShowNum(120, 20+(i*2), allPlants[i].moistHistory[4], 3, WHITE);
 991              		.loc 1 67 5 discriminator 3
 992 0308 13058007 		li	a0,120
  67:renderPlants.c ****     LCD_ShowNum(120, 20+(i*2), allPlants[i].moistHistory[4], 3, WHITE);
 993              		.loc 1 67 57 discriminator 3
 994 030c 6206     		slli	a2,a2,24
  67:renderPlants.c ****     LCD_ShowNum(120, 20+(i*2), allPlants[i].moistHistory[4], 3, WHITE);
 995              		.loc 1 67 5 discriminator 3
GAS LISTING /var/folders/rt/4gvqv631095f64jvm7jfj_000000gn/T//ccirfROm.s 			page 24


 996 030e 5D8E     		or	a2,a2,a5
 997 0310 97000000 		call	LCD_ShowNum
 997      E7800000 
 998              	.LVL55:
  68:renderPlants.c ****     LCD_ShowNum(120, 30+(i*3), allPlants[i].tempHistory[4], 3, WHITE);
 999              		.loc 1 68 5 is_stmt 1 discriminator 3
  68:renderPlants.c ****     LCD_ShowNum(120, 30+(i*3), allPlants[i].tempHistory[4], 3, WHITE);
 1000              		.loc 1 68 56 is_stmt 0 discriminator 3
 1001 0318 0346D4F5 		lbu	a2,-163(s0)
 1002 031c 8347C4F5 		lbu	a5,-164(s0)
  68:renderPlants.c ****     LCD_ShowNum(120, 30+(i*3), allPlants[i].tempHistory[4], 3, WHITE);
 1003              		.loc 1 68 5 discriminator 3
 1004 0320 2687     		mv	a4,s1
  68:renderPlants.c ****     LCD_ShowNum(120, 30+(i*3), allPlants[i].tempHistory[4], 3, WHITE);
 1005              		.loc 1 68 56 discriminator 3
 1006 0322 2206     		slli	a2,a2,8
 1007 0324 5D8E     		or	a2,a2,a5
 1008 0326 8347E4F5 		lbu	a5,-162(s0)
  68:renderPlants.c ****     LCD_ShowNum(120, 30+(i*3), allPlants[i].tempHistory[4], 3, WHITE);
 1009              		.loc 1 68 5 discriminator 3
 1010 032a 8D46     		li	a3,3
 1011 032c CE85     		mv	a1,s3
  68:renderPlants.c ****     LCD_ShowNum(120, 30+(i*3), allPlants[i].tempHistory[4], 3, WHITE);
 1012              		.loc 1 68 56 discriminator 3
 1013 032e C207     		slli	a5,a5,16
 1014 0330 D18F     		or	a5,a5,a2
 1015 0332 0346F4F5 		lbu	a2,-161(s0)
  68:renderPlants.c ****     LCD_ShowNum(120, 30+(i*3), allPlants[i].tempHistory[4], 3, WHITE);
 1016              		.loc 1 68 5 discriminator 3
 1017 0336 13058007 		li	a0,120
  68:renderPlants.c ****     LCD_ShowNum(120, 30+(i*3), allPlants[i].tempHistory[4], 3, WHITE);
 1018              		.loc 1 68 56 discriminator 3
 1019 033a 6206     		slli	a2,a2,24
  68:renderPlants.c ****     LCD_ShowNum(120, 30+(i*3), allPlants[i].tempHistory[4], 3, WHITE);
 1020              		.loc 1 68 5 discriminator 3
 1021 033c 5D8E     		or	a2,a2,a5
 1022 033e 97000000 		call	LCD_ShowNum
 1022      E7800000 
 1023              	.LVL56:
  69:renderPlants.c ****     LCD_ShowNum(145, 10+i*1, allPlants[i].sunHistory[5], 3, WHITE);
 1024              		.loc 1 69 5 is_stmt 1 discriminator 3
  69:renderPlants.c ****     LCD_ShowNum(145, 10+i*1, allPlants[i].sunHistory[5], 3, WHITE);
 1025              		.loc 1 69 53 is_stmt 0 discriminator 3
 1026 0346 034694EE 		lbu	a2,-279(s0)
 1027 034a 834784EE 		lbu	a5,-280(s0)
  69:renderPlants.c ****     LCD_ShowNum(145, 10+i*1, allPlants[i].sunHistory[5], 3, WHITE);
 1028              		.loc 1 69 5 discriminator 3
 1029 034e CA85     		mv	a1,s2
  69:renderPlants.c ****     LCD_ShowNum(145, 10+i*1, allPlants[i].sunHistory[5], 3, WHITE);
 1030              		.loc 1 69 53 discriminator 3
 1031 0350 2206     		slli	a2,a2,8
 1032 0352 5D8E     		or	a2,a2,a5
 1033 0354 8347A4EE 		lbu	a5,-278(s0)
  69:renderPlants.c ****     LCD_ShowNum(145, 10+i*1, allPlants[i].sunHistory[5], 3, WHITE);
 1034              		.loc 1 69 5 discriminator 3
 1035 0358 2687     		mv	a4,s1
 1036 035a 8D46     		li	a3,3
GAS LISTING /var/folders/rt/4gvqv631095f64jvm7jfj_000000gn/T//ccirfROm.s 			page 25


  69:renderPlants.c ****     LCD_ShowNum(145, 10+i*1, allPlants[i].sunHistory[5], 3, WHITE);
 1037              		.loc 1 69 53 discriminator 3
 1038 035c C207     		slli	a5,a5,16
 1039 035e D18F     		or	a5,a5,a2
 1040 0360 0346B4EE 		lbu	a2,-277(s0)
  69:renderPlants.c ****     LCD_ShowNum(145, 10+i*1, allPlants[i].sunHistory[5], 3, WHITE);
 1041              		.loc 1 69 5 discriminator 3
 1042 0364 13051009 		li	a0,145
 1043 0368 0509     		addi	s2,s2,1
 1044              	.LVL57:
  69:renderPlants.c ****     LCD_ShowNum(145, 10+i*1, allPlants[i].sunHistory[5], 3, WHITE);
 1045              		.loc 1 69 53 discriminator 3
 1046 036a 6206     		slli	a2,a2,24
  69:renderPlants.c ****     LCD_ShowNum(145, 10+i*1, allPlants[i].sunHistory[5], 3, WHITE);
 1047              		.loc 1 69 5 discriminator 3
 1048 036c 5D8E     		or	a2,a2,a5
 1049 036e 97000000 		call	LCD_ShowNum
 1049      E7800000 
 1050              	.LVL58:
  70:renderPlants.c ****     LCD_ShowNum(145, 20+(i*2), allPlants[i].moistHistory[5], 3, WHITE);
 1051              		.loc 1 70 5 is_stmt 1 discriminator 3
  70:renderPlants.c ****     LCD_ShowNum(145, 20+(i*2), allPlants[i].moistHistory[5], 3, WHITE);
 1052              		.loc 1 70 57 is_stmt 0 discriminator 3
 1053 0376 034614E7 		lbu	a2,-399(s0)
 1054 037a 834704E7 		lbu	a5,-400(s0)
  70:renderPlants.c ****     LCD_ShowNum(145, 20+(i*2), allPlants[i].moistHistory[5], 3, WHITE);
 1055              		.loc 1 70 5 discriminator 3
 1056 037e 2687     		mv	a4,s1
  70:renderPlants.c ****     LCD_ShowNum(145, 20+(i*2), allPlants[i].moistHistory[5], 3, WHITE);
 1057              		.loc 1 70 57 discriminator 3
 1058 0380 2206     		slli	a2,a2,8
 1059 0382 5D8E     		or	a2,a2,a5
 1060 0384 834724E7 		lbu	a5,-398(s0)
  70:renderPlants.c ****     LCD_ShowNum(145, 20+(i*2), allPlants[i].moistHistory[5], 3, WHITE);
 1061              		.loc 1 70 5 discriminator 3
 1062 0388 8D46     		li	a3,3
 1063 038a D285     		mv	a1,s4
  70:renderPlants.c ****     LCD_ShowNum(145, 20+(i*2), allPlants[i].moistHistory[5], 3, WHITE);
 1064              		.loc 1 70 57 discriminator 3
 1065 038c C207     		slli	a5,a5,16
 1066 038e D18F     		or	a5,a5,a2
 1067 0390 034634E7 		lbu	a2,-397(s0)
  70:renderPlants.c ****     LCD_ShowNum(145, 20+(i*2), allPlants[i].moistHistory[5], 3, WHITE);
 1068              		.loc 1 70 5 discriminator 3
 1069 0394 13051009 		li	a0,145
  70:renderPlants.c ****     LCD_ShowNum(145, 20+(i*2), allPlants[i].moistHistory[5], 3, WHITE);
 1070              		.loc 1 70 57 discriminator 3
 1071 0398 6206     		slli	a2,a2,24
  70:renderPlants.c ****     LCD_ShowNum(145, 20+(i*2), allPlants[i].moistHistory[5], 3, WHITE);
 1072              		.loc 1 70 5 discriminator 3
 1073 039a 5D8E     		or	a2,a2,a5
 1074 039c 97000000 		call	LCD_ShowNum
 1074      E7800000 
 1075              	.LVL59:
  71:renderPlants.c ****     LCD_ShowNum(145, 30+(i*3), allPlants[i].tempHistory[5], 3, WHITE);
 1076              		.loc 1 71 5 is_stmt 1 discriminator 3
  71:renderPlants.c ****     LCD_ShowNum(145, 30+(i*3), allPlants[i].tempHistory[5], 3, WHITE);
GAS LISTING /var/folders/rt/4gvqv631095f64jvm7jfj_000000gn/T//ccirfROm.s 			page 26


 1077              		.loc 1 71 56 is_stmt 0 discriminator 3
 1078 03a4 034614F6 		lbu	a2,-159(s0)
 1079 03a8 834704F6 		lbu	a5,-160(s0)
  71:renderPlants.c ****     LCD_ShowNum(145, 30+(i*3), allPlants[i].tempHistory[5], 3, WHITE);
 1080              		.loc 1 71 5 discriminator 3
 1081 03ac 2687     		mv	a4,s1
  71:renderPlants.c ****     LCD_ShowNum(145, 30+(i*3), allPlants[i].tempHistory[5], 3, WHITE);
 1082              		.loc 1 71 56 discriminator 3
 1083 03ae 2206     		slli	a2,a2,8
 1084 03b0 5D8E     		or	a2,a2,a5
 1085 03b2 834724F6 		lbu	a5,-158(s0)
  71:renderPlants.c ****     LCD_ShowNum(145, 30+(i*3), allPlants[i].tempHistory[5], 3, WHITE);
 1086              		.loc 1 71 5 discriminator 3
 1087 03b6 8D46     		li	a3,3
 1088 03b8 CE85     		mv	a1,s3
  71:renderPlants.c ****     LCD_ShowNum(145, 30+(i*3), allPlants[i].tempHistory[5], 3, WHITE);
 1089              		.loc 1 71 56 discriminator 3
 1090 03ba C207     		slli	a5,a5,16
 1091 03bc D18F     		or	a5,a5,a2
 1092 03be 034634F6 		lbu	a2,-157(s0)
  71:renderPlants.c ****     LCD_ShowNum(145, 30+(i*3), allPlants[i].tempHistory[5], 3, WHITE);
 1093              		.loc 1 71 5 discriminator 3
 1094 03c2 13051009 		li	a0,145
  71:renderPlants.c ****     LCD_ShowNum(145, 30+(i*3), allPlants[i].tempHistory[5], 3, WHITE);
 1095              		.loc 1 71 56 discriminator 3
 1096 03c6 6206     		slli	a2,a2,24
  71:renderPlants.c ****     LCD_ShowNum(145, 30+(i*3), allPlants[i].tempHistory[5], 3, WHITE);
 1097              		.loc 1 71 5 discriminator 3
 1098 03c8 5D8E     		or	a2,a2,a5
 1099 03ca 97000000 		call	LCD_ShowNum
 1099      E7800000 
 1100              	.LVL60:
 1101 03d2 B9B9     		j	.L13
 1102              	.LBE14:
 1103              		.cfi_endproc
 1104              	.LFE5:
 1106              		.section	.rodata.renderAllHistory.str1.4,"aMS",@progbits,1
 1107              		.align	2
 1108              	.LC2:
 1109 0000 53554E3A 		.string	"SUN:"
 1109      00
 1110 0005 000000   		.zero	3
 1111              	.LC3:
 1112 0008 4D4F4953 		.string	"MOIST:"
 1112      543A00
 1113 000f 00       		.zero	1
 1114              	.LC4:
 1115 0010 54454D50 		.string	"TEMP:"
 1115      3A00
 1116              		.section	.rodata.renderAllPlants.str1.4,"aMS",@progbits,1
 1117              		.align	2
 1118              	.LC0:
 1119 0000 2500     		.string	"%"
 1120              		.section	.rodata.renderOnePlant.str1.4,"aMS",@progbits,1
 1121              		.align	2
 1122              	.LC1:
 1123 0000 4E4F2053 		.string	"NO SUCH PLANT"
GAS LISTING /var/folders/rt/4gvqv631095f64jvm7jfj_000000gn/T//ccirfROm.s 			page 27


 1123      55434820 
 1123      504C414E 
 1123      5400
 1124              		.text
 1125              	.Letext0:
 1126              		.file 2 "/Users/alexstrae/toolchain-gd32v-v202-osx/compiler/lib/gcc/riscv64-unknown-elf/8.3.0/incl
 1127              		.file 3 "/Users/alexstrae/toolchain-gd32v-v202-osx/compiler/riscv64-unknown-elf/include/machine/_d
 1128              		.file 4 "/Users/alexstrae/toolchain-gd32v-v202-osx/compiler/riscv64-unknown-elf/include/sys/_types
 1129              		.file 5 "/Users/alexstrae/toolchain-gd32v-v202-osx/compiler/riscv64-unknown-elf/include/sys/reent.
 1130              		.file 6 "/Users/alexstrae/toolchain-gd32v-v202-osx/compiler/riscv64-unknown-elf/include/sys/lock.h
 1131              		.file 7 "/Users/alexstrae/toolchain-gd32v-v202-osx/compiler/riscv64-unknown-elf/include/stdlib.h"
 1132              		.file 8 "/Users/alexstrae/toolchain-gd32v-v202-osx/compiler/riscv64-unknown-elf/include/sys/_stdin
 1133              		.file 9 "../../firmware/GD32VF103_standard_peripheral/system_gd32vf103.h"
 1134              		.file 10 "lib/lcd/include/lcd.h"
 1135              		.file 11 "plant.h"
 1136              		.file 12 "utilities.h"
 1137              		.file 13 "/Users/alexstrae/toolchain-gd32v-v202-osx/compiler/riscv64-unknown-elf/include/string.h"
GAS LISTING /var/folders/rt/4gvqv631095f64jvm7jfj_000000gn/T//ccirfROm.s 			page 28

