GAS LISTING /var/folders/rt/4gvqv631095f64jvm7jfj_000000gn/T//cc9F3rxm.s 			page 1


   1              		.file	"renderPlants.c"
   2              		.option nopic
   3              		.attribute arch, "rv32i2p0_m2p0_a2p0_c2p0"
   4              		.attribute unaligned_access, 0
   5              		.attribute stack_align, 16
   6              		.text
   7              	.Ltext0:
   8              		.cfi_sections	.debug_frame
   9              		.section	.text.renderAllPlants,"ax",@progbits
  10              		.align	1
  11              		.globl	renderAllPlants
  13              	renderAllPlants:
  14              	.LFB3:
  15              		.file 1 "renderPlants.c"
   1:renderPlants.c **** // render methods av Alex. Blir eventuellt obsolete av Davids mer avancerade meny-renderare.
   2:renderPlants.c **** #include "lcd.h"
   3:renderPlants.c **** #include "plant.h"
   4:renderPlants.c **** #include <string.h>
   5:renderPlants.c **** #include "utilities.h"
   6:renderPlants.c **** #include "renderPlants.h"
   7:renderPlants.c **** 
   8:renderPlants.c **** void renderAllPlants(Plant allPlants[], int numberOfPlants)
   9:renderPlants.c **** {
  16              		.loc 1 9 1
  17              		.cfi_startproc
  18              	.LVL0:
  10:renderPlants.c ****   for (int i = 0; i < numberOfPlants; i++)
  19              		.loc 1 10 3
  20              	.LBB2:
  21              		.loc 1 10 8
  22              	.LBE2:
   9:renderPlants.c ****   for (int i = 0; i < numberOfPlants; i++)
  23              		.loc 1 9 1 is_stmt 0
  24 0000 7971     		addi	sp,sp,-48
  25              	.LCFI0:
  26              		.cfi_def_cfa_offset 48
  27 0002 26D2     		sw	s1,36(sp)
  28              		.cfi_offset 9, -12
  29              	.LBB3:
  11:renderPlants.c ****   {
  12:renderPlants.c ****     LCD_ShowStr(i * 55, 0, allPlants[i].name, WHITE, TRANSPARENT);
  30              		.loc 1 12 5
  31 0004 C164     		li	s1,65536
  32              	.LBE3:
   9:renderPlants.c ****   for (int i = 0; i < numberOfPlants; i++)
  33              		.loc 1 9 1
  34 0006 22D4     		sw	s0,40(sp)
  35 0008 4ECE     		sw	s3,28(sp)
  36 000a 52CC     		sw	s4,24(sp)
  37 000c 56CA     		sw	s5,20(sp)
  38 000e 5AC8     		sw	s6,16(sp)
  39 0010 06D6     		sw	ra,44(sp)
  40 0012 4AD0     		sw	s2,32(sp)
  41 0014 5EC6     		sw	s7,12(sp)
  42              		.cfi_offset 8, -8
  43              		.cfi_offset 19, -20
  44              		.cfi_offset 20, -24
GAS LISTING /var/folders/rt/4gvqv631095f64jvm7jfj_000000gn/T//cc9F3rxm.s 			page 2


  45              		.cfi_offset 21, -28
  46              		.cfi_offset 22, -32
  47              		.cfi_offset 1, -4
  48              		.cfi_offset 18, -16
  49              		.cfi_offset 23, -36
   9:renderPlants.c ****   for (int i = 0; i < numberOfPlants; i++)
  50              		.loc 1 9 1
  51 0016 AE8A     		mv	s5,a1
  52 0018 2A84     		mv	s0,a0
  53              	.LBB4:
  10:renderPlants.c ****   {
  54              		.loc 1 10 12
  55 001a 014A     		li	s4,0
  56 001c 130B7003 		li	s6,55
  57              		.loc 1 12 5
  58 0020 FD14     		addi	s1,s1,-1
  13:renderPlants.c ****     LCD_ShowNum(i * 55, 20, allPlants[i].moisture[allPlants[i].numberOfMoistureReadings - 1].readin
  14:renderPlants.c ****     LCD_ShowStr(i * 55 + 30, 20, "%", WHITE, TRANSPARENT);
  59              		.loc 1 14 5
  60 0022 B7090000 		lui	s3,%hi(.LC0)
  61              	.LVL1:
  62              	.L2:
  10:renderPlants.c ****   {
  63              		.loc 1 10 3 discriminator 1
  64 0026 634D5A01 		blt	s4,s5,.L3
  65              	.LBE4:
  15:renderPlants.c ****     LCD_ShowNum(i * 55, 40, allPlants[i].sun[allPlants[i].numberOfSunReadings - 1].reading, 3, WHIT
  16:renderPlants.c ****     LCD_ShowStr(i * 55 + 30, 40, "%", WHITE, TRANSPARENT);
  17:renderPlants.c ****     LCD_ShowStr(i * 55, 60, allPlants[i].currentStatus, GBLUE, TRANSPARENT);
  18:renderPlants.c ****   }
  19:renderPlants.c **** }
  66              		.loc 1 19 1
  67 002a B250     		lw	ra,44(sp)
  68              		.cfi_remember_state
  69              		.cfi_restore 1
  70 002c 2254     		lw	s0,40(sp)
  71              		.cfi_restore 8
  72 002e 9254     		lw	s1,36(sp)
  73              		.cfi_restore 9
  74 0030 0259     		lw	s2,32(sp)
  75              		.cfi_restore 18
  76 0032 F249     		lw	s3,28(sp)
  77              		.cfi_restore 19
  78 0034 624A     		lw	s4,24(sp)
  79              		.cfi_restore 20
  80              	.LVL2:
  81 0036 D24A     		lw	s5,20(sp)
  82              		.cfi_restore 21
  83              	.LVL3:
  84 0038 424B     		lw	s6,16(sp)
  85              		.cfi_restore 22
  86 003a B24B     		lw	s7,12(sp)
  87              		.cfi_restore 23
  88 003c 4561     		addi	sp,sp,48
  89              	.LCFI1:
  90              		.cfi_def_cfa_offset 0
  91 003e 8280     		jr	ra
GAS LISTING /var/folders/rt/4gvqv631095f64jvm7jfj_000000gn/T//cc9F3rxm.s 			page 3


  92              	.LVL4:
  93              	.L3:
  94              	.LCFI2:
  95              		.cfi_restore_state
  96              	.LBB5:
  12:renderPlants.c ****     LCD_ShowNum(i * 55, 20, allPlants[i].moisture[allPlants[i].numberOfMoistureReadings - 1].readin
  97              		.loc 1 12 5 is_stmt 1 discriminator 3
  98 0040 33096A03 		mul	s2,s4,s6
  99 0044 2286     		mv	a2,s0
 100 0046 0547     		li	a4,1
 101 0048 A686     		mv	a3,s1
 102 004a 8145     		li	a1,0
  10:renderPlants.c ****   {
 103              		.loc 1 10 40 is_stmt 0 discriminator 3
 104 004c 050A     		addi	s4,s4,1
 105              	.LVL5:
  12:renderPlants.c ****     LCD_ShowNum(i * 55, 20, allPlants[i].moisture[allPlants[i].numberOfMoistureReadings - 1].readin
 106              		.loc 1 12 5 discriminator 3
 107 004e 4A85     		mv	a0,s2
 108 0050 97000000 		call	LCD_ShowStr
 108      E7800000 
 109              	.LVL6:
  13:renderPlants.c ****     LCD_ShowStr(i * 55 + 30, 20, "%", WHITE, TRANSPARENT);
 110              		.loc 1 13 5 is_stmt 1 discriminator 3
  13:renderPlants.c ****     LCD_ShowStr(i * 55 + 30, 20, "%", WHITE, TRANSPARENT);
 111              		.loc 1 13 63 is_stmt 0 discriminator 3
 112 0058 0347F431 		lbu	a4,799(s0)
 113 005c 8347E431 		lbu	a5,798(s0)
  13:renderPlants.c ****     LCD_ShowStr(i * 55 + 30, 20, "%", WHITE, TRANSPARENT);
 114              		.loc 1 13 5 discriminator 3
 115 0060 8D46     		li	a3,3
  13:renderPlants.c ****     LCD_ShowStr(i * 55 + 30, 20, "%", WHITE, TRANSPARENT);
 116              		.loc 1 13 63 discriminator 3
 117 0062 2207     		slli	a4,a4,8
 118 0064 5D8F     		or	a4,a4,a5
 119 0066 83470432 		lbu	a5,800(s0)
  13:renderPlants.c ****     LCD_ShowStr(i * 55 + 30, 20, "%", WHITE, TRANSPARENT);
 120              		.loc 1 13 5 discriminator 3
 121 006a 4A85     		mv	a0,s2
 122 006c 930BE901 		addi	s7,s2,30
  13:renderPlants.c ****     LCD_ShowStr(i * 55 + 30, 20, "%", WHITE, TRANSPARENT);
 123              		.loc 1 13 63 discriminator 3
 124 0070 C207     		slli	a5,a5,16
 125 0072 5D8F     		or	a4,a5,a4
 126 0074 83471432 		lbu	a5,801(s0)
 127 0078 E207     		slli	a5,a5,24
 128 007a D98F     		or	a5,a5,a4
  13:renderPlants.c ****     LCD_ShowStr(i * 55 + 30, 20, "%", WHITE, TRANSPARENT);
 129              		.loc 1 13 93 discriminator 3
 130 007c 8507     		addi	a5,a5,1
 131 007e 8E07     		slli	a5,a5,3
 132 0080 A297     		add	a5,s0,a5
 133 0082 03C63701 		lbu	a2,19(a5)
 134 0086 83C52701 		lbu	a1,18(a5)
  13:renderPlants.c ****     LCD_ShowStr(i * 55 + 30, 20, "%", WHITE, TRANSPARENT);
 135              		.loc 1 13 5 discriminator 3
 136 008a 2687     		mv	a4,s1
GAS LISTING /var/folders/rt/4gvqv631095f64jvm7jfj_000000gn/T//cc9F3rxm.s 			page 4


  13:renderPlants.c ****     LCD_ShowStr(i * 55 + 30, 20, "%", WHITE, TRANSPARENT);
 137              		.loc 1 13 93 discriminator 3
 138 008c 2206     		slli	a2,a2,8
 139 008e 4D8E     		or	a2,a2,a1
 140 0090 83C54701 		lbu	a1,20(a5)
 141 0094 C205     		slli	a1,a1,16
 142 0096 D18D     		or	a1,a1,a2
 143 0098 03C65701 		lbu	a2,21(a5)
 144 009c 6206     		slli	a2,a2,24
  13:renderPlants.c ****     LCD_ShowStr(i * 55 + 30, 20, "%", WHITE, TRANSPARENT);
 145              		.loc 1 13 5 discriminator 3
 146 009e 4D8E     		or	a2,a2,a1
 147 00a0 D145     		li	a1,20
 148 00a2 97000000 		call	LCD_ShowNum
 148      E7800000 
 149              	.LVL7:
  14:renderPlants.c ****     LCD_ShowNum(i * 55, 40, allPlants[i].sun[allPlants[i].numberOfSunReadings - 1].reading, 3, WHIT
 150              		.loc 1 14 5 is_stmt 1 discriminator 3
 151 00aa 0547     		li	a4,1
 152 00ac A686     		mv	a3,s1
 153 00ae 13860900 		addi	a2,s3,%lo(.LC0)
 154 00b2 D145     		li	a1,20
 155 00b4 5E85     		mv	a0,s7
 156 00b6 97000000 		call	LCD_ShowStr
 156      E7800000 
 157              	.LVL8:
  15:renderPlants.c ****     LCD_ShowStr(i * 55 + 30, 40, "%", WHITE, TRANSPARENT);
 158              		.loc 1 15 5 discriminator 3
  15:renderPlants.c ****     LCD_ShowStr(i * 55 + 30, 40, "%", WHITE, TRANSPARENT);
 159              		.loc 1 15 58 is_stmt 0 discriminator 3
 160 00be 03473432 		lbu	a4,803(s0)
 161 00c2 83472432 		lbu	a5,802(s0)
  15:renderPlants.c ****     LCD_ShowStr(i * 55 + 30, 40, "%", WHITE, TRANSPARENT);
 162              		.loc 1 15 5 discriminator 3
 163 00c6 8D46     		li	a3,3
  15:renderPlants.c ****     LCD_ShowStr(i * 55 + 30, 40, "%", WHITE, TRANSPARENT);
 164              		.loc 1 15 58 discriminator 3
 165 00c8 2207     		slli	a4,a4,8
 166 00ca 5D8F     		or	a4,a4,a5
 167 00cc 83474432 		lbu	a5,804(s0)
  15:renderPlants.c ****     LCD_ShowStr(i * 55 + 30, 40, "%", WHITE, TRANSPARENT);
 168              		.loc 1 15 5 discriminator 3
 169 00d0 4A85     		mv	a0,s2
  15:renderPlants.c ****     LCD_ShowStr(i * 55 + 30, 40, "%", WHITE, TRANSPARENT);
 170              		.loc 1 15 58 discriminator 3
 171 00d2 C207     		slli	a5,a5,16
 172 00d4 5D8F     		or	a4,a5,a4
 173 00d6 83475432 		lbu	a5,805(s0)
 174 00da E207     		slli	a5,a5,24
 175 00dc D98F     		or	a5,a5,a4
  15:renderPlants.c ****     LCD_ShowStr(i * 55 + 30, 40, "%", WHITE, TRANSPARENT);
 176              		.loc 1 15 83 discriminator 3
 177 00de E507     		addi	a5,a5,25
 178 00e0 8E07     		slli	a5,a5,3
 179 00e2 A297     		add	a5,s0,a5
 180 00e4 03C63701 		lbu	a2,19(a5)
 181 00e8 83C52701 		lbu	a1,18(a5)
GAS LISTING /var/folders/rt/4gvqv631095f64jvm7jfj_000000gn/T//cc9F3rxm.s 			page 5


  15:renderPlants.c ****     LCD_ShowStr(i * 55 + 30, 40, "%", WHITE, TRANSPARENT);
 182              		.loc 1 15 5 discriminator 3
 183 00ec 2687     		mv	a4,s1
  15:renderPlants.c ****     LCD_ShowStr(i * 55 + 30, 40, "%", WHITE, TRANSPARENT);
 184              		.loc 1 15 83 discriminator 3
 185 00ee 2206     		slli	a2,a2,8
 186 00f0 4D8E     		or	a2,a2,a1
 187 00f2 83C54701 		lbu	a1,20(a5)
 188 00f6 C205     		slli	a1,a1,16
 189 00f8 D18D     		or	a1,a1,a2
 190 00fa 03C65701 		lbu	a2,21(a5)
 191 00fe 6206     		slli	a2,a2,24
  15:renderPlants.c ****     LCD_ShowStr(i * 55 + 30, 40, "%", WHITE, TRANSPARENT);
 192              		.loc 1 15 5 discriminator 3
 193 0100 4D8E     		or	a2,a2,a1
 194 0102 93058002 		li	a1,40
 195 0106 97000000 		call	LCD_ShowNum
 195      E7800000 
 196              	.LVL9:
  16:renderPlants.c ****     LCD_ShowStr(i * 55, 60, allPlants[i].currentStatus, GBLUE, TRANSPARENT);
 197              		.loc 1 16 5 is_stmt 1 discriminator 3
 198 010e 0547     		li	a4,1
 199 0110 A686     		mv	a3,s1
 200 0112 13860900 		addi	a2,s3,%lo(.LC0)
 201 0116 93058002 		li	a1,40
 202 011a 5E85     		mv	a0,s7
 203 011c 97000000 		call	LCD_ShowStr
 203      E7800000 
 204              	.LVL10:
  17:renderPlants.c ****   }
 205              		.loc 1 17 5 discriminator 3
 206 0124 1306F400 		addi	a2,s0,15
 207 0128 0547     		li	a4,1
 208 012a 9306F07F 		li	a3,2047
 209 012e 9305C003 		li	a1,60
 210 0132 4A85     		mv	a0,s2
 211 0134 97000000 		call	LCD_ShowStr
 211      E7800000 
 212              	.LVL11:
 213 013c 1304E44C 		addi	s0,s0,1230
 214 0140 DDB5     		j	.L2
 215              	.LBE5:
 216              		.cfi_endproc
 217              	.LFE3:
 219              		.section	.text.renderOnePlant,"ax",@progbits
 220              		.align	1
 221              		.globl	renderOnePlant
 223              	renderOnePlant:
 224              	.LFB4:
  20:renderPlants.c **** 
  21:renderPlants.c **** void renderOnePlant(Plant allPlants[], int numberOfPlants, char name[])
  22:renderPlants.c **** {
 225              		.loc 1 22 1
 226              		.cfi_startproc
 227              	.LVL12:
  23:renderPlants.c ****   for (int i = 0; i < numberOfPlants; i++)
 228              		.loc 1 23 3
GAS LISTING /var/folders/rt/4gvqv631095f64jvm7jfj_000000gn/T//cc9F3rxm.s 			page 6


 229              	.LBB6:
 230              		.loc 1 23 8
 231              	.LBE6:
  22:renderPlants.c ****   for (int i = 0; i < numberOfPlants; i++)
 232              		.loc 1 22 1 is_stmt 0
 233 0000 5D71     		addi	sp,sp,-80
 234              	.LCFI3:
 235              		.cfi_def_cfa_offset 80
 236 0002 A6C2     		sw	s1,68(sp)
 237 0004 CAC0     		sw	s2,64(sp)
 238 0006 4EDE     		sw	s3,60(sp)
 239 0008 86C6     		sw	ra,76(sp)
 240 000a A2C4     		sw	s0,72(sp)
 241              		.cfi_offset 9, -12
 242              		.cfi_offset 18, -16
 243              		.cfi_offset 19, -20
 244              		.cfi_offset 1, -4
 245              		.cfi_offset 8, -8
  22:renderPlants.c ****   for (int i = 0; i < numberOfPlants; i++)
 246              		.loc 1 22 1
 247 000c AE89     		mv	s3,a1
 248 000e AA84     		mv	s1,a0
 249              	.LBB8:
 250              		.loc 1 23 12
 251 0010 0149     		li	s2,0
 252              	.LVL13:
 253              	.L6:
 254              		.loc 1 23 3 discriminator 1
 255 0012 634C3901 		blt	s2,s3,.L9
 256              	.LBE8:
  24:renderPlants.c ****   {
  25:renderPlants.c ****     if (strcmp(allPlants[i].name, name) == 0)
  26:renderPlants.c ****     {
  27:renderPlants.c ****       char toTimeStampMoisture[9];
  28:renderPlants.c ****       generateTimeStampFromValue(toTimeStampMoisture, allPlants[i].moisture[allPlants[i].numberOfMo
  29:renderPlants.c ****       char toTimeStampSun[9];
  30:renderPlants.c ****       generateTimeStampFromValue(toTimeStampSun, allPlants[i].sun[allPlants[i].numberOfSunReadings 
  31:renderPlants.c **** 
  32:renderPlants.c ****       LCD_ShowStr(0, 0, allPlants[i].name, WHITE, TRANSPARENT);
  33:renderPlants.c ****       LCD_ShowStr(100, 0, allPlants[i].currentStatus, GBLUE, TRANSPARENT);
  34:renderPlants.c ****       LCD_ShowNum(0, 20, allPlants[i].moisture[allPlants[i].numberOfMoistureReadings - 1].reading, 
  35:renderPlants.c ****       LCD_ShowStr(0 + 30, 20, "%", WHITE, TRANSPARENT);
  36:renderPlants.c ****       LCD_ShowStr(50, 20, toTimeStampMoisture, WHITE, TRANSPARENT);
  37:renderPlants.c ****       LCD_ShowNum(0, 40, allPlants[i].sun[allPlants[i].numberOfSunReadings - 1].reading, 3, WHITE);
  38:renderPlants.c ****       LCD_ShowStr(0 + 30, 40, "%", WHITE, TRANSPARENT);
  39:renderPlants.c ****       LCD_Fill(50, 40, 160, 53, BLACK); // Black out old reading before writing new
  40:renderPlants.c ****       LCD_ShowStr(50, 40, toTimeStampSun, WHITE, TRANSPARENT);
  41:renderPlants.c ****       return;
  42:renderPlants.c ****     }
  43:renderPlants.c ****   }
  44:renderPlants.c ****   LCD_ShowStr(50, 4, "NO SUCH PLANT", RED, TRANSPARENT);
 257              		.loc 1 44 3 is_stmt 1
 258 0016 C166     		li	a3,65536
 259 0018 37060000 		lui	a2,%hi(.LC1)
 260              	.LVL14:
 261 001c 0547     		li	a4,1
 262 001e 93860680 		addi	a3,a3,-2048
GAS LISTING /var/folders/rt/4gvqv631095f64jvm7jfj_000000gn/T//cc9F3rxm.s 			page 7


 263 0022 13060600 		addi	a2,a2,%lo(.LC1)
 264 0026 9145     		li	a1,4
 265 0028 EDA2     		j	.L11
 266              	.LVL15:
 267              	.L9:
 268              	.LBB9:
  25:renderPlants.c ****     {
 269              		.loc 1 25 5
  25:renderPlants.c ****     {
 270              		.loc 1 25 9 is_stmt 0
 271 002a B285     		mv	a1,a2
 272 002c 2685     		mv	a0,s1
 273 002e 32C6     		sw	a2,12(sp)
 274 0030 97000000 		call	strcmp
 274      E7800000 
 275              	.LVL16:
  25:renderPlants.c ****     {
 276              		.loc 1 25 25
 277 0038 2684     		mv	s0,s1
  25:renderPlants.c ****     {
 278              		.loc 1 25 8
 279 003a 3246     		lw	a2,12(sp)
 280 003c 9384E44C 		addi	s1,s1,1230
 281 0040 6316051E 		bne	a0,zero,.L7
 282              	.LVL17:
 283              	.LBB7:
  27:renderPlants.c ****       generateTimeStampFromValue(toTimeStampMoisture, allPlants[i].moisture[allPlants[i].numberOfMo
 284              		.loc 1 27 7 is_stmt 1
  28:renderPlants.c ****       char toTimeStampSun[9];
 285              		.loc 1 28 7
  28:renderPlants.c ****       char toTimeStampSun[9];
 286              		.loc 1 28 89 is_stmt 0
 287 0044 0347F431 		lbu	a4,799(s0)
 288 0048 8347E431 		lbu	a5,798(s0)
  28:renderPlants.c ****       char toTimeStampSun[9];
 289              		.loc 1 28 7
 290 004c 2808     		addi	a0,sp,24
  28:renderPlants.c ****       char toTimeStampSun[9];
 291              		.loc 1 28 89
 292 004e 2207     		slli	a4,a4,8
 293 0050 5D8F     		or	a4,a4,a5
 294 0052 83470432 		lbu	a5,800(s0)
  32:renderPlants.c ****       LCD_ShowStr(100, 0, allPlants[i].currentStatus, GBLUE, TRANSPARENT);
 295              		.loc 1 32 7
 296 0056 C164     		li	s1,65536
  35:renderPlants.c ****       LCD_ShowStr(50, 20, toTimeStampMoisture, WHITE, TRANSPARENT);
 297              		.loc 1 35 7
 298 0058 37090000 		lui	s2,%hi(.LC0)
 299              	.LVL18:
  28:renderPlants.c ****       char toTimeStampSun[9];
 300              		.loc 1 28 89
 301 005c C207     		slli	a5,a5,16
 302 005e 5D8F     		or	a4,a5,a4
 303 0060 83471432 		lbu	a5,801(s0)
 304 0064 E207     		slli	a5,a5,24
 305 0066 D98F     		or	a5,a5,a4
  28:renderPlants.c ****       char toTimeStampSun[9];
GAS LISTING /var/folders/rt/4gvqv631095f64jvm7jfj_000000gn/T//cc9F3rxm.s 			page 8


 306              		.loc 1 28 7
 307 0068 8507     		addi	a5,a5,1
 308 006a 8E07     		slli	a5,a5,3
 309 006c A297     		add	a5,s0,a5
 310 006e 83C5F700 		lbu	a1,15(a5)
 311 0072 03C7E700 		lbu	a4,14(a5)
 312 0076 A205     		slli	a1,a1,8
 313 0078 D98D     		or	a1,a1,a4
 314 007a 03C70701 		lbu	a4,16(a5)
 315 007e 4207     		slli	a4,a4,16
 316 0080 4D8F     		or	a4,a4,a1
 317 0082 83C51701 		lbu	a1,17(a5)
 318 0086 E205     		slli	a1,a1,24
 319 0088 D98D     		or	a1,a1,a4
 320 008a 97000000 		call	generateTimeStampFromValue
 320      E7800000 
 321              	.LVL19:
  29:renderPlants.c ****       generateTimeStampFromValue(toTimeStampSun, allPlants[i].sun[allPlants[i].numberOfSunReadings 
 322              		.loc 1 29 7 is_stmt 1
  30:renderPlants.c **** 
 323              		.loc 1 30 7
  30:renderPlants.c **** 
 324              		.loc 1 30 79 is_stmt 0
 325 0092 03473432 		lbu	a4,803(s0)
 326 0096 83472432 		lbu	a5,802(s0)
  30:renderPlants.c **** 
 327              		.loc 1 30 7
 328 009a 4810     		addi	a0,sp,36
  30:renderPlants.c **** 
 329              		.loc 1 30 79
 330 009c 2207     		slli	a4,a4,8
 331 009e 5D8F     		or	a4,a4,a5
 332 00a0 83474432 		lbu	a5,804(s0)
 333 00a4 C207     		slli	a5,a5,16
 334 00a6 5D8F     		or	a4,a5,a4
 335 00a8 83475432 		lbu	a5,805(s0)
 336 00ac E207     		slli	a5,a5,24
 337 00ae D98F     		or	a5,a5,a4
  30:renderPlants.c **** 
 338              		.loc 1 30 7
 339 00b0 E507     		addi	a5,a5,25
 340 00b2 8E07     		slli	a5,a5,3
 341 00b4 A297     		add	a5,s0,a5
 342 00b6 83C5F700 		lbu	a1,15(a5)
 343 00ba 03C7E700 		lbu	a4,14(a5)
 344 00be A205     		slli	a1,a1,8
 345 00c0 D98D     		or	a1,a1,a4
 346 00c2 03C70701 		lbu	a4,16(a5)
 347 00c6 4207     		slli	a4,a4,16
 348 00c8 4D8F     		or	a4,a4,a1
 349 00ca 83C51701 		lbu	a1,17(a5)
 350 00ce E205     		slli	a1,a1,24
 351 00d0 D98D     		or	a1,a1,a4
 352 00d2 97000000 		call	generateTimeStampFromValue
 352      E7800000 
 353              	.LVL20:
  32:renderPlants.c ****       LCD_ShowStr(100, 0, allPlants[i].currentStatus, GBLUE, TRANSPARENT);
GAS LISTING /var/folders/rt/4gvqv631095f64jvm7jfj_000000gn/T//cc9F3rxm.s 			page 9


 354              		.loc 1 32 7 is_stmt 1
 355 00da 2286     		mv	a2,s0
 356 00dc 0547     		li	a4,1
 357 00de 9386F4FF 		addi	a3,s1,-1
 358 00e2 8145     		li	a1,0
 359 00e4 0145     		li	a0,0
 360 00e6 97000000 		call	LCD_ShowStr
 360      E7800000 
 361              	.LVL21:
  33:renderPlants.c ****       LCD_ShowNum(0, 20, allPlants[i].moisture[allPlants[i].numberOfMoistureReadings - 1].reading, 
 362              		.loc 1 33 7
 363 00ee 1306F400 		addi	a2,s0,15
 364 00f2 0547     		li	a4,1
 365 00f4 9306F07F 		li	a3,2047
 366 00f8 8145     		li	a1,0
 367 00fa 13054006 		li	a0,100
 368 00fe 97000000 		call	LCD_ShowStr
 368      E7800000 
 369              	.LVL22:
  34:renderPlants.c ****       LCD_ShowStr(0 + 30, 20, "%", WHITE, TRANSPARENT);
 370              		.loc 1 34 7
  34:renderPlants.c ****       LCD_ShowStr(0 + 30, 20, "%", WHITE, TRANSPARENT);
 371              		.loc 1 34 60 is_stmt 0
 372 0106 0347F431 		lbu	a4,799(s0)
 373 010a 8347E431 		lbu	a5,798(s0)
  34:renderPlants.c ****       LCD_ShowStr(0 + 30, 20, "%", WHITE, TRANSPARENT);
 374              		.loc 1 34 7
 375 010e 8D46     		li	a3,3
  34:renderPlants.c ****       LCD_ShowStr(0 + 30, 20, "%", WHITE, TRANSPARENT);
 376              		.loc 1 34 60
 377 0110 2207     		slli	a4,a4,8
 378 0112 5D8F     		or	a4,a4,a5
 379 0114 83470432 		lbu	a5,800(s0)
  34:renderPlants.c ****       LCD_ShowStr(0 + 30, 20, "%", WHITE, TRANSPARENT);
 380              		.loc 1 34 7
 381 0118 0145     		li	a0,0
  34:renderPlants.c ****       LCD_ShowStr(0 + 30, 20, "%", WHITE, TRANSPARENT);
 382              		.loc 1 34 60
 383 011a C207     		slli	a5,a5,16
 384 011c 5D8F     		or	a4,a5,a4
 385 011e 83471432 		lbu	a5,801(s0)
 386 0122 E207     		slli	a5,a5,24
 387 0124 D98F     		or	a5,a5,a4
  34:renderPlants.c ****       LCD_ShowStr(0 + 30, 20, "%", WHITE, TRANSPARENT);
 388              		.loc 1 34 90
 389 0126 8507     		addi	a5,a5,1
 390 0128 8E07     		slli	a5,a5,3
 391 012a A297     		add	a5,s0,a5
 392 012c 03C63701 		lbu	a2,19(a5)
 393 0130 83C52701 		lbu	a1,18(a5)
  34:renderPlants.c ****       LCD_ShowStr(0 + 30, 20, "%", WHITE, TRANSPARENT);
 394              		.loc 1 34 7
 395 0134 1387F4FF 		addi	a4,s1,-1
  34:renderPlants.c ****       LCD_ShowStr(0 + 30, 20, "%", WHITE, TRANSPARENT);
 396              		.loc 1 34 90
 397 0138 2206     		slli	a2,a2,8
 398 013a 4D8E     		or	a2,a2,a1
GAS LISTING /var/folders/rt/4gvqv631095f64jvm7jfj_000000gn/T//cc9F3rxm.s 			page 10


 399 013c 83C54701 		lbu	a1,20(a5)
 400 0140 C205     		slli	a1,a1,16
 401 0142 D18D     		or	a1,a1,a2
 402 0144 03C65701 		lbu	a2,21(a5)
 403 0148 6206     		slli	a2,a2,24
  34:renderPlants.c ****       LCD_ShowStr(0 + 30, 20, "%", WHITE, TRANSPARENT);
 404              		.loc 1 34 7
 405 014a 4D8E     		or	a2,a2,a1
 406 014c D145     		li	a1,20
 407 014e 97000000 		call	LCD_ShowNum
 407      E7800000 
 408              	.LVL23:
  35:renderPlants.c ****       LCD_ShowStr(50, 20, toTimeStampMoisture, WHITE, TRANSPARENT);
 409              		.loc 1 35 7 is_stmt 1
 410 0156 0547     		li	a4,1
 411 0158 9386F4FF 		addi	a3,s1,-1
 412 015c 13060900 		addi	a2,s2,%lo(.LC0)
 413 0160 D145     		li	a1,20
 414 0162 7945     		li	a0,30
 415 0164 97000000 		call	LCD_ShowStr
 415      E7800000 
 416              	.LVL24:
  36:renderPlants.c ****       LCD_ShowNum(0, 40, allPlants[i].sun[allPlants[i].numberOfSunReadings - 1].reading, 3, WHITE);
 417              		.loc 1 36 7
 418 016c 0547     		li	a4,1
 419 016e 9386F4FF 		addi	a3,s1,-1
 420 0172 3008     		addi	a2,sp,24
 421 0174 D145     		li	a1,20
 422 0176 13052003 		li	a0,50
 423 017a 97000000 		call	LCD_ShowStr
 423      E7800000 
 424              	.LVL25:
  37:renderPlants.c ****       LCD_ShowStr(0 + 30, 40, "%", WHITE, TRANSPARENT);
 425              		.loc 1 37 7
  37:renderPlants.c ****       LCD_ShowStr(0 + 30, 40, "%", WHITE, TRANSPARENT);
 426              		.loc 1 37 55 is_stmt 0
 427 0182 03473432 		lbu	a4,803(s0)
 428 0186 83472432 		lbu	a5,802(s0)
  37:renderPlants.c ****       LCD_ShowStr(0 + 30, 40, "%", WHITE, TRANSPARENT);
 429              		.loc 1 37 7
 430 018a 8D46     		li	a3,3
  37:renderPlants.c ****       LCD_ShowStr(0 + 30, 40, "%", WHITE, TRANSPARENT);
 431              		.loc 1 37 55
 432 018c 2207     		slli	a4,a4,8
 433 018e 5D8F     		or	a4,a4,a5
 434 0190 83474432 		lbu	a5,804(s0)
  37:renderPlants.c ****       LCD_ShowStr(0 + 30, 40, "%", WHITE, TRANSPARENT);
 435              		.loc 1 37 7
 436 0194 93058002 		li	a1,40
 437 0198 0145     		li	a0,0
  37:renderPlants.c ****       LCD_ShowStr(0 + 30, 40, "%", WHITE, TRANSPARENT);
 438              		.loc 1 37 55
 439 019a C207     		slli	a5,a5,16
 440 019c 5D8F     		or	a4,a5,a4
 441 019e 83475432 		lbu	a5,805(s0)
 442 01a2 E207     		slli	a5,a5,24
 443 01a4 D98F     		or	a5,a5,a4
GAS LISTING /var/folders/rt/4gvqv631095f64jvm7jfj_000000gn/T//cc9F3rxm.s 			page 11


  37:renderPlants.c ****       LCD_ShowStr(0 + 30, 40, "%", WHITE, TRANSPARENT);
 444              		.loc 1 37 80
 445 01a6 E507     		addi	a5,a5,25
 446 01a8 8E07     		slli	a5,a5,3
 447 01aa 3E94     		add	s0,s0,a5
 448 01ac 03463401 		lbu	a2,19(s0)
 449 01b0 83472401 		lbu	a5,18(s0)
  37:renderPlants.c ****       LCD_ShowStr(0 + 30, 40, "%", WHITE, TRANSPARENT);
 450              		.loc 1 37 7
 451 01b4 1387F4FF 		addi	a4,s1,-1
  37:renderPlants.c ****       LCD_ShowStr(0 + 30, 40, "%", WHITE, TRANSPARENT);
 452              		.loc 1 37 80
 453 01b8 2206     		slli	a2,a2,8
 454 01ba 5D8E     		or	a2,a2,a5
 455 01bc 83474401 		lbu	a5,20(s0)
 456 01c0 C207     		slli	a5,a5,16
 457 01c2 D18F     		or	a5,a5,a2
 458 01c4 03465401 		lbu	a2,21(s0)
 459 01c8 6206     		slli	a2,a2,24
  37:renderPlants.c ****       LCD_ShowStr(0 + 30, 40, "%", WHITE, TRANSPARENT);
 460              		.loc 1 37 7
 461 01ca 5D8E     		or	a2,a2,a5
 462 01cc 97000000 		call	LCD_ShowNum
 462      E7800000 
 463              	.LVL26:
  38:renderPlants.c ****       LCD_Fill(50, 40, 160, 53, BLACK); // Black out old reading before writing new
 464              		.loc 1 38 7 is_stmt 1
 465 01d4 0547     		li	a4,1
 466 01d6 9386F4FF 		addi	a3,s1,-1
 467 01da 13060900 		addi	a2,s2,%lo(.LC0)
 468 01de 93058002 		li	a1,40
 469 01e2 7945     		li	a0,30
 470 01e4 97000000 		call	LCD_ShowStr
 470      E7800000 
 471              	.LVL27:
  39:renderPlants.c ****       LCD_ShowStr(50, 40, toTimeStampSun, WHITE, TRANSPARENT);
 472              		.loc 1 39 7
 473 01ec 0147     		li	a4,0
 474 01ee 93065003 		li	a3,53
 475 01f2 1306000A 		li	a2,160
 476 01f6 93058002 		li	a1,40
 477 01fa 13052003 		li	a0,50
 478 01fe 97000000 		call	LCD_Fill
 478      E7800000 
 479              	.LVL28:
  40:renderPlants.c ****       return;
 480              		.loc 1 40 7
 481 0206 0547     		li	a4,1
 482 0208 9386F4FF 		addi	a3,s1,-1
 483 020c 5010     		addi	a2,sp,36
 484 020e 93058002 		li	a1,40
 485              	.LVL29:
 486              	.L11:
 487              	.LBE7:
 488              	.LBE9:
 489              		.loc 1 44 3 is_stmt 0
 490 0212 13052003 		li	a0,50
GAS LISTING /var/folders/rt/4gvqv631095f64jvm7jfj_000000gn/T//cc9F3rxm.s 			page 12


 491 0216 97000000 		call	LCD_ShowStr
 491      E7800000 
 492              	.LVL30:
  45:renderPlants.c **** }
 493              		.loc 1 45 1
 494 021e B640     		lw	ra,76(sp)
 495              		.cfi_remember_state
 496              		.cfi_restore 1
 497 0220 2644     		lw	s0,72(sp)
 498              		.cfi_restore 8
 499 0222 9644     		lw	s1,68(sp)
 500              		.cfi_restore 9
 501 0224 0649     		lw	s2,64(sp)
 502              		.cfi_restore 18
 503 0226 F259     		lw	s3,60(sp)
 504              		.cfi_restore 19
 505              	.LVL31:
 506 0228 6161     		addi	sp,sp,80
 507              	.LCFI4:
 508              		.cfi_def_cfa_offset 0
 509 022a 8280     		jr	ra
 510              	.LVL32:
 511              	.L7:
 512              	.LCFI5:
 513              		.cfi_restore_state
 514              	.LBB10:
  23:renderPlants.c ****   {
 515              		.loc 1 23 40 discriminator 2
 516 022c 0509     		addi	s2,s2,1
 517              	.LVL33:
 518 022e D5B3     		j	.L6
 519              	.LBE10:
 520              		.cfi_endproc
 521              	.LFE4:
 523              		.section	.text.renderAllHistory,"ax",@progbits
 524              		.align	1
 525              		.globl	renderAllHistory
 527              	renderAllHistory:
 528              	.LFB5:
  46:renderPlants.c **** 
  47:renderPlants.c **** void renderAllHistory(Plant allPlants[], int numberOfPlants) {
 529              		.loc 1 47 62 is_stmt 1
 530              		.cfi_startproc
 531              	.LVL34:
  48:renderPlants.c ****   /// WIP
  49:renderPlants.c ****   for (int i = 0; i < numberOfPlants; i++)
 532              		.loc 1 49 3
 533              	.LBB11:
 534              		.loc 1 49 8
 535              	.LBE11:
  47:renderPlants.c ****   /// WIP
 536              		.loc 1 47 62 is_stmt 0
 537 0000 3971     		addi	sp,sp,-64
 538              	.LCFI6:
 539              		.cfi_def_cfa_offset 64
 540 0002 26DA     		sw	s1,52(sp)
 541              		.cfi_offset 9, -12
GAS LISTING /var/folders/rt/4gvqv631095f64jvm7jfj_000000gn/T//cc9F3rxm.s 			page 13


 542              	.LBB12:
  50:renderPlants.c ****   {
  51:renderPlants.c ****     LCD_ShowStr(0, 40*i, "SUN:", WHITE, TRANSPARENT);        
 543              		.loc 1 51 5
 544 0004 C164     		li	s1,65536
 545              	.LBE12:
  47:renderPlants.c ****   /// WIP
 546              		.loc 1 47 62
 547 0006 22DC     		sw	s0,56(sp)
 548 0008 4AD8     		sw	s2,48(sp)
 549 000a 52D4     		sw	s4,40(sp)
 550 000c 56D2     		sw	s5,36(sp)
 551 000e 5AD0     		sw	s6,32(sp)
 552 0010 62CC     		sw	s8,24(sp)
 553 0012 66CA     		sw	s9,20(sp)
 554 0014 6AC8     		sw	s10,16(sp)
 555 0016 06DE     		sw	ra,60(sp)
 556 0018 4ED6     		sw	s3,44(sp)
 557 001a 5ECE     		sw	s7,28(sp)
 558 001c 6EC6     		sw	s11,12(sp)
 559              		.cfi_offset 8, -8
 560              		.cfi_offset 18, -16
 561              		.cfi_offset 20, -24
 562              		.cfi_offset 21, -28
 563              		.cfi_offset 22, -32
 564              		.cfi_offset 24, -40
 565              		.cfi_offset 25, -44
 566              		.cfi_offset 26, -48
 567              		.cfi_offset 1, -4
 568              		.cfi_offset 19, -20
 569              		.cfi_offset 23, -36
 570              		.cfi_offset 27, -52
  47:renderPlants.c ****   /// WIP
 571              		.loc 1 47 62
 572 001e 2E8C     		mv	s8,a1
 573 0020 2A84     		mv	s0,a0
 574              	.LBB13:
  49:renderPlants.c ****   {
 575              		.loc 1 49 12
 576 0022 0149     		li	s2,0
 577              		.loc 1 51 5
 578 0024 930C8002 		li	s9,40
 579 0028 FD14     		addi	s1,s1,-1
 580 002a 370D0000 		lui	s10,%hi(.LC2)
  52:renderPlants.c ****     LCD_ShowStr(0, 10*(i+1), "MOIST:", WHITE, TRANSPARENT);
 581              		.loc 1 52 5
 582 002e 370A0000 		lui	s4,%hi(.LC3)
 583 0032 F94A     		li	s5,30
  53:renderPlants.c ****     LCD_ShowStr(0, (i*30), "TEMP:", WHITE, TRANSPARENT);
 584              		.loc 1 53 5
 585 0034 370B0000 		lui	s6,%hi(.LC4)
 586              	.LVL35:
 587              	.L13:
  49:renderPlants.c ****   {
 588              		.loc 1 49 3 discriminator 1
 589 0038 63418903 		blt	s2,s8,.L14
 590              	.LBE13:
GAS LISTING /var/folders/rt/4gvqv631095f64jvm7jfj_000000gn/T//cc9F3rxm.s 			page 14


  54:renderPlants.c ****     LCD_ShowNum(25, 10*(i+1), allPlants[i].sunHistory[0], 3, WHITE);
  55:renderPlants.c ****     LCD_ShowNum(25, 20*(i+1), allPlants[i].moistHistory[0], 3, WHITE);
  56:renderPlants.c ****     LCD_ShowNum(25, 30*(i+1), allPlants[i].tempHistory[0], 3, WHITE);
  57:renderPlants.c ****     LCD_ShowNum(40, 10*(i+1), allPlants[i].sunHistory[1], 3, WHITE);
  58:renderPlants.c ****     LCD_ShowNum(40, 20*(i+1), allPlants[i].moistHistory[1], 3, WHITE);
  59:renderPlants.c ****     LCD_ShowNum(40, 30*(i+1), allPlants[i].tempHistory[1], 3, WHITE);
  60:renderPlants.c ****   }
  61:renderPlants.c **** }...
 591              		.loc 1 61 1
 592 003c F250     		lw	ra,60(sp)
 593              		.cfi_remember_state
 594              		.cfi_restore 1
 595 003e 6254     		lw	s0,56(sp)
 596              		.cfi_restore 8
 597 0040 D254     		lw	s1,52(sp)
 598              		.cfi_restore 9
 599 0042 4259     		lw	s2,48(sp)
 600              		.cfi_restore 18
 601              	.LVL36:
 602 0044 B259     		lw	s3,44(sp)
 603              		.cfi_restore 19
 604 0046 225A     		lw	s4,40(sp)
 605              		.cfi_restore 20
 606 0048 925A     		lw	s5,36(sp)
 607              		.cfi_restore 21
 608 004a 025B     		lw	s6,32(sp)
 609              		.cfi_restore 22
 610 004c F24B     		lw	s7,28(sp)
 611              		.cfi_restore 23
 612 004e 624C     		lw	s8,24(sp)
 613              		.cfi_restore 24
 614              	.LVL37:
 615 0050 D24C     		lw	s9,20(sp)
 616              		.cfi_restore 25
 617 0052 424D     		lw	s10,16(sp)
 618              		.cfi_restore 26
 619 0054 B24D     		lw	s11,12(sp)
 620              		.cfi_restore 27
 621 0056 2161     		addi	sp,sp,64
 622              	.LCFI7:
 623              		.cfi_def_cfa_offset 0
 624 0058 8280     		jr	ra
 625              	.LVL38:
 626              	.L14:
 627              	.LCFI8:
 628              		.cfi_restore_state
 629              	.LBB14:
  51:renderPlants.c ****     LCD_ShowStr(0, 40*i, "SUN:", WHITE, TRANSPARENT);        
 630              		.loc 1 51 5 is_stmt 1 discriminator 3
 631 005a B3059903 		mul	a1,s2,s9
 632 005e 0547     		li	a4,1
 633 0060 A686     		mv	a3,s1
 634 0062 13060D00 		addi	a2,s10,%lo(.LC2)
 635 0066 0145     		li	a0,0
  52:renderPlants.c ****     LCD_ShowStr(0, 10*(i+1), "MOIST:", WHITE, TRANSPARENT);
 636              		.loc 1 52 25 is_stmt 0 discriminator 3
 637 0068 0509     		addi	s2,s2,1
GAS LISTING /var/folders/rt/4gvqv631095f64jvm7jfj_000000gn/T//cc9F3rxm.s 			page 15


 638              	.LVL39:
 639 006a D14D     		li	s11,20
 640 006c 1304E44C 		addi	s0,s0,1230
  51:renderPlants.c ****     LCD_ShowStr(0, 40*i, "SUN:", WHITE, TRANSPARENT);        
 641              		.loc 1 51 5 discriminator 3
 642 0070 97000000 		call	LCD_ShowStr
 642      E7800000 
 643              	.LVL40:
  52:renderPlants.c ****     LCD_ShowStr(0, 10*(i+1), "MOIST:", WHITE, TRANSPARENT);
 644              		.loc 1 52 5 is_stmt 1 discriminator 3
 645 0078 A947     		li	a5,10
 646 007a B309F902 		mul	s3,s2,a5
 647 007e 0547     		li	a4,1
 648 0080 A686     		mv	a3,s1
 649 0082 13060A00 		addi	a2,s4,%lo(.LC3)
 650 0086 0145     		li	a0,0
 651 0088 B30B5903 		mul	s7,s2,s5
 652 008c CE85     		mv	a1,s3
 653 008e 97000000 		call	LCD_ShowStr
 653      E7800000 
 654              	.LVL41:
  53:renderPlants.c ****     LCD_ShowStr(0, (i*30), "TEMP:", WHITE, TRANSPARENT);
 655              		.loc 1 53 5 discriminator 3
 656 0096 0547     		li	a4,1
 657 0098 A686     		mv	a3,s1
 658 009a 13060B00 		addi	a2,s6,%lo(.LC4)
 659 009e 0145     		li	a0,0
 660 00a0 93852BFE 		addi	a1,s7,-30
 661 00a4 97000000 		call	LCD_ShowStr
 661      E7800000 
 662              	.LVL42:
  54:renderPlants.c ****     LCD_ShowNum(25, 10*(i+1), allPlants[i].sunHistory[0], 3, WHITE);
 663              		.loc 1 54 5 discriminator 3
  54:renderPlants.c ****     LCD_ShowNum(25, 10*(i+1), allPlants[i].sunHistory[0], 3, WHITE);
 664              		.loc 1 54 54 is_stmt 0 discriminator 3
 665 00ac 034654ED 		lbu	a2,-299(s0)
 666 00b0 834744ED 		lbu	a5,-300(s0)
  54:renderPlants.c ****     LCD_ShowNum(25, 10*(i+1), allPlants[i].sunHistory[0], 3, WHITE);
 667              		.loc 1 54 5 discriminator 3
 668 00b4 2687     		mv	a4,s1
  54:renderPlants.c ****     LCD_ShowNum(25, 10*(i+1), allPlants[i].sunHistory[0], 3, WHITE);
 669              		.loc 1 54 54 discriminator 3
 670 00b6 2206     		slli	a2,a2,8
 671 00b8 5D8E     		or	a2,a2,a5
 672 00ba 834764ED 		lbu	a5,-298(s0)
  54:renderPlants.c ****     LCD_ShowNum(25, 10*(i+1), allPlants[i].sunHistory[0], 3, WHITE);
 673              		.loc 1 54 5 discriminator 3
 674 00be 8D46     		li	a3,3
 675 00c0 CE85     		mv	a1,s3
  54:renderPlants.c ****     LCD_ShowNum(25, 10*(i+1), allPlants[i].sunHistory[0], 3, WHITE);
 676              		.loc 1 54 54 discriminator 3
 677 00c2 C207     		slli	a5,a5,16
 678 00c4 D18F     		or	a5,a5,a2
 679 00c6 034674ED 		lbu	a2,-297(s0)
  54:renderPlants.c ****     LCD_ShowNum(25, 10*(i+1), allPlants[i].sunHistory[0], 3, WHITE);
 680              		.loc 1 54 5 discriminator 3
 681 00ca 6545     		li	a0,25
GAS LISTING /var/folders/rt/4gvqv631095f64jvm7jfj_000000gn/T//cc9F3rxm.s 			page 16


 682 00cc B30DB903 		mul	s11,s2,s11
  54:renderPlants.c ****     LCD_ShowNum(25, 10*(i+1), allPlants[i].sunHistory[0], 3, WHITE);
 683              		.loc 1 54 54 discriminator 3
 684 00d0 6206     		slli	a2,a2,24
  54:renderPlants.c ****     LCD_ShowNum(25, 10*(i+1), allPlants[i].sunHistory[0], 3, WHITE);
 685              		.loc 1 54 5 discriminator 3
 686 00d2 5D8E     		or	a2,a2,a5
 687 00d4 97000000 		call	LCD_ShowNum
 687      E7800000 
 688              	.LVL43:
  55:renderPlants.c ****     LCD_ShowNum(25, 20*(i+1), allPlants[i].moistHistory[0], 3, WHITE);
 689              		.loc 1 55 5 is_stmt 1 discriminator 3
  55:renderPlants.c ****     LCD_ShowNum(25, 20*(i+1), allPlants[i].moistHistory[0], 3, WHITE);
 690              		.loc 1 55 56 is_stmt 0 discriminator 3
 691 00dc 0346D4E5 		lbu	a2,-419(s0)
 692 00e0 8347C4E5 		lbu	a5,-420(s0)
  55:renderPlants.c ****     LCD_ShowNum(25, 20*(i+1), allPlants[i].moistHistory[0], 3, WHITE);
 693              		.loc 1 55 5 discriminator 3
 694 00e4 2687     		mv	a4,s1
  55:renderPlants.c ****     LCD_ShowNum(25, 20*(i+1), allPlants[i].moistHistory[0], 3, WHITE);
 695              		.loc 1 55 56 discriminator 3
 696 00e6 2206     		slli	a2,a2,8
 697 00e8 5D8E     		or	a2,a2,a5
 698 00ea 8347E4E5 		lbu	a5,-418(s0)
  55:renderPlants.c ****     LCD_ShowNum(25, 20*(i+1), allPlants[i].moistHistory[0], 3, WHITE);
 699              		.loc 1 55 5 discriminator 3
 700 00ee 8D46     		li	a3,3
 701 00f0 EE85     		mv	a1,s11
  55:renderPlants.c ****     LCD_ShowNum(25, 20*(i+1), allPlants[i].moistHistory[0], 3, WHITE);
 702              		.loc 1 55 56 discriminator 3
 703 00f2 C207     		slli	a5,a5,16
 704 00f4 D18F     		or	a5,a5,a2
 705 00f6 0346F4E5 		lbu	a2,-417(s0)
  55:renderPlants.c ****     LCD_ShowNum(25, 20*(i+1), allPlants[i].moistHistory[0], 3, WHITE);
 706              		.loc 1 55 5 discriminator 3
 707 00fa 6545     		li	a0,25
  55:renderPlants.c ****     LCD_ShowNum(25, 20*(i+1), allPlants[i].moistHistory[0], 3, WHITE);
 708              		.loc 1 55 56 discriminator 3
 709 00fc 6206     		slli	a2,a2,24
  55:renderPlants.c ****     LCD_ShowNum(25, 20*(i+1), allPlants[i].moistHistory[0], 3, WHITE);
 710              		.loc 1 55 5 discriminator 3
 711 00fe 5D8E     		or	a2,a2,a5
 712 0100 97000000 		call	LCD_ShowNum
 712      E7800000 
 713              	.LVL44:
  56:renderPlants.c ****     LCD_ShowNum(25, 30*(i+1), allPlants[i].tempHistory[0], 3, WHITE);
 714              		.loc 1 56 5 is_stmt 1 discriminator 3
  56:renderPlants.c ****     LCD_ShowNum(25, 30*(i+1), allPlants[i].tempHistory[0], 3, WHITE);
 715              		.loc 1 56 55 is_stmt 0 discriminator 3
 716 0108 0346D4F4 		lbu	a2,-179(s0)
 717 010c 8347C4F4 		lbu	a5,-180(s0)
  56:renderPlants.c ****     LCD_ShowNum(25, 30*(i+1), allPlants[i].tempHistory[0], 3, WHITE);
 718              		.loc 1 56 5 discriminator 3
 719 0110 2687     		mv	a4,s1
  56:renderPlants.c ****     LCD_ShowNum(25, 30*(i+1), allPlants[i].tempHistory[0], 3, WHITE);
 720              		.loc 1 56 55 discriminator 3
 721 0112 2206     		slli	a2,a2,8
GAS LISTING /var/folders/rt/4gvqv631095f64jvm7jfj_000000gn/T//cc9F3rxm.s 			page 17


 722 0114 5D8E     		or	a2,a2,a5
 723 0116 8347E4F4 		lbu	a5,-178(s0)
  56:renderPlants.c ****     LCD_ShowNum(25, 30*(i+1), allPlants[i].tempHistory[0], 3, WHITE);
 724              		.loc 1 56 5 discriminator 3
 725 011a 8D46     		li	a3,3
 726 011c DE85     		mv	a1,s7
  56:renderPlants.c ****     LCD_ShowNum(25, 30*(i+1), allPlants[i].tempHistory[0], 3, WHITE);
 727              		.loc 1 56 55 discriminator 3
 728 011e C207     		slli	a5,a5,16
 729 0120 D18F     		or	a5,a5,a2
 730 0122 0346F4F4 		lbu	a2,-177(s0)
  56:renderPlants.c ****     LCD_ShowNum(25, 30*(i+1), allPlants[i].tempHistory[0], 3, WHITE);
 731              		.loc 1 56 5 discriminator 3
 732 0126 6545     		li	a0,25
  56:renderPlants.c ****     LCD_ShowNum(25, 30*(i+1), allPlants[i].tempHistory[0], 3, WHITE);
 733              		.loc 1 56 55 discriminator 3
 734 0128 6206     		slli	a2,a2,24
  56:renderPlants.c ****     LCD_ShowNum(25, 30*(i+1), allPlants[i].tempHistory[0], 3, WHITE);
 735              		.loc 1 56 5 discriminator 3
 736 012a 5D8E     		or	a2,a2,a5
 737 012c 97000000 		call	LCD_ShowNum
 737      E7800000 
 738              	.LVL45:
  57:renderPlants.c ****     LCD_ShowNum(40, 10*(i+1), allPlants[i].sunHistory[1], 3, WHITE);
 739              		.loc 1 57 5 is_stmt 1 discriminator 3
  57:renderPlants.c ****     LCD_ShowNum(40, 10*(i+1), allPlants[i].sunHistory[1], 3, WHITE);
 740              		.loc 1 57 54 is_stmt 0 discriminator 3
 741 0134 034694ED 		lbu	a2,-295(s0)
 742 0138 834784ED 		lbu	a5,-296(s0)
  57:renderPlants.c ****     LCD_ShowNum(40, 10*(i+1), allPlants[i].sunHistory[1], 3, WHITE);
 743              		.loc 1 57 5 discriminator 3
 744 013c 2687     		mv	a4,s1
  57:renderPlants.c ****     LCD_ShowNum(40, 10*(i+1), allPlants[i].sunHistory[1], 3, WHITE);
 745              		.loc 1 57 54 discriminator 3
 746 013e 2206     		slli	a2,a2,8
 747 0140 5D8E     		or	a2,a2,a5
 748 0142 8347A4ED 		lbu	a5,-294(s0)
  57:renderPlants.c ****     LCD_ShowNum(40, 10*(i+1), allPlants[i].sunHistory[1], 3, WHITE);
 749              		.loc 1 57 5 discriminator 3
 750 0146 8D46     		li	a3,3
 751 0148 CE85     		mv	a1,s3
  57:renderPlants.c ****     LCD_ShowNum(40, 10*(i+1), allPlants[i].sunHistory[1], 3, WHITE);
 752              		.loc 1 57 54 discriminator 3
 753 014a C207     		slli	a5,a5,16
 754 014c D18F     		or	a5,a5,a2
 755 014e 0346B4ED 		lbu	a2,-293(s0)
  57:renderPlants.c ****     LCD_ShowNum(40, 10*(i+1), allPlants[i].sunHistory[1], 3, WHITE);
 756              		.loc 1 57 5 discriminator 3
 757 0152 13058002 		li	a0,40
  57:renderPlants.c ****     LCD_ShowNum(40, 10*(i+1), allPlants[i].sunHistory[1], 3, WHITE);
 758              		.loc 1 57 54 discriminator 3
 759 0156 6206     		slli	a2,a2,24
  57:renderPlants.c ****     LCD_ShowNum(40, 10*(i+1), allPlants[i].sunHistory[1], 3, WHITE);
 760              		.loc 1 57 5 discriminator 3
 761 0158 5D8E     		or	a2,a2,a5
 762 015a 97000000 		call	LCD_ShowNum
 762      E7800000 
GAS LISTING /var/folders/rt/4gvqv631095f64jvm7jfj_000000gn/T//cc9F3rxm.s 			page 18


 763              	.LVL46:
  58:renderPlants.c ****     LCD_ShowNum(40, 20*(i+1), allPlants[i].moistHistory[1], 3, WHITE);
 764              		.loc 1 58 5 is_stmt 1 discriminator 3
  58:renderPlants.c ****     LCD_ShowNum(40, 20*(i+1), allPlants[i].moistHistory[1], 3, WHITE);
 765              		.loc 1 58 56 is_stmt 0 discriminator 3
 766 0162 034614E6 		lbu	a2,-415(s0)
 767 0166 834704E6 		lbu	a5,-416(s0)
  58:renderPlants.c ****     LCD_ShowNum(40, 20*(i+1), allPlants[i].moistHistory[1], 3, WHITE);
 768              		.loc 1 58 5 discriminator 3
 769 016a 2687     		mv	a4,s1
  58:renderPlants.c ****     LCD_ShowNum(40, 20*(i+1), allPlants[i].moistHistory[1], 3, WHITE);
 770              		.loc 1 58 56 discriminator 3
 771 016c 2206     		slli	a2,a2,8
 772 016e 5D8E     		or	a2,a2,a5
 773 0170 834724E6 		lbu	a5,-414(s0)
  58:renderPlants.c ****     LCD_ShowNum(40, 20*(i+1), allPlants[i].moistHistory[1], 3, WHITE);
 774              		.loc 1 58 5 discriminator 3
 775 0174 8D46     		li	a3,3
 776 0176 EE85     		mv	a1,s11
  58:renderPlants.c ****     LCD_ShowNum(40, 20*(i+1), allPlants[i].moistHistory[1], 3, WHITE);
 777              		.loc 1 58 56 discriminator 3
 778 0178 C207     		slli	a5,a5,16
 779 017a D18F     		or	a5,a5,a2
 780 017c 034634E6 		lbu	a2,-413(s0)
  58:renderPlants.c ****     LCD_ShowNum(40, 20*(i+1), allPlants[i].moistHistory[1], 3, WHITE);
 781              		.loc 1 58 5 discriminator 3
 782 0180 13058002 		li	a0,40
  58:renderPlants.c ****     LCD_ShowNum(40, 20*(i+1), allPlants[i].moistHistory[1], 3, WHITE);
 783              		.loc 1 58 56 discriminator 3
 784 0184 6206     		slli	a2,a2,24
  58:renderPlants.c ****     LCD_ShowNum(40, 20*(i+1), allPlants[i].moistHistory[1], 3, WHITE);
 785              		.loc 1 58 5 discriminator 3
 786 0186 5D8E     		or	a2,a2,a5
 787 0188 97000000 		call	LCD_ShowNum
 787      E7800000 
 788              	.LVL47:
  59:renderPlants.c ****     LCD_ShowNum(40, 30*(i+1), allPlants[i].tempHistory[1], 3, WHITE);
 789              		.loc 1 59 5 is_stmt 1 discriminator 3
  59:renderPlants.c ****     LCD_ShowNum(40, 30*(i+1), allPlants[i].tempHistory[1], 3, WHITE);
 790              		.loc 1 59 55 is_stmt 0 discriminator 3
 791 0190 034614F5 		lbu	a2,-175(s0)
 792 0194 834704F5 		lbu	a5,-176(s0)
  59:renderPlants.c ****     LCD_ShowNum(40, 30*(i+1), allPlants[i].tempHistory[1], 3, WHITE);
 793              		.loc 1 59 5 discriminator 3
 794 0198 2687     		mv	a4,s1
  59:renderPlants.c ****     LCD_ShowNum(40, 30*(i+1), allPlants[i].tempHistory[1], 3, WHITE);
 795              		.loc 1 59 55 discriminator 3
 796 019a 2206     		slli	a2,a2,8
 797 019c 5D8E     		or	a2,a2,a5
 798 019e 834724F5 		lbu	a5,-174(s0)
  59:renderPlants.c ****     LCD_ShowNum(40, 30*(i+1), allPlants[i].tempHistory[1], 3, WHITE);
 799              		.loc 1 59 5 discriminator 3
 800 01a2 8D46     		li	a3,3
 801 01a4 DE85     		mv	a1,s7
  59:renderPlants.c ****     LCD_ShowNum(40, 30*(i+1), allPlants[i].tempHistory[1], 3, WHITE);
 802              		.loc 1 59 55 discriminator 3
 803 01a6 C207     		slli	a5,a5,16
GAS LISTING /var/folders/rt/4gvqv631095f64jvm7jfj_000000gn/T//cc9F3rxm.s 			page 19


 804 01a8 D18F     		or	a5,a5,a2
 805 01aa 034634F5 		lbu	a2,-173(s0)
  59:renderPlants.c ****     LCD_ShowNum(40, 30*(i+1), allPlants[i].tempHistory[1], 3, WHITE);
 806              		.loc 1 59 5 discriminator 3
 807 01ae 13058002 		li	a0,40
  59:renderPlants.c ****     LCD_ShowNum(40, 30*(i+1), allPlants[i].tempHistory[1], 3, WHITE);
 808              		.loc 1 59 55 discriminator 3
 809 01b2 6206     		slli	a2,a2,24
  59:renderPlants.c ****     LCD_ShowNum(40, 30*(i+1), allPlants[i].tempHistory[1], 3, WHITE);
 810              		.loc 1 59 5 discriminator 3
 811 01b4 5D8E     		or	a2,a2,a5
 812 01b6 97000000 		call	LCD_ShowNum
 812      E7800000 
 813              	.LVL48:
 814 01be ADBD     		j	.L13
 815              	.LBE14:
 816              		.cfi_endproc
 817              	.LFE5:
 819              		.section	.rodata.renderAllHistory.str1.4,"aMS",@progbits,1
 820              		.align	2
 821              	.LC2:
 822 0000 53554E3A 		.string	"SUN:"
 822      00
 823 0005 000000   		.zero	3
 824              	.LC3:
 825 0008 4D4F4953 		.string	"MOIST:"
 825      543A00
 826 000f 00       		.zero	1
 827              	.LC4:
 828 0010 54454D50 		.string	"TEMP:"
 828      3A00
 829              		.section	.rodata.renderAllPlants.str1.4,"aMS",@progbits,1
 830              		.align	2
 831              	.LC0:
 832 0000 2500     		.string	"%"
 833              		.section	.rodata.renderOnePlant.str1.4,"aMS",@progbits,1
 834              		.align	2
 835              	.LC1:
 836 0000 4E4F2053 		.string	"NO SUCH PLANT"
 836      55434820 
 836      504C414E 
 836      5400
 837              		.text
 838              	.Letext0:
 839              		.file 2 "/Users/alexstrae/toolchain-gd32v-v202-osx/compiler/lib/gcc/riscv64-unknown-elf/8.3.0/incl
 840              		.file 3 "/Users/alexstrae/toolchain-gd32v-v202-osx/compiler/riscv64-unknown-elf/include/machine/_d
 841              		.file 4 "/Users/alexstrae/toolchain-gd32v-v202-osx/compiler/riscv64-unknown-elf/include/sys/_types
 842              		.file 5 "/Users/alexstrae/toolchain-gd32v-v202-osx/compiler/riscv64-unknown-elf/include/sys/reent.
 843              		.file 6 "/Users/alexstrae/toolchain-gd32v-v202-osx/compiler/riscv64-unknown-elf/include/sys/lock.h
 844              		.file 7 "/Users/alexstrae/toolchain-gd32v-v202-osx/compiler/riscv64-unknown-elf/include/stdlib.h"
 845              		.file 8 "/Users/alexstrae/toolchain-gd32v-v202-osx/compiler/riscv64-unknown-elf/include/sys/_stdin
 846              		.file 9 "../../firmware/GD32VF103_standard_peripheral/system_gd32vf103.h"
 847              		.file 10 "lcd.h"
 848              		.file 11 "plant.h"
 849              		.file 12 "utilities.h"
 850              		.file 13 "/Users/alexstrae/toolchain-gd32v-v202-osx/compiler/riscv64-unknown-elf/include/string.h"
GAS LISTING /var/folders/rt/4gvqv631095f64jvm7jfj_000000gn/T//cc9F3rxm.s 			page 20


DEFINED SYMBOLS
                            *ABS*:0000000000000000 renderPlants.c
/var/folders/rt/4gvqv631095f64jvm7jfj_000000gn/T//cc9F3rxm.s:13     .text.renderAllPlants:0000000000000000 renderAllPlants
/var/folders/rt/4gvqv631095f64jvm7jfj_000000gn/T//cc9F3rxm.s:17     .text.renderAllPlants:0000000000000000 .L0 
/var/folders/rt/4gvqv631095f64jvm7jfj_000000gn/T//cc9F3rxm.s:19     .text.renderAllPlants:0000000000000000 .L0 
/var/folders/rt/4gvqv631095f64jvm7jfj_000000gn/T//cc9F3rxm.s:21     .text.renderAllPlants:0000000000000000 .L0 
/var/folders/rt/4gvqv631095f64jvm7jfj_000000gn/T//cc9F3rxm.s:23     .text.renderAllPlants:0000000000000000 .L0 
/var/folders/rt/4gvqv631095f64jvm7jfj_000000gn/T//cc9F3rxm.s:24     .text.renderAllPlants:0000000000000000 .L0 
/var/folders/rt/4gvqv631095f64jvm7jfj_000000gn/T//cc9F3rxm.s:26     .text.renderAllPlants:0000000000000002 .L0 
/var/folders/rt/4gvqv631095f64jvm7jfj_000000gn/T//cc9F3rxm.s:28     .text.renderAllPlants:0000000000000004 .L0 
/var/folders/rt/4gvqv631095f64jvm7jfj_000000gn/T//cc9F3rxm.s:31     .text.renderAllPlants:0000000000000004 .L0 
/var/folders/rt/4gvqv631095f64jvm7jfj_000000gn/T//cc9F3rxm.s:34     .text.renderAllPlants:0000000000000006 .L0 
/var/folders/rt/4gvqv631095f64jvm7jfj_000000gn/T//cc9F3rxm.s:42     .text.renderAllPlants:0000000000000016 .L0 
/var/folders/rt/4gvqv631095f64jvm7jfj_000000gn/T//cc9F3rxm.s:43     .text.renderAllPlants:0000000000000016 .L0 
/var/folders/rt/4gvqv631095f64jvm7jfj_000000gn/T//cc9F3rxm.s:44     .text.renderAllPlants:0000000000000016 .L0 
/var/folders/rt/4gvqv631095f64jvm7jfj_000000gn/T//cc9F3rxm.s:45     .text.renderAllPlants:0000000000000016 .L0 
/var/folders/rt/4gvqv631095f64jvm7jfj_000000gn/T//cc9F3rxm.s:46     .text.renderAllPlants:0000000000000016 .L0 
/var/folders/rt/4gvqv631095f64jvm7jfj_000000gn/T//cc9F3rxm.s:47     .text.renderAllPlants:0000000000000016 .L0 
/var/folders/rt/4gvqv631095f64jvm7jfj_000000gn/T//cc9F3rxm.s:48     .text.renderAllPlants:0000000000000016 .L0 
/var/folders/rt/4gvqv631095f64jvm7jfj_000000gn/T//cc9F3rxm.s:49     .text.renderAllPlants:0000000000000016 .L0 
/var/folders/rt/4gvqv631095f64jvm7jfj_000000gn/T//cc9F3rxm.s:51     .text.renderAllPlants:0000000000000016 .L0 
/var/folders/rt/4gvqv631095f64jvm7jfj_000000gn/T//cc9F3rxm.s:55     .text.renderAllPlants:000000000000001a .L0 
/var/folders/rt/4gvqv631095f64jvm7jfj_000000gn/T//cc9F3rxm.s:58     .text.renderAllPlants:0000000000000020 .L0 
/var/folders/rt/4gvqv631095f64jvm7jfj_000000gn/T//cc9F3rxm.s:60     .text.renderAllPlants:0000000000000022 .L0 
/var/folders/rt/4gvqv631095f64jvm7jfj_000000gn/T//cc9F3rxm.s:64     .text.renderAllPlants:0000000000000026 .L0 
/var/folders/rt/4gvqv631095f64jvm7jfj_000000gn/T//cc9F3rxm.s:67     .text.renderAllPlants:000000000000002a .L0 
/var/folders/rt/4gvqv631095f64jvm7jfj_000000gn/T//cc9F3rxm.s:68     .text.renderAllPlants:000000000000002c .L0 
/var/folders/rt/4gvqv631095f64jvm7jfj_000000gn/T//cc9F3rxm.s:69     .text.renderAllPlants:000000000000002c .L0 
/var/folders/rt/4gvqv631095f64jvm7jfj_000000gn/T//cc9F3rxm.s:71     .text.renderAllPlants:000000000000002e .L0 
/var/folders/rt/4gvqv631095f64jvm7jfj_000000gn/T//cc9F3rxm.s:73     .text.renderAllPlants:0000000000000030 .L0 
/var/folders/rt/4gvqv631095f64jvm7jfj_000000gn/T//cc9F3rxm.s:75     .text.renderAllPlants:0000000000000032 .L0 
/var/folders/rt/4gvqv631095f64jvm7jfj_000000gn/T//cc9F3rxm.s:77     .text.renderAllPlants:0000000000000034 .L0 
/var/folders/rt/4gvqv631095f64jvm7jfj_000000gn/T//cc9F3rxm.s:79     .text.renderAllPlants:0000000000000036 .L0 
/var/folders/rt/4gvqv631095f64jvm7jfj_000000gn/T//cc9F3rxm.s:82     .text.renderAllPlants:0000000000000038 .L0 
/var/folders/rt/4gvqv631095f64jvm7jfj_000000gn/T//cc9F3rxm.s:85     .text.renderAllPlants:000000000000003a .L0 
/var/folders/rt/4gvqv631095f64jvm7jfj_000000gn/T//cc9F3rxm.s:87     .text.renderAllPlants:000000000000003c .L0 
/var/folders/rt/4gvqv631095f64jvm7jfj_000000gn/T//cc9F3rxm.s:90     .text.renderAllPlants:000000000000003e .L0 
/var/folders/rt/4gvqv631095f64jvm7jfj_000000gn/T//cc9F3rxm.s:95     .text.renderAllPlants:0000000000000040 .L0 
/var/folders/rt/4gvqv631095f64jvm7jfj_000000gn/T//cc9F3rxm.s:98     .text.renderAllPlants:0000000000000040 .L0 
/var/folders/rt/4gvqv631095f64jvm7jfj_000000gn/T//cc9F3rxm.s:104    .text.renderAllPlants:000000000000004c .L0 
/var/folders/rt/4gvqv631095f64jvm7jfj_000000gn/T//cc9F3rxm.s:107    .text.renderAllPlants:000000000000004e .L0 
/var/folders/rt/4gvqv631095f64jvm7jfj_000000gn/T//cc9F3rxm.s:111    .text.renderAllPlants:0000000000000058 .L0 
/var/folders/rt/4gvqv631095f64jvm7jfj_000000gn/T//cc9F3rxm.s:112    .text.renderAllPlants:0000000000000058 .L0 
/var/folders/rt/4gvqv631095f64jvm7jfj_000000gn/T//cc9F3rxm.s:115    .text.renderAllPlants:0000000000000060 .L0 
/var/folders/rt/4gvqv631095f64jvm7jfj_000000gn/T//cc9F3rxm.s:117    .text.renderAllPlants:0000000000000062 .L0 
/var/folders/rt/4gvqv631095f64jvm7jfj_000000gn/T//cc9F3rxm.s:121    .text.renderAllPlants:000000000000006a .L0 
/var/folders/rt/4gvqv631095f64jvm7jfj_000000gn/T//cc9F3rxm.s:124    .text.renderAllPlants:0000000000000070 .L0 
/var/folders/rt/4gvqv631095f64jvm7jfj_000000gn/T//cc9F3rxm.s:130    .text.renderAllPlants:000000000000007c .L0 
/var/folders/rt/4gvqv631095f64jvm7jfj_000000gn/T//cc9F3rxm.s:136    .text.renderAllPlants:000000000000008a .L0 
/var/folders/rt/4gvqv631095f64jvm7jfj_000000gn/T//cc9F3rxm.s:138    .text.renderAllPlants:000000000000008c .L0 
/var/folders/rt/4gvqv631095f64jvm7jfj_000000gn/T//cc9F3rxm.s:146    .text.renderAllPlants:000000000000009e .L0 
/var/folders/rt/4gvqv631095f64jvm7jfj_000000gn/T//cc9F3rxm.s:151    .text.renderAllPlants:00000000000000aa .L0 
/var/folders/rt/4gvqv631095f64jvm7jfj_000000gn/T//cc9F3rxm.s:159    .text.renderAllPlants:00000000000000be .L0 
/var/folders/rt/4gvqv631095f64jvm7jfj_000000gn/T//cc9F3rxm.s:160    .text.renderAllPlants:00000000000000be .L0 
/var/folders/rt/4gvqv631095f64jvm7jfj_000000gn/T//cc9F3rxm.s:163    .text.renderAllPlants:00000000000000c6 .L0 
/var/folders/rt/4gvqv631095f64jvm7jfj_000000gn/T//cc9F3rxm.s:165    .text.renderAllPlants:00000000000000c8 .L0 
/var/folders/rt/4gvqv631095f64jvm7jfj_000000gn/T//cc9F3rxm.s:169    .text.renderAllPlants:00000000000000d0 .L0 
GAS LISTING /var/folders/rt/4gvqv631095f64jvm7jfj_000000gn/T//cc9F3rxm.s 			page 21


/var/folders/rt/4gvqv631095f64jvm7jfj_000000gn/T//cc9F3rxm.s:171    .text.renderAllPlants:00000000000000d2 .L0 
/var/folders/rt/4gvqv631095f64jvm7jfj_000000gn/T//cc9F3rxm.s:177    .text.renderAllPlants:00000000000000de .L0 
/var/folders/rt/4gvqv631095f64jvm7jfj_000000gn/T//cc9F3rxm.s:183    .text.renderAllPlants:00000000000000ec .L0 
/var/folders/rt/4gvqv631095f64jvm7jfj_000000gn/T//cc9F3rxm.s:185    .text.renderAllPlants:00000000000000ee .L0 
/var/folders/rt/4gvqv631095f64jvm7jfj_000000gn/T//cc9F3rxm.s:193    .text.renderAllPlants:0000000000000100 .L0 
/var/folders/rt/4gvqv631095f64jvm7jfj_000000gn/T//cc9F3rxm.s:198    .text.renderAllPlants:000000000000010e .L0 
/var/folders/rt/4gvqv631095f64jvm7jfj_000000gn/T//cc9F3rxm.s:206    .text.renderAllPlants:0000000000000124 .L0 
/var/folders/rt/4gvqv631095f64jvm7jfj_000000gn/T//cc9F3rxm.s:216    .text.renderAllPlants:0000000000000142 .L0 
/var/folders/rt/4gvqv631095f64jvm7jfj_000000gn/T//cc9F3rxm.s:223    .text.renderOnePlant:0000000000000000 renderOnePlant
/var/folders/rt/4gvqv631095f64jvm7jfj_000000gn/T//cc9F3rxm.s:226    .text.renderOnePlant:0000000000000000 .L0 
/var/folders/rt/4gvqv631095f64jvm7jfj_000000gn/T//cc9F3rxm.s:228    .text.renderOnePlant:0000000000000000 .L0 
/var/folders/rt/4gvqv631095f64jvm7jfj_000000gn/T//cc9F3rxm.s:230    .text.renderOnePlant:0000000000000000 .L0 
/var/folders/rt/4gvqv631095f64jvm7jfj_000000gn/T//cc9F3rxm.s:232    .text.renderOnePlant:0000000000000000 .L0 
/var/folders/rt/4gvqv631095f64jvm7jfj_000000gn/T//cc9F3rxm.s:233    .text.renderOnePlant:0000000000000000 .L0 
/var/folders/rt/4gvqv631095f64jvm7jfj_000000gn/T//cc9F3rxm.s:235    .text.renderOnePlant:0000000000000002 .L0 
/var/folders/rt/4gvqv631095f64jvm7jfj_000000gn/T//cc9F3rxm.s:241    .text.renderOnePlant:000000000000000c .L0 
/var/folders/rt/4gvqv631095f64jvm7jfj_000000gn/T//cc9F3rxm.s:242    .text.renderOnePlant:000000000000000c .L0 
/var/folders/rt/4gvqv631095f64jvm7jfj_000000gn/T//cc9F3rxm.s:243    .text.renderOnePlant:000000000000000c .L0 
/var/folders/rt/4gvqv631095f64jvm7jfj_000000gn/T//cc9F3rxm.s:244    .text.renderOnePlant:000000000000000c .L0 
/var/folders/rt/4gvqv631095f64jvm7jfj_000000gn/T//cc9F3rxm.s:245    .text.renderOnePlant:000000000000000c .L0 
/var/folders/rt/4gvqv631095f64jvm7jfj_000000gn/T//cc9F3rxm.s:247    .text.renderOnePlant:000000000000000c .L0 
/var/folders/rt/4gvqv631095f64jvm7jfj_000000gn/T//cc9F3rxm.s:251    .text.renderOnePlant:0000000000000010 .L0 
/var/folders/rt/4gvqv631095f64jvm7jfj_000000gn/T//cc9F3rxm.s:255    .text.renderOnePlant:0000000000000012 .L0 
/var/folders/rt/4gvqv631095f64jvm7jfj_000000gn/T//cc9F3rxm.s:258    .text.renderOnePlant:0000000000000016 .L0 
/var/folders/rt/4gvqv631095f64jvm7jfj_000000gn/T//cc9F3rxm.s:270    .text.renderOnePlant:000000000000002a .L0 
/var/folders/rt/4gvqv631095f64jvm7jfj_000000gn/T//cc9F3rxm.s:271    .text.renderOnePlant:000000000000002a .L0 
/var/folders/rt/4gvqv631095f64jvm7jfj_000000gn/T//cc9F3rxm.s:277    .text.renderOnePlant:0000000000000038 .L0 
/var/folders/rt/4gvqv631095f64jvm7jfj_000000gn/T//cc9F3rxm.s:279    .text.renderOnePlant:000000000000003a .L0 
/var/folders/rt/4gvqv631095f64jvm7jfj_000000gn/T//cc9F3rxm.s:285    .text.renderOnePlant:0000000000000044 .L0 
/var/folders/rt/4gvqv631095f64jvm7jfj_000000gn/T//cc9F3rxm.s:286    .text.renderOnePlant:0000000000000044 .L0 
/var/folders/rt/4gvqv631095f64jvm7jfj_000000gn/T//cc9F3rxm.s:287    .text.renderOnePlant:0000000000000044 .L0 
/var/folders/rt/4gvqv631095f64jvm7jfj_000000gn/T//cc9F3rxm.s:290    .text.renderOnePlant:000000000000004c .L0 
/var/folders/rt/4gvqv631095f64jvm7jfj_000000gn/T//cc9F3rxm.s:292    .text.renderOnePlant:000000000000004e .L0 
/var/folders/rt/4gvqv631095f64jvm7jfj_000000gn/T//cc9F3rxm.s:296    .text.renderOnePlant:0000000000000056 .L0 
/var/folders/rt/4gvqv631095f64jvm7jfj_000000gn/T//cc9F3rxm.s:298    .text.renderOnePlant:0000000000000058 .L0 
/var/folders/rt/4gvqv631095f64jvm7jfj_000000gn/T//cc9F3rxm.s:301    .text.renderOnePlant:000000000000005c .L0 
/var/folders/rt/4gvqv631095f64jvm7jfj_000000gn/T//cc9F3rxm.s:307    .text.renderOnePlant:0000000000000068 .L0 
/var/folders/rt/4gvqv631095f64jvm7jfj_000000gn/T//cc9F3rxm.s:323    .text.renderOnePlant:0000000000000092 .L0 
/var/folders/rt/4gvqv631095f64jvm7jfj_000000gn/T//cc9F3rxm.s:324    .text.renderOnePlant:0000000000000092 .L0 
/var/folders/rt/4gvqv631095f64jvm7jfj_000000gn/T//cc9F3rxm.s:325    .text.renderOnePlant:0000000000000092 .L0 
/var/folders/rt/4gvqv631095f64jvm7jfj_000000gn/T//cc9F3rxm.s:328    .text.renderOnePlant:000000000000009a .L0 
/var/folders/rt/4gvqv631095f64jvm7jfj_000000gn/T//cc9F3rxm.s:330    .text.renderOnePlant:000000000000009c .L0 
/var/folders/rt/4gvqv631095f64jvm7jfj_000000gn/T//cc9F3rxm.s:339    .text.renderOnePlant:00000000000000b0 .L0 
/var/folders/rt/4gvqv631095f64jvm7jfj_000000gn/T//cc9F3rxm.s:355    .text.renderOnePlant:00000000000000da .L0 
/var/folders/rt/4gvqv631095f64jvm7jfj_000000gn/T//cc9F3rxm.s:363    .text.renderOnePlant:00000000000000ee .L0 
/var/folders/rt/4gvqv631095f64jvm7jfj_000000gn/T//cc9F3rxm.s:371    .text.renderOnePlant:0000000000000106 .L0 
/var/folders/rt/4gvqv631095f64jvm7jfj_000000gn/T//cc9F3rxm.s:372    .text.renderOnePlant:0000000000000106 .L0 
/var/folders/rt/4gvqv631095f64jvm7jfj_000000gn/T//cc9F3rxm.s:375    .text.renderOnePlant:000000000000010e .L0 
/var/folders/rt/4gvqv631095f64jvm7jfj_000000gn/T//cc9F3rxm.s:377    .text.renderOnePlant:0000000000000110 .L0 
/var/folders/rt/4gvqv631095f64jvm7jfj_000000gn/T//cc9F3rxm.s:381    .text.renderOnePlant:0000000000000118 .L0 
/var/folders/rt/4gvqv631095f64jvm7jfj_000000gn/T//cc9F3rxm.s:383    .text.renderOnePlant:000000000000011a .L0 
/var/folders/rt/4gvqv631095f64jvm7jfj_000000gn/T//cc9F3rxm.s:389    .text.renderOnePlant:0000000000000126 .L0 
/var/folders/rt/4gvqv631095f64jvm7jfj_000000gn/T//cc9F3rxm.s:395    .text.renderOnePlant:0000000000000134 .L0 
/var/folders/rt/4gvqv631095f64jvm7jfj_000000gn/T//cc9F3rxm.s:397    .text.renderOnePlant:0000000000000138 .L0 
/var/folders/rt/4gvqv631095f64jvm7jfj_000000gn/T//cc9F3rxm.s:405    .text.renderOnePlant:000000000000014a .L0 
/var/folders/rt/4gvqv631095f64jvm7jfj_000000gn/T//cc9F3rxm.s:410    .text.renderOnePlant:0000000000000156 .L0 
/var/folders/rt/4gvqv631095f64jvm7jfj_000000gn/T//cc9F3rxm.s:418    .text.renderOnePlant:000000000000016c .L0 
GAS LISTING /var/folders/rt/4gvqv631095f64jvm7jfj_000000gn/T//cc9F3rxm.s 			page 22


/var/folders/rt/4gvqv631095f64jvm7jfj_000000gn/T//cc9F3rxm.s:426    .text.renderOnePlant:0000000000000182 .L0 
/var/folders/rt/4gvqv631095f64jvm7jfj_000000gn/T//cc9F3rxm.s:427    .text.renderOnePlant:0000000000000182 .L0 
/var/folders/rt/4gvqv631095f64jvm7jfj_000000gn/T//cc9F3rxm.s:430    .text.renderOnePlant:000000000000018a .L0 
/var/folders/rt/4gvqv631095f64jvm7jfj_000000gn/T//cc9F3rxm.s:432    .text.renderOnePlant:000000000000018c .L0 
/var/folders/rt/4gvqv631095f64jvm7jfj_000000gn/T//cc9F3rxm.s:436    .text.renderOnePlant:0000000000000194 .L0 
/var/folders/rt/4gvqv631095f64jvm7jfj_000000gn/T//cc9F3rxm.s:439    .text.renderOnePlant:000000000000019a .L0 
/var/folders/rt/4gvqv631095f64jvm7jfj_000000gn/T//cc9F3rxm.s:445    .text.renderOnePlant:00000000000001a6 .L0 
/var/folders/rt/4gvqv631095f64jvm7jfj_000000gn/T//cc9F3rxm.s:451    .text.renderOnePlant:00000000000001b4 .L0 
/var/folders/rt/4gvqv631095f64jvm7jfj_000000gn/T//cc9F3rxm.s:453    .text.renderOnePlant:00000000000001b8 .L0 
/var/folders/rt/4gvqv631095f64jvm7jfj_000000gn/T//cc9F3rxm.s:461    .text.renderOnePlant:00000000000001ca .L0 
/var/folders/rt/4gvqv631095f64jvm7jfj_000000gn/T//cc9F3rxm.s:465    .text.renderOnePlant:00000000000001d4 .L0 
/var/folders/rt/4gvqv631095f64jvm7jfj_000000gn/T//cc9F3rxm.s:473    .text.renderOnePlant:00000000000001ec .L0 
/var/folders/rt/4gvqv631095f64jvm7jfj_000000gn/T//cc9F3rxm.s:481    .text.renderOnePlant:0000000000000206 .L0 
/var/folders/rt/4gvqv631095f64jvm7jfj_000000gn/T//cc9F3rxm.s:490    .text.renderOnePlant:0000000000000212 .L0 
/var/folders/rt/4gvqv631095f64jvm7jfj_000000gn/T//cc9F3rxm.s:494    .text.renderOnePlant:000000000000021e .L0 
/var/folders/rt/4gvqv631095f64jvm7jfj_000000gn/T//cc9F3rxm.s:495    .text.renderOnePlant:0000000000000220 .L0 
/var/folders/rt/4gvqv631095f64jvm7jfj_000000gn/T//cc9F3rxm.s:496    .text.renderOnePlant:0000000000000220 .L0 
/var/folders/rt/4gvqv631095f64jvm7jfj_000000gn/T//cc9F3rxm.s:498    .text.renderOnePlant:0000000000000222 .L0 
/var/folders/rt/4gvqv631095f64jvm7jfj_000000gn/T//cc9F3rxm.s:500    .text.renderOnePlant:0000000000000224 .L0 
/var/folders/rt/4gvqv631095f64jvm7jfj_000000gn/T//cc9F3rxm.s:502    .text.renderOnePlant:0000000000000226 .L0 
/var/folders/rt/4gvqv631095f64jvm7jfj_000000gn/T//cc9F3rxm.s:504    .text.renderOnePlant:0000000000000228 .L0 
/var/folders/rt/4gvqv631095f64jvm7jfj_000000gn/T//cc9F3rxm.s:508    .text.renderOnePlant:000000000000022a .L0 
/var/folders/rt/4gvqv631095f64jvm7jfj_000000gn/T//cc9F3rxm.s:513    .text.renderOnePlant:000000000000022c .L0 
/var/folders/rt/4gvqv631095f64jvm7jfj_000000gn/T//cc9F3rxm.s:516    .text.renderOnePlant:000000000000022c .L0 
/var/folders/rt/4gvqv631095f64jvm7jfj_000000gn/T//cc9F3rxm.s:520    .text.renderOnePlant:0000000000000230 .L0 
/var/folders/rt/4gvqv631095f64jvm7jfj_000000gn/T//cc9F3rxm.s:527    .text.renderAllHistory:0000000000000000 renderAllHistory
/var/folders/rt/4gvqv631095f64jvm7jfj_000000gn/T//cc9F3rxm.s:530    .text.renderAllHistory:0000000000000000 .L0 
/var/folders/rt/4gvqv631095f64jvm7jfj_000000gn/T//cc9F3rxm.s:532    .text.renderAllHistory:0000000000000000 .L0 
/var/folders/rt/4gvqv631095f64jvm7jfj_000000gn/T//cc9F3rxm.s:534    .text.renderAllHistory:0000000000000000 .L0 
/var/folders/rt/4gvqv631095f64jvm7jfj_000000gn/T//cc9F3rxm.s:536    .text.renderAllHistory:0000000000000000 .L0 
/var/folders/rt/4gvqv631095f64jvm7jfj_000000gn/T//cc9F3rxm.s:537    .text.renderAllHistory:0000000000000000 .L0 
/var/folders/rt/4gvqv631095f64jvm7jfj_000000gn/T//cc9F3rxm.s:539    .text.renderAllHistory:0000000000000002 .L0 
/var/folders/rt/4gvqv631095f64jvm7jfj_000000gn/T//cc9F3rxm.s:541    .text.renderAllHistory:0000000000000004 .L0 
/var/folders/rt/4gvqv631095f64jvm7jfj_000000gn/T//cc9F3rxm.s:544    .text.renderAllHistory:0000000000000004 .L0 
/var/folders/rt/4gvqv631095f64jvm7jfj_000000gn/T//cc9F3rxm.s:547    .text.renderAllHistory:0000000000000006 .L0 
/var/folders/rt/4gvqv631095f64jvm7jfj_000000gn/T//cc9F3rxm.s:559    .text.renderAllHistory:000000000000001e .L0 
/var/folders/rt/4gvqv631095f64jvm7jfj_000000gn/T//cc9F3rxm.s:560    .text.renderAllHistory:000000000000001e .L0 
/var/folders/rt/4gvqv631095f64jvm7jfj_000000gn/T//cc9F3rxm.s:561    .text.renderAllHistory:000000000000001e .L0 
/var/folders/rt/4gvqv631095f64jvm7jfj_000000gn/T//cc9F3rxm.s:562    .text.renderAllHistory:000000000000001e .L0 
/var/folders/rt/4gvqv631095f64jvm7jfj_000000gn/T//cc9F3rxm.s:563    .text.renderAllHistory:000000000000001e .L0 
/var/folders/rt/4gvqv631095f64jvm7jfj_000000gn/T//cc9F3rxm.s:564    .text.renderAllHistory:000000000000001e .L0 
/var/folders/rt/4gvqv631095f64jvm7jfj_000000gn/T//cc9F3rxm.s:565    .text.renderAllHistory:000000000000001e .L0 
/var/folders/rt/4gvqv631095f64jvm7jfj_000000gn/T//cc9F3rxm.s:566    .text.renderAllHistory:000000000000001e .L0 
/var/folders/rt/4gvqv631095f64jvm7jfj_000000gn/T//cc9F3rxm.s:567    .text.renderAllHistory:000000000000001e .L0 
/var/folders/rt/4gvqv631095f64jvm7jfj_000000gn/T//cc9F3rxm.s:568    .text.renderAllHistory:000000000000001e .L0 
/var/folders/rt/4gvqv631095f64jvm7jfj_000000gn/T//cc9F3rxm.s:569    .text.renderAllHistory:000000000000001e .L0 
/var/folders/rt/4gvqv631095f64jvm7jfj_000000gn/T//cc9F3rxm.s:570    .text.renderAllHistory:000000000000001e .L0 
/var/folders/rt/4gvqv631095f64jvm7jfj_000000gn/T//cc9F3rxm.s:572    .text.renderAllHistory:000000000000001e .L0 
/var/folders/rt/4gvqv631095f64jvm7jfj_000000gn/T//cc9F3rxm.s:576    .text.renderAllHistory:0000000000000022 .L0 
/var/folders/rt/4gvqv631095f64jvm7jfj_000000gn/T//cc9F3rxm.s:578    .text.renderAllHistory:0000000000000024 .L0 
/var/folders/rt/4gvqv631095f64jvm7jfj_000000gn/T//cc9F3rxm.s:582    .text.renderAllHistory:000000000000002e .L0 
/var/folders/rt/4gvqv631095f64jvm7jfj_000000gn/T//cc9F3rxm.s:585    .text.renderAllHistory:0000000000000034 .L0 
/var/folders/rt/4gvqv631095f64jvm7jfj_000000gn/T//cc9F3rxm.s:589    .text.renderAllHistory:0000000000000038 .L0 
/var/folders/rt/4gvqv631095f64jvm7jfj_000000gn/T//cc9F3rxm.s:592    .text.renderAllHistory:000000000000003c .L0 
/var/folders/rt/4gvqv631095f64jvm7jfj_000000gn/T//cc9F3rxm.s:593    .text.renderAllHistory:000000000000003e .L0 
/var/folders/rt/4gvqv631095f64jvm7jfj_000000gn/T//cc9F3rxm.s:594    .text.renderAllHistory:000000000000003e .L0 
/var/folders/rt/4gvqv631095f64jvm7jfj_000000gn/T//cc9F3rxm.s:596    .text.renderAllHistory:0000000000000040 .L0 
GAS LISTING /var/folders/rt/4gvqv631095f64jvm7jfj_000000gn/T//cc9F3rxm.s 			page 23


/var/folders/rt/4gvqv631095f64jvm7jfj_000000gn/T//cc9F3rxm.s:598    .text.renderAllHistory:0000000000000042 .L0 
/var/folders/rt/4gvqv631095f64jvm7jfj_000000gn/T//cc9F3rxm.s:600    .text.renderAllHistory:0000000000000044 .L0 
/var/folders/rt/4gvqv631095f64jvm7jfj_000000gn/T//cc9F3rxm.s:603    .text.renderAllHistory:0000000000000046 .L0 
/var/folders/rt/4gvqv631095f64jvm7jfj_000000gn/T//cc9F3rxm.s:605    .text.renderAllHistory:0000000000000048 .L0 
/var/folders/rt/4gvqv631095f64jvm7jfj_000000gn/T//cc9F3rxm.s:607    .text.renderAllHistory:000000000000004a .L0 
/var/folders/rt/4gvqv631095f64jvm7jfj_000000gn/T//cc9F3rxm.s:609    .text.renderAllHistory:000000000000004c .L0 
/var/folders/rt/4gvqv631095f64jvm7jfj_000000gn/T//cc9F3rxm.s:611    .text.renderAllHistory:000000000000004e .L0 
/var/folders/rt/4gvqv631095f64jvm7jfj_000000gn/T//cc9F3rxm.s:613    .text.renderAllHistory:0000000000000050 .L0 
/var/folders/rt/4gvqv631095f64jvm7jfj_000000gn/T//cc9F3rxm.s:616    .text.renderAllHistory:0000000000000052 .L0 
/var/folders/rt/4gvqv631095f64jvm7jfj_000000gn/T//cc9F3rxm.s:618    .text.renderAllHistory:0000000000000054 .L0 
/var/folders/rt/4gvqv631095f64jvm7jfj_000000gn/T//cc9F3rxm.s:620    .text.renderAllHistory:0000000000000056 .L0 
/var/folders/rt/4gvqv631095f64jvm7jfj_000000gn/T//cc9F3rxm.s:623    .text.renderAllHistory:0000000000000058 .L0 
/var/folders/rt/4gvqv631095f64jvm7jfj_000000gn/T//cc9F3rxm.s:628    .text.renderAllHistory:000000000000005a .L0 
/var/folders/rt/4gvqv631095f64jvm7jfj_000000gn/T//cc9F3rxm.s:631    .text.renderAllHistory:000000000000005a .L0 
/var/folders/rt/4gvqv631095f64jvm7jfj_000000gn/T//cc9F3rxm.s:637    .text.renderAllHistory:0000000000000068 .L0 
/var/folders/rt/4gvqv631095f64jvm7jfj_000000gn/T//cc9F3rxm.s:642    .text.renderAllHistory:0000000000000070 .L0 
/var/folders/rt/4gvqv631095f64jvm7jfj_000000gn/T//cc9F3rxm.s:645    .text.renderAllHistory:0000000000000078 .L0 
/var/folders/rt/4gvqv631095f64jvm7jfj_000000gn/T//cc9F3rxm.s:656    .text.renderAllHistory:0000000000000096 .L0 
/var/folders/rt/4gvqv631095f64jvm7jfj_000000gn/T//cc9F3rxm.s:664    .text.renderAllHistory:00000000000000ac .L0 
/var/folders/rt/4gvqv631095f64jvm7jfj_000000gn/T//cc9F3rxm.s:665    .text.renderAllHistory:00000000000000ac .L0 
/var/folders/rt/4gvqv631095f64jvm7jfj_000000gn/T//cc9F3rxm.s:668    .text.renderAllHistory:00000000000000b4 .L0 
/var/folders/rt/4gvqv631095f64jvm7jfj_000000gn/T//cc9F3rxm.s:670    .text.renderAllHistory:00000000000000b6 .L0 
/var/folders/rt/4gvqv631095f64jvm7jfj_000000gn/T//cc9F3rxm.s:674    .text.renderAllHistory:00000000000000be .L0 
/var/folders/rt/4gvqv631095f64jvm7jfj_000000gn/T//cc9F3rxm.s:677    .text.renderAllHistory:00000000000000c2 .L0 
/var/folders/rt/4gvqv631095f64jvm7jfj_000000gn/T//cc9F3rxm.s:681    .text.renderAllHistory:00000000000000ca .L0 
/var/folders/rt/4gvqv631095f64jvm7jfj_000000gn/T//cc9F3rxm.s:684    .text.renderAllHistory:00000000000000d0 .L0 
/var/folders/rt/4gvqv631095f64jvm7jfj_000000gn/T//cc9F3rxm.s:686    .text.renderAllHistory:00000000000000d2 .L0 
/var/folders/rt/4gvqv631095f64jvm7jfj_000000gn/T//cc9F3rxm.s:690    .text.renderAllHistory:00000000000000dc .L0 
/var/folders/rt/4gvqv631095f64jvm7jfj_000000gn/T//cc9F3rxm.s:691    .text.renderAllHistory:00000000000000dc .L0 
/var/folders/rt/4gvqv631095f64jvm7jfj_000000gn/T//cc9F3rxm.s:694    .text.renderAllHistory:00000000000000e4 .L0 
/var/folders/rt/4gvqv631095f64jvm7jfj_000000gn/T//cc9F3rxm.s:696    .text.renderAllHistory:00000000000000e6 .L0 
/var/folders/rt/4gvqv631095f64jvm7jfj_000000gn/T//cc9F3rxm.s:700    .text.renderAllHistory:00000000000000ee .L0 
/var/folders/rt/4gvqv631095f64jvm7jfj_000000gn/T//cc9F3rxm.s:703    .text.renderAllHistory:00000000000000f2 .L0 
/var/folders/rt/4gvqv631095f64jvm7jfj_000000gn/T//cc9F3rxm.s:707    .text.renderAllHistory:00000000000000fa .L0 
/var/folders/rt/4gvqv631095f64jvm7jfj_000000gn/T//cc9F3rxm.s:709    .text.renderAllHistory:00000000000000fc .L0 
/var/folders/rt/4gvqv631095f64jvm7jfj_000000gn/T//cc9F3rxm.s:711    .text.renderAllHistory:00000000000000fe .L0 
/var/folders/rt/4gvqv631095f64jvm7jfj_000000gn/T//cc9F3rxm.s:715    .text.renderAllHistory:0000000000000108 .L0 
/var/folders/rt/4gvqv631095f64jvm7jfj_000000gn/T//cc9F3rxm.s:716    .text.renderAllHistory:0000000000000108 .L0 
/var/folders/rt/4gvqv631095f64jvm7jfj_000000gn/T//cc9F3rxm.s:719    .text.renderAllHistory:0000000000000110 .L0 
/var/folders/rt/4gvqv631095f64jvm7jfj_000000gn/T//cc9F3rxm.s:721    .text.renderAllHistory:0000000000000112 .L0 
/var/folders/rt/4gvqv631095f64jvm7jfj_000000gn/T//cc9F3rxm.s:725    .text.renderAllHistory:000000000000011a .L0 
/var/folders/rt/4gvqv631095f64jvm7jfj_000000gn/T//cc9F3rxm.s:728    .text.renderAllHistory:000000000000011e .L0 
/var/folders/rt/4gvqv631095f64jvm7jfj_000000gn/T//cc9F3rxm.s:732    .text.renderAllHistory:0000000000000126 .L0 
/var/folders/rt/4gvqv631095f64jvm7jfj_000000gn/T//cc9F3rxm.s:734    .text.renderAllHistory:0000000000000128 .L0 
/var/folders/rt/4gvqv631095f64jvm7jfj_000000gn/T//cc9F3rxm.s:736    .text.renderAllHistory:000000000000012a .L0 
/var/folders/rt/4gvqv631095f64jvm7jfj_000000gn/T//cc9F3rxm.s:740    .text.renderAllHistory:0000000000000134 .L0 
/var/folders/rt/4gvqv631095f64jvm7jfj_000000gn/T//cc9F3rxm.s:741    .text.renderAllHistory:0000000000000134 .L0 
/var/folders/rt/4gvqv631095f64jvm7jfj_000000gn/T//cc9F3rxm.s:744    .text.renderAllHistory:000000000000013c .L0 
/var/folders/rt/4gvqv631095f64jvm7jfj_000000gn/T//cc9F3rxm.s:746    .text.renderAllHistory:000000000000013e .L0 
/var/folders/rt/4gvqv631095f64jvm7jfj_000000gn/T//cc9F3rxm.s:750    .text.renderAllHistory:0000000000000146 .L0 
/var/folders/rt/4gvqv631095f64jvm7jfj_000000gn/T//cc9F3rxm.s:753    .text.renderAllHistory:000000000000014a .L0 
/var/folders/rt/4gvqv631095f64jvm7jfj_000000gn/T//cc9F3rxm.s:757    .text.renderAllHistory:0000000000000152 .L0 
/var/folders/rt/4gvqv631095f64jvm7jfj_000000gn/T//cc9F3rxm.s:759    .text.renderAllHistory:0000000000000156 .L0 
/var/folders/rt/4gvqv631095f64jvm7jfj_000000gn/T//cc9F3rxm.s:761    .text.renderAllHistory:0000000000000158 .L0 
/var/folders/rt/4gvqv631095f64jvm7jfj_000000gn/T//cc9F3rxm.s:765    .text.renderAllHistory:0000000000000162 .L0 
/var/folders/rt/4gvqv631095f64jvm7jfj_000000gn/T//cc9F3rxm.s:766    .text.renderAllHistory:0000000000000162 .L0 
/var/folders/rt/4gvqv631095f64jvm7jfj_000000gn/T//cc9F3rxm.s:769    .text.renderAllHistory:000000000000016a .L0 
GAS LISTING /var/folders/rt/4gvqv631095f64jvm7jfj_000000gn/T//cc9F3rxm.s 			page 24


/var/folders/rt/4gvqv631095f64jvm7jfj_000000gn/T//cc9F3rxm.s:771    .text.renderAllHistory:000000000000016c .L0 
/var/folders/rt/4gvqv631095f64jvm7jfj_000000gn/T//cc9F3rxm.s:775    .text.renderAllHistory:0000000000000174 .L0 
/var/folders/rt/4gvqv631095f64jvm7jfj_000000gn/T//cc9F3rxm.s:778    .text.renderAllHistory:0000000000000178 .L0 
/var/folders/rt/4gvqv631095f64jvm7jfj_000000gn/T//cc9F3rxm.s:782    .text.renderAllHistory:0000000000000180 .L0 
/var/folders/rt/4gvqv631095f64jvm7jfj_000000gn/T//cc9F3rxm.s:784    .text.renderAllHistory:0000000000000184 .L0 
/var/folders/rt/4gvqv631095f64jvm7jfj_000000gn/T//cc9F3rxm.s:786    .text.renderAllHistory:0000000000000186 .L0 
/var/folders/rt/4gvqv631095f64jvm7jfj_000000gn/T//cc9F3rxm.s:790    .text.renderAllHistory:0000000000000190 .L0 
/var/folders/rt/4gvqv631095f64jvm7jfj_000000gn/T//cc9F3rxm.s:791    .text.renderAllHistory:0000000000000190 .L0 
/var/folders/rt/4gvqv631095f64jvm7jfj_000000gn/T//cc9F3rxm.s:794    .text.renderAllHistory:0000000000000198 .L0 
/var/folders/rt/4gvqv631095f64jvm7jfj_000000gn/T//cc9F3rxm.s:796    .text.renderAllHistory:000000000000019a .L0 
/var/folders/rt/4gvqv631095f64jvm7jfj_000000gn/T//cc9F3rxm.s:800    .text.renderAllHistory:00000000000001a2 .L0 
/var/folders/rt/4gvqv631095f64jvm7jfj_000000gn/T//cc9F3rxm.s:803    .text.renderAllHistory:00000000000001a6 .L0 
/var/folders/rt/4gvqv631095f64jvm7jfj_000000gn/T//cc9F3rxm.s:807    .text.renderAllHistory:00000000000001ae .L0 
/var/folders/rt/4gvqv631095f64jvm7jfj_000000gn/T//cc9F3rxm.s:809    .text.renderAllHistory:00000000000001b2 .L0 
/var/folders/rt/4gvqv631095f64jvm7jfj_000000gn/T//cc9F3rxm.s:811    .text.renderAllHistory:00000000000001b4 .L0 
/var/folders/rt/4gvqv631095f64jvm7jfj_000000gn/T//cc9F3rxm.s:816    .text.renderAllHistory:00000000000001c0 .L0 
/var/folders/rt/4gvqv631095f64jvm7jfj_000000gn/T//cc9F3rxm.s:219    .text.renderAllPlants:0000000000000142 .L0 
/var/folders/rt/4gvqv631095f64jvm7jfj_000000gn/T//cc9F3rxm.s:523    .text.renderOnePlant:0000000000000230 .L0 
/var/folders/rt/4gvqv631095f64jvm7jfj_000000gn/T//cc9F3rxm.s:819    .text.renderAllHistory:00000000000001c0 .L0 
                     .debug_frame:0000000000000000 .L0 
/var/folders/rt/4gvqv631095f64jvm7jfj_000000gn/T//cc9F3rxm.s:831    .rodata.renderAllPlants.str1.4:0000000000000000 .LC0
/var/folders/rt/4gvqv631095f64jvm7jfj_000000gn/T//cc9F3rxm.s:93     .text.renderAllPlants:0000000000000040 .L3
/var/folders/rt/4gvqv631095f64jvm7jfj_000000gn/T//cc9F3rxm.s:62     .text.renderAllPlants:0000000000000026 .L2
/var/folders/rt/4gvqv631095f64jvm7jfj_000000gn/T//cc9F3rxm.s:835    .rodata.renderOnePlant.str1.4:0000000000000000 .LC1
/var/folders/rt/4gvqv631095f64jvm7jfj_000000gn/T//cc9F3rxm.s:267    .text.renderOnePlant:000000000000002a .L9
/var/folders/rt/4gvqv631095f64jvm7jfj_000000gn/T//cc9F3rxm.s:486    .text.renderOnePlant:0000000000000212 .L11
/var/folders/rt/4gvqv631095f64jvm7jfj_000000gn/T//cc9F3rxm.s:511    .text.renderOnePlant:000000000000022c .L7
/var/folders/rt/4gvqv631095f64jvm7jfj_000000gn/T//cc9F3rxm.s:253    .text.renderOnePlant:0000000000000012 .L6
/var/folders/rt/4gvqv631095f64jvm7jfj_000000gn/T//cc9F3rxm.s:821    .rodata.renderAllHistory.str1.4:0000000000000000 .LC2
/var/folders/rt/4gvqv631095f64jvm7jfj_000000gn/T//cc9F3rxm.s:824    .rodata.renderAllHistory.str1.4:0000000000000008 .LC3
/var/folders/rt/4gvqv631095f64jvm7jfj_000000gn/T//cc9F3rxm.s:827    .rodata.renderAllHistory.str1.4:0000000000000010 .LC4
/var/folders/rt/4gvqv631095f64jvm7jfj_000000gn/T//cc9F3rxm.s:626    .text.renderAllHistory:000000000000005a .L14
/var/folders/rt/4gvqv631095f64jvm7jfj_000000gn/T//cc9F3rxm.s:587    .text.renderAllHistory:0000000000000038 .L13
/var/folders/rt/4gvqv631095f64jvm7jfj_000000gn/T//cc9F3rxm.s:3544   .debug_abbrev:0000000000000000 .Ldebug_abbrev0
/var/folders/rt/4gvqv631095f64jvm7jfj_000000gn/T//cc9F3rxm.s:4756   .debug_str:0000000000000577 .LASF168
/var/folders/rt/4gvqv631095f64jvm7jfj_000000gn/T//cc9F3rxm.s:4814   .debug_str:0000000000000772 .LASF169
/var/folders/rt/4gvqv631095f64jvm7jfj_000000gn/T//cc9F3rxm.s:4760   .debug_str:0000000000000608 .LASF170
/var/folders/rt/4gvqv631095f64jvm7jfj_000000gn/T//cc9F3rxm.s:4440   .debug_ranges:0000000000000000 .Ldebug_ranges0
/var/folders/rt/4gvqv631095f64jvm7jfj_000000gn/T//cc9F3rxm.s:4480   .debug_line:0000000000000000 .Ldebug_line0
/var/folders/rt/4gvqv631095f64jvm7jfj_000000gn/T//cc9F3rxm.s:4744   .debug_str:0000000000000538 .LASF0
/var/folders/rt/4gvqv631095f64jvm7jfj_000000gn/T//cc9F3rxm.s:4764   .debug_str:0000000000000657 .LASF1
/var/folders/rt/4gvqv631095f64jvm7jfj_000000gn/T//cc9F3rxm.s:4558   .debug_str:0000000000000197 .LASF2
/var/folders/rt/4gvqv631095f64jvm7jfj_000000gn/T//cc9F3rxm.s:4734   .debug_str:0000000000000511 .LASF3
/var/folders/rt/4gvqv631095f64jvm7jfj_000000gn/T//cc9F3rxm.s:4666   .debug_str:00000000000003c0 .LASF7
/var/folders/rt/4gvqv631095f64jvm7jfj_000000gn/T//cc9F3rxm.s:4524   .debug_str:00000000000000ef .LASF4
/var/folders/rt/4gvqv631095f64jvm7jfj_000000gn/T//cc9F3rxm.s:4678   .debug_str:0000000000000400 .LASF5
/var/folders/rt/4gvqv631095f64jvm7jfj_000000gn/T//cc9F3rxm.s:4486   .debug_str:0000000000000012 .LASF6
/var/folders/rt/4gvqv631095f64jvm7jfj_000000gn/T//cc9F3rxm.s:4746   .debug_str:0000000000000545 .LASF8
/var/folders/rt/4gvqv631095f64jvm7jfj_000000gn/T//cc9F3rxm.s:4546   .debug_str:000000000000015a .LASF9
/var/folders/rt/4gvqv631095f64jvm7jfj_000000gn/T//cc9F3rxm.s:4574   .debug_str:00000000000001f4 .LASF10
/var/folders/rt/4gvqv631095f64jvm7jfj_000000gn/T//cc9F3rxm.s:4598   .debug_str:0000000000000258 .LASF11
/var/folders/rt/4gvqv631095f64jvm7jfj_000000gn/T//cc9F3rxm.s:4506   .debug_str:0000000000000080 .LASF12
/var/folders/rt/4gvqv631095f64jvm7jfj_000000gn/T//cc9F3rxm.s:4520   .debug_str:00000000000000e1 .LASF13
/var/folders/rt/4gvqv631095f64jvm7jfj_000000gn/T//cc9F3rxm.s:4732   .debug_str:0000000000000509 .LASF14
/var/folders/rt/4gvqv631095f64jvm7jfj_000000gn/T//cc9F3rxm.s:4790   .debug_str:00000000000006ea .LASF15
/var/folders/rt/4gvqv631095f64jvm7jfj_000000gn/T//cc9F3rxm.s:4618   .debug_str:00000000000002c3 .LASF16
/var/folders/rt/4gvqv631095f64jvm7jfj_000000gn/T//cc9F3rxm.s:4590   .debug_str:0000000000000231 .LASF17
GAS LISTING /var/folders/rt/4gvqv631095f64jvm7jfj_000000gn/T//cc9F3rxm.s 			page 25


/var/folders/rt/4gvqv631095f64jvm7jfj_000000gn/T//cc9F3rxm.s:4724   .debug_str:00000000000004e9 .LASF18
/var/folders/rt/4gvqv631095f64jvm7jfj_000000gn/T//cc9F3rxm.s:4726   .debug_str:00000000000004f1 .LASF19
/var/folders/rt/4gvqv631095f64jvm7jfj_000000gn/T//cc9F3rxm.s:4670   .debug_str:00000000000003d1 .LASF20
/var/folders/rt/4gvqv631095f64jvm7jfj_000000gn/T//cc9F3rxm.s:4770   .debug_str:0000000000000677 .LASF21
/var/folders/rt/4gvqv631095f64jvm7jfj_000000gn/T//cc9F3rxm.s:4672   .debug_str:00000000000003dc .LASF22
/var/folders/rt/4gvqv631095f64jvm7jfj_000000gn/T//cc9F3rxm.s:4684   .debug_str:000000000000041d .LASF23
/var/folders/rt/4gvqv631095f64jvm7jfj_000000gn/T//cc9F3rxm.s:4582   .debug_str:0000000000000219 .LASF28
/var/folders/rt/4gvqv631095f64jvm7jfj_000000gn/T//cc9F3rxm.s:4752   .debug_str:000000000000056a .LASF24
/var/folders/rt/4gvqv631095f64jvm7jfj_000000gn/T//cc9F3rxm.s:4718   .debug_str:00000000000004d4 .LASF25
/var/folders/rt/4gvqv631095f64jvm7jfj_000000gn/T//cc9F3rxm.s:4576   .debug_str:00000000000001ff .LASF26
/var/folders/rt/4gvqv631095f64jvm7jfj_000000gn/T//cc9F3rxm.s:4650   .debug_str:0000000000000364 .LASF27
/var/folders/rt/4gvqv631095f64jvm7jfj_000000gn/T//cc9F3rxm.s:4588   .debug_str:000000000000022c .LASF29
/var/folders/rt/4gvqv631095f64jvm7jfj_000000gn/T//cc9F3rxm.s:4518   .debug_str:00000000000000d8 .LASF30
/var/folders/rt/4gvqv631095f64jvm7jfj_000000gn/T//cc9F3rxm.s:4808   .debug_str:0000000000000755 .LASF31
/var/folders/rt/4gvqv631095f64jvm7jfj_000000gn/T//cc9F3rxm.s:4534   .debug_str:000000000000011c .LASF32
/var/folders/rt/4gvqv631095f64jvm7jfj_000000gn/T//cc9F3rxm.s:4824   .debug_str:00000000000007ab .LASF33
/var/folders/rt/4gvqv631095f64jvm7jfj_000000gn/T//cc9F3rxm.s:4654   .debug_str:0000000000000382 .LASF34
/var/folders/rt/4gvqv631095f64jvm7jfj_000000gn/T//cc9F3rxm.s:4640   .debug_str:0000000000000334 .LASF35
/var/folders/rt/4gvqv631095f64jvm7jfj_000000gn/T//cc9F3rxm.s:4730   .debug_str:00000000000004ff .LASF36
/var/folders/rt/4gvqv631095f64jvm7jfj_000000gn/T//cc9F3rxm.s:4686   .debug_str:0000000000000426 .LASF37
/var/folders/rt/4gvqv631095f64jvm7jfj_000000gn/T//cc9F3rxm.s:4804   .debug_str:000000000000073b .LASF38
/var/folders/rt/4gvqv631095f64jvm7jfj_000000gn/T//cc9F3rxm.s:4538   .debug_str:000000000000012b .LASF39
/var/folders/rt/4gvqv631095f64jvm7jfj_000000gn/T//cc9F3rxm.s:4490   .debug_str:0000000000000023 .LASF40
/var/folders/rt/4gvqv631095f64jvm7jfj_000000gn/T//cc9F3rxm.s:4482   .debug_str:0000000000000000 .LASF41
/var/folders/rt/4gvqv631095f64jvm7jfj_000000gn/T//cc9F3rxm.s:4758   .debug_str:00000000000005ff .LASF42
/var/folders/rt/4gvqv631095f64jvm7jfj_000000gn/T//cc9F3rxm.s:4552   .debug_str:000000000000017e .LASF43
/var/folders/rt/4gvqv631095f64jvm7jfj_000000gn/T//cc9F3rxm.s:4656   .debug_str:000000000000038b .LASF44
/var/folders/rt/4gvqv631095f64jvm7jfj_000000gn/T//cc9F3rxm.s:4706   .debug_str:0000000000000486 .LASF45
/var/folders/rt/4gvqv631095f64jvm7jfj_000000gn/T//cc9F3rxm.s:4572   .debug_str:00000000000001ef .LASF46
/var/folders/rt/4gvqv631095f64jvm7jfj_000000gn/T//cc9F3rxm.s:4688   .debug_str:0000000000000430 .LASF47
/var/folders/rt/4gvqv631095f64jvm7jfj_000000gn/T//cc9F3rxm.s:4532   .debug_str:0000000000000116 .LASF48
/var/folders/rt/4gvqv631095f64jvm7jfj_000000gn/T//cc9F3rxm.s:4742   .debug_str:0000000000000532 .LASF49
/var/folders/rt/4gvqv631095f64jvm7jfj_000000gn/T//cc9F3rxm.s:4694   .debug_str:0000000000000446 .LASF50
/var/folders/rt/4gvqv631095f64jvm7jfj_000000gn/T//cc9F3rxm.s:4550   .debug_str:0000000000000177 .LASF51
/var/folders/rt/4gvqv631095f64jvm7jfj_000000gn/T//cc9F3rxm.s:4600   .debug_str:000000000000026a .LASF52
/var/folders/rt/4gvqv631095f64jvm7jfj_000000gn/T//cc9F3rxm.s:4820   .debug_str:0000000000000794 .LASF53
/var/folders/rt/4gvqv631095f64jvm7jfj_000000gn/T//cc9F3rxm.s:4540   .debug_str:0000000000000139 .LASF54
/var/folders/rt/4gvqv631095f64jvm7jfj_000000gn/T//cc9F3rxm.s:4584   .debug_str:0000000000000221 .LASF55
/var/folders/rt/4gvqv631095f64jvm7jfj_000000gn/T//cc9F3rxm.s:4638   .debug_str:000000000000032d .LASF56
/var/folders/rt/4gvqv631095f64jvm7jfj_000000gn/T//cc9F3rxm.s:4728   .debug_str:00000000000004f9 .LASF57
/var/folders/rt/4gvqv631095f64jvm7jfj_000000gn/T//cc9F3rxm.s:4522   .debug_str:00000000000000e8 .LASF58
/var/folders/rt/4gvqv631095f64jvm7jfj_000000gn/T//cc9F3rxm.s:4530   .debug_str:0000000000000110 .LASF59
/var/folders/rt/4gvqv631095f64jvm7jfj_000000gn/T//cc9F3rxm.s:4800   .debug_str:000000000000072d .LASF60
/var/folders/rt/4gvqv631095f64jvm7jfj_000000gn/T//cc9F3rxm.s:4740   .debug_str:0000000000000529 .LASF61
/var/folders/rt/4gvqv631095f64jvm7jfj_000000gn/T//cc9F3rxm.s:4562   .debug_str:00000000000001ad .LASF62
/var/folders/rt/4gvqv631095f64jvm7jfj_000000gn/T//cc9F3rxm.s:4606   .debug_str:000000000000028a .LASF63
/var/folders/rt/4gvqv631095f64jvm7jfj_000000gn/T//cc9F3rxm.s:4626   .debug_str:00000000000002e0 .LASF64
/var/folders/rt/4gvqv631095f64jvm7jfj_000000gn/T//cc9F3rxm.s:4696   .debug_str:000000000000044e .LASF65
/var/folders/rt/4gvqv631095f64jvm7jfj_000000gn/T//cc9F3rxm.s:4690   .debug_str:0000000000000437 .LASF66
/var/folders/rt/4gvqv631095f64jvm7jfj_000000gn/T//cc9F3rxm.s:4720   .debug_str:00000000000004dc .LASF67
/var/folders/rt/4gvqv631095f64jvm7jfj_000000gn/T//cc9F3rxm.s:4736   .debug_str:000000000000051d .LASF68
/var/folders/rt/4gvqv631095f64jvm7jfj_000000gn/T//cc9F3rxm.s:4554   .debug_str:0000000000000186 .LASF69
/var/folders/rt/4gvqv631095f64jvm7jfj_000000gn/T//cc9F3rxm.s:4594   .debug_str:0000000000000248 .LASF70
/var/folders/rt/4gvqv631095f64jvm7jfj_000000gn/T//cc9F3rxm.s:4580   .debug_str:0000000000000211 .LASF71
/var/folders/rt/4gvqv631095f64jvm7jfj_000000gn/T//cc9F3rxm.s:4704   .debug_str:0000000000000481 .LASF72
/var/folders/rt/4gvqv631095f64jvm7jfj_000000gn/T//cc9F3rxm.s:4494   .debug_str:0000000000000033 .LASF73
/var/folders/rt/4gvqv631095f64jvm7jfj_000000gn/T//cc9F3rxm.s:4714   .debug_str:00000000000004a7 .LASF74
GAS LISTING /var/folders/rt/4gvqv631095f64jvm7jfj_000000gn/T//cc9F3rxm.s 			page 26


/var/folders/rt/4gvqv631095f64jvm7jfj_000000gn/T//cc9F3rxm.s:4710   .debug_str:0000000000000495 .LASF75
/var/folders/rt/4gvqv631095f64jvm7jfj_000000gn/T//cc9F3rxm.s:4660   .debug_str:000000000000039d .LASF76
/var/folders/rt/4gvqv631095f64jvm7jfj_000000gn/T//cc9F3rxm.s:4712   .debug_str:000000000000049d .LASF77
/var/folders/rt/4gvqv631095f64jvm7jfj_000000gn/T//cc9F3rxm.s:4616   .debug_str:00000000000002bb .LASF78
/var/folders/rt/4gvqv631095f64jvm7jfj_000000gn/T//cc9F3rxm.s:4556   .debug_str:000000000000018d .LASF79
/var/folders/rt/4gvqv631095f64jvm7jfj_000000gn/T//cc9F3rxm.s:4818   .debug_str:000000000000078f .LASF80
/var/folders/rt/4gvqv631095f64jvm7jfj_000000gn/T//cc9F3rxm.s:4668   .debug_str:00000000000003c7 .LASF81
/var/folders/rt/4gvqv631095f64jvm7jfj_000000gn/T//cc9F3rxm.s:4596   .debug_str:0000000000000250 .LASF82
/var/folders/rt/4gvqv631095f64jvm7jfj_000000gn/T//cc9F3rxm.s:4560   .debug_str:00000000000001a5 .LASF83
/var/folders/rt/4gvqv631095f64jvm7jfj_000000gn/T//cc9F3rxm.s:4624   .debug_str:00000000000002db .LASF84
/var/folders/rt/4gvqv631095f64jvm7jfj_000000gn/T//cc9F3rxm.s:4500   .debug_str:0000000000000052 .LASF85
/var/folders/rt/4gvqv631095f64jvm7jfj_000000gn/T//cc9F3rxm.s:4796   .debug_str:0000000000000708 .LASF86
/var/folders/rt/4gvqv631095f64jvm7jfj_000000gn/T//cc9F3rxm.s:4544   .debug_str:0000000000000152 .LASF87
/var/folders/rt/4gvqv631095f64jvm7jfj_000000gn/T//cc9F3rxm.s:4536   .debug_str:0000000000000126 .LASF88
/var/folders/rt/4gvqv631095f64jvm7jfj_000000gn/T//cc9F3rxm.s:4738   .debug_str:0000000000000524 .LASF89
/var/folders/rt/4gvqv631095f64jvm7jfj_000000gn/T//cc9F3rxm.s:4692   .debug_str:000000000000043f .LASF90
/var/folders/rt/4gvqv631095f64jvm7jfj_000000gn/T//cc9F3rxm.s:4788   .debug_str:00000000000006e4 .LASF91
/var/folders/rt/4gvqv631095f64jvm7jfj_000000gn/T//cc9F3rxm.s:4608   .debug_str:0000000000000290 .LASF92
/var/folders/rt/4gvqv631095f64jvm7jfj_000000gn/T//cc9F3rxm.s:4680   .debug_str:000000000000040e .LASF93
/var/folders/rt/4gvqv631095f64jvm7jfj_000000gn/T//cc9F3rxm.s:4492   .debug_str:000000000000002b .LASF94
/var/folders/rt/4gvqv631095f64jvm7jfj_000000gn/T//cc9F3rxm.s:4722   .debug_str:00000000000004e3 .LASF95
/var/folders/rt/4gvqv631095f64jvm7jfj_000000gn/T//cc9F3rxm.s:4628   .debug_str:00000000000002e6 .LASF96
/var/folders/rt/4gvqv631095f64jvm7jfj_000000gn/T//cc9F3rxm.s:4768   .debug_str:0000000000000672 .LASF97
/var/folders/rt/4gvqv631095f64jvm7jfj_000000gn/T//cc9F3rxm.s:4782   .debug_str:00000000000006c4 .LASF98
/var/folders/rt/4gvqv631095f64jvm7jfj_000000gn/T//cc9F3rxm.s:4568   .debug_str:00000000000001d4 .LASF99
/var/folders/rt/4gvqv631095f64jvm7jfj_000000gn/T//cc9F3rxm.s:4614   .debug_str:00000000000002ae .LASF100
/var/folders/rt/4gvqv631095f64jvm7jfj_000000gn/T//cc9F3rxm.s:4806   .debug_str:0000000000000746 .LASF101
/var/folders/rt/4gvqv631095f64jvm7jfj_000000gn/T//cc9F3rxm.s:4662   .debug_str:00000000000003a8 .LASF102
/var/folders/rt/4gvqv631095f64jvm7jfj_000000gn/T//cc9F3rxm.s:4610   .debug_str:0000000000000297 .LASF103
/var/folders/rt/4gvqv631095f64jvm7jfj_000000gn/T//cc9F3rxm.s:4810   .debug_str:000000000000075e .LASF104
/var/folders/rt/4gvqv631095f64jvm7jfj_000000gn/T//cc9F3rxm.s:4702   .debug_str:0000000000000474 .LASF105
/var/folders/rt/4gvqv631095f64jvm7jfj_000000gn/T//cc9F3rxm.s:4816   .debug_str:0000000000000781 .LASF106
/var/folders/rt/4gvqv631095f64jvm7jfj_000000gn/T//cc9F3rxm.s:4516   .debug_str:00000000000000ca .LASF107
/var/folders/rt/4gvqv631095f64jvm7jfj_000000gn/T//cc9F3rxm.s:4792   .debug_str:00000000000006f3 .LASF108
/var/folders/rt/4gvqv631095f64jvm7jfj_000000gn/T//cc9F3rxm.s:4612   .debug_str:00000000000002a2 .LASF109
/var/folders/rt/4gvqv631095f64jvm7jfj_000000gn/T//cc9F3rxm.s:4772   .debug_str:000000000000067f .LASF110
/var/folders/rt/4gvqv631095f64jvm7jfj_000000gn/T//cc9F3rxm.s:4570   .debug_str:00000000000001e1 .LASF111
/var/folders/rt/4gvqv631095f64jvm7jfj_000000gn/T//cc9F3rxm.s:4774   .debug_str:000000000000068c .LASF112
/var/folders/rt/4gvqv631095f64jvm7jfj_000000gn/T//cc9F3rxm.s:4566   .debug_str:00000000000001c3 .LASF113
/var/folders/rt/4gvqv631095f64jvm7jfj_000000gn/T//cc9F3rxm.s:4812   .debug_str:0000000000000763 .LASF114
/var/folders/rt/4gvqv631095f64jvm7jfj_000000gn/T//cc9F3rxm.s:4504   .debug_str:000000000000006f .LASF115
/var/folders/rt/4gvqv631095f64jvm7jfj_000000gn/T//cc9F3rxm.s:4682   .debug_str:0000000000000414 .LASF116
/var/folders/rt/4gvqv631095f64jvm7jfj_000000gn/T//cc9F3rxm.s:4620   .debug_str:00000000000002c9 .LASF117
/var/folders/rt/4gvqv631095f64jvm7jfj_000000gn/T//cc9F3rxm.s:4644   .debug_str:0000000000000346 .LASF118
/var/folders/rt/4gvqv631095f64jvm7jfj_000000gn/T//cc9F3rxm.s:4802   .debug_str:0000000000000733 .LASF119
/var/folders/rt/4gvqv631095f64jvm7jfj_000000gn/T//cc9F3rxm.s:4510   .debug_str:000000000000009f .LASF171
/var/folders/rt/4gvqv631095f64jvm7jfj_000000gn/T//cc9F3rxm.s:4578   .debug_str:0000000000000205 .LASF120
/var/folders/rt/4gvqv631095f64jvm7jfj_000000gn/T//cc9F3rxm.s:4778   .debug_str:00000000000006a8 .LASF121
/var/folders/rt/4gvqv631095f64jvm7jfj_000000gn/T//cc9F3rxm.s:4658   .debug_str:0000000000000393 .LASF122
/var/folders/rt/4gvqv631095f64jvm7jfj_000000gn/T//cc9F3rxm.s:4676   .debug_str:00000000000003f8 .LASF123
/var/folders/rt/4gvqv631095f64jvm7jfj_000000gn/T//cc9F3rxm.s:4780   .debug_str:00000000000006bb .LASF124
/var/folders/rt/4gvqv631095f64jvm7jfj_000000gn/T//cc9F3rxm.s:4592   .debug_str:0000000000000238 .LASF125
/var/folders/rt/4gvqv631095f64jvm7jfj_000000gn/T//cc9F3rxm.s:4622   .debug_str:00000000000002d0 .LASF126
/var/folders/rt/4gvqv631095f64jvm7jfj_000000gn/T//cc9F3rxm.s:4708   .debug_str:000000000000048b .LASF127
/var/folders/rt/4gvqv631095f64jvm7jfj_000000gn/T//cc9F3rxm.s:4508   .debug_str:0000000000000097 .LASF128
/var/folders/rt/4gvqv631095f64jvm7jfj_000000gn/T//cc9F3rxm.s:4700   .debug_str:0000000000000466 .LASF129
/var/folders/rt/4gvqv631095f64jvm7jfj_000000gn/T//cc9F3rxm.s:4604   .debug_str:0000000000000285 .LASF130
GAS LISTING /var/folders/rt/4gvqv631095f64jvm7jfj_000000gn/T//cc9F3rxm.s 			page 27


/var/folders/rt/4gvqv631095f64jvm7jfj_000000gn/T//cc9F3rxm.s:4564   .debug_str:00000000000001b5 .LASF131
/var/folders/rt/4gvqv631095f64jvm7jfj_000000gn/T//cc9F3rxm.s:4528   .debug_str:0000000000000107 .LASF132
/var/folders/rt/4gvqv631095f64jvm7jfj_000000gn/T//cc9F3rxm.s:4586   .debug_str:0000000000000227 .LASF133
/var/folders/rt/4gvqv631095f64jvm7jfj_000000gn/T//cc9F3rxm.s:4652   .debug_str:0000000000000369 .LASF134
/var/folders/rt/4gvqv631095f64jvm7jfj_000000gn/T//cc9F3rxm.s:4548   .debug_str:0000000000000163 .LASF135
/var/folders/rt/4gvqv631095f64jvm7jfj_000000gn/T//cc9F3rxm.s:4602   .debug_str:0000000000000270 .LASF136
/var/folders/rt/4gvqv631095f64jvm7jfj_000000gn/T//cc9F3rxm.s:4776   .debug_str:000000000000069b .LASF137
/var/folders/rt/4gvqv631095f64jvm7jfj_000000gn/T//cc9F3rxm.s:4498   .debug_str:0000000000000047 .LASF138
/var/folders/rt/4gvqv631095f64jvm7jfj_000000gn/T//cc9F3rxm.s:4526   .debug_str:00000000000000fb .LASF139
/var/folders/rt/4gvqv631095f64jvm7jfj_000000gn/T//cc9F3rxm.s:4634   .debug_str:000000000000030b .LASF140
/var/folders/rt/4gvqv631095f64jvm7jfj_000000gn/T//cc9F3rxm.s:4514   .debug_str:00000000000000b7 .LASF141
/var/folders/rt/4gvqv631095f64jvm7jfj_000000gn/T//cc9F3rxm.s:4716   .debug_str:00000000000004c0 .LASF142
/var/folders/rt/4gvqv631095f64jvm7jfj_000000gn/T//cc9F3rxm.s:4822   .debug_str:000000000000079d .LASF143
/var/folders/rt/4gvqv631095f64jvm7jfj_000000gn/T//cc9F3rxm.s:4646   .debug_str:000000000000034f .LASF144
/var/folders/rt/4gvqv631095f64jvm7jfj_000000gn/T//cc9F3rxm.s:4512   .debug_str:00000000000000aa .LASF145
/var/folders/rt/4gvqv631095f64jvm7jfj_000000gn/T//cc9F3rxm.s:4794   .debug_str:00000000000006fd .LASF146
/var/folders/rt/4gvqv631095f64jvm7jfj_000000gn/T//cc9F3rxm.s:4786   .debug_str:00000000000006db .LASF147
/var/folders/rt/4gvqv631095f64jvm7jfj_000000gn/T//cc9F3rxm.s:4784   .debug_str:00000000000006d1 .LASF148
/var/folders/rt/4gvqv631095f64jvm7jfj_000000gn/T//cc9F3rxm.s:4648   .debug_str:000000000000035b .LASF149
/var/folders/rt/4gvqv631095f64jvm7jfj_000000gn/T//cc9F3rxm.s:4754   .debug_str:0000000000000570 .LASF150
/var/folders/rt/4gvqv631095f64jvm7jfj_000000gn/T//cc9F3rxm.s:4642   .debug_str:000000000000033e .LASF151
/var/folders/rt/4gvqv631095f64jvm7jfj_000000gn/T//cc9F3rxm.s:4674   .debug_str:00000000000003ee .LASF152
/var/folders/rt/4gvqv631095f64jvm7jfj_000000gn/T//cc9F3rxm.s:4766   .debug_str:000000000000066a .LASF153
/var/folders/rt/4gvqv631095f64jvm7jfj_000000gn/T//cc9F3rxm.s:4496   .debug_str:000000000000003e .LASF154
/var/folders/rt/4gvqv631095f64jvm7jfj_000000gn/T//cc9F3rxm.s:4484   .debug_str:000000000000000c .LASF155
/var/folders/rt/4gvqv631095f64jvm7jfj_000000gn/T//cc9F3rxm.s:4542   .debug_str:0000000000000141 .LASF158
/var/folders/rt/4gvqv631095f64jvm7jfj_000000gn/T//cc9F3rxm.s:528    .text.renderAllHistory:0000000000000000 .LFB5
/var/folders/rt/4gvqv631095f64jvm7jfj_000000gn/T//cc9F3rxm.s:817    .text.renderAllHistory:00000000000001c0 .LFE5
/var/folders/rt/4gvqv631095f64jvm7jfj_000000gn/T//cc9F3rxm.s:4135   .debug_loc:0000000000000000 .LLST9
/var/folders/rt/4gvqv631095f64jvm7jfj_000000gn/T//cc9F3rxm.s:4636   .debug_str:0000000000000323 .LASF156
/var/folders/rt/4gvqv631095f64jvm7jfj_000000gn/T//cc9F3rxm.s:4158   .debug_loc:000000000000003a .LLST10
/var/folders/rt/4gvqv631095f64jvm7jfj_000000gn/T//cc9F3rxm.s:4698   .debug_str:0000000000000457 .LASF157
/var/folders/rt/4gvqv631095f64jvm7jfj_000000gn/T//cc9F3rxm.s:4172   .debug_loc:000000000000005b .LLST11
/var/folders/rt/4gvqv631095f64jvm7jfj_000000gn/T//cc9F3rxm.s:4194   .debug_loc:0000000000000092 .LLST12
/var/folders/rt/4gvqv631095f64jvm7jfj_000000gn/T//cc9F3rxm.s:643    .text.renderAllHistory:0000000000000078 .LVL40
/var/folders/rt/4gvqv631095f64jvm7jfj_000000gn/T//cc9F3rxm.s:654    .text.renderAllHistory:0000000000000096 .LVL41
/var/folders/rt/4gvqv631095f64jvm7jfj_000000gn/T//cc9F3rxm.s:662    .text.renderAllHistory:00000000000000ac .LVL42
/var/folders/rt/4gvqv631095f64jvm7jfj_000000gn/T//cc9F3rxm.s:688    .text.renderAllHistory:00000000000000dc .LVL43
/var/folders/rt/4gvqv631095f64jvm7jfj_000000gn/T//cc9F3rxm.s:713    .text.renderAllHistory:0000000000000108 .LVL44
/var/folders/rt/4gvqv631095f64jvm7jfj_000000gn/T//cc9F3rxm.s:738    .text.renderAllHistory:0000000000000134 .LVL45
/var/folders/rt/4gvqv631095f64jvm7jfj_000000gn/T//cc9F3rxm.s:763    .text.renderAllHistory:0000000000000162 .LVL46
/var/folders/rt/4gvqv631095f64jvm7jfj_000000gn/T//cc9F3rxm.s:788    .text.renderAllHistory:0000000000000190 .LVL47
/var/folders/rt/4gvqv631095f64jvm7jfj_000000gn/T//cc9F3rxm.s:813    .text.renderAllHistory:00000000000001be .LVL48
/var/folders/rt/4gvqv631095f64jvm7jfj_000000gn/T//cc9F3rxm.s:4750   .debug_str:000000000000055b .LASF159
/var/folders/rt/4gvqv631095f64jvm7jfj_000000gn/T//cc9F3rxm.s:224    .text.renderOnePlant:0000000000000000 .LFB4
/var/folders/rt/4gvqv631095f64jvm7jfj_000000gn/T//cc9F3rxm.s:521    .text.renderOnePlant:0000000000000230 .LFE4
/var/folders/rt/4gvqv631095f64jvm7jfj_000000gn/T//cc9F3rxm.s:4220   .debug_loc:00000000000000d4 .LLST4
/var/folders/rt/4gvqv631095f64jvm7jfj_000000gn/T//cc9F3rxm.s:4243   .debug_loc:000000000000010e .LLST5
/var/folders/rt/4gvqv631095f64jvm7jfj_000000gn/T//cc9F3rxm.s:4257   .debug_loc:000000000000012f .LLST6
/var/folders/rt/4gvqv631095f64jvm7jfj_000000gn/T//cc9F3rxm.s:4279   .debug_loc:0000000000000166 .LLST7
/var/folders/rt/4gvqv631095f64jvm7jfj_000000gn/T//cc9F3rxm.s:4322   .debug_loc:00000000000001d0 .LLST8
/var/folders/rt/4gvqv631095f64jvm7jfj_000000gn/T//cc9F3rxm.s:283    .text.renderOnePlant:0000000000000044 .LBB7
/var/folders/rt/4gvqv631095f64jvm7jfj_000000gn/T//cc9F3rxm.s:487    .text.renderOnePlant:0000000000000212 .LBE7
/var/folders/rt/4gvqv631095f64jvm7jfj_000000gn/T//cc9F3rxm.s:4502   .debug_str:000000000000005b .LASF160
/var/folders/rt/4gvqv631095f64jvm7jfj_000000gn/T//cc9F3rxm.s:4630   .debug_str:00000000000002ec .LASF161
/var/folders/rt/4gvqv631095f64jvm7jfj_000000gn/T//cc9F3rxm.s:321    .text.renderOnePlant:0000000000000092 .LVL19
/var/folders/rt/4gvqv631095f64jvm7jfj_000000gn/T//cc9F3rxm.s:353    .text.renderOnePlant:00000000000000da .LVL20
GAS LISTING /var/folders/rt/4gvqv631095f64jvm7jfj_000000gn/T//cc9F3rxm.s 			page 28


/var/folders/rt/4gvqv631095f64jvm7jfj_000000gn/T//cc9F3rxm.s:361    .text.renderOnePlant:00000000000000ee .LVL21
/var/folders/rt/4gvqv631095f64jvm7jfj_000000gn/T//cc9F3rxm.s:369    .text.renderOnePlant:0000000000000106 .LVL22
/var/folders/rt/4gvqv631095f64jvm7jfj_000000gn/T//cc9F3rxm.s:408    .text.renderOnePlant:0000000000000156 .LVL23
/var/folders/rt/4gvqv631095f64jvm7jfj_000000gn/T//cc9F3rxm.s:416    .text.renderOnePlant:000000000000016c .LVL24
/var/folders/rt/4gvqv631095f64jvm7jfj_000000gn/T//cc9F3rxm.s:424    .text.renderOnePlant:0000000000000182 .LVL25
/var/folders/rt/4gvqv631095f64jvm7jfj_000000gn/T//cc9F3rxm.s:463    .text.renderOnePlant:00000000000001d4 .LVL26
/var/folders/rt/4gvqv631095f64jvm7jfj_000000gn/T//cc9F3rxm.s:471    .text.renderOnePlant:00000000000001ec .LVL27
/var/folders/rt/4gvqv631095f64jvm7jfj_000000gn/T//cc9F3rxm.s:479    .text.renderOnePlant:0000000000000206 .LVL28
/var/folders/rt/4gvqv631095f64jvm7jfj_000000gn/T//cc9F3rxm.s:275    .text.renderOnePlant:0000000000000038 .LVL16
/var/folders/rt/4gvqv631095f64jvm7jfj_000000gn/T//cc9F3rxm.s:492    .text.renderOnePlant:000000000000021e .LVL30
/var/folders/rt/4gvqv631095f64jvm7jfj_000000gn/T//cc9F3rxm.s:4632   .debug_str:00000000000002fb .LASF162
/var/folders/rt/4gvqv631095f64jvm7jfj_000000gn/T//cc9F3rxm.s:14     .text.renderAllPlants:0000000000000000 .LFB3
/var/folders/rt/4gvqv631095f64jvm7jfj_000000gn/T//cc9F3rxm.s:217    .text.renderAllPlants:0000000000000142 .LFE3
/var/folders/rt/4gvqv631095f64jvm7jfj_000000gn/T//cc9F3rxm.s:4338   .debug_loc:00000000000001fa .LLST0
/var/folders/rt/4gvqv631095f64jvm7jfj_000000gn/T//cc9F3rxm.s:4361   .debug_loc:0000000000000232 .LLST1
/var/folders/rt/4gvqv631095f64jvm7jfj_000000gn/T//cc9F3rxm.s:4375   .debug_loc:0000000000000253 .LLST2
/var/folders/rt/4gvqv631095f64jvm7jfj_000000gn/T//cc9F3rxm.s:4397   .debug_loc:000000000000028a .LLST3
/var/folders/rt/4gvqv631095f64jvm7jfj_000000gn/T//cc9F3rxm.s:109    .text.renderAllPlants:0000000000000058 .LVL6
/var/folders/rt/4gvqv631095f64jvm7jfj_000000gn/T//cc9F3rxm.s:149    .text.renderAllPlants:00000000000000aa .LVL7
/var/folders/rt/4gvqv631095f64jvm7jfj_000000gn/T//cc9F3rxm.s:157    .text.renderAllPlants:00000000000000be .LVL8
/var/folders/rt/4gvqv631095f64jvm7jfj_000000gn/T//cc9F3rxm.s:196    .text.renderAllPlants:000000000000010e .LVL9
/var/folders/rt/4gvqv631095f64jvm7jfj_000000gn/T//cc9F3rxm.s:204    .text.renderAllPlants:0000000000000124 .LVL10
/var/folders/rt/4gvqv631095f64jvm7jfj_000000gn/T//cc9F3rxm.s:212    .text.renderAllPlants:000000000000013c .LVL11
/var/folders/rt/4gvqv631095f64jvm7jfj_000000gn/T//cc9F3rxm.s:4748   .debug_str:000000000000054f .LASF163
/var/folders/rt/4gvqv631095f64jvm7jfj_000000gn/T//cc9F3rxm.s:4762   .debug_str:000000000000064b .LASF164
/var/folders/rt/4gvqv631095f64jvm7jfj_000000gn/T//cc9F3rxm.s:4798   .debug_str:0000000000000712 .LASF165
/var/folders/rt/4gvqv631095f64jvm7jfj_000000gn/T//cc9F3rxm.s:4664   .debug_str:00000000000003b7 .LASF166
/var/folders/rt/4gvqv631095f64jvm7jfj_000000gn/T//cc9F3rxm.s:4488   .debug_str:000000000000001c .LASF167
/var/folders/rt/4gvqv631095f64jvm7jfj_000000gn/T//cc9F3rxm.s:538    .text.renderAllHistory:0000000000000002 .LCFI6
/var/folders/rt/4gvqv631095f64jvm7jfj_000000gn/T//cc9F3rxm.s:622    .text.renderAllHistory:0000000000000058 .LCFI7
/var/folders/rt/4gvqv631095f64jvm7jfj_000000gn/T//cc9F3rxm.s:627    .text.renderAllHistory:000000000000005a .LCFI8
/var/folders/rt/4gvqv631095f64jvm7jfj_000000gn/T//cc9F3rxm.s:531    .text.renderAllHistory:0000000000000000 .LVL34
/var/folders/rt/4gvqv631095f64jvm7jfj_000000gn/T//cc9F3rxm.s:586    .text.renderAllHistory:0000000000000038 .LVL35
/var/folders/rt/4gvqv631095f64jvm7jfj_000000gn/T//cc9F3rxm.s:614    .text.renderAllHistory:0000000000000050 .LVL37
/var/folders/rt/4gvqv631095f64jvm7jfj_000000gn/T//cc9F3rxm.s:625    .text.renderAllHistory:000000000000005a .LVL38
/var/folders/rt/4gvqv631095f64jvm7jfj_000000gn/T//cc9F3rxm.s:601    .text.renderAllHistory:0000000000000044 .LVL36
/var/folders/rt/4gvqv631095f64jvm7jfj_000000gn/T//cc9F3rxm.s:638    .text.renderAllHistory:000000000000006a .LVL39
/var/folders/rt/4gvqv631095f64jvm7jfj_000000gn/T//cc9F3rxm.s:234    .text.renderOnePlant:0000000000000002 .LCFI3
/var/folders/rt/4gvqv631095f64jvm7jfj_000000gn/T//cc9F3rxm.s:507    .text.renderOnePlant:000000000000022a .LCFI4
/var/folders/rt/4gvqv631095f64jvm7jfj_000000gn/T//cc9F3rxm.s:512    .text.renderOnePlant:000000000000022c .LCFI5
/var/folders/rt/4gvqv631095f64jvm7jfj_000000gn/T//cc9F3rxm.s:227    .text.renderOnePlant:0000000000000000 .LVL12
/var/folders/rt/4gvqv631095f64jvm7jfj_000000gn/T//cc9F3rxm.s:252    .text.renderOnePlant:0000000000000012 .LVL13
/var/folders/rt/4gvqv631095f64jvm7jfj_000000gn/T//cc9F3rxm.s:505    .text.renderOnePlant:0000000000000228 .LVL31
/var/folders/rt/4gvqv631095f64jvm7jfj_000000gn/T//cc9F3rxm.s:510    .text.renderOnePlant:000000000000022c .LVL32
/var/folders/rt/4gvqv631095f64jvm7jfj_000000gn/T//cc9F3rxm.s:260    .text.renderOnePlant:000000000000001c .LVL14
/var/folders/rt/4gvqv631095f64jvm7jfj_000000gn/T//cc9F3rxm.s:266    .text.renderOnePlant:000000000000002a .LVL15
/var/folders/rt/4gvqv631095f64jvm7jfj_000000gn/T//cc9F3rxm.s:282    .text.renderOnePlant:0000000000000044 .LVL17
/var/folders/rt/4gvqv631095f64jvm7jfj_000000gn/T//cc9F3rxm.s:485    .text.renderOnePlant:0000000000000212 .LVL29
/var/folders/rt/4gvqv631095f64jvm7jfj_000000gn/T//cc9F3rxm.s:299    .text.renderOnePlant:000000000000005c .LVL18
/var/folders/rt/4gvqv631095f64jvm7jfj_000000gn/T//cc9F3rxm.s:25     .text.renderAllPlants:0000000000000002 .LCFI0
/var/folders/rt/4gvqv631095f64jvm7jfj_000000gn/T//cc9F3rxm.s:89     .text.renderAllPlants:000000000000003e .LCFI1
/var/folders/rt/4gvqv631095f64jvm7jfj_000000gn/T//cc9F3rxm.s:94     .text.renderAllPlants:0000000000000040 .LCFI2
/var/folders/rt/4gvqv631095f64jvm7jfj_000000gn/T//cc9F3rxm.s:18     .text.renderAllPlants:0000000000000000 .LVL0
/var/folders/rt/4gvqv631095f64jvm7jfj_000000gn/T//cc9F3rxm.s:61     .text.renderAllPlants:0000000000000026 .LVL1
/var/folders/rt/4gvqv631095f64jvm7jfj_000000gn/T//cc9F3rxm.s:83     .text.renderAllPlants:0000000000000038 .LVL3
/var/folders/rt/4gvqv631095f64jvm7jfj_000000gn/T//cc9F3rxm.s:92     .text.renderAllPlants:0000000000000040 .LVL4
/var/folders/rt/4gvqv631095f64jvm7jfj_000000gn/T//cc9F3rxm.s:80     .text.renderAllPlants:0000000000000036 .LVL2
GAS LISTING /var/folders/rt/4gvqv631095f64jvm7jfj_000000gn/T//cc9F3rxm.s 			page 29


/var/folders/rt/4gvqv631095f64jvm7jfj_000000gn/T//cc9F3rxm.s:105    .text.renderAllPlants:000000000000004e .LVL5
/var/folders/rt/4gvqv631095f64jvm7jfj_000000gn/T//cc9F3rxm.s:852    .debug_info:0000000000000000 .Ldebug_info0
/var/folders/rt/4gvqv631095f64jvm7jfj_000000gn/T//cc9F3rxm.s:20     .text.renderAllPlants:0000000000000000 .LBB2
/var/folders/rt/4gvqv631095f64jvm7jfj_000000gn/T//cc9F3rxm.s:22     .text.renderAllPlants:0000000000000000 .LBE2
/var/folders/rt/4gvqv631095f64jvm7jfj_000000gn/T//cc9F3rxm.s:29     .text.renderAllPlants:0000000000000004 .LBB3
/var/folders/rt/4gvqv631095f64jvm7jfj_000000gn/T//cc9F3rxm.s:32     .text.renderAllPlants:0000000000000006 .LBE3
/var/folders/rt/4gvqv631095f64jvm7jfj_000000gn/T//cc9F3rxm.s:53     .text.renderAllPlants:000000000000001a .LBB4
/var/folders/rt/4gvqv631095f64jvm7jfj_000000gn/T//cc9F3rxm.s:65     .text.renderAllPlants:000000000000002a .LBE4
/var/folders/rt/4gvqv631095f64jvm7jfj_000000gn/T//cc9F3rxm.s:96     .text.renderAllPlants:0000000000000040 .LBB5
/var/folders/rt/4gvqv631095f64jvm7jfj_000000gn/T//cc9F3rxm.s:215    .text.renderAllPlants:0000000000000142 .LBE5
/var/folders/rt/4gvqv631095f64jvm7jfj_000000gn/T//cc9F3rxm.s:229    .text.renderOnePlant:0000000000000000 .LBB6
/var/folders/rt/4gvqv631095f64jvm7jfj_000000gn/T//cc9F3rxm.s:231    .text.renderOnePlant:0000000000000000 .LBE6
/var/folders/rt/4gvqv631095f64jvm7jfj_000000gn/T//cc9F3rxm.s:249    .text.renderOnePlant:0000000000000010 .LBB8
/var/folders/rt/4gvqv631095f64jvm7jfj_000000gn/T//cc9F3rxm.s:256    .text.renderOnePlant:0000000000000016 .LBE8
/var/folders/rt/4gvqv631095f64jvm7jfj_000000gn/T//cc9F3rxm.s:268    .text.renderOnePlant:000000000000002a .LBB9
/var/folders/rt/4gvqv631095f64jvm7jfj_000000gn/T//cc9F3rxm.s:488    .text.renderOnePlant:0000000000000212 .LBE9
/var/folders/rt/4gvqv631095f64jvm7jfj_000000gn/T//cc9F3rxm.s:514    .text.renderOnePlant:000000000000022c .LBB10
/var/folders/rt/4gvqv631095f64jvm7jfj_000000gn/T//cc9F3rxm.s:519    .text.renderOnePlant:0000000000000230 .LBE10
/var/folders/rt/4gvqv631095f64jvm7jfj_000000gn/T//cc9F3rxm.s:533    .text.renderAllHistory:0000000000000000 .LBB11
/var/folders/rt/4gvqv631095f64jvm7jfj_000000gn/T//cc9F3rxm.s:535    .text.renderAllHistory:0000000000000000 .LBE11
/var/folders/rt/4gvqv631095f64jvm7jfj_000000gn/T//cc9F3rxm.s:542    .text.renderAllHistory:0000000000000004 .LBB12
/var/folders/rt/4gvqv631095f64jvm7jfj_000000gn/T//cc9F3rxm.s:545    .text.renderAllHistory:0000000000000006 .LBE12
/var/folders/rt/4gvqv631095f64jvm7jfj_000000gn/T//cc9F3rxm.s:574    .text.renderAllHistory:0000000000000022 .LBB13
/var/folders/rt/4gvqv631095f64jvm7jfj_000000gn/T//cc9F3rxm.s:590    .text.renderAllHistory:000000000000003c .LBE13
/var/folders/rt/4gvqv631095f64jvm7jfj_000000gn/T//cc9F3rxm.s:629    .text.renderAllHistory:000000000000005a .LBB14
/var/folders/rt/4gvqv631095f64jvm7jfj_000000gn/T//cc9F3rxm.s:815    .text.renderAllHistory:00000000000001c0 .LBE14

UNDEFINED SYMBOLS
LCD_ShowStr
LCD_ShowNum
strcmp
generateTimeStampFromValue
LCD_Fill
