GAS LISTING /var/folders/rt/4gvqv631095f64jvm7jfj_000000gn/T//ccqJhKuJ.s 			page 1


   1              		.file	"sdcard.c"
   2              		.option nopic
   3              		.attribute arch, "rv32i2p0_m2p0_a2p0_c2p0"
   4              		.attribute unaligned_access, 0
   5              		.attribute stack_align, 16
   6              		.text
   7              	.Ltext0:
   8              		.cfi_sections	.debug_frame
   9              		.section	.text.loadDB,"ax",@progbits
  10              		.align	1
  11              		.globl	loadDB
  13              	loadDB:
  14              	.LFB6:
  15              		.file 1 "sdcard.c"
   1:sdcard.c      **** #include "plant.h"
   2:sdcard.c      **** #include "gd32vf103.h"
   3:sdcard.c      **** #include "stdio.h"
   4:sdcard.c      **** #include "string.h"
   5:sdcard.c      **** #include "ff.h"
   6:sdcard.c      **** #define ENABLE_LCD_SPEED()                                \
   7:sdcard.c      ****     {                                                     \
   8:sdcard.c      ****         SPI_CTL0(SPI1) = (SPI_CTL0(SPI1) & ~0x38) | 0x08; \
   9:sdcard.c      ****     }
  10:sdcard.c      **** #define ENABLE_SD_SPEED()                                 \
  11:sdcard.c      ****     {                                                     \
  12:sdcard.c      ****         SPI_CTL0(SPI1) = (SPI_CTL0(SPI1) & ~0x38) | 0x28; \
  13:sdcard.c      ****     } // Set SCLK = PCLK2
  14:sdcard.c      **** 
  15:sdcard.c      **** int loadDB(Plant allPlants[], int *numberOfPlants)
  16:sdcard.c      **** {
  16              		.loc 1 16 1
  17              		.cfi_startproc
  18              	.LVL0:
  17:sdcard.c      ****     ENABLE_SD_SPEED();
  19              		.loc 1 17 5
  16:sdcard.c      ****     ENABLE_SD_SPEED();
  20              		.loc 1 16 1 is_stmt 0
  21 0000 5571     		addi	sp,sp,-208
  22              	.LCFI0:
  23              		.cfi_def_cfa_offset 208
  24 0002 CAC1     		sw	s2,192(sp)
  25              		.cfi_offset 18, -16
  26              		.loc 1 17 5
  27 0004 37490040 		li	s2,1073758208
  28 0008 83270980 		lw	a5,-2048(s2)
  16:sdcard.c      ****     ENABLE_SD_SPEED();
  29              		.loc 1 16 1
  30 000c 4EDF     		sw	s3,188(sp)
  31 000e 7D73     		li	t1,-4096
  32              		.loc 1 17 5
  33 0010 93F777FC 		andi	a5,a5,-57
  34              		.cfi_offset 19, -20
  18:sdcard.c      ****     PlantDatabase db = {0};
  35              		.loc 1 18 19
  36 0014 8569     		li	s3,4096
  16:sdcard.c      ****     ENABLE_SD_SPEED();
  37              		.loc 1 16 1
GAS LISTING /var/folders/rt/4gvqv631095f64jvm7jfj_000000gn/T//ccqJhKuJ.s 			page 2


  38 0016 A2C5     		sw	s0,200(sp)
  39 0018 A6C3     		sw	s1,196(sp)
  40 001a 52DD     		sw	s4,184(sp)
  41 001c 56DB     		sw	s5,180(sp)
  42 001e 5AD9     		sw	s6,176(sp)
  43 0020 86C7     		sw	ra,204(sp)
  17:sdcard.c      ****     ENABLE_SD_SPEED();
  44              		.loc 1 17 5
  45 0022 93E78702 		ori	a5,a5,40
  16:sdcard.c      ****     ENABLE_SD_SPEED();
  46              		.loc 1 16 1
  47 0026 1A91     		add	sp,sp,t1
  48              	.LCFI1:
  49              		.cfi_def_cfa_offset 4304
  50              		.cfi_offset 8, -8
  51              		.cfi_offset 9, -12
  52              		.cfi_offset 20, -24
  53              		.cfi_offset 21, -28
  54              		.cfi_offset 22, -32
  55              		.cfi_offset 1, -4
  56              		.loc 1 18 19
  57 0028 138B69E7 		addi	s6,s3,-394
  17:sdcard.c      ****     ENABLE_SD_SPEED();
  58              		.loc 1 17 5
  59 002c 2320F980 		sw	a5,-2048(s2)
  17:sdcard.c      ****     ENABLE_SD_SPEED();
  60              		.loc 1 17 22 is_stmt 1
  61              		.loc 1 18 5
  62              		.loc 1 18 19 is_stmt 0
  63 0030 5A86     		mv	a2,s6
  16:sdcard.c      ****     ENABLE_SD_SPEED();
  64              		.loc 1 16 1
  65 0032 2A8A     		mv	s4,a0
  66 0034 AE8A     		mv	s5,a1
  67              		.loc 1 18 19
  68 0036 281C     		addi	a0,sp,568
  69              	.LVL1:
  70 0038 8145     		li	a1,0
  71              	.LVL2:
  72 003a 97000000 		call	memset
  72      E7800000 
  73              	.LVL3:
  19:sdcard.c      ****     FIL file;
  74              		.loc 1 19 5 is_stmt 1
  20:sdcard.c      ****     UINT br;
  75              		.loc 1 20 5
  21:sdcard.c      **** 
  22:sdcard.c      ****     if (f_open(&file, "database.bin", FA_READ) == FR_OK)
  76              		.loc 1 22 5
  77              		.loc 1 22 9 is_stmt 0
  78 0042 8567     		li	a5,4096
  18:sdcard.c      ****     FIL file;
  79              		.loc 1 18 19
  80 0044 7D74     		li	s0,-4096
  81              		.loc 1 22 9
  82 0046 9387070B 		addi	a5,a5,176
  83 004a 930404F6 		addi	s1,s0,-160
GAS LISTING /var/folders/rt/4gvqv631095f64jvm7jfj_000000gn/T//ccqJhKuJ.s 			page 3


  84 004e 8A97     		add	a5,a5,sp
  85 0050 BE94     		add	s1,a5,s1
  86 0052 B7050000 		lui	a1,%hi(.LC0)
  87 0056 0546     		li	a2,1
  88 0058 93850500 		addi	a1,a1,%lo(.LC0)
  89 005c 2685     		mv	a0,s1
  90 005e 97000000 		call	f_open
  90      E7800000 
  91              	.LVL4:
  92              		.loc 1 22 8
  93 0066 49E9     		bne	a0,zero,.L2
  23:sdcard.c      ****     {
  24:sdcard.c      ****         if (f_read(&file, &db, sizeof(db), &br) == FR_OK)
  94              		.loc 1 24 9 is_stmt 1
  95              		.loc 1 24 13 is_stmt 0
  96 0068 0567     		li	a4,4096
  97 006a 9307070B 		addi	a5,a4,176
  98 006e 8A97     		add	a5,a5,sp
  99 0070 9306C4F5 		addi	a3,s0,-164
 100 0074 BE96     		add	a3,a5,a3
 101 0076 9307070B 		addi	a5,a4,176
 102 007a 93058418 		addi	a1,s0,392
 103 007e 8A97     		add	a5,a5,sp
 104 0080 5A86     		mv	a2,s6
 105 0082 BE95     		add	a1,a5,a1
 106 0084 2685     		mv	a0,s1
 107 0086 97000000 		call	f_read
 107      E7800000 
 108              	.LVL5:
 109              		.loc 1 24 12
 110 008e 29E9     		bne	a0,zero,.L3
  25:sdcard.c      ****         {
  26:sdcard.c      ****             f_close(&file);
 111              		.loc 1 26 13 is_stmt 1
 112 0090 2685     		mv	a0,s1
 113 0092 97000000 		call	f_close
 113      E7800000 
 114              	.LVL6:
  27:sdcard.c      ****             *numberOfPlants = db.numberOfPlants;
 115              		.loc 1 27 13
 116              		.loc 1 27 33 is_stmt 0
 117 009a 83270124 		lw	a5,576(sp)
 118              		.loc 1 27 29
 119 009e 23A0FA00 		sw	a5,0(s5)
  28:sdcard.c      ****             if (db.numberOfPlants > 0)
 120              		.loc 1 28 13 is_stmt 1
 121              		.loc 1 28 16 is_stmt 0
 122 00a2 635FF002 		ble	a5,zero,.L3
  29:sdcard.c      ****             {
  30:sdcard.c      ****                 memcpy(allPlants,
 123              		.loc 1 30 17 is_stmt 1
 124 00a6 1386A9E6 		addi	a2,s3,-406
 125 00aa CC04     		addi	a1,sp,580
 126 00ac 5285     		mv	a0,s4
 127 00ae 97000000 		call	memcpy
 127      E7800000 
 128              	.LVL7:
GAS LISTING /var/folders/rt/4gvqv631095f64jvm7jfj_000000gn/T//ccqJhKuJ.s 			page 4


  31:sdcard.c      ****                        db.plants,
  32:sdcard.c      ****                        sizeof(db.plants));
  33:sdcard.c      ****                 ENABLE_LCD_SPEED();
 129              		.loc 1 33 17
 130 00b6 83270980 		lw	a5,-2048(s2)
  34:sdcard.c      ****                 return 1;
 131              		.loc 1 34 24 is_stmt 0
 132 00ba 0545     		li	a0,1
  33:sdcard.c      ****                 return 1;
 133              		.loc 1 33 17
 134 00bc 93F777FC 		andi	a5,a5,-57
 135 00c0 93E78700 		ori	a5,a5,8
 136 00c4 2320F980 		sw	a5,-2048(s2)
  33:sdcard.c      ****                 return 1;
 137              		.loc 1 33 35 is_stmt 1
 138              		.loc 1 34 17
 139              	.L1:
  35:sdcard.c      ****             }
  36:sdcard.c      ****         }
  37:sdcard.c      ****         f_close(&file);
  38:sdcard.c      ****     }
  39:sdcard.c      ****     ENABLE_LCD_SPEED();
  40:sdcard.c      ****     return 0;
  41:sdcard.c      **** }
 140              		.loc 1 41 1 is_stmt 0
 141 00c8 0563     		li	t1,4096
 142 00ca 1A91     		add	sp,sp,t1
 143              	.LCFI2:
 144              		.cfi_remember_state
 145              		.cfi_def_cfa_offset 208
 146 00cc BE40     		lw	ra,204(sp)
 147              		.cfi_restore 1
 148 00ce 2E44     		lw	s0,200(sp)
 149              		.cfi_restore 8
 150 00d0 9E44     		lw	s1,196(sp)
 151              		.cfi_restore 9
 152 00d2 0E49     		lw	s2,192(sp)
 153              		.cfi_restore 18
 154 00d4 FA59     		lw	s3,188(sp)
 155              		.cfi_restore 19
 156 00d6 6A5A     		lw	s4,184(sp)
 157              		.cfi_restore 20
 158              	.LVL8:
 159 00d8 DA5A     		lw	s5,180(sp)
 160              		.cfi_restore 21
 161              	.LVL9:
 162 00da 4A5B     		lw	s6,176(sp)
 163              		.cfi_restore 22
 164 00dc 6961     		addi	sp,sp,208
 165              	.LCFI3:
 166              		.cfi_def_cfa_offset 0
 167 00de 8280     		jr	ra
 168              	.LVL10:
 169              	.L3:
 170              	.LCFI4:
 171              		.cfi_restore_state
  37:sdcard.c      ****     }
GAS LISTING /var/folders/rt/4gvqv631095f64jvm7jfj_000000gn/T//ccqJhKuJ.s 			page 5


 172              		.loc 1 37 9 is_stmt 1
 173 00e0 8567     		li	a5,4096
 174 00e2 7D75     		li	a0,-4096
 175 00e4 9387070B 		addi	a5,a5,176
 176 00e8 130505F6 		addi	a0,a0,-160
 177 00ec 8A97     		add	a5,a5,sp
 178 00ee 3E95     		add	a0,a5,a0
 179 00f0 97000000 		call	f_close
 179      E7800000 
 180              	.LVL11:
 181              	.L2:
  39:sdcard.c      ****     return 0;
 182              		.loc 1 39 5
 183 00f8 37470040 		li	a4,1073758208
 184 00fc 83270780 		lw	a5,-2048(a4)
  40:sdcard.c      **** }
 185              		.loc 1 40 12 is_stmt 0
 186 0100 0145     		li	a0,0
  39:sdcard.c      ****     return 0;
 187              		.loc 1 39 5
 188 0102 93F777FC 		andi	a5,a5,-57
 189 0106 93E78700 		ori	a5,a5,8
 190 010a 2320F780 		sw	a5,-2048(a4)
  39:sdcard.c      ****     return 0;
 191              		.loc 1 39 23 is_stmt 1
  40:sdcard.c      **** }
 192              		.loc 1 40 5
  40:sdcard.c      **** }
 193              		.loc 1 40 12 is_stmt 0
 194 010e 6DBF     		j	.L1
 195              		.cfi_endproc
 196              	.LFE6:
 198              		.section	.text.saveDB,"ax",@progbits
 199              		.align	1
 200              		.globl	saveDB
 202              	saveDB:
 203              	.LFB7:
  42:sdcard.c      **** 
  43:sdcard.c      **** int saveDB(Plant allPlants[], int numberOfPlants)
  44:sdcard.c      **** {
 204              		.loc 1 44 1 is_stmt 1
 205              		.cfi_startproc
 206              	.LVL12:
  45:sdcard.c      ****     ENABLE_SD_SPEED();
 207              		.loc 1 45 5
  44:sdcard.c      ****     ENABLE_SD_SPEED();
 208              		.loc 1 44 1 is_stmt 0
 209 0000 5571     		addi	sp,sp,-208
 210              	.LCFI5:
 211              		.cfi_def_cfa_offset 208
 212 0002 CAC1     		sw	s2,192(sp)
 213              		.cfi_offset 18, -16
 214              		.loc 1 45 5
 215 0004 37490040 		li	s2,1073758208
 216 0008 83270980 		lw	a5,-2048(s2)
  44:sdcard.c      ****     ENABLE_SD_SPEED();
 217              		.loc 1 44 1
GAS LISTING /var/folders/rt/4gvqv631095f64jvm7jfj_000000gn/T//ccqJhKuJ.s 			page 6


 218 000c 52DD     		sw	s4,184(sp)
 219 000e 7D73     		li	t1,-4096
 220              		.loc 1 45 5
 221 0010 93F777FC 		andi	a5,a5,-57
 222              		.cfi_offset 20, -24
  46:sdcard.c      ****     PlantDatabase db = {0};
 223              		.loc 1 46 19
 224 0014 056A     		li	s4,4096
  44:sdcard.c      ****     ENABLE_SD_SPEED();
 225              		.loc 1 44 1
 226 0016 86C7     		sw	ra,204(sp)
 227 0018 A2C5     		sw	s0,200(sp)
 228 001a A6C3     		sw	s1,196(sp)
 229 001c 4EDF     		sw	s3,188(sp)
 230 001e 56DB     		sw	s5,180(sp)
 231 0020 5AD9     		sw	s6,176(sp)
  45:sdcard.c      ****     ENABLE_SD_SPEED();
 232              		.loc 1 45 5
 233 0022 93E78702 		ori	a5,a5,40
  44:sdcard.c      ****     ENABLE_SD_SPEED();
 234              		.loc 1 44 1
 235 0026 1A91     		add	sp,sp,t1
 236              	.LCFI6:
 237              		.cfi_def_cfa_offset 4304
 238              		.cfi_offset 1, -4
 239              		.cfi_offset 8, -8
 240              		.cfi_offset 9, -12
 241              		.cfi_offset 19, -20
 242              		.cfi_offset 21, -28
 243              		.cfi_offset 22, -32
 244              		.loc 1 46 19
 245 0028 130A6AE7 		addi	s4,s4,-394
  44:sdcard.c      ****     ENABLE_SD_SPEED();
 246              		.loc 1 44 1
 247 002c 2E84     		mv	s0,a1
 248 002e AA8A     		mv	s5,a0
  45:sdcard.c      ****     ENABLE_SD_SPEED();
 249              		.loc 1 45 5
 250 0030 2320F980 		sw	a5,-2048(s2)
  45:sdcard.c      ****     ENABLE_SD_SPEED();
 251              		.loc 1 45 22 is_stmt 1
 252              		.loc 1 46 5
 253              		.loc 1 46 19 is_stmt 0
 254 0034 5286     		mv	a2,s4
 255 0036 8145     		li	a1,0
 256              	.LVL13:
 257 0038 281C     		addi	a0,sp,568
 258              	.LVL14:
 259 003a 97000000 		call	memset
 259      E7800000 
 260              	.LVL15:
  47:sdcard.c      ****     FIL file;
 261              		.loc 1 47 5 is_stmt 1
  48:sdcard.c      ****     UINT bw;
 262              		.loc 1 48 5
  49:sdcard.c      **** 
  50:sdcard.c      ****     db.numberOfPlants = numberOfPlants;
GAS LISTING /var/folders/rt/4gvqv631095f64jvm7jfj_000000gn/T//ccqJhKuJ.s 			page 7


 263              		.loc 1 50 5
  51:sdcard.c      **** 
  52:sdcard.c      ****     memcpy(db.plants,
 264              		.loc 1 52 5 is_stmt 0
 265 0042 1306E04C 		li	a2,1230
 266 0046 3306C402 		mul	a2,s0,a2
 267 004a 056B     		li	s6,4096
  46:sdcard.c      ****     FIL file;
 268              		.loc 1 46 19
 269 004c FD74     		li	s1,-4096
 270              		.loc 1 52 5
 271 004e 93070B0B 		addi	a5,s6,176
 272 0052 8A97     		add	a5,a5,sp
 273 0054 93898418 		addi	s3,s1,392
 274 0058 BE99     		add	s3,a5,s3
 275 005a D685     		mv	a1,s5
 276 005c 1385C900 		addi	a0,s3,12
  50:sdcard.c      **** 
 277              		.loc 1 50 23
 278 0060 23208124 		sw	s0,576(sp)
 279              		.loc 1 52 5 is_stmt 1
 280 0064 97000000 		call	memcpy
 280      E7800000 
 281              	.LVL16:
  53:sdcard.c      ****            allPlants,
  54:sdcard.c      ****            numberOfPlants * sizeof(Plant));
  55:sdcard.c      **** 
  56:sdcard.c      ****     if (f_open(&file, "database.bin", FA_CREATE_ALWAYS | FA_WRITE) == FR_OK)
 282              		.loc 1 56 5
 283              		.loc 1 56 9 is_stmt 0
 284 006c 93070B0B 		addi	a5,s6,176
 285 0070 138404F6 		addi	s0,s1,-160
 286              	.LVL17:
 287 0074 8A97     		add	a5,a5,sp
 288 0076 3E94     		add	s0,a5,s0
 289 0078 B7050000 		lui	a1,%hi(.LC0)
 290 007c 2946     		li	a2,10
 291 007e 93850500 		addi	a1,a1,%lo(.LC0)
 292 0082 2285     		mv	a0,s0
 293 0084 97000000 		call	f_open
 293      E7800000 
 294              	.LVL18:
 295              		.loc 1 56 8
 296 008c 39ED     		bne	a0,zero,.L7
  57:sdcard.c      ****     {
  58:sdcard.c      ****         if (f_write(&file, &db, sizeof(db), &bw) == FR_OK)
 297              		.loc 1 58 9 is_stmt 1
 298              		.loc 1 58 13 is_stmt 0
 299 008e 8567     		li	a5,4096
 300 0090 9387070B 		addi	a5,a5,176
 301 0094 9386C4F5 		addi	a3,s1,-164
 302 0098 8A97     		add	a5,a5,sp
 303 009a BE96     		add	a3,a5,a3
 304 009c 5286     		mv	a2,s4
 305 009e CE85     		mv	a1,s3
 306 00a0 2285     		mv	a0,s0
 307 00a2 97000000 		call	f_write
GAS LISTING /var/folders/rt/4gvqv631095f64jvm7jfj_000000gn/T//ccqJhKuJ.s 			page 8


 307      E7800000 
 308              	.LVL19:
 309              		.loc 1 58 12
 310 00aa 1DE9     		bne	a0,zero,.L8
  59:sdcard.c      ****         {
  60:sdcard.c      ****             f_close(&file);
 311              		.loc 1 60 13 is_stmt 1
 312 00ac 2285     		mv	a0,s0
 313 00ae 97000000 		call	f_close
 313      E7800000 
 314              	.LVL20:
  61:sdcard.c      ****             ENABLE_LCD_SPEED();
 315              		.loc 1 61 13
 316 00b6 83270980 		lw	a5,-2048(s2)
  62:sdcard.c      ****             return 1;
 317              		.loc 1 62 20 is_stmt 0
 318 00ba 0545     		li	a0,1
  61:sdcard.c      ****             ENABLE_LCD_SPEED();
 319              		.loc 1 61 13
 320 00bc 93F777FC 		andi	a5,a5,-57
 321 00c0 93E78700 		ori	a5,a5,8
 322 00c4 2320F980 		sw	a5,-2048(s2)
  61:sdcard.c      ****             ENABLE_LCD_SPEED();
 323              		.loc 1 61 31 is_stmt 1
 324              		.loc 1 62 13
 325              	.L6:
  63:sdcard.c      ****         }
  64:sdcard.c      **** 
  65:sdcard.c      ****         f_close(&file);
  66:sdcard.c      ****     }
  67:sdcard.c      ****     ENABLE_LCD_SPEED();
  68:sdcard.c      ****     return 0;
  69:sdcard.c      **** }...
 326              		.loc 1 69 1 is_stmt 0
 327 00c8 0563     		li	t1,4096
 328 00ca 1A91     		add	sp,sp,t1
 329              	.LCFI7:
 330              		.cfi_remember_state
 331              		.cfi_def_cfa_offset 208
 332 00cc BE40     		lw	ra,204(sp)
 333              		.cfi_restore 1
 334 00ce 2E44     		lw	s0,200(sp)
 335              		.cfi_restore 8
 336 00d0 9E44     		lw	s1,196(sp)
 337              		.cfi_restore 9
 338 00d2 0E49     		lw	s2,192(sp)
 339              		.cfi_restore 18
 340 00d4 FA59     		lw	s3,188(sp)
 341              		.cfi_restore 19
 342 00d6 6A5A     		lw	s4,184(sp)
 343              		.cfi_restore 20
 344 00d8 DA5A     		lw	s5,180(sp)
 345              		.cfi_restore 21
 346              	.LVL21:
 347 00da 4A5B     		lw	s6,176(sp)
 348              		.cfi_restore 22
 349 00dc 6961     		addi	sp,sp,208
GAS LISTING /var/folders/rt/4gvqv631095f64jvm7jfj_000000gn/T//ccqJhKuJ.s 			page 9


 350              	.LCFI8:
 351              		.cfi_def_cfa_offset 0
 352 00de 8280     		jr	ra
 353              	.LVL22:
 354              	.L8:
 355              	.LCFI9:
 356              		.cfi_restore_state
  65:sdcard.c      ****         f_close(&file);
 357              		.loc 1 65 9 is_stmt 1
 358 00e0 2285     		mv	a0,s0
 359 00e2 97000000 		call	f_close
 359      E7800000 
 360              	.LVL23:
 361              	.L7:
  67:sdcard.c      ****     ENABLE_LCD_SPEED();
 362              		.loc 1 67 5
 363 00ea 37470040 		li	a4,1073758208
 364 00ee 83270780 		lw	a5,-2048(a4)
  68:sdcard.c      ****     return 0;
 365              		.loc 1 68 12 is_stmt 0
 366 00f2 0145     		li	a0,0
  67:sdcard.c      ****     ENABLE_LCD_SPEED();
 367              		.loc 1 67 5
 368 00f4 93F777FC 		andi	a5,a5,-57
 369 00f8 93E78700 		ori	a5,a5,8
 370 00fc 2320F780 		sw	a5,-2048(a4)
  67:sdcard.c      ****     ENABLE_LCD_SPEED();
 371              		.loc 1 67 23 is_stmt 1
  68:sdcard.c      ****     return 0;
 372              		.loc 1 68 5
  68:sdcard.c      ****     return 0;
 373              		.loc 1 68 12 is_stmt 0
 374 0100 E1B7     		j	.L6
 375              		.cfi_endproc
 376              	.LFE7:
 378              		.section	.rodata.loadDB.str1.4,"aMS",@progbits,1
 379              		.align	2
 380              	.LC0:
 381 0000 64617461 		.string	"database.bin"
 381      62617365 
 381      2E62696E 
 381      00
 382              		.text
 383              	.Letext0:
 384              		.file 2 "/Users/alexstrae/toolchain-gd32v-v202-osx/compiler/riscv64-unknown-elf/include/machine/_d
 385              		.file 3 "/Users/alexstrae/toolchain-gd32v-v202-osx/compiler/riscv64-unknown-elf/include/sys/_stdin
 386              		.file 4 "plant.h"
 387              		.file 5 "/Users/alexstrae/toolchain-gd32v-v202-osx/compiler/lib/gcc/riscv64-unknown-elf/8.3.0/incl
 388              		.file 6 "/Users/alexstrae/toolchain-gd32v-v202-osx/compiler/riscv64-unknown-elf/include/sys/_types
 389              		.file 7 "/Users/alexstrae/toolchain-gd32v-v202-osx/compiler/riscv64-unknown-elf/include/sys/reent.
 390              		.file 8 "/Users/alexstrae/toolchain-gd32v-v202-osx/compiler/riscv64-unknown-elf/include/sys/lock.h
 391              		.file 9 "../../firmware/GD32VF103_standard_peripheral/system_gd32vf103.h"
 392              		.file 10 "lib/fatfs/include/ff.h"
 393              		.file 11 "<built-in>"
GAS LISTING /var/folders/rt/4gvqv631095f64jvm7jfj_000000gn/T//ccqJhKuJ.s 			page 10

