GAS LISTING /var/folders/rt/4gvqv631095f64jvm7jfj_000000gn/T//ccRH6IFk.s 			page 1


   1              		.file	"tf_card.c"
   2              		.option nopic
   3              		.attribute arch, "rv32i2p0_m2p0_a2p0_c2p0"
   4              		.attribute unaligned_access, 0
   5              		.attribute stack_align, 16
   6              		.text
   7              	.Ltext0:
   8              		.cfi_sections	.debug_frame
   9              		.section	.text.xchg_spi,"ax",@progbits
  10              		.align	1
  12              	xchg_spi:
  13              	.LFB6:
  14              		.file 1 "lib/fatfs/src/tf_card.c"
   1:lib/fatfs/src/tf_card.c **** #include "tf_card.h"
   2:lib/fatfs/src/tf_card.c **** #include "tf_delay.h"
   3:lib/fatfs/src/tf_card.c **** #include "systick.h"
   4:lib/fatfs/src/tf_card.c **** 
   5:lib/fatfs/src/tf_card.c **** #define FCLK_SLOW() { SPI_CTL0(SPI1) = (SPI_CTL0(SPI1) & ~0x38) | 0x28; }	/* Set SCLK = PCLK2 / 64 
   6:lib/fatfs/src/tf_card.c **** #define FCLK_FAST() { SPI_CTL0(SPI1) = (SPI_CTL0(SPI1) & ~0x38) | 0x28; }	/* Set SCLK = PCLK2 / 2 *
   7:lib/fatfs/src/tf_card.c **** 
   8:lib/fatfs/src/tf_card.c **** // #define FCLK_SLOW()
   9:lib/fatfs/src/tf_card.c **** // #define FCLK_FAST()
  10:lib/fatfs/src/tf_card.c **** 
  11:lib/fatfs/src/tf_card.c **** //#define CS_HIGH() PB_OUT(4,1)
  12:lib/fatfs/src/tf_card.c **** #define CS_HIGH() gpio_bit_set(GPIOC, GPIO_PIN_14)
  13:lib/fatfs/src/tf_card.c **** //#define CS_LOW() PB_OUT(4,0)
  14:lib/fatfs/src/tf_card.c **** #define CS_LOW() gpio_bit_reset(GPIOC, GPIO_PIN_14)
  15:lib/fatfs/src/tf_card.c **** 
  16:lib/fatfs/src/tf_card.c **** /*--------------------------------------------------------------------------
  17:lib/fatfs/src/tf_card.c **** 
  18:lib/fatfs/src/tf_card.c ****    Module Private Functions
  19:lib/fatfs/src/tf_card.c **** 
  20:lib/fatfs/src/tf_card.c **** ---------------------------------------------------------------------------*/
  21:lib/fatfs/src/tf_card.c **** 
  22:lib/fatfs/src/tf_card.c **** /* MMC/SD command */
  23:lib/fatfs/src/tf_card.c **** #define CMD0	(0)			/* GO_IDLE_STATE */
  24:lib/fatfs/src/tf_card.c **** #define CMD1	(1)			/* SEND_OP_COND (MMC) */
  25:lib/fatfs/src/tf_card.c **** #define	ACMD41	(0x80+41)	/* SEND_OP_COND (SDC) */
  26:lib/fatfs/src/tf_card.c **** #define CMD8	(8)			/* SEND_IF_COND */
  27:lib/fatfs/src/tf_card.c **** #define CMD9	(9)			/* SEND_CSD */
  28:lib/fatfs/src/tf_card.c **** #define CMD10	(10)		/* SEND_CID */
  29:lib/fatfs/src/tf_card.c **** #define CMD12	(12)		/* STOP_TRANSMISSION */
  30:lib/fatfs/src/tf_card.c **** #define ACMD13	(0x80+13)	/* SD_STATUS (SDC) */
  31:lib/fatfs/src/tf_card.c **** #define CMD16	(16)		/* SET_BLOCKLEN */
  32:lib/fatfs/src/tf_card.c **** #define CMD17	(17)		/* READ_SINGLE_BLOCK */
  33:lib/fatfs/src/tf_card.c **** #define CMD18	(18)		/* READ_MULTIPLE_BLOCK */
  34:lib/fatfs/src/tf_card.c **** #define CMD23	(23)		/* SET_BLOCK_COUNT (MMC) */
  35:lib/fatfs/src/tf_card.c **** #define	ACMD23	(0x80+23)	/* SET_WR_BLK_ERASE_COUNT (SDC) */
  36:lib/fatfs/src/tf_card.c **** #define CMD24	(24)		/* WRITE_BLOCK */
  37:lib/fatfs/src/tf_card.c **** #define CMD25	(25)		/* WRITE_MULTIPLE_BLOCK */
  38:lib/fatfs/src/tf_card.c **** #define CMD32	(32)		/* ERASE_ER_BLK_START */
  39:lib/fatfs/src/tf_card.c **** #define CMD33	(33)		/* ERASE_ER_BLK_END */
  40:lib/fatfs/src/tf_card.c **** #define CMD38	(38)		/* ERASE */
  41:lib/fatfs/src/tf_card.c **** #define CMD55	(55)		/* APP_CMD */
  42:lib/fatfs/src/tf_card.c **** #define CMD58	(58)		/* READ_OCR */
  43:lib/fatfs/src/tf_card.c **** 
  44:lib/fatfs/src/tf_card.c **** static volatile
GAS LISTING /var/folders/rt/4gvqv631095f64jvm7jfj_000000gn/T//ccRH6IFk.s 			page 2


  45:lib/fatfs/src/tf_card.c **** DSTATUS Stat = STA_NOINIT;	/* Physical drive status */
  46:lib/fatfs/src/tf_card.c **** 
  47:lib/fatfs/src/tf_card.c **** // static volatile
  48:lib/fatfs/src/tf_card.c **** // UINT Timer1, Timer2;	/* 1kHz decrement timer stopped at zero (disk_timerproc()) */
  49:lib/fatfs/src/tf_card.c **** static volatile
  50:lib/fatfs/src/tf_card.c **** UINT delay_timer1, delay_timer2;        	/* 1kHz decrement timer stopped at zero (disk_timerproc())
  51:lib/fatfs/src/tf_card.c **** 
  52:lib/fatfs/src/tf_card.c **** static
  53:lib/fatfs/src/tf_card.c **** BYTE CardType;			/* Card type flags */
  54:lib/fatfs/src/tf_card.c **** 
  55:lib/fatfs/src/tf_card.c **** 
  56:lib/fatfs/src/tf_card.c **** /*-----------------------------------------------------------------------*/
  57:lib/fatfs/src/tf_card.c **** /* SPI controls (Platform dependent)                                     */
  58:lib/fatfs/src/tf_card.c **** /*-----------------------------------------------------------------------*/
  59:lib/fatfs/src/tf_card.c **** 
  60:lib/fatfs/src/tf_card.c **** /* Initialize MMC interface */
  61:lib/fatfs/src/tf_card.c **** static
  62:lib/fatfs/src/tf_card.c **** void init_spi(void)
  63:lib/fatfs/src/tf_card.c **** {
  64:lib/fatfs/src/tf_card.c ****     spi_parameter_struct spi_init_struct;
  65:lib/fatfs/src/tf_card.c **** 
  66:lib/fatfs/src/tf_card.c ****     rcu_periph_clock_enable(RCU_GPIOB);
  67:lib/fatfs/src/tf_card.c **** 	rcu_periph_clock_enable(RCU_GPIOC);
  68:lib/fatfs/src/tf_card.c ****     rcu_periph_clock_enable(RCU_SPI1);
  69:lib/fatfs/src/tf_card.c **** 
  70:lib/fatfs/src/tf_card.c ****     /* SPI1_SCK(PB13), SPI1_MISO(PB14) and SPI1_MOSI(PB15) GPIO pin configuration */
  71:lib/fatfs/src/tf_card.c ****     gpio_init(GPIOB, GPIO_MODE_AF_PP, GPIO_OSPEED_50MHZ, GPIO_PIN_13 | GPIO_PIN_15);
  72:lib/fatfs/src/tf_card.c ****     gpio_init(GPIOB, GPIO_MODE_IN_FLOATING, GPIO_OSPEED_50MHZ, GPIO_PIN_14);
  73:lib/fatfs/src/tf_card.c ****     /* SPI1_CS(PB12) GPIO pin configuration */
  74:lib/fatfs/src/tf_card.c ****     gpio_init(GPIOC, GPIO_MODE_OUT_PP, GPIO_OSPEED_50MHZ, GPIO_PIN_14);
  75:lib/fatfs/src/tf_card.c **** 
  76:lib/fatfs/src/tf_card.c ****     /* chip _select invalid*/
  77:lib/fatfs/src/tf_card.c ****     CS_HIGH();
  78:lib/fatfs/src/tf_card.c **** 
  79:lib/fatfs/src/tf_card.c ****     /* SPI1 parameter config */
  80:lib/fatfs/src/tf_card.c ****     spi_init_struct.trans_mode           = SPI_TRANSMODE_FULLDUPLEX;
  81:lib/fatfs/src/tf_card.c ****     spi_init_struct.device_mode          = SPI_MASTER;
  82:lib/fatfs/src/tf_card.c ****     spi_init_struct.frame_size           = SPI_FRAMESIZE_8BIT;
  83:lib/fatfs/src/tf_card.c ****     spi_init_struct.clock_polarity_phase = SPI_CK_PL_HIGH_PH_2EDGE;
  84:lib/fatfs/src/tf_card.c ****     spi_init_struct.nss                  = SPI_NSS_SOFT;
  85:lib/fatfs/src/tf_card.c ****     spi_init_struct.prescale             = SPI_PSC_32;
  86:lib/fatfs/src/tf_card.c ****     spi_init_struct.endian               = SPI_ENDIAN_MSB;
  87:lib/fatfs/src/tf_card.c ****     spi_init(SPI1, &spi_init_struct);
  88:lib/fatfs/src/tf_card.c **** 
  89:lib/fatfs/src/tf_card.c ****     /* set crc polynomial */
  90:lib/fatfs/src/tf_card.c ****     spi_crc_polynomial_set(SPI1,7);
  91:lib/fatfs/src/tf_card.c ****     /* enable SPI1 */
  92:lib/fatfs/src/tf_card.c ****     spi_enable(SPI1);
  93:lib/fatfs/src/tf_card.c **** 
  94:lib/fatfs/src/tf_card.c **** }
  95:lib/fatfs/src/tf_card.c **** 
  96:lib/fatfs/src/tf_card.c **** /* Exchange a byte */
  97:lib/fatfs/src/tf_card.c **** static
  98:lib/fatfs/src/tf_card.c **** BYTE xchg_spi (
  99:lib/fatfs/src/tf_card.c **** 	BYTE dat	/* Data to send */
 100:lib/fatfs/src/tf_card.c **** )
 101:lib/fatfs/src/tf_card.c **** {
GAS LISTING /var/folders/rt/4gvqv631095f64jvm7jfj_000000gn/T//ccRH6IFk.s 			page 3


  15              		.loc 1 101 1
  16              		.cfi_startproc
  17              	.LVL0:
 102:lib/fatfs/src/tf_card.c **** 	while(RESET == spi_i2s_flag_get(SPI1, SPI_FLAG_TBE));
  18              		.loc 1 102 2
 101:lib/fatfs/src/tf_card.c **** 	while(RESET == spi_i2s_flag_get(SPI1, SPI_FLAG_TBE));
  19              		.loc 1 101 1 is_stmt 0
  20 0000 4111     		addi	sp,sp,-16
  21              	.LCFI0:
  22              		.cfi_def_cfa_offset 16
  23 0002 22C4     		sw	s0,8(sp)
  24              		.cfi_offset 8, -8
  25              		.loc 1 102 17
  26 0004 37440040 		li	s0,1073758208
 101:lib/fatfs/src/tf_card.c **** 	while(RESET == spi_i2s_flag_get(SPI1, SPI_FLAG_TBE));
  27              		.loc 1 101 1
  28 0008 26C2     		sw	s1,4(sp)
  29 000a 4AC0     		sw	s2,0(sp)
  30 000c 06C6     		sw	ra,12(sp)
  31              		.cfi_offset 9, -12
  32              		.cfi_offset 18, -16
  33              		.cfi_offset 1, -4
 101:lib/fatfs/src/tf_card.c **** 	while(RESET == spi_i2s_flag_get(SPI1, SPI_FLAG_TBE));
  34              		.loc 1 101 1
  35 000e AA84     		mv	s1,a0
  36              		.loc 1 102 17
  37 0010 13090480 		addi	s2,s0,-2048
  38              	.LVL1:
  39              	.L2:
  40              		.loc 1 102 54 is_stmt 1 discriminator 1
  41              		.loc 1 102 17 is_stmt 0 discriminator 1
  42 0014 8945     		li	a1,2
  43 0016 4A85     		mv	a0,s2
  44 0018 97000000 		call	spi_i2s_flag_get
  44      E7800000 
  45              	.LVL2:
  46              		.loc 1 102 7 discriminator 1
  47 0020 75D9     		beq	a0,zero,.L2
 103:lib/fatfs/src/tf_card.c ****         spi_i2s_data_transmit(SPI1, dat);
  48              		.loc 1 103 9 is_stmt 1
  49 0022 A685     		mv	a1,s1
  50 0024 13050480 		addi	a0,s0,-2048
 104:lib/fatfs/src/tf_card.c **** 	while(RESET == spi_i2s_flag_get(SPI1, SPI_FLAG_RBNE));
  51              		.loc 1 104 17 is_stmt 0
  52 0028 37440040 		li	s0,1073758208
 103:lib/fatfs/src/tf_card.c ****         spi_i2s_data_transmit(SPI1, dat);
  53              		.loc 1 103 9
  54 002c 97000000 		call	spi_i2s_data_transmit
  54      E7800000 
  55              	.LVL3:
  56              		.loc 1 104 2 is_stmt 1
  57              		.loc 1 104 17 is_stmt 0
  58 0034 93040480 		addi	s1,s0,-2048
  59              	.L3:
  60              		.loc 1 104 55 is_stmt 1 discriminator 1
  61              		.loc 1 104 17 is_stmt 0 discriminator 1
  62 0038 8545     		li	a1,1
GAS LISTING /var/folders/rt/4gvqv631095f64jvm7jfj_000000gn/T//ccRH6IFk.s 			page 4


  63 003a 2685     		mv	a0,s1
  64 003c 97000000 		call	spi_i2s_flag_get
  64      E7800000 
  65              	.LVL4:
  66              		.loc 1 104 7 discriminator 1
  67 0044 75D9     		beq	a0,zero,.L3
 105:lib/fatfs/src/tf_card.c ****         return(spi_i2s_data_receive(SPI1));     /* Return received byte */
  68              		.loc 1 105 9 is_stmt 1
  69              		.loc 1 105 16 is_stmt 0
  70 0046 13050480 		addi	a0,s0,-2048
  71 004a 97000000 		call	spi_i2s_data_receive
  71      E7800000 
  72              	.LVL5:
 106:lib/fatfs/src/tf_card.c **** }
  73              		.loc 1 106 1
  74 0052 B240     		lw	ra,12(sp)
  75              		.cfi_restore 1
  76 0054 2244     		lw	s0,8(sp)
  77              		.cfi_restore 8
  78 0056 9244     		lw	s1,4(sp)
  79              		.cfi_restore 9
  80 0058 0249     		lw	s2,0(sp)
  81              		.cfi_restore 18
  82 005a 1375F50F 		andi	a0,a0,0xff
  83 005e 4101     		addi	sp,sp,16
  84              	.LCFI1:
  85              		.cfi_def_cfa_offset 0
  86 0060 8280     		jr	ra
  87              		.cfi_endproc
  88              	.LFE6:
  90              		.section	.text.deselect,"ax",@progbits
  91              		.align	1
  93              	deselect:
  94              	.LFB10:
 107:lib/fatfs/src/tf_card.c **** 
 108:lib/fatfs/src/tf_card.c **** 
 109:lib/fatfs/src/tf_card.c **** /* Receive multiple byte */
 110:lib/fatfs/src/tf_card.c **** static
 111:lib/fatfs/src/tf_card.c **** void rcvr_spi_multi (
 112:lib/fatfs/src/tf_card.c **** 	BYTE *buff,		/* Pointer to data buffer */
 113:lib/fatfs/src/tf_card.c **** 	UINT btr		/* Number of bytes to receive (even number) */
 114:lib/fatfs/src/tf_card.c **** )
 115:lib/fatfs/src/tf_card.c **** {
 116:lib/fatfs/src/tf_card.c **** 	do
 117:lib/fatfs/src/tf_card.c **** 	{
 118:lib/fatfs/src/tf_card.c **** 		*buff = xchg_spi(0xff);
 119:lib/fatfs/src/tf_card.c **** 		buff++;
 120:lib/fatfs/src/tf_card.c **** 	} while (btr--);
 121:lib/fatfs/src/tf_card.c **** 
 122:lib/fatfs/src/tf_card.c **** }
 123:lib/fatfs/src/tf_card.c **** 
 124:lib/fatfs/src/tf_card.c **** /* Send multiple byte */
 125:lib/fatfs/src/tf_card.c **** static
 126:lib/fatfs/src/tf_card.c **** void xmit_spi_multi (
 127:lib/fatfs/src/tf_card.c **** 	const BYTE *buff,	/* Pointer to the data */
 128:lib/fatfs/src/tf_card.c **** 	UINT btx			/* Number of bytes to send (even number) */
 129:lib/fatfs/src/tf_card.c **** )
GAS LISTING /var/folders/rt/4gvqv631095f64jvm7jfj_000000gn/T//ccRH6IFk.s 			page 5


 130:lib/fatfs/src/tf_card.c **** {
 131:lib/fatfs/src/tf_card.c **** 	for(UINT i=0; i<btx; i++) {
 132:lib/fatfs/src/tf_card.c **** 		xchg_spi(*(buff+i));
 133:lib/fatfs/src/tf_card.c **** 	}
 134:lib/fatfs/src/tf_card.c **** }
 135:lib/fatfs/src/tf_card.c **** 
 136:lib/fatfs/src/tf_card.c **** /*-----------------------------------------------------------------------*/
 137:lib/fatfs/src/tf_card.c **** /* Wait for card ready                                                   */
 138:lib/fatfs/src/tf_card.c **** /*-----------------------------------------------------------------------*/
 139:lib/fatfs/src/tf_card.c **** 
 140:lib/fatfs/src/tf_card.c **** static
 141:lib/fatfs/src/tf_card.c **** int wait_ready (	/* 1:Ready, 0:Timeout */
 142:lib/fatfs/src/tf_card.c **** 	UINT wt			/* Timeout [ms] */
 143:lib/fatfs/src/tf_card.c **** )
 144:lib/fatfs/src/tf_card.c **** {
 145:lib/fatfs/src/tf_card.c **** 	uint64_t start_mtime, delta_mtime;
 146:lib/fatfs/src/tf_card.c **** 	BYTE d;
 147:lib/fatfs/src/tf_card.c **** 	start_mtime = get_timer_value();
 148:lib/fatfs/src/tf_card.c **** 
 149:lib/fatfs/src/tf_card.c **** 	do {
 150:lib/fatfs/src/tf_card.c **** 		delta_mtime = get_timer_value();
 151:lib/fatfs/src/tf_card.c **** 		delta_mtime -=  start_mtime;
 152:lib/fatfs/src/tf_card.c **** 		d = xchg_spi(0xFF);
 153:lib/fatfs/src/tf_card.c **** 	}while((d != 0xFF) && (delta_mtime <(SystemCoreClock/4000.0 *wt )));
 154:lib/fatfs/src/tf_card.c **** 	/*
 155:lib/fatfs/src/tf_card.c **** 	
 156:lib/fatfs/src/tf_card.c **** 	BYTE d;
 157:lib/fatfs/src/tf_card.c **** 
 158:lib/fatfs/src/tf_card.c **** 	// Timer2 = wt;
 159:lib/fatfs/src/tf_card.c ****     delay_timer2 = wt;
 160:lib/fatfs/src/tf_card.c **** 	do {
 161:lib/fatfs/src/tf_card.c **** 		d = xchg_spi(0xFF);
 162:lib/fatfs/src/tf_card.c **** 		
 163:lib/fatfs/src/tf_card.c **** 	} while (d != 0xFF && delay_timer2);	
 164:lib/fatfs/src/tf_card.c **** */
 165:lib/fatfs/src/tf_card.c **** 	return (d == 0xFF) ? 1 : 0; 
 166:lib/fatfs/src/tf_card.c **** }
 167:lib/fatfs/src/tf_card.c **** 
 168:lib/fatfs/src/tf_card.c **** 
 169:lib/fatfs/src/tf_card.c **** 
 170:lib/fatfs/src/tf_card.c **** /*-----------------------------------------------------------------------*/
 171:lib/fatfs/src/tf_card.c **** /* Deselect card and release SPI                                         */
 172:lib/fatfs/src/tf_card.c **** /*-----------------------------------------------------------------------*/
 173:lib/fatfs/src/tf_card.c **** 
 174:lib/fatfs/src/tf_card.c **** static
 175:lib/fatfs/src/tf_card.c **** void deselect (void)
 176:lib/fatfs/src/tf_card.c **** {
  95              		.loc 1 176 1 is_stmt 1
  96              		.cfi_startproc
 177:lib/fatfs/src/tf_card.c **** 	delay_1ms(1);
  97              		.loc 1 177 2
 176:lib/fatfs/src/tf_card.c **** 	delay_1ms(1);
  98              		.loc 1 176 1 is_stmt 0
  99 0000 4111     		addi	sp,sp,-16
 100              	.LCFI2:
 101              		.cfi_def_cfa_offset 16
 102              		.loc 1 177 2
GAS LISTING /var/folders/rt/4gvqv631095f64jvm7jfj_000000gn/T//ccRH6IFk.s 			page 6


 103 0002 0545     		li	a0,1
 176:lib/fatfs/src/tf_card.c **** 	delay_1ms(1);
 104              		.loc 1 176 1
 105 0004 06C6     		sw	ra,12(sp)
 106              		.cfi_offset 1, -4
 107              		.loc 1 177 2
 108 0006 97000000 		call	delay_1ms
 108      E7800000 
 109              	.LVL6:
 178:lib/fatfs/src/tf_card.c **** 	CS_HIGH();		/* Set CS# high */
 110              		.loc 1 178 2 is_stmt 1
 111 000e 37150140 		li	a0,1073811456
 112 0012 9165     		li	a1,16384
 113 0014 97000000 		call	gpio_bit_set
 113      E7800000 
 114              	.LVL7:
 179:lib/fatfs/src/tf_card.c **** 	xchg_spi(0xFF);	/* Dummy clock (force DO hi-z for multiple slave SPI) */
 115              		.loc 1 179 2
 180:lib/fatfs/src/tf_card.c **** }
 116              		.loc 1 180 1 is_stmt 0
 117 001c B240     		lw	ra,12(sp)
 118              		.cfi_restore 1
 179:lib/fatfs/src/tf_card.c **** 	xchg_spi(0xFF);	/* Dummy clock (force DO hi-z for multiple slave SPI) */
 119              		.loc 1 179 2
 120 001e 1305F00F 		li	a0,255
 121              		.loc 1 180 1
 122 0022 4101     		addi	sp,sp,16
 123              	.LCFI3:
 124              		.cfi_def_cfa_offset 0
 179:lib/fatfs/src/tf_card.c **** 	xchg_spi(0xFF);	/* Dummy clock (force DO hi-z for multiple slave SPI) */
 125              		.loc 1 179 2
 126 0024 17030000 		tail	xchg_spi
 126      67000300 
 127              	.LVL8:
 128              		.cfi_endproc
 129              	.LFE10:
 131              		.globl	__floatundidf
 132              		.globl	__floatunsidf
 133              		.globl	__divdf3
 134              		.globl	__muldf3
 135              		.globl	__ltdf2
 136              		.section	.text.wait_ready,"ax",@progbits
 137              		.align	1
 139              	wait_ready:
 140              	.LFB9:
 144:lib/fatfs/src/tf_card.c **** 	uint64_t start_mtime, delta_mtime;
 141              		.loc 1 144 1 is_stmt 1
 142              		.cfi_startproc
 143              	.LVL9:
 145:lib/fatfs/src/tf_card.c **** 	BYTE d;
 144              		.loc 1 145 2
 146:lib/fatfs/src/tf_card.c **** 	start_mtime = get_timer_value();
 145              		.loc 1 146 2
 147:lib/fatfs/src/tf_card.c **** 
 146              		.loc 1 147 2
 144:lib/fatfs/src/tf_card.c **** 	uint64_t start_mtime, delta_mtime;
 147              		.loc 1 144 1 is_stmt 0
GAS LISTING /var/folders/rt/4gvqv631095f64jvm7jfj_000000gn/T//ccRH6IFk.s 			page 7


 148 0000 3971     		addi	sp,sp,-64
 149              	.LCFI4:
 150              		.cfi_def_cfa_offset 64
 151 0002 26DA     		sw	s1,52(sp)
 152 0004 5AD0     		sw	s6,32(sp)
 153 0006 5ECE     		sw	s7,28(sp)
 154 0008 62CC     		sw	s8,24(sp)
 155 000a 66CA     		sw	s9,20(sp)
 156 000c 6AC8     		sw	s10,16(sp)
 157 000e 06DE     		sw	ra,60(sp)
 158 0010 22DC     		sw	s0,56(sp)
 159 0012 4AD8     		sw	s2,48(sp)
 160 0014 4ED6     		sw	s3,44(sp)
 161 0016 52D4     		sw	s4,40(sp)
 162 0018 56D2     		sw	s5,36(sp)
 163              		.cfi_offset 9, -12
 164              		.cfi_offset 22, -32
 165              		.cfi_offset 23, -36
 166              		.cfi_offset 24, -40
 167              		.cfi_offset 25, -44
 168              		.cfi_offset 26, -48
 169              		.cfi_offset 1, -4
 170              		.cfi_offset 8, -8
 171              		.cfi_offset 18, -16
 172              		.cfi_offset 19, -20
 173              		.cfi_offset 20, -24
 174              		.cfi_offset 21, -28
 144:lib/fatfs/src/tf_card.c **** 	uint64_t start_mtime, delta_mtime;
 175              		.loc 1 144 1
 176 001a AA84     		mv	s1,a0
 147:lib/fatfs/src/tf_card.c **** 
 177              		.loc 1 147 16
 178 001c 97000000 		call	get_timer_value
 178      E7800000 
 179              	.LVL10:
 153:lib/fatfs/src/tf_card.c **** 	/*
 180              		.loc 1 153 54
 181 0024 B7070000 		lui	a5,%hi(.LC0)
 182 0028 03AB0700 		lw	s6,%lo(.LC0)(a5)
 183 002c 83AB4700 		lw	s7,%lo(.LC0+4)(a5)
 147:lib/fatfs/src/tf_card.c **** 
 184              		.loc 1 147 16
 185 0030 AA8C     		mv	s9,a0
 186 0032 2E8D     		mv	s10,a1
 187              	.LVL11:
 153:lib/fatfs/src/tf_card.c **** 	/*
 188              		.loc 1 153 54
 189 0034 370C0000 		lui	s8,%hi(SystemCoreClock)
 190              	.LVL12:
 191              	.L13:
 149:lib/fatfs/src/tf_card.c **** 		delta_mtime = get_timer_value();
 192              		.loc 1 149 2 is_stmt 1 discriminator 2
 150:lib/fatfs/src/tf_card.c **** 		delta_mtime -=  start_mtime;
 193              		.loc 1 150 3 discriminator 2
 150:lib/fatfs/src/tf_card.c **** 		delta_mtime -=  start_mtime;
 194              		.loc 1 150 17 is_stmt 0 discriminator 2
 195 0038 97000000 		call	get_timer_value
GAS LISTING /var/folders/rt/4gvqv631095f64jvm7jfj_000000gn/T//ccRH6IFk.s 			page 8


 195      E7800000 
 196              	.LVL13:
 151:lib/fatfs/src/tf_card.c **** 		d = xchg_spi(0xFF);
 197              		.loc 1 151 3 is_stmt 1 discriminator 2
 151:lib/fatfs/src/tf_card.c **** 		d = xchg_spi(0xFF);
 198              		.loc 1 151 15 is_stmt 0 discriminator 2
 199 0040 33099541 		sub	s2,a0,s9
 200 0044 33352501 		sgtu	a0,s2,a0
 201              	.LVL14:
 202 0048 B385A541 		sub	a1,a1,s10
 203 004c 898D     		sub	a1,a1,a0
 152:lib/fatfs/src/tf_card.c **** 	}while((d != 0xFF) && (delta_mtime <(SystemCoreClock/4000.0 *wt )));
 204              		.loc 1 152 7 discriminator 2
 205 004e 1305F00F 		li	a0,255
 151:lib/fatfs/src/tf_card.c **** 		d = xchg_spi(0xFF);
 206              		.loc 1 151 15 discriminator 2
 207 0052 2EC6     		sw	a1,12(sp)
 208              	.LVL15:
 152:lib/fatfs/src/tf_card.c **** 	}while((d != 0xFF) && (delta_mtime <(SystemCoreClock/4000.0 *wt )));
 209              		.loc 1 152 3 is_stmt 1 discriminator 2
 152:lib/fatfs/src/tf_card.c **** 	}while((d != 0xFF) && (delta_mtime <(SystemCoreClock/4000.0 *wt )));
 210              		.loc 1 152 7 is_stmt 0 discriminator 2
 211 0054 97000000 		call	xchg_spi
 211      E7800000 
 212              	.LVL16:
 153:lib/fatfs/src/tf_card.c **** 	/*
 213              		.loc 1 153 2 discriminator 2
 214 005c 9307F00F 		li	a5,255
 152:lib/fatfs/src/tf_card.c **** 	}while((d != 0xFF) && (delta_mtime <(SystemCoreClock/4000.0 *wt )));
 215              		.loc 1 152 7 discriminator 2
 216 0060 2A84     		mv	s0,a0
 217              	.LVL17:
 153:lib/fatfs/src/tf_card.c **** 	/*
 218              		.loc 1 153 2 discriminator 2
 219 0062 630FF504 		beq	a0,a5,.L12
 153:lib/fatfs/src/tf_card.c **** 	/*
 220              		.loc 1 153 37 discriminator 1
 221 0066 B245     		lw	a1,12(sp)
 222 0068 4A85     		mv	a0,s2
 223              	.LVL18:
 224 006a 97000000 		call	__floatundidf
 224      E7800000 
 225              	.LVL19:
 226 0072 2A89     		mv	s2,a0
 227              	.LVL20:
 153:lib/fatfs/src/tf_card.c **** 	/*
 228              		.loc 1 153 54 discriminator 1
 229 0074 03250C00 		lw	a0,%lo(SystemCoreClock)(s8)
 153:lib/fatfs/src/tf_card.c **** 	/*
 230              		.loc 1 153 37 discriminator 1
 231 0078 AE89     		mv	s3,a1
 153:lib/fatfs/src/tf_card.c **** 	/*
 232              		.loc 1 153 54 discriminator 1
 233 007a 97000000 		call	__floatunsidf
 233      E7800000 
 234              	.LVL21:
 235 0082 5A86     		mv	a2,s6
GAS LISTING /var/folders/rt/4gvqv631095f64jvm7jfj_000000gn/T//ccRH6IFk.s 			page 9


 236 0084 DE86     		mv	a3,s7
 237 0086 97000000 		call	__divdf3
 237      E7800000 
 238              	.LVL22:
 239 008e 2A8A     		mv	s4,a0
 153:lib/fatfs/src/tf_card.c **** 	/*
 240              		.loc 1 153 62 discriminator 1
 241 0090 2685     		mv	a0,s1
 153:lib/fatfs/src/tf_card.c **** 	/*
 242              		.loc 1 153 54 discriminator 1
 243 0092 AE8A     		mv	s5,a1
 153:lib/fatfs/src/tf_card.c **** 	/*
 244              		.loc 1 153 62 discriminator 1
 245 0094 97000000 		call	__floatunsidf
 245      E7800000 
 246              	.LVL23:
 247 009c 2A86     		mv	a2,a0
 248 009e AE86     		mv	a3,a1
 249 00a0 5285     		mv	a0,s4
 250 00a2 D685     		mv	a1,s5
 251 00a4 97000000 		call	__muldf3
 251      E7800000 
 252              	.LVL24:
 153:lib/fatfs/src/tf_card.c **** 	/*
 253              		.loc 1 153 21 discriminator 1
 254 00ac 2A86     		mv	a2,a0
 255 00ae AE86     		mv	a3,a1
 256 00b0 4A85     		mv	a0,s2
 257 00b2 CE85     		mv	a1,s3
 258 00b4 97000000 		call	__ltdf2
 258      E7800000 
 259              	.LVL25:
 260 00bc E34E05F6 		blt	a0,zero,.L13
 261              	.L12:
 165:lib/fatfs/src/tf_card.c **** }
 262              		.loc 1 165 2 is_stmt 1
 165:lib/fatfs/src/tf_card.c **** }
 263              		.loc 1 165 25 is_stmt 0
 264 00c0 130514F0 		addi	a0,s0,-255
 166:lib/fatfs/src/tf_card.c **** 
 265              		.loc 1 166 1
 266 00c4 F250     		lw	ra,60(sp)
 267              		.cfi_restore 1
 268 00c6 6254     		lw	s0,56(sp)
 269              		.cfi_restore 8
 270 00c8 D254     		lw	s1,52(sp)
 271              		.cfi_restore 9
 272              	.LVL26:
 273 00ca 4259     		lw	s2,48(sp)
 274              		.cfi_restore 18
 275 00cc B259     		lw	s3,44(sp)
 276              		.cfi_restore 19
 277 00ce 225A     		lw	s4,40(sp)
 278              		.cfi_restore 20
 279 00d0 925A     		lw	s5,36(sp)
 280              		.cfi_restore 21
 281 00d2 025B     		lw	s6,32(sp)
GAS LISTING /var/folders/rt/4gvqv631095f64jvm7jfj_000000gn/T//ccRH6IFk.s 			page 10


 282              		.cfi_restore 22
 283 00d4 F24B     		lw	s7,28(sp)
 284              		.cfi_restore 23
 285 00d6 624C     		lw	s8,24(sp)
 286              		.cfi_restore 24
 287 00d8 D24C     		lw	s9,20(sp)
 288              		.cfi_restore 25
 289              	.LVL27:
 290 00da 424D     		lw	s10,16(sp)
 291              		.cfi_restore 26
 292 00dc 13351500 		seqz	a0,a0
 293 00e0 2161     		addi	sp,sp,64
 294              	.LCFI5:
 295              		.cfi_def_cfa_offset 0
 296 00e2 8280     		jr	ra
 297              		.cfi_endproc
 298              	.LFE9:
 300              		.section	.text._select,"ax",@progbits
 301              		.align	1
 303              	_select:
 304              	.LFB11:
 181:lib/fatfs/src/tf_card.c **** 
 182:lib/fatfs/src/tf_card.c **** 
 183:lib/fatfs/src/tf_card.c **** 
 184:lib/fatfs/src/tf_card.c **** /*-----------------------------------------------------------------------*/
 185:lib/fatfs/src/tf_card.c **** /* Select card and wait for ready                                        */
 186:lib/fatfs/src/tf_card.c **** /*-----------------------------------------------------------------------*/
 187:lib/fatfs/src/tf_card.c **** 
 188:lib/fatfs/src/tf_card.c **** static
 189:lib/fatfs/src/tf_card.c **** int _select (void)	/* 1:OK, 0:Timeout */
 190:lib/fatfs/src/tf_card.c **** {
 305              		.loc 1 190 1 is_stmt 1
 306              		.cfi_startproc
 191:lib/fatfs/src/tf_card.c **** 	CS_LOW();		/* Set CS# low */
 307              		.loc 1 191 2
 190:lib/fatfs/src/tf_card.c **** 	CS_LOW();		/* Set CS# low */
 308              		.loc 1 190 1 is_stmt 0
 309 0000 0111     		addi	sp,sp,-32
 310              	.LCFI6:
 311              		.cfi_def_cfa_offset 32
 312              		.loc 1 191 2
 313 0002 9165     		li	a1,16384
 314 0004 37150140 		li	a0,1073811456
 190:lib/fatfs/src/tf_card.c **** 	CS_LOW();		/* Set CS# low */
 315              		.loc 1 190 1
 316 0008 06CE     		sw	ra,28(sp)
 317              		.cfi_offset 1, -4
 318              		.loc 1 191 2
 319 000a 97000000 		call	gpio_bit_reset
 319      E7800000 
 320              	.LVL28:
 192:lib/fatfs/src/tf_card.c **** 	xchg_spi(0xFF);	/* Dummy clock (force DO enabled) */
 321              		.loc 1 192 2 is_stmt 1
 322 0012 1305F00F 		li	a0,255
 323 0016 97000000 		call	xchg_spi
 323      E7800000 
 324              	.LVL29:
GAS LISTING /var/folders/rt/4gvqv631095f64jvm7jfj_000000gn/T//ccRH6IFk.s 			page 11


 193:lib/fatfs/src/tf_card.c **** 	if (wait_ready(500)) return 1;	/* Wait for card ready */
 325              		.loc 1 193 2
 326              		.loc 1 193 6 is_stmt 0
 327 001e 1305401F 		li	a0,500
 328 0022 97000000 		call	wait_ready
 328      E7800000 
 329              	.LVL30:
 330              		.loc 1 193 5
 331 002a 2AC6     		sw	a0,12(sp)
 332 002c 09E9     		bne	a0,zero,.L18
 194:lib/fatfs/src/tf_card.c **** 
 195:lib/fatfs/src/tf_card.c **** 	deselect();
 333              		.loc 1 195 2 is_stmt 1
 334 002e 97000000 		call	deselect
 334      E7800000 
 335              	.LVL31:
 196:lib/fatfs/src/tf_card.c **** 	return 0;	/* Timeout */
 336              		.loc 1 196 2
 337              		.loc 1 196 9 is_stmt 0
 338 0036 3245     		lw	a0,12(sp)
 339              	.L16:
 197:lib/fatfs/src/tf_card.c **** }
 340              		.loc 1 197 1
 341 0038 F240     		lw	ra,28(sp)
 342              		.cfi_remember_state
 343              		.cfi_restore 1
 344 003a 0561     		addi	sp,sp,32
 345              	.LCFI7:
 346              		.cfi_def_cfa_offset 0
 347 003c 8280     		jr	ra
 348              	.L18:
 349              	.LCFI8:
 350              		.cfi_restore_state
 193:lib/fatfs/src/tf_card.c **** 
 351              		.loc 1 193 30
 352 003e 0545     		li	a0,1
 353 0040 E5BF     		j	.L16
 354              		.cfi_endproc
 355              	.LFE11:
 357              		.section	.text.send_cmd,"ax",@progbits
 358              		.align	1
 360              	send_cmd:
 361              	.LFB14:
 198:lib/fatfs/src/tf_card.c **** 
 199:lib/fatfs/src/tf_card.c **** 
 200:lib/fatfs/src/tf_card.c **** 
 201:lib/fatfs/src/tf_card.c **** /*-----------------------------------------------------------------------*/
 202:lib/fatfs/src/tf_card.c **** /* Receive a data packet from the MMC                                    */
 203:lib/fatfs/src/tf_card.c **** /*-----------------------------------------------------------------------*/
 204:lib/fatfs/src/tf_card.c **** 
 205:lib/fatfs/src/tf_card.c **** static
 206:lib/fatfs/src/tf_card.c **** int rcvr_datablock (	/* 1:OK, 0:Error */
 207:lib/fatfs/src/tf_card.c **** 	BYTE *buff,			/* Data buffer */
 208:lib/fatfs/src/tf_card.c **** 	UINT btr			/* Data block length (byte) */
 209:lib/fatfs/src/tf_card.c **** )
 210:lib/fatfs/src/tf_card.c **** {
 211:lib/fatfs/src/tf_card.c **** 	BYTE token;
GAS LISTING /var/folders/rt/4gvqv631095f64jvm7jfj_000000gn/T//ccRH6IFk.s 			page 12


 212:lib/fatfs/src/tf_card.c **** 
 213:lib/fatfs/src/tf_card.c **** 	tf_start_timer(200);
 214:lib/fatfs/src/tf_card.c **** 	do {							/* Wait for DataStart token in timeout of 200ms */
 215:lib/fatfs/src/tf_card.c **** 		token = xchg_spi(0xFF);
 216:lib/fatfs/src/tf_card.c **** 		/* This loop will take a time. Insert rot_rdq() here for multitask envilonment. */
 217:lib/fatfs/src/tf_card.c **** 	} while ((token == 0xFF) && tf_timer_done());
 218:lib/fatfs/src/tf_card.c **** 	if(token != 0xFE) return 0;		/* Function fails if invalid DataStart token or timeout */
 219:lib/fatfs/src/tf_card.c **** 
 220:lib/fatfs/src/tf_card.c **** 	rcvr_spi_multi(buff, btr);		/* Store trailing data to the buffer */
 221:lib/fatfs/src/tf_card.c **** 	xchg_spi(0xFF); xchg_spi(0xFF);			/* Discard CRC */
 222:lib/fatfs/src/tf_card.c **** 
 223:lib/fatfs/src/tf_card.c **** 	return 1;						/* Function succeeded */
 224:lib/fatfs/src/tf_card.c **** }
 225:lib/fatfs/src/tf_card.c **** 
 226:lib/fatfs/src/tf_card.c **** static
 227:lib/fatfs/src/tf_card.c **** int xmit_datablock (	/* 1:OK, 0:Failed */
 228:lib/fatfs/src/tf_card.c **** 	const BYTE *buff,	/* Ponter to 512 byte data to be sent */
 229:lib/fatfs/src/tf_card.c **** 	BYTE token			/* Token */
 230:lib/fatfs/src/tf_card.c **** )
 231:lib/fatfs/src/tf_card.c **** {
 232:lib/fatfs/src/tf_card.c **** 	BYTE resp;
 233:lib/fatfs/src/tf_card.c **** 
 234:lib/fatfs/src/tf_card.c **** 
 235:lib/fatfs/src/tf_card.c **** 	if (!wait_ready(500)) return 0;		/* Wait for card ready */
 236:lib/fatfs/src/tf_card.c **** 
 237:lib/fatfs/src/tf_card.c **** 	xchg_spi(token);					/* Send token */
 238:lib/fatfs/src/tf_card.c **** 	if (token != 0xFD) {				/* Send data if token is other than StopTran */
 239:lib/fatfs/src/tf_card.c **** 		xmit_spi_multi(buff, 512);		/* Data */
 240:lib/fatfs/src/tf_card.c **** 		xchg_spi(0xFF); xchg_spi(0xFF);	/* Dummy CRC */
 241:lib/fatfs/src/tf_card.c **** 
 242:lib/fatfs/src/tf_card.c **** 		resp = xchg_spi(0xFF);				/* Receive data resp */
 243:lib/fatfs/src/tf_card.c **** 		if ((resp & 0x1F) != 0x05) return 0;	/* Function fails if the data packet was not accepted */
 244:lib/fatfs/src/tf_card.c **** 	}
 245:lib/fatfs/src/tf_card.c **** 	return 1;
 246:lib/fatfs/src/tf_card.c **** }
 247:lib/fatfs/src/tf_card.c **** 
 248:lib/fatfs/src/tf_card.c **** /*-----------------------------------------------------------------------*/
 249:lib/fatfs/src/tf_card.c **** /* Send a command packet to the MMC                                      */
 250:lib/fatfs/src/tf_card.c **** /*-----------------------------------------------------------------------*/
 251:lib/fatfs/src/tf_card.c **** 
 252:lib/fatfs/src/tf_card.c **** static
 253:lib/fatfs/src/tf_card.c **** BYTE send_cmd (		/* Return value: R1 resp (bit7==1:Failed to send) */
 254:lib/fatfs/src/tf_card.c **** 	BYTE cmd,		/* Command index */
 255:lib/fatfs/src/tf_card.c **** 	DWORD arg		/* Argument */
 256:lib/fatfs/src/tf_card.c **** )
 257:lib/fatfs/src/tf_card.c **** {
 362              		.loc 1 257 1 is_stmt 1
 363              		.cfi_startproc
 364              	.LVL32:
 258:lib/fatfs/src/tf_card.c **** 	BYTE n, res;
 365              		.loc 1 258 2
 259:lib/fatfs/src/tf_card.c **** 
 260:lib/fatfs/src/tf_card.c **** 
 261:lib/fatfs/src/tf_card.c **** 	if (cmd & 0x80) {	/* Send a CMD55 prior to ACMD<n> */
 366              		.loc 1 261 2
 257:lib/fatfs/src/tf_card.c **** 	BYTE n, res;
 367              		.loc 1 257 1 is_stmt 0
GAS LISTING /var/folders/rt/4gvqv631095f64jvm7jfj_000000gn/T//ccRH6IFk.s 			page 13


 368 0000 4111     		addi	sp,sp,-16
 369              	.LCFI9:
 370              		.cfi_def_cfa_offset 16
 371              		.loc 1 261 5
 372 0002 93178501 		slli	a5,a0,24
 257:lib/fatfs/src/tf_card.c **** 	BYTE n, res;
 373              		.loc 1 257 1
 374 0006 22C4     		sw	s0,8(sp)
 375 0008 26C2     		sw	s1,4(sp)
 376 000a 06C6     		sw	ra,12(sp)
 377              		.cfi_offset 8, -8
 378              		.cfi_offset 9, -12
 379              		.cfi_offset 1, -4
 380              		.loc 1 261 5
 381 000c E187     		srai	a5,a5,24
 257:lib/fatfs/src/tf_card.c **** 	BYTE n, res;
 382              		.loc 1 257 1
 383 000e 2A84     		mv	s0,a0
 384 0010 AE84     		mv	s1,a1
 385              		.loc 1 261 5
 386 0012 63DF0700 		bge	a5,zero,.L21
 262:lib/fatfs/src/tf_card.c **** 		cmd &= 0x7F;
 387              		.loc 1 262 3 is_stmt 1
 388              	.LVL33:
 263:lib/fatfs/src/tf_card.c **** 		res = send_cmd(CMD55, 0);
 389              		.loc 1 263 3
 390              		.loc 1 263 9 is_stmt 0
 391 0016 8145     		li	a1,0
 392              	.LVL34:
 393 0018 13057003 		li	a0,55
 394 001c 97000000 		call	send_cmd
 394      E7800000 
 395              	.LVL35:
 264:lib/fatfs/src/tf_card.c **** 		if (res > 1) return res;
 396              		.loc 1 264 6
 397 0024 0547     		li	a4,1
 263:lib/fatfs/src/tf_card.c **** 		res = send_cmd(CMD55, 0);
 398              		.loc 1 263 9
 399 0026 AA87     		mv	a5,a0
 400              	.LVL36:
 401              		.loc 1 264 3 is_stmt 1
 402              		.loc 1 264 6 is_stmt 0
 403 0028 636CA70A 		bgtu	a0,a4,.L22
 262:lib/fatfs/src/tf_card.c **** 		cmd &= 0x7F;
 404              		.loc 1 262 7
 405 002c 1374F407 		andi	s0,s0,127
 406              	.LVL37:
 407              	.L21:
 265:lib/fatfs/src/tf_card.c **** 	}
 266:lib/fatfs/src/tf_card.c **** 
 267:lib/fatfs/src/tf_card.c **** 	/* Select the card and wait for ready except to stop multiple block read */
 268:lib/fatfs/src/tf_card.c **** 	if (cmd != CMD12) {
 408              		.loc 1 268 2 is_stmt 1
 409              		.loc 1 268 5 is_stmt 0
 410 0030 B147     		li	a5,12
 411 0032 631CF408 		bne	s0,a5,.L23
 412              	.L26:
GAS LISTING /var/folders/rt/4gvqv631095f64jvm7jfj_000000gn/T//ccRH6IFk.s 			page 14


 269:lib/fatfs/src/tf_card.c **** 		deselect();
 270:lib/fatfs/src/tf_card.c **** 		if (!_select()) return 0xFF;
 271:lib/fatfs/src/tf_card.c **** 	}
 272:lib/fatfs/src/tf_card.c **** 
 273:lib/fatfs/src/tf_card.c **** 	/* Send command packet */
 274:lib/fatfs/src/tf_card.c **** 	xchg_spi(0x40 | cmd);				/* Start + command index */
 413              		.loc 1 274 2 is_stmt 1
 414 0036 13650404 		ori	a0,s0,64
 415 003a 97000000 		call	xchg_spi
 415      E7800000 
 416              	.LVL38:
 275:lib/fatfs/src/tf_card.c **** 	xchg_spi((BYTE)(arg >> 24));		/* Argument[31..24] */
 417              		.loc 1 275 2
 418 0042 13D58401 		srli	a0,s1,24
 419 0046 97000000 		call	xchg_spi
 419      E7800000 
 420              	.LVL39:
 276:lib/fatfs/src/tf_card.c **** 	xchg_spi((BYTE)(arg >> 16));		/* Argument[23..16] */
 421              		.loc 1 276 2
 422              		.loc 1 276 22 is_stmt 0
 423 004e 13D50401 		srli	a0,s1,16
 424              		.loc 1 276 2
 425 0052 1375F50F 		andi	a0,a0,0xff
 426 0056 97000000 		call	xchg_spi
 426      E7800000 
 427              	.LVL40:
 277:lib/fatfs/src/tf_card.c **** 	xchg_spi((BYTE)(arg >> 8));			/* Argument[15..8] */
 428              		.loc 1 277 2 is_stmt 1
 429              		.loc 1 277 22 is_stmt 0
 430 005e 13D58400 		srli	a0,s1,8
 431              		.loc 1 277 2
 432 0062 1375F50F 		andi	a0,a0,0xff
 433 0066 97000000 		call	xchg_spi
 433      E7800000 
 434              	.LVL41:
 278:lib/fatfs/src/tf_card.c **** 	xchg_spi((BYTE)arg);				/* Argument[7..0] */
 435              		.loc 1 278 2 is_stmt 1
 436 006e 13F5F40F 		andi	a0,s1,0xff
 437 0072 97000000 		call	xchg_spi
 437      E7800000 
 438              	.LVL42:
 279:lib/fatfs/src/tf_card.c **** 	n = 0x01;							/* Dummy CRC + Stop */
 439              		.loc 1 279 2
 280:lib/fatfs/src/tf_card.c **** 	if (cmd == CMD0) n = 0x95;			/* Valid CRC for CMD0(0) */
 440              		.loc 1 280 2
 441              		.loc 1 280 21 is_stmt 0
 442 007a 13055009 		li	a0,149
 443              		.loc 1 280 5
 444 007e 19C4     		beq	s0,zero,.L24
 281:lib/fatfs/src/tf_card.c **** 	if (cmd == CMD8) n = 0x87;			/* Valid CRC for CMD8(0x1AA) */
 445              		.loc 1 281 2 is_stmt 1
 446              		.loc 1 281 5 is_stmt 0
 447 0080 A147     		li	a5,8
 279:lib/fatfs/src/tf_card.c **** 	n = 0x01;							/* Dummy CRC + Stop */
 448              		.loc 1 279 4
 449 0082 0545     		li	a0,1
 450              		.loc 1 281 5
GAS LISTING /var/folders/rt/4gvqv631095f64jvm7jfj_000000gn/T//ccRH6IFk.s 			page 15


 451 0084 6314F400 		bne	s0,a5,.L24
 452              		.loc 1 281 21
 453 0088 13057008 		li	a0,135
 454              	.L24:
 455              	.LVL43:
 282:lib/fatfs/src/tf_card.c **** 	xchg_spi(n);
 456              		.loc 1 282 2 is_stmt 1
 457 008c 97000000 		call	xchg_spi
 457      E7800000 
 458              	.LVL44:
 283:lib/fatfs/src/tf_card.c **** 
 284:lib/fatfs/src/tf_card.c **** 	/* Receive command resp */
 285:lib/fatfs/src/tf_card.c **** 	if (cmd == CMD12) xchg_spi(0xFF);	/* Diacard following one byte when CMD12 */
 459              		.loc 1 285 2
 460              		.loc 1 285 5 is_stmt 0
 461 0094 B147     		li	a5,12
 462 0096 6318F400 		bne	s0,a5,.L27
 463              		.loc 1 285 20 is_stmt 1 discriminator 1
 464 009a 1305F00F 		li	a0,255
 465 009e 97000000 		call	xchg_spi
 465      E7800000 
 466              	.LVL45:
 467              	.L27:
 281:lib/fatfs/src/tf_card.c **** 	xchg_spi(n);
 468              		.loc 1 281 21 is_stmt 0 discriminator 2
 469 00a6 2944     		li	s0,10
 470              	.LVL46:
 471              	.L28:
 286:lib/fatfs/src/tf_card.c **** 	n = 10;								/* Wait for response (10 bytes max) */
 287:lib/fatfs/src/tf_card.c **** 	do {
 472              		.loc 1 287 2 is_stmt 1 discriminator 2
 288:lib/fatfs/src/tf_card.c **** 		res = xchg_spi(0xFF);
 473              		.loc 1 288 3 discriminator 2
 474              		.loc 1 288 9 is_stmt 0 discriminator 2
 475 00a8 1305F00F 		li	a0,255
 476 00ac 97000000 		call	xchg_spi
 476      E7800000 
 477              	.LVL47:
 289:lib/fatfs/src/tf_card.c **** 	} while ((res & 0x80) && --n);
 478              		.loc 1 289 2 discriminator 2
 479 00b4 13178501 		slli	a4,a0,24
 480 00b8 6187     		srai	a4,a4,24
 288:lib/fatfs/src/tf_card.c **** 		res = xchg_spi(0xFF);
 481              		.loc 1 288 9 discriminator 2
 482 00ba AA87     		mv	a5,a0
 483              	.LVL48:
 484              		.loc 1 289 2 discriminator 2
 485 00bc 63520702 		bge	a4,zero,.L22
 486              	.LVL49:
 487 00c0 7D14     		addi	s0,s0,-1
 488              	.LVL50:
 489 00c2 1374F40F 		andi	s0,s0,0xff
 490              		.loc 1 289 24 discriminator 1
 491 00c6 6DF0     		bne	s0,zero,.L28
 492 00c8 21A8     		j	.L22
 493              	.LVL51:
 494              	.L23:
GAS LISTING /var/folders/rt/4gvqv631095f64jvm7jfj_000000gn/T//ccRH6IFk.s 			page 16


 269:lib/fatfs/src/tf_card.c **** 		if (!_select()) return 0xFF;
 495              		.loc 1 269 3 is_stmt 1
 496 00ca 97000000 		call	deselect
 496      E7800000 
 497              	.LVL52:
 270:lib/fatfs/src/tf_card.c **** 	}
 498              		.loc 1 270 3
 270:lib/fatfs/src/tf_card.c **** 	}
 499              		.loc 1 270 8 is_stmt 0
 500 00d2 97000000 		call	_select
 500      E7800000 
 501              	.LVL53:
 270:lib/fatfs/src/tf_card.c **** 	}
 502              		.loc 1 270 26
 503 00da 9307F00F 		li	a5,255
 270:lib/fatfs/src/tf_card.c **** 	}
 504              		.loc 1 270 6
 505 00de 21FD     		bne	a0,zero,.L26
 506              	.LVL54:
 507              	.L22:
 290:lib/fatfs/src/tf_card.c **** 
 291:lib/fatfs/src/tf_card.c **** 	return res;							/* Return received response */
 292:lib/fatfs/src/tf_card.c **** }
 508              		.loc 1 292 1
 509 00e0 B240     		lw	ra,12(sp)
 510              		.cfi_restore 1
 511 00e2 2244     		lw	s0,8(sp)
 512              		.cfi_restore 8
 513 00e4 9244     		lw	s1,4(sp)
 514              		.cfi_restore 9
 515              	.LVL55:
 516 00e6 3E85     		mv	a0,a5
 517 00e8 4101     		addi	sp,sp,16
 518              	.LCFI10:
 519              		.cfi_def_cfa_offset 0
 520 00ea 8280     		jr	ra
 521              		.cfi_endproc
 522              	.LFE14:
 524              		.section	.text.rcvr_datablock,"ax",@progbits
 525              		.align	1
 527              	rcvr_datablock:
 528              	.LFB12:
 210:lib/fatfs/src/tf_card.c **** 	BYTE token;
 529              		.loc 1 210 1 is_stmt 1
 530              		.cfi_startproc
 531              	.LVL56:
 532 0000 4111     		addi	sp,sp,-16
 533              	.LCFI11:
 534              		.cfi_def_cfa_offset 16
 535 0002 22C4     		sw	s0,8(sp)
 536              		.cfi_offset 8, -8
 537 0004 2A84     		mv	s0,a0
 211:lib/fatfs/src/tf_card.c **** 
 538              		.loc 1 211 2
 213:lib/fatfs/src/tf_card.c **** 	do {							/* Wait for DataStart token in timeout of 200ms */
 539              		.loc 1 213 2
 540 0006 1305800C 		li	a0,200
GAS LISTING /var/folders/rt/4gvqv631095f64jvm7jfj_000000gn/T//ccRH6IFk.s 			page 17


 541              	.LVL57:
 210:lib/fatfs/src/tf_card.c **** 	BYTE token;
 542              		.loc 1 210 1 is_stmt 0
 543 000a 26C2     		sw	s1,4(sp)
 544 000c 06C6     		sw	ra,12(sp)
 545              		.cfi_offset 9, -12
 546              		.cfi_offset 1, -4
 210:lib/fatfs/src/tf_card.c **** 	BYTE token;
 547              		.loc 1 210 1
 548 000e AE84     		mv	s1,a1
 213:lib/fatfs/src/tf_card.c **** 	do {							/* Wait for DataStart token in timeout of 200ms */
 549              		.loc 1 213 2
 550 0010 97000000 		call	tf_start_timer
 550      E7800000 
 551              	.LVL58:
 552              	.L38:
 214:lib/fatfs/src/tf_card.c **** 		token = xchg_spi(0xFF);
 553              		.loc 1 214 2 is_stmt 1 discriminator 2
 215:lib/fatfs/src/tf_card.c **** 		/* This loop will take a time. Insert rot_rdq() here for multitask envilonment. */
 554              		.loc 1 215 3 discriminator 2
 215:lib/fatfs/src/tf_card.c **** 		/* This loop will take a time. Insert rot_rdq() here for multitask envilonment. */
 555              		.loc 1 215 11 is_stmt 0 discriminator 2
 556 0018 1305F00F 		li	a0,255
 557 001c 97000000 		call	xchg_spi
 557      E7800000 
 558              	.LVL59:
 217:lib/fatfs/src/tf_card.c **** 	if(token != 0xFE) return 0;		/* Function fails if invalid DataStart token or timeout */
 559              		.loc 1 217 2 discriminator 2
 560 0024 9307F00F 		li	a5,255
 561 0028 631DF500 		bne	a0,a5,.L37
 217:lib/fatfs/src/tf_card.c **** 	if(token != 0xFE) return 0;		/* Function fails if invalid DataStart token or timeout */
 562              		.loc 1 217 30 discriminator 1
 563 002c 97000000 		call	tf_timer_done
 563      E7800000 
 564              	.LVL60:
 217:lib/fatfs/src/tf_card.c **** 	if(token != 0xFE) return 0;		/* Function fails if invalid DataStart token or timeout */
 565              		.loc 1 217 27 discriminator 1
 566 0034 75F1     		bne	a0,zero,.L38
 567              	.L40:
 218:lib/fatfs/src/tf_card.c **** 
 568              		.loc 1 218 27
 569 0036 0145     		li	a0,0
 570              	.LVL61:
 571              	.L36:
 224:lib/fatfs/src/tf_card.c **** 
 572              		.loc 1 224 1
 573 0038 B240     		lw	ra,12(sp)
 574              		.cfi_remember_state
 575              		.cfi_restore 1
 576 003a 2244     		lw	s0,8(sp)
 577              		.cfi_restore 8
 578 003c 9244     		lw	s1,4(sp)
 579              		.cfi_restore 9
 580 003e 4101     		addi	sp,sp,16
 581              	.LCFI12:
 582              		.cfi_def_cfa_offset 0
 583 0040 8280     		jr	ra
GAS LISTING /var/folders/rt/4gvqv631095f64jvm7jfj_000000gn/T//ccRH6IFk.s 			page 18


 584              	.LVL62:
 585              	.L37:
 586              	.LCFI13:
 587              		.cfi_restore_state
 218:lib/fatfs/src/tf_card.c **** 
 588              		.loc 1 218 2 is_stmt 1
 218:lib/fatfs/src/tf_card.c **** 
 589              		.loc 1 218 4 is_stmt 0
 590 0042 9307E00F 		li	a5,254
 591 0046 E318F5FE 		bne	a0,a5,.L40
 592 004a 8504     		addi	s1,s1,1
 593              	.LVL63:
 594 004c A294     		add	s1,s0,s1
 595              	.LVL64:
 596              	.L41:
 597              	.LBB7:
 598              	.LBB8:
 599              	.LBB9:
 600              	.LBB10:
 116:lib/fatfs/src/tf_card.c **** 	{
 601              		.loc 1 116 2 is_stmt 1
 118:lib/fatfs/src/tf_card.c **** 		buff++;
 602              		.loc 1 118 3
 118:lib/fatfs/src/tf_card.c **** 		buff++;
 603              		.loc 1 118 11 is_stmt 0
 604 004e 1305F00F 		li	a0,255
 605 0052 97000000 		call	xchg_spi
 605      E7800000 
 606              	.LVL65:
 118:lib/fatfs/src/tf_card.c **** 		buff++;
 607              		.loc 1 118 9
 608 005a 2300A400 		sb	a0,0(s0)
 119:lib/fatfs/src/tf_card.c **** 	} while (btr--);
 609              		.loc 1 119 3 is_stmt 1
 119:lib/fatfs/src/tf_card.c **** 	} while (btr--);
 610              		.loc 1 119 7 is_stmt 0
 611 005e 0504     		addi	s0,s0,1
 612              	.LVL66:
 120:lib/fatfs/src/tf_card.c **** 
 613              		.loc 1 120 2
 614 0060 E39784FE 		bne	s1,s0,.L41
 615              	.LVL67:
 616              	.LBE10:
 617              	.LBE9:
 221:lib/fatfs/src/tf_card.c **** 
 618              		.loc 1 221 2 is_stmt 1
 619 0064 1305F00F 		li	a0,255
 620 0068 97000000 		call	xchg_spi
 620      E7800000 
 621              	.LVL68:
 221:lib/fatfs/src/tf_card.c **** 
 622              		.loc 1 221 18
 623 0070 1305F00F 		li	a0,255
 624 0074 97000000 		call	xchg_spi
 624      E7800000 
 625              	.LVL69:
 223:lib/fatfs/src/tf_card.c **** }
GAS LISTING /var/folders/rt/4gvqv631095f64jvm7jfj_000000gn/T//ccRH6IFk.s 			page 19


 626              		.loc 1 223 2
 221:lib/fatfs/src/tf_card.c **** 
 627              		.loc 1 221 18 is_stmt 0
 628 007c 0545     		li	a0,1
 629 007e 6DBF     		j	.L36
 630              	.LBE8:
 631              	.LBE7:
 632              		.cfi_endproc
 633              	.LFE12:
 635              		.section	.text.xmit_datablock.part.1,"ax",@progbits
 636              		.align	1
 638              	xmit_datablock.part.1:
 639              	.LFB21:
 227:lib/fatfs/src/tf_card.c **** 	const BYTE *buff,	/* Ponter to 512 byte data to be sent */
 640              		.loc 1 227 5 is_stmt 1
 641              		.cfi_startproc
 642              	.LVL70:
 239:lib/fatfs/src/tf_card.c **** 		xchg_spi(0xFF); xchg_spi(0xFF);	/* Dummy CRC */
 643              		.loc 1 239 3
 227:lib/fatfs/src/tf_card.c **** 	const BYTE *buff,	/* Ponter to 512 byte data to be sent */
 644              		.loc 1 227 5 is_stmt 0
 645 0000 4111     		addi	sp,sp,-16
 646              	.LCFI14:
 647              		.cfi_def_cfa_offset 16
 648 0002 22C4     		sw	s0,8(sp)
 649 0004 26C2     		sw	s1,4(sp)
 650 0006 4AC0     		sw	s2,0(sp)
 651 0008 06C6     		sw	ra,12(sp)
 652              		.cfi_offset 8, -8
 653              		.cfi_offset 9, -12
 654              		.cfi_offset 18, -16
 655              		.cfi_offset 1, -4
 227:lib/fatfs/src/tf_card.c **** 	const BYTE *buff,	/* Ponter to 512 byte data to be sent */
 656              		.loc 1 227 5
 657 000a 2A89     		mv	s2,a0
 658              	.LVL71:
 659              	.LBB14:
 660              	.LBB15:
 131:lib/fatfs/src/tf_card.c **** 		xchg_spi(*(buff+i));
 661              		.loc 1 131 11
 662 000c 0144     		li	s0,0
 131:lib/fatfs/src/tf_card.c **** 		xchg_spi(*(buff+i));
 663              		.loc 1 131 2
 664 000e 93040020 		li	s1,512
 665              	.LVL72:
 666              	.L46:
 132:lib/fatfs/src/tf_card.c **** 	}
 667              		.loc 1 132 3 is_stmt 1
 668 0012 B3078900 		add	a5,s2,s0
 669 0016 03C50700 		lbu	a0,0(a5)
 131:lib/fatfs/src/tf_card.c **** 		xchg_spi(*(buff+i));
 670              		.loc 1 131 24 is_stmt 0
 671 001a 0504     		addi	s0,s0,1
 672              	.LVL73:
 132:lib/fatfs/src/tf_card.c **** 	}
 673              		.loc 1 132 3
 674 001c 97000000 		call	xchg_spi
GAS LISTING /var/folders/rt/4gvqv631095f64jvm7jfj_000000gn/T//ccRH6IFk.s 			page 20


 674      E7800000 
 675              	.LVL74:
 131:lib/fatfs/src/tf_card.c **** 		xchg_spi(*(buff+i));
 676              		.loc 1 131 2
 677 0024 E31794FE 		bne	s0,s1,.L46
 678              	.LVL75:
 679              	.LBE15:
 680              	.LBE14:
 240:lib/fatfs/src/tf_card.c **** 
 681              		.loc 1 240 3 is_stmt 1
 682 0028 1305F00F 		li	a0,255
 683 002c 97000000 		call	xchg_spi
 683      E7800000 
 684              	.LVL76:
 240:lib/fatfs/src/tf_card.c **** 
 685              		.loc 1 240 19
 686 0034 1305F00F 		li	a0,255
 687 0038 97000000 		call	xchg_spi
 687      E7800000 
 688              	.LVL77:
 242:lib/fatfs/src/tf_card.c **** 		if ((resp & 0x1F) != 0x05) return 0;	/* Function fails if the data packet was not accepted */
 689              		.loc 1 242 3
 242:lib/fatfs/src/tf_card.c **** 		if ((resp & 0x1F) != 0x05) return 0;	/* Function fails if the data packet was not accepted */
 690              		.loc 1 242 10 is_stmt 0
 691 0040 1305F00F 		li	a0,255
 692 0044 97000000 		call	xchg_spi
 692      E7800000 
 693              	.LVL78:
 243:lib/fatfs/src/tf_card.c **** 	}
 694              		.loc 1 243 3 is_stmt 1
 246:lib/fatfs/src/tf_card.c **** 
 695              		.loc 1 246 1 is_stmt 0
 696 004c B240     		lw	ra,12(sp)
 697              		.cfi_restore 1
 698 004e 2244     		lw	s0,8(sp)
 699              		.cfi_restore 8
 243:lib/fatfs/src/tf_card.c **** 	}
 700              		.loc 1 243 6
 701 0050 7D89     		andi	a0,a0,31
 702              	.LVL79:
 703 0052 6D15     		addi	a0,a0,-5
 246:lib/fatfs/src/tf_card.c **** 
 704              		.loc 1 246 1
 705 0054 9244     		lw	s1,4(sp)
 706              		.cfi_restore 9
 707 0056 0249     		lw	s2,0(sp)
 708              		.cfi_restore 18
 709              	.LVL80:
 710 0058 13351500 		seqz	a0,a0
 711 005c 4101     		addi	sp,sp,16
 712              	.LCFI15:
 713              		.cfi_def_cfa_offset 0
 714 005e 8280     		jr	ra
 715              		.cfi_endproc
 716              	.LFE21:
 718              		.section	.text.disk_initialize,"ax",@progbits
 719              		.align	1
GAS LISTING /var/folders/rt/4gvqv631095f64jvm7jfj_000000gn/T//ccRH6IFk.s 			page 21


 720              		.globl	disk_initialize
 722              	disk_initialize:
 723              	.LFB15:
 293:lib/fatfs/src/tf_card.c **** 
 294:lib/fatfs/src/tf_card.c **** 
 295:lib/fatfs/src/tf_card.c **** 
 296:lib/fatfs/src/tf_card.c **** /*--------------------------------------------------------------------------
 297:lib/fatfs/src/tf_card.c **** 
 298:lib/fatfs/src/tf_card.c ****    Public Functions
 299:lib/fatfs/src/tf_card.c **** 
 300:lib/fatfs/src/tf_card.c **** ---------------------------------------------------------------------------*/
 301:lib/fatfs/src/tf_card.c **** 
 302:lib/fatfs/src/tf_card.c **** 
 303:lib/fatfs/src/tf_card.c **** /*-----------------------------------------------------------------------*/
 304:lib/fatfs/src/tf_card.c **** /* Initialize disk drive                                                 */
 305:lib/fatfs/src/tf_card.c **** /*-----------------------------------------------------------------------*/
 306:lib/fatfs/src/tf_card.c **** 
 307:lib/fatfs/src/tf_card.c **** DSTATUS disk_initialize (
 308:lib/fatfs/src/tf_card.c **** 	BYTE drv		/* Physical drive number (0) */
 309:lib/fatfs/src/tf_card.c **** )
 310:lib/fatfs/src/tf_card.c **** {
 724              		.loc 1 310 1 is_stmt 1
 725              		.cfi_startproc
 726              	.LVL81:
 311:lib/fatfs/src/tf_card.c **** 	BYTE n, cmd, ty, ocr[4];
 727              		.loc 1 311 2
 312:lib/fatfs/src/tf_card.c **** 
 313:lib/fatfs/src/tf_card.c **** 
 314:lib/fatfs/src/tf_card.c **** 	if (drv) return STA_NOINIT;			/* Supports only drive 0 */
 728              		.loc 1 314 2
 729              		.loc 1 314 5 is_stmt 0
 730 0000 63110528 		bne	a0,zero,.L65
 315:lib/fatfs/src/tf_card.c **** 	init_spi();							/* Initialize SPI */
 731              		.loc 1 315 2 is_stmt 1
 732              	.LBB18:
 733              	.LBB19:
  64:lib/fatfs/src/tf_card.c **** 
 734              		.loc 1 64 5
  66:lib/fatfs/src/tf_card.c **** 	rcu_periph_clock_enable(RCU_GPIOC);
 735              		.loc 1 66 5
 736              	.LBE19:
 737              	.LBE18:
 310:lib/fatfs/src/tf_card.c **** 	BYTE n, cmd, ty, ocr[4];
 738              		.loc 1 310 1 is_stmt 0
 739 0004 7971     		addi	sp,sp,-48
 740              	.LCFI16:
 741              		.cfi_def_cfa_offset 48
 742              	.LBB22:
 743              	.LBB20:
  66:lib/fatfs/src/tf_card.c **** 	rcu_periph_clock_enable(RCU_GPIOC);
 744              		.loc 1 66 5
 745 0006 13053060 		li	a0,1539
 746              	.LVL82:
 747              	.LBE20:
 748              	.LBE22:
 310:lib/fatfs/src/tf_card.c **** 	BYTE n, cmd, ty, ocr[4];
 749              		.loc 1 310 1
GAS LISTING /var/folders/rt/4gvqv631095f64jvm7jfj_000000gn/T//ccRH6IFk.s 			page 22


 750 000a 06D6     		sw	ra,44(sp)
 751 000c 22D4     		sw	s0,40(sp)
 752 000e 26D2     		sw	s1,36(sp)
 753 0010 4AD0     		sw	s2,32(sp)
 754              		.cfi_offset 1, -4
 755              		.cfi_offset 8, -8
 756              		.cfi_offset 9, -12
 757              		.cfi_offset 18, -16
 758              	.LBB23:
 759              	.LBB21:
  66:lib/fatfs/src/tf_card.c **** 	rcu_periph_clock_enable(RCU_GPIOC);
 760              		.loc 1 66 5
 761 0012 97000000 		call	rcu_periph_clock_enable
 761      E7800000 
 762              	.LVL83:
  67:lib/fatfs/src/tf_card.c ****     rcu_periph_clock_enable(RCU_SPI1);
 763              		.loc 1 67 2 is_stmt 1
 764 001a 13054060 		li	a0,1540
 765 001e 97000000 		call	rcu_periph_clock_enable
 765      E7800000 
 766              	.LVL84:
  68:lib/fatfs/src/tf_card.c **** 
 767              		.loc 1 68 5
 768 0026 1305E070 		li	a0,1806
 769 002a 97000000 		call	rcu_periph_clock_enable
 769      E7800000 
 770              	.LVL85:
  71:lib/fatfs/src/tf_card.c ****     gpio_init(GPIOB, GPIO_MODE_IN_FLOATING, GPIO_OSPEED_50MHZ, GPIO_PIN_14);
 771              		.loc 1 71 5
 772 0032 37140140 		li	s0,1073811456
 773 0036 130504C0 		addi	a0,s0,-1024
 774 003a A966     		li	a3,40960
 775 003c 0D46     		li	a2,3
 776 003e E145     		li	a1,24
 777 0040 97000000 		call	gpio_init
 777      E7800000 
 778              	.LVL86:
  72:lib/fatfs/src/tf_card.c ****     /* SPI1_CS(PB12) GPIO pin configuration */
 779              		.loc 1 72 5
 780 0048 130504C0 		addi	a0,s0,-1024
 781 004c 9166     		li	a3,16384
 782 004e 0D46     		li	a2,3
 783 0050 9145     		li	a1,4
 784 0052 97000000 		call	gpio_init
 784      E7800000 
 785              	.LVL87:
  74:lib/fatfs/src/tf_card.c **** 
 786              		.loc 1 74 5
 787 005a 9166     		li	a3,16384
 788 005c 0D46     		li	a2,3
 789 005e C145     		li	a1,16
 790 0060 37150140 		li	a0,1073811456
 791 0064 97000000 		call	gpio_init
 791      E7800000 
 792              	.LVL88:
  77:lib/fatfs/src/tf_card.c **** 
 793              		.loc 1 77 5
GAS LISTING /var/folders/rt/4gvqv631095f64jvm7jfj_000000gn/T//ccRH6IFk.s 			page 23


 794 006c 9165     		li	a1,16384
 795 006e 37150140 		li	a0,1073811456
 796 0072 97000000 		call	gpio_bit_set
 796      E7800000 
 797              	.LVL89:
  80:lib/fatfs/src/tf_card.c ****     spi_init_struct.device_mode          = SPI_MASTER;
 798              		.loc 1 80 5
  81:lib/fatfs/src/tf_card.c ****     spi_init_struct.frame_size           = SPI_FRAMESIZE_8BIT;
 799              		.loc 1 81 42 is_stmt 0
 800 007a 93074010 		li	a5,260
 801 007e 3EC2     		sw	a5,4(sp)
  83:lib/fatfs/src/tf_card.c ****     spi_init_struct.nss                  = SPI_NSS_SOFT;
 802              		.loc 1 83 42
 803 0080 8D47     		li	a5,3
  87:lib/fatfs/src/tf_card.c **** 
 804              		.loc 1 87 5
 805 0082 B7440040 		li	s1,1073758208
  83:lib/fatfs/src/tf_card.c ****     spi_init_struct.nss                  = SPI_NSS_SOFT;
 806              		.loc 1 83 42
 807 0086 3ECC     		sw	a5,24(sp)
  84:lib/fatfs/src/tf_card.c ****     spi_init_struct.prescale             = SPI_PSC_32;
 808              		.loc 1 84 42
 809 0088 93070020 		li	a5,512
 810 008c 3EC8     		sw	a5,16(sp)
  87:lib/fatfs/src/tf_card.c **** 
 811              		.loc 1 87 5
 812 008e 4C00     		addi	a1,sp,4
  85:lib/fatfs/src/tf_card.c ****     spi_init_struct.endian               = SPI_ENDIAN_MSB;
 813              		.loc 1 85 42
 814 0090 93070002 		li	a5,32
  87:lib/fatfs/src/tf_card.c **** 
 815              		.loc 1 87 5
 816 0094 13850480 		addi	a0,s1,-2048
  85:lib/fatfs/src/tf_card.c ****     spi_init_struct.endian               = SPI_ENDIAN_MSB;
 817              		.loc 1 85 42
 818 0098 3ECE     		sw	a5,28(sp)
  80:lib/fatfs/src/tf_card.c ****     spi_init_struct.device_mode          = SPI_MASTER;
 819              		.loc 1 80 42
 820 009a 02C4     		sw	zero,8(sp)
  81:lib/fatfs/src/tf_card.c ****     spi_init_struct.frame_size           = SPI_FRAMESIZE_8BIT;
 821              		.loc 1 81 5 is_stmt 1
  82:lib/fatfs/src/tf_card.c ****     spi_init_struct.clock_polarity_phase = SPI_CK_PL_HIGH_PH_2EDGE;
 822              		.loc 1 82 5
  82:lib/fatfs/src/tf_card.c ****     spi_init_struct.clock_polarity_phase = SPI_CK_PL_HIGH_PH_2EDGE;
 823              		.loc 1 82 42 is_stmt 0
 824 009c 02C6     		sw	zero,12(sp)
  83:lib/fatfs/src/tf_card.c ****     spi_init_struct.nss                  = SPI_NSS_SOFT;
 825              		.loc 1 83 5 is_stmt 1
  84:lib/fatfs/src/tf_card.c ****     spi_init_struct.prescale             = SPI_PSC_32;
 826              		.loc 1 84 5
  85:lib/fatfs/src/tf_card.c ****     spi_init_struct.endian               = SPI_ENDIAN_MSB;
 827              		.loc 1 85 5
  86:lib/fatfs/src/tf_card.c ****     spi_init(SPI1, &spi_init_struct);
 828              		.loc 1 86 5
  86:lib/fatfs/src/tf_card.c ****     spi_init(SPI1, &spi_init_struct);
 829              		.loc 1 86 42 is_stmt 0
 830 009e 02CA     		sw	zero,20(sp)
GAS LISTING /var/folders/rt/4gvqv631095f64jvm7jfj_000000gn/T//ccRH6IFk.s 			page 24


  87:lib/fatfs/src/tf_card.c **** 
 831              		.loc 1 87 5 is_stmt 1
 832 00a0 97000000 		call	spi_init
 832      E7800000 
 833              	.LVL90:
  90:lib/fatfs/src/tf_card.c ****     /* enable SPI1 */
 834              		.loc 1 90 5
 835 00a8 9D45     		li	a1,7
 836 00aa 13850480 		addi	a0,s1,-2048
 837 00ae 97000000 		call	spi_crc_polynomial_set
 837      E7800000 
 838              	.LVL91:
  92:lib/fatfs/src/tf_card.c **** 
 839              		.loc 1 92 5
 840 00b6 13850480 		addi	a0,s1,-2048
 841 00ba 97000000 		call	spi_enable
 841      E7800000 
 842              	.LVL92:
 843              	.LBE21:
 844              	.LBE23:
 316:lib/fatfs/src/tf_card.c ****     delay_1ms(10);
 845              		.loc 1 316 5
 846 00c2 2945     		li	a0,10
 847 00c4 97000000 		call	delay_1ms
 847      E7800000 
 848              	.LVL93:
 317:lib/fatfs/src/tf_card.c ****     //init_timer2();
 318:lib/fatfs/src/tf_card.c **** 
 319:lib/fatfs/src/tf_card.c **** 	if (Stat & STA_NODISK) return Stat;	/* Is card existing in the soket? */
 849              		.loc 1 319 2
 850              		.loc 1 319 11 is_stmt 0
 851 00cc 37040000 		lui	s0,%hi(.LANCHOR0)
 852 00d0 13070400 		addi	a4,s0,%lo(.LANCHOR0)
 853 00d4 83470700 		lbu	a5,0(a4)
 854 00d8 13040400 		addi	s0,s0,%lo(.LANCHOR0)
 855              		.loc 1 319 5
 856 00dc 898B     		andi	a5,a5,2
 857 00de 99CB     		beq	a5,zero,.L51
 858              		.loc 1 319 25 is_stmt 1 discriminator 1
 859              		.loc 1 319 32 is_stmt 0 discriminator 1
 860 00e0 03450700 		lbu	a0,0(a4)
 861              	.L93:
 320:lib/fatfs/src/tf_card.c **** 
 321:lib/fatfs/src/tf_card.c **** 	FCLK_SLOW();
 322:lib/fatfs/src/tf_card.c **** 	CS_LOW();
 323:lib/fatfs/src/tf_card.c **** 	for (n = 10; n; n--) xchg_spi(0xFF);	/* Send 80 dummy clocks */
 324:lib/fatfs/src/tf_card.c **** 
 325:lib/fatfs/src/tf_card.c **** 	ty = 0;
 326:lib/fatfs/src/tf_card.c **** 	if (send_cmd(CMD0, 0) == 1) {			/* Put the card SPI/Idle state */
 327:lib/fatfs/src/tf_card.c **** 		tf_start_timer(1000);						/* Initialization timeout = 1 sec */
 328:lib/fatfs/src/tf_card.c **** 		if (send_cmd(CMD8, 0x1AA) == 1) {	/* SDv2? */
 329:lib/fatfs/src/tf_card.c **** 			for (n = 0; n < 4; n++) ocr[n] = xchg_spi(0xFF);	/* Get 32 bit return value of R7 resp */
 330:lib/fatfs/src/tf_card.c **** 			if (ocr[2] == 0x01 && ocr[3] == 0xAA) {				/* Is the card supports vcc of 2.7-3.6V? */
 331:lib/fatfs/src/tf_card.c **** 				while (tf_timer_done() && send_cmd(ACMD41, 1UL << 30)) ;	/* Wait for end of initialization with
 332:lib/fatfs/src/tf_card.c **** 				if (tf_timer_done() && send_cmd(CMD58, 0) == 0) {		/* Check CCS bit in the OCR */
 333:lib/fatfs/src/tf_card.c **** 					for (n = 0; n < 4; n++) ocr[n] = xchg_spi(0xFF);
 334:lib/fatfs/src/tf_card.c **** 					ty = (ocr[0] & 0x40) ? CT_SD2 | CT_BLOCK : CT_SD2;	/* Card id SDv2 */
GAS LISTING /var/folders/rt/4gvqv631095f64jvm7jfj_000000gn/T//ccRH6IFk.s 			page 25


 335:lib/fatfs/src/tf_card.c **** 				}
 336:lib/fatfs/src/tf_card.c **** 			}
 337:lib/fatfs/src/tf_card.c **** 		} else {	/* Not SDv2 card */
 338:lib/fatfs/src/tf_card.c **** 			if (send_cmd(ACMD41, 0) <= 1) 	{	/* SDv1 or MMC? */
 339:lib/fatfs/src/tf_card.c **** 				ty = CT_SD1; cmd = ACMD41;	/* SDv1 (ACMD41(0)) */
 340:lib/fatfs/src/tf_card.c **** 			} else {
 341:lib/fatfs/src/tf_card.c **** 				ty = CT_MMC; cmd = CMD1;	/* MMCv3 (CMD1(0)) */
 342:lib/fatfs/src/tf_card.c **** 			}
 343:lib/fatfs/src/tf_card.c **** 			while (tf_timer_done() && send_cmd(cmd, 0)) ;		/* Wait for end of initialization */
 344:lib/fatfs/src/tf_card.c **** 			if (!tf_timer_done() || send_cmd(CMD16, 512) != 0)	/* Set block length: 512 */
 345:lib/fatfs/src/tf_card.c **** 				ty = 0;
 346:lib/fatfs/src/tf_card.c **** 		}
 347:lib/fatfs/src/tf_card.c **** 	}
 348:lib/fatfs/src/tf_card.c **** 	CardType = ty;	/* Card type */
 349:lib/fatfs/src/tf_card.c **** 	deselect();
 350:lib/fatfs/src/tf_card.c **** 	delay_1ms(1);
 351:lib/fatfs/src/tf_card.c **** 
 352:lib/fatfs/src/tf_card.c **** 	if (ty) {			/* OK */
 353:lib/fatfs/src/tf_card.c **** 		FCLK_FAST();			/* Set fast clock */
 354:lib/fatfs/src/tf_card.c **** 		Stat &= ~STA_NOINIT;	/* Clear STA_NOINIT flag */
 355:lib/fatfs/src/tf_card.c **** 	} else {			/* Failed */
 356:lib/fatfs/src/tf_card.c **** 		Stat = STA_NOINIT;
 357:lib/fatfs/src/tf_card.c **** 	}
 358:lib/fatfs/src/tf_card.c **** 
 359:lib/fatfs/src/tf_card.c **** 	return Stat;
 360:lib/fatfs/src/tf_card.c **** }
 862              		.loc 1 360 1
 863 00e4 B250     		lw	ra,44(sp)
 864              		.cfi_remember_state
 865              		.cfi_restore 1
 866 00e6 2254     		lw	s0,40(sp)
 867              		.cfi_restore 8
 868 00e8 9254     		lw	s1,36(sp)
 869              		.cfi_restore 9
 870 00ea 0259     		lw	s2,32(sp)
 871              		.cfi_restore 18
 359:lib/fatfs/src/tf_card.c **** }
 872              		.loc 1 359 9
 873 00ec 1375F50F 		andi	a0,a0,0xff
 874              		.loc 1 360 1
 875 00f0 4561     		addi	sp,sp,48
 876              	.LCFI17:
 877              		.cfi_def_cfa_offset 0
 878 00f2 8280     		jr	ra
 879              	.L51:
 880              	.LCFI18:
 881              		.cfi_restore_state
 321:lib/fatfs/src/tf_card.c **** 	CS_LOW();
 882              		.loc 1 321 2 is_stmt 1
 883 00f4 83A70480 		lw	a5,-2048(s1)
 322:lib/fatfs/src/tf_card.c **** 	for (n = 10; n; n--) xchg_spi(0xFF);	/* Send 80 dummy clocks */
 884              		.loc 1 322 2 is_stmt 0
 885 00f8 9165     		li	a1,16384
 886 00fa 37150140 		li	a0,1073811456
 321:lib/fatfs/src/tf_card.c **** 	CS_LOW();
 887              		.loc 1 321 2
 888 00fe 93F777FC 		andi	a5,a5,-57
GAS LISTING /var/folders/rt/4gvqv631095f64jvm7jfj_000000gn/T//ccRH6IFk.s 			page 26


 889 0102 93E78702 		ori	a5,a5,40
 890 0106 23A0F480 		sw	a5,-2048(s1)
 321:lib/fatfs/src/tf_card.c **** 	CS_LOW();
 891              		.loc 1 321 13 is_stmt 1
 322:lib/fatfs/src/tf_card.c **** 	for (n = 10; n; n--) xchg_spi(0xFF);	/* Send 80 dummy clocks */
 892              		.loc 1 322 2
 893 010a 97000000 		call	gpio_bit_reset
 893      E7800000 
 894              	.LVL94:
 323:lib/fatfs/src/tf_card.c **** 
 895              		.loc 1 323 2
 322:lib/fatfs/src/tf_card.c **** 	for (n = 10; n; n--) xchg_spi(0xFF);	/* Send 80 dummy clocks */
 896              		.loc 1 322 2 is_stmt 0
 897 0112 A944     		li	s1,10
 898              	.LVL95:
 899              	.L52:
 323:lib/fatfs/src/tf_card.c **** 
 900              		.loc 1 323 23 is_stmt 1 discriminator 3
 901 0114 FD14     		addi	s1,s1,-1
 902 0116 1305F00F 		li	a0,255
 903 011a 93F4F40F 		andi	s1,s1,0xff
 904 011e 97000000 		call	xchg_spi
 904      E7800000 
 905              	.LVL96:
 323:lib/fatfs/src/tf_card.c **** 
 906              		.loc 1 323 2 is_stmt 0 discriminator 3
 907 0126 FDF4     		bne	s1,zero,.L52
 325:lib/fatfs/src/tf_card.c **** 	if (send_cmd(CMD0, 0) == 1) {			/* Put the card SPI/Idle state */
 908              		.loc 1 325 2 is_stmt 1
 909              	.LVL97:
 326:lib/fatfs/src/tf_card.c **** 		tf_start_timer(1000);						/* Initialization timeout = 1 sec */
 910              		.loc 1 326 2
 326:lib/fatfs/src/tf_card.c **** 		tf_start_timer(1000);						/* Initialization timeout = 1 sec */
 911              		.loc 1 326 6 is_stmt 0
 912 0128 8145     		li	a1,0
 913 012a 0145     		li	a0,0
 914 012c 97000000 		call	send_cmd
 914      E7800000 
 915              	.LVL98:
 326:lib/fatfs/src/tf_card.c **** 		tf_start_timer(1000);						/* Initialization timeout = 1 sec */
 916              		.loc 1 326 5
 917 0134 8547     		li	a5,1
 326:lib/fatfs/src/tf_card.c **** 		tf_start_timer(1000);						/* Initialization timeout = 1 sec */
 918              		.loc 1 326 6
 919 0136 2A89     		mv	s2,a0
 326:lib/fatfs/src/tf_card.c **** 		tf_start_timer(1000);						/* Initialization timeout = 1 sec */
 920              		.loc 1 326 5
 921 0138 6313F514 		bne	a0,a5,.L53
 327:lib/fatfs/src/tf_card.c **** 		if (send_cmd(CMD8, 0x1AA) == 1) {	/* SDv2? */
 922              		.loc 1 327 3 is_stmt 1
 923 013c 1305803E 		li	a0,1000
 924 0140 97000000 		call	tf_start_timer
 924      E7800000 
 925              	.LVL99:
 328:lib/fatfs/src/tf_card.c **** 			for (n = 0; n < 4; n++) ocr[n] = xchg_spi(0xFF);	/* Get 32 bit return value of R7 resp */
 926              		.loc 1 328 3
 328:lib/fatfs/src/tf_card.c **** 			for (n = 0; n < 4; n++) ocr[n] = xchg_spi(0xFF);	/* Get 32 bit return value of R7 resp */
GAS LISTING /var/folders/rt/4gvqv631095f64jvm7jfj_000000gn/T//ccRH6IFk.s 			page 27


 927              		.loc 1 328 7 is_stmt 0
 928 0148 9305A01A 		li	a1,426
 929 014c 2145     		li	a0,8
 930 014e 97000000 		call	send_cmd
 930      E7800000 
 931              	.LVL100:
 328:lib/fatfs/src/tf_card.c **** 			for (n = 0; n < 4; n++) ocr[n] = xchg_spi(0xFF);	/* Get 32 bit return value of R7 resp */
 932              		.loc 1 328 6
 933 0156 631E250D 		bne	a0,s2,.L54
 329:lib/fatfs/src/tf_card.c **** 			if (ocr[2] == 0x01 && ocr[3] == 0xAA) {				/* Is the card supports vcc of 2.7-3.6V? */
 934              		.loc 1 329 4
 935 015a 1149     		li	s2,4
 936              	.L55:
 937              	.LVL101:
 329:lib/fatfs/src/tf_card.c **** 			if (ocr[2] == 0x01 && ocr[3] == 0xAA) {				/* Is the card supports vcc of 2.7-3.6V? */
 938              		.loc 1 329 28 is_stmt 1 discriminator 3
 329:lib/fatfs/src/tf_card.c **** 			if (ocr[2] == 0x01 && ocr[3] == 0xAA) {				/* Is the card supports vcc of 2.7-3.6V? */
 939              		.loc 1 329 37 is_stmt 0 discriminator 3
 940 015c 1305F00F 		li	a0,255
 941 0160 97000000 		call	xchg_spi
 941      E7800000 
 942              	.LVL102:
 329:lib/fatfs/src/tf_card.c **** 			if (ocr[2] == 0x01 && ocr[3] == 0xAA) {				/* Is the card supports vcc of 2.7-3.6V? */
 943              		.loc 1 329 35 discriminator 3
 944 0168 5C00     		addi	a5,sp,4
 945 016a A697     		add	a5,a5,s1
 946 016c 2380A700 		sb	a0,0(a5)
 947              	.LVL103:
 948 0170 8504     		addi	s1,s1,1
 949              	.LVL104:
 329:lib/fatfs/src/tf_card.c **** 			if (ocr[2] == 0x01 && ocr[3] == 0xAA) {				/* Is the card supports vcc of 2.7-3.6V? */
 950              		.loc 1 329 4 discriminator 3
 951 0172 E39524FF 		bne	s1,s2,.L55
 330:lib/fatfs/src/tf_card.c **** 				while (tf_timer_done() && send_cmd(ACMD41, 1UL << 30)) ;	/* Wait for end of initialization with
 952              		.loc 1 330 4 is_stmt 1
 330:lib/fatfs/src/tf_card.c **** 				while (tf_timer_done() && send_cmd(ACMD41, 1UL << 30)) ;	/* Wait for end of initialization with
 953              		.loc 1 330 7 is_stmt 0
 954 0176 03476100 		lbu	a4,6(sp)
 955 017a 8547     		li	a5,1
 956 017c 6311F710 		bne	a4,a5,.L53
 330:lib/fatfs/src/tf_card.c **** 				while (tf_timer_done() && send_cmd(ACMD41, 1UL << 30)) ;	/* Wait for end of initialization with
 957              		.loc 1 330 23 discriminator 1
 958 0180 03477100 		lbu	a4,7(sp)
 959 0184 9307A00A 		li	a5,170
 960 0188 631BF70E 		bne	a4,a5,.L53
 961              	.L57:
 331:lib/fatfs/src/tf_card.c **** 				if (tf_timer_done() && send_cmd(CMD58, 0) == 0) {		/* Check CCS bit in the OCR */
 962              		.loc 1 331 60 is_stmt 1 discriminator 2
 331:lib/fatfs/src/tf_card.c **** 				if (tf_timer_done() && send_cmd(CMD58, 0) == 0) {		/* Check CCS bit in the OCR */
 963              		.loc 1 331 12 is_stmt 0 discriminator 2
 964 018c 97000000 		call	tf_timer_done
 964      E7800000 
 965              	.LVL105:
 331:lib/fatfs/src/tf_card.c **** 				if (tf_timer_done() && send_cmd(CMD58, 0) == 0) {		/* Check CCS bit in the OCR */
 966              		.loc 1 331 11 discriminator 2
 967 0194 11C9     		beq	a0,zero,.L56
 331:lib/fatfs/src/tf_card.c **** 				if (tf_timer_done() && send_cmd(CMD58, 0) == 0) {		/* Check CCS bit in the OCR */
GAS LISTING /var/folders/rt/4gvqv631095f64jvm7jfj_000000gn/T//ccRH6IFk.s 			page 28


 968              		.loc 1 331 31 discriminator 1
 969 0196 B7050040 		li	a1,1073741824
 970 019a 1305900A 		li	a0,169
 971 019e 97000000 		call	send_cmd
 971      E7800000 
 972              	.LVL106:
 331:lib/fatfs/src/tf_card.c **** 				if (tf_timer_done() && send_cmd(CMD58, 0) == 0) {		/* Check CCS bit in the OCR */
 973              		.loc 1 331 28 discriminator 1
 974 01a6 7DF1     		bne	a0,zero,.L57
 975              	.L56:
 332:lib/fatfs/src/tf_card.c **** 					for (n = 0; n < 4; n++) ocr[n] = xchg_spi(0xFF);
 976              		.loc 1 332 5 is_stmt 1
 332:lib/fatfs/src/tf_card.c **** 					for (n = 0; n < 4; n++) ocr[n] = xchg_spi(0xFF);
 977              		.loc 1 332 9 is_stmt 0
 978 01a8 97000000 		call	tf_timer_done
 978      E7800000 
 979              	.LVL107:
 332:lib/fatfs/src/tf_card.c **** 					for (n = 0; n < 4; n++) ocr[n] = xchg_spi(0xFF);
 980              		.loc 1 332 8
 981 01b0 79C5     		beq	a0,zero,.L53
 332:lib/fatfs/src/tf_card.c **** 					for (n = 0; n < 4; n++) ocr[n] = xchg_spi(0xFF);
 982              		.loc 1 332 28 discriminator 1
 983 01b2 8145     		li	a1,0
 984 01b4 1305A003 		li	a0,58
 985 01b8 97000000 		call	send_cmd
 985      E7800000 
 986              	.LVL108:
 332:lib/fatfs/src/tf_card.c **** 					for (n = 0; n < 4; n++) ocr[n] = xchg_spi(0xFF);
 987              		.loc 1 332 25 discriminator 1
 988 01c0 5DED     		bne	a0,zero,.L53
 989 01c2 8144     		li	s1,0
 333:lib/fatfs/src/tf_card.c **** 					ty = (ocr[0] & 0x40) ? CT_SD2 | CT_BLOCK : CT_SD2;	/* Card id SDv2 */
 990              		.loc 1 333 6
 991 01c4 1149     		li	s2,4
 992              	.L58:
 993              	.LVL109:
 333:lib/fatfs/src/tf_card.c **** 					ty = (ocr[0] & 0x40) ? CT_SD2 | CT_BLOCK : CT_SD2;	/* Card id SDv2 */
 994              		.loc 1 333 30 is_stmt 1 discriminator 3
 333:lib/fatfs/src/tf_card.c **** 					ty = (ocr[0] & 0x40) ? CT_SD2 | CT_BLOCK : CT_SD2;	/* Card id SDv2 */
 995              		.loc 1 333 39 is_stmt 0 discriminator 3
 996 01c6 1305F00F 		li	a0,255
 997 01ca 97000000 		call	xchg_spi
 997      E7800000 
 998              	.LVL110:
 333:lib/fatfs/src/tf_card.c **** 					ty = (ocr[0] & 0x40) ? CT_SD2 | CT_BLOCK : CT_SD2;	/* Card id SDv2 */
 999              		.loc 1 333 37 discriminator 3
 1000 01d2 5C00     		addi	a5,sp,4
 1001 01d4 A697     		add	a5,a5,s1
 1002 01d6 2380A700 		sb	a0,0(a5)
 1003              	.LVL111:
 1004 01da 8504     		addi	s1,s1,1
 1005              	.LVL112:
 333:lib/fatfs/src/tf_card.c **** 					ty = (ocr[0] & 0x40) ? CT_SD2 | CT_BLOCK : CT_SD2;	/* Card id SDv2 */
 1006              		.loc 1 333 6 discriminator 3
 1007 01dc E39524FF 		bne	s1,s2,.L58
 334:lib/fatfs/src/tf_card.c **** 				}
 1008              		.loc 1 334 6 is_stmt 1
GAS LISTING /var/folders/rt/4gvqv631095f64jvm7jfj_000000gn/T//ccRH6IFk.s 			page 29


 334:lib/fatfs/src/tf_card.c **** 				}
 1009              		.loc 1 334 9 is_stmt 0
 1010 01e0 83474100 		lbu	a5,4(sp)
 1011 01e4 B144     		li	s1,12
 1012 01e6 93F70704 		andi	a5,a5,64
 1013 01ea 91E3     		bne	a5,zero,.L59
 1014 01ec 9144     		li	s1,4
 1015              	.LVL113:
 1016              	.L59:
 348:lib/fatfs/src/tf_card.c **** 	deselect();
 1017              		.loc 1 348 2 is_stmt 1
 348:lib/fatfs/src/tf_card.c **** 	deselect();
 1018              		.loc 1 348 11 is_stmt 0
 1019 01ee B7070000 		lui	a5,%hi(.LANCHOR1)
 1020 01f2 23809700 		sb	s1,%lo(.LANCHOR1)(a5)
 349:lib/fatfs/src/tf_card.c **** 	delay_1ms(1);
 1021              		.loc 1 349 2 is_stmt 1
 1022 01f6 97000000 		call	deselect
 1022      E7800000 
 1023              	.LVL114:
 350:lib/fatfs/src/tf_card.c **** 
 1024              		.loc 1 350 2
 1025 01fe 0545     		li	a0,1
 1026 0200 97000000 		call	delay_1ms
 1026      E7800000 
 1027              	.LVL115:
 352:lib/fatfs/src/tf_card.c **** 		FCLK_FAST();			/* Set fast clock */
 1028              		.loc 1 352 2
 356:lib/fatfs/src/tf_card.c **** 	}
 1029              		.loc 1 356 8 is_stmt 0
 1030 0208 8547     		li	a5,1
 352:lib/fatfs/src/tf_card.c **** 		FCLK_FAST();			/* Set fast clock */
 1031              		.loc 1 352 5
 1032 020a 99CC     		beq	s1,zero,.L92
 353:lib/fatfs/src/tf_card.c **** 		Stat &= ~STA_NOINIT;	/* Clear STA_NOINIT flag */
 1033              		.loc 1 353 3 is_stmt 1
 1034 020c 37470040 		li	a4,1073758208
 1035 0210 83270780 		lw	a5,-2048(a4)
 1036 0214 93F777FC 		andi	a5,a5,-57
 1037 0218 93E78702 		ori	a5,a5,40
 1038 021c 2320F780 		sw	a5,-2048(a4)
 353:lib/fatfs/src/tf_card.c **** 		Stat &= ~STA_NOINIT;	/* Clear STA_NOINIT flag */
 1039              		.loc 1 353 14
 354:lib/fatfs/src/tf_card.c **** 	} else {			/* Failed */
 1040              		.loc 1 354 3
 354:lib/fatfs/src/tf_card.c **** 	} else {			/* Failed */
 1041              		.loc 1 354 8 is_stmt 0
 1042 0220 83470400 		lbu	a5,0(s0)
 1043 0224 93F7E70F 		andi	a5,a5,254
 1044              	.L92:
 356:lib/fatfs/src/tf_card.c **** 	}
 1045              		.loc 1 356 8
 1046 0228 2300F400 		sb	a5,0(s0)
 359:lib/fatfs/src/tf_card.c **** }
 1047              		.loc 1 359 2 is_stmt 1
 359:lib/fatfs/src/tf_card.c **** }
 1048              		.loc 1 359 9 is_stmt 0
GAS LISTING /var/folders/rt/4gvqv631095f64jvm7jfj_000000gn/T//ccRH6IFk.s 			page 30


 1049 022c 03450400 		lbu	a0,0(s0)
 1050 0230 55BD     		j	.L93
 1051              	.LVL116:
 1052              	.L54:
 338:lib/fatfs/src/tf_card.c **** 				ty = CT_SD1; cmd = ACMD41;	/* SDv1 (ACMD41(0)) */
 1053              		.loc 1 338 4 is_stmt 1
 338:lib/fatfs/src/tf_card.c **** 				ty = CT_SD1; cmd = ACMD41;	/* SDv1 (ACMD41(0)) */
 1054              		.loc 1 338 8 is_stmt 0
 1055 0232 8145     		li	a1,0
 1056 0234 1305900A 		li	a0,169
 1057 0238 97000000 		call	send_cmd
 1057      E7800000 
 1058              	.LVL117:
 341:lib/fatfs/src/tf_card.c **** 			}
 1059              		.loc 1 341 8
 1060 0240 8544     		li	s1,1
 338:lib/fatfs/src/tf_card.c **** 				ty = CT_SD1; cmd = ACMD41;	/* SDv1 (ACMD41(0)) */
 1061              		.loc 1 338 7
 1062 0242 6365A900 		bgtu	a0,s2,.L62
 339:lib/fatfs/src/tf_card.c **** 			} else {
 1063              		.loc 1 339 8
 1064 0246 8944     		li	s1,2
 339:lib/fatfs/src/tf_card.c **** 			} else {
 1065              		.loc 1 339 22
 1066 0248 1309900A 		li	s2,169
 1067              	.LVL118:
 1068              	.L62:
 343:lib/fatfs/src/tf_card.c **** 			if (!tf_timer_done() || send_cmd(CMD16, 512) != 0)	/* Set block length: 512 */
 1069              		.loc 1 343 48 is_stmt 1 discriminator 2
 343:lib/fatfs/src/tf_card.c **** 			if (!tf_timer_done() || send_cmd(CMD16, 512) != 0)	/* Set block length: 512 */
 1070              		.loc 1 343 11 is_stmt 0 discriminator 2
 1071 024c 97000000 		call	tf_timer_done
 1071      E7800000 
 1072              	.LVL119:
 343:lib/fatfs/src/tf_card.c **** 			if (!tf_timer_done() || send_cmd(CMD16, 512) != 0)	/* Set block length: 512 */
 1073              		.loc 1 343 10 discriminator 2
 1074 0254 01C9     		beq	a0,zero,.L61
 343:lib/fatfs/src/tf_card.c **** 			if (!tf_timer_done() || send_cmd(CMD16, 512) != 0)	/* Set block length: 512 */
 1075              		.loc 1 343 30 discriminator 1
 1076 0256 8145     		li	a1,0
 1077 0258 4A85     		mv	a0,s2
 1078 025a 97000000 		call	send_cmd
 1078      E7800000 
 1079              	.LVL120:
 343:lib/fatfs/src/tf_card.c **** 			if (!tf_timer_done() || send_cmd(CMD16, 512) != 0)	/* Set block length: 512 */
 1080              		.loc 1 343 27 discriminator 1
 1081 0262 6DF5     		bne	a0,zero,.L62
 1082              	.L61:
 344:lib/fatfs/src/tf_card.c **** 				ty = 0;
 1083              		.loc 1 344 4 is_stmt 1
 344:lib/fatfs/src/tf_card.c **** 				ty = 0;
 1084              		.loc 1 344 9 is_stmt 0
 1085 0264 97000000 		call	tf_timer_done
 1085      E7800000 
 1086              	.LVL121:
 344:lib/fatfs/src/tf_card.c **** 				ty = 0;
 1087              		.loc 1 344 7
GAS LISTING /var/folders/rt/4gvqv631095f64jvm7jfj_000000gn/T//ccRH6IFk.s 			page 31


 1088 026c 09C9     		beq	a0,zero,.L53
 344:lib/fatfs/src/tf_card.c **** 				ty = 0;
 1089              		.loc 1 344 28 discriminator 1
 1090 026e 93050020 		li	a1,512
 1091 0272 4145     		li	a0,16
 1092 0274 97000000 		call	send_cmd
 1092      E7800000 
 1093              	.LVL122:
 344:lib/fatfs/src/tf_card.c **** 				ty = 0;
 1094              		.loc 1 344 25 discriminator 1
 1095 027c 2DD9     		beq	a0,zero,.L59
 1096              	.LVL123:
 1097              	.L53:
 345:lib/fatfs/src/tf_card.c **** 		}
 1098              		.loc 1 345 8
 1099 027e 8144     		li	s1,0
 1100 0280 BDB7     		j	.L59
 1101              	.LVL124:
 1102              	.L65:
 1103              	.LCFI19:
 1104              		.cfi_def_cfa_offset 0
 1105              		.cfi_restore 1
 1106              		.cfi_restore 8
 1107              		.cfi_restore 9
 1108              		.cfi_restore 18
 314:lib/fatfs/src/tf_card.c **** 	init_spi();							/* Initialize SPI */
 1109              		.loc 1 314 18
 1110 0282 0545     		li	a0,1
 1111              	.LVL125:
 1112              		.loc 1 360 1
 1113 0284 8280     		ret
 1114              		.cfi_endproc
 1115              	.LFE15:
 1117              		.section	.text.disk_status,"ax",@progbits
 1118              		.align	1
 1119              		.globl	disk_status
 1121              	disk_status:
 1122              	.LFB16:
 361:lib/fatfs/src/tf_card.c **** 
 362:lib/fatfs/src/tf_card.c **** 
 363:lib/fatfs/src/tf_card.c **** 
 364:lib/fatfs/src/tf_card.c **** /*-----------------------------------------------------------------------*/
 365:lib/fatfs/src/tf_card.c **** /* Get disk status                                                       */
 366:lib/fatfs/src/tf_card.c **** /*-----------------------------------------------------------------------*/
 367:lib/fatfs/src/tf_card.c **** 
 368:lib/fatfs/src/tf_card.c **** DSTATUS disk_status (
 369:lib/fatfs/src/tf_card.c **** 	BYTE drv		/* Physical drive number (0) */
 370:lib/fatfs/src/tf_card.c **** )
 371:lib/fatfs/src/tf_card.c **** {
 1123              		.loc 1 371 1 is_stmt 1
 1124              		.cfi_startproc
 1125              	.LVL126:
 372:lib/fatfs/src/tf_card.c **** 	if (drv) return STA_NOINIT;		/* Supports only drive 0 */
 1126              		.loc 1 372 2
 1127              		.loc 1 372 5 is_stmt 0
 1128 0000 01E9     		bne	a0,zero,.L96
 373:lib/fatfs/src/tf_card.c **** 
GAS LISTING /var/folders/rt/4gvqv631095f64jvm7jfj_000000gn/T//ccRH6IFk.s 			page 32


 374:lib/fatfs/src/tf_card.c **** 	return Stat;	/* Return disk status */
 1129              		.loc 1 374 2 is_stmt 1
 1130              		.loc 1 374 9 is_stmt 0
 1131 0002 B7070000 		lui	a5,%hi(.LANCHOR0)
 1132 0006 03C50700 		lbu	a0,%lo(.LANCHOR0)(a5)
 1133              	.LVL127:
 1134 000a 1375F50F 		andi	a0,a0,0xff
 1135 000e 8280     		ret
 1136              	.LVL128:
 1137              	.L96:
 372:lib/fatfs/src/tf_card.c **** 	if (drv) return STA_NOINIT;		/* Supports only drive 0 */
 1138              		.loc 1 372 18
 1139 0010 0545     		li	a0,1
 1140              	.LVL129:
 375:lib/fatfs/src/tf_card.c **** }
 1141              		.loc 1 375 1
 1142 0012 8280     		ret
 1143              		.cfi_endproc
 1144              	.LFE16:
 1146              		.section	.text.disk_read,"ax",@progbits
 1147              		.align	1
 1148              		.globl	disk_read
 1150              	disk_read:
 1151              	.LFB17:
 376:lib/fatfs/src/tf_card.c **** 
 377:lib/fatfs/src/tf_card.c **** 
 378:lib/fatfs/src/tf_card.c **** 
 379:lib/fatfs/src/tf_card.c **** /*-----------------------------------------------------------------------*/
 380:lib/fatfs/src/tf_card.c **** /* Read sector(s)                                                        */
 381:lib/fatfs/src/tf_card.c **** /*-----------------------------------------------------------------------*/
 382:lib/fatfs/src/tf_card.c **** 
 383:lib/fatfs/src/tf_card.c **** DRESULT disk_read (
 384:lib/fatfs/src/tf_card.c **** 	BYTE drv,		/* Physical drive number (0) */
 385:lib/fatfs/src/tf_card.c **** 	BYTE *buff,		/* Pointer to the data buffer to store read data */
 386:lib/fatfs/src/tf_card.c **** 	DWORD sector,	/* Start sector number (LBA) */
 387:lib/fatfs/src/tf_card.c **** 	UINT count		/* Number of sectors to read (1..128) */
 388:lib/fatfs/src/tf_card.c **** )
 389:lib/fatfs/src/tf_card.c **** {
 1152              		.loc 1 389 1 is_stmt 1
 1153              		.cfi_startproc
 1154              	.LVL130:
 390:lib/fatfs/src/tf_card.c **** 	if (drv || !count) return RES_PARERR;		/* Check parameter */
 1155              		.loc 1 390 2
 1156              		.loc 1 390 5 is_stmt 0
 1157 0000 59ED     		bne	a0,zero,.L104
 389:lib/fatfs/src/tf_card.c **** 	if (drv || !count) return RES_PARERR;		/* Check parameter */
 1158              		.loc 1 389 1 discriminator 2
 1159 0002 4111     		addi	sp,sp,-16
 1160              	.LCFI20:
 1161              		.cfi_def_cfa_offset 16
 1162 0004 22C4     		sw	s0,8(sp)
 1163 0006 06C6     		sw	ra,12(sp)
 1164 0008 26C2     		sw	s1,4(sp)
 1165              		.cfi_offset 8, -8
 1166              		.cfi_offset 1, -4
 1167              		.cfi_offset 9, -12
 1168 000a 3684     		mv	s0,a3
GAS LISTING /var/folders/rt/4gvqv631095f64jvm7jfj_000000gn/T//ccRH6IFk.s 			page 33


 1169              		.loc 1 390 28 discriminator 2
 1170 000c 1145     		li	a0,4
 1171              	.LVL131:
 1172              		.loc 1 390 10 discriminator 2
 1173 000e B1CA     		beq	a3,zero,.L97
 391:lib/fatfs/src/tf_card.c **** 	if (Stat & STA_NOINIT) return RES_NOTRDY;	/* Check if drive is ready */
 1174              		.loc 1 391 2 is_stmt 1
 1175              		.loc 1 391 11 is_stmt 0
 1176 0010 B7070000 		lui	a5,%hi(.LANCHOR0)
 1177 0014 83C70700 		lbu	a5,%lo(.LANCHOR0)(a5)
 1178              		.loc 1 391 32
 1179 0018 0D45     		li	a0,3
 1180              		.loc 1 391 5
 1181 001a 858B     		andi	a5,a5,1
 1182 001c B9E3     		bne	a5,zero,.L97
 392:lib/fatfs/src/tf_card.c **** 
 393:lib/fatfs/src/tf_card.c **** 	if (!(CardType & CT_BLOCK)) sector *= 512;	/* LBA ot BA conversion (byte addressing cards) */
 1183              		.loc 1 393 5
 1184 001e B7070000 		lui	a5,%hi(.LANCHOR1)
 1185 0022 83C70700 		lbu	a5,%lo(.LANCHOR1)(a5)
 1186 0026 AE84     		mv	s1,a1
 1187 0028 B285     		mv	a1,a2
 1188              	.LVL132:
 1189              		.loc 1 393 2 is_stmt 1
 1190              		.loc 1 393 5 is_stmt 0
 1191 002a A18B     		andi	a5,a5,8
 1192 002c 99E3     		bne	a5,zero,.L99
 1193              		.loc 1 393 30 is_stmt 1 discriminator 1
 1194              		.loc 1 393 37 is_stmt 0 discriminator 1
 1195 002e 93159600 		slli	a1,a2,9
 1196              	.LVL133:
 1197              	.L99:
 394:lib/fatfs/src/tf_card.c **** 
 395:lib/fatfs/src/tf_card.c **** 	if (count == 1) {	/* Single sector read */
 1198              		.loc 1 395 2 is_stmt 1
 1199              		.loc 1 395 5 is_stmt 0
 1200 0032 8547     		li	a5,1
 1201 0034 631CF402 		bne	s0,a5,.L100
 396:lib/fatfs/src/tf_card.c **** 		if ((send_cmd(CMD17, sector) == 0)	/* READ_SINGLE_BLOCK */
 1202              		.loc 1 396 3 is_stmt 1
 1203              		.loc 1 396 8 is_stmt 0
 1204 0038 4545     		li	a0,17
 1205 003a 97000000 		call	send_cmd
 1205      E7800000 
 1206              	.LVL134:
 1207              		.loc 1 396 6
 1208 0042 11E9     		bne	a0,zero,.L101
 397:lib/fatfs/src/tf_card.c **** 			&& rcvr_datablock(buff, 512)) {
 1209              		.loc 1 397 7
 1210 0044 93050020 		li	a1,512
 1211 0048 2685     		mv	a0,s1
 1212 004a 97000000 		call	rcvr_datablock
 1212      E7800000 
 1213              	.LVL135:
 1214              		.loc 1 397 4
 1215 0052 13341500 		seqz	s0,a0
 1216              	.LVL136:
GAS LISTING /var/folders/rt/4gvqv631095f64jvm7jfj_000000gn/T//ccRH6IFk.s 			page 34


 1217              	.L101:
 398:lib/fatfs/src/tf_card.c **** 			count = 0;
 399:lib/fatfs/src/tf_card.c **** 		}
 400:lib/fatfs/src/tf_card.c **** 	}
 401:lib/fatfs/src/tf_card.c **** 	else {				/* Multiple sector read */
 402:lib/fatfs/src/tf_card.c **** 		if (send_cmd(CMD18, sector) == 0) {	/* READ_MULTIPLE_BLOCK */
 403:lib/fatfs/src/tf_card.c **** 			do {
 404:lib/fatfs/src/tf_card.c **** 				if (!rcvr_datablock(buff, 512)) break;
 405:lib/fatfs/src/tf_card.c **** 				buff += 512;
 406:lib/fatfs/src/tf_card.c **** 			} while (--count);
 407:lib/fatfs/src/tf_card.c **** 			send_cmd(CMD12, 0);				/* STOP_TRANSMISSION */
 408:lib/fatfs/src/tf_card.c **** 		}
 409:lib/fatfs/src/tf_card.c **** 	}
 410:lib/fatfs/src/tf_card.c **** 	deselect();
 1218              		.loc 1 410 2 is_stmt 1
 1219 0056 97000000 		call	deselect
 1219      E7800000 
 1220              	.LVL137:
 411:lib/fatfs/src/tf_card.c **** 
 412:lib/fatfs/src/tf_card.c **** 	return count ? RES_ERROR : RES_OK;	/* Return result */
 1221              		.loc 1 412 2
 1222              		.loc 1 412 27 is_stmt 0
 1223 005e 33358000 		snez	a0,s0
 1224              	.LVL138:
 1225              	.L97:
 413:lib/fatfs/src/tf_card.c **** }
 1226              		.loc 1 413 1
 1227 0062 B240     		lw	ra,12(sp)
 1228              		.cfi_remember_state
 1229              		.cfi_restore 1
 1230 0064 2244     		lw	s0,8(sp)
 1231              		.cfi_restore 8
 1232              	.LVL139:
 1233 0066 9244     		lw	s1,4(sp)
 1234              		.cfi_restore 9
 1235 0068 4101     		addi	sp,sp,16
 1236              	.LCFI21:
 1237              		.cfi_def_cfa_offset 0
 1238 006a 8280     		jr	ra
 1239              	.LVL140:
 1240              	.L100:
 1241              	.LCFI22:
 1242              		.cfi_restore_state
 402:lib/fatfs/src/tf_card.c **** 			do {
 1243              		.loc 1 402 3 is_stmt 1
 402:lib/fatfs/src/tf_card.c **** 			do {
 1244              		.loc 1 402 7 is_stmt 0
 1245 006c 4945     		li	a0,18
 1246 006e 97000000 		call	send_cmd
 1246      E7800000 
 1247              	.LVL141:
 402:lib/fatfs/src/tf_card.c **** 			do {
 1248              		.loc 1 402 6
 1249 0076 65F1     		bne	a0,zero,.L101
 1250              	.L103:
 403:lib/fatfs/src/tf_card.c **** 				if (!rcvr_datablock(buff, 512)) break;
 1251              		.loc 1 403 4 is_stmt 1
GAS LISTING /var/folders/rt/4gvqv631095f64jvm7jfj_000000gn/T//ccRH6IFk.s 			page 35


 404:lib/fatfs/src/tf_card.c **** 				buff += 512;
 1252              		.loc 1 404 5
 404:lib/fatfs/src/tf_card.c **** 				buff += 512;
 1253              		.loc 1 404 10 is_stmt 0
 1254 0078 93050020 		li	a1,512
 1255 007c 2685     		mv	a0,s1
 1256 007e 97000000 		call	rcvr_datablock
 1256      E7800000 
 1257              	.LVL142:
 404:lib/fatfs/src/tf_card.c **** 				buff += 512;
 1258              		.loc 1 404 8
 1259 0086 09C5     		beq	a0,zero,.L102
 405:lib/fatfs/src/tf_card.c **** 			} while (--count);
 1260              		.loc 1 405 5 is_stmt 1
 406:lib/fatfs/src/tf_card.c **** 			send_cmd(CMD12, 0);				/* STOP_TRANSMISSION */
 1261              		.loc 1 406 4 is_stmt 0
 1262 0088 7D14     		addi	s0,s0,-1
 1263              	.LVL143:
 405:lib/fatfs/src/tf_card.c **** 			} while (--count);
 1264              		.loc 1 405 10
 1265 008a 93840420 		addi	s1,s1,512
 1266              	.LVL144:
 406:lib/fatfs/src/tf_card.c **** 			send_cmd(CMD12, 0);				/* STOP_TRANSMISSION */
 1267              		.loc 1 406 4
 1268 008e 6DF4     		bne	s0,zero,.L103
 1269              	.L102:
 407:lib/fatfs/src/tf_card.c **** 		}
 1270              		.loc 1 407 4 is_stmt 1
 1271 0090 8145     		li	a1,0
 1272 0092 3145     		li	a0,12
 1273 0094 97000000 		call	send_cmd
 1273      E7800000 
 1274              	.LVL145:
 1275 009c 6DBF     		j	.L101
 1276              	.LVL146:
 1277              	.L104:
 1278              	.LCFI23:
 1279              		.cfi_def_cfa_offset 0
 1280              		.cfi_restore 1
 1281              		.cfi_restore 8
 1282              		.cfi_restore 9
 390:lib/fatfs/src/tf_card.c **** 	if (Stat & STA_NOINIT) return RES_NOTRDY;	/* Check if drive is ready */
 1283              		.loc 1 390 28 is_stmt 0
 1284 009e 1145     		li	a0,4
 1285              	.LVL147:
 1286              		.loc 1 413 1
 1287 00a0 8280     		ret
 1288              		.cfi_endproc
 1289              	.LFE17:
 1291              		.section	.text.disk_write,"ax",@progbits
 1292              		.align	1
 1293              		.globl	disk_write
 1295              	disk_write:
 1296              	.LFB18:
 414:lib/fatfs/src/tf_card.c **** 
 415:lib/fatfs/src/tf_card.c **** 
 416:lib/fatfs/src/tf_card.c **** 
GAS LISTING /var/folders/rt/4gvqv631095f64jvm7jfj_000000gn/T//ccRH6IFk.s 			page 36


 417:lib/fatfs/src/tf_card.c **** /*-----------------------------------------------------------------------*/
 418:lib/fatfs/src/tf_card.c **** /* Write sector(s)                                                       */
 419:lib/fatfs/src/tf_card.c **** /*-----------------------------------------------------------------------*/
 420:lib/fatfs/src/tf_card.c **** 
 421:lib/fatfs/src/tf_card.c **** #if FF_FS_READONLY == 0
 422:lib/fatfs/src/tf_card.c **** DRESULT disk_write (
 423:lib/fatfs/src/tf_card.c **** 	BYTE drv,			/* Physical drive number (0) */
 424:lib/fatfs/src/tf_card.c **** 	const BYTE *buff,	/* Ponter to the data to write */
 425:lib/fatfs/src/tf_card.c **** 	DWORD sector,		/* Start sector number (LBA) */
 426:lib/fatfs/src/tf_card.c **** 	UINT count			/* Number of sectors to write (1..128) */
 427:lib/fatfs/src/tf_card.c **** )
 428:lib/fatfs/src/tf_card.c **** {
 1297              		.loc 1 428 1 is_stmt 1
 1298              		.cfi_startproc
 1299              	.LVL148:
 429:lib/fatfs/src/tf_card.c **** 	if (drv || !count) return RES_PARERR;		/* Check parameter */
 1300              		.loc 1 429 2
 1301              		.loc 1 429 5 is_stmt 0
 1302 0000 63120510 		bne	a0,zero,.L125
 428:lib/fatfs/src/tf_card.c **** 	if (drv || !count) return RES_PARERR;		/* Check parameter */
 1303              		.loc 1 428 1 discriminator 2
 1304 0004 0111     		addi	sp,sp,-32
 1305              	.LCFI24:
 1306              		.cfi_def_cfa_offset 32
 1307 0006 22CC     		sw	s0,24(sp)
 1308 0008 06CE     		sw	ra,28(sp)
 1309 000a 26CA     		sw	s1,20(sp)
 1310              		.cfi_offset 8, -8
 1311              		.cfi_offset 1, -4
 1312              		.cfi_offset 9, -12
 1313 000c 3684     		mv	s0,a3
 1314              		.loc 1 429 28 discriminator 2
 1315 000e 1145     		li	a0,4
 1316              	.LVL149:
 1317              		.loc 1 429 10 discriminator 2
 1318 0010 A9CA     		beq	a3,zero,.L115
 430:lib/fatfs/src/tf_card.c **** 	if (Stat & STA_NOINIT) return RES_NOTRDY;	/* Check drive status */
 1319              		.loc 1 430 2 is_stmt 1
 1320              		.loc 1 430 11 is_stmt 0
 1321 0012 B7070000 		lui	a5,%hi(.LANCHOR0)
 1322 0016 93870700 		addi	a5,a5,%lo(.LANCHOR0)
 1323 001a 03C70700 		lbu	a4,0(a5)
 1324              		.loc 1 430 32
 1325 001e 0D45     		li	a0,3
 1326              		.loc 1 430 5
 1327 0020 058B     		andi	a4,a4,1
 1328 0022 21E3     		bne	a4,zero,.L115
 431:lib/fatfs/src/tf_card.c **** 	if (Stat & STA_PROTECT) return RES_WRPRT;	/* Check write protect */
 1329              		.loc 1 431 2 is_stmt 1
 1330              		.loc 1 431 11 is_stmt 0
 1331 0024 83C70700 		lbu	a5,0(a5)
 1332              		.loc 1 431 33
 1333 0028 0945     		li	a0,2
 1334              		.loc 1 431 5
 1335 002a 918B     		andi	a5,a5,4
 1336 002c 9DEB     		bne	a5,zero,.L115
 432:lib/fatfs/src/tf_card.c **** 
GAS LISTING /var/folders/rt/4gvqv631095f64jvm7jfj_000000gn/T//ccRH6IFk.s 			page 37


 433:lib/fatfs/src/tf_card.c **** 	if (!(CardType & CT_BLOCK)) sector *= 512;	/* LBA ==> BA conversion (byte addressing cards) */
 1337              		.loc 1 433 17
 1338 002e B7070000 		lui	a5,%hi(.LANCHOR1)
 1339 0032 83C70700 		lbu	a5,%lo(.LANCHOR1)(a5)
 1340 0036 AE84     		mv	s1,a1
 1341              		.loc 1 433 2 is_stmt 1
 1342              		.loc 1 433 5 is_stmt 0
 1343 0038 13F78700 		andi	a4,a5,8
 1344 003c 11E3     		bne	a4,zero,.L117
 1345              		.loc 1 433 30 is_stmt 1 discriminator 1
 1346              		.loc 1 433 37 is_stmt 0 discriminator 1
 1347 003e 2606     		slli	a2,a2,9
 1348              	.LVL150:
 1349              	.L117:
 434:lib/fatfs/src/tf_card.c **** 
 435:lib/fatfs/src/tf_card.c **** 	if (count == 1) {	/* Single sector write */
 1350              		.loc 1 435 2 is_stmt 1
 1351              		.loc 1 435 5 is_stmt 0
 1352 0040 0547     		li	a4,1
 1353 0042 631AE404 		bne	s0,a4,.L118
 436:lib/fatfs/src/tf_card.c **** 		if ((send_cmd(CMD24, sector) == 0)	/* WRITE_BLOCK */
 1354              		.loc 1 436 3 is_stmt 1
 1355              		.loc 1 436 8 is_stmt 0
 1356 0046 B285     		mv	a1,a2
 1357              	.LVL151:
 1358 0048 6145     		li	a0,24
 1359 004a 97000000 		call	send_cmd
 1359      E7800000 
 1360              	.LVL152:
 1361              		.loc 1 436 6
 1362 0052 09CD     		beq	a0,zero,.L119
 1363              	.L121:
 428:lib/fatfs/src/tf_card.c **** 	if (drv || !count) return RES_PARERR;		/* Check parameter */
 1364              		.loc 1 428 1
 1365 0054 0544     		li	s0,1
 1366              	.LVL153:
 1367              	.L120:
 437:lib/fatfs/src/tf_card.c **** 			&& xmit_datablock(buff, 0xFE)) {
 438:lib/fatfs/src/tf_card.c **** 			count = 0;
 439:lib/fatfs/src/tf_card.c **** 		}
 440:lib/fatfs/src/tf_card.c **** 	}
 441:lib/fatfs/src/tf_card.c **** 	else {				/* Multiple sector write */
 442:lib/fatfs/src/tf_card.c **** 		if (CardType & CT_SDC) send_cmd(ACMD23, count);	/* Predefine number of sectors */
 443:lib/fatfs/src/tf_card.c **** 		if (send_cmd(CMD25, sector) == 0) {	/* WRITE_MULTIPLE_BLOCK */
 444:lib/fatfs/src/tf_card.c **** 			do {
 445:lib/fatfs/src/tf_card.c **** 				if (!xmit_datablock(buff, 0xFC)) break;
 446:lib/fatfs/src/tf_card.c **** 				buff += 512;
 447:lib/fatfs/src/tf_card.c **** 			} while (--count);
 448:lib/fatfs/src/tf_card.c **** 			if (!xmit_datablock(0, 0xFD)) count = 1;	/* STOP_TRAN token */
 449:lib/fatfs/src/tf_card.c **** 		}
 450:lib/fatfs/src/tf_card.c **** 	}
 451:lib/fatfs/src/tf_card.c **** 	deselect();
 1368              		.loc 1 451 2 is_stmt 1
 1369 0056 97000000 		call	deselect
 1369      E7800000 
 1370              	.LVL154:
 452:lib/fatfs/src/tf_card.c **** 
GAS LISTING /var/folders/rt/4gvqv631095f64jvm7jfj_000000gn/T//ccRH6IFk.s 			page 38


 453:lib/fatfs/src/tf_card.c **** 	return count ? RES_ERROR : RES_OK;	/* Return result */
 1371              		.loc 1 453 2
 1372              		.loc 1 453 27 is_stmt 0
 1373 005e 33358000 		snez	a0,s0
 1374              	.LVL155:
 1375              	.L115:
 454:lib/fatfs/src/tf_card.c **** }
 1376              		.loc 1 454 1
 1377 0062 F240     		lw	ra,28(sp)
 1378              		.cfi_remember_state
 1379              		.cfi_restore 1
 1380 0064 6244     		lw	s0,24(sp)
 1381              		.cfi_restore 8
 1382              	.LVL156:
 1383 0066 D244     		lw	s1,20(sp)
 1384              		.cfi_restore 9
 1385 0068 0561     		addi	sp,sp,32
 1386              	.LCFI25:
 1387              		.cfi_def_cfa_offset 0
 1388 006a 8280     		jr	ra
 1389              	.LVL157:
 1390              	.L119:
 1391              	.LCFI26:
 1392              		.cfi_restore_state
 1393              	.LBB30:
 1394              	.LBB31:
 232:lib/fatfs/src/tf_card.c **** 
 1395              		.loc 1 232 2 is_stmt 1
 235:lib/fatfs/src/tf_card.c **** 
 1396              		.loc 1 235 2
 235:lib/fatfs/src/tf_card.c **** 
 1397              		.loc 1 235 7 is_stmt 0
 1398 006c 1305401F 		li	a0,500
 1399 0070 97000000 		call	wait_ready
 1399      E7800000 
 1400              	.LVL158:
 235:lib/fatfs/src/tf_card.c **** 
 1401              		.loc 1 235 5
 1402 0078 71DD     		beq	a0,zero,.L121
 237:lib/fatfs/src/tf_card.c **** 	if (token != 0xFD) {				/* Send data if token is other than StopTran */
 1403              		.loc 1 237 2 is_stmt 1
 1404 007a 1305E00F 		li	a0,254
 1405 007e 97000000 		call	xchg_spi
 1405      E7800000 
 1406              	.LVL159:
 238:lib/fatfs/src/tf_card.c **** 		xmit_spi_multi(buff, 512);		/* Data */
 1407              		.loc 1 238 2
 1408 0086 2685     		mv	a0,s1
 1409 0088 97000000 		call	xmit_datablock.part.1
 1409      E7800000 
 1410              	.LVL160:
 1411              	.LBE31:
 1412              	.LBE30:
 437:lib/fatfs/src/tf_card.c **** 			count = 0;
 1413              		.loc 1 437 4 is_stmt 0
 1414 0090 13341500 		seqz	s0,a0
 1415              	.LVL161:
GAS LISTING /var/folders/rt/4gvqv631095f64jvm7jfj_000000gn/T//ccRH6IFk.s 			page 39


 1416 0094 C9B7     		j	.L120
 1417              	.LVL162:
 1418              	.L118:
 442:lib/fatfs/src/tf_card.c **** 		if (send_cmd(CMD25, sector) == 0) {	/* WRITE_MULTIPLE_BLOCK */
 1419              		.loc 1 442 3 is_stmt 1
 442:lib/fatfs/src/tf_card.c **** 		if (send_cmd(CMD25, sector) == 0) {	/* WRITE_MULTIPLE_BLOCK */
 1420              		.loc 1 442 6 is_stmt 0
 1421 0096 998B     		andi	a5,a5,6
 1422 0098 91CB     		beq	a5,zero,.L122
 442:lib/fatfs/src/tf_card.c **** 		if (send_cmd(CMD25, sector) == 0) {	/* WRITE_MULTIPLE_BLOCK */
 1423              		.loc 1 442 26 discriminator 1
 1424 009a A285     		mv	a1,s0
 1425 009c 13057009 		li	a0,151
 1426 00a0 32C6     		sw	a2,12(sp)
 442:lib/fatfs/src/tf_card.c **** 		if (send_cmd(CMD25, sector) == 0) {	/* WRITE_MULTIPLE_BLOCK */
 1427              		.loc 1 442 26 is_stmt 1 discriminator 1
 1428 00a2 97000000 		call	send_cmd
 1428      E7800000 
 1429              	.LVL163:
 1430 00aa 3246     		lw	a2,12(sp)
 1431              	.LVL164:
 1432              	.L122:
 443:lib/fatfs/src/tf_card.c **** 			do {
 1433              		.loc 1 443 3
 443:lib/fatfs/src/tf_card.c **** 			do {
 1434              		.loc 1 443 7 is_stmt 0
 1435 00ac B285     		mv	a1,a2
 1436 00ae 6545     		li	a0,25
 1437 00b0 97000000 		call	send_cmd
 1437      E7800000 
 1438              	.LVL165:
 443:lib/fatfs/src/tf_card.c **** 			do {
 1439              		.loc 1 443 6
 1440 00b8 59FD     		bne	a0,zero,.L120
 1441              	.L124:
 444:lib/fatfs/src/tf_card.c **** 				if (!xmit_datablock(buff, 0xFC)) break;
 1442              		.loc 1 444 4 is_stmt 1
 445:lib/fatfs/src/tf_card.c **** 				buff += 512;
 1443              		.loc 1 445 5
 1444              	.LVL166:
 1445              	.LBB32:
 1446              	.LBB33:
 232:lib/fatfs/src/tf_card.c **** 
 1447              		.loc 1 232 2
 235:lib/fatfs/src/tf_card.c **** 
 1448              		.loc 1 235 2
 235:lib/fatfs/src/tf_card.c **** 
 1449              		.loc 1 235 7 is_stmt 0
 1450 00ba 1305401F 		li	a0,500
 1451 00be 97000000 		call	wait_ready
 1451      E7800000 
 1452              	.LVL167:
 235:lib/fatfs/src/tf_card.c **** 
 1453              		.loc 1 235 5
 1454 00c6 0DC1     		beq	a0,zero,.L123
 237:lib/fatfs/src/tf_card.c **** 	if (token != 0xFD) {				/* Send data if token is other than StopTran */
 1455              		.loc 1 237 2 is_stmt 1
GAS LISTING /var/folders/rt/4gvqv631095f64jvm7jfj_000000gn/T//ccRH6IFk.s 			page 40


 1456 00c8 1305C00F 		li	a0,252
 1457 00cc 97000000 		call	xchg_spi
 1457      E7800000 
 1458              	.LVL168:
 238:lib/fatfs/src/tf_card.c **** 		xmit_spi_multi(buff, 512);		/* Data */
 1459              		.loc 1 238 2
 1460 00d4 2685     		mv	a0,s1
 1461 00d6 97000000 		call	xmit_datablock.part.1
 1461      E7800000 
 1462              	.LVL169:
 1463              	.LBE33:
 1464              	.LBE32:
 445:lib/fatfs/src/tf_card.c **** 				buff += 512;
 1465              		.loc 1 445 8 is_stmt 0
 1466 00de 09C5     		beq	a0,zero,.L123
 446:lib/fatfs/src/tf_card.c **** 			} while (--count);
 1467              		.loc 1 446 5 is_stmt 1
 447:lib/fatfs/src/tf_card.c **** 			if (!xmit_datablock(0, 0xFD)) count = 1;	/* STOP_TRAN token */
 1468              		.loc 1 447 4 is_stmt 0
 1469 00e0 7D14     		addi	s0,s0,-1
 1470              	.LVL170:
 446:lib/fatfs/src/tf_card.c **** 			} while (--count);
 1471              		.loc 1 446 10
 1472 00e2 93840420 		addi	s1,s1,512
 1473              	.LVL171:
 447:lib/fatfs/src/tf_card.c **** 			if (!xmit_datablock(0, 0xFD)) count = 1;	/* STOP_TRAN token */
 1474              		.loc 1 447 4
 1475 00e6 71F8     		bne	s0,zero,.L124
 1476              	.L123:
 448:lib/fatfs/src/tf_card.c **** 		}
 1477              		.loc 1 448 4 is_stmt 1
 1478              	.LVL172:
 1479              	.LBB34:
 1480              	.LBB35:
 232:lib/fatfs/src/tf_card.c **** 
 1481              		.loc 1 232 2
 235:lib/fatfs/src/tf_card.c **** 
 1482              		.loc 1 235 2
 235:lib/fatfs/src/tf_card.c **** 
 1483              		.loc 1 235 7 is_stmt 0
 1484 00e8 1305401F 		li	a0,500
 1485 00ec 97000000 		call	wait_ready
 1485      E7800000 
 1486              	.LVL173:
 235:lib/fatfs/src/tf_card.c **** 
 1487              		.loc 1 235 5
 1488 00f4 25D1     		beq	a0,zero,.L121
 237:lib/fatfs/src/tf_card.c **** 	if (token != 0xFD) {				/* Send data if token is other than StopTran */
 1489              		.loc 1 237 2 is_stmt 1
 1490 00f6 1305D00F 		li	a0,253
 1491 00fa 97000000 		call	xchg_spi
 1491      E7800000 
 1492              	.LVL174:
 238:lib/fatfs/src/tf_card.c **** 		xmit_spi_multi(buff, 512);		/* Data */
 1493              		.loc 1 238 2
 1494 0102 91BF     		j	.L120
 1495              	.LVL175:
GAS LISTING /var/folders/rt/4gvqv631095f64jvm7jfj_000000gn/T//ccRH6IFk.s 			page 41


 1496              	.L125:
 1497              	.LCFI27:
 1498              		.cfi_def_cfa_offset 0
 1499              		.cfi_restore 1
 1500              		.cfi_restore 8
 1501              		.cfi_restore 9
 1502              	.LBE35:
 1503              	.LBE34:
 429:lib/fatfs/src/tf_card.c **** 	if (Stat & STA_NOINIT) return RES_NOTRDY;	/* Check drive status */
 1504              		.loc 1 429 28 is_stmt 0
 1505 0104 1145     		li	a0,4
 1506              	.LVL176:
 1507              		.loc 1 454 1
 1508 0106 8280     		ret
 1509              		.cfi_endproc
 1510              	.LFE18:
 1512              		.section	.text.disk_ioctl,"ax",@progbits
 1513              		.align	1
 1514              		.globl	disk_ioctl
 1516              	disk_ioctl:
 1517              	.LFB19:
 455:lib/fatfs/src/tf_card.c **** #endif
 456:lib/fatfs/src/tf_card.c **** 
 457:lib/fatfs/src/tf_card.c **** 
 458:lib/fatfs/src/tf_card.c **** /*-----------------------------------------------------------------------*/
 459:lib/fatfs/src/tf_card.c **** /* Miscellaneous drive controls other than data read/write               */
 460:lib/fatfs/src/tf_card.c **** /*-----------------------------------------------------------------------*/
 461:lib/fatfs/src/tf_card.c **** 
 462:lib/fatfs/src/tf_card.c **** DRESULT disk_ioctl (
 463:lib/fatfs/src/tf_card.c **** 	BYTE drv,		/* Physical drive number (0) */
 464:lib/fatfs/src/tf_card.c **** 	BYTE cmd,		/* Control command code */
 465:lib/fatfs/src/tf_card.c **** 	void *buff		/* Pointer to the conrtol data */
 466:lib/fatfs/src/tf_card.c **** )
 467:lib/fatfs/src/tf_card.c **** {
 1518              		.loc 1 467 1 is_stmt 1
 1519              		.cfi_startproc
 1520              	.LVL177:
 468:lib/fatfs/src/tf_card.c **** 	DRESULT res;
 1521              		.loc 1 468 2
 469:lib/fatfs/src/tf_card.c **** 	BYTE n, csd[16];
 1522              		.loc 1 469 2
 470:lib/fatfs/src/tf_card.c **** 	DWORD *dp, st, ed, csize;
 1523              		.loc 1 470 2
 471:lib/fatfs/src/tf_card.c **** 
 472:lib/fatfs/src/tf_card.c **** 
 473:lib/fatfs/src/tf_card.c **** 	if (drv) return RES_PARERR;					/* Check parameter */
 1524              		.loc 1 473 2
 467:lib/fatfs/src/tf_card.c **** 	DRESULT res;
 1525              		.loc 1 467 1 is_stmt 0
 1526 0000 0111     		addi	sp,sp,-32
 1527              	.LCFI28:
 1528              		.cfi_def_cfa_offset 32
 1529 0002 26CA     		sw	s1,20(sp)
 1530 0004 06CE     		sw	ra,28(sp)
 1531 0006 22CC     		sw	s0,24(sp)
 1532              		.cfi_offset 9, -12
 1533              		.cfi_offset 1, -4
GAS LISTING /var/folders/rt/4gvqv631095f64jvm7jfj_000000gn/T//ccRH6IFk.s 			page 42


 1534              		.cfi_offset 8, -8
 1535              		.loc 1 473 18
 1536 0008 9144     		li	s1,4
 1537              		.loc 1 473 5
 1538 000a 0DE9     		bne	a0,zero,.L149
 474:lib/fatfs/src/tf_card.c **** 	if (Stat & STA_NOINIT) return RES_NOTRDY;	/* Check if drive is ready */
 1539              		.loc 1 474 2 is_stmt 1
 1540              		.loc 1 474 11 is_stmt 0
 1541 000c B7070000 		lui	a5,%hi(.LANCHOR0)
 1542 0010 83C70700 		lbu	a5,%lo(.LANCHOR0)(a5)
 1543              		.loc 1 474 32
 1544 0014 8D44     		li	s1,3
 1545              		.loc 1 474 5
 1546 0016 858B     		andi	a5,a5,1
 1547 0018 95E3     		bne	a5,zero,.L149
 475:lib/fatfs/src/tf_card.c **** 
 476:lib/fatfs/src/tf_card.c **** 	res = RES_ERROR;
 477:lib/fatfs/src/tf_card.c **** 
 478:lib/fatfs/src/tf_card.c **** 	switch (cmd) {
 1548              		.loc 1 478 2
 1549 001a 8547     		li	a5,1
 1550 001c 3284     		mv	s0,a2
 1551 001e AE84     		mv	s1,a1
 476:lib/fatfs/src/tf_card.c **** 
 1552              		.loc 1 476 2 is_stmt 1
 1553              	.LVL178:
 1554              		.loc 1 478 2
 1555 0020 638BF502 		beq	a1,a5,.L151
 1556 0024 95C1     		beq	a1,zero,.L152
 1557 0026 8D47     		li	a5,3
 1558 0028 6388F50A 		beq	a1,a5,.L153
 1559 002c 9147     		li	a5,4
 1560 002e 6383F516 		beq	a1,a5,.L154
 479:lib/fatfs/src/tf_card.c **** 	case CTRL_SYNC :		/* Wait for end of internal write process of the drive */
 480:lib/fatfs/src/tf_card.c **** 		if (_select()) res = RES_OK;
 481:lib/fatfs/src/tf_card.c **** 		break;
 482:lib/fatfs/src/tf_card.c **** 
 483:lib/fatfs/src/tf_card.c **** 	case GET_SECTOR_COUNT :	/* Get drive capacity in unit of sector (DWORD) */
 484:lib/fatfs/src/tf_card.c **** 		if ((send_cmd(CMD9, 0) == 0) && rcvr_datablock(csd, 16)) {
 485:lib/fatfs/src/tf_card.c **** 			if ((csd[0] >> 6) == 1) {	/* SDC ver 2.00 */
 486:lib/fatfs/src/tf_card.c **** 				csize = csd[9] + ((WORD)csd[8] << 8) + ((DWORD)(csd[7] & 63) << 16) + 1;
 487:lib/fatfs/src/tf_card.c **** 				*(DWORD*)buff = csize << 10;
 488:lib/fatfs/src/tf_card.c **** 			} else {					/* SDC ver 1.XX or MMC ver 3 */
 489:lib/fatfs/src/tf_card.c **** 				n = (csd[5] & 15) + ((csd[10] & 128) >> 7) + ((csd[9] & 3) << 1) + 2;
 490:lib/fatfs/src/tf_card.c **** 				csize = (csd[8] >> 6) + ((WORD)csd[7] << 2) + ((WORD)(csd[6] & 3) << 10) + 1;
 491:lib/fatfs/src/tf_card.c **** 				*(DWORD*)buff = csize << (n - 9);
 492:lib/fatfs/src/tf_card.c **** 			}
 493:lib/fatfs/src/tf_card.c **** 			res = RES_OK;
 494:lib/fatfs/src/tf_card.c **** 		}
 495:lib/fatfs/src/tf_card.c **** 		break;
 496:lib/fatfs/src/tf_card.c **** 
 497:lib/fatfs/src/tf_card.c **** 	case GET_BLOCK_SIZE :	/* Get erase block size in unit of sector (DWORD) */
 498:lib/fatfs/src/tf_card.c **** 		if (CardType & CT_SD2) {	/* SDC ver 2.00 */
 499:lib/fatfs/src/tf_card.c **** 			if (send_cmd(ACMD13, 0) == 0) {	/* Read SD status */
 500:lib/fatfs/src/tf_card.c **** 				xchg_spi(0xFF);
 501:lib/fatfs/src/tf_card.c **** 				if (rcvr_datablock(csd, 16)) {				/* Read partial block */
 502:lib/fatfs/src/tf_card.c **** 					for (n = 64 - 16; n; n--) xchg_spi(0xFF);	/* Purge trailing data */
GAS LISTING /var/folders/rt/4gvqv631095f64jvm7jfj_000000gn/T//ccRH6IFk.s 			page 43


 503:lib/fatfs/src/tf_card.c **** 					*(DWORD*)buff = 16UL << (csd[10] >> 4);
 504:lib/fatfs/src/tf_card.c **** 					res = RES_OK;
 505:lib/fatfs/src/tf_card.c **** 				}
 506:lib/fatfs/src/tf_card.c **** 			}
 507:lib/fatfs/src/tf_card.c **** 		} else {					/* SDC ver 1.XX or MMC */
 508:lib/fatfs/src/tf_card.c **** 			if ((send_cmd(CMD9, 0) == 0) && rcvr_datablock(csd, 16)) {	/* Read CSD */
 509:lib/fatfs/src/tf_card.c **** 				if (CardType & CT_SD1) {	/* SDC ver 1.XX */
 510:lib/fatfs/src/tf_card.c **** 					*(DWORD*)buff = (((csd[10] & 63) << 1) + ((WORD)(csd[11] & 128) >> 7) + 1) << ((csd[13] >> 6) 
 511:lib/fatfs/src/tf_card.c **** 				} else {					/* MMC */
 512:lib/fatfs/src/tf_card.c **** 					*(DWORD*)buff = ((WORD)((csd[10] & 124) >> 2) + 1) * (((csd[11] & 3) << 3) + ((csd[11] & 224) 
 513:lib/fatfs/src/tf_card.c **** 				}
 514:lib/fatfs/src/tf_card.c **** 				res = RES_OK;
 515:lib/fatfs/src/tf_card.c **** 			}
 516:lib/fatfs/src/tf_card.c **** 		}
 517:lib/fatfs/src/tf_card.c **** 		break;
 518:lib/fatfs/src/tf_card.c **** 
 519:lib/fatfs/src/tf_card.c **** 	case CTRL_TRIM :	/* Erase a block of sectors (used when _USE_ERASE == 1) */
 520:lib/fatfs/src/tf_card.c **** 		if (!(CardType & CT_SDC)) break;				/* Check if the card is SDC */
 521:lib/fatfs/src/tf_card.c **** 		if (disk_ioctl(drv, MMC_GET_CSD, csd)) break;	/* Get CSD */
 522:lib/fatfs/src/tf_card.c **** 		if (!(csd[0] >> 6) && !(csd[10] & 0x40)) break;	/* Check if sector erase can be applied to the ca
 523:lib/fatfs/src/tf_card.c **** 		dp = buff; st = dp[0]; ed = dp[1];				/* Load sector block */
 524:lib/fatfs/src/tf_card.c **** 		if (!(CardType & CT_BLOCK)) {
 525:lib/fatfs/src/tf_card.c **** 			st *= 512; ed *= 512;
 526:lib/fatfs/src/tf_card.c **** 		}
 527:lib/fatfs/src/tf_card.c **** 		if (send_cmd(CMD32, st) == 0 && send_cmd(CMD33, ed) == 0 && send_cmd(CMD38, 0) == 0 && wait_ready
 528:lib/fatfs/src/tf_card.c **** 			res = RES_OK;	/* FatFs does not check result of this command */
 529:lib/fatfs/src/tf_card.c **** 		}
 530:lib/fatfs/src/tf_card.c **** 		break;
 531:lib/fatfs/src/tf_card.c **** 
 532:lib/fatfs/src/tf_card.c **** 	default:
 533:lib/fatfs/src/tf_card.c **** 		res = RES_PARERR;
 1561              		.loc 1 533 7 is_stmt 0
 1562 0032 9144     		li	s1,4
 1563              	.LVL179:
 1564              	.L155:
 534:lib/fatfs/src/tf_card.c **** 	}
 535:lib/fatfs/src/tf_card.c **** 
 536:lib/fatfs/src/tf_card.c **** 	deselect();
 1565              		.loc 1 536 2 is_stmt 1
 1566 0034 97000000 		call	deselect
 1566      E7800000 
 1567              	.LVL180:
 537:lib/fatfs/src/tf_card.c **** 
 538:lib/fatfs/src/tf_card.c **** 	return res;
 1568              		.loc 1 538 2
 1569              	.L149:
 539:lib/fatfs/src/tf_card.c **** }
 1570              		.loc 1 539 1 is_stmt 0
 1571 003c F240     		lw	ra,28(sp)
 1572              		.cfi_remember_state
 1573              		.cfi_restore 1
 1574 003e 6244     		lw	s0,24(sp)
 1575              		.cfi_restore 8
 1576 0040 2685     		mv	a0,s1
 1577 0042 D244     		lw	s1,20(sp)
 1578              		.cfi_restore 9
 1579 0044 0561     		addi	sp,sp,32
GAS LISTING /var/folders/rt/4gvqv631095f64jvm7jfj_000000gn/T//ccRH6IFk.s 			page 44


 1580              	.LCFI29:
 1581              		.cfi_def_cfa_offset 0
 1582 0046 8280     		jr	ra
 1583              	.LVL181:
 1584              	.L152:
 1585              	.LCFI30:
 1586              		.cfi_restore_state
 480:lib/fatfs/src/tf_card.c **** 		break;
 1587              		.loc 1 480 3 is_stmt 1
 480:lib/fatfs/src/tf_card.c **** 		break;
 1588              		.loc 1 480 7 is_stmt 0
 1589 0048 97000000 		call	_select
 1589      E7800000 
 1590              	.LVL182:
 1591              	.L182:
 527:lib/fatfs/src/tf_card.c **** 			res = RES_OK;	/* FatFs does not check result of this command */
 1592              		.loc 1 527 87 discriminator 3
 1593 0050 93341500 		seqz	s1,a0
 1594 0054 C5B7     		j	.L155
 1595              	.LVL183:
 1596              	.L151:
 484:lib/fatfs/src/tf_card.c **** 			if ((csd[0] >> 6) == 1) {	/* SDC ver 2.00 */
 1597              		.loc 1 484 3 is_stmt 1
 484:lib/fatfs/src/tf_card.c **** 			if ((csd[0] >> 6) == 1) {	/* SDC ver 2.00 */
 1598              		.loc 1 484 8 is_stmt 0
 1599 0056 8145     		li	a1,0
 1600              	.LVL184:
 1601 0058 2545     		li	a0,9
 1602              	.LVL185:
 1603 005a 97000000 		call	send_cmd
 1603      E7800000 
 1604              	.LVL186:
 484:lib/fatfs/src/tf_card.c **** 			if ((csd[0] >> 6) == 1) {	/* SDC ver 2.00 */
 1605              		.loc 1 484 6
 1606 0062 19C1     		beq	a0,zero,.L156
 1607              	.LVL187:
 1608              	.L157:
 476:lib/fatfs/src/tf_card.c **** 
 1609              		.loc 1 476 6
 1610 0064 8544     		li	s1,1
 1611 0066 F9B7     		j	.L155
 1612              	.LVL188:
 1613              	.L156:
 484:lib/fatfs/src/tf_card.c **** 			if ((csd[0] >> 6) == 1) {	/* SDC ver 2.00 */
 1614              		.loc 1 484 35 discriminator 1
 1615 0068 C145     		li	a1,16
 1616 006a 0A85     		mv	a0,sp
 1617 006c 97000000 		call	rcvr_datablock
 1617      E7800000 
 1618              	.LVL189:
 484:lib/fatfs/src/tf_card.c **** 			if ((csd[0] >> 6) == 1) {	/* SDC ver 2.00 */
 1619              		.loc 1 484 32 discriminator 1
 1620 0074 65D9     		beq	a0,zero,.L157
 485:lib/fatfs/src/tf_card.c **** 				csize = csd[9] + ((WORD)csd[8] << 8) + ((DWORD)(csd[7] & 63) << 16) + 1;
 1621              		.loc 1 485 4 is_stmt 1
 485:lib/fatfs/src/tf_card.c **** 				csize = csd[9] + ((WORD)csd[8] << 8) + ((DWORD)(csd[7] & 63) << 16) + 1;
 1622              		.loc 1 485 22 is_stmt 0
GAS LISTING /var/folders/rt/4gvqv631095f64jvm7jfj_000000gn/T//ccRH6IFk.s 			page 45


 1623 0076 03460100 		lbu	a2,0(sp)
 1624 007a 83478100 		lbu	a5,8(sp)
 1625 007e 83469100 		lbu	a3,9(sp)
 485:lib/fatfs/src/tf_card.c **** 				csize = csd[9] + ((WORD)csd[8] << 8) + ((DWORD)(csd[7] & 63) << 16) + 1;
 1626              		.loc 1 485 7
 1627 0082 1982     		srli	a2,a2,6
 1628 0084 03477100 		lbu	a4,7(sp)
 1629 0088 631E9600 		bne	a2,s1,.L158
 486:lib/fatfs/src/tf_card.c **** 				*(DWORD*)buff = csize << 10;
 1630              		.loc 1 486 5 is_stmt 1
 1631              	.LVL190:
 487:lib/fatfs/src/tf_card.c **** 			} else {					/* SDC ver 1.XX or MMC ver 3 */
 1632              		.loc 1 487 5
 486:lib/fatfs/src/tf_card.c **** 				*(DWORD*)buff = csize << 10;
 1633              		.loc 1 486 36 is_stmt 0
 1634 008c A207     		slli	a5,a5,8
 1635              	.LVL191:
 486:lib/fatfs/src/tf_card.c **** 				*(DWORD*)buff = csize << 10;
 1636              		.loc 1 486 20
 1637 008e B697     		add	a5,a5,a3
 486:lib/fatfs/src/tf_card.c **** 				*(DWORD*)buff = csize << 10;
 1638              		.loc 1 486 66
 1639 0090 4207     		slli	a4,a4,16
 1640              	.LVL192:
 1641 0092 B7063F00 		li	a3,4128768
 1642 0096 758F     		and	a4,a4,a3
 1643              	.LVL193:
 486:lib/fatfs/src/tf_card.c **** 				*(DWORD*)buff = csize << 10;
 1644              		.loc 1 486 11
 1645 0098 0507     		addi	a4,a4,1
 1646 009a BA97     		add	a5,a5,a4
 487:lib/fatfs/src/tf_card.c **** 			} else {					/* SDC ver 1.XX or MMC ver 3 */
 1647              		.loc 1 487 27
 1648 009c AA07     		slli	a5,a5,10
 1649              	.LVL194:
 1650              	.L183:
 512:lib/fatfs/src/tf_card.c **** 				}
 1651              		.loc 1 512 20
 1652 009e 1CC0     		sw	a5,0(s0)
 514:lib/fatfs/src/tf_card.c **** 			}
 1653              		.loc 1 514 9
 1654 00a0 8144     		li	s1,0
 1655 00a2 49BF     		j	.L155
 1656              	.L158:
 489:lib/fatfs/src/tf_card.c **** 				csize = (csd[8] >> 6) + ((WORD)csd[7] << 2) + ((WORD)(csd[6] & 3) << 10) + 1;
 1657              		.loc 1 489 5 is_stmt 1
 1658              	.LVL195:
 490:lib/fatfs/src/tf_card.c **** 				*(DWORD*)buff = csize << (n - 9);
 1659              		.loc 1 490 5
 491:lib/fatfs/src/tf_card.c **** 			}
 1660              		.loc 1 491 5
 490:lib/fatfs/src/tf_card.c **** 				*(DWORD*)buff = csize << (n - 9);
 1661              		.loc 1 490 43 is_stmt 0
 1662 00a4 0A07     		slli	a4,a4,2
 490:lib/fatfs/src/tf_card.c **** 				*(DWORD*)buff = csize << (n - 9);
 1663              		.loc 1 490 21
 1664 00a6 9983     		srli	a5,a5,6
GAS LISTING /var/folders/rt/4gvqv631095f64jvm7jfj_000000gn/T//ccRH6IFk.s 			page 46


 490:lib/fatfs/src/tf_card.c **** 				*(DWORD*)buff = csize << (n - 9);
 1665              		.loc 1 490 27
 1666 00a8 BA97     		add	a5,a5,a4
 490:lib/fatfs/src/tf_card.c **** 				*(DWORD*)buff = csize << (n - 9);
 1667              		.loc 1 490 52
 1668 00aa 03476100 		lbu	a4,6(sp)
 490:lib/fatfs/src/tf_card.c **** 				*(DWORD*)buff = csize << (n - 9);
 1669              		.loc 1 490 71
 1670 00ae 0566     		li	a2,4096
 1671 00b0 130606C0 		addi	a2,a2,-1024
 1672 00b4 2A07     		slli	a4,a4,10
 1673              	.LVL196:
 1674 00b6 718F     		and	a4,a4,a2
 1675              	.LVL197:
 490:lib/fatfs/src/tf_card.c **** 				*(DWORD*)buff = csize << (n - 9);
 1676              		.loc 1 490 49
 1677 00b8 BA97     		add	a5,a5,a4
 489:lib/fatfs/src/tf_card.c **** 				csize = (csd[8] >> 6) + ((WORD)csd[7] << 2) + ((WORD)(csd[6] & 3) << 10) + 1;
 1678              		.loc 1 489 42
 1679 00ba 0346A100 		lbu	a2,10(sp)
 489:lib/fatfs/src/tf_card.c **** 				csize = (csd[8] >> 6) + ((WORD)csd[7] << 2) + ((WORD)(csd[6] & 3) << 10) + 1;
 1680              		.loc 1 489 17
 1681 00be 03475100 		lbu	a4,5(sp)
 489:lib/fatfs/src/tf_card.c **** 				csize = (csd[8] >> 6) + ((WORD)csd[7] << 2) + ((WORD)(csd[6] & 3) << 10) + 1;
 1682              		.loc 1 489 64
 1683 00c2 8606     		slli	a3,a3,1
 489:lib/fatfs/src/tf_card.c **** 				csize = (csd[8] >> 6) + ((WORD)csd[7] << 2) + ((WORD)(csd[6] & 3) << 10) + 1;
 1684              		.loc 1 489 42
 1685 00c4 1D82     		srli	a2,a2,7
 489:lib/fatfs/src/tf_card.c **** 				csize = (csd[8] >> 6) + ((WORD)csd[7] << 2) + ((WORD)(csd[6] & 3) << 10) + 1;
 1686              		.loc 1 489 17
 1687 00c6 3D8B     		andi	a4,a4,15
 489:lib/fatfs/src/tf_card.c **** 				csize = (csd[8] >> 6) + ((WORD)csd[7] << 2) + ((WORD)(csd[6] & 3) << 10) + 1;
 1688              		.loc 1 489 23
 1689 00c8 3297     		add	a4,a4,a2
 489:lib/fatfs/src/tf_card.c **** 				csize = (csd[8] >> 6) + ((WORD)csd[7] << 2) + ((WORD)(csd[6] & 3) << 10) + 1;
 1690              		.loc 1 489 64
 1691 00ca 998A     		andi	a3,a3,6
 491:lib/fatfs/src/tf_card.c **** 			}
 1692              		.loc 1 491 33
 1693 00cc 3697     		add	a4,a4,a3
 490:lib/fatfs/src/tf_card.c **** 				*(DWORD*)buff = csize << (n - 9);
 1694              		.loc 1 490 78
 1695 00ce 8507     		addi	a5,a5,1
 491:lib/fatfs/src/tf_card.c **** 			}
 1696              		.loc 1 491 33
 1697 00d0 6517     		addi	a4,a4,-7
 1698              	.LVL198:
 1699              	.L184:
 510:lib/fatfs/src/tf_card.c **** 				} else {					/* MMC */
 1700              		.loc 1 510 81
 1701 00d2 B397E700 		sll	a5,a5,a4
 1702 00d6 E1B7     		j	.L183
 1703              	.LVL199:
 1704              	.L153:
 498:lib/fatfs/src/tf_card.c **** 			if (send_cmd(ACMD13, 0) == 0) {	/* Read SD status */
 1705              		.loc 1 498 3 is_stmt 1
GAS LISTING /var/folders/rt/4gvqv631095f64jvm7jfj_000000gn/T//ccRH6IFk.s 			page 47


 498:lib/fatfs/src/tf_card.c **** 			if (send_cmd(ACMD13, 0) == 0) {	/* Read SD status */
 1706              		.loc 1 498 16 is_stmt 0
 1707 00d8 B7040000 		lui	s1,%hi(.LANCHOR1)
 1708 00dc 93840400 		addi	s1,s1,%lo(.LANCHOR1)
 498:lib/fatfs/src/tf_card.c **** 			if (send_cmd(ACMD13, 0) == 0) {	/* Read SD status */
 1709              		.loc 1 498 6
 1710 00e0 83C70400 		lbu	a5,0(s1)
 499:lib/fatfs/src/tf_card.c **** 				xchg_spi(0xFF);
 1711              		.loc 1 499 8
 1712 00e4 8145     		li	a1,0
 1713              	.LVL200:
 498:lib/fatfs/src/tf_card.c **** 			if (send_cmd(ACMD13, 0) == 0) {	/* Read SD status */
 1714              		.loc 1 498 6
 1715 00e6 918B     		andi	a5,a5,4
 1716 00e8 B1CB     		beq	a5,zero,.L159
 499:lib/fatfs/src/tf_card.c **** 				xchg_spi(0xFF);
 1717              		.loc 1 499 4 is_stmt 1
 499:lib/fatfs/src/tf_card.c **** 				xchg_spi(0xFF);
 1718              		.loc 1 499 8 is_stmt 0
 1719 00ea 1305D008 		li	a0,141
 1720              	.LVL201:
 1721 00ee 97000000 		call	send_cmd
 1721      E7800000 
 1722              	.LVL202:
 499:lib/fatfs/src/tf_card.c **** 				xchg_spi(0xFF);
 1723              		.loc 1 499 7
 1724 00f6 3DF5     		bne	a0,zero,.L157
 500:lib/fatfs/src/tf_card.c **** 				if (rcvr_datablock(csd, 16)) {				/* Read partial block */
 1725              		.loc 1 500 5 is_stmt 1
 1726 00f8 1305F00F 		li	a0,255
 1727 00fc 97000000 		call	xchg_spi
 1727      E7800000 
 1728              	.LVL203:
 501:lib/fatfs/src/tf_card.c **** 					for (n = 64 - 16; n; n--) xchg_spi(0xFF);	/* Purge trailing data */
 1729              		.loc 1 501 5
 501:lib/fatfs/src/tf_card.c **** 					for (n = 64 - 16; n; n--) xchg_spi(0xFF);	/* Purge trailing data */
 1730              		.loc 1 501 9 is_stmt 0
 1731 0104 C145     		li	a1,16
 1732 0106 0A85     		mv	a0,sp
 1733 0108 97000000 		call	rcvr_datablock
 1733      E7800000 
 1734              	.LVL204:
 501:lib/fatfs/src/tf_card.c **** 					for (n = 64 - 16; n; n--) xchg_spi(0xFF);	/* Purge trailing data */
 1735              		.loc 1 501 8
 1736 0110 31D9     		beq	a0,zero,.L157
 1737 0112 93040003 		li	s1,48
 1738              	.L160:
 1739              	.LVL205:
 502:lib/fatfs/src/tf_card.c **** 					*(DWORD*)buff = 16UL << (csd[10] >> 4);
 1740              		.loc 1 502 32 is_stmt 1 discriminator 3
 1741 0116 FD14     		addi	s1,s1,-1
 1742              	.LVL206:
 1743 0118 1305F00F 		li	a0,255
 1744 011c 93F4F40F 		andi	s1,s1,0xff
 1745 0120 97000000 		call	xchg_spi
 1745      E7800000 
 1746              	.LVL207:
GAS LISTING /var/folders/rt/4gvqv631095f64jvm7jfj_000000gn/T//ccRH6IFk.s 			page 48


 502:lib/fatfs/src/tf_card.c **** 					*(DWORD*)buff = 16UL << (csd[10] >> 4);
 1747              		.loc 1 502 6 is_stmt 0 discriminator 3
 1748 0128 FDF4     		bne	s1,zero,.L160
 503:lib/fatfs/src/tf_card.c **** 					res = RES_OK;
 1749              		.loc 1 503 6 is_stmt 1
 503:lib/fatfs/src/tf_card.c **** 					res = RES_OK;
 1750              		.loc 1 503 39 is_stmt 0
 1751 012a 8347A100 		lbu	a5,10(sp)
 1752 012e 13D74700 		srli	a4,a5,4
 503:lib/fatfs/src/tf_card.c **** 					res = RES_OK;
 1753              		.loc 1 503 27
 1754 0132 C147     		li	a5,16
 1755 0134 B397E700 		sll	a5,a5,a4
 503:lib/fatfs/src/tf_card.c **** 					res = RES_OK;
 1756              		.loc 1 503 20
 1757 0138 1CC0     		sw	a5,0(s0)
 504:lib/fatfs/src/tf_card.c **** 				}
 1758              		.loc 1 504 6 is_stmt 1
 1759              	.LVL208:
 1760 013a EDBD     		j	.L155
 1761              	.LVL209:
 1762              	.L159:
 508:lib/fatfs/src/tf_card.c **** 				if (CardType & CT_SD1) {	/* SDC ver 1.XX */
 1763              		.loc 1 508 4
 508:lib/fatfs/src/tf_card.c **** 				if (CardType & CT_SD1) {	/* SDC ver 1.XX */
 1764              		.loc 1 508 9 is_stmt 0
 1765 013c 2545     		li	a0,9
 1766              	.LVL210:
 1767 013e 97000000 		call	send_cmd
 1767      E7800000 
 1768              	.LVL211:
 508:lib/fatfs/src/tf_card.c **** 				if (CardType & CT_SD1) {	/* SDC ver 1.XX */
 1769              		.loc 1 508 7
 1770 0146 19FD     		bne	a0,zero,.L157
 508:lib/fatfs/src/tf_card.c **** 				if (CardType & CT_SD1) {	/* SDC ver 1.XX */
 1771              		.loc 1 508 36 discriminator 1
 1772 0148 C145     		li	a1,16
 1773 014a 0A85     		mv	a0,sp
 1774 014c 97000000 		call	rcvr_datablock
 1774      E7800000 
 1775              	.LVL212:
 508:lib/fatfs/src/tf_card.c **** 				if (CardType & CT_SD1) {	/* SDC ver 1.XX */
 1776              		.loc 1 508 33 discriminator 1
 1777 0154 01D9     		beq	a0,zero,.L157
 509:lib/fatfs/src/tf_card.c **** 					*(DWORD*)buff = (((csd[10] & 63) << 1) + ((WORD)(csd[11] & 128) >> 7) + 1) << ((csd[13] >> 6) 
 1778              		.loc 1 509 5 is_stmt 1
 509:lib/fatfs/src/tf_card.c **** 					*(DWORD*)buff = (((csd[10] & 63) << 1) + ((WORD)(csd[11] & 128) >> 7) + 1) << ((csd[13] >> 6) 
 1779              		.loc 1 509 8 is_stmt 0
 1780 0156 03C70400 		lbu	a4,0(s1)
 1781 015a 8347A100 		lbu	a5,10(sp)
 1782 015e 8346B100 		lbu	a3,11(sp)
 1783 0162 098B     		andi	a4,a4,2
 1784 0164 01CF     		beq	a4,zero,.L161
 510:lib/fatfs/src/tf_card.c **** 				} else {					/* MMC */
 1785              		.loc 1 510 6 is_stmt 1
 510:lib/fatfs/src/tf_card.c **** 				} else {					/* MMC */
 1786              		.loc 1 510 94 is_stmt 0
GAS LISTING /var/folders/rt/4gvqv631095f64jvm7jfj_000000gn/T//ccRH6IFk.s 			page 49


 1787 0166 0347D100 		lbu	a4,13(sp)
 510:lib/fatfs/src/tf_card.c **** 				} else {					/* MMC */
 1788              		.loc 1 510 39
 1789 016a 8607     		slli	a5,a5,1
 1790 016c 93F7E707 		andi	a5,a5,126
 510:lib/fatfs/src/tf_card.c **** 				} else {					/* MMC */
 1791              		.loc 1 510 70
 1792 0170 9D82     		srli	a3,a3,7
 510:lib/fatfs/src/tf_card.c **** 				} else {					/* MMC */
 1793              		.loc 1 510 45
 1794 0172 B697     		add	a5,a5,a3
 510:lib/fatfs/src/tf_card.c **** 				} else {					/* MMC */
 1795              		.loc 1 510 94
 1796 0174 1983     		srli	a4,a4,6
 510:lib/fatfs/src/tf_card.c **** 				} else {					/* MMC */
 1797              		.loc 1 510 76
 1798 0176 8507     		addi	a5,a5,1
 510:lib/fatfs/src/tf_card.c **** 				} else {					/* MMC */
 1799              		.loc 1 510 100
 1800 0178 7D17     		addi	a4,a4,-1
 1801 017a A1BF     		j	.L184
 1802              	.L161:
 512:lib/fatfs/src/tf_card.c **** 				}
 1803              		.loc 1 512 6 is_stmt 1
 512:lib/fatfs/src/tf_card.c **** 				}
 1804              		.loc 1 512 75 is_stmt 0
 1805 017c 13973600 		slli	a4,a3,3
 1806 0180 618B     		andi	a4,a4,24
 512:lib/fatfs/src/tf_card.c **** 				}
 1807              		.loc 1 512 100
 1808 0182 9582     		srli	a3,a3,5
 512:lib/fatfs/src/tf_card.c **** 				}
 1809              		.loc 1 512 46
 1810 0184 8987     		srai	a5,a5,2
 512:lib/fatfs/src/tf_card.c **** 				}
 1811              		.loc 1 512 81
 1812 0186 3697     		add	a4,a4,a3
 512:lib/fatfs/src/tf_card.c **** 				}
 1813              		.loc 1 512 23
 1814 0188 FD8B     		andi	a5,a5,31
 512:lib/fatfs/src/tf_card.c **** 				}
 1815              		.loc 1 512 106
 1816 018a 0507     		addi	a4,a4,1
 512:lib/fatfs/src/tf_card.c **** 				}
 1817              		.loc 1 512 52
 1818 018c 8507     		addi	a5,a5,1
 512:lib/fatfs/src/tf_card.c **** 				}
 1819              		.loc 1 512 57
 1820 018e B307F702 		mul	a5,a4,a5
 1821 0192 31B7     		j	.L183
 1822              	.LVL213:
 1823              	.L154:
 520:lib/fatfs/src/tf_card.c **** 		if (disk_ioctl(drv, MMC_GET_CSD, csd)) break;	/* Get CSD */
 1824              		.loc 1 520 3 is_stmt 1
 520:lib/fatfs/src/tf_card.c **** 		if (disk_ioctl(drv, MMC_GET_CSD, csd)) break;	/* Get CSD */
 1825              		.loc 1 520 18 is_stmt 0
 1826 0194 B7040000 		lui	s1,%hi(.LANCHOR1)
GAS LISTING /var/folders/rt/4gvqv631095f64jvm7jfj_000000gn/T//ccRH6IFk.s 			page 50


 1827 0198 93840400 		addi	s1,s1,%lo(.LANCHOR1)
 520:lib/fatfs/src/tf_card.c **** 		if (disk_ioctl(drv, MMC_GET_CSD, csd)) break;	/* Get CSD */
 1828              		.loc 1 520 6
 1829 019c 83C70400 		lbu	a5,0(s1)
 1830 01a0 998B     		andi	a5,a5,6
 1831 01a2 E38107EC 		beq	a5,zero,.L157
 521:lib/fatfs/src/tf_card.c **** 		if (!(csd[0] >> 6) && !(csd[10] & 0x40)) break;	/* Check if sector erase can be applied to the ca
 1832              		.loc 1 521 3 is_stmt 1
 521:lib/fatfs/src/tf_card.c **** 		if (!(csd[0] >> 6) && !(csd[10] & 0x40)) break;	/* Check if sector erase can be applied to the ca
 1833              		.loc 1 521 7 is_stmt 0
 1834 01a6 0A86     		mv	a2,sp
 1835 01a8 AD45     		li	a1,11
 1836              	.LVL214:
 1837 01aa 97000000 		call	disk_ioctl
 1837      E7800000 
 1838              	.LVL215:
 521:lib/fatfs/src/tf_card.c **** 		if (!(csd[0] >> 6) && !(csd[10] & 0x40)) break;	/* Check if sector erase can be applied to the ca
 1839              		.loc 1 521 6
 1840 01b2 E31905EA 		bne	a0,zero,.L157
 522:lib/fatfs/src/tf_card.c **** 		dp = buff; st = dp[0]; ed = dp[1];				/* Load sector block */
 1841              		.loc 1 522 3 is_stmt 1
 522:lib/fatfs/src/tf_card.c **** 		dp = buff; st = dp[0]; ed = dp[1];				/* Load sector block */
 1842              		.loc 1 522 7 is_stmt 0
 1843 01b6 83470100 		lbu	a5,0(sp)
 522:lib/fatfs/src/tf_card.c **** 		dp = buff; st = dp[0]; ed = dp[1];				/* Load sector block */
 1844              		.loc 1 522 22
 1845 01ba 0347A100 		lbu	a4,10(sp)
 522:lib/fatfs/src/tf_card.c **** 		dp = buff; st = dp[0]; ed = dp[1];				/* Load sector block */
 1846              		.loc 1 522 7
 1847 01be 9983     		srli	a5,a5,6
 522:lib/fatfs/src/tf_card.c **** 		dp = buff; st = dp[0]; ed = dp[1];				/* Load sector block */
 1848              		.loc 1 522 22
 1849 01c0 13770704 		andi	a4,a4,64
 1850 01c4 D98F     		or	a5,a5,a4
 1851 01c6 E38F07E8 		beq	a5,zero,.L157
 523:lib/fatfs/src/tf_card.c **** 		if (!(CardType & CT_BLOCK)) {
 1852              		.loc 1 523 3 is_stmt 1
 1853              	.LVL216:
 523:lib/fatfs/src/tf_card.c **** 		if (!(CardType & CT_BLOCK)) {
 1854              		.loc 1 523 14
 524:lib/fatfs/src/tf_card.c **** 			st *= 512; ed *= 512;
 1855              		.loc 1 524 6 is_stmt 0
 1856 01ca 83C70400 		lbu	a5,0(s1)
 523:lib/fatfs/src/tf_card.c **** 		if (!(CardType & CT_BLOCK)) {
 1857              		.loc 1 523 17
 1858 01ce 0C40     		lw	a1,0(s0)
 1859              	.LVL217:
 523:lib/fatfs/src/tf_card.c **** 		if (!(CardType & CT_BLOCK)) {
 1860              		.loc 1 523 26 is_stmt 1
 523:lib/fatfs/src/tf_card.c **** 		if (!(CardType & CT_BLOCK)) {
 1861              		.loc 1 523 29 is_stmt 0
 1862 01d0 4040     		lw	s0,4(s0)
 1863              	.LVL218:
 524:lib/fatfs/src/tf_card.c **** 			st *= 512; ed *= 512;
 1864              		.loc 1 524 3 is_stmt 1
 524:lib/fatfs/src/tf_card.c **** 			st *= 512; ed *= 512;
 1865              		.loc 1 524 6 is_stmt 0
GAS LISTING /var/folders/rt/4gvqv631095f64jvm7jfj_000000gn/T//ccRH6IFk.s 			page 51


 1866 01d2 A18B     		andi	a5,a5,8
 1867 01d4 99E3     		bne	a5,zero,.L162
 525:lib/fatfs/src/tf_card.c **** 		}
 1868              		.loc 1 525 4 is_stmt 1
 525:lib/fatfs/src/tf_card.c **** 		}
 1869              		.loc 1 525 7 is_stmt 0
 1870 01d6 A605     		slli	a1,a1,9
 1871              	.LVL219:
 525:lib/fatfs/src/tf_card.c **** 		}
 1872              		.loc 1 525 15 is_stmt 1
 525:lib/fatfs/src/tf_card.c **** 		}
 1873              		.loc 1 525 18 is_stmt 0
 1874 01d8 2604     		slli	s0,s0,9
 1875              	.LVL220:
 1876              	.L162:
 527:lib/fatfs/src/tf_card.c **** 			res = RES_OK;	/* FatFs does not check result of this command */
 1877              		.loc 1 527 3 is_stmt 1
 527:lib/fatfs/src/tf_card.c **** 			res = RES_OK;	/* FatFs does not check result of this command */
 1878              		.loc 1 527 7 is_stmt 0
 1879 01da 13050002 		li	a0,32
 1880 01de 97000000 		call	send_cmd
 1880      E7800000 
 1881              	.LVL221:
 527:lib/fatfs/src/tf_card.c **** 			res = RES_OK;	/* FatFs does not check result of this command */
 1882              		.loc 1 527 6
 1883 01e6 E31F05E6 		bne	a0,zero,.L157
 527:lib/fatfs/src/tf_card.c **** 			res = RES_OK;	/* FatFs does not check result of this command */
 1884              		.loc 1 527 35 discriminator 1
 1885 01ea A285     		mv	a1,s0
 1886 01ec 13051002 		li	a0,33
 1887 01f0 97000000 		call	send_cmd
 1887      E7800000 
 1888              	.LVL222:
 527:lib/fatfs/src/tf_card.c **** 			res = RES_OK;	/* FatFs does not check result of this command */
 1889              		.loc 1 527 32 discriminator 1
 1890 01f8 E31605E6 		bne	a0,zero,.L157
 527:lib/fatfs/src/tf_card.c **** 			res = RES_OK;	/* FatFs does not check result of this command */
 1891              		.loc 1 527 63 discriminator 2
 1892 01fc 8145     		li	a1,0
 1893 01fe 13056002 		li	a0,38
 1894 0202 97000000 		call	send_cmd
 1894      E7800000 
 1895              	.LVL223:
 527:lib/fatfs/src/tf_card.c **** 			res = RES_OK;	/* FatFs does not check result of this command */
 1896              		.loc 1 527 60 discriminator 2
 1897 020a E31D05E4 		bne	a0,zero,.L157
 527:lib/fatfs/src/tf_card.c **** 			res = RES_OK;	/* FatFs does not check result of this command */
 1898              		.loc 1 527 90 discriminator 3
 1899 020e 1D65     		li	a0,28672
 1900 0210 13050553 		addi	a0,a0,1328
 1901 0214 97000000 		call	wait_ready
 1901      E7800000 
 1902              	.LVL224:
 1903 021c 15BD     		j	.L182
 1904              		.cfi_endproc
 1905              	.LFE19:
 1907              		.section	.rodata.wait_ready.cst8,"aM",@progbits,8
GAS LISTING /var/folders/rt/4gvqv631095f64jvm7jfj_000000gn/T//ccRH6IFk.s 			page 52


 1908              		.align	3
 1909              	.LC0:
 1910 0000 00000000 		.word	0
 1911 0004 0040AF40 		.word	1085227008
 1912              		.section	.sbss.CardType,"aw",@nobits
 1913              		.set	.LANCHOR1,. + 0
 1916              	CardType:
 1917 0000 00       		.zero	1
 1918              		.section	.sbss.delay_timer1,"aw",@nobits
 1919              		.align	2
 1922              	delay_timer1:
 1923 0000 00000000 		.zero	4
 1924              		.section	.sbss.delay_timer2,"aw",@nobits
 1925              		.align	2
 1928              	delay_timer2:
 1929 0000 00000000 		.zero	4
 1930              		.section	.sdata.Stat,"aw"
 1931              		.set	.LANCHOR0,. + 0
 1934              	Stat:
 1935 0000 01       		.byte	1
 1936              		.text
 1937              	.Letext0:
 1938              		.file 2 "/Users/alexstrae/toolchain-gd32v-v202-osx/compiler/riscv64-unknown-elf/include/machine/_d
 1939              		.file 3 "/Users/alexstrae/toolchain-gd32v-v202-osx/compiler/riscv64-unknown-elf/include/sys/_stdin
 1940              		.file 4 "../../firmware/GD32VF103_standard_peripheral/gd32vf103.h"
 1941              		.file 5 "../../firmware/GD32VF103_standard_peripheral/Include/gd32vf103_rcu.h"
 1942              		.file 6 "../../firmware/GD32VF103_standard_peripheral/Include/gd32vf103_spi.h"
 1943              		.file 7 "/Users/alexstrae/toolchain-gd32v-v202-osx/compiler/lib/gcc/riscv64-unknown-elf/8.3.0/incl
 1944              		.file 8 "/Users/alexstrae/toolchain-gd32v-v202-osx/compiler/riscv64-unknown-elf/include/sys/_types
 1945              		.file 9 "/Users/alexstrae/toolchain-gd32v-v202-osx/compiler/riscv64-unknown-elf/include/sys/reent.
 1946              		.file 10 "/Users/alexstrae/toolchain-gd32v-v202-osx/compiler/riscv64-unknown-elf/include/sys/lock.
 1947              		.file 11 "../../firmware/GD32VF103_standard_peripheral/system_gd32vf103.h"
 1948              		.file 12 "lib/fatfs/include/ff.h"
 1949              		.file 13 "lib/fatfs/include/diskio.h"
 1950              		.file 14 "../../firmware/GD32VF103_standard_peripheral/Include/gd32vf103_gpio.h"
 1951              		.file 15 "lib/systick/include/systick.h"
 1952              		.file 16 "lib/fatfs/include/tf_delay.h"
 1953              		.file 17 "../../firmware/RISCV/drivers/n200_func.h"
GAS LISTING /var/folders/rt/4gvqv631095f64jvm7jfj_000000gn/T//ccRH6IFk.s 			page 53

