GAS LISTING /var/folders/rt/4gvqv631095f64jvm7jfj_000000gn/T//ccfSd9Wn.s 			page 1


   1              		.file	"tf_delay.c"
   2              		.option nopic
   3              		.attribute arch, "rv32i2p0_m2p0_a2p0_c2p0"
   4              		.attribute unaligned_access, 0
   5              		.attribute stack_align, 16
   6              		.text
   7              	.Ltext0:
   8              		.cfi_sections	.debug_frame
   9              		.section	.text.tf_start_timer,"ax",@progbits
  10              		.align	1
  11              		.globl	tf_start_timer
  13              	tf_start_timer:
  14              	.LFB2:
  15              		.file 1 "lib/fatfs/src/tf_delay.c"
   1:lib/fatfs/src/tf_delay.c **** #include "systick.h"
   2:lib/fatfs/src/tf_delay.c **** #include "gd32vf103.h"
   3:lib/fatfs/src/tf_delay.c **** 
   4:lib/fatfs/src/tf_delay.c **** 
   5:lib/fatfs/src/tf_delay.c **** volatile uint64_t tf_current_time = 0;
   6:lib/fatfs/src/tf_delay.c **** volatile uint64_t tf_delay_until = 0;
   7:lib/fatfs/src/tf_delay.c **** 
   8:lib/fatfs/src/tf_delay.c **** void tf_start_timer(int32_t millis){
  16              		.loc 1 8 36
  17              		.cfi_startproc
  18              	.LVL0:
   9:lib/fatfs/src/tf_delay.c ****     tf_current_time = get_timer_value();
  19              		.loc 1 9 5
   8:lib/fatfs/src/tf_delay.c ****     tf_current_time = get_timer_value();
  20              		.loc 1 8 36 is_stmt 0
  21 0000 4111     		addi	sp,sp,-16
  22              	.LCFI0:
  23              		.cfi_def_cfa_offset 16
  24 0002 22C4     		sw	s0,8(sp)
  25 0004 06C6     		sw	ra,12(sp)
  26              		.cfi_offset 8, -8
  27              		.cfi_offset 1, -4
   8:lib/fatfs/src/tf_delay.c ****     tf_current_time = get_timer_value();
  28              		.loc 1 8 36
  29 0006 2A84     		mv	s0,a0
  30              		.loc 1 9 23
  31 0008 97000000 		call	get_timer_value
  31      E7800000 
  32              	.LVL1:
  33              		.loc 1 9 21
  34 0010 B7070000 		lui	a5,%hi(.LANCHOR0)
  35 0014 93870700 		addi	a5,a5,%lo(.LANCHOR0)
  36 0018 88C3     		sw	a0,0(a5)
  37 001a CCC3     		sw	a1,4(a5)
  10:lib/fatfs/src/tf_delay.c ****     tf_delay_until = tf_current_time + ((SystemCoreClock/4000)*millis);
  38              		.loc 1 10 5 is_stmt 1
  39              		.loc 1 10 38 is_stmt 0
  40 001c 03A80700 		lw	a6,0(a5)
  41 0020 83A84700 		lw	a7,4(a5)
  42              		.loc 1 10 57
  43 0024 B7070000 		lui	a5,%hi(SystemCoreClock)
  44 0028 03A50700 		lw	a0,%lo(SystemCoreClock)(a5)
  45 002c 8567     		li	a5,4096
GAS LISTING /var/folders/rt/4gvqv631095f64jvm7jfj_000000gn/T//ccfSd9Wn.s 			page 2


  46 002e 938707FA 		addi	a5,a5,-96
  47 0032 3355F502 		divu	a0,a0,a5
  48              		.loc 1 10 20
  49 0036 B7060000 		lui	a3,%hi(.LANCHOR1)
  11:lib/fatfs/src/tf_delay.c **** }
  50              		.loc 1 11 1
  51 003a B240     		lw	ra,12(sp)
  52              		.cfi_restore 1
  10:lib/fatfs/src/tf_delay.c ****     tf_delay_until = tf_current_time + ((SystemCoreClock/4000)*millis);
  53              		.loc 1 10 63
  54 003c 33058502 		mul	a0,a0,s0
  55              		.loc 1 11 1
  56 0040 2244     		lw	s0,8(sp)
  57              		.cfi_restore 8
  58              	.LVL2:
  10:lib/fatfs/src/tf_delay.c ****     tf_delay_until = tf_current_time + ((SystemCoreClock/4000)*millis);
  59              		.loc 1 10 38
  60 0042 33060501 		add	a2,a0,a6
  61 0046 3335A600 		sltu	a0,a2,a0
  10:lib/fatfs/src/tf_delay.c ****     tf_delay_until = tf_current_time + ((SystemCoreClock/4000)*millis);
  62              		.loc 1 10 20
  63 004a 23A0C600 		sw	a2,%lo(.LANCHOR1)(a3)
  10:lib/fatfs/src/tf_delay.c ****     tf_delay_until = tf_current_time + ((SystemCoreClock/4000)*millis);
  64              		.loc 1 10 38
  65 004e B3071501 		add	a5,a0,a7
  10:lib/fatfs/src/tf_delay.c ****     tf_delay_until = tf_current_time + ((SystemCoreClock/4000)*millis);
  66              		.loc 1 10 20
  67 0052 23A2F600 		sw	a5,%lo(.LANCHOR1+4)(a3)
  68              		.loc 1 11 1
  69 0056 4101     		addi	sp,sp,16
  70              	.LCFI1:
  71              		.cfi_def_cfa_offset 0
  72 0058 8280     		jr	ra
  73              		.cfi_endproc
  74              	.LFE2:
  76              		.section	.text.tf_timer_done,"ax",@progbits
  77              		.align	1
  78              		.globl	tf_timer_done
  80              	tf_timer_done:
  81              	.LFB3:
  12:lib/fatfs/src/tf_delay.c **** uint32_t tf_timer_done(void){
  82              		.loc 1 12 29 is_stmt 1
  83              		.cfi_startproc
  13:lib/fatfs/src/tf_delay.c ****     
  14:lib/fatfs/src/tf_delay.c ****     tf_current_time = get_timer_value();
  84              		.loc 1 14 5
  12:lib/fatfs/src/tf_delay.c **** uint32_t tf_timer_done(void){
  85              		.loc 1 12 29 is_stmt 0
  86 0000 4111     		addi	sp,sp,-16
  87              	.LCFI2:
  88              		.cfi_def_cfa_offset 16
  89 0002 06C6     		sw	ra,12(sp)
  90              		.cfi_offset 1, -4
  91              		.loc 1 14 23
  92 0004 97000000 		call	get_timer_value
  92      E7800000 
  93              	.LVL3:
GAS LISTING /var/folders/rt/4gvqv631095f64jvm7jfj_000000gn/T//ccfSd9Wn.s 			page 3


  94              		.loc 1 14 21
  95 000c B7070000 		lui	a5,%hi(.LANCHOR0)
  96 0010 93870700 		addi	a5,a5,%lo(.LANCHOR0)
  97 0014 88C3     		sw	a0,0(a5)
  98 0016 CCC3     		sw	a1,4(a5)
  15:lib/fatfs/src/tf_delay.c ****     //if(tf_delay_start > tf_delay_until) return tf_delay_start > current_time && current_time > tf
  16:lib/fatfs/src/tf_delay.c ****     if(tf_current_time > tf_delay_until) return 0;   //No overflow
  99              		.loc 1 16 5 is_stmt 1
 100              		.loc 1 16 24 is_stmt 0
 101 0018 B7060000 		lui	a3,%hi(.LANCHOR1)
 102 001c 9843     		lw	a4,0(a5)
 103 001e DC43     		lw	a5,4(a5)
 104 0020 03A60600 		lw	a2,%lo(.LANCHOR1)(a3)
 105 0024 83A64600 		lw	a3,%lo(.LANCHOR1+4)(a3)
 106              		.loc 1 16 7
 107 0028 63E7F600 		bgtu	a5,a3,.L5
 108 002c 0545     		li	a0,1
 109 002e 6395D700 		bne	a5,a3,.L4
 110 0032 6373E600 		bgeu	a2,a4,.L4
 111              	.L5:
 112 0036 0145     		li	a0,0
 113              	.L4:
  17:lib/fatfs/src/tf_delay.c ****     return 1;
  18:lib/fatfs/src/tf_delay.c **** }...
 114              		.loc 1 18 1
 115 0038 B240     		lw	ra,12(sp)
 116              		.cfi_restore 1
 117 003a 4101     		addi	sp,sp,16
 118              	.LCFI3:
 119              		.cfi_def_cfa_offset 0
 120 003c 8280     		jr	ra
 121              		.cfi_endproc
 122              	.LFE3:
 124              		.globl	tf_delay_until
 125              		.globl	tf_current_time
 126              		.section	.sbss.tf_current_time,"aw",@nobits
 127              		.align	3
 128              		.set	.LANCHOR0,. + 0
 131              	tf_current_time:
 132 0000 00000000 		.zero	8
 132      00000000 
 133              		.section	.sbss.tf_delay_until,"aw",@nobits
 134              		.align	3
 135              		.set	.LANCHOR1,. + 0
 138              	tf_delay_until:
 139 0000 00000000 		.zero	8
 139      00000000 
 140              		.text
 141              	.Letext0:
 142              		.file 2 "/Users/alexstrae/toolchain-gd32v-v202-osx/compiler/riscv64-unknown-elf/include/machine/_d
 143              		.file 3 "/Users/alexstrae/toolchain-gd32v-v202-osx/compiler/riscv64-unknown-elf/include/sys/_stdin
 144              		.file 4 "../../firmware/GD32VF103_standard_peripheral/system_gd32vf103.h"
 145              		.file 5 "../../firmware/RISCV/drivers/n200_func.h"
GAS LISTING /var/folders/rt/4gvqv631095f64jvm7jfj_000000gn/T//ccfSd9Wn.s 			page 4


DEFINED SYMBOLS
                            *ABS*:0000000000000000 tf_delay.c
/var/folders/rt/4gvqv631095f64jvm7jfj_000000gn/T//ccfSd9Wn.s:13     .text.tf_start_timer:0000000000000000 tf_start_timer
/var/folders/rt/4gvqv631095f64jvm7jfj_000000gn/T//ccfSd9Wn.s:17     .text.tf_start_timer:0000000000000000 .L0 
/var/folders/rt/4gvqv631095f64jvm7jfj_000000gn/T//ccfSd9Wn.s:19     .text.tf_start_timer:0000000000000000 .L0 
/var/folders/rt/4gvqv631095f64jvm7jfj_000000gn/T//ccfSd9Wn.s:20     .text.tf_start_timer:0000000000000000 .L0 
/var/folders/rt/4gvqv631095f64jvm7jfj_000000gn/T//ccfSd9Wn.s:21     .text.tf_start_timer:0000000000000000 .L0 
/var/folders/rt/4gvqv631095f64jvm7jfj_000000gn/T//ccfSd9Wn.s:23     .text.tf_start_timer:0000000000000002 .L0 
/var/folders/rt/4gvqv631095f64jvm7jfj_000000gn/T//ccfSd9Wn.s:26     .text.tf_start_timer:0000000000000006 .L0 
/var/folders/rt/4gvqv631095f64jvm7jfj_000000gn/T//ccfSd9Wn.s:27     .text.tf_start_timer:0000000000000006 .L0 
/var/folders/rt/4gvqv631095f64jvm7jfj_000000gn/T//ccfSd9Wn.s:29     .text.tf_start_timer:0000000000000006 .L0 
/var/folders/rt/4gvqv631095f64jvm7jfj_000000gn/T//ccfSd9Wn.s:31     .text.tf_start_timer:0000000000000008 .L0 
/var/folders/rt/4gvqv631095f64jvm7jfj_000000gn/T//ccfSd9Wn.s:34     .text.tf_start_timer:0000000000000010 .L0 
/var/folders/rt/4gvqv631095f64jvm7jfj_000000gn/T//ccfSd9Wn.s:39     .text.tf_start_timer:000000000000001c .L0 
/var/folders/rt/4gvqv631095f64jvm7jfj_000000gn/T//ccfSd9Wn.s:40     .text.tf_start_timer:000000000000001c .L0 
/var/folders/rt/4gvqv631095f64jvm7jfj_000000gn/T//ccfSd9Wn.s:43     .text.tf_start_timer:0000000000000024 .L0 
/var/folders/rt/4gvqv631095f64jvm7jfj_000000gn/T//ccfSd9Wn.s:49     .text.tf_start_timer:0000000000000036 .L0 
/var/folders/rt/4gvqv631095f64jvm7jfj_000000gn/T//ccfSd9Wn.s:51     .text.tf_start_timer:000000000000003a .L0 
/var/folders/rt/4gvqv631095f64jvm7jfj_000000gn/T//ccfSd9Wn.s:52     .text.tf_start_timer:000000000000003c .L0 
/var/folders/rt/4gvqv631095f64jvm7jfj_000000gn/T//ccfSd9Wn.s:54     .text.tf_start_timer:000000000000003c .L0 
/var/folders/rt/4gvqv631095f64jvm7jfj_000000gn/T//ccfSd9Wn.s:56     .text.tf_start_timer:0000000000000040 .L0 
/var/folders/rt/4gvqv631095f64jvm7jfj_000000gn/T//ccfSd9Wn.s:57     .text.tf_start_timer:0000000000000042 .L0 
/var/folders/rt/4gvqv631095f64jvm7jfj_000000gn/T//ccfSd9Wn.s:60     .text.tf_start_timer:0000000000000042 .L0 
/var/folders/rt/4gvqv631095f64jvm7jfj_000000gn/T//ccfSd9Wn.s:63     .text.tf_start_timer:000000000000004a .L0 
/var/folders/rt/4gvqv631095f64jvm7jfj_000000gn/T//ccfSd9Wn.s:65     .text.tf_start_timer:000000000000004e .L0 
/var/folders/rt/4gvqv631095f64jvm7jfj_000000gn/T//ccfSd9Wn.s:67     .text.tf_start_timer:0000000000000052 .L0 
/var/folders/rt/4gvqv631095f64jvm7jfj_000000gn/T//ccfSd9Wn.s:69     .text.tf_start_timer:0000000000000056 .L0 
/var/folders/rt/4gvqv631095f64jvm7jfj_000000gn/T//ccfSd9Wn.s:71     .text.tf_start_timer:0000000000000058 .L0 
/var/folders/rt/4gvqv631095f64jvm7jfj_000000gn/T//ccfSd9Wn.s:73     .text.tf_start_timer:000000000000005a .L0 
/var/folders/rt/4gvqv631095f64jvm7jfj_000000gn/T//ccfSd9Wn.s:80     .text.tf_timer_done:0000000000000000 tf_timer_done
/var/folders/rt/4gvqv631095f64jvm7jfj_000000gn/T//ccfSd9Wn.s:83     .text.tf_timer_done:0000000000000000 .L0 
/var/folders/rt/4gvqv631095f64jvm7jfj_000000gn/T//ccfSd9Wn.s:84     .text.tf_timer_done:0000000000000000 .L0 
/var/folders/rt/4gvqv631095f64jvm7jfj_000000gn/T//ccfSd9Wn.s:85     .text.tf_timer_done:0000000000000000 .L0 
/var/folders/rt/4gvqv631095f64jvm7jfj_000000gn/T//ccfSd9Wn.s:86     .text.tf_timer_done:0000000000000000 .L0 
/var/folders/rt/4gvqv631095f64jvm7jfj_000000gn/T//ccfSd9Wn.s:88     .text.tf_timer_done:0000000000000002 .L0 
/var/folders/rt/4gvqv631095f64jvm7jfj_000000gn/T//ccfSd9Wn.s:90     .text.tf_timer_done:0000000000000004 .L0 
/var/folders/rt/4gvqv631095f64jvm7jfj_000000gn/T//ccfSd9Wn.s:92     .text.tf_timer_done:0000000000000004 .L0 
/var/folders/rt/4gvqv631095f64jvm7jfj_000000gn/T//ccfSd9Wn.s:95     .text.tf_timer_done:000000000000000c .L0 
/var/folders/rt/4gvqv631095f64jvm7jfj_000000gn/T//ccfSd9Wn.s:100    .text.tf_timer_done:0000000000000018 .L0 
/var/folders/rt/4gvqv631095f64jvm7jfj_000000gn/T//ccfSd9Wn.s:101    .text.tf_timer_done:0000000000000018 .L0 
/var/folders/rt/4gvqv631095f64jvm7jfj_000000gn/T//ccfSd9Wn.s:107    .text.tf_timer_done:0000000000000028 .L0 
/var/folders/rt/4gvqv631095f64jvm7jfj_000000gn/T//ccfSd9Wn.s:115    .text.tf_timer_done:0000000000000038 .L0 
/var/folders/rt/4gvqv631095f64jvm7jfj_000000gn/T//ccfSd9Wn.s:116    .text.tf_timer_done:000000000000003a .L0 
/var/folders/rt/4gvqv631095f64jvm7jfj_000000gn/T//ccfSd9Wn.s:119    .text.tf_timer_done:000000000000003c .L0 
/var/folders/rt/4gvqv631095f64jvm7jfj_000000gn/T//ccfSd9Wn.s:121    .text.tf_timer_done:000000000000003e .L0 
/var/folders/rt/4gvqv631095f64jvm7jfj_000000gn/T//ccfSd9Wn.s:138    .sbss.tf_delay_until:0000000000000000 tf_delay_until
/var/folders/rt/4gvqv631095f64jvm7jfj_000000gn/T//ccfSd9Wn.s:131    .sbss.tf_current_time:0000000000000000 tf_current_time
/var/folders/rt/4gvqv631095f64jvm7jfj_000000gn/T//ccfSd9Wn.s:128    .sbss.tf_current_time:0000000000000000 .LANCHOR0
/var/folders/rt/4gvqv631095f64jvm7jfj_000000gn/T//ccfSd9Wn.s:135    .sbss.tf_delay_until:0000000000000000 .LANCHOR1
/var/folders/rt/4gvqv631095f64jvm7jfj_000000gn/T//ccfSd9Wn.s:76     .text.tf_start_timer:000000000000005a .L0 
/var/folders/rt/4gvqv631095f64jvm7jfj_000000gn/T//ccfSd9Wn.s:126    .text.tf_timer_done:000000000000003e .L0 
                     .debug_frame:0000000000000000 .L0 
/var/folders/rt/4gvqv631095f64jvm7jfj_000000gn/T//ccfSd9Wn.s:111    .text.tf_timer_done:0000000000000036 .L5
/var/folders/rt/4gvqv631095f64jvm7jfj_000000gn/T//ccfSd9Wn.s:113    .text.tf_timer_done:0000000000000038 .L4
/var/folders/rt/4gvqv631095f64jvm7jfj_000000gn/T//ccfSd9Wn.s:333    .debug_abbrev:0000000000000000 .Ldebug_abbrev0
/var/folders/rt/4gvqv631095f64jvm7jfj_000000gn/T//ccfSd9Wn.s:654    .debug_str:00000000000000dd .LASF21
/var/folders/rt/4gvqv631095f64jvm7jfj_000000gn/T//ccfSd9Wn.s:674    .debug_str:000000000000020a .LASF22
GAS LISTING /var/folders/rt/4gvqv631095f64jvm7jfj_000000gn/T//ccfSd9Wn.s 			page 5


/var/folders/rt/4gvqv631095f64jvm7jfj_000000gn/T//ccfSd9Wn.s:656    .debug_str:0000000000000165 .LASF23
/var/folders/rt/4gvqv631095f64jvm7jfj_000000gn/T//ccfSd9Wn.s:610    .debug_ranges:0000000000000000 .Ldebug_ranges0
/var/folders/rt/4gvqv631095f64jvm7jfj_000000gn/T//ccfSd9Wn.s:618    .debug_line:0000000000000000 .Ldebug_line0
/var/folders/rt/4gvqv631095f64jvm7jfj_000000gn/T//ccfSd9Wn.s:660    .debug_str:00000000000001bb .LASF0
/var/folders/rt/4gvqv631095f64jvm7jfj_000000gn/T//ccfSd9Wn.s:630    .debug_str:000000000000004f .LASF4
/var/folders/rt/4gvqv631095f64jvm7jfj_000000gn/T//ccfSd9Wn.s:640    .debug_str:0000000000000088 .LASF1
/var/folders/rt/4gvqv631095f64jvm7jfj_000000gn/T//ccfSd9Wn.s:668    .debug_str:00000000000001ed .LASF2
/var/folders/rt/4gvqv631095f64jvm7jfj_000000gn/T//ccfSd9Wn.s:658    .debug_str:00000000000001a8 .LASF3
/var/folders/rt/4gvqv631095f64jvm7jfj_000000gn/T//ccfSd9Wn.s:662    .debug_str:00000000000001c7 .LASF5
/var/folders/rt/4gvqv631095f64jvm7jfj_000000gn/T//ccfSd9Wn.s:652    .debug_str:00000000000000d4 .LASF6
/var/folders/rt/4gvqv631095f64jvm7jfj_000000gn/T//ccfSd9Wn.s:624    .debug_str:000000000000001b .LASF7
/var/folders/rt/4gvqv631095f64jvm7jfj_000000gn/T//ccfSd9Wn.s:626    .debug_str:0000000000000026 .LASF8
/var/folders/rt/4gvqv631095f64jvm7jfj_000000gn/T//ccfSd9Wn.s:620    .debug_str:0000000000000000 .LASF9
/var/folders/rt/4gvqv631095f64jvm7jfj_000000gn/T//ccfSd9Wn.s:672    .debug_str:00000000000001ff .LASF10
/var/folders/rt/4gvqv631095f64jvm7jfj_000000gn/T//ccfSd9Wn.s:628    .debug_str:0000000000000038 .LASF11
/var/folders/rt/4gvqv631095f64jvm7jfj_000000gn/T//ccfSd9Wn.s:622    .debug_str:000000000000000e .LASF12
/var/folders/rt/4gvqv631095f64jvm7jfj_000000gn/T//ccfSd9Wn.s:638    .debug_str:0000000000000080 .LASF13
/var/folders/rt/4gvqv631095f64jvm7jfj_000000gn/T//ccfSd9Wn.s:670    .debug_str:00000000000001f7 .LASF14
/var/folders/rt/4gvqv631095f64jvm7jfj_000000gn/T//ccfSd9Wn.s:646    .debug_str:00000000000000b4 .LASF15
/var/folders/rt/4gvqv631095f64jvm7jfj_000000gn/T//ccfSd9Wn.s:632    .debug_str:0000000000000059 .LASF16
/var/folders/rt/4gvqv631095f64jvm7jfj_000000gn/T//ccfSd9Wn.s:648    .debug_str:00000000000000bd .LASF18
/var/folders/rt/4gvqv631095f64jvm7jfj_000000gn/T//ccfSd9Wn.s:666    .debug_str:00000000000001e1 .LASF17
/var/folders/rt/4gvqv631095f64jvm7jfj_000000gn/T//ccfSd9Wn.s:634    .debug_str:0000000000000062 .LASF19
/var/folders/rt/4gvqv631095f64jvm7jfj_000000gn/T//ccfSd9Wn.s:642    .debug_str:0000000000000096 .LASF20
/var/folders/rt/4gvqv631095f64jvm7jfj_000000gn/T//ccfSd9Wn.s:636    .debug_str:0000000000000072 .LASF24
/var/folders/rt/4gvqv631095f64jvm7jfj_000000gn/T//ccfSd9Wn.s:81     .text.tf_timer_done:0000000000000000 .LFB3
/var/folders/rt/4gvqv631095f64jvm7jfj_000000gn/T//ccfSd9Wn.s:122    .text.tf_timer_done:000000000000003e .LFE3
/var/folders/rt/4gvqv631095f64jvm7jfj_000000gn/T//ccfSd9Wn.s:541    .debug_loc:0000000000000000 .LLST2
/var/folders/rt/4gvqv631095f64jvm7jfj_000000gn/T//ccfSd9Wn.s:93     .text.tf_timer_done:000000000000000c .LVL3
/var/folders/rt/4gvqv631095f64jvm7jfj_000000gn/T//ccfSd9Wn.s:644    .debug_str:00000000000000a5 .LASF25
/var/folders/rt/4gvqv631095f64jvm7jfj_000000gn/T//ccfSd9Wn.s:14     .text.tf_start_timer:0000000000000000 .LFB2
/var/folders/rt/4gvqv631095f64jvm7jfj_000000gn/T//ccfSd9Wn.s:74     .text.tf_start_timer:000000000000005a .LFE2
/var/folders/rt/4gvqv631095f64jvm7jfj_000000gn/T//ccfSd9Wn.s:559    .debug_loc:000000000000002c .LLST0
/var/folders/rt/4gvqv631095f64jvm7jfj_000000gn/T//ccfSd9Wn.s:650    .debug_str:00000000000000cd .LASF26
/var/folders/rt/4gvqv631095f64jvm7jfj_000000gn/T//ccfSd9Wn.s:577    .debug_loc:0000000000000058 .LLST1
/var/folders/rt/4gvqv631095f64jvm7jfj_000000gn/T//ccfSd9Wn.s:32     .text.tf_start_timer:0000000000000010 .LVL1
/var/folders/rt/4gvqv631095f64jvm7jfj_000000gn/T//ccfSd9Wn.s:664    .debug_str:00000000000001d1 .LASF27
/var/folders/rt/4gvqv631095f64jvm7jfj_000000gn/T//ccfSd9Wn.s:87     .text.tf_timer_done:0000000000000002 .LCFI2
/var/folders/rt/4gvqv631095f64jvm7jfj_000000gn/T//ccfSd9Wn.s:118    .text.tf_timer_done:000000000000003c .LCFI3
/var/folders/rt/4gvqv631095f64jvm7jfj_000000gn/T//ccfSd9Wn.s:22     .text.tf_start_timer:0000000000000002 .LCFI0
/var/folders/rt/4gvqv631095f64jvm7jfj_000000gn/T//ccfSd9Wn.s:70     .text.tf_start_timer:0000000000000058 .LCFI1
/var/folders/rt/4gvqv631095f64jvm7jfj_000000gn/T//ccfSd9Wn.s:18     .text.tf_start_timer:0000000000000000 .LVL0
/var/folders/rt/4gvqv631095f64jvm7jfj_000000gn/T//ccfSd9Wn.s:58     .text.tf_start_timer:0000000000000042 .LVL2
/var/folders/rt/4gvqv631095f64jvm7jfj_000000gn/T//ccfSd9Wn.s:147    .debug_info:0000000000000000 .Ldebug_info0

UNDEFINED SYMBOLS
get_timer_value
SystemCoreClock
