GAS LISTING /var/folders/rt/4gvqv631095f64jvm7jfj_000000gn/T//ccMITFEw.s 			page 1


   1              		.file	"usart.c"
   2              		.option nopic
   3              		.attribute arch, "rv32i2p0_m2p0_a2p0_c2p0"
   4              		.attribute unaligned_access, 0
   5              		.attribute stack_align, 16
   6              		.text
   7              	.Ltext0:
   8              		.cfi_sections	.debug_frame
   9              		.section	.text.wifiIsrHandler,"ax",@progbits
  10              		.align	1
  11              		.globl	wifiIsrHandler
  13              	wifiIsrHandler:
  14              	.LFB2:
  15              		.file 1 "usart.c"
   1:usart.c       **** #include "gd32vf103.h"
   2:usart.c       **** #include "usart.h"
   3:usart.c       **** #include "eclicw.h"
   4:usart.c       **** #include "drivers.h"
   5:usart.c       **** #include "lcd.h"
   6:usart.c       **** 
   7:usart.c       **** int txr = 0, txw = 0, txq[256] = {0}; // 256 Byte wr queue
   8:usart.c       **** char buf[100];
   9:usart.c       **** int i = 0;
  10:usart.c       **** 
  11:usart.c       **** void wifiIsrHandler(void)
  12:usart.c       **** {
  16              		.loc 1 12 1
  17              		.cfi_startproc
  13:usart.c       ****   if (usart_interrupt_flag_get(USART0, USART_INT_FLAG_TBE))
  18              		.loc 1 13 3
  12:usart.c       ****   if (usart_interrupt_flag_get(USART0, USART_INT_FLAG_TBE))
  19              		.loc 1 12 1 is_stmt 0
  20 0000 4111     		addi	sp,sp,-16
  21              	.LCFI0:
  22              		.cfi_def_cfa_offset 16
  23 0002 26C2     		sw	s1,4(sp)
  24              		.loc 1 13 7
  25 0004 B7050700 		li	a1,458752
  26              		.cfi_offset 9, -12
  27 0008 B7440140 		li	s1,1073823744
  28 000c 93857530 		addi	a1,a1,775
  29 0010 13850480 		addi	a0,s1,-2048
  12:usart.c       ****   if (usart_interrupt_flag_get(USART0, USART_INT_FLAG_TBE))
  30              		.loc 1 12 1
  31 0014 06C6     		sw	ra,12(sp)
  32 0016 22C4     		sw	s0,8(sp)
  33              		.cfi_offset 1, -4
  34              		.cfi_offset 8, -8
  35              		.loc 1 13 7
  36 0018 97000000 		call	usart_interrupt_flag_get
  36      E7800000 
  37              	.LVL0:
  38              		.loc 1 13 6
  39 0020 31C9     		beq	a0,zero,.L2
  14:usart.c       ****   {
  15:usart.c       ****     if (txr != txw)
  40              		.loc 1 15 5 is_stmt 1
GAS LISTING /var/folders/rt/4gvqv631095f64jvm7jfj_000000gn/T//ccMITFEw.s 			page 2


  41              		.loc 1 15 13 is_stmt 0
  42 0022 37040000 		lui	s0,%hi(.LANCHOR0)
  43 0026 13040400 		addi	s0,s0,%lo(.LANCHOR0)
  44              		.loc 1 15 8
  45 002a B7070000 		lui	a5,%hi(.LANCHOR1)
  46 002e 1840     		lw	a4,0(s0)
  47 0030 83A70700 		lw	a5,%lo(.LANCHOR1)(a5)
  48 0034 6302F70E 		beq	a4,a5,.L3
  16:usart.c       ****     {            
  17:usart.c       ****       l88mem(3, 9);                              // ...no! Device redy?
  49              		.loc 1 17 7 is_stmt 1
  50 0038 A545     		li	a1,9
  51 003a 0D45     		li	a0,3
  52 003c 97000000 		call	l88mem
  52      E7800000 
  53              	.LVL1:
  18:usart.c       ****       usart_data_transmit(USART0, txq[txr++]); //        Yes Write!
  54              		.loc 1 18 7
  55              		.loc 1 18 42 is_stmt 0
  56 0044 1C40     		lw	a5,0(s0)
  57              		.loc 1 18 7
  58 0046 13850480 		addi	a0,s1,-2048
  59              		.loc 1 18 42
  60 004a 13871700 		addi	a4,a5,1
  61 004e 18C0     		sw	a4,0(s0)
  62              		.loc 1 18 38
  63 0050 13972700 		slli	a4,a5,2
  64 0054 B7070000 		lui	a5,%hi(.LANCHOR2)
  65 0058 93870700 		addi	a5,a5,%lo(.LANCHOR2)
  66 005c BA97     		add	a5,a5,a4
  67              		.loc 1 18 7
  68 005e 8C43     		lw	a1,0(a5)
  69 0060 97000000 		call	usart_data_transmit
  69      E7800000 
  70              	.LVL2:
  19:usart.c       ****       txr %= 256;                              //            wrap around.
  71              		.loc 1 19 7 is_stmt 1
  72              		.loc 1 19 11 is_stmt 0
  73 0068 1C40     		lw	a5,0(s0)
  74 006a 13070010 		li	a4,256
  75 006e B3E7E702 		rem	a5,a5,a4
  76 0072 1CC0     		sw	a5,0(s0)
  77              	.L2:
  20:usart.c       ****     }
  21:usart.c       ****     else
  22:usart.c       ****       usart_interrupt_disable(USART0, USART_INT_TBE);
  23:usart.c       ****   }
  24:usart.c       **** 
  25:usart.c       ****   if (usart_interrupt_flag_get(USART0, USART_INT_FLAG_RBNE))
  78              		.loc 1 25 3 is_stmt 1
  79              		.loc 1 25 7 is_stmt 0
  80 0074 B7050500 		li	a1,327680
  81 0078 37440140 		li	s0,1073823744
  82 007c 93855530 		addi	a1,a1,773
  83 0080 13050480 		addi	a0,s0,-2048
  84 0084 97000000 		call	usart_interrupt_flag_get
  84      E7800000 
GAS LISTING /var/folders/rt/4gvqv631095f64jvm7jfj_000000gn/T//ccMITFEw.s 			page 3


  85              	.LVL3:
  86              		.loc 1 25 6
  87 008c 49C1     		beq	a0,zero,.L1
  88              	.LBB7:
  89              	.LBB8:
  26:usart.c       ****   {
  27:usart.c       ****     l88mem(4, 10);
  90              		.loc 1 27 5 is_stmt 1
  91 008e A945     		li	a1,10
  92 0090 1145     		li	a0,4
  93 0092 97000000 		call	l88mem
  93      E7800000 
  94              	.LVL4:
  28:usart.c       ****  
  29:usart.c       ****       char c = usart_data_receive(USART0);
  95              		.loc 1 29 7
  96              		.loc 1 29 16 is_stmt 0
  97 009a 13050480 		addi	a0,s0,-2048
  30:usart.c       **** 
  31:usart.c       ****       if (i < sizeof(buf) - 1)
  98              		.loc 1 31 13
  99 009e 37040000 		lui	s0,%hi(.LANCHOR3)
  29:usart.c       **** 
 100              		.loc 1 29 16
 101 00a2 97000000 		call	usart_data_receive
 101      E7800000 
 102              	.LVL5:
 103              		.loc 1 31 13
 104 00aa 93040400 		addi	s1,s0,%lo(.LANCHOR3)
 105 00ae 9840     		lw	a4,0(s1)
 106              		.loc 1 31 10
 107 00b0 93072006 		li	a5,98
  29:usart.c       **** 
 108              		.loc 1 29 12
 109 00b4 1375F50F 		andi	a0,a0,0xff
 110              	.LVL6:
 111              		.loc 1 31 7 is_stmt 1
 112 00b8 13040400 		addi	s0,s0,%lo(.LANCHOR3)
 113              		.loc 1 31 10 is_stmt 0
 114 00bc 63E7E706 		bgtu	a4,a5,.L6
  32:usart.c       ****       {
  33:usart.c       ****         buf[i++] = c;
 115              		.loc 1 33 9 is_stmt 1
 116              		.loc 1 33 14 is_stmt 0
 117 00c0 93071700 		addi	a5,a4,1
 118 00c4 1CC0     		sw	a5,0(s0)
 119              		.loc 1 33 18
 120 00c6 B7070000 		lui	a5,%hi(buf)
 121 00ca 93870700 		addi	a5,a5,%lo(buf)
 122 00ce BA97     		add	a5,a5,a4
 123 00d0 2380A700 		sb	a0,0(a5)
  34:usart.c       ****       }
  35:usart.c       **** 
  36:usart.c       ****       if (c == '\n') // slut på frame
 124              		.loc 1 36 7 is_stmt 1
 125              		.loc 1 36 10 is_stmt 0
 126 00d4 A947     		li	a5,10
GAS LISTING /var/folders/rt/4gvqv631095f64jvm7jfj_000000gn/T//ccMITFEw.s 			page 4


 127 00d6 631CF502 		bne	a0,a5,.L1
 128              	.L8:
  37:usart.c       ****       {
  38:usart.c       ****         buf[i - 1] = '\0';
 129              		.loc 1 38 9 is_stmt 1
 130              		.loc 1 38 20 is_stmt 0
 131 00da 1840     		lw	a4,0(s0)
 132 00dc B7040000 		lui	s1,%hi(buf)
 133 00e0 93870400 		addi	a5,s1,%lo(buf)
 134 00e4 BA97     		add	a5,a5,a4
  39:usart.c       ****         LCD_Clear(BLACK);
 135              		.loc 1 39 9
 136 00e6 0145     		li	a0,0
 137              	.LVL7:
  38:usart.c       ****         LCD_Clear(BLACK);
 138              		.loc 1 38 20
 139 00e8 A38F07FE 		sb	zero,-1(a5)
 140              		.loc 1 39 9 is_stmt 1
 141 00ec 97000000 		call	LCD_Clear
 141      E7800000 
 142              	.LVL8:
  40:usart.c       ****         LCD_ShowStr(0, 0, buf, WHITE, TRANSPARENT);
 143              		.loc 1 40 9
 144 00f4 C166     		li	a3,65536
 145 00f6 0547     		li	a4,1
 146 00f8 FD16     		addi	a3,a3,-1
 147 00fa 13860400 		addi	a2,s1,%lo(buf)
 148 00fe 8145     		li	a1,0
 149 0100 0145     		li	a0,0
 150 0102 97000000 		call	LCD_ShowStr
 150      E7800000 
 151              	.LVL9:
  41:usart.c       **** 
  42:usart.c       ****         i = 0;
 152              		.loc 1 42 9
 153              		.loc 1 42 11 is_stmt 0
 154 010a 23200400 		sw	zero,0(s0)
 155              	.L1:
 156              	.LBE8:
 157              	.LBE7:
  43:usart.c       ****       }
  44:usart.c       ****       else if (i == sizeof(buf))
  45:usart.c       ****       {
  46:usart.c       ****         LCD_Clear(BLACK);
  47:usart.c       ****         LCD_ShowStr(0, 0, "TRANSMIT ERROR, RESETTING", WHITE, TRANSPARENT);
  48:usart.c       ****         i = 0;
  49:usart.c       ****       }
  50:usart.c       ****   }
  51:usart.c       **** }
 158              		.loc 1 51 1
 159 010e B240     		lw	ra,12(sp)
 160              		.cfi_remember_state
 161              		.cfi_restore 1
 162 0110 2244     		lw	s0,8(sp)
 163              		.cfi_restore 8
 164 0112 9244     		lw	s1,4(sp)
 165              		.cfi_restore 9
GAS LISTING /var/folders/rt/4gvqv631095f64jvm7jfj_000000gn/T//ccMITFEw.s 			page 5


 166 0114 4101     		addi	sp,sp,16
 167              	.LCFI1:
 168              		.cfi_def_cfa_offset 0
 169 0116 8280     		jr	ra
 170              	.L3:
 171              	.LCFI2:
 172              		.cfi_restore_state
  22:usart.c       ****   }
 173              		.loc 1 22 7 is_stmt 1
 174 0118 93057030 		li	a1,775
 175 011c 13850480 		addi	a0,s1,-2048
 176 0120 97000000 		call	usart_interrupt_disable
 176      E7800000 
 177              	.LVL10:
 178 0128 B1B7     		j	.L2
 179              	.LVL11:
 180              	.L6:
 181              	.LBB10:
 182              	.LBB9:
  36:usart.c       ****       {
 183              		.loc 1 36 7
  36:usart.c       ****       {
 184              		.loc 1 36 10 is_stmt 0
 185 012a A947     		li	a5,10
 186 012c E307F5FA 		beq	a0,a5,.L8
  44:usart.c       ****       {
 187              		.loc 1 44 12 is_stmt 1
  44:usart.c       ****       {
 188              		.loc 1 44 15 is_stmt 0
 189 0130 93074006 		li	a5,100
 190 0134 E31DF7FC 		bne	a4,a5,.L1
  46:usart.c       ****         LCD_ShowStr(0, 0, "TRANSMIT ERROR, RESETTING", WHITE, TRANSPARENT);
 191              		.loc 1 46 9 is_stmt 1
 192 0138 0145     		li	a0,0
 193              	.LVL12:
 194 013a 97000000 		call	LCD_Clear
 194      E7800000 
 195              	.LVL13:
  47:usart.c       ****         i = 0;
 196              		.loc 1 47 9
 197 0142 C166     		li	a3,65536
 198 0144 37060000 		lui	a2,%hi(.LC0)
 199 0148 0547     		li	a4,1
 200 014a FD16     		addi	a3,a3,-1
 201 014c 13060600 		addi	a2,a2,%lo(.LC0)
 202 0150 8145     		li	a1,0
 203 0152 0145     		li	a0,0
 204 0154 97000000 		call	LCD_ShowStr
 204      E7800000 
 205              	.LVL14:
  48:usart.c       ****       }
 206              		.loc 1 48 9
  48:usart.c       ****       }
 207              		.loc 1 48 11 is_stmt 0
 208 015c 23A00400 		sw	zero,0(s1)
 209              	.LBE9:
 210              	.LBE10:
GAS LISTING /var/folders/rt/4gvqv631095f64jvm7jfj_000000gn/T//ccMITFEw.s 			page 6


 211              		.loc 1 51 1
 212 0160 7DB7     		j	.L1
 213              		.cfi_endproc
 214              	.LFE2:
 216              		.section	.text.u0_TX_Queue,"ax",@progbits
 217              		.align	1
 218              		.globl	u0_TX_Queue
 220              	u0_TX_Queue:
 221              	.LFB3:
  52:usart.c       **** 
  53:usart.c       **** void u0_TX_Queue(void)
  54:usart.c       **** {
 222              		.loc 1 54 1 is_stmt 1
 223              		.cfi_startproc
  55:usart.c       ****   if (txr != txw)
 224              		.loc 1 55 3
  54:usart.c       ****   if (txr != txw)
 225              		.loc 1 54 1 is_stmt 0
 226 0000 4111     		addi	sp,sp,-16
 227              	.LCFI3:
 228              		.cfi_def_cfa_offset 16
 229 0002 22C4     		sw	s0,8(sp)
 230              		.cfi_offset 8, -8
 231              		.loc 1 55 11
 232 0004 37040000 		lui	s0,%hi(.LANCHOR0)
 233 0008 13040400 		addi	s0,s0,%lo(.LANCHOR0)
 234              		.loc 1 55 6
 235 000c B7070000 		lui	a5,%hi(.LANCHOR1)
 236 0010 1840     		lw	a4,0(s0)
 237 0012 83A70700 		lw	a5,%lo(.LANCHOR1)(a5)
  54:usart.c       ****   if (txr != txw)
 238              		.loc 1 54 1
 239 0016 06C6     		sw	ra,12(sp)
 240 0018 26C2     		sw	s1,4(sp)
 241              		.cfi_offset 1, -4
 242              		.cfi_offset 9, -12
 243              		.loc 1 55 6
 244 001a 6309F704 		beq	a4,a5,.L14
  56:usart.c       ****   { // Buffer empty?
  57:usart.c       ****     if (usart_flag_get(USART0, USART_FLAG_TBE))
 245              		.loc 1 57 5 is_stmt 1
 246              		.loc 1 57 9 is_stmt 0
 247 001e B7440140 		li	s1,1073823744
 248 0022 9D45     		li	a1,7
 249 0024 13850480 		addi	a0,s1,-2048
 250 0028 97000000 		call	usart_flag_get
 250      E7800000 
 251              	.LVL15:
 252              		.loc 1 57 8
 253 0030 0DC9     		beq	a0,zero,.L13
 254              	.LBB13:
 255              	.LBB14:
  58:usart.c       ****     {                                          // ...no! Device redy?
  59:usart.c       ****       usart_data_transmit(USART0, txq[txr++]); //        Yes Write!
 256              		.loc 1 59 7 is_stmt 1
 257              		.loc 1 59 42 is_stmt 0
 258 0032 1C40     		lw	a5,0(s0)
GAS LISTING /var/folders/rt/4gvqv631095f64jvm7jfj_000000gn/T//ccMITFEw.s 			page 7


 259              		.loc 1 59 7
 260 0034 13850480 		addi	a0,s1,-2048
 261              		.loc 1 59 42
 262 0038 13871700 		addi	a4,a5,1
 263 003c 18C0     		sw	a4,0(s0)
 264              		.loc 1 59 38
 265 003e 13972700 		slli	a4,a5,2
 266 0042 B7070000 		lui	a5,%hi(.LANCHOR2)
 267 0046 93870700 		addi	a5,a5,%lo(.LANCHOR2)
 268 004a BA97     		add	a5,a5,a4
 269              		.loc 1 59 7
 270 004c 8C43     		lw	a1,0(a5)
 271 004e 97000000 		call	usart_data_transmit
 271      E7800000 
 272              	.LVL16:
  60:usart.c       ****       txr %= 256;                              //            wrap around.
 273              		.loc 1 60 7 is_stmt 1
 274              		.loc 1 60 11 is_stmt 0
 275 0056 1C40     		lw	a5,0(s0)
 276 0058 13070010 		li	a4,256
 277 005c B3E7E702 		rem	a5,a5,a4
 278 0060 1CC0     		sw	a5,0(s0)
 279              	.L13:
 280              	.LBE14:
 281              	.LBE13:
  61:usart.c       ****     } //        No! Return!
  62:usart.c       ****   }
  63:usart.c       ****   else
  64:usart.c       ****     usart_interrupt_disable(USART0, USART_INT_TBE);
  65:usart.c       **** }
 282              		.loc 1 65 1
 283 0062 B240     		lw	ra,12(sp)
 284              		.cfi_remember_state
 285              		.cfi_restore 1
 286 0064 2244     		lw	s0,8(sp)
 287              		.cfi_restore 8
 288 0066 9244     		lw	s1,4(sp)
 289              		.cfi_restore 9
 290 0068 4101     		addi	sp,sp,16
 291              	.LCFI4:
 292              		.cfi_def_cfa_offset 0
 293 006a 8280     		jr	ra
 294              	.L14:
 295              	.LCFI5:
 296              		.cfi_restore_state
  64:usart.c       **** }
 297              		.loc 1 64 5 is_stmt 1
 298              		.loc 1 65 1 is_stmt 0
 299 006c 2244     		lw	s0,8(sp)
 300              		.cfi_restore 8
 301 006e B240     		lw	ra,12(sp)
 302              		.cfi_restore 1
 303 0070 9244     		lw	s1,4(sp)
 304              		.cfi_restore 9
  64:usart.c       **** }
 305              		.loc 1 64 5
 306 0072 37450140 		li	a0,1073823744
GAS LISTING /var/folders/rt/4gvqv631095f64jvm7jfj_000000gn/T//ccMITFEw.s 			page 8


 307              		.loc 1 65 1
  64:usart.c       **** }
 308              		.loc 1 64 5
 309 0076 93057030 		li	a1,775
 310 007a 13050580 		addi	a0,a0,-2048
 311              		.loc 1 65 1
 312 007e 4101     		addi	sp,sp,16
 313              	.LCFI6:
 314              		.cfi_def_cfa_offset 0
  64:usart.c       **** }
 315              		.loc 1 64 5
 316 0080 17030000 		tail	usart_interrupt_disable
 316      67000300 
 317              	.LVL17:
 318              		.cfi_endproc
 319              	.LFE3:
 321              		.section	.text.putch,"ax",@progbits
 322              		.align	1
 323              		.globl	putch
 325              	putch:
 326              	.LFB4:
  66:usart.c       **** 
  67:usart.c       **** void putch(char ch)
  68:usart.c       **** {
 327              		.loc 1 68 1 is_stmt 1
 328              		.cfi_startproc
 329              	.LVL18:
  69:usart.c       ****   while (((txw + 1) % 256) == txr)
 330              		.loc 1 69 3
  68:usart.c       ****   while (((txw + 1) % 256) == txr)
 331              		.loc 1 68 1 is_stmt 0
 332 0000 0111     		addi	sp,sp,-32
 333              	.LCFI7:
 334              		.cfi_def_cfa_offset 32
 335 0002 22CC     		sw	s0,24(sp)
 336 0004 26CA     		sw	s1,20(sp)
 337 0006 4AC8     		sw	s2,16(sp)
 338 0008 06CE     		sw	ra,28(sp)
 339              		.cfi_offset 8, -8
 340              		.cfi_offset 9, -12
 341              		.cfi_offset 18, -16
 342              		.cfi_offset 1, -4
 343              		.loc 1 69 16
 344 000a 37090000 		lui	s2,%hi(.LANCHOR1)
 345              		.loc 1 69 21
 346 000e 93040010 		li	s1,256
 347              		.loc 1 69 28
 348 0012 37040000 		lui	s0,%hi(.LANCHOR0)
 349              	.LVL19:
 350              	.L21:
 351              		.loc 1 69 16
 352 0016 13060900 		addi	a2,s2,%lo(.LANCHOR1)
 353 001a 1C42     		lw	a5,0(a2)
 354              		.loc 1 69 9
 355 001c 83260400 		lw	a3,%lo(.LANCHOR0)(s0)
 356              		.loc 1 69 16
 357 0020 13871700 		addi	a4,a5,1
GAS LISTING /var/folders/rt/4gvqv631095f64jvm7jfj_000000gn/T//ccMITFEw.s 			page 9


 358              		.loc 1 69 21
 359 0024 33679702 		rem	a4,a4,s1
 360              		.loc 1 69 9
 361 0028 630AD702 		beq	a4,a3,.L22
  70:usart.c       ****     u0_TX_Queue(); // If buffer full then spin...
  71:usart.c       ****   txq[txw++] = ch; //...If/when not then store data...
 362              		.loc 1 71 3 is_stmt 1
 363              		.loc 1 71 14 is_stmt 0
 364 002c 93962700 		slli	a3,a5,2
 365 0030 B7070000 		lui	a5,%hi(.LANCHOR2)
  72:usart.c       ****   txw %= 256;      //...and advance write index!
  73:usart.c       ****   usart_interrupt_enable(USART0, USART_INT_TBE);
  74:usart.c       **** }
 366              		.loc 1 74 1
 367 0034 6244     		lw	s0,24(sp)
 368              		.cfi_remember_state
 369              		.cfi_restore 8
  71:usart.c       ****   txw %= 256;      //...and advance write index!
 370              		.loc 1 71 14
 371 0036 93870700 		addi	a5,a5,%lo(.LANCHOR2)
 372              		.loc 1 74 1
 373 003a F240     		lw	ra,28(sp)
 374              		.cfi_restore 1
 375 003c D244     		lw	s1,20(sp)
 376              		.cfi_restore 9
 377 003e 4249     		lw	s2,16(sp)
 378              		.cfi_restore 18
  71:usart.c       ****   txw %= 256;      //...and advance write index!
 379              		.loc 1 71 14
 380 0040 B697     		add	a5,a5,a3
 381 0042 88C3     		sw	a0,0(a5)
  72:usart.c       ****   txw %= 256;      //...and advance write index!
 382              		.loc 1 72 3 is_stmt 1
  72:usart.c       ****   txw %= 256;      //...and advance write index!
 383              		.loc 1 72 7 is_stmt 0
 384 0044 18C2     		sw	a4,0(a2)
  73:usart.c       **** }
 385              		.loc 1 73 3 is_stmt 1
 386 0046 37450140 		li	a0,1073823744
 387              		.loc 1 74 1 is_stmt 0
  73:usart.c       **** }
 388              		.loc 1 73 3
 389 004a 93057030 		li	a1,775
 390 004e 13050580 		addi	a0,a0,-2048
 391              		.loc 1 74 1
 392 0052 0561     		addi	sp,sp,32
 393              	.LCFI8:
 394              		.cfi_def_cfa_offset 0
  73:usart.c       **** }
 395              		.loc 1 73 3
 396 0054 17030000 		tail	usart_interrupt_enable
 396      67000300 
 397              	.LVL20:
 398              	.L22:
 399              	.LCFI9:
 400              		.cfi_restore_state
 401 005c 2AC6     		sw	a0,12(sp)
GAS LISTING /var/folders/rt/4gvqv631095f64jvm7jfj_000000gn/T//ccMITFEw.s 			page 10


  70:usart.c       ****   txq[txw++] = ch; //...If/when not then store data...
 402              		.loc 1 70 5 is_stmt 1
 403 005e 97000000 		call	u0_TX_Queue
 403      E7800000 
 404              	.LVL21:
 405 0066 3245     		lw	a0,12(sp)
 406 0068 7DB7     		j	.L21
 407              		.cfi_endproc
 408              	.LFE4:
 410              		.section	.text.putstr,"ax",@progbits
 411              		.align	1
 412              		.globl	putstr
 414              	putstr:
 415              	.LFB5:
  75:usart.c       **** 
  76:usart.c       **** void putstr(char str[])
  77:usart.c       **** {
 416              		.loc 1 77 1
 417              		.cfi_startproc
 418              	.LVL22:
 419 0000 4111     		addi	sp,sp,-16
 420              	.LCFI10:
 421              		.cfi_def_cfa_offset 16
 422 0002 22C4     		sw	s0,8(sp)
 423 0004 06C6     		sw	ra,12(sp)
 424              		.cfi_offset 8, -8
 425              		.cfi_offset 1, -4
 426 0006 2A84     		mv	s0,a0
  78:usart.c       ****   while (*str)
 427              		.loc 1 78 3
 428              	.LVL23:
 429              	.L25:
 430              		.loc 1 78 10 is_stmt 0
 431 0008 03450400 		lbu	a0,0(s0)
 432              		.loc 1 78 9
 433 000c 09E5     		bne	a0,zero,.L26
  79:usart.c       ****     putch(*str++);
  80:usart.c       **** }
 434              		.loc 1 80 1
 435 000e B240     		lw	ra,12(sp)
 436              		.cfi_remember_state
 437              		.cfi_restore 1
 438 0010 2244     		lw	s0,8(sp)
 439              		.cfi_restore 8
 440              	.LVL24:
 441 0012 4101     		addi	sp,sp,16
 442              	.LCFI11:
 443              		.cfi_def_cfa_offset 0
 444 0014 8280     		jr	ra
 445              	.LVL25:
 446              	.L26:
 447              	.LCFI12:
 448              		.cfi_restore_state
  79:usart.c       ****     putch(*str++);
 449              		.loc 1 79 5 is_stmt 1
  79:usart.c       ****     putch(*str++);
 450              		.loc 1 79 15 is_stmt 0
GAS LISTING /var/folders/rt/4gvqv631095f64jvm7jfj_000000gn/T//ccMITFEw.s 			page 11


 451 0016 0504     		addi	s0,s0,1
 452              	.LVL26:
  79:usart.c       ****     putch(*str++);
 453              		.loc 1 79 5
 454 0018 97000000 		call	putch
 454      E7800000 
 455              	.LVL27:
 456 0020 E5B7     		j	.L25
 457              		.cfi_endproc
 458              	.LFE5:
 460              		.section	.text.u0init,"ax",@progbits
 461              		.align	1
 462              		.globl	u0init
 464              	u0init:
 465              	.LFB6:
  81:usart.c       **** 
  82:usart.c       **** void u0init(int enable)
  83:usart.c       **** {
 466              		.loc 1 83 1 is_stmt 1
 467              		.cfi_startproc
 468              	.LVL28:
  84:usart.c       ****   rcu_periph_clock_enable(RCU_GPIOA);
 469              		.loc 1 84 3
  83:usart.c       ****   rcu_periph_clock_enable(RCU_GPIOA);
 470              		.loc 1 83 1 is_stmt 0
 471 0000 4111     		addi	sp,sp,-16
 472              	.LCFI13:
 473              		.cfi_def_cfa_offset 16
 474 0002 26C2     		sw	s1,4(sp)
 475              		.cfi_offset 9, -12
 476 0004 AA84     		mv	s1,a0
 477              		.loc 1 84 3
 478 0006 13052060 		li	a0,1538
 479              	.LVL29:
  83:usart.c       ****   rcu_periph_clock_enable(RCU_GPIOA);
 480              		.loc 1 83 1
 481 000a 06C6     		sw	ra,12(sp)
 482 000c 22C4     		sw	s0,8(sp)
 483              		.cfi_offset 1, -4
 484              		.cfi_offset 8, -8
 485              		.loc 1 84 3
 486 000e 97000000 		call	rcu_periph_clock_enable
 486      E7800000 
 487              	.LVL30:
  85:usart.c       ****   gpio_init(GPIOA, GPIO_MODE_AF_PP, GPIO_OSPEED_50MHZ, GPIO_PIN_9);
 488              		.loc 1 85 3 is_stmt 1
 489 0016 37140140 		li	s0,1073811456
 490 001a 13050480 		addi	a0,s0,-2048
 491 001e 93060020 		li	a3,512
 492 0022 0D46     		li	a2,3
 493 0024 E145     		li	a1,24
 494 0026 97000000 		call	gpio_init
 494      E7800000 
 495              	.LVL31:
  86:usart.c       ****   // gpio_init(GPIOA, GPIO_MODE_IN_FLOATING, GPIO_OSPEED_50MHZ, GPIO_PIN_10); ORIGINAL
  87:usart.c       ****   gpio_init(GPIOA, GPIO_MODE_IPU, GPIO_OSPEED_50MHZ, GPIO_PIN_10);
 496              		.loc 1 87 3
GAS LISTING /var/folders/rt/4gvqv631095f64jvm7jfj_000000gn/T//ccMITFEw.s 			page 12


 497 002e 93060040 		li	a3,1024
 498 0032 0D46     		li	a2,3
 499 0034 93058004 		li	a1,72
 500 0038 13050480 		addi	a0,s0,-2048
 501 003c 97000000 		call	gpio_init
 501      E7800000 
 502              	.LVL32:
  88:usart.c       **** 
  89:usart.c       ****   rcu_periph_clock_enable(RCU_USART0);
 503              		.loc 1 89 3
 504 0044 1305E060 		li	a0,1550
  90:usart.c       ****   usart_deinit(USART0);
 505              		.loc 1 90 3 is_stmt 0
 506 0048 37440140 		li	s0,1073823744
  89:usart.c       ****   usart_deinit(USART0);
 507              		.loc 1 89 3
 508 004c 97000000 		call	rcu_periph_clock_enable
 508      E7800000 
 509              	.LVL33:
 510              		.loc 1 90 3 is_stmt 1
 511 0054 13050480 		addi	a0,s0,-2048
 512 0058 97000000 		call	usart_deinit
 512      E7800000 
 513              	.LVL34:
  91:usart.c       ****   usart_baudrate_set(USART0, 115200);
 514              		.loc 1 91 3
 515 0060 F165     		li	a1,114688
 516 0062 93850520 		addi	a1,a1,512
 517 0066 13050480 		addi	a0,s0,-2048
 518 006a 97000000 		call	usart_baudrate_set
 518      E7800000 
 519              	.LVL35:
  92:usart.c       ****   usart_parity_config(USART0, USART_PM_NONE);
 520              		.loc 1 92 3
 521 0072 8145     		li	a1,0
 522 0074 13050480 		addi	a0,s0,-2048
 523 0078 97000000 		call	usart_parity_config
 523      E7800000 
 524              	.LVL36:
  93:usart.c       ****   usart_word_length_set(USART0, USART_WL_8BIT);
 525              		.loc 1 93 3
 526 0080 8145     		li	a1,0
 527 0082 13050480 		addi	a0,s0,-2048
 528 0086 97000000 		call	usart_word_length_set
 528      E7800000 
 529              	.LVL37:
  94:usart.c       ****   usart_stop_bit_set(USART0, USART_STB_1BIT);
 530              		.loc 1 94 3
 531 008e 8145     		li	a1,0
 532 0090 13050480 		addi	a0,s0,-2048
 533 0094 97000000 		call	usart_stop_bit_set
 533      E7800000 
 534              	.LVL38:
  95:usart.c       ****   usart_hardware_flow_rts_config(USART0, USART_RTS_DISABLE);
 535              		.loc 1 95 3
 536 009c 8145     		li	a1,0
 537 009e 13050480 		addi	a0,s0,-2048
GAS LISTING /var/folders/rt/4gvqv631095f64jvm7jfj_000000gn/T//ccMITFEw.s 			page 13


 538 00a2 97000000 		call	usart_hardware_flow_rts_config
 538      E7800000 
 539              	.LVL39:
  96:usart.c       ****   usart_hardware_flow_cts_config(USART0, USART_CTS_DISABLE);
 540              		.loc 1 96 3
 541 00aa 8145     		li	a1,0
 542 00ac 13050480 		addi	a0,s0,-2048
 543 00b0 97000000 		call	usart_hardware_flow_cts_config
 543      E7800000 
 544              	.LVL40:
  97:usart.c       ****   usart_enable(USART0);
 545              		.loc 1 97 3
 546 00b8 13050480 		addi	a0,s0,-2048
 547 00bc 97000000 		call	usart_enable
 547      E7800000 
 548              	.LVL41:
  98:usart.c       ****   usart_transmit_config(USART0, USART_TRANSMIT_ENABLE);
 549              		.loc 1 98 3
 550 00c4 A145     		li	a1,8
 551 00c6 13050480 		addi	a0,s0,-2048
 552 00ca 97000000 		call	usart_transmit_config
 552      E7800000 
 553              	.LVL42:
  99:usart.c       ****   usart_receive_config(USART0, USART_RECEIVE_ENABLE);
 554              		.loc 1 99 3
 555 00d2 9145     		li	a1,4
 556 00d4 13050480 		addi	a0,s0,-2048
 557 00d8 97000000 		call	usart_receive_config
 557      E7800000 
 558              	.LVL43:
 100:usart.c       **** 
 101:usart.c       ****   if (enable)
 559              		.loc 1 101 3
 560              		.loc 1 101 6 is_stmt 0
 561 00e0 8DC8     		beq	s1,zero,.L28
 102:usart.c       ****   {
 103:usart.c       ****     usart_interrupt_enable(USART0, USART_INT_RBNE); // INTERRUPT FÖR RX
 562              		.loc 1 103 5 is_stmt 1
 563 00e2 13050480 		addi	a0,s0,-2048
 564 00e6 93055030 		li	a1,773
 565 00ea 97000000 		call	usart_interrupt_enable
 565      E7800000 
 566              	.LVL44:
 104:usart.c       ****     eclicw_enable(USART0_IRQn, 3, 1, &wifiIsrHandler);
 567              		.loc 1 104 5
 105:usart.c       ****   }
 106:usart.c       **** }...
 568              		.loc 1 106 1 is_stmt 0
 569 00f2 2244     		lw	s0,8(sp)
 570              		.cfi_remember_state
 571              		.cfi_restore 8
 572 00f4 B240     		lw	ra,12(sp)
 573              		.cfi_restore 1
 574 00f6 9244     		lw	s1,4(sp)
 575              		.cfi_restore 9
 576              	.LVL45:
 104:usart.c       ****     eclicw_enable(USART0_IRQn, 3, 1, &wifiIsrHandler);
GAS LISTING /var/folders/rt/4gvqv631095f64jvm7jfj_000000gn/T//ccMITFEw.s 			page 14


 577              		.loc 1 104 5
 578 00f8 B7060000 		lui	a3,%hi(wifiIsrHandler)
 579              		.loc 1 106 1
 104:usart.c       ****     eclicw_enable(USART0_IRQn, 3, 1, &wifiIsrHandler);
 580              		.loc 1 104 5
 581 00fc 93860600 		addi	a3,a3,%lo(wifiIsrHandler)
 582 0100 0546     		li	a2,1
 583 0102 8D45     		li	a1,3
 584 0104 13058003 		li	a0,56
 585              		.loc 1 106 1
 586 0108 4101     		addi	sp,sp,16
 587              	.LCFI14:
 588              		.cfi_def_cfa_offset 0
 104:usart.c       ****     eclicw_enable(USART0_IRQn, 3, 1, &wifiIsrHandler);
 589              		.loc 1 104 5
 590 010a 17030000 		tail	eclicw_enable
 590      67000300 
 591              	.LVL46:
 592              	.L28:
 593              	.LCFI15:
 594              		.cfi_restore_state
 595              		.loc 1 106 1
 596 0112 B240     		lw	ra,12(sp)
 597              		.cfi_restore 1
 598 0114 2244     		lw	s0,8(sp)
 599              		.cfi_restore 8
 600 0116 9244     		lw	s1,4(sp)
 601              		.cfi_restore 9
 602              	.LVL47:
 603 0118 4101     		addi	sp,sp,16
 604              	.LCFI16:
 605              		.cfi_def_cfa_offset 0
 606 011a 8280     		jr	ra
 607              		.cfi_endproc
 608              	.LFE6:
 610              		.globl	i
 611              		.comm	buf,100,4
 612              		.globl	txq
 613              		.globl	txw
 614              		.globl	txr
 615              		.section	.bss.txq,"aw",@nobits
 616              		.align	2
 617              		.set	.LANCHOR2,. + 0
 620              	txq:
 621 0000 00000000 		.zero	1024
 621      00000000 
 621      00000000 
 621      00000000 
 621      00000000 
 622              		.section	.rodata.wifiIsrHandler.str1.4,"aMS",@progbits,1
 623              		.align	2
 624              	.LC0:
 625 0000 5452414E 		.string	"TRANSMIT ERROR, RESETTING"
 625      534D4954 
 625      20455252 
 625      4F522C20 
 625      52455345 
GAS LISTING /var/folders/rt/4gvqv631095f64jvm7jfj_000000gn/T//ccMITFEw.s 			page 15


 626              		.section	.sbss.i,"aw",@nobits
 627              		.align	2
 628              		.set	.LANCHOR3,. + 0
 631              	i:
 632 0000 00000000 		.zero	4
 633              		.section	.sbss.txr,"aw",@nobits
 634              		.align	2
 635              		.set	.LANCHOR0,. + 0
 638              	txr:
 639 0000 00000000 		.zero	4
 640              		.section	.sbss.txw,"aw",@nobits
 641              		.align	2
 642              		.set	.LANCHOR1,. + 0
 645              	txw:
 646 0000 00000000 		.zero	4
 647              		.text
 648              	.Letext0:
 649              		.file 2 "/Users/alexstrae/toolchain-gd32v-v202-osx/compiler/riscv64-unknown-elf/include/machine/_d
 650              		.file 3 "/Users/alexstrae/toolchain-gd32v-v202-osx/compiler/riscv64-unknown-elf/include/sys/_stdin
 651              		.file 4 "../../firmware/GD32VF103_standard_peripheral/Include/gd32vf103_rcu.h"
 652              		.file 5 "../../firmware/GD32VF103_standard_peripheral/Include/gd32vf103_usart.h"
 653              		.file 6 "/Users/alexstrae/toolchain-gd32v-v202-osx/compiler/lib/gcc/riscv64-unknown-elf/8.3.0/incl
 654              		.file 7 "/Users/alexstrae/toolchain-gd32v-v202-osx/compiler/riscv64-unknown-elf/include/sys/_types
 655              		.file 8 "/Users/alexstrae/toolchain-gd32v-v202-osx/compiler/riscv64-unknown-elf/include/sys/reent.
 656              		.file 9 "/Users/alexstrae/toolchain-gd32v-v202-osx/compiler/riscv64-unknown-elf/include/sys/lock.h
 657              		.file 10 "../../firmware/GD32VF103_standard_peripheral/system_gd32vf103.h"
 658              		.file 11 "/Users/alexstrae/toolchain-gd32v-v202-osx/compiler/riscv64-unknown-elf/include/stdlib.h"
 659              		.file 12 "lcd.h"
 660              		.file 13 "../../firmware/GD32VF103_standard_peripheral/Include/gd32vf103_gpio.h"
 661              		.file 14 "eclicw.h"
 662              		.file 15 "drivers.h"
 663              		.file 16 "../../firmware/GD32VF103_standard_peripheral/gd32vf103.h"
GAS LISTING /var/folders/rt/4gvqv631095f64jvm7jfj_000000gn/T//ccMITFEw.s 			page 16


DEFINED SYMBOLS
                            *ABS*:0000000000000000 usart.c
/var/folders/rt/4gvqv631095f64jvm7jfj_000000gn/T//ccMITFEw.s:13     .text.wifiIsrHandler:0000000000000000 wifiIsrHandler
/var/folders/rt/4gvqv631095f64jvm7jfj_000000gn/T//ccMITFEw.s:17     .text.wifiIsrHandler:0000000000000000 .L0 
/var/folders/rt/4gvqv631095f64jvm7jfj_000000gn/T//ccMITFEw.s:18     .text.wifiIsrHandler:0000000000000000 .L0 
/var/folders/rt/4gvqv631095f64jvm7jfj_000000gn/T//ccMITFEw.s:19     .text.wifiIsrHandler:0000000000000000 .L0 
/var/folders/rt/4gvqv631095f64jvm7jfj_000000gn/T//ccMITFEw.s:20     .text.wifiIsrHandler:0000000000000000 .L0 
/var/folders/rt/4gvqv631095f64jvm7jfj_000000gn/T//ccMITFEw.s:22     .text.wifiIsrHandler:0000000000000002 .L0 
/var/folders/rt/4gvqv631095f64jvm7jfj_000000gn/T//ccMITFEw.s:25     .text.wifiIsrHandler:0000000000000004 .L0 
/var/folders/rt/4gvqv631095f64jvm7jfj_000000gn/T//ccMITFEw.s:26     .text.wifiIsrHandler:0000000000000008 .L0 
/var/folders/rt/4gvqv631095f64jvm7jfj_000000gn/T//ccMITFEw.s:31     .text.wifiIsrHandler:0000000000000014 .L0 
/var/folders/rt/4gvqv631095f64jvm7jfj_000000gn/T//ccMITFEw.s:33     .text.wifiIsrHandler:0000000000000018 .L0 
/var/folders/rt/4gvqv631095f64jvm7jfj_000000gn/T//ccMITFEw.s:34     .text.wifiIsrHandler:0000000000000018 .L0 
/var/folders/rt/4gvqv631095f64jvm7jfj_000000gn/T//ccMITFEw.s:36     .text.wifiIsrHandler:0000000000000018 .L0 
/var/folders/rt/4gvqv631095f64jvm7jfj_000000gn/T//ccMITFEw.s:39     .text.wifiIsrHandler:0000000000000020 .L0 
/var/folders/rt/4gvqv631095f64jvm7jfj_000000gn/T//ccMITFEw.s:41     .text.wifiIsrHandler:0000000000000022 .L0 
/var/folders/rt/4gvqv631095f64jvm7jfj_000000gn/T//ccMITFEw.s:42     .text.wifiIsrHandler:0000000000000022 .L0 
/var/folders/rt/4gvqv631095f64jvm7jfj_000000gn/T//ccMITFEw.s:45     .text.wifiIsrHandler:000000000000002a .L0 
/var/folders/rt/4gvqv631095f64jvm7jfj_000000gn/T//ccMITFEw.s:50     .text.wifiIsrHandler:0000000000000038 .L0 
/var/folders/rt/4gvqv631095f64jvm7jfj_000000gn/T//ccMITFEw.s:55     .text.wifiIsrHandler:0000000000000044 .L0 
/var/folders/rt/4gvqv631095f64jvm7jfj_000000gn/T//ccMITFEw.s:56     .text.wifiIsrHandler:0000000000000044 .L0 
/var/folders/rt/4gvqv631095f64jvm7jfj_000000gn/T//ccMITFEw.s:58     .text.wifiIsrHandler:0000000000000046 .L0 
/var/folders/rt/4gvqv631095f64jvm7jfj_000000gn/T//ccMITFEw.s:60     .text.wifiIsrHandler:000000000000004a .L0 
/var/folders/rt/4gvqv631095f64jvm7jfj_000000gn/T//ccMITFEw.s:63     .text.wifiIsrHandler:0000000000000050 .L0 
/var/folders/rt/4gvqv631095f64jvm7jfj_000000gn/T//ccMITFEw.s:68     .text.wifiIsrHandler:000000000000005e .L0 
/var/folders/rt/4gvqv631095f64jvm7jfj_000000gn/T//ccMITFEw.s:72     .text.wifiIsrHandler:0000000000000068 .L0 
/var/folders/rt/4gvqv631095f64jvm7jfj_000000gn/T//ccMITFEw.s:73     .text.wifiIsrHandler:0000000000000068 .L0 
/var/folders/rt/4gvqv631095f64jvm7jfj_000000gn/T//ccMITFEw.s:79     .text.wifiIsrHandler:0000000000000074 .L0 
/var/folders/rt/4gvqv631095f64jvm7jfj_000000gn/T//ccMITFEw.s:80     .text.wifiIsrHandler:0000000000000074 .L0 
/var/folders/rt/4gvqv631095f64jvm7jfj_000000gn/T//ccMITFEw.s:87     .text.wifiIsrHandler:000000000000008c .L0 
/var/folders/rt/4gvqv631095f64jvm7jfj_000000gn/T//ccMITFEw.s:91     .text.wifiIsrHandler:000000000000008e .L0 
/var/folders/rt/4gvqv631095f64jvm7jfj_000000gn/T//ccMITFEw.s:96     .text.wifiIsrHandler:000000000000009a .L0 
/var/folders/rt/4gvqv631095f64jvm7jfj_000000gn/T//ccMITFEw.s:97     .text.wifiIsrHandler:000000000000009a .L0 
/var/folders/rt/4gvqv631095f64jvm7jfj_000000gn/T//ccMITFEw.s:99     .text.wifiIsrHandler:000000000000009e .L0 
/var/folders/rt/4gvqv631095f64jvm7jfj_000000gn/T//ccMITFEw.s:101    .text.wifiIsrHandler:00000000000000a2 .L0 
/var/folders/rt/4gvqv631095f64jvm7jfj_000000gn/T//ccMITFEw.s:104    .text.wifiIsrHandler:00000000000000aa .L0 
/var/folders/rt/4gvqv631095f64jvm7jfj_000000gn/T//ccMITFEw.s:107    .text.wifiIsrHandler:00000000000000b0 .L0 
/var/folders/rt/4gvqv631095f64jvm7jfj_000000gn/T//ccMITFEw.s:109    .text.wifiIsrHandler:00000000000000b4 .L0 
/var/folders/rt/4gvqv631095f64jvm7jfj_000000gn/T//ccMITFEw.s:112    .text.wifiIsrHandler:00000000000000b8 .L0 
/var/folders/rt/4gvqv631095f64jvm7jfj_000000gn/T//ccMITFEw.s:114    .text.wifiIsrHandler:00000000000000bc .L0 
/var/folders/rt/4gvqv631095f64jvm7jfj_000000gn/T//ccMITFEw.s:116    .text.wifiIsrHandler:00000000000000c0 .L0 
/var/folders/rt/4gvqv631095f64jvm7jfj_000000gn/T//ccMITFEw.s:117    .text.wifiIsrHandler:00000000000000c0 .L0 
                            *COM*:0000000000000064 buf
/var/folders/rt/4gvqv631095f64jvm7jfj_000000gn/T//ccMITFEw.s:120    .text.wifiIsrHandler:00000000000000c6 .L0 
/var/folders/rt/4gvqv631095f64jvm7jfj_000000gn/T//ccMITFEw.s:125    .text.wifiIsrHandler:00000000000000d4 .L0 
/var/folders/rt/4gvqv631095f64jvm7jfj_000000gn/T//ccMITFEw.s:126    .text.wifiIsrHandler:00000000000000d4 .L0 
/var/folders/rt/4gvqv631095f64jvm7jfj_000000gn/T//ccMITFEw.s:130    .text.wifiIsrHandler:00000000000000da .L0 
/var/folders/rt/4gvqv631095f64jvm7jfj_000000gn/T//ccMITFEw.s:131    .text.wifiIsrHandler:00000000000000da .L0 
/var/folders/rt/4gvqv631095f64jvm7jfj_000000gn/T//ccMITFEw.s:136    .text.wifiIsrHandler:00000000000000e6 .L0 
/var/folders/rt/4gvqv631095f64jvm7jfj_000000gn/T//ccMITFEw.s:139    .text.wifiIsrHandler:00000000000000e8 .L0 
/var/folders/rt/4gvqv631095f64jvm7jfj_000000gn/T//ccMITFEw.s:141    .text.wifiIsrHandler:00000000000000ec .L0 
/var/folders/rt/4gvqv631095f64jvm7jfj_000000gn/T//ccMITFEw.s:144    .text.wifiIsrHandler:00000000000000f4 .L0 
/var/folders/rt/4gvqv631095f64jvm7jfj_000000gn/T//ccMITFEw.s:153    .text.wifiIsrHandler:000000000000010a .L0 
/var/folders/rt/4gvqv631095f64jvm7jfj_000000gn/T//ccMITFEw.s:154    .text.wifiIsrHandler:000000000000010a .L0 
/var/folders/rt/4gvqv631095f64jvm7jfj_000000gn/T//ccMITFEw.s:159    .text.wifiIsrHandler:000000000000010e .L0 
/var/folders/rt/4gvqv631095f64jvm7jfj_000000gn/T//ccMITFEw.s:160    .text.wifiIsrHandler:0000000000000110 .L0 
/var/folders/rt/4gvqv631095f64jvm7jfj_000000gn/T//ccMITFEw.s:161    .text.wifiIsrHandler:0000000000000110 .L0 
GAS LISTING /var/folders/rt/4gvqv631095f64jvm7jfj_000000gn/T//ccMITFEw.s 			page 17


/var/folders/rt/4gvqv631095f64jvm7jfj_000000gn/T//ccMITFEw.s:163    .text.wifiIsrHandler:0000000000000112 .L0 
/var/folders/rt/4gvqv631095f64jvm7jfj_000000gn/T//ccMITFEw.s:165    .text.wifiIsrHandler:0000000000000114 .L0 
/var/folders/rt/4gvqv631095f64jvm7jfj_000000gn/T//ccMITFEw.s:168    .text.wifiIsrHandler:0000000000000116 .L0 
/var/folders/rt/4gvqv631095f64jvm7jfj_000000gn/T//ccMITFEw.s:172    .text.wifiIsrHandler:0000000000000118 .L0 
/var/folders/rt/4gvqv631095f64jvm7jfj_000000gn/T//ccMITFEw.s:174    .text.wifiIsrHandler:0000000000000118 .L0 
/var/folders/rt/4gvqv631095f64jvm7jfj_000000gn/T//ccMITFEw.s:184    .text.wifiIsrHandler:000000000000012a .L0 
/var/folders/rt/4gvqv631095f64jvm7jfj_000000gn/T//ccMITFEw.s:185    .text.wifiIsrHandler:000000000000012a .L0 
/var/folders/rt/4gvqv631095f64jvm7jfj_000000gn/T//ccMITFEw.s:188    .text.wifiIsrHandler:0000000000000130 .L0 
/var/folders/rt/4gvqv631095f64jvm7jfj_000000gn/T//ccMITFEw.s:189    .text.wifiIsrHandler:0000000000000130 .L0 
/var/folders/rt/4gvqv631095f64jvm7jfj_000000gn/T//ccMITFEw.s:192    .text.wifiIsrHandler:0000000000000138 .L0 
/var/folders/rt/4gvqv631095f64jvm7jfj_000000gn/T//ccMITFEw.s:197    .text.wifiIsrHandler:0000000000000142 .L0 
/var/folders/rt/4gvqv631095f64jvm7jfj_000000gn/T//ccMITFEw.s:207    .text.wifiIsrHandler:000000000000015c .L0 
/var/folders/rt/4gvqv631095f64jvm7jfj_000000gn/T//ccMITFEw.s:208    .text.wifiIsrHandler:000000000000015c .L0 
/var/folders/rt/4gvqv631095f64jvm7jfj_000000gn/T//ccMITFEw.s:212    .text.wifiIsrHandler:0000000000000160 .L0 
/var/folders/rt/4gvqv631095f64jvm7jfj_000000gn/T//ccMITFEw.s:213    .text.wifiIsrHandler:0000000000000162 .L0 
/var/folders/rt/4gvqv631095f64jvm7jfj_000000gn/T//ccMITFEw.s:220    .text.u0_TX_Queue:0000000000000000 u0_TX_Queue
/var/folders/rt/4gvqv631095f64jvm7jfj_000000gn/T//ccMITFEw.s:223    .text.u0_TX_Queue:0000000000000000 .L0 
/var/folders/rt/4gvqv631095f64jvm7jfj_000000gn/T//ccMITFEw.s:224    .text.u0_TX_Queue:0000000000000000 .L0 
/var/folders/rt/4gvqv631095f64jvm7jfj_000000gn/T//ccMITFEw.s:225    .text.u0_TX_Queue:0000000000000000 .L0 
/var/folders/rt/4gvqv631095f64jvm7jfj_000000gn/T//ccMITFEw.s:226    .text.u0_TX_Queue:0000000000000000 .L0 
/var/folders/rt/4gvqv631095f64jvm7jfj_000000gn/T//ccMITFEw.s:228    .text.u0_TX_Queue:0000000000000002 .L0 
/var/folders/rt/4gvqv631095f64jvm7jfj_000000gn/T//ccMITFEw.s:230    .text.u0_TX_Queue:0000000000000004 .L0 
/var/folders/rt/4gvqv631095f64jvm7jfj_000000gn/T//ccMITFEw.s:232    .text.u0_TX_Queue:0000000000000004 .L0 
/var/folders/rt/4gvqv631095f64jvm7jfj_000000gn/T//ccMITFEw.s:235    .text.u0_TX_Queue:000000000000000c .L0 
/var/folders/rt/4gvqv631095f64jvm7jfj_000000gn/T//ccMITFEw.s:239    .text.u0_TX_Queue:0000000000000016 .L0 
/var/folders/rt/4gvqv631095f64jvm7jfj_000000gn/T//ccMITFEw.s:241    .text.u0_TX_Queue:000000000000001a .L0 
/var/folders/rt/4gvqv631095f64jvm7jfj_000000gn/T//ccMITFEw.s:242    .text.u0_TX_Queue:000000000000001a .L0 
/var/folders/rt/4gvqv631095f64jvm7jfj_000000gn/T//ccMITFEw.s:244    .text.u0_TX_Queue:000000000000001a .L0 
/var/folders/rt/4gvqv631095f64jvm7jfj_000000gn/T//ccMITFEw.s:246    .text.u0_TX_Queue:000000000000001e .L0 
/var/folders/rt/4gvqv631095f64jvm7jfj_000000gn/T//ccMITFEw.s:247    .text.u0_TX_Queue:000000000000001e .L0 
/var/folders/rt/4gvqv631095f64jvm7jfj_000000gn/T//ccMITFEw.s:253    .text.u0_TX_Queue:0000000000000030 .L0 
/var/folders/rt/4gvqv631095f64jvm7jfj_000000gn/T//ccMITFEw.s:257    .text.u0_TX_Queue:0000000000000032 .L0 
/var/folders/rt/4gvqv631095f64jvm7jfj_000000gn/T//ccMITFEw.s:258    .text.u0_TX_Queue:0000000000000032 .L0 
/var/folders/rt/4gvqv631095f64jvm7jfj_000000gn/T//ccMITFEw.s:260    .text.u0_TX_Queue:0000000000000034 .L0 
/var/folders/rt/4gvqv631095f64jvm7jfj_000000gn/T//ccMITFEw.s:262    .text.u0_TX_Queue:0000000000000038 .L0 
/var/folders/rt/4gvqv631095f64jvm7jfj_000000gn/T//ccMITFEw.s:265    .text.u0_TX_Queue:000000000000003e .L0 
/var/folders/rt/4gvqv631095f64jvm7jfj_000000gn/T//ccMITFEw.s:270    .text.u0_TX_Queue:000000000000004c .L0 
/var/folders/rt/4gvqv631095f64jvm7jfj_000000gn/T//ccMITFEw.s:274    .text.u0_TX_Queue:0000000000000056 .L0 
/var/folders/rt/4gvqv631095f64jvm7jfj_000000gn/T//ccMITFEw.s:275    .text.u0_TX_Queue:0000000000000056 .L0 
/var/folders/rt/4gvqv631095f64jvm7jfj_000000gn/T//ccMITFEw.s:283    .text.u0_TX_Queue:0000000000000062 .L0 
/var/folders/rt/4gvqv631095f64jvm7jfj_000000gn/T//ccMITFEw.s:284    .text.u0_TX_Queue:0000000000000064 .L0 
/var/folders/rt/4gvqv631095f64jvm7jfj_000000gn/T//ccMITFEw.s:285    .text.u0_TX_Queue:0000000000000064 .L0 
/var/folders/rt/4gvqv631095f64jvm7jfj_000000gn/T//ccMITFEw.s:287    .text.u0_TX_Queue:0000000000000066 .L0 
/var/folders/rt/4gvqv631095f64jvm7jfj_000000gn/T//ccMITFEw.s:289    .text.u0_TX_Queue:0000000000000068 .L0 
/var/folders/rt/4gvqv631095f64jvm7jfj_000000gn/T//ccMITFEw.s:292    .text.u0_TX_Queue:000000000000006a .L0 
/var/folders/rt/4gvqv631095f64jvm7jfj_000000gn/T//ccMITFEw.s:296    .text.u0_TX_Queue:000000000000006c .L0 
/var/folders/rt/4gvqv631095f64jvm7jfj_000000gn/T//ccMITFEw.s:298    .text.u0_TX_Queue:000000000000006c .L0 
/var/folders/rt/4gvqv631095f64jvm7jfj_000000gn/T//ccMITFEw.s:299    .text.u0_TX_Queue:000000000000006c .L0 
/var/folders/rt/4gvqv631095f64jvm7jfj_000000gn/T//ccMITFEw.s:300    .text.u0_TX_Queue:000000000000006e .L0 
/var/folders/rt/4gvqv631095f64jvm7jfj_000000gn/T//ccMITFEw.s:302    .text.u0_TX_Queue:0000000000000070 .L0 
/var/folders/rt/4gvqv631095f64jvm7jfj_000000gn/T//ccMITFEw.s:304    .text.u0_TX_Queue:0000000000000072 .L0 
/var/folders/rt/4gvqv631095f64jvm7jfj_000000gn/T//ccMITFEw.s:306    .text.u0_TX_Queue:0000000000000072 .L0 
/var/folders/rt/4gvqv631095f64jvm7jfj_000000gn/T//ccMITFEw.s:308    .text.u0_TX_Queue:0000000000000076 .L0 
/var/folders/rt/4gvqv631095f64jvm7jfj_000000gn/T//ccMITFEw.s:309    .text.u0_TX_Queue:0000000000000076 .L0 
/var/folders/rt/4gvqv631095f64jvm7jfj_000000gn/T//ccMITFEw.s:312    .text.u0_TX_Queue:000000000000007e .L0 
/var/folders/rt/4gvqv631095f64jvm7jfj_000000gn/T//ccMITFEw.s:314    .text.u0_TX_Queue:0000000000000080 .L0 
/var/folders/rt/4gvqv631095f64jvm7jfj_000000gn/T//ccMITFEw.s:316    .text.u0_TX_Queue:0000000000000080 .L0 
GAS LISTING /var/folders/rt/4gvqv631095f64jvm7jfj_000000gn/T//ccMITFEw.s 			page 18


/var/folders/rt/4gvqv631095f64jvm7jfj_000000gn/T//ccMITFEw.s:318    .text.u0_TX_Queue:0000000000000088 .L0 
/var/folders/rt/4gvqv631095f64jvm7jfj_000000gn/T//ccMITFEw.s:325    .text.putch:0000000000000000 putch
/var/folders/rt/4gvqv631095f64jvm7jfj_000000gn/T//ccMITFEw.s:328    .text.putch:0000000000000000 .L0 
/var/folders/rt/4gvqv631095f64jvm7jfj_000000gn/T//ccMITFEw.s:330    .text.putch:0000000000000000 .L0 
/var/folders/rt/4gvqv631095f64jvm7jfj_000000gn/T//ccMITFEw.s:331    .text.putch:0000000000000000 .L0 
/var/folders/rt/4gvqv631095f64jvm7jfj_000000gn/T//ccMITFEw.s:332    .text.putch:0000000000000000 .L0 
/var/folders/rt/4gvqv631095f64jvm7jfj_000000gn/T//ccMITFEw.s:334    .text.putch:0000000000000002 .L0 
/var/folders/rt/4gvqv631095f64jvm7jfj_000000gn/T//ccMITFEw.s:339    .text.putch:000000000000000a .L0 
/var/folders/rt/4gvqv631095f64jvm7jfj_000000gn/T//ccMITFEw.s:340    .text.putch:000000000000000a .L0 
/var/folders/rt/4gvqv631095f64jvm7jfj_000000gn/T//ccMITFEw.s:341    .text.putch:000000000000000a .L0 
/var/folders/rt/4gvqv631095f64jvm7jfj_000000gn/T//ccMITFEw.s:342    .text.putch:000000000000000a .L0 
/var/folders/rt/4gvqv631095f64jvm7jfj_000000gn/T//ccMITFEw.s:344    .text.putch:000000000000000a .L0 
/var/folders/rt/4gvqv631095f64jvm7jfj_000000gn/T//ccMITFEw.s:346    .text.putch:000000000000000e .L0 
/var/folders/rt/4gvqv631095f64jvm7jfj_000000gn/T//ccMITFEw.s:348    .text.putch:0000000000000012 .L0 
/var/folders/rt/4gvqv631095f64jvm7jfj_000000gn/T//ccMITFEw.s:352    .text.putch:0000000000000016 .L0 
/var/folders/rt/4gvqv631095f64jvm7jfj_000000gn/T//ccMITFEw.s:355    .text.putch:000000000000001c .L0 
/var/folders/rt/4gvqv631095f64jvm7jfj_000000gn/T//ccMITFEw.s:357    .text.putch:0000000000000020 .L0 
/var/folders/rt/4gvqv631095f64jvm7jfj_000000gn/T//ccMITFEw.s:359    .text.putch:0000000000000024 .L0 
/var/folders/rt/4gvqv631095f64jvm7jfj_000000gn/T//ccMITFEw.s:361    .text.putch:0000000000000028 .L0 
/var/folders/rt/4gvqv631095f64jvm7jfj_000000gn/T//ccMITFEw.s:363    .text.putch:000000000000002c .L0 
/var/folders/rt/4gvqv631095f64jvm7jfj_000000gn/T//ccMITFEw.s:364    .text.putch:000000000000002c .L0 
/var/folders/rt/4gvqv631095f64jvm7jfj_000000gn/T//ccMITFEw.s:367    .text.putch:0000000000000034 .L0 
/var/folders/rt/4gvqv631095f64jvm7jfj_000000gn/T//ccMITFEw.s:368    .text.putch:0000000000000036 .L0 
/var/folders/rt/4gvqv631095f64jvm7jfj_000000gn/T//ccMITFEw.s:369    .text.putch:0000000000000036 .L0 
/var/folders/rt/4gvqv631095f64jvm7jfj_000000gn/T//ccMITFEw.s:371    .text.putch:0000000000000036 .L0 
/var/folders/rt/4gvqv631095f64jvm7jfj_000000gn/T//ccMITFEw.s:373    .text.putch:000000000000003a .L0 
/var/folders/rt/4gvqv631095f64jvm7jfj_000000gn/T//ccMITFEw.s:374    .text.putch:000000000000003c .L0 
/var/folders/rt/4gvqv631095f64jvm7jfj_000000gn/T//ccMITFEw.s:376    .text.putch:000000000000003e .L0 
/var/folders/rt/4gvqv631095f64jvm7jfj_000000gn/T//ccMITFEw.s:378    .text.putch:0000000000000040 .L0 
/var/folders/rt/4gvqv631095f64jvm7jfj_000000gn/T//ccMITFEw.s:380    .text.putch:0000000000000040 .L0 
/var/folders/rt/4gvqv631095f64jvm7jfj_000000gn/T//ccMITFEw.s:383    .text.putch:0000000000000044 .L0 
/var/folders/rt/4gvqv631095f64jvm7jfj_000000gn/T//ccMITFEw.s:384    .text.putch:0000000000000044 .L0 
/var/folders/rt/4gvqv631095f64jvm7jfj_000000gn/T//ccMITFEw.s:386    .text.putch:0000000000000046 .L0 
/var/folders/rt/4gvqv631095f64jvm7jfj_000000gn/T//ccMITFEw.s:388    .text.putch:000000000000004a .L0 
/var/folders/rt/4gvqv631095f64jvm7jfj_000000gn/T//ccMITFEw.s:389    .text.putch:000000000000004a .L0 
/var/folders/rt/4gvqv631095f64jvm7jfj_000000gn/T//ccMITFEw.s:392    .text.putch:0000000000000052 .L0 
/var/folders/rt/4gvqv631095f64jvm7jfj_000000gn/T//ccMITFEw.s:394    .text.putch:0000000000000054 .L0 
/var/folders/rt/4gvqv631095f64jvm7jfj_000000gn/T//ccMITFEw.s:396    .text.putch:0000000000000054 .L0 
/var/folders/rt/4gvqv631095f64jvm7jfj_000000gn/T//ccMITFEw.s:400    .text.putch:000000000000005c .L0 
/var/folders/rt/4gvqv631095f64jvm7jfj_000000gn/T//ccMITFEw.s:403    .text.putch:000000000000005e .L0 
/var/folders/rt/4gvqv631095f64jvm7jfj_000000gn/T//ccMITFEw.s:407    .text.putch:000000000000006a .L0 
/var/folders/rt/4gvqv631095f64jvm7jfj_000000gn/T//ccMITFEw.s:414    .text.putstr:0000000000000000 putstr
/var/folders/rt/4gvqv631095f64jvm7jfj_000000gn/T//ccMITFEw.s:417    .text.putstr:0000000000000000 .L0 
/var/folders/rt/4gvqv631095f64jvm7jfj_000000gn/T//ccMITFEw.s:419    .text.putstr:0000000000000000 .L0 
/var/folders/rt/4gvqv631095f64jvm7jfj_000000gn/T//ccMITFEw.s:421    .text.putstr:0000000000000002 .L0 
/var/folders/rt/4gvqv631095f64jvm7jfj_000000gn/T//ccMITFEw.s:424    .text.putstr:0000000000000006 .L0 
/var/folders/rt/4gvqv631095f64jvm7jfj_000000gn/T//ccMITFEw.s:425    .text.putstr:0000000000000006 .L0 
/var/folders/rt/4gvqv631095f64jvm7jfj_000000gn/T//ccMITFEw.s:430    .text.putstr:0000000000000008 .L0 
/var/folders/rt/4gvqv631095f64jvm7jfj_000000gn/T//ccMITFEw.s:431    .text.putstr:0000000000000008 .L0 
/var/folders/rt/4gvqv631095f64jvm7jfj_000000gn/T//ccMITFEw.s:433    .text.putstr:000000000000000c .L0 
/var/folders/rt/4gvqv631095f64jvm7jfj_000000gn/T//ccMITFEw.s:435    .text.putstr:000000000000000e .L0 
/var/folders/rt/4gvqv631095f64jvm7jfj_000000gn/T//ccMITFEw.s:436    .text.putstr:0000000000000010 .L0 
/var/folders/rt/4gvqv631095f64jvm7jfj_000000gn/T//ccMITFEw.s:437    .text.putstr:0000000000000010 .L0 
/var/folders/rt/4gvqv631095f64jvm7jfj_000000gn/T//ccMITFEw.s:439    .text.putstr:0000000000000012 .L0 
/var/folders/rt/4gvqv631095f64jvm7jfj_000000gn/T//ccMITFEw.s:443    .text.putstr:0000000000000014 .L0 
/var/folders/rt/4gvqv631095f64jvm7jfj_000000gn/T//ccMITFEw.s:448    .text.putstr:0000000000000016 .L0 
/var/folders/rt/4gvqv631095f64jvm7jfj_000000gn/T//ccMITFEw.s:450    .text.putstr:0000000000000016 .L0 
GAS LISTING /var/folders/rt/4gvqv631095f64jvm7jfj_000000gn/T//ccMITFEw.s 			page 19


/var/folders/rt/4gvqv631095f64jvm7jfj_000000gn/T//ccMITFEw.s:451    .text.putstr:0000000000000016 .L0 
/var/folders/rt/4gvqv631095f64jvm7jfj_000000gn/T//ccMITFEw.s:454    .text.putstr:0000000000000018 .L0 
/var/folders/rt/4gvqv631095f64jvm7jfj_000000gn/T//ccMITFEw.s:457    .text.putstr:0000000000000022 .L0 
/var/folders/rt/4gvqv631095f64jvm7jfj_000000gn/T//ccMITFEw.s:464    .text.u0init:0000000000000000 u0init
/var/folders/rt/4gvqv631095f64jvm7jfj_000000gn/T//ccMITFEw.s:467    .text.u0init:0000000000000000 .L0 
/var/folders/rt/4gvqv631095f64jvm7jfj_000000gn/T//ccMITFEw.s:469    .text.u0init:0000000000000000 .L0 
/var/folders/rt/4gvqv631095f64jvm7jfj_000000gn/T//ccMITFEw.s:470    .text.u0init:0000000000000000 .L0 
/var/folders/rt/4gvqv631095f64jvm7jfj_000000gn/T//ccMITFEw.s:471    .text.u0init:0000000000000000 .L0 
/var/folders/rt/4gvqv631095f64jvm7jfj_000000gn/T//ccMITFEw.s:473    .text.u0init:0000000000000002 .L0 
/var/folders/rt/4gvqv631095f64jvm7jfj_000000gn/T//ccMITFEw.s:475    .text.u0init:0000000000000004 .L0 
/var/folders/rt/4gvqv631095f64jvm7jfj_000000gn/T//ccMITFEw.s:478    .text.u0init:0000000000000006 .L0 
/var/folders/rt/4gvqv631095f64jvm7jfj_000000gn/T//ccMITFEw.s:481    .text.u0init:000000000000000a .L0 
/var/folders/rt/4gvqv631095f64jvm7jfj_000000gn/T//ccMITFEw.s:483    .text.u0init:000000000000000e .L0 
/var/folders/rt/4gvqv631095f64jvm7jfj_000000gn/T//ccMITFEw.s:484    .text.u0init:000000000000000e .L0 
/var/folders/rt/4gvqv631095f64jvm7jfj_000000gn/T//ccMITFEw.s:486    .text.u0init:000000000000000e .L0 
/var/folders/rt/4gvqv631095f64jvm7jfj_000000gn/T//ccMITFEw.s:489    .text.u0init:0000000000000016 .L0 
/var/folders/rt/4gvqv631095f64jvm7jfj_000000gn/T//ccMITFEw.s:497    .text.u0init:000000000000002e .L0 
/var/folders/rt/4gvqv631095f64jvm7jfj_000000gn/T//ccMITFEw.s:504    .text.u0init:0000000000000044 .L0 
/var/folders/rt/4gvqv631095f64jvm7jfj_000000gn/T//ccMITFEw.s:506    .text.u0init:0000000000000048 .L0 
/var/folders/rt/4gvqv631095f64jvm7jfj_000000gn/T//ccMITFEw.s:508    .text.u0init:000000000000004c .L0 
/var/folders/rt/4gvqv631095f64jvm7jfj_000000gn/T//ccMITFEw.s:511    .text.u0init:0000000000000054 .L0 
/var/folders/rt/4gvqv631095f64jvm7jfj_000000gn/T//ccMITFEw.s:515    .text.u0init:0000000000000060 .L0 
/var/folders/rt/4gvqv631095f64jvm7jfj_000000gn/T//ccMITFEw.s:521    .text.u0init:0000000000000072 .L0 
/var/folders/rt/4gvqv631095f64jvm7jfj_000000gn/T//ccMITFEw.s:526    .text.u0init:0000000000000080 .L0 
/var/folders/rt/4gvqv631095f64jvm7jfj_000000gn/T//ccMITFEw.s:531    .text.u0init:000000000000008e .L0 
/var/folders/rt/4gvqv631095f64jvm7jfj_000000gn/T//ccMITFEw.s:536    .text.u0init:000000000000009c .L0 
/var/folders/rt/4gvqv631095f64jvm7jfj_000000gn/T//ccMITFEw.s:541    .text.u0init:00000000000000aa .L0 
/var/folders/rt/4gvqv631095f64jvm7jfj_000000gn/T//ccMITFEw.s:546    .text.u0init:00000000000000b8 .L0 
/var/folders/rt/4gvqv631095f64jvm7jfj_000000gn/T//ccMITFEw.s:550    .text.u0init:00000000000000c4 .L0 
/var/folders/rt/4gvqv631095f64jvm7jfj_000000gn/T//ccMITFEw.s:555    .text.u0init:00000000000000d2 .L0 
/var/folders/rt/4gvqv631095f64jvm7jfj_000000gn/T//ccMITFEw.s:560    .text.u0init:00000000000000e0 .L0 
/var/folders/rt/4gvqv631095f64jvm7jfj_000000gn/T//ccMITFEw.s:561    .text.u0init:00000000000000e0 .L0 
/var/folders/rt/4gvqv631095f64jvm7jfj_000000gn/T//ccMITFEw.s:563    .text.u0init:00000000000000e2 .L0 
/var/folders/rt/4gvqv631095f64jvm7jfj_000000gn/T//ccMITFEw.s:568    .text.u0init:00000000000000f2 .L0 
/var/folders/rt/4gvqv631095f64jvm7jfj_000000gn/T//ccMITFEw.s:569    .text.u0init:00000000000000f2 .L0 
/var/folders/rt/4gvqv631095f64jvm7jfj_000000gn/T//ccMITFEw.s:570    .text.u0init:00000000000000f4 .L0 
/var/folders/rt/4gvqv631095f64jvm7jfj_000000gn/T//ccMITFEw.s:571    .text.u0init:00000000000000f4 .L0 
/var/folders/rt/4gvqv631095f64jvm7jfj_000000gn/T//ccMITFEw.s:573    .text.u0init:00000000000000f6 .L0 
/var/folders/rt/4gvqv631095f64jvm7jfj_000000gn/T//ccMITFEw.s:575    .text.u0init:00000000000000f8 .L0 
/var/folders/rt/4gvqv631095f64jvm7jfj_000000gn/T//ccMITFEw.s:578    .text.u0init:00000000000000f8 .L0 
/var/folders/rt/4gvqv631095f64jvm7jfj_000000gn/T//ccMITFEw.s:580    .text.u0init:00000000000000fc .L0 
/var/folders/rt/4gvqv631095f64jvm7jfj_000000gn/T//ccMITFEw.s:581    .text.u0init:00000000000000fc .L0 
/var/folders/rt/4gvqv631095f64jvm7jfj_000000gn/T//ccMITFEw.s:586    .text.u0init:0000000000000108 .L0 
/var/folders/rt/4gvqv631095f64jvm7jfj_000000gn/T//ccMITFEw.s:588    .text.u0init:000000000000010a .L0 
/var/folders/rt/4gvqv631095f64jvm7jfj_000000gn/T//ccMITFEw.s:590    .text.u0init:000000000000010a .L0 
/var/folders/rt/4gvqv631095f64jvm7jfj_000000gn/T//ccMITFEw.s:594    .text.u0init:0000000000000112 .L0 
/var/folders/rt/4gvqv631095f64jvm7jfj_000000gn/T//ccMITFEw.s:596    .text.u0init:0000000000000112 .L0 
/var/folders/rt/4gvqv631095f64jvm7jfj_000000gn/T//ccMITFEw.s:597    .text.u0init:0000000000000114 .L0 
/var/folders/rt/4gvqv631095f64jvm7jfj_000000gn/T//ccMITFEw.s:599    .text.u0init:0000000000000116 .L0 
/var/folders/rt/4gvqv631095f64jvm7jfj_000000gn/T//ccMITFEw.s:601    .text.u0init:0000000000000118 .L0 
/var/folders/rt/4gvqv631095f64jvm7jfj_000000gn/T//ccMITFEw.s:605    .text.u0init:000000000000011a .L0 
/var/folders/rt/4gvqv631095f64jvm7jfj_000000gn/T//ccMITFEw.s:607    .text.u0init:000000000000011c .L0 
/var/folders/rt/4gvqv631095f64jvm7jfj_000000gn/T//ccMITFEw.s:631    .sbss.i:0000000000000000 i
/var/folders/rt/4gvqv631095f64jvm7jfj_000000gn/T//ccMITFEw.s:620    .bss.txq:0000000000000000 txq
/var/folders/rt/4gvqv631095f64jvm7jfj_000000gn/T//ccMITFEw.s:645    .sbss.txw:0000000000000000 txw
/var/folders/rt/4gvqv631095f64jvm7jfj_000000gn/T//ccMITFEw.s:638    .sbss.txr:0000000000000000 txr
/var/folders/rt/4gvqv631095f64jvm7jfj_000000gn/T//ccMITFEw.s:617    .bss.txq:0000000000000000 .LANCHOR2
GAS LISTING /var/folders/rt/4gvqv631095f64jvm7jfj_000000gn/T//ccMITFEw.s 			page 20


/var/folders/rt/4gvqv631095f64jvm7jfj_000000gn/T//ccMITFEw.s:628    .sbss.i:0000000000000000 .LANCHOR3
/var/folders/rt/4gvqv631095f64jvm7jfj_000000gn/T//ccMITFEw.s:635    .sbss.txr:0000000000000000 .LANCHOR0
/var/folders/rt/4gvqv631095f64jvm7jfj_000000gn/T//ccMITFEw.s:642    .sbss.txw:0000000000000000 .LANCHOR1
/var/folders/rt/4gvqv631095f64jvm7jfj_000000gn/T//ccMITFEw.s:216    .text.wifiIsrHandler:0000000000000162 .L0 
/var/folders/rt/4gvqv631095f64jvm7jfj_000000gn/T//ccMITFEw.s:321    .text.u0_TX_Queue:0000000000000088 .L0 
/var/folders/rt/4gvqv631095f64jvm7jfj_000000gn/T//ccMITFEw.s:410    .text.putch:000000000000006a .L0 
/var/folders/rt/4gvqv631095f64jvm7jfj_000000gn/T//ccMITFEw.s:460    .text.putstr:0000000000000022 .L0 
/var/folders/rt/4gvqv631095f64jvm7jfj_000000gn/T//ccMITFEw.s:615    .text.u0init:000000000000011c .L0 
                     .debug_frame:0000000000000000 .L0 
/var/folders/rt/4gvqv631095f64jvm7jfj_000000gn/T//ccMITFEw.s:624    .rodata.wifiIsrHandler.str1.4:0000000000000000 .LC0
/var/folders/rt/4gvqv631095f64jvm7jfj_000000gn/T//ccMITFEw.s:77     .text.wifiIsrHandler:0000000000000074 .L2
/var/folders/rt/4gvqv631095f64jvm7jfj_000000gn/T//ccMITFEw.s:170    .text.wifiIsrHandler:0000000000000118 .L3
/var/folders/rt/4gvqv631095f64jvm7jfj_000000gn/T//ccMITFEw.s:155    .text.wifiIsrHandler:000000000000010e .L1
/var/folders/rt/4gvqv631095f64jvm7jfj_000000gn/T//ccMITFEw.s:180    .text.wifiIsrHandler:000000000000012a .L6
/var/folders/rt/4gvqv631095f64jvm7jfj_000000gn/T//ccMITFEw.s:128    .text.wifiIsrHandler:00000000000000da .L8
/var/folders/rt/4gvqv631095f64jvm7jfj_000000gn/T//ccMITFEw.s:294    .text.u0_TX_Queue:000000000000006c .L14
/var/folders/rt/4gvqv631095f64jvm7jfj_000000gn/T//ccMITFEw.s:279    .text.u0_TX_Queue:0000000000000062 .L13
/var/folders/rt/4gvqv631095f64jvm7jfj_000000gn/T//ccMITFEw.s:398    .text.putch:000000000000005c .L22
/var/folders/rt/4gvqv631095f64jvm7jfj_000000gn/T//ccMITFEw.s:350    .text.putch:0000000000000016 .L21
/var/folders/rt/4gvqv631095f64jvm7jfj_000000gn/T//ccMITFEw.s:446    .text.putstr:0000000000000016 .L26
/var/folders/rt/4gvqv631095f64jvm7jfj_000000gn/T//ccMITFEw.s:429    .text.putstr:0000000000000008 .L25
/var/folders/rt/4gvqv631095f64jvm7jfj_000000gn/T//ccMITFEw.s:592    .text.u0init:0000000000000112 .L28
/var/folders/rt/4gvqv631095f64jvm7jfj_000000gn/T//ccMITFEw.s:3442   .debug_abbrev:0000000000000000 .Ldebug_abbrev0
/var/folders/rt/4gvqv631095f64jvm7jfj_000000gn/T//ccMITFEw.s:4575   .debug_str:0000000000000194 .LASF285
/var/folders/rt/4gvqv631095f64jvm7jfj_000000gn/T//ccMITFEw.s:4979   .debug_str:0000000000000bf4 .LASF286
/var/folders/rt/4gvqv631095f64jvm7jfj_000000gn/T//ccMITFEw.s:4669   .debug_str:0000000000000458 .LASF287
/var/folders/rt/4gvqv631095f64jvm7jfj_000000gn/T//ccMITFEw.s:4479   .debug_ranges:0000000000000000 .Ldebug_ranges0
/var/folders/rt/4gvqv631095f64jvm7jfj_000000gn/T//ccMITFEw.s:4499   .debug_line:0000000000000000 .Ldebug_line0
/var/folders/rt/4gvqv631095f64jvm7jfj_000000gn/T//ccMITFEw.s:4623   .debug_str:0000000000000320 .LASF288
/var/folders/rt/4gvqv631095f64jvm7jfj_000000gn/T//ccMITFEw.s:4833   .debug_str:0000000000000874 .LASF0
/var/folders/rt/4gvqv631095f64jvm7jfj_000000gn/T//ccMITFEw.s:5077   .debug_str:0000000000000e48 .LASF1
/var/folders/rt/4gvqv631095f64jvm7jfj_000000gn/T//ccMITFEw.s:4731   .debug_str:00000000000005f0 .LASF2
/var/folders/rt/4gvqv631095f64jvm7jfj_000000gn/T//ccMITFEw.s:4631   .debug_str:0000000000000351 .LASF3
/var/folders/rt/4gvqv631095f64jvm7jfj_000000gn/T//ccMITFEw.s:4881   .debug_str:0000000000000986 .LASF4
/var/folders/rt/4gvqv631095f64jvm7jfj_000000gn/T//ccMITFEw.s:4967   .debug_str:0000000000000b95 .LASF5
/var/folders/rt/4gvqv631095f64jvm7jfj_000000gn/T//ccMITFEw.s:5019   .debug_str:0000000000000cdd .LASF6
/var/folders/rt/4gvqv631095f64jvm7jfj_000000gn/T//ccMITFEw.s:4619   .debug_str:0000000000000307 .LASF7
/var/folders/rt/4gvqv631095f64jvm7jfj_000000gn/T//ccMITFEw.s:5079   .debug_str:0000000000000e55 .LASF8
/var/folders/rt/4gvqv631095f64jvm7jfj_000000gn/T//ccMITFEw.s:4903   .debug_str:00000000000009fe .LASF9
/var/folders/rt/4gvqv631095f64jvm7jfj_000000gn/T//ccMITFEw.s:4971   .debug_str:0000000000000bb4 .LASF10
/var/folders/rt/4gvqv631095f64jvm7jfj_000000gn/T//ccMITFEw.s:4963   .debug_str:0000000000000b81 .LASF11
/var/folders/rt/4gvqv631095f64jvm7jfj_000000gn/T//ccMITFEw.s:4723   .debug_str:00000000000005c1 .LASF12
/var/folders/rt/4gvqv631095f64jvm7jfj_000000gn/T//ccMITFEw.s:4503   .debug_str:000000000000000f .LASF13
/var/folders/rt/4gvqv631095f64jvm7jfj_000000gn/T//ccMITFEw.s:5053   .debug_str:0000000000000d8a .LASF14
/var/folders/rt/4gvqv631095f64jvm7jfj_000000gn/T//ccMITFEw.s:4831   .debug_str:0000000000000869 .LASF15
/var/folders/rt/4gvqv631095f64jvm7jfj_000000gn/T//ccMITFEw.s:4595   .debug_str:000000000000027d .LASF16
/var/folders/rt/4gvqv631095f64jvm7jfj_000000gn/T//ccMITFEw.s:4563   .debug_str:0000000000000147 .LASF17
/var/folders/rt/4gvqv631095f64jvm7jfj_000000gn/T//ccMITFEw.s:4899   .debug_str:00000000000009dd .LASF18
/var/folders/rt/4gvqv631095f64jvm7jfj_000000gn/T//ccMITFEw.s:4693   .debug_str:000000000000050d .LASF19
/var/folders/rt/4gvqv631095f64jvm7jfj_000000gn/T//ccMITFEw.s:4653   .debug_str:00000000000003d0 .LASF20
/var/folders/rt/4gvqv631095f64jvm7jfj_000000gn/T//ccMITFEw.s:5001   .debug_str:0000000000000c76 .LASF21
/var/folders/rt/4gvqv631095f64jvm7jfj_000000gn/T//ccMITFEw.s:4759   .debug_str:00000000000006a8 .LASF22
/var/folders/rt/4gvqv631095f64jvm7jfj_000000gn/T//ccMITFEw.s:4677   .debug_str:00000000000004b9 .LASF23
/var/folders/rt/4gvqv631095f64jvm7jfj_000000gn/T//ccMITFEw.s:4621   .debug_str:0000000000000313 .LASF24
/var/folders/rt/4gvqv631095f64jvm7jfj_000000gn/T//ccMITFEw.s:4765   .debug_str:00000000000006cd .LASF25
/var/folders/rt/4gvqv631095f64jvm7jfj_000000gn/T//ccMITFEw.s:4577   .debug_str:000000000000021c .LASF26
/var/folders/rt/4gvqv631095f64jvm7jfj_000000gn/T//ccMITFEw.s:4983   .debug_str:0000000000000c06 .LASF27
GAS LISTING /var/folders/rt/4gvqv631095f64jvm7jfj_000000gn/T//ccMITFEw.s 			page 21


/var/folders/rt/4gvqv631095f64jvm7jfj_000000gn/T//ccMITFEw.s:4617   .debug_str:00000000000002fa .LASF28
/var/folders/rt/4gvqv631095f64jvm7jfj_000000gn/T//ccMITFEw.s:4515   .debug_str:0000000000000050 .LASF29
/var/folders/rt/4gvqv631095f64jvm7jfj_000000gn/T//ccMITFEw.s:4985   .debug_str:0000000000000c15 .LASF30
/var/folders/rt/4gvqv631095f64jvm7jfj_000000gn/T//ccMITFEw.s:5009   .debug_str:0000000000000caa .LASF31
/var/folders/rt/4gvqv631095f64jvm7jfj_000000gn/T//ccMITFEw.s:4771   .debug_str:00000000000006ee .LASF32
/var/folders/rt/4gvqv631095f64jvm7jfj_000000gn/T//ccMITFEw.s:4775   .debug_str:000000000000070d .LASF33
/var/folders/rt/4gvqv631095f64jvm7jfj_000000gn/T//ccMITFEw.s:4581   .debug_str:0000000000000230 .LASF34
/var/folders/rt/4gvqv631095f64jvm7jfj_000000gn/T//ccMITFEw.s:4925   .debug_str:0000000000000aad .LASF35
/var/folders/rt/4gvqv631095f64jvm7jfj_000000gn/T//ccMITFEw.s:4599   .debug_str:000000000000029a .LASF36
/var/folders/rt/4gvqv631095f64jvm7jfj_000000gn/T//ccMITFEw.s:4517   .debug_str:0000000000000060 .LASF37
/var/folders/rt/4gvqv631095f64jvm7jfj_000000gn/T//ccMITFEw.s:4711   .debug_str:000000000000058d .LASF38
/var/folders/rt/4gvqv631095f64jvm7jfj_000000gn/T//ccMITFEw.s:4657   .debug_str:00000000000003fc .LASF39
/var/folders/rt/4gvqv631095f64jvm7jfj_000000gn/T//ccMITFEw.s:5021   .debug_str:0000000000000ce6 .LASF40
/var/folders/rt/4gvqv631095f64jvm7jfj_000000gn/T//ccMITFEw.s:4799   .debug_str:0000000000000787 .LASF41
/var/folders/rt/4gvqv631095f64jvm7jfj_000000gn/T//ccMITFEw.s:4871   .debug_str:000000000000093b .LASF42
/var/folders/rt/4gvqv631095f64jvm7jfj_000000gn/T//ccMITFEw.s:4921   .debug_str:0000000000000a98 .LASF43
/var/folders/rt/4gvqv631095f64jvm7jfj_000000gn/T//ccMITFEw.s:4707   .debug_str:000000000000056e .LASF44
/var/folders/rt/4gvqv631095f64jvm7jfj_000000gn/T//ccMITFEw.s:4699   .debug_str:0000000000000533 .LASF45
/var/folders/rt/4gvqv631095f64jvm7jfj_000000gn/T//ccMITFEw.s:4955   .debug_str:0000000000000b52 .LASF46
/var/folders/rt/4gvqv631095f64jvm7jfj_000000gn/T//ccMITFEw.s:4803   .debug_str:0000000000000799 .LASF47
/var/folders/rt/4gvqv631095f64jvm7jfj_000000gn/T//ccMITFEw.s:4537   .debug_str:00000000000000c3 .LASF48
/var/folders/rt/4gvqv631095f64jvm7jfj_000000gn/T//ccMITFEw.s:4887   .debug_str:00000000000009a3 .LASF49
/var/folders/rt/4gvqv631095f64jvm7jfj_000000gn/T//ccMITFEw.s:4597   .debug_str:0000000000000290 .LASF50
/var/folders/rt/4gvqv631095f64jvm7jfj_000000gn/T//ccMITFEw.s:5043   .debug_str:0000000000000d55 .LASF51
/var/folders/rt/4gvqv631095f64jvm7jfj_000000gn/T//ccMITFEw.s:4825   .debug_str:0000000000000834 .LASF52
/var/folders/rt/4gvqv631095f64jvm7jfj_000000gn/T//ccMITFEw.s:4687   .debug_str:00000000000004e5 .LASF53
/var/folders/rt/4gvqv631095f64jvm7jfj_000000gn/T//ccMITFEw.s:5023   .debug_str:0000000000000cf0 .LASF54
/var/folders/rt/4gvqv631095f64jvm7jfj_000000gn/T//ccMITFEw.s:4873   .debug_str:0000000000000947 .LASF55
/var/folders/rt/4gvqv631095f64jvm7jfj_000000gn/T//ccMITFEw.s:4663   .debug_str:0000000000000423 .LASF56
/var/folders/rt/4gvqv631095f64jvm7jfj_000000gn/T//ccMITFEw.s:5007   .debug_str:0000000000000c97 .LASF57
/var/folders/rt/4gvqv631095f64jvm7jfj_000000gn/T//ccMITFEw.s:4973   .debug_str:0000000000000bc1 .LASF58
/var/folders/rt/4gvqv631095f64jvm7jfj_000000gn/T//ccMITFEw.s:4733   .debug_str:00000000000005fd .LASF59
/var/folders/rt/4gvqv631095f64jvm7jfj_000000gn/T//ccMITFEw.s:4725   .debug_str:00000000000005cc .LASF60
/var/folders/rt/4gvqv631095f64jvm7jfj_000000gn/T//ccMITFEw.s:4689   .debug_str:00000000000004f1 .LASF61
/var/folders/rt/4gvqv631095f64jvm7jfj_000000gn/T//ccMITFEw.s:5037   .debug_str:0000000000000d2f .LASF62
/var/folders/rt/4gvqv631095f64jvm7jfj_000000gn/T//ccMITFEw.s:4587   .debug_str:0000000000000250 .LASF63
/var/folders/rt/4gvqv631095f64jvm7jfj_000000gn/T//ccMITFEw.s:5083   .debug_str:0000000000000e64 .LASF64
/var/folders/rt/4gvqv631095f64jvm7jfj_000000gn/T//ccMITFEw.s:4813   .debug_str:00000000000007f3 .LASF65
/var/folders/rt/4gvqv631095f64jvm7jfj_000000gn/T//ccMITFEw.s:4839   .debug_str:0000000000000897 .LASF66
/var/folders/rt/4gvqv631095f64jvm7jfj_000000gn/T//ccMITFEw.s:4643   .debug_str:0000000000000396 .LASF67
/var/folders/rt/4gvqv631095f64jvm7jfj_000000gn/T//ccMITFEw.s:4593   .debug_str:0000000000000273 .LASF72
/var/folders/rt/4gvqv631095f64jvm7jfj_000000gn/T//ccMITFEw.s:4651   .debug_str:00000000000003c2 .LASF68
/var/folders/rt/4gvqv631095f64jvm7jfj_000000gn/T//ccMITFEw.s:4981   .debug_str:0000000000000bfc .LASF69
/var/folders/rt/4gvqv631095f64jvm7jfj_000000gn/T//ccMITFEw.s:5047   .debug_str:0000000000000d65 .LASF70
/var/folders/rt/4gvqv631095f64jvm7jfj_000000gn/T//ccMITFEw.s:4609   .debug_str:00000000000002d5 .LASF71
/var/folders/rt/4gvqv631095f64jvm7jfj_000000gn/T//ccMITFEw.s:4773   .debug_str:0000000000000702 .LASF73
/var/folders/rt/4gvqv631095f64jvm7jfj_000000gn/T//ccMITFEw.s:4729   .debug_str:00000000000005de .LASF74
/var/folders/rt/4gvqv631095f64jvm7jfj_000000gn/T//ccMITFEw.s:4781   .debug_str:000000000000072b .LASF75
/var/folders/rt/4gvqv631095f64jvm7jfj_000000gn/T//ccMITFEw.s:4907   .debug_str:0000000000000a1f .LASF76
/var/folders/rt/4gvqv631095f64jvm7jfj_000000gn/T//ccMITFEw.s:4645   .debug_str:00000000000003a2 .LASF77
/var/folders/rt/4gvqv631095f64jvm7jfj_000000gn/T//ccMITFEw.s:5029   .debug_str:0000000000000d0c .LASF78
/var/folders/rt/4gvqv631095f64jvm7jfj_000000gn/T//ccMITFEw.s:4739   .debug_str:0000000000000623 .LASF254
/var/folders/rt/4gvqv631095f64jvm7jfj_000000gn/T//ccMITFEw.s:4947   .debug_str:0000000000000b2f .LASF79
/var/folders/rt/4gvqv631095f64jvm7jfj_000000gn/T//ccMITFEw.s:4949   .debug_str:0000000000000b38 .LASF80
/var/folders/rt/4gvqv631095f64jvm7jfj_000000gn/T//ccMITFEw.s:4835   .debug_str:0000000000000886 .LASF81
/var/folders/rt/4gvqv631095f64jvm7jfj_000000gn/T//ccMITFEw.s:5015   .debug_str:0000000000000ccd .LASF82
/var/folders/rt/4gvqv631095f64jvm7jfj_000000gn/T//ccMITFEw.s:4763   .debug_str:00000000000006c3 .LASF83
GAS LISTING /var/folders/rt/4gvqv631095f64jvm7jfj_000000gn/T//ccMITFEw.s 			page 22


/var/folders/rt/4gvqv631095f64jvm7jfj_000000gn/T//ccMITFEw.s:4551   .debug_str:0000000000000105 .LASF84
/var/folders/rt/4gvqv631095f64jvm7jfj_000000gn/T//ccMITFEw.s:4553   .debug_str:0000000000000110 .LASF85
/var/folders/rt/4gvqv631095f64jvm7jfj_000000gn/T//ccMITFEw.s:4555   .debug_str:000000000000011b .LASF86
/var/folders/rt/4gvqv631095f64jvm7jfj_000000gn/T//ccMITFEw.s:4557   .debug_str:0000000000000126 .LASF87
/var/folders/rt/4gvqv631095f64jvm7jfj_000000gn/T//ccMITFEw.s:4559   .debug_str:0000000000000131 .LASF88
/var/folders/rt/4gvqv631095f64jvm7jfj_000000gn/T//ccMITFEw.s:4561   .debug_str:000000000000013c .LASF89
/var/folders/rt/4gvqv631095f64jvm7jfj_000000gn/T//ccMITFEw.s:4863   .debug_str:0000000000000914 .LASF90
/var/folders/rt/4gvqv631095f64jvm7jfj_000000gn/T//ccMITFEw.s:4635   .debug_str:0000000000000368 .LASF91
/var/folders/rt/4gvqv631095f64jvm7jfj_000000gn/T//ccMITFEw.s:4637   .debug_str:0000000000000371 .LASF92
/var/folders/rt/4gvqv631095f64jvm7jfj_000000gn/T//ccMITFEw.s:4567   .debug_str:0000000000000165 .LASF93
/var/folders/rt/4gvqv631095f64jvm7jfj_000000gn/T//ccMITFEw.s:4569   .debug_str:0000000000000170 .LASF94
/var/folders/rt/4gvqv631095f64jvm7jfj_000000gn/T//ccMITFEw.s:4533   .debug_str:00000000000000af .LASF95
/var/folders/rt/4gvqv631095f64jvm7jfj_000000gn/T//ccMITFEw.s:4535   .debug_str:00000000000000b9 .LASF96
/var/folders/rt/4gvqv631095f64jvm7jfj_000000gn/T//ccMITFEw.s:5031   .debug_str:0000000000000d15 .LASF97
/var/folders/rt/4gvqv631095f64jvm7jfj_000000gn/T//ccMITFEw.s:5033   .debug_str:0000000000000d1e .LASF98
/var/folders/rt/4gvqv631095f64jvm7jfj_000000gn/T//ccMITFEw.s:4965   .debug_str:0000000000000b8c .LASF99
/var/folders/rt/4gvqv631095f64jvm7jfj_000000gn/T//ccMITFEw.s:4671   .debug_str:000000000000049b .LASF100
/var/folders/rt/4gvqv631095f64jvm7jfj_000000gn/T//ccMITFEw.s:4999   .debug_str:0000000000000c6d .LASF101
/var/folders/rt/4gvqv631095f64jvm7jfj_000000gn/T//ccMITFEw.s:4523   .debug_str:000000000000007d .LASF102
/var/folders/rt/4gvqv631095f64jvm7jfj_000000gn/T//ccMITFEw.s:4647   .debug_str:00000000000003aa .LASF103
/var/folders/rt/4gvqv631095f64jvm7jfj_000000gn/T//ccMITFEw.s:4883   .debug_str:0000000000000995 .LASF104
/var/folders/rt/4gvqv631095f64jvm7jfj_000000gn/T//ccMITFEw.s:4741   .debug_str:0000000000000633 .LASF105
/var/folders/rt/4gvqv631095f64jvm7jfj_000000gn/T//ccMITFEw.s:4783   .debug_str:0000000000000739 .LASF106
/var/folders/rt/4gvqv631095f64jvm7jfj_000000gn/T//ccMITFEw.s:4785   .debug_str:0000000000000743 .LASF107
/var/folders/rt/4gvqv631095f64jvm7jfj_000000gn/T//ccMITFEw.s:4787   .debug_str:000000000000074d .LASF108
/var/folders/rt/4gvqv631095f64jvm7jfj_000000gn/T//ccMITFEw.s:4789   .debug_str:0000000000000757 .LASF109
/var/folders/rt/4gvqv631095f64jvm7jfj_000000gn/T//ccMITFEw.s:4791   .debug_str:0000000000000761 .LASF110
/var/folders/rt/4gvqv631095f64jvm7jfj_000000gn/T//ccMITFEw.s:4777   .debug_str:0000000000000719 .LASF111
/var/folders/rt/4gvqv631095f64jvm7jfj_000000gn/T//ccMITFEw.s:4779   .debug_str:0000000000000722 .LASF112
/var/folders/rt/4gvqv631095f64jvm7jfj_000000gn/T//ccMITFEw.s:4549   .debug_str:00000000000000fa .LASF113
/var/folders/rt/4gvqv631095f64jvm7jfj_000000gn/T//ccMITFEw.s:4633   .debug_str:000000000000035f .LASF114
/var/folders/rt/4gvqv631095f64jvm7jfj_000000gn/T//ccMITFEw.s:4565   .debug_str:000000000000015a .LASF115
/var/folders/rt/4gvqv631095f64jvm7jfj_000000gn/T//ccMITFEw.s:5075   .debug_str:0000000000000e39 .LASF116
/var/folders/rt/4gvqv631095f64jvm7jfj_000000gn/T//ccMITFEw.s:4641   .debug_str:0000000000000387 .LASF117
/var/folders/rt/4gvqv631095f64jvm7jfj_000000gn/T//ccMITFEw.s:4995   .debug_str:0000000000000c54 .LASF118
/var/folders/rt/4gvqv631095f64jvm7jfj_000000gn/T//ccMITFEw.s:4531   .debug_str:00000000000000a1 .LASF119
/var/folders/rt/4gvqv631095f64jvm7jfj_000000gn/T//ccMITFEw.s:4819   .debug_str:0000000000000818 .LASF120
/var/folders/rt/4gvqv631095f64jvm7jfj_000000gn/T//ccMITFEw.s:4705   .debug_str:000000000000055e .LASF121
/var/folders/rt/4gvqv631095f64jvm7jfj_000000gn/T//ccMITFEw.s:5039   .debug_str:0000000000000d3d .LASF122
/var/folders/rt/4gvqv631095f64jvm7jfj_000000gn/T//ccMITFEw.s:4667   .debug_str:0000000000000448 .LASF123
/var/folders/rt/4gvqv631095f64jvm7jfj_000000gn/T//ccMITFEw.s:4649   .debug_str:00000000000003b2 .LASF124
/var/folders/rt/4gvqv631095f64jvm7jfj_000000gn/T//ccMITFEw.s:4675   .debug_str:00000000000004a9 .LASF125
/var/folders/rt/4gvqv631095f64jvm7jfj_000000gn/T//ccMITFEw.s:4913   .debug_str:0000000000000a5a .LASF126
/var/folders/rt/4gvqv631095f64jvm7jfj_000000gn/T//ccMITFEw.s:4709   .debug_str:000000000000057a .LASF127
/var/folders/rt/4gvqv631095f64jvm7jfj_000000gn/T//ccMITFEw.s:4665   .debug_str:0000000000000436 .LASF128
/var/folders/rt/4gvqv631095f64jvm7jfj_000000gn/T//ccMITFEw.s:5067   .debug_str:0000000000000df6 .LASF129
/var/folders/rt/4gvqv631095f64jvm7jfj_000000gn/T//ccMITFEw.s:4917   .debug_str:0000000000000a76 .LASF130
/var/folders/rt/4gvqv631095f64jvm7jfj_000000gn/T//ccMITFEw.s:4957   .debug_str:0000000000000b61 .LASF131
/var/folders/rt/4gvqv631095f64jvm7jfj_000000gn/T//ccMITFEw.s:4929   .debug_str:0000000000000abf .LASF132
/var/folders/rt/4gvqv631095f64jvm7jfj_000000gn/T//ccMITFEw.s:4807   .debug_str:00000000000007b2 .LASF133
/var/folders/rt/4gvqv631095f64jvm7jfj_000000gn/T//ccMITFEw.s:5059   .debug_str:0000000000000db2 .LASF134
/var/folders/rt/4gvqv631095f64jvm7jfj_000000gn/T//ccMITFEw.s:4905   .debug_str:0000000000000a07 .LASF135
/var/folders/rt/4gvqv631095f64jvm7jfj_000000gn/T//ccMITFEw.s:4877   .debug_str:0000000000000964 .LASF136
/var/folders/rt/4gvqv631095f64jvm7jfj_000000gn/T//ccMITFEw.s:4501   .debug_str:0000000000000000 .LASF137
/var/folders/rt/4gvqv631095f64jvm7jfj_000000gn/T//ccMITFEw.s:4591   .debug_str:0000000000000265 .LASF138
/var/folders/rt/4gvqv631095f64jvm7jfj_000000gn/T//ccMITFEw.s:4585   .debug_str:0000000000000243 .LASF139
/var/folders/rt/4gvqv631095f64jvm7jfj_000000gn/T//ccMITFEw.s:4681   .debug_str:00000000000004ca .LASF140
GAS LISTING /var/folders/rt/4gvqv631095f64jvm7jfj_000000gn/T//ccMITFEw.s 			page 23


/var/folders/rt/4gvqv631095f64jvm7jfj_000000gn/T//ccMITFEw.s:4703   .debug_str:000000000000054f .LASF141
/var/folders/rt/4gvqv631095f64jvm7jfj_000000gn/T//ccMITFEw.s:4797   .debug_str:0000000000000779 .LASF142
/var/folders/rt/4gvqv631095f64jvm7jfj_000000gn/T//ccMITFEw.s:4691   .debug_str:00000000000004ff .LASF143
/var/folders/rt/4gvqv631095f64jvm7jfj_000000gn/T//ccMITFEw.s:4867   .debug_str:0000000000000926 .LASF144
/var/folders/rt/4gvqv631095f64jvm7jfj_000000gn/T//ccMITFEw.s:4695   .debug_str:0000000000000520 .LASF145
/var/folders/rt/4gvqv631095f64jvm7jfj_000000gn/T//ccMITFEw.s:4953   .debug_str:0000000000000b4b .LASF146
/var/folders/rt/4gvqv631095f64jvm7jfj_000000gn/T//ccMITFEw.s:5041   .debug_str:0000000000000d4e .LASF147
/var/folders/rt/4gvqv631095f64jvm7jfj_000000gn/T//ccMITFEw.s:4891   .debug_str:00000000000009b5 .LASF148
/var/folders/rt/4gvqv631095f64jvm7jfj_000000gn/T//ccMITFEw.s:4505   .debug_str:000000000000001a .LASF149
/var/folders/rt/4gvqv631095f64jvm7jfj_000000gn/T//ccMITFEw.s:4589   .debug_str:000000000000025f .LASF150
/var/folders/rt/4gvqv631095f64jvm7jfj_000000gn/T//ccMITFEw.s:4893   .debug_str:00000000000009bd .LASF151
/var/folders/rt/4gvqv631095f64jvm7jfj_000000gn/T//ccMITFEw.s:4865   .debug_str:000000000000091e .LASF152
/var/folders/rt/4gvqv631095f64jvm7jfj_000000gn/T//ccMITFEw.s:4509   .debug_str:000000000000002e .LASF153
/var/folders/rt/4gvqv631095f64jvm7jfj_000000gn/T//ccMITFEw.s:4943   .debug_str:0000000000000b1f .LASF154
/var/folders/rt/4gvqv631095f64jvm7jfj_000000gn/T//ccMITFEw.s:5027   .debug_str:0000000000000d04 .LASF155
/var/folders/rt/4gvqv631095f64jvm7jfj_000000gn/T//ccMITFEw.s:4743   .debug_str:000000000000063a .LASF156
/var/folders/rt/4gvqv631095f64jvm7jfj_000000gn/T//ccMITFEw.s:4937   .debug_str:0000000000000af9 .LASF157
/var/folders/rt/4gvqv631095f64jvm7jfj_000000gn/T//ccMITFEw.s:4757   .debug_str:00000000000006a0 .LASF162
/var/folders/rt/4gvqv631095f64jvm7jfj_000000gn/T//ccMITFEw.s:4959   .debug_str:0000000000000b75 .LASF158
/var/folders/rt/4gvqv631095f64jvm7jfj_000000gn/T//ccMITFEw.s:4761   .debug_str:00000000000006bb .LASF159
/var/folders/rt/4gvqv631095f64jvm7jfj_000000gn/T//ccMITFEw.s:4823   .debug_str:000000000000082e .LASF160
/var/folders/rt/4gvqv631095f64jvm7jfj_000000gn/T//ccMITFEw.s:4715   .debug_str:00000000000005a2 .LASF161
/var/folders/rt/4gvqv631095f64jvm7jfj_000000gn/T//ccMITFEw.s:4541   .debug_str:00000000000000d5 .LASF163
/var/folders/rt/4gvqv631095f64jvm7jfj_000000gn/T//ccMITFEw.s:4547   .debug_str:00000000000000f1 .LASF164
/var/folders/rt/4gvqv631095f64jvm7jfj_000000gn/T//ccMITFEw.s:5071   .debug_str:0000000000000e23 .LASF165
/var/folders/rt/4gvqv631095f64jvm7jfj_000000gn/T//ccMITFEw.s:5049   .debug_str:0000000000000d78 .LASF166
/var/folders/rt/4gvqv631095f64jvm7jfj_000000gn/T//ccMITFEw.s:4843   .debug_str:00000000000008b3 .LASF167
/var/folders/rt/4gvqv631095f64jvm7jfj_000000gn/T//ccMITFEw.s:4627   .debug_str:0000000000000334 .LASF168
/var/folders/rt/4gvqv631095f64jvm7jfj_000000gn/T//ccMITFEw.s:4997   .debug_str:0000000000000c63 .LASF169
/var/folders/rt/4gvqv631095f64jvm7jfj_000000gn/T//ccMITFEw.s:4875   .debug_str:000000000000095a .LASF170
/var/folders/rt/4gvqv631095f64jvm7jfj_000000gn/T//ccMITFEw.s:4879   .debug_str:000000000000097c .LASF171
/var/folders/rt/4gvqv631095f64jvm7jfj_000000gn/T//ccMITFEw.s:5065   .debug_str:0000000000000deb .LASF172
/var/folders/rt/4gvqv631095f64jvm7jfj_000000gn/T//ccMITFEw.s:4601   .debug_str:00000000000002a7 .LASF173
/var/folders/rt/4gvqv631095f64jvm7jfj_000000gn/T//ccMITFEw.s:5063   .debug_str:0000000000000de3 .LASF174
/var/folders/rt/4gvqv631095f64jvm7jfj_000000gn/T//ccMITFEw.s:4911   .debug_str:0000000000000a4e .LASF175
/var/folders/rt/4gvqv631095f64jvm7jfj_000000gn/T//ccMITFEw.s:4989   .debug_str:0000000000000c2e .LASF176
/var/folders/rt/4gvqv631095f64jvm7jfj_000000gn/T//ccMITFEw.s:5013   .debug_str:0000000000000cc5 .LASF177
/var/folders/rt/4gvqv631095f64jvm7jfj_000000gn/T//ccMITFEw.s:4861   .debug_str:000000000000090c .LASF178
/var/folders/rt/4gvqv631095f64jvm7jfj_000000gn/T//ccMITFEw.s:4673   .debug_str:00000000000004a4 .LASF179
/var/folders/rt/4gvqv631095f64jvm7jfj_000000gn/T//ccMITFEw.s:4683   .debug_str:00000000000004d9 .LASF180
/var/folders/rt/4gvqv631095f64jvm7jfj_000000gn/T//ccMITFEw.s:5011   .debug_str:0000000000000cbe .LASF181
/var/folders/rt/4gvqv631095f64jvm7jfj_000000gn/T//ccMITFEw.s:4927   .debug_str:0000000000000ab9 .LASF182
/var/folders/rt/4gvqv631095f64jvm7jfj_000000gn/T//ccMITFEw.s:4615   .debug_str:00000000000002f4 .LASF183
/var/folders/rt/4gvqv631095f64jvm7jfj_000000gn/T//ccMITFEw.s:5051   .debug_str:0000000000000d82 .LASF184
/var/folders/rt/4gvqv631095f64jvm7jfj_000000gn/T//ccMITFEw.s:4859   .debug_str:0000000000000905 .LASF185
/var/folders/rt/4gvqv631095f64jvm7jfj_000000gn/T//ccMITFEw.s:4603   .debug_str:00000000000002b5 .LASF186
/var/folders/rt/4gvqv631095f64jvm7jfj_000000gn/T//ccMITFEw.s:5003   .debug_str:0000000000000c89 .LASF187
/var/folders/rt/4gvqv631095f64jvm7jfj_000000gn/T//ccMITFEw.s:4713   .debug_str:000000000000059a .LASF188
/var/folders/rt/4gvqv631095f64jvm7jfj_000000gn/T//ccMITFEw.s:4519   .debug_str:000000000000006d .LASF189
/var/folders/rt/4gvqv631095f64jvm7jfj_000000gn/T//ccMITFEw.s:4525   .debug_str:0000000000000085 .LASF190
/var/folders/rt/4gvqv631095f64jvm7jfj_000000gn/T//ccMITFEw.s:4889   .debug_str:00000000000009af .LASF191
/var/folders/rt/4gvqv631095f64jvm7jfj_000000gn/T//ccMITFEw.s:4685   .debug_str:00000000000004de .LASF192
/var/folders/rt/4gvqv631095f64jvm7jfj_000000gn/T//ccMITFEw.s:4847   .debug_str:00000000000008c2 .LASF193
/var/folders/rt/4gvqv631095f64jvm7jfj_000000gn/T//ccMITFEw.s:4545   .debug_str:00000000000000eb .LASF194
/var/folders/rt/4gvqv631095f64jvm7jfj_000000gn/T//ccMITFEw.s:4923   .debug_str:0000000000000aa4 .LASF195
/var/folders/rt/4gvqv631095f64jvm7jfj_000000gn/T//ccMITFEw.s:4719   .debug_str:00000000000005b1 .LASF196
/var/folders/rt/4gvqv631095f64jvm7jfj_000000gn/T//ccMITFEw.s:4961   .debug_str:0000000000000b7b .LASF197
GAS LISTING /var/folders/rt/4gvqv631095f64jvm7jfj_000000gn/T//ccMITFEw.s 			page 24


/var/folders/rt/4gvqv631095f64jvm7jfj_000000gn/T//ccMITFEw.s:4571   .debug_str:000000000000017b .LASF198
/var/folders/rt/4gvqv631095f64jvm7jfj_000000gn/T//ccMITFEw.s:4853   .debug_str:00000000000008de .LASF199
/var/folders/rt/4gvqv631095f64jvm7jfj_000000gn/T//ccMITFEw.s:4737   .debug_str:000000000000061b .LASF200
/var/folders/rt/4gvqv631095f64jvm7jfj_000000gn/T//ccMITFEw.s:4659   .debug_str:0000000000000409 .LASF201
/var/folders/rt/4gvqv631095f64jvm7jfj_000000gn/T//ccMITFEw.s:4745   .debug_str:000000000000064c .LASF202
/var/folders/rt/4gvqv631095f64jvm7jfj_000000gn/T//ccMITFEw.s:4697   .debug_str:000000000000052c .LASF203
/var/folders/rt/4gvqv631095f64jvm7jfj_000000gn/T//ccMITFEw.s:4919   .debug_str:0000000000000a90 .LASF204
/var/folders/rt/4gvqv631095f64jvm7jfj_000000gn/T//ccMITFEw.s:4849   .debug_str:00000000000008c8 .LASF205
/var/folders/rt/4gvqv631095f64jvm7jfj_000000gn/T//ccMITFEw.s:5005   .debug_str:0000000000000c92 .LASF206
/var/folders/rt/4gvqv631095f64jvm7jfj_000000gn/T//ccMITFEw.s:4829   .debug_str:000000000000085e .LASF207
/var/folders/rt/4gvqv631095f64jvm7jfj_000000gn/T//ccMITFEw.s:4655   .debug_str:00000000000003e3 .LASF208
/var/folders/rt/4gvqv631095f64jvm7jfj_000000gn/T//ccMITFEw.s:5025   .debug_str:0000000000000cfc .LASF209
/var/folders/rt/4gvqv631095f64jvm7jfj_000000gn/T//ccMITFEw.s:4735   .debug_str:0000000000000610 .LASF210
/var/folders/rt/4gvqv631095f64jvm7jfj_000000gn/T//ccMITFEw.s:4767   .debug_str:00000000000006db .LASF211
/var/folders/rt/4gvqv631095f64jvm7jfj_000000gn/T//ccMITFEw.s:5035   .debug_str:0000000000000d27 .LASF212
/var/folders/rt/4gvqv631095f64jvm7jfj_000000gn/T//ccMITFEw.s:4613   .debug_str:00000000000002ea .LASF213
/var/folders/rt/4gvqv631095f64jvm7jfj_000000gn/T//ccMITFEw.s:4727   .debug_str:00000000000005d9 .LASF214
/var/folders/rt/4gvqv631095f64jvm7jfj_000000gn/T//ccMITFEw.s:4815   .debug_str:0000000000000808 .LASF215
/var/folders/rt/4gvqv631095f64jvm7jfj_000000gn/T//ccMITFEw.s:4529   .debug_str:0000000000000099 .LASF216
/var/folders/rt/4gvqv631095f64jvm7jfj_000000gn/T//ccMITFEw.s:4721   .debug_str:00000000000005b9 .LASF217
/var/folders/rt/4gvqv631095f64jvm7jfj_000000gn/T//ccMITFEw.s:4845   .debug_str:00000000000008bd .LASF218
/var/folders/rt/4gvqv631095f64jvm7jfj_000000gn/T//ccMITFEw.s:4769   .debug_str:00000000000006e5 .LASF219
/var/folders/rt/4gvqv631095f64jvm7jfj_000000gn/T//ccMITFEw.s:4717   .debug_str:00000000000005a7 .LASF220
/var/folders/rt/4gvqv631095f64jvm7jfj_000000gn/T//ccMITFEw.s:4801   .debug_str:0000000000000791 .LASF221
/var/folders/rt/4gvqv631095f64jvm7jfj_000000gn/T//ccMITFEw.s:4513   .debug_str:000000000000004b .LASF222
/var/folders/rt/4gvqv631095f64jvm7jfj_000000gn/T//ccMITFEw.s:4679   .debug_str:00000000000004c5 .LASF223
/var/folders/rt/4gvqv631095f64jvm7jfj_000000gn/T//ccMITFEw.s:4939   .debug_str:0000000000000b02 .LASF224
/var/folders/rt/4gvqv631095f64jvm7jfj_000000gn/T//ccMITFEw.s:4821   .debug_str:0000000000000828 .LASF225
/var/folders/rt/4gvqv631095f64jvm7jfj_000000gn/T//ccMITFEw.s:4793   .debug_str:000000000000076b .LASF226
/var/folders/rt/4gvqv631095f64jvm7jfj_000000gn/T//ccMITFEw.s:4817   .debug_str:0000000000000812 .LASF227
/var/folders/rt/4gvqv631095f64jvm7jfj_000000gn/T//ccMITFEw.s:4915   .debug_str:0000000000000a6e .LASF228
/var/folders/rt/4gvqv631095f64jvm7jfj_000000gn/T//ccMITFEw.s:4885   .debug_str:000000000000099d .LASF229
/var/folders/rt/4gvqv631095f64jvm7jfj_000000gn/T//ccMITFEw.s:4579   .debug_str:000000000000022a .LASF230
/var/folders/rt/4gvqv631095f64jvm7jfj_000000gn/T//ccMITFEw.s:5045   .debug_str:0000000000000d60 .LASF231
/var/folders/rt/4gvqv631095f64jvm7jfj_000000gn/T//ccMITFEw.s:4639   .debug_str:000000000000037a .LASF232
/var/folders/rt/4gvqv631095f64jvm7jfj_000000gn/T//ccMITFEw.s:4931   .debug_str:0000000000000ad2 .LASF233
/var/folders/rt/4gvqv631095f64jvm7jfj_000000gn/T//ccMITFEw.s:4527   .debug_str:000000000000008c .LASF234
/var/folders/rt/4gvqv631095f64jvm7jfj_000000gn/T//ccMITFEw.s:4625   .debug_str:0000000000000325 .LASF235
/var/folders/rt/4gvqv631095f64jvm7jfj_000000gn/T//ccMITFEw.s:4809   .debug_str:00000000000007c5 .LASF236
/var/folders/rt/4gvqv631095f64jvm7jfj_000000gn/T//ccMITFEw.s:4855   .debug_str:00000000000008e7 .LASF237
/var/folders/rt/4gvqv631095f64jvm7jfj_000000gn/T//ccMITFEw.s:4945   .debug_str:0000000000000b2a .LASF238
/var/folders/rt/4gvqv631095f64jvm7jfj_000000gn/T//ccMITFEw.s:4977   .debug_str:0000000000000be7 .LASF239
/var/folders/rt/4gvqv631095f64jvm7jfj_000000gn/T//ccMITFEw.s:4901   .debug_str:00000000000009f0 .LASF240
/var/folders/rt/4gvqv631095f64jvm7jfj_000000gn/T//ccMITFEw.s:4851   .debug_str:00000000000008d0 .LASF241
/var/folders/rt/4gvqv631095f64jvm7jfj_000000gn/T//ccMITFEw.s:4895   .debug_str:00000000000009c4 .LASF242
/var/folders/rt/4gvqv631095f64jvm7jfj_000000gn/T//ccMITFEw.s:4751   .debug_str:0000000000000680 .LASF243
/var/folders/rt/4gvqv631095f64jvm7jfj_000000gn/T//ccMITFEw.s:5073   .debug_str:0000000000000e2c .LASF244
/var/folders/rt/4gvqv631095f64jvm7jfj_000000gn/T//ccMITFEw.s:4607   .debug_str:00000000000002c7 .LASF245
/var/folders/rt/4gvqv631095f64jvm7jfj_000000gn/T//ccMITFEw.s:4933   .debug_str:0000000000000adf .LASF246
/var/folders/rt/4gvqv631095f64jvm7jfj_000000gn/T//ccMITFEw.s:5057   .debug_str:0000000000000da1 .LASF247
/var/folders/rt/4gvqv631095f64jvm7jfj_000000gn/T//ccMITFEw.s:4841   .debug_str:00000000000008a4 .LASF248
/var/folders/rt/4gvqv631095f64jvm7jfj_000000gn/T//ccMITFEw.s:4543   .debug_str:00000000000000da .LASF249
/var/folders/rt/4gvqv631095f64jvm7jfj_000000gn/T//ccMITFEw.s:4837   .debug_str:000000000000088e .LASF250
/var/folders/rt/4gvqv631095f64jvm7jfj_000000gn/T//ccMITFEw.s:5017   .debug_str:0000000000000cd6 .LASF251
/var/folders/rt/4gvqv631095f64jvm7jfj_000000gn/T//ccMITFEw.s:4805   .debug_str:00000000000007a9 .LASF252
/var/folders/rt/4gvqv631095f64jvm7jfj_000000gn/T//ccMITFEw.s:4539   .debug_str:00000000000000cd .LASF253
/var/folders/rt/4gvqv631095f64jvm7jfj_000000gn/T//ccMITFEw.s:4507   .debug_str:0000000000000023 .LASF289
GAS LISTING /var/folders/rt/4gvqv631095f64jvm7jfj_000000gn/T//ccMITFEw.s 			page 25


/var/folders/rt/4gvqv631095f64jvm7jfj_000000gn/T//ccMITFEw.s:4611   .debug_str:00000000000002de .LASF255
/var/folders/rt/4gvqv631095f64jvm7jfj_000000gn/T//ccMITFEw.s:4661   .debug_str:0000000000000410 .LASF256
/var/folders/rt/4gvqv631095f64jvm7jfj_000000gn/T//ccMITFEw.s:4987   .debug_str:0000000000000c24 .LASF257
/var/folders/rt/4gvqv631095f64jvm7jfj_000000gn/T//ccMITFEw.s:4935   .debug_str:0000000000000aee .LASF258
/var/folders/rt/4gvqv631095f64jvm7jfj_000000gn/T//ccMITFEw.s:4869   .debug_str:0000000000000934 .LASF259
/var/folders/rt/4gvqv631095f64jvm7jfj_000000gn/T//ccMITFEw.s:465    .text.u0init:0000000000000000 .LFB6
/var/folders/rt/4gvqv631095f64jvm7jfj_000000gn/T//ccMITFEw.s:608    .text.u0init:000000000000011c .LFE6
/var/folders/rt/4gvqv631095f64jvm7jfj_000000gn/T//ccMITFEw.s:4264   .debug_loc:0000000000000000 .LLST7
/var/folders/rt/4gvqv631095f64jvm7jfj_000000gn/T//ccMITFEw.s:4795   .debug_str:0000000000000772 .LASF261
/var/folders/rt/4gvqv631095f64jvm7jfj_000000gn/T//ccMITFEw.s:4292   .debug_loc:0000000000000044 .LLST8
/var/folders/rt/4gvqv631095f64jvm7jfj_000000gn/T//ccMITFEw.s:487    .text.u0init:0000000000000016 .LVL30
/var/folders/rt/4gvqv631095f64jvm7jfj_000000gn/T//ccMITFEw.s:495    .text.u0init:000000000000002e .LVL31
/var/folders/rt/4gvqv631095f64jvm7jfj_000000gn/T//ccMITFEw.s:502    .text.u0init:0000000000000044 .LVL32
/var/folders/rt/4gvqv631095f64jvm7jfj_000000gn/T//ccMITFEw.s:509    .text.u0init:0000000000000054 .LVL33
/var/folders/rt/4gvqv631095f64jvm7jfj_000000gn/T//ccMITFEw.s:513    .text.u0init:0000000000000060 .LVL34
/var/folders/rt/4gvqv631095f64jvm7jfj_000000gn/T//ccMITFEw.s:519    .text.u0init:0000000000000072 .LVL35
/var/folders/rt/4gvqv631095f64jvm7jfj_000000gn/T//ccMITFEw.s:524    .text.u0init:0000000000000080 .LVL36
/var/folders/rt/4gvqv631095f64jvm7jfj_000000gn/T//ccMITFEw.s:529    .text.u0init:000000000000008e .LVL37
/var/folders/rt/4gvqv631095f64jvm7jfj_000000gn/T//ccMITFEw.s:534    .text.u0init:000000000000009c .LVL38
/var/folders/rt/4gvqv631095f64jvm7jfj_000000gn/T//ccMITFEw.s:539    .text.u0init:00000000000000aa .LVL39
/var/folders/rt/4gvqv631095f64jvm7jfj_000000gn/T//ccMITFEw.s:544    .text.u0init:00000000000000b8 .LVL40
/var/folders/rt/4gvqv631095f64jvm7jfj_000000gn/T//ccMITFEw.s:548    .text.u0init:00000000000000c4 .LVL41
/var/folders/rt/4gvqv631095f64jvm7jfj_000000gn/T//ccMITFEw.s:553    .text.u0init:00000000000000d2 .LVL42
/var/folders/rt/4gvqv631095f64jvm7jfj_000000gn/T//ccMITFEw.s:558    .text.u0init:00000000000000e0 .LVL43
/var/folders/rt/4gvqv631095f64jvm7jfj_000000gn/T//ccMITFEw.s:566    .text.u0init:00000000000000f2 .LVL44
/var/folders/rt/4gvqv631095f64jvm7jfj_000000gn/T//ccMITFEw.s:591    .text.u0init:0000000000000112 .LVL46
/var/folders/rt/4gvqv631095f64jvm7jfj_000000gn/T//ccMITFEw.s:4755   .debug_str:0000000000000699 .LASF260
/var/folders/rt/4gvqv631095f64jvm7jfj_000000gn/T//ccMITFEw.s:415    .text.putstr:0000000000000000 .LFB5
/var/folders/rt/4gvqv631095f64jvm7jfj_000000gn/T//ccMITFEw.s:458    .text.putstr:0000000000000022 .LFE5
/var/folders/rt/4gvqv631095f64jvm7jfj_000000gn/T//ccMITFEw.s:4321   .debug_loc:0000000000000089 .LLST5
/var/folders/rt/4gvqv631095f64jvm7jfj_000000gn/T//ccMITFEw.s:4344   .debug_loc:00000000000000c1 .LLST6
/var/folders/rt/4gvqv631095f64jvm7jfj_000000gn/T//ccMITFEw.s:455    .text.putstr:0000000000000020 .LVL27
/var/folders/rt/4gvqv631095f64jvm7jfj_000000gn/T//ccMITFEw.s:5081   .debug_str:0000000000000e5e .LASF262
/var/folders/rt/4gvqv631095f64jvm7jfj_000000gn/T//ccMITFEw.s:326    .text.putch:0000000000000000 .LFB4
/var/folders/rt/4gvqv631095f64jvm7jfj_000000gn/T//ccMITFEw.s:408    .text.putch:000000000000006a .LFE4
/var/folders/rt/4gvqv631095f64jvm7jfj_000000gn/T//ccMITFEw.s:4359   .debug_loc:00000000000000ea .LLST3
/var/folders/rt/4gvqv631095f64jvm7jfj_000000gn/T//ccMITFEw.s:4382   .debug_loc:0000000000000122 .LLST4
/var/folders/rt/4gvqv631095f64jvm7jfj_000000gn/T//ccMITFEw.s:397    .text.putch:000000000000005c .LVL20
/var/folders/rt/4gvqv631095f64jvm7jfj_000000gn/T//ccMITFEw.s:404    .text.putch:0000000000000066 .LVL21
/var/folders/rt/4gvqv631095f64jvm7jfj_000000gn/T//ccMITFEw.s:5055   .debug_str:0000000000000d95 .LASF290
/var/folders/rt/4gvqv631095f64jvm7jfj_000000gn/T//ccMITFEw.s:4897   .debug_str:00000000000009ce .LASF291
/var/folders/rt/4gvqv631095f64jvm7jfj_000000gn/T//ccMITFEw.s:14     .text.wifiIsrHandler:0000000000000000 .LFB2
/var/folders/rt/4gvqv631095f64jvm7jfj_000000gn/T//ccMITFEw.s:214    .text.wifiIsrHandler:0000000000000162 .LFE2
/var/folders/rt/4gvqv631095f64jvm7jfj_000000gn/T//ccMITFEw.s:4396   .debug_loc:0000000000000143 .LLST0
/var/folders/rt/4gvqv631095f64jvm7jfj_000000gn/T//ccMITFEw.s:88     .text.wifiIsrHandler:000000000000008e .LBB7
/var/folders/rt/4gvqv631095f64jvm7jfj_000000gn/T//ccMITFEw.s:4419   .debug_loc:000000000000017b .LLST1
/var/folders/rt/4gvqv631095f64jvm7jfj_000000gn/T//ccMITFEw.s:94     .text.wifiIsrHandler:000000000000009a .LVL4
/var/folders/rt/4gvqv631095f64jvm7jfj_000000gn/T//ccMITFEw.s:102    .text.wifiIsrHandler:00000000000000aa .LVL5
/var/folders/rt/4gvqv631095f64jvm7jfj_000000gn/T//ccMITFEw.s:142    .text.wifiIsrHandler:00000000000000f4 .LVL8
/var/folders/rt/4gvqv631095f64jvm7jfj_000000gn/T//ccMITFEw.s:151    .text.wifiIsrHandler:000000000000010a .LVL9
/var/folders/rt/4gvqv631095f64jvm7jfj_000000gn/T//ccMITFEw.s:195    .text.wifiIsrHandler:0000000000000142 .LVL13
/var/folders/rt/4gvqv631095f64jvm7jfj_000000gn/T//ccMITFEw.s:205    .text.wifiIsrHandler:000000000000015c .LVL14
/var/folders/rt/4gvqv631095f64jvm7jfj_000000gn/T//ccMITFEw.s:37     .text.wifiIsrHandler:0000000000000020 .LVL0
/var/folders/rt/4gvqv631095f64jvm7jfj_000000gn/T//ccMITFEw.s:53     .text.wifiIsrHandler:0000000000000044 .LVL1
/var/folders/rt/4gvqv631095f64jvm7jfj_000000gn/T//ccMITFEw.s:70     .text.wifiIsrHandler:0000000000000068 .LVL2
/var/folders/rt/4gvqv631095f64jvm7jfj_000000gn/T//ccMITFEw.s:85     .text.wifiIsrHandler:000000000000008c .LVL3
/var/folders/rt/4gvqv631095f64jvm7jfj_000000gn/T//ccMITFEw.s:177    .text.wifiIsrHandler:0000000000000128 .LVL10
GAS LISTING /var/folders/rt/4gvqv631095f64jvm7jfj_000000gn/T//ccMITFEw.s 			page 26


/var/folders/rt/4gvqv631095f64jvm7jfj_000000gn/T//ccMITFEw.s:221    .text.u0_TX_Queue:0000000000000000 .LFB3
/var/folders/rt/4gvqv631095f64jvm7jfj_000000gn/T//ccMITFEw.s:319    .text.u0_TX_Queue:0000000000000088 .LFE3
/var/folders/rt/4gvqv631095f64jvm7jfj_000000gn/T//ccMITFEw.s:4430   .debug_loc:0000000000000199 .LLST2
/var/folders/rt/4gvqv631095f64jvm7jfj_000000gn/T//ccMITFEw.s:254    .text.u0_TX_Queue:0000000000000032 .LBB13
/var/folders/rt/4gvqv631095f64jvm7jfj_000000gn/T//ccMITFEw.s:281    .text.u0_TX_Queue:0000000000000062 .LBE13
/var/folders/rt/4gvqv631095f64jvm7jfj_000000gn/T//ccMITFEw.s:272    .text.u0_TX_Queue:0000000000000056 .LVL16
/var/folders/rt/4gvqv631095f64jvm7jfj_000000gn/T//ccMITFEw.s:251    .text.u0_TX_Queue:0000000000000030 .LVL15
/var/folders/rt/4gvqv631095f64jvm7jfj_000000gn/T//ccMITFEw.s:317    .text.u0_TX_Queue:0000000000000088 .LVL17
/var/folders/rt/4gvqv631095f64jvm7jfj_000000gn/T//ccMITFEw.s:5061   .debug_str:0000000000000dcb .LASF263
/var/folders/rt/4gvqv631095f64jvm7jfj_000000gn/T//ccMITFEw.s:4951   .debug_str:0000000000000b41 .LASF264
/var/folders/rt/4gvqv631095f64jvm7jfj_000000gn/T//ccMITFEw.s:4753   .debug_str:000000000000068c .LASF265
/var/folders/rt/4gvqv631095f64jvm7jfj_000000gn/T//ccMITFEw.s:4573   .debug_str:0000000000000181 .LASF266
/var/folders/rt/4gvqv631095f64jvm7jfj_000000gn/T//ccMITFEw.s:4969   .debug_str:0000000000000ba0 .LASF267
/var/folders/rt/4gvqv631095f64jvm7jfj_000000gn/T//ccMITFEw.s:4749   .debug_str:000000000000066a .LASF268
/var/folders/rt/4gvqv631095f64jvm7jfj_000000gn/T//ccMITFEw.s:4975   .debug_str:0000000000000bd4 .LASF269
/var/folders/rt/4gvqv631095f64jvm7jfj_000000gn/T//ccMITFEw.s:4811   .debug_str:00000000000007d4 .LASF270
/var/folders/rt/4gvqv631095f64jvm7jfj_000000gn/T//ccMITFEw.s:4827   .debug_str:000000000000083f .LASF271
/var/folders/rt/4gvqv631095f64jvm7jfj_000000gn/T//ccMITFEw.s:4701   .debug_str:0000000000000542 .LASF272
/var/folders/rt/4gvqv631095f64jvm7jfj_000000gn/T//ccMITFEw.s:4941   .debug_str:0000000000000b09 .LASF273
/var/folders/rt/4gvqv631095f64jvm7jfj_000000gn/T//ccMITFEw.s:4511   .debug_str:0000000000000036 .LASF274
/var/folders/rt/4gvqv631095f64jvm7jfj_000000gn/T//ccMITFEw.s:4747   .debug_str:0000000000000653 .LASF275
/var/folders/rt/4gvqv631095f64jvm7jfj_000000gn/T//ccMITFEw.s:4991   .debug_str:0000000000000c37 .LASF276
/var/folders/rt/4gvqv631095f64jvm7jfj_000000gn/T//ccMITFEw.s:4583   .debug_str:000000000000023c .LASF277
/var/folders/rt/4gvqv631095f64jvm7jfj_000000gn/T//ccMITFEw.s:4857   .debug_str:00000000000008f2 .LASF278
/var/folders/rt/4gvqv631095f64jvm7jfj_000000gn/T//ccMITFEw.s:4521   .debug_str:0000000000000073 .LASF279
/var/folders/rt/4gvqv631095f64jvm7jfj_000000gn/T//ccMITFEw.s:4605   .debug_str:00000000000002bb .LASF280
/var/folders/rt/4gvqv631095f64jvm7jfj_000000gn/T//ccMITFEw.s:5069   .debug_str:0000000000000e0a .LASF281
/var/folders/rt/4gvqv631095f64jvm7jfj_000000gn/T//ccMITFEw.s:4629   .debug_str:000000000000033d .LASF282
/var/folders/rt/4gvqv631095f64jvm7jfj_000000gn/T//ccMITFEw.s:4909   .debug_str:0000000000000a36 .LASF283
/var/folders/rt/4gvqv631095f64jvm7jfj_000000gn/T//ccMITFEw.s:4993   .debug_str:0000000000000c45 .LASF284
/var/folders/rt/4gvqv631095f64jvm7jfj_000000gn/T//ccMITFEw.s:472    .text.u0init:0000000000000002 .LCFI13
/var/folders/rt/4gvqv631095f64jvm7jfj_000000gn/T//ccMITFEw.s:587    .text.u0init:000000000000010a .LCFI14
/var/folders/rt/4gvqv631095f64jvm7jfj_000000gn/T//ccMITFEw.s:593    .text.u0init:0000000000000112 .LCFI15
/var/folders/rt/4gvqv631095f64jvm7jfj_000000gn/T//ccMITFEw.s:604    .text.u0init:000000000000011a .LCFI16
/var/folders/rt/4gvqv631095f64jvm7jfj_000000gn/T//ccMITFEw.s:468    .text.u0init:0000000000000000 .LVL28
/var/folders/rt/4gvqv631095f64jvm7jfj_000000gn/T//ccMITFEw.s:479    .text.u0init:000000000000000a .LVL29
/var/folders/rt/4gvqv631095f64jvm7jfj_000000gn/T//ccMITFEw.s:576    .text.u0init:00000000000000f8 .LVL45
/var/folders/rt/4gvqv631095f64jvm7jfj_000000gn/T//ccMITFEw.s:602    .text.u0init:0000000000000118 .LVL47
/var/folders/rt/4gvqv631095f64jvm7jfj_000000gn/T//ccMITFEw.s:420    .text.putstr:0000000000000002 .LCFI10
/var/folders/rt/4gvqv631095f64jvm7jfj_000000gn/T//ccMITFEw.s:442    .text.putstr:0000000000000014 .LCFI11
/var/folders/rt/4gvqv631095f64jvm7jfj_000000gn/T//ccMITFEw.s:447    .text.putstr:0000000000000016 .LCFI12
/var/folders/rt/4gvqv631095f64jvm7jfj_000000gn/T//ccMITFEw.s:418    .text.putstr:0000000000000000 .LVL22
/var/folders/rt/4gvqv631095f64jvm7jfj_000000gn/T//ccMITFEw.s:428    .text.putstr:0000000000000008 .LVL23
/var/folders/rt/4gvqv631095f64jvm7jfj_000000gn/T//ccMITFEw.s:440    .text.putstr:0000000000000012 .LVL24
/var/folders/rt/4gvqv631095f64jvm7jfj_000000gn/T//ccMITFEw.s:445    .text.putstr:0000000000000016 .LVL25
/var/folders/rt/4gvqv631095f64jvm7jfj_000000gn/T//ccMITFEw.s:333    .text.putch:0000000000000002 .LCFI7
/var/folders/rt/4gvqv631095f64jvm7jfj_000000gn/T//ccMITFEw.s:393    .text.putch:0000000000000054 .LCFI8
/var/folders/rt/4gvqv631095f64jvm7jfj_000000gn/T//ccMITFEw.s:399    .text.putch:000000000000005c .LCFI9
/var/folders/rt/4gvqv631095f64jvm7jfj_000000gn/T//ccMITFEw.s:329    .text.putch:0000000000000000 .LVL18
/var/folders/rt/4gvqv631095f64jvm7jfj_000000gn/T//ccMITFEw.s:349    .text.putch:0000000000000016 .LVL19
/var/folders/rt/4gvqv631095f64jvm7jfj_000000gn/T//ccMITFEw.s:21     .text.wifiIsrHandler:0000000000000002 .LCFI0
/var/folders/rt/4gvqv631095f64jvm7jfj_000000gn/T//ccMITFEw.s:167    .text.wifiIsrHandler:0000000000000116 .LCFI1
/var/folders/rt/4gvqv631095f64jvm7jfj_000000gn/T//ccMITFEw.s:171    .text.wifiIsrHandler:0000000000000118 .LCFI2
/var/folders/rt/4gvqv631095f64jvm7jfj_000000gn/T//ccMITFEw.s:110    .text.wifiIsrHandler:00000000000000b8 .LVL6
/var/folders/rt/4gvqv631095f64jvm7jfj_000000gn/T//ccMITFEw.s:137    .text.wifiIsrHandler:00000000000000e8 .LVL7
/var/folders/rt/4gvqv631095f64jvm7jfj_000000gn/T//ccMITFEw.s:179    .text.wifiIsrHandler:000000000000012a .LVL11
/var/folders/rt/4gvqv631095f64jvm7jfj_000000gn/T//ccMITFEw.s:193    .text.wifiIsrHandler:000000000000013a .LVL12
GAS LISTING /var/folders/rt/4gvqv631095f64jvm7jfj_000000gn/T//ccMITFEw.s 			page 27


/var/folders/rt/4gvqv631095f64jvm7jfj_000000gn/T//ccMITFEw.s:227    .text.u0_TX_Queue:0000000000000002 .LCFI3
/var/folders/rt/4gvqv631095f64jvm7jfj_000000gn/T//ccMITFEw.s:291    .text.u0_TX_Queue:000000000000006a .LCFI4
/var/folders/rt/4gvqv631095f64jvm7jfj_000000gn/T//ccMITFEw.s:295    .text.u0_TX_Queue:000000000000006c .LCFI5
/var/folders/rt/4gvqv631095f64jvm7jfj_000000gn/T//ccMITFEw.s:313    .text.u0_TX_Queue:0000000000000080 .LCFI6
/var/folders/rt/4gvqv631095f64jvm7jfj_000000gn/T//ccMITFEw.s:665    .debug_info:0000000000000000 .Ldebug_info0
/var/folders/rt/4gvqv631095f64jvm7jfj_000000gn/T//ccMITFEw.s:157    .text.wifiIsrHandler:000000000000010e .LBE7
/var/folders/rt/4gvqv631095f64jvm7jfj_000000gn/T//ccMITFEw.s:181    .text.wifiIsrHandler:000000000000012a .LBB10
/var/folders/rt/4gvqv631095f64jvm7jfj_000000gn/T//ccMITFEw.s:210    .text.wifiIsrHandler:0000000000000160 .LBE10

UNDEFINED SYMBOLS
usart_interrupt_flag_get
l88mem
usart_data_transmit
usart_data_receive
LCD_Clear
LCD_ShowStr
usart_interrupt_disable
usart_flag_get
usart_interrupt_enable
rcu_periph_clock_enable
gpio_init
usart_deinit
usart_baudrate_set
usart_parity_config
usart_word_length_set
usart_stop_bit_set
usart_hardware_flow_rts_config
usart_hardware_flow_cts_config
usart_enable
usart_transmit_config
usart_receive_config
eclicw_enable
