GAS LISTING /var/folders/rt/4gvqv631095f64jvm7jfj_000000gn/T//ccDhfxRf.s 			page 1


   1              		.file	"usart.c"
   2              		.option nopic
   3              		.attribute arch, "rv32i2p0_m2p0_a2p0_c2p0"
   4              		.attribute unaligned_access, 0
   5              		.attribute stack_align, 16
   6              		.text
   7              	.Ltext0:
   8              		.cfi_sections	.debug_frame
   9              		.section	.text.wifiIsrHandler,"ax",@progbits
  10              		.align	1
  11              		.globl	wifiIsrHandler
  13              	wifiIsrHandler:
  14              	.LFB2:
  15              		.file 1 "usart.c"
   1:usart.c       **** #include "gd32vf103.h"
   2:usart.c       **** #include "usart.h"
   3:usart.c       **** #include "eclicw.h"
   4:usart.c       **** #define BUF_SIZE 256
   5:usart.c       **** 
   6:usart.c       **** int txr = 0, txw = 0, txq[512] = {0}; // 256 Byte wr queue
   7:usart.c       **** 
   8:usart.c       **** volatile char commandBuffer[BUF_SIZE];
   9:usart.c       **** volatile int commandBufferIndex = 0;
  10:usart.c       **** 
  11:usart.c       **** void wifiIsrHandler(void)
  12:usart.c       **** {
  16              		.loc 1 12 1
  17              		.cfi_startproc
  13:usart.c       ****   // TRANSMIT
  14:usart.c       ****   if (usart_interrupt_flag_get(USART0, USART_INT_FLAG_TBE))
  18              		.loc 1 14 3
  12:usart.c       ****   // TRANSMIT
  19              		.loc 1 12 1 is_stmt 0
  20 0000 0111     		addi	sp,sp,-32
  21              	.LCFI0:
  22              		.cfi_def_cfa_offset 32
  23 0002 26CA     		sw	s1,20(sp)
  24              		.loc 1 14 7
  25 0004 B7050700 		li	a1,458752
  26              		.cfi_offset 9, -12
  27 0008 B7440140 		li	s1,1073823744
  28 000c 93857530 		addi	a1,a1,775
  29 0010 13850480 		addi	a0,s1,-2048
  12:usart.c       ****   // TRANSMIT
  30              		.loc 1 12 1
  31 0014 06CE     		sw	ra,28(sp)
  32 0016 22CC     		sw	s0,24(sp)
  33 0018 4AC8     		sw	s2,16(sp)
  34 001a 4EC6     		sw	s3,12(sp)
  35              		.cfi_offset 1, -4
  36              		.cfi_offset 8, -8
  37              		.cfi_offset 18, -16
  38              		.cfi_offset 19, -20
  39              		.loc 1 14 7
  40 001c 97000000 		call	usart_interrupt_flag_get
  40      E7800000 
  41              	.LVL0:
GAS LISTING /var/folders/rt/4gvqv631095f64jvm7jfj_000000gn/T//ccDhfxRf.s 			page 2


  42              		.loc 1 14 6
  43 0024 31C1     		beq	a0,zero,.L2
  15:usart.c       ****   {
  16:usart.c       ****     if (txr != txw)
  44              		.loc 1 16 5 is_stmt 1
  45              		.loc 1 16 13 is_stmt 0
  46 0026 37040000 		lui	s0,%hi(.LANCHOR0)
  47 002a 13040400 		addi	s0,s0,%lo(.LANCHOR0)
  48              		.loc 1 16 8
  49 002e B7070000 		lui	a5,%hi(.LANCHOR1)
  50              		.loc 1 16 13
  51 0032 1840     		lw	a4,0(s0)
  52              		.loc 1 16 8
  53 0034 83A70700 		lw	a5,%lo(.LANCHOR1)(a5)
  54 0038 630DF706 		beq	a4,a5,.L3
  17:usart.c       ****     {
  18:usart.c       ****                                                 // ...no! Device redy?
  19:usart.c       ****       usart_data_transmit(USART0, txq[txr++]); //        Yes Write!
  55              		.loc 1 19 7 is_stmt 1
  56              		.loc 1 19 42 is_stmt 0
  57 003c 93071700 		addi	a5,a4,1
  58 0040 1CC0     		sw	a5,0(s0)
  59              		.loc 1 19 38
  60 0042 B7070000 		lui	a5,%hi(txq)
  61 0046 0A07     		slli	a4,a4,2
  62 0048 93870700 		addi	a5,a5,%lo(txq)
  63 004c BA97     		add	a5,a5,a4
  64              		.loc 1 19 7
  65 004e 8C43     		lw	a1,0(a5)
  66 0050 13850480 		addi	a0,s1,-2048
  67 0054 97000000 		call	usart_data_transmit
  67      E7800000 
  68              	.LVL1:
  20:usart.c       ****       txr %= 512;                              //            wrap around.
  69              		.loc 1 20 7 is_stmt 1
  70              		.loc 1 20 11 is_stmt 0
  71 005c 1C40     		lw	a5,0(s0)
  72 005e 13070020 		li	a4,512
  73 0062 B3E7E702 		rem	a5,a5,a4
  74 0066 1CC0     		sw	a5,0(s0)
  75              	.L2:
  21:usart.c       ****     }
  22:usart.c       ****     else
  23:usart.c       ****       usart_interrupt_disable(USART0, USART_INT_TBE);
  24:usart.c       ****   }
  25:usart.c       **** 
  26:usart.c       ****   // RECEIVE
  27:usart.c       ****   if (usart_interrupt_flag_get(USART0, USART_INT_FLAG_RBNE))
  76              		.loc 1 27 3 is_stmt 1
  77              		.loc 1 27 7 is_stmt 0
  78 0068 B7050500 		li	a1,327680
  79 006c 37440140 		li	s0,1073823744
  80 0070 93855530 		addi	a1,a1,773
  81 0074 13050480 		addi	a0,s0,-2048
  82 0078 97000000 		call	usart_interrupt_flag_get
  82      E7800000 
  83              	.LVL2:
GAS LISTING /var/folders/rt/4gvqv631095f64jvm7jfj_000000gn/T//ccDhfxRf.s 			page 3


  84              		.loc 1 27 6
  85 0080 15C1     		beq	a0,zero,.L1
  86              	.LBB6:
  87              	.LBB7:
  88              	.LBB8:
  28:usart.c       ****   {
  29:usart.c       ****     while (usart_flag_get(USART0, USART_FLAG_RBNE))
  30:usart.c       ****     {
  31:usart.c       ****       char c = usart_data_receive(USART0);
  32:usart.c       ****       if (commandBufferIndex < BUF_SIZE)
  33:usart.c       ****       {
  34:usart.c       ****         commandBuffer[commandBufferIndex++] = c;
  89              		.loc 1 34 45
  90 0082 B7040000 		lui	s1,%hi(commandBuffer)
  91              	.LBE8:
  29:usart.c       ****     {
  92              		.loc 1 29 12
  93 0086 13040480 		addi	s0,s0,-2048
  94              	.LBB9:
  32:usart.c       ****       {
  95              		.loc 1 32 30
  96 008a 37090000 		lui	s2,%hi(.LANCHOR2)
  32:usart.c       ****       {
  97              		.loc 1 32 10
  98 008e 9309F00F 		li	s3,255
  99              		.loc 1 34 45
 100 0092 93840400 		addi	s1,s1,%lo(commandBuffer)
 101              	.L5:
 102              	.LBE9:
  29:usart.c       ****     {
 103              		.loc 1 29 12
 104 0096 9545     		li	a1,5
 105 0098 2285     		mv	a0,s0
 106 009a 97000000 		call	usart_flag_get
 106      E7800000 
 107              	.LVL3:
  29:usart.c       ****     {
 108              		.loc 1 29 11
 109 00a2 0DE1     		bne	a0,zero,.L6
 110              	.L1:
 111              	.LBE7:
 112              	.LBE6:
  35:usart.c       ****       }
  36:usart.c       ****     }
  37:usart.c       ****   }
  38:usart.c       **** }
 113              		.loc 1 38 1
 114 00a4 F240     		lw	ra,28(sp)
 115              		.cfi_remember_state
 116              		.cfi_restore 1
 117 00a6 6244     		lw	s0,24(sp)
 118              		.cfi_restore 8
 119 00a8 D244     		lw	s1,20(sp)
 120              		.cfi_restore 9
 121 00aa 4249     		lw	s2,16(sp)
 122              		.cfi_restore 18
 123 00ac B249     		lw	s3,12(sp)
GAS LISTING /var/folders/rt/4gvqv631095f64jvm7jfj_000000gn/T//ccDhfxRf.s 			page 4


 124              		.cfi_restore 19
 125 00ae 0561     		addi	sp,sp,32
 126              	.LCFI1:
 127              		.cfi_def_cfa_offset 0
 128 00b0 8280     		jr	ra
 129              	.L3:
 130              	.LCFI2:
 131              		.cfi_restore_state
  23:usart.c       ****   }
 132              		.loc 1 23 7 is_stmt 1
 133 00b2 93057030 		li	a1,775
 134 00b6 13850480 		addi	a0,s1,-2048
 135 00ba 97000000 		call	usart_interrupt_disable
 135      E7800000 
 136              	.LVL4:
 137 00c2 5DB7     		j	.L2
 138              	.L6:
 139              	.LBB12:
 140              	.LBB11:
 141              	.LBB10:
  31:usart.c       ****       if (commandBufferIndex < BUF_SIZE)
 142              		.loc 1 31 7
  31:usart.c       ****       if (commandBufferIndex < BUF_SIZE)
 143              		.loc 1 31 16 is_stmt 0
 144 00c4 2285     		mv	a0,s0
 145 00c6 97000000 		call	usart_data_receive
 145      E7800000 
 146              	.LVL5:
  32:usart.c       ****       {
 147              		.loc 1 32 7 is_stmt 1
  32:usart.c       ****       {
 148              		.loc 1 32 30 is_stmt 0
 149 00ce 13070900 		addi	a4,s2,%lo(.LANCHOR2)
 150 00d2 1C43     		lw	a5,0(a4)
  32:usart.c       ****       {
 151              		.loc 1 32 10
 152 00d4 E3C1F9FC 		bgt	a5,s3,.L5
  34:usart.c       ****       }
 153              		.loc 1 34 9 is_stmt 1
  34:usart.c       ****       }
 154              		.loc 1 34 41 is_stmt 0
 155 00d8 1C43     		lw	a5,0(a4)
  31:usart.c       ****       if (commandBufferIndex < BUF_SIZE)
 156              		.loc 1 31 12
 157 00da 1375F50F 		andi	a0,a0,0xff
  34:usart.c       ****       }
 158              		.loc 1 34 41
 159 00de 93861700 		addi	a3,a5,1
 160 00e2 14C3     		sw	a3,0(a4)
  34:usart.c       ****       }
 161              		.loc 1 34 45
 162 00e4 A697     		add	a5,s1,a5
 163 00e6 2380A700 		sb	a0,0(a5)
 164 00ea 75B7     		j	.L5
 165              	.LBE10:
 166              	.LBE11:
 167              	.LBE12:
GAS LISTING /var/folders/rt/4gvqv631095f64jvm7jfj_000000gn/T//ccDhfxRf.s 			page 5


 168              		.cfi_endproc
 169              	.LFE2:
 171              		.section	.text.u0_TX_Queue,"ax",@progbits
 172              		.align	1
 173              		.globl	u0_TX_Queue
 175              	u0_TX_Queue:
 176              	.LFB3:
  39:usart.c       **** 
  40:usart.c       **** void u0_TX_Queue(void)
  41:usart.c       **** {
 177              		.loc 1 41 1 is_stmt 1
 178              		.cfi_startproc
  42:usart.c       ****   if (txr != txw)
 179              		.loc 1 42 3
  41:usart.c       ****   if (txr != txw)
 180              		.loc 1 41 1 is_stmt 0
 181 0000 4111     		addi	sp,sp,-16
 182              	.LCFI3:
 183              		.cfi_def_cfa_offset 16
 184 0002 22C4     		sw	s0,8(sp)
 185              		.cfi_offset 8, -8
 186              		.loc 1 42 11
 187 0004 37040000 		lui	s0,%hi(.LANCHOR0)
 188 0008 13040400 		addi	s0,s0,%lo(.LANCHOR0)
 189              		.loc 1 42 6
 190 000c B7070000 		lui	a5,%hi(.LANCHOR1)
 191 0010 1840     		lw	a4,0(s0)
 192 0012 83A70700 		lw	a5,%lo(.LANCHOR1)(a5)
  41:usart.c       ****   if (txr != txw)
 193              		.loc 1 41 1
 194 0016 06C6     		sw	ra,12(sp)
 195 0018 26C2     		sw	s1,4(sp)
 196              		.cfi_offset 1, -4
 197              		.cfi_offset 9, -12
 198              		.loc 1 42 6
 199 001a 6308F704 		beq	a4,a5,.L15
  43:usart.c       ****   { // Buffer empty?
  44:usart.c       ****     if (usart_flag_get(USART0, USART_FLAG_TBE))
 200              		.loc 1 44 5 is_stmt 1
 201              		.loc 1 44 9 is_stmt 0
 202 001e B7440140 		li	s1,1073823744
 203 0022 9D45     		li	a1,7
 204 0024 13850480 		addi	a0,s1,-2048
 205 0028 97000000 		call	usart_flag_get
 205      E7800000 
 206              	.LVL6:
 207              		.loc 1 44 8
 208 0030 05C9     		beq	a0,zero,.L14
 209              	.LBB15:
 210              	.LBB16:
  45:usart.c       ****     {                                          // ...no! Device redy?
  46:usart.c       ****       usart_data_transmit(USART0, txq[txr++]); //        Yes Write!
 211              		.loc 1 46 7 is_stmt 1
 212              		.loc 1 46 42 is_stmt 0
 213 0032 1840     		lw	a4,0(s0)
 214              		.loc 1 46 7
 215 0034 13850480 		addi	a0,s1,-2048
GAS LISTING /var/folders/rt/4gvqv631095f64jvm7jfj_000000gn/T//ccDhfxRf.s 			page 6


 216              		.loc 1 46 42
 217 0038 93071700 		addi	a5,a4,1
 218 003c 1CC0     		sw	a5,0(s0)
 219              		.loc 1 46 38
 220 003e B7070000 		lui	a5,%hi(txq)
 221 0042 0A07     		slli	a4,a4,2
 222 0044 93870700 		addi	a5,a5,%lo(txq)
 223 0048 BA97     		add	a5,a5,a4
 224              		.loc 1 46 7
 225 004a 8C43     		lw	a1,0(a5)
 226 004c 97000000 		call	usart_data_transmit
 226      E7800000 
 227              	.LVL7:
  47:usart.c       ****       txr %= 256;                              //            wrap around.
 228              		.loc 1 47 7 is_stmt 1
 229              		.loc 1 47 11 is_stmt 0
 230 0054 1C40     		lw	a5,0(s0)
 231 0056 13070010 		li	a4,256
 232 005a B3E7E702 		rem	a5,a5,a4
 233 005e 1CC0     		sw	a5,0(s0)
 234              	.L14:
 235              	.LBE16:
 236              	.LBE15:
  48:usart.c       ****     } //        No! Return!
  49:usart.c       ****   }
  50:usart.c       ****   else
  51:usart.c       ****     usart_interrupt_disable(USART0, USART_INT_TBE);
  52:usart.c       **** }
 237              		.loc 1 52 1
 238 0060 B240     		lw	ra,12(sp)
 239              		.cfi_remember_state
 240              		.cfi_restore 1
 241 0062 2244     		lw	s0,8(sp)
 242              		.cfi_restore 8
 243 0064 9244     		lw	s1,4(sp)
 244              		.cfi_restore 9
 245 0066 4101     		addi	sp,sp,16
 246              	.LCFI4:
 247              		.cfi_def_cfa_offset 0
 248 0068 8280     		jr	ra
 249              	.L15:
 250              	.LCFI5:
 251              		.cfi_restore_state
  51:usart.c       **** }
 252              		.loc 1 51 5 is_stmt 1
 253              		.loc 1 52 1 is_stmt 0
 254 006a 2244     		lw	s0,8(sp)
 255              		.cfi_restore 8
 256 006c B240     		lw	ra,12(sp)
 257              		.cfi_restore 1
 258 006e 9244     		lw	s1,4(sp)
 259              		.cfi_restore 9
  51:usart.c       **** }
 260              		.loc 1 51 5
 261 0070 37450140 		li	a0,1073823744
 262              		.loc 1 52 1
  51:usart.c       **** }
GAS LISTING /var/folders/rt/4gvqv631095f64jvm7jfj_000000gn/T//ccDhfxRf.s 			page 7


 263              		.loc 1 51 5
 264 0074 93057030 		li	a1,775
 265 0078 13050580 		addi	a0,a0,-2048
 266              		.loc 1 52 1
 267 007c 4101     		addi	sp,sp,16
 268              	.LCFI6:
 269              		.cfi_def_cfa_offset 0
  51:usart.c       **** }
 270              		.loc 1 51 5
 271 007e 17030000 		tail	usart_interrupt_disable
 271      67000300 
 272              	.LVL8:
 273              		.cfi_endproc
 274              	.LFE3:
 276              		.section	.text.putch,"ax",@progbits
 277              		.align	1
 278              		.globl	putch
 280              	putch:
 281              	.LFB4:
  53:usart.c       **** 
  54:usart.c       **** void putch(char ch)
  55:usart.c       **** {
 282              		.loc 1 55 1 is_stmt 1
 283              		.cfi_startproc
 284              	.LVL9:
  56:usart.c       ****   while (((txw + 1) % 512) == txr)
 285              		.loc 1 56 3
  55:usart.c       ****   while (((txw + 1) % 512) == txr)
 286              		.loc 1 55 1 is_stmt 0
 287 0000 0111     		addi	sp,sp,-32
 288              	.LCFI7:
 289              		.cfi_def_cfa_offset 32
 290 0002 22CC     		sw	s0,24(sp)
 291 0004 26CA     		sw	s1,20(sp)
 292 0006 4AC8     		sw	s2,16(sp)
 293 0008 06CE     		sw	ra,28(sp)
 294              		.cfi_offset 8, -8
 295              		.cfi_offset 9, -12
 296              		.cfi_offset 18, -16
 297              		.cfi_offset 1, -4
 298              		.loc 1 56 16
 299 000a 37090000 		lui	s2,%hi(.LANCHOR1)
 300              		.loc 1 56 21
 301 000e 93040020 		li	s1,512
 302              		.loc 1 56 28
 303 0012 37040000 		lui	s0,%hi(.LANCHOR0)
 304              	.LVL10:
 305              	.L22:
 306              		.loc 1 56 16
 307 0016 13060900 		addi	a2,s2,%lo(.LANCHOR1)
 308 001a 1442     		lw	a3,0(a2)
 309              		.loc 1 56 9
 310 001c 83270400 		lw	a5,%lo(.LANCHOR0)(s0)
 311              		.loc 1 56 16
 312 0020 13871600 		addi	a4,a3,1
 313              		.loc 1 56 21
 314 0024 33679702 		rem	a4,a4,s1
GAS LISTING /var/folders/rt/4gvqv631095f64jvm7jfj_000000gn/T//ccDhfxRf.s 			page 8


 315              		.loc 1 56 9
 316 0028 6309F702 		beq	a4,a5,.L23
  57:usart.c       ****     u0_TX_Queue(); // If buffer full then spin...
  58:usart.c       ****   txq[txw++] = ch; //...If/when not then store data...
 317              		.loc 1 58 3 is_stmt 1
 318              		.loc 1 58 14 is_stmt 0
 319 002c B7070000 		lui	a5,%hi(txq)
  59:usart.c       ****   txw %= 512;      //...and advance write index!
  60:usart.c       ****   usart_interrupt_enable(USART0, USART_INT_TBE);
  61:usart.c       **** }
 320              		.loc 1 61 1
 321 0030 6244     		lw	s0,24(sp)
 322              		.cfi_remember_state
 323              		.cfi_restore 8
  58:usart.c       ****   txw %= 512;      //...and advance write index!
 324              		.loc 1 58 14
 325 0032 8A06     		slli	a3,a3,2
 326 0034 93870700 		addi	a5,a5,%lo(txq)
 327              		.loc 1 61 1
 328 0038 F240     		lw	ra,28(sp)
 329              		.cfi_restore 1
 330 003a D244     		lw	s1,20(sp)
 331              		.cfi_restore 9
 332 003c 4249     		lw	s2,16(sp)
 333              		.cfi_restore 18
  58:usart.c       ****   txw %= 512;      //...and advance write index!
 334              		.loc 1 58 14
 335 003e B697     		add	a5,a5,a3
 336 0040 88C3     		sw	a0,0(a5)
  59:usart.c       ****   txw %= 512;      //...and advance write index!
 337              		.loc 1 59 3 is_stmt 1
  59:usart.c       ****   txw %= 512;      //...and advance write index!
 338              		.loc 1 59 7 is_stmt 0
 339 0042 18C2     		sw	a4,0(a2)
  60:usart.c       **** }
 340              		.loc 1 60 3 is_stmt 1
 341 0044 37450140 		li	a0,1073823744
 342              		.loc 1 61 1 is_stmt 0
  60:usart.c       **** }
 343              		.loc 1 60 3
 344 0048 93057030 		li	a1,775
 345 004c 13050580 		addi	a0,a0,-2048
 346              		.loc 1 61 1
 347 0050 0561     		addi	sp,sp,32
 348              	.LCFI8:
 349              		.cfi_def_cfa_offset 0
  60:usart.c       **** }
 350              		.loc 1 60 3
 351 0052 17030000 		tail	usart_interrupt_enable
 351      67000300 
 352              	.LVL11:
 353              	.L23:
 354              	.LCFI9:
 355              		.cfi_restore_state
 356 005a 2AC6     		sw	a0,12(sp)
  57:usart.c       ****   txq[txw++] = ch; //...If/when not then store data...
 357              		.loc 1 57 5 is_stmt 1
GAS LISTING /var/folders/rt/4gvqv631095f64jvm7jfj_000000gn/T//ccDhfxRf.s 			page 9


 358 005c 97000000 		call	u0_TX_Queue
 358      E7800000 
 359              	.LVL12:
 360 0064 3245     		lw	a0,12(sp)
 361 0066 45BF     		j	.L22
 362              		.cfi_endproc
 363              	.LFE4:
 365              		.section	.text.putstr,"ax",@progbits
 366              		.align	1
 367              		.globl	putstr
 369              	putstr:
 370              	.LFB5:
  62:usart.c       **** 
  63:usart.c       **** void putstr(char str[])
  64:usart.c       **** {
 371              		.loc 1 64 1
 372              		.cfi_startproc
 373              	.LVL13:
 374 0000 4111     		addi	sp,sp,-16
 375              	.LCFI10:
 376              		.cfi_def_cfa_offset 16
 377 0002 22C4     		sw	s0,8(sp)
 378 0004 06C6     		sw	ra,12(sp)
 379              		.cfi_offset 8, -8
 380              		.cfi_offset 1, -4
 381 0006 2A84     		mv	s0,a0
  65:usart.c       ****   while (*str)
 382              		.loc 1 65 3
 383              	.LVL14:
 384              	.L26:
 385              		.loc 1 65 10 is_stmt 0
 386 0008 03450400 		lbu	a0,0(s0)
 387              		.loc 1 65 9
 388 000c 09E5     		bne	a0,zero,.L27
  66:usart.c       ****     putch(*str++);
  67:usart.c       **** }
 389              		.loc 1 67 1
 390 000e B240     		lw	ra,12(sp)
 391              		.cfi_remember_state
 392              		.cfi_restore 1
 393 0010 2244     		lw	s0,8(sp)
 394              		.cfi_restore 8
 395              	.LVL15:
 396 0012 4101     		addi	sp,sp,16
 397              	.LCFI11:
 398              		.cfi_def_cfa_offset 0
 399 0014 8280     		jr	ra
 400              	.LVL16:
 401              	.L27:
 402              	.LCFI12:
 403              		.cfi_restore_state
  66:usart.c       ****     putch(*str++);
 404              		.loc 1 66 5 is_stmt 1
  66:usart.c       ****     putch(*str++);
 405              		.loc 1 66 15 is_stmt 0
 406 0016 0504     		addi	s0,s0,1
 407              	.LVL17:
GAS LISTING /var/folders/rt/4gvqv631095f64jvm7jfj_000000gn/T//ccDhfxRf.s 			page 10


  66:usart.c       ****     putch(*str++);
 408              		.loc 1 66 5
 409 0018 97000000 		call	putch
 409      E7800000 
 410              	.LVL18:
 411 0020 E5B7     		j	.L26
 412              		.cfi_endproc
 413              	.LFE5:
 415              		.section	.text.u0init,"ax",@progbits
 416              		.align	1
 417              		.globl	u0init
 419              	u0init:
 420              	.LFB6:
  68:usart.c       **** 
  69:usart.c       **** void u0init(int enable)
  70:usart.c       **** {
 421              		.loc 1 70 1 is_stmt 1
 422              		.cfi_startproc
 423              	.LVL19:
  71:usart.c       ****   rcu_periph_clock_enable(RCU_GPIOA);
 424              		.loc 1 71 3
  70:usart.c       ****   rcu_periph_clock_enable(RCU_GPIOA);
 425              		.loc 1 70 1 is_stmt 0
 426 0000 4111     		addi	sp,sp,-16
 427              	.LCFI13:
 428              		.cfi_def_cfa_offset 16
 429 0002 26C2     		sw	s1,4(sp)
 430              		.cfi_offset 9, -12
 431 0004 AA84     		mv	s1,a0
 432              		.loc 1 71 3
 433 0006 13052060 		li	a0,1538
 434              	.LVL20:
  70:usart.c       ****   rcu_periph_clock_enable(RCU_GPIOA);
 435              		.loc 1 70 1
 436 000a 06C6     		sw	ra,12(sp)
 437 000c 22C4     		sw	s0,8(sp)
 438              		.cfi_offset 1, -4
 439              		.cfi_offset 8, -8
 440              		.loc 1 71 3
 441 000e 97000000 		call	rcu_periph_clock_enable
 441      E7800000 
 442              	.LVL21:
  72:usart.c       ****   gpio_init(GPIOA, GPIO_MODE_AF_PP, GPIO_OSPEED_50MHZ, GPIO_PIN_9);
 443              		.loc 1 72 3 is_stmt 1
 444 0016 37140140 		li	s0,1073811456
 445 001a 13050480 		addi	a0,s0,-2048
 446 001e 93060020 		li	a3,512
 447 0022 0D46     		li	a2,3
 448 0024 E145     		li	a1,24
 449 0026 97000000 		call	gpio_init
 449      E7800000 
 450              	.LVL22:
  73:usart.c       ****   // gpio_init(GPIOA, GPIO_MODE_IN_FLOATING, GPIO_OSPEED_50MHZ, GPIO_PIN_10); ORIGINAL
  74:usart.c       ****   gpio_init(GPIOA, GPIO_MODE_IPU, GPIO_OSPEED_50MHZ, GPIO_PIN_10);
 451              		.loc 1 74 3
 452 002e 93060040 		li	a3,1024
 453 0032 0D46     		li	a2,3
GAS LISTING /var/folders/rt/4gvqv631095f64jvm7jfj_000000gn/T//ccDhfxRf.s 			page 11


 454 0034 93058004 		li	a1,72
 455 0038 13050480 		addi	a0,s0,-2048
 456 003c 97000000 		call	gpio_init
 456      E7800000 
 457              	.LVL23:
  75:usart.c       **** 
  76:usart.c       ****   rcu_periph_clock_enable(RCU_USART0);
 458              		.loc 1 76 3
 459 0044 1305E060 		li	a0,1550
  77:usart.c       ****   usart_deinit(USART0);
 460              		.loc 1 77 3 is_stmt 0
 461 0048 37440140 		li	s0,1073823744
  76:usart.c       ****   usart_deinit(USART0);
 462              		.loc 1 76 3
 463 004c 97000000 		call	rcu_periph_clock_enable
 463      E7800000 
 464              	.LVL24:
 465              		.loc 1 77 3 is_stmt 1
 466 0054 13050480 		addi	a0,s0,-2048
 467 0058 97000000 		call	usart_deinit
 467      E7800000 
 468              	.LVL25:
  78:usart.c       ****   usart_baudrate_set(USART0, 115200);
 469              		.loc 1 78 3
 470 0060 F165     		li	a1,114688
 471 0062 93850520 		addi	a1,a1,512
 472 0066 13050480 		addi	a0,s0,-2048
 473 006a 97000000 		call	usart_baudrate_set
 473      E7800000 
 474              	.LVL26:
  79:usart.c       ****   usart_parity_config(USART0, USART_PM_NONE);
 475              		.loc 1 79 3
 476 0072 8145     		li	a1,0
 477 0074 13050480 		addi	a0,s0,-2048
 478 0078 97000000 		call	usart_parity_config
 478      E7800000 
 479              	.LVL27:
  80:usart.c       ****   usart_word_length_set(USART0, USART_WL_8BIT);
 480              		.loc 1 80 3
 481 0080 8145     		li	a1,0
 482 0082 13050480 		addi	a0,s0,-2048
 483 0086 97000000 		call	usart_word_length_set
 483      E7800000 
 484              	.LVL28:
  81:usart.c       ****   usart_stop_bit_set(USART0, USART_STB_1BIT);
 485              		.loc 1 81 3
 486 008e 8145     		li	a1,0
 487 0090 13050480 		addi	a0,s0,-2048
 488 0094 97000000 		call	usart_stop_bit_set
 488      E7800000 
 489              	.LVL29:
  82:usart.c       ****   usart_hardware_flow_rts_config(USART0, USART_RTS_DISABLE);
 490              		.loc 1 82 3
 491 009c 8145     		li	a1,0
 492 009e 13050480 		addi	a0,s0,-2048
 493 00a2 97000000 		call	usart_hardware_flow_rts_config
 493      E7800000 
GAS LISTING /var/folders/rt/4gvqv631095f64jvm7jfj_000000gn/T//ccDhfxRf.s 			page 12


 494              	.LVL30:
  83:usart.c       ****   usart_hardware_flow_cts_config(USART0, USART_CTS_DISABLE);
 495              		.loc 1 83 3
 496 00aa 8145     		li	a1,0
 497 00ac 13050480 		addi	a0,s0,-2048
 498 00b0 97000000 		call	usart_hardware_flow_cts_config
 498      E7800000 
 499              	.LVL31:
  84:usart.c       ****   usart_enable(USART0);
 500              		.loc 1 84 3
 501 00b8 13050480 		addi	a0,s0,-2048
 502 00bc 97000000 		call	usart_enable
 502      E7800000 
 503              	.LVL32:
  85:usart.c       ****   usart_transmit_config(USART0, USART_TRANSMIT_ENABLE);
 504              		.loc 1 85 3
 505 00c4 A145     		li	a1,8
 506 00c6 13050480 		addi	a0,s0,-2048
 507 00ca 97000000 		call	usart_transmit_config
 507      E7800000 
 508              	.LVL33:
  86:usart.c       ****   usart_receive_config(USART0, USART_RECEIVE_ENABLE);
 509              		.loc 1 86 3
 510 00d2 9145     		li	a1,4
 511 00d4 13050480 		addi	a0,s0,-2048
 512 00d8 97000000 		call	usart_receive_config
 512      E7800000 
 513              	.LVL34:
  87:usart.c       **** 
  88:usart.c       ****   if (enable)
 514              		.loc 1 88 3
 515              		.loc 1 88 6 is_stmt 0
 516 00e0 8DC8     		beq	s1,zero,.L29
  89:usart.c       ****   {
  90:usart.c       ****     usart_interrupt_enable(USART0, USART_INT_RBNE); // INTERRUPT FÖR RX
 517              		.loc 1 90 5 is_stmt 1
 518 00e2 13050480 		addi	a0,s0,-2048
 519 00e6 93055030 		li	a1,773
 520 00ea 97000000 		call	usart_interrupt_enable
 520      E7800000 
 521              	.LVL35:
  91:usart.c       ****     eclicw_enable(USART0_IRQn, 3, 1, &wifiIsrHandler);
 522              		.loc 1 91 5
  92:usart.c       ****   }
  93:usart.c       **** }...
 523              		.loc 1 93 1 is_stmt 0
 524 00f2 2244     		lw	s0,8(sp)
 525              		.cfi_remember_state
 526              		.cfi_restore 8
 527 00f4 B240     		lw	ra,12(sp)
 528              		.cfi_restore 1
 529 00f6 9244     		lw	s1,4(sp)
 530              		.cfi_restore 9
 531              	.LVL36:
  91:usart.c       ****     eclicw_enable(USART0_IRQn, 3, 1, &wifiIsrHandler);
 532              		.loc 1 91 5
 533 00f8 B7060000 		lui	a3,%hi(wifiIsrHandler)
GAS LISTING /var/folders/rt/4gvqv631095f64jvm7jfj_000000gn/T//ccDhfxRf.s 			page 13


 534              		.loc 1 93 1
  91:usart.c       ****     eclicw_enable(USART0_IRQn, 3, 1, &wifiIsrHandler);
 535              		.loc 1 91 5
 536 00fc 93860600 		addi	a3,a3,%lo(wifiIsrHandler)
 537 0100 0546     		li	a2,1
 538 0102 8D45     		li	a1,3
 539 0104 13058003 		li	a0,56
 540              		.loc 1 93 1
 541 0108 4101     		addi	sp,sp,16
 542              	.LCFI14:
 543              		.cfi_def_cfa_offset 0
  91:usart.c       ****     eclicw_enable(USART0_IRQn, 3, 1, &wifiIsrHandler);
 544              		.loc 1 91 5
 545 010a 17030000 		tail	eclicw_enable
 545      67000300 
 546              	.LVL37:
 547              	.L29:
 548              	.LCFI15:
 549              		.cfi_restore_state
 550              		.loc 1 93 1
 551 0112 B240     		lw	ra,12(sp)
 552              		.cfi_restore 1
 553 0114 2244     		lw	s0,8(sp)
 554              		.cfi_restore 8
 555 0116 9244     		lw	s1,4(sp)
 556              		.cfi_restore 9
 557              	.LVL38:
 558 0118 4101     		addi	sp,sp,16
 559              	.LCFI16:
 560              		.cfi_def_cfa_offset 0
 561 011a 8280     		jr	ra
 562              		.cfi_endproc
 563              	.LFE6:
 565              		.globl	commandBufferIndex
 566              		.comm	commandBuffer,256,4
 567              		.globl	txq
 568              		.globl	txw
 569              		.globl	txr
 570              		.section	.bss.txq,"aw",@nobits
 571              		.align	2
 574              	txq:
 575 0000 00000000 		.zero	2048
 575      00000000 
 575      00000000 
 575      00000000 
 575      00000000 
 576              		.section	.sbss.commandBufferIndex,"aw",@nobits
 577              		.align	2
 578              		.set	.LANCHOR2,. + 0
 581              	commandBufferIndex:
 582 0000 00000000 		.zero	4
 583              		.section	.sbss.txr,"aw",@nobits
 584              		.align	2
 585              		.set	.LANCHOR0,. + 0
 588              	txr:
 589 0000 00000000 		.zero	4
 590              		.section	.sbss.txw,"aw",@nobits
GAS LISTING /var/folders/rt/4gvqv631095f64jvm7jfj_000000gn/T//ccDhfxRf.s 			page 14


 591              		.align	2
 592              		.set	.LANCHOR1,. + 0
 595              	txw:
 596 0000 00000000 		.zero	4
 597              		.text
 598              	.Letext0:
 599              		.file 2 "/Users/alexstrae/toolchain-gd32v-v202-osx/compiler/riscv64-unknown-elf/include/machine/_d
 600              		.file 3 "/Users/alexstrae/toolchain-gd32v-v202-osx/compiler/riscv64-unknown-elf/include/sys/_stdin
 601              		.file 4 "../../firmware/GD32VF103_standard_peripheral/Include/gd32vf103_rcu.h"
 602              		.file 5 "../../firmware/GD32VF103_standard_peripheral/Include/gd32vf103_usart.h"
 603              		.file 6 "../../firmware/GD32VF103_standard_peripheral/system_gd32vf103.h"
 604              		.file 7 "usart.h"
 605              		.file 8 "../../firmware/GD32VF103_standard_peripheral/Include/gd32vf103_gpio.h"
 606              		.file 9 "lib/eclicw/include/eclicw.h"
 607              		.file 10 "../../firmware/GD32VF103_standard_peripheral/gd32vf103.h"
GAS LISTING /var/folders/rt/4gvqv631095f64jvm7jfj_000000gn/T//ccDhfxRf.s 			page 15

