GAS LISTING /var/folders/rt/4gvqv631095f64jvm7jfj_000000gn/T//ccYDFzYw.s 			page 1


   1              		.file	"usart.c"
   2              		.option nopic
   3              		.attribute arch, "rv32i2p0_m2p0_a2p0_c2p0"
   4              		.attribute unaligned_access, 0
   5              		.attribute stack_align, 16
   6              		.text
   7              	.Ltext0:
   8              		.cfi_sections	.debug_frame
   9              		.section	.text.wifiIsrHandler,"ax",@progbits
  10              		.align	1
  11              		.globl	wifiIsrHandler
  13              	wifiIsrHandler:
  14              	.LFB2:
  15              		.file 1 "usart.c"
   1:usart.c       **** #include "gd32vf103.h"
   2:usart.c       **** #include "usart.h"
   3:usart.c       **** #include "eclicw.h"
   4:usart.c       **** #include "drivers.h"
   5:usart.c       **** #include "lcd.h"
   6:usart.c       **** #define BUF_SIZE 100
   7:usart.c       **** 
   8:usart.c       **** int txr = 0, txw = 0, txq[256] = {0}; // 256 Byte wr queue
   9:usart.c       **** volatile char commandBuffer[BUF_SIZE];
  10:usart.c       **** volatile int commandBufferIndex = 0;
  11:usart.c       **** 
  12:usart.c       **** void wifiIsrHandler(void)
  13:usart.c       **** {
  16              		.loc 1 13 1
  17              		.cfi_startproc
  14:usart.c       ****   // TRANSMIT
  15:usart.c       ****   if (usart_interrupt_flag_get(USART0, USART_INT_FLAG_TBE))
  18              		.loc 1 15 3
  13:usart.c       ****   // TRANSMIT
  19              		.loc 1 13 1 is_stmt 0
  20 0000 0111     		addi	sp,sp,-32
  21              	.LCFI0:
  22              		.cfi_def_cfa_offset 32
  23 0002 26CA     		sw	s1,20(sp)
  24              		.loc 1 15 7
  25 0004 B7050700 		li	a1,458752
  26              		.cfi_offset 9, -12
  27 0008 B7440140 		li	s1,1073823744
  28 000c 93857530 		addi	a1,a1,775
  29 0010 13850480 		addi	a0,s1,-2048
  13:usart.c       ****   // TRANSMIT
  30              		.loc 1 13 1
  31 0014 06CE     		sw	ra,28(sp)
  32 0016 22CC     		sw	s0,24(sp)
  33 0018 4AC8     		sw	s2,16(sp)
  34 001a 4EC6     		sw	s3,12(sp)
  35              		.cfi_offset 1, -4
  36              		.cfi_offset 8, -8
  37              		.cfi_offset 18, -16
  38              		.cfi_offset 19, -20
  39              		.loc 1 15 7
  40 001c 97000000 		call	usart_interrupt_flag_get
  40      E7800000 
GAS LISTING /var/folders/rt/4gvqv631095f64jvm7jfj_000000gn/T//ccYDFzYw.s 			page 2


  41              	.LVL0:
  42              		.loc 1 15 6
  43 0024 31C9     		beq	a0,zero,.L2
  16:usart.c       ****   {
  17:usart.c       ****     if (txr != txw)
  44              		.loc 1 17 5 is_stmt 1
  45              		.loc 1 17 13 is_stmt 0
  46 0026 37040000 		lui	s0,%hi(.LANCHOR0)
  47 002a 13040400 		addi	s0,s0,%lo(.LANCHOR0)
  48              		.loc 1 17 8
  49 002e B7070000 		lui	a5,%hi(.LANCHOR1)
  50 0032 1840     		lw	a4,0(s0)
  51 0034 83A70700 		lw	a5,%lo(.LANCHOR1)(a5)
  52 0038 6305F708 		beq	a4,a5,.L3
  18:usart.c       ****     {
  19:usart.c       ****       l88mem(4, 1);                            // ...no! Device redy?
  53              		.loc 1 19 7 is_stmt 1
  54 003c 8545     		li	a1,1
  55 003e 1145     		li	a0,4
  56 0040 97000000 		call	l88mem
  56      E7800000 
  57              	.LVL1:
  20:usart.c       ****       usart_data_transmit(USART0, txq[txr++]); //        Yes Write!
  58              		.loc 1 20 7
  59              		.loc 1 20 42 is_stmt 0
  60 0048 1C40     		lw	a5,0(s0)
  61              		.loc 1 20 7
  62 004a 13850480 		addi	a0,s1,-2048
  63              		.loc 1 20 42
  64 004e 13871700 		addi	a4,a5,1
  65 0052 18C0     		sw	a4,0(s0)
  66              		.loc 1 20 38
  67 0054 13972700 		slli	a4,a5,2
  68 0058 B7070000 		lui	a5,%hi(.LANCHOR2)
  69 005c 93870700 		addi	a5,a5,%lo(.LANCHOR2)
  70 0060 BA97     		add	a5,a5,a4
  71              		.loc 1 20 7
  72 0062 8C43     		lw	a1,0(a5)
  73 0064 97000000 		call	usart_data_transmit
  73      E7800000 
  74              	.LVL2:
  21:usart.c       ****       txr %= 256;                              //            wrap around.
  75              		.loc 1 21 7 is_stmt 1
  76              		.loc 1 21 11 is_stmt 0
  77 006c 1C40     		lw	a5,0(s0)
  78 006e 13070010 		li	a4,256
  79 0072 B3E7E702 		rem	a5,a5,a4
  80 0076 1CC0     		sw	a5,0(s0)
  81              	.L2:
  22:usart.c       ****     }
  23:usart.c       ****     else
  24:usart.c       ****       usart_interrupt_disable(USART0, USART_INT_TBE);
  25:usart.c       ****   }
  26:usart.c       **** 
  27:usart.c       ****   // RECEIVE
  28:usart.c       ****   if (usart_interrupt_flag_get(USART0, USART_INT_FLAG_RBNE))
  82              		.loc 1 28 3 is_stmt 1
GAS LISTING /var/folders/rt/4gvqv631095f64jvm7jfj_000000gn/T//ccYDFzYw.s 			page 3


  83              		.loc 1 28 7 is_stmt 0
  84 0078 B7050500 		li	a1,327680
  85 007c 37440140 		li	s0,1073823744
  86 0080 93855530 		addi	a1,a1,773
  87 0084 13050480 		addi	a0,s0,-2048
  88 0088 97000000 		call	usart_interrupt_flag_get
  88      E7800000 
  89              	.LVL3:
  90              		.loc 1 28 6
  91 0090 15C1     		beq	a0,zero,.L1
  92              	.LBB6:
  93              	.LBB7:
  94              	.LBB8:
  29:usart.c       ****   {
  30:usart.c       ****     while (usart_flag_get(USART0, USART_FLAG_RBNE))
  31:usart.c       ****     {
  32:usart.c       ****       char c = usart_data_receive(USART0);
  33:usart.c       ****       if (commandBufferIndex < BUF_SIZE)
  34:usart.c       ****       {
  35:usart.c       ****         commandBuffer[commandBufferIndex++] = c;
  95              		.loc 1 35 45
  96 0092 B7040000 		lui	s1,%hi(commandBuffer)
  97              	.LBE8:
  30:usart.c       ****     {
  98              		.loc 1 30 12
  99 0096 13040480 		addi	s0,s0,-2048
 100              	.LBB9:
  33:usart.c       ****       {
 101              		.loc 1 33 30
 102 009a 37090000 		lui	s2,%hi(.LANCHOR3)
  33:usart.c       ****       {
 103              		.loc 1 33 10
 104 009e 93093006 		li	s3,99
 105              		.loc 1 35 45
 106 00a2 93840400 		addi	s1,s1,%lo(commandBuffer)
 107              	.L5:
 108              	.LBE9:
  30:usart.c       ****     {
 109              		.loc 1 30 12
 110 00a6 9545     		li	a1,5
 111 00a8 2285     		mv	a0,s0
 112 00aa 97000000 		call	usart_flag_get
 112      E7800000 
 113              	.LVL4:
  30:usart.c       ****     {
 114              		.loc 1 30 11
 115 00b2 0DE1     		bne	a0,zero,.L6
 116              	.L1:
 117              	.LBE7:
 118              	.LBE6:
  36:usart.c       ****       }
  37:usart.c       ****     }
  38:usart.c       ****   }
  39:usart.c       **** }
 119              		.loc 1 39 1
 120 00b4 F240     		lw	ra,28(sp)
 121              		.cfi_remember_state
GAS LISTING /var/folders/rt/4gvqv631095f64jvm7jfj_000000gn/T//ccYDFzYw.s 			page 4


 122              		.cfi_restore 1
 123 00b6 6244     		lw	s0,24(sp)
 124              		.cfi_restore 8
 125 00b8 D244     		lw	s1,20(sp)
 126              		.cfi_restore 9
 127 00ba 4249     		lw	s2,16(sp)
 128              		.cfi_restore 18
 129 00bc B249     		lw	s3,12(sp)
 130              		.cfi_restore 19
 131 00be 0561     		addi	sp,sp,32
 132              	.LCFI1:
 133              		.cfi_def_cfa_offset 0
 134 00c0 8280     		jr	ra
 135              	.L3:
 136              	.LCFI2:
 137              		.cfi_restore_state
  24:usart.c       ****   }
 138              		.loc 1 24 7 is_stmt 1
 139 00c2 93057030 		li	a1,775
 140 00c6 13850480 		addi	a0,s1,-2048
 141 00ca 97000000 		call	usart_interrupt_disable
 141      E7800000 
 142              	.LVL5:
 143 00d2 5DB7     		j	.L2
 144              	.L6:
 145              	.LBB12:
 146              	.LBB11:
 147              	.LBB10:
  32:usart.c       ****       if (commandBufferIndex < BUF_SIZE)
 148              		.loc 1 32 7
  32:usart.c       ****       if (commandBufferIndex < BUF_SIZE)
 149              		.loc 1 32 16 is_stmt 0
 150 00d4 2285     		mv	a0,s0
 151 00d6 97000000 		call	usart_data_receive
 151      E7800000 
 152              	.LVL6:
  33:usart.c       ****       {
 153              		.loc 1 33 7 is_stmt 1
  33:usart.c       ****       {
 154              		.loc 1 33 30 is_stmt 0
 155 00de 13070900 		addi	a4,s2,%lo(.LANCHOR3)
 156 00e2 1C43     		lw	a5,0(a4)
  33:usart.c       ****       {
 157              		.loc 1 33 10
 158 00e4 E3C1F9FC 		bgt	a5,s3,.L5
  35:usart.c       ****       }
 159              		.loc 1 35 9 is_stmt 1
  35:usart.c       ****       }
 160              		.loc 1 35 41 is_stmt 0
 161 00e8 1C43     		lw	a5,0(a4)
  32:usart.c       ****       if (commandBufferIndex < BUF_SIZE)
 162              		.loc 1 32 12
 163 00ea 1375F50F 		andi	a0,a0,0xff
  35:usart.c       ****       }
 164              		.loc 1 35 41
 165 00ee 93861700 		addi	a3,a5,1
 166 00f2 14C3     		sw	a3,0(a4)
GAS LISTING /var/folders/rt/4gvqv631095f64jvm7jfj_000000gn/T//ccYDFzYw.s 			page 5


  35:usart.c       ****       }
 167              		.loc 1 35 45
 168 00f4 A697     		add	a5,s1,a5
 169 00f6 2380A700 		sb	a0,0(a5)
 170 00fa 75B7     		j	.L5
 171              	.LBE10:
 172              	.LBE11:
 173              	.LBE12:
 174              		.cfi_endproc
 175              	.LFE2:
 177              		.section	.text.u0_TX_Queue,"ax",@progbits
 178              		.align	1
 179              		.globl	u0_TX_Queue
 181              	u0_TX_Queue:
 182              	.LFB3:
  40:usart.c       **** 
  41:usart.c       **** void u0_TX_Queue(void)
  42:usart.c       **** {
 183              		.loc 1 42 1 is_stmt 1
 184              		.cfi_startproc
  43:usart.c       ****   if (txr != txw)
 185              		.loc 1 43 3
  42:usart.c       ****   if (txr != txw)
 186              		.loc 1 42 1 is_stmt 0
 187 0000 4111     		addi	sp,sp,-16
 188              	.LCFI3:
 189              		.cfi_def_cfa_offset 16
 190 0002 22C4     		sw	s0,8(sp)
 191              		.cfi_offset 8, -8
 192              		.loc 1 43 11
 193 0004 37040000 		lui	s0,%hi(.LANCHOR0)
 194 0008 13040400 		addi	s0,s0,%lo(.LANCHOR0)
 195              		.loc 1 43 6
 196 000c B7070000 		lui	a5,%hi(.LANCHOR1)
 197 0010 1840     		lw	a4,0(s0)
 198 0012 83A70700 		lw	a5,%lo(.LANCHOR1)(a5)
  42:usart.c       ****   if (txr != txw)
 199              		.loc 1 42 1
 200 0016 06C6     		sw	ra,12(sp)
 201 0018 26C2     		sw	s1,4(sp)
 202              		.cfi_offset 1, -4
 203              		.cfi_offset 9, -12
 204              		.loc 1 43 6
 205 001a 6309F704 		beq	a4,a5,.L15
  44:usart.c       ****   { // Buffer empty?
  45:usart.c       ****     if (usart_flag_get(USART0, USART_FLAG_TBE))
 206              		.loc 1 45 5 is_stmt 1
 207              		.loc 1 45 9 is_stmt 0
 208 001e B7440140 		li	s1,1073823744
 209 0022 9D45     		li	a1,7
 210 0024 13850480 		addi	a0,s1,-2048
 211 0028 97000000 		call	usart_flag_get
 211      E7800000 
 212              	.LVL7:
 213              		.loc 1 45 8
 214 0030 0DC9     		beq	a0,zero,.L14
 215              	.LBB15:
GAS LISTING /var/folders/rt/4gvqv631095f64jvm7jfj_000000gn/T//ccYDFzYw.s 			page 6


 216              	.LBB16:
  46:usart.c       ****     {                                          // ...no! Device redy?
  47:usart.c       ****       usart_data_transmit(USART0, txq[txr++]); //        Yes Write!
 217              		.loc 1 47 7 is_stmt 1
 218              		.loc 1 47 42 is_stmt 0
 219 0032 1C40     		lw	a5,0(s0)
 220              		.loc 1 47 7
 221 0034 13850480 		addi	a0,s1,-2048
 222              		.loc 1 47 42
 223 0038 13871700 		addi	a4,a5,1
 224 003c 18C0     		sw	a4,0(s0)
 225              		.loc 1 47 38
 226 003e 13972700 		slli	a4,a5,2
 227 0042 B7070000 		lui	a5,%hi(.LANCHOR2)
 228 0046 93870700 		addi	a5,a5,%lo(.LANCHOR2)
 229 004a BA97     		add	a5,a5,a4
 230              		.loc 1 47 7
 231 004c 8C43     		lw	a1,0(a5)
 232 004e 97000000 		call	usart_data_transmit
 232      E7800000 
 233              	.LVL8:
  48:usart.c       ****       txr %= 256;                              //            wrap around.
 234              		.loc 1 48 7 is_stmt 1
 235              		.loc 1 48 11 is_stmt 0
 236 0056 1C40     		lw	a5,0(s0)
 237 0058 13070010 		li	a4,256
 238 005c B3E7E702 		rem	a5,a5,a4
 239 0060 1CC0     		sw	a5,0(s0)
 240              	.L14:
 241              	.LBE16:
 242              	.LBE15:
  49:usart.c       ****     } //        No! Return!
  50:usart.c       ****   }
  51:usart.c       ****   else
  52:usart.c       ****     usart_interrupt_disable(USART0, USART_INT_TBE);
  53:usart.c       **** }
 243              		.loc 1 53 1
 244 0062 B240     		lw	ra,12(sp)
 245              		.cfi_remember_state
 246              		.cfi_restore 1
 247 0064 2244     		lw	s0,8(sp)
 248              		.cfi_restore 8
 249 0066 9244     		lw	s1,4(sp)
 250              		.cfi_restore 9
 251 0068 4101     		addi	sp,sp,16
 252              	.LCFI4:
 253              		.cfi_def_cfa_offset 0
 254 006a 8280     		jr	ra
 255              	.L15:
 256              	.LCFI5:
 257              		.cfi_restore_state
  52:usart.c       **** }
 258              		.loc 1 52 5 is_stmt 1
 259              		.loc 1 53 1 is_stmt 0
 260 006c 2244     		lw	s0,8(sp)
 261              		.cfi_restore 8
 262 006e B240     		lw	ra,12(sp)
GAS LISTING /var/folders/rt/4gvqv631095f64jvm7jfj_000000gn/T//ccYDFzYw.s 			page 7


 263              		.cfi_restore 1
 264 0070 9244     		lw	s1,4(sp)
 265              		.cfi_restore 9
  52:usart.c       **** }
 266              		.loc 1 52 5
 267 0072 37450140 		li	a0,1073823744
 268              		.loc 1 53 1
  52:usart.c       **** }
 269              		.loc 1 52 5
 270 0076 93057030 		li	a1,775
 271 007a 13050580 		addi	a0,a0,-2048
 272              		.loc 1 53 1
 273 007e 4101     		addi	sp,sp,16
 274              	.LCFI6:
 275              		.cfi_def_cfa_offset 0
  52:usart.c       **** }
 276              		.loc 1 52 5
 277 0080 17030000 		tail	usart_interrupt_disable
 277      67000300 
 278              	.LVL9:
 279              		.cfi_endproc
 280              	.LFE3:
 282              		.section	.text.putch,"ax",@progbits
 283              		.align	1
 284              		.globl	putch
 286              	putch:
 287              	.LFB4:
  54:usart.c       **** 
  55:usart.c       **** void putch(char ch)
  56:usart.c       **** {
 288              		.loc 1 56 1 is_stmt 1
 289              		.cfi_startproc
 290              	.LVL10:
  57:usart.c       ****   while (((txw + 1) % 256) == txr)
 291              		.loc 1 57 3
  56:usart.c       ****   while (((txw + 1) % 256) == txr)
 292              		.loc 1 56 1 is_stmt 0
 293 0000 0111     		addi	sp,sp,-32
 294              	.LCFI7:
 295              		.cfi_def_cfa_offset 32
 296 0002 22CC     		sw	s0,24(sp)
 297 0004 26CA     		sw	s1,20(sp)
 298 0006 4AC8     		sw	s2,16(sp)
 299 0008 06CE     		sw	ra,28(sp)
 300              		.cfi_offset 8, -8
 301              		.cfi_offset 9, -12
 302              		.cfi_offset 18, -16
 303              		.cfi_offset 1, -4
 304              		.loc 1 57 16
 305 000a 37090000 		lui	s2,%hi(.LANCHOR1)
 306              		.loc 1 57 21
 307 000e 93040010 		li	s1,256
 308              		.loc 1 57 28
 309 0012 37040000 		lui	s0,%hi(.LANCHOR0)
 310              	.LVL11:
 311              	.L22:
 312              		.loc 1 57 16
GAS LISTING /var/folders/rt/4gvqv631095f64jvm7jfj_000000gn/T//ccYDFzYw.s 			page 8


 313 0016 13060900 		addi	a2,s2,%lo(.LANCHOR1)
 314 001a 1C42     		lw	a5,0(a2)
 315              		.loc 1 57 9
 316 001c 83260400 		lw	a3,%lo(.LANCHOR0)(s0)
 317              		.loc 1 57 16
 318 0020 13871700 		addi	a4,a5,1
 319              		.loc 1 57 21
 320 0024 33679702 		rem	a4,a4,s1
 321              		.loc 1 57 9
 322 0028 630AD702 		beq	a4,a3,.L23
  58:usart.c       ****     u0_TX_Queue(); // If buffer full then spin...
  59:usart.c       ****   txq[txw++] = ch; //...If/when not then store data...
 323              		.loc 1 59 3 is_stmt 1
 324              		.loc 1 59 14 is_stmt 0
 325 002c 93962700 		slli	a3,a5,2
 326 0030 B7070000 		lui	a5,%hi(.LANCHOR2)
  60:usart.c       ****   txw %= 256;      //...and advance write index!
  61:usart.c       ****   usart_interrupt_enable(USART0, USART_INT_TBE);
  62:usart.c       **** }
 327              		.loc 1 62 1
 328 0034 6244     		lw	s0,24(sp)
 329              		.cfi_remember_state
 330              		.cfi_restore 8
  59:usart.c       ****   txw %= 256;      //...and advance write index!
 331              		.loc 1 59 14
 332 0036 93870700 		addi	a5,a5,%lo(.LANCHOR2)
 333              		.loc 1 62 1
 334 003a F240     		lw	ra,28(sp)
 335              		.cfi_restore 1
 336 003c D244     		lw	s1,20(sp)
 337              		.cfi_restore 9
 338 003e 4249     		lw	s2,16(sp)
 339              		.cfi_restore 18
  59:usart.c       ****   txw %= 256;      //...and advance write index!
 340              		.loc 1 59 14
 341 0040 B697     		add	a5,a5,a3
 342 0042 88C3     		sw	a0,0(a5)
  60:usart.c       ****   txw %= 256;      //...and advance write index!
 343              		.loc 1 60 3 is_stmt 1
  60:usart.c       ****   txw %= 256;      //...and advance write index!
 344              		.loc 1 60 7 is_stmt 0
 345 0044 18C2     		sw	a4,0(a2)
  61:usart.c       **** }
 346              		.loc 1 61 3 is_stmt 1
 347 0046 37450140 		li	a0,1073823744
 348              		.loc 1 62 1 is_stmt 0
  61:usart.c       **** }
 349              		.loc 1 61 3
 350 004a 93057030 		li	a1,775
 351 004e 13050580 		addi	a0,a0,-2048
 352              		.loc 1 62 1
 353 0052 0561     		addi	sp,sp,32
 354              	.LCFI8:
 355              		.cfi_def_cfa_offset 0
  61:usart.c       **** }
 356              		.loc 1 61 3
 357 0054 17030000 		tail	usart_interrupt_enable
GAS LISTING /var/folders/rt/4gvqv631095f64jvm7jfj_000000gn/T//ccYDFzYw.s 			page 9


 357      67000300 
 358              	.LVL12:
 359              	.L23:
 360              	.LCFI9:
 361              		.cfi_restore_state
 362 005c 2AC6     		sw	a0,12(sp)
  58:usart.c       ****   txq[txw++] = ch; //...If/when not then store data...
 363              		.loc 1 58 5 is_stmt 1
 364 005e 97000000 		call	u0_TX_Queue
 364      E7800000 
 365              	.LVL13:
 366 0066 3245     		lw	a0,12(sp)
 367 0068 7DB7     		j	.L22
 368              		.cfi_endproc
 369              	.LFE4:
 371              		.section	.text.putstr,"ax",@progbits
 372              		.align	1
 373              		.globl	putstr
 375              	putstr:
 376              	.LFB5:
  63:usart.c       **** 
  64:usart.c       **** void putstr(char str[])
  65:usart.c       **** {
 377              		.loc 1 65 1
 378              		.cfi_startproc
 379              	.LVL14:
 380 0000 4111     		addi	sp,sp,-16
 381              	.LCFI10:
 382              		.cfi_def_cfa_offset 16
 383 0002 22C4     		sw	s0,8(sp)
 384 0004 06C6     		sw	ra,12(sp)
 385              		.cfi_offset 8, -8
 386              		.cfi_offset 1, -4
 387 0006 2A84     		mv	s0,a0
  66:usart.c       ****   while (*str)
 388              		.loc 1 66 3
 389              	.LVL15:
 390              	.L26:
 391              		.loc 1 66 10 is_stmt 0
 392 0008 03450400 		lbu	a0,0(s0)
 393              		.loc 1 66 9
 394 000c 09E5     		bne	a0,zero,.L27
  67:usart.c       ****     putch(*str++);
  68:usart.c       **** }
 395              		.loc 1 68 1
 396 000e B240     		lw	ra,12(sp)
 397              		.cfi_remember_state
 398              		.cfi_restore 1
 399 0010 2244     		lw	s0,8(sp)
 400              		.cfi_restore 8
 401              	.LVL16:
 402 0012 4101     		addi	sp,sp,16
 403              	.LCFI11:
 404              		.cfi_def_cfa_offset 0
 405 0014 8280     		jr	ra
 406              	.LVL17:
 407              	.L27:
GAS LISTING /var/folders/rt/4gvqv631095f64jvm7jfj_000000gn/T//ccYDFzYw.s 			page 10


 408              	.LCFI12:
 409              		.cfi_restore_state
  67:usart.c       ****     putch(*str++);
 410              		.loc 1 67 5 is_stmt 1
  67:usart.c       ****     putch(*str++);
 411              		.loc 1 67 15 is_stmt 0
 412 0016 0504     		addi	s0,s0,1
 413              	.LVL18:
  67:usart.c       ****     putch(*str++);
 414              		.loc 1 67 5
 415 0018 97000000 		call	putch
 415      E7800000 
 416              	.LVL19:
 417 0020 E5B7     		j	.L26
 418              		.cfi_endproc
 419              	.LFE5:
 421              		.section	.text.u0init,"ax",@progbits
 422              		.align	1
 423              		.globl	u0init
 425              	u0init:
 426              	.LFB6:
  69:usart.c       **** 
  70:usart.c       **** void u0init(int enable)
  71:usart.c       **** {
 427              		.loc 1 71 1 is_stmt 1
 428              		.cfi_startproc
 429              	.LVL20:
  72:usart.c       ****   rcu_periph_clock_enable(RCU_GPIOA);
 430              		.loc 1 72 3
  71:usart.c       ****   rcu_periph_clock_enable(RCU_GPIOA);
 431              		.loc 1 71 1 is_stmt 0
 432 0000 4111     		addi	sp,sp,-16
 433              	.LCFI13:
 434              		.cfi_def_cfa_offset 16
 435 0002 26C2     		sw	s1,4(sp)
 436              		.cfi_offset 9, -12
 437 0004 AA84     		mv	s1,a0
 438              		.loc 1 72 3
 439 0006 13052060 		li	a0,1538
 440              	.LVL21:
  71:usart.c       ****   rcu_periph_clock_enable(RCU_GPIOA);
 441              		.loc 1 71 1
 442 000a 06C6     		sw	ra,12(sp)
 443 000c 22C4     		sw	s0,8(sp)
 444              		.cfi_offset 1, -4
 445              		.cfi_offset 8, -8
 446              		.loc 1 72 3
 447 000e 97000000 		call	rcu_periph_clock_enable
 447      E7800000 
 448              	.LVL22:
  73:usart.c       ****   gpio_init(GPIOA, GPIO_MODE_AF_PP, GPIO_OSPEED_50MHZ, GPIO_PIN_9);
 449              		.loc 1 73 3 is_stmt 1
 450 0016 37140140 		li	s0,1073811456
 451 001a 13050480 		addi	a0,s0,-2048
 452 001e 93060020 		li	a3,512
 453 0022 0D46     		li	a2,3
 454 0024 E145     		li	a1,24
GAS LISTING /var/folders/rt/4gvqv631095f64jvm7jfj_000000gn/T//ccYDFzYw.s 			page 11


 455 0026 97000000 		call	gpio_init
 455      E7800000 
 456              	.LVL23:
  74:usart.c       ****   // gpio_init(GPIOA, GPIO_MODE_IN_FLOATING, GPIO_OSPEED_50MHZ, GPIO_PIN_10); ORIGINAL
  75:usart.c       ****   gpio_init(GPIOA, GPIO_MODE_IPU, GPIO_OSPEED_50MHZ, GPIO_PIN_10);
 457              		.loc 1 75 3
 458 002e 93060040 		li	a3,1024
 459 0032 0D46     		li	a2,3
 460 0034 93058004 		li	a1,72
 461 0038 13050480 		addi	a0,s0,-2048
 462 003c 97000000 		call	gpio_init
 462      E7800000 
 463              	.LVL24:
  76:usart.c       **** 
  77:usart.c       ****   rcu_periph_clock_enable(RCU_USART0);
 464              		.loc 1 77 3
 465 0044 1305E060 		li	a0,1550
  78:usart.c       ****   usart_deinit(USART0);
 466              		.loc 1 78 3 is_stmt 0
 467 0048 37440140 		li	s0,1073823744
  77:usart.c       ****   usart_deinit(USART0);
 468              		.loc 1 77 3
 469 004c 97000000 		call	rcu_periph_clock_enable
 469      E7800000 
 470              	.LVL25:
 471              		.loc 1 78 3 is_stmt 1
 472 0054 13050480 		addi	a0,s0,-2048
 473 0058 97000000 		call	usart_deinit
 473      E7800000 
 474              	.LVL26:
  79:usart.c       ****   usart_baudrate_set(USART0, 115200);
 475              		.loc 1 79 3
 476 0060 F165     		li	a1,114688
 477 0062 93850520 		addi	a1,a1,512
 478 0066 13050480 		addi	a0,s0,-2048
 479 006a 97000000 		call	usart_baudrate_set
 479      E7800000 
 480              	.LVL27:
  80:usart.c       ****   usart_parity_config(USART0, USART_PM_NONE);
 481              		.loc 1 80 3
 482 0072 8145     		li	a1,0
 483 0074 13050480 		addi	a0,s0,-2048
 484 0078 97000000 		call	usart_parity_config
 484      E7800000 
 485              	.LVL28:
  81:usart.c       ****   usart_word_length_set(USART0, USART_WL_8BIT);
 486              		.loc 1 81 3
 487 0080 8145     		li	a1,0
 488 0082 13050480 		addi	a0,s0,-2048
 489 0086 97000000 		call	usart_word_length_set
 489      E7800000 
 490              	.LVL29:
  82:usart.c       ****   usart_stop_bit_set(USART0, USART_STB_1BIT);
 491              		.loc 1 82 3
 492 008e 8145     		li	a1,0
 493 0090 13050480 		addi	a0,s0,-2048
 494 0094 97000000 		call	usart_stop_bit_set
GAS LISTING /var/folders/rt/4gvqv631095f64jvm7jfj_000000gn/T//ccYDFzYw.s 			page 12


 494      E7800000 
 495              	.LVL30:
  83:usart.c       ****   usart_hardware_flow_rts_config(USART0, USART_RTS_DISABLE);
 496              		.loc 1 83 3
 497 009c 8145     		li	a1,0
 498 009e 13050480 		addi	a0,s0,-2048
 499 00a2 97000000 		call	usart_hardware_flow_rts_config
 499      E7800000 
 500              	.LVL31:
  84:usart.c       ****   usart_hardware_flow_cts_config(USART0, USART_CTS_DISABLE);
 501              		.loc 1 84 3
 502 00aa 8145     		li	a1,0
 503 00ac 13050480 		addi	a0,s0,-2048
 504 00b0 97000000 		call	usart_hardware_flow_cts_config
 504      E7800000 
 505              	.LVL32:
  85:usart.c       ****   usart_enable(USART0);
 506              		.loc 1 85 3
 507 00b8 13050480 		addi	a0,s0,-2048
 508 00bc 97000000 		call	usart_enable
 508      E7800000 
 509              	.LVL33:
  86:usart.c       ****   usart_transmit_config(USART0, USART_TRANSMIT_ENABLE);
 510              		.loc 1 86 3
 511 00c4 A145     		li	a1,8
 512 00c6 13050480 		addi	a0,s0,-2048
 513 00ca 97000000 		call	usart_transmit_config
 513      E7800000 
 514              	.LVL34:
  87:usart.c       ****   usart_receive_config(USART0, USART_RECEIVE_ENABLE);
 515              		.loc 1 87 3
 516 00d2 9145     		li	a1,4
 517 00d4 13050480 		addi	a0,s0,-2048
 518 00d8 97000000 		call	usart_receive_config
 518      E7800000 
 519              	.LVL35:
  88:usart.c       **** 
  89:usart.c       ****   if (enable)
 520              		.loc 1 89 3
 521              		.loc 1 89 6 is_stmt 0
 522 00e0 8DC8     		beq	s1,zero,.L29
  90:usart.c       ****   {
  91:usart.c       ****     usart_interrupt_enable(USART0, USART_INT_RBNE); // INTERRUPT FÖR RX
 523              		.loc 1 91 5 is_stmt 1
 524 00e2 13050480 		addi	a0,s0,-2048
 525 00e6 93055030 		li	a1,773
 526 00ea 97000000 		call	usart_interrupt_enable
 526      E7800000 
 527              	.LVL36:
  92:usart.c       ****     eclicw_enable(USART0_IRQn, 3, 1, &wifiIsrHandler);
 528              		.loc 1 92 5
  93:usart.c       ****   }
  94:usart.c       **** }...
 529              		.loc 1 94 1 is_stmt 0
 530 00f2 2244     		lw	s0,8(sp)
 531              		.cfi_remember_state
 532              		.cfi_restore 8
GAS LISTING /var/folders/rt/4gvqv631095f64jvm7jfj_000000gn/T//ccYDFzYw.s 			page 13


 533 00f4 B240     		lw	ra,12(sp)
 534              		.cfi_restore 1
 535 00f6 9244     		lw	s1,4(sp)
 536              		.cfi_restore 9
 537              	.LVL37:
  92:usart.c       ****     eclicw_enable(USART0_IRQn, 3, 1, &wifiIsrHandler);
 538              		.loc 1 92 5
 539 00f8 B7060000 		lui	a3,%hi(wifiIsrHandler)
 540              		.loc 1 94 1
  92:usart.c       ****     eclicw_enable(USART0_IRQn, 3, 1, &wifiIsrHandler);
 541              		.loc 1 92 5
 542 00fc 93860600 		addi	a3,a3,%lo(wifiIsrHandler)
 543 0100 0546     		li	a2,1
 544 0102 8D45     		li	a1,3
 545 0104 13058003 		li	a0,56
 546              		.loc 1 94 1
 547 0108 4101     		addi	sp,sp,16
 548              	.LCFI14:
 549              		.cfi_def_cfa_offset 0
  92:usart.c       ****     eclicw_enable(USART0_IRQn, 3, 1, &wifiIsrHandler);
 550              		.loc 1 92 5
 551 010a 17030000 		tail	eclicw_enable
 551      67000300 
 552              	.LVL38:
 553              	.L29:
 554              	.LCFI15:
 555              		.cfi_restore_state
 556              		.loc 1 94 1
 557 0112 B240     		lw	ra,12(sp)
 558              		.cfi_restore 1
 559 0114 2244     		lw	s0,8(sp)
 560              		.cfi_restore 8
 561 0116 9244     		lw	s1,4(sp)
 562              		.cfi_restore 9
 563              	.LVL39:
 564 0118 4101     		addi	sp,sp,16
 565              	.LCFI16:
 566              		.cfi_def_cfa_offset 0
 567 011a 8280     		jr	ra
 568              		.cfi_endproc
 569              	.LFE6:
 571              		.globl	commandBufferIndex
 572              		.comm	commandBuffer,100,4
 573              		.globl	txq
 574              		.globl	txw
 575              		.globl	txr
 576              		.section	.bss.txq,"aw",@nobits
 577              		.align	2
 578              		.set	.LANCHOR2,. + 0
 581              	txq:
 582 0000 00000000 		.zero	1024
 582      00000000 
 582      00000000 
 582      00000000 
 582      00000000 
 583              		.section	.sbss.commandBufferIndex,"aw",@nobits
 584              		.align	2
GAS LISTING /var/folders/rt/4gvqv631095f64jvm7jfj_000000gn/T//ccYDFzYw.s 			page 14


 585              		.set	.LANCHOR3,. + 0
 588              	commandBufferIndex:
 589 0000 00000000 		.zero	4
 590              		.section	.sbss.txr,"aw",@nobits
 591              		.align	2
 592              		.set	.LANCHOR0,. + 0
 595              	txr:
 596 0000 00000000 		.zero	4
 597              		.section	.sbss.txw,"aw",@nobits
 598              		.align	2
 599              		.set	.LANCHOR1,. + 0
 602              	txw:
 603 0000 00000000 		.zero	4
 604              		.text
 605              	.Letext0:
 606              		.file 2 "/Users/alexstrae/toolchain-gd32v-v202-osx/compiler/riscv64-unknown-elf/include/machine/_d
 607              		.file 3 "/Users/alexstrae/toolchain-gd32v-v202-osx/compiler/riscv64-unknown-elf/include/sys/_stdin
 608              		.file 4 "../../firmware/GD32VF103_standard_peripheral/Include/gd32vf103_rcu.h"
 609              		.file 5 "../../firmware/GD32VF103_standard_peripheral/Include/gd32vf103_usart.h"
 610              		.file 6 "../../firmware/GD32VF103_standard_peripheral/system_gd32vf103.h"
 611              		.file 7 "usart.h"
 612              		.file 8 "/Users/alexstrae/toolchain-gd32v-v202-osx/compiler/lib/gcc/riscv64-unknown-elf/8.3.0/incl
 613              		.file 9 "/Users/alexstrae/toolchain-gd32v-v202-osx/compiler/riscv64-unknown-elf/include/sys/_types
 614              		.file 10 "/Users/alexstrae/toolchain-gd32v-v202-osx/compiler/riscv64-unknown-elf/include/sys/reent
 615              		.file 11 "/Users/alexstrae/toolchain-gd32v-v202-osx/compiler/riscv64-unknown-elf/include/sys/lock.
 616              		.file 12 "/Users/alexstrae/toolchain-gd32v-v202-osx/compiler/riscv64-unknown-elf/include/stdlib.h"
 617              		.file 13 "lcd.h"
 618              		.file 14 "../../firmware/GD32VF103_standard_peripheral/Include/gd32vf103_gpio.h"
 619              		.file 15 "eclicw.h"
 620              		.file 16 "drivers.h"
 621              		.file 17 "../../firmware/GD32VF103_standard_peripheral/gd32vf103.h"
GAS LISTING /var/folders/rt/4gvqv631095f64jvm7jfj_000000gn/T//ccYDFzYw.s 			page 15


DEFINED SYMBOLS
                            *ABS*:0000000000000000 usart.c
/var/folders/rt/4gvqv631095f64jvm7jfj_000000gn/T//ccYDFzYw.s:13     .text.wifiIsrHandler:0000000000000000 wifiIsrHandler
/var/folders/rt/4gvqv631095f64jvm7jfj_000000gn/T//ccYDFzYw.s:17     .text.wifiIsrHandler:0000000000000000 .L0 
/var/folders/rt/4gvqv631095f64jvm7jfj_000000gn/T//ccYDFzYw.s:18     .text.wifiIsrHandler:0000000000000000 .L0 
/var/folders/rt/4gvqv631095f64jvm7jfj_000000gn/T//ccYDFzYw.s:19     .text.wifiIsrHandler:0000000000000000 .L0 
/var/folders/rt/4gvqv631095f64jvm7jfj_000000gn/T//ccYDFzYw.s:20     .text.wifiIsrHandler:0000000000000000 .L0 
/var/folders/rt/4gvqv631095f64jvm7jfj_000000gn/T//ccYDFzYw.s:22     .text.wifiIsrHandler:0000000000000002 .L0 
/var/folders/rt/4gvqv631095f64jvm7jfj_000000gn/T//ccYDFzYw.s:25     .text.wifiIsrHandler:0000000000000004 .L0 
/var/folders/rt/4gvqv631095f64jvm7jfj_000000gn/T//ccYDFzYw.s:26     .text.wifiIsrHandler:0000000000000008 .L0 
/var/folders/rt/4gvqv631095f64jvm7jfj_000000gn/T//ccYDFzYw.s:31     .text.wifiIsrHandler:0000000000000014 .L0 
/var/folders/rt/4gvqv631095f64jvm7jfj_000000gn/T//ccYDFzYw.s:35     .text.wifiIsrHandler:000000000000001c .L0 
/var/folders/rt/4gvqv631095f64jvm7jfj_000000gn/T//ccYDFzYw.s:36     .text.wifiIsrHandler:000000000000001c .L0 
/var/folders/rt/4gvqv631095f64jvm7jfj_000000gn/T//ccYDFzYw.s:37     .text.wifiIsrHandler:000000000000001c .L0 
/var/folders/rt/4gvqv631095f64jvm7jfj_000000gn/T//ccYDFzYw.s:38     .text.wifiIsrHandler:000000000000001c .L0 
/var/folders/rt/4gvqv631095f64jvm7jfj_000000gn/T//ccYDFzYw.s:40     .text.wifiIsrHandler:000000000000001c .L0 
/var/folders/rt/4gvqv631095f64jvm7jfj_000000gn/T//ccYDFzYw.s:43     .text.wifiIsrHandler:0000000000000024 .L0 
/var/folders/rt/4gvqv631095f64jvm7jfj_000000gn/T//ccYDFzYw.s:45     .text.wifiIsrHandler:0000000000000026 .L0 
/var/folders/rt/4gvqv631095f64jvm7jfj_000000gn/T//ccYDFzYw.s:46     .text.wifiIsrHandler:0000000000000026 .L0 
/var/folders/rt/4gvqv631095f64jvm7jfj_000000gn/T//ccYDFzYw.s:49     .text.wifiIsrHandler:000000000000002e .L0 
/var/folders/rt/4gvqv631095f64jvm7jfj_000000gn/T//ccYDFzYw.s:54     .text.wifiIsrHandler:000000000000003c .L0 
/var/folders/rt/4gvqv631095f64jvm7jfj_000000gn/T//ccYDFzYw.s:59     .text.wifiIsrHandler:0000000000000048 .L0 
/var/folders/rt/4gvqv631095f64jvm7jfj_000000gn/T//ccYDFzYw.s:60     .text.wifiIsrHandler:0000000000000048 .L0 
/var/folders/rt/4gvqv631095f64jvm7jfj_000000gn/T//ccYDFzYw.s:62     .text.wifiIsrHandler:000000000000004a .L0 
/var/folders/rt/4gvqv631095f64jvm7jfj_000000gn/T//ccYDFzYw.s:64     .text.wifiIsrHandler:000000000000004e .L0 
/var/folders/rt/4gvqv631095f64jvm7jfj_000000gn/T//ccYDFzYw.s:67     .text.wifiIsrHandler:0000000000000054 .L0 
/var/folders/rt/4gvqv631095f64jvm7jfj_000000gn/T//ccYDFzYw.s:72     .text.wifiIsrHandler:0000000000000062 .L0 
/var/folders/rt/4gvqv631095f64jvm7jfj_000000gn/T//ccYDFzYw.s:76     .text.wifiIsrHandler:000000000000006c .L0 
/var/folders/rt/4gvqv631095f64jvm7jfj_000000gn/T//ccYDFzYw.s:77     .text.wifiIsrHandler:000000000000006c .L0 
/var/folders/rt/4gvqv631095f64jvm7jfj_000000gn/T//ccYDFzYw.s:83     .text.wifiIsrHandler:0000000000000078 .L0 
/var/folders/rt/4gvqv631095f64jvm7jfj_000000gn/T//ccYDFzYw.s:84     .text.wifiIsrHandler:0000000000000078 .L0 
/var/folders/rt/4gvqv631095f64jvm7jfj_000000gn/T//ccYDFzYw.s:91     .text.wifiIsrHandler:0000000000000090 .L0 
                            *COM*:0000000000000064 commandBuffer
/var/folders/rt/4gvqv631095f64jvm7jfj_000000gn/T//ccYDFzYw.s:96     .text.wifiIsrHandler:0000000000000092 .L0 
/var/folders/rt/4gvqv631095f64jvm7jfj_000000gn/T//ccYDFzYw.s:99     .text.wifiIsrHandler:0000000000000096 .L0 
/var/folders/rt/4gvqv631095f64jvm7jfj_000000gn/T//ccYDFzYw.s:102    .text.wifiIsrHandler:000000000000009a .L0 
/var/folders/rt/4gvqv631095f64jvm7jfj_000000gn/T//ccYDFzYw.s:104    .text.wifiIsrHandler:000000000000009e .L0 
/var/folders/rt/4gvqv631095f64jvm7jfj_000000gn/T//ccYDFzYw.s:106    .text.wifiIsrHandler:00000000000000a2 .L0 
/var/folders/rt/4gvqv631095f64jvm7jfj_000000gn/T//ccYDFzYw.s:110    .text.wifiIsrHandler:00000000000000a6 .L0 
/var/folders/rt/4gvqv631095f64jvm7jfj_000000gn/T//ccYDFzYw.s:115    .text.wifiIsrHandler:00000000000000b2 .L0 
/var/folders/rt/4gvqv631095f64jvm7jfj_000000gn/T//ccYDFzYw.s:120    .text.wifiIsrHandler:00000000000000b4 .L0 
/var/folders/rt/4gvqv631095f64jvm7jfj_000000gn/T//ccYDFzYw.s:121    .text.wifiIsrHandler:00000000000000b6 .L0 
/var/folders/rt/4gvqv631095f64jvm7jfj_000000gn/T//ccYDFzYw.s:122    .text.wifiIsrHandler:00000000000000b6 .L0 
/var/folders/rt/4gvqv631095f64jvm7jfj_000000gn/T//ccYDFzYw.s:124    .text.wifiIsrHandler:00000000000000b8 .L0 
/var/folders/rt/4gvqv631095f64jvm7jfj_000000gn/T//ccYDFzYw.s:126    .text.wifiIsrHandler:00000000000000ba .L0 
/var/folders/rt/4gvqv631095f64jvm7jfj_000000gn/T//ccYDFzYw.s:128    .text.wifiIsrHandler:00000000000000bc .L0 
/var/folders/rt/4gvqv631095f64jvm7jfj_000000gn/T//ccYDFzYw.s:130    .text.wifiIsrHandler:00000000000000be .L0 
/var/folders/rt/4gvqv631095f64jvm7jfj_000000gn/T//ccYDFzYw.s:133    .text.wifiIsrHandler:00000000000000c0 .L0 
/var/folders/rt/4gvqv631095f64jvm7jfj_000000gn/T//ccYDFzYw.s:137    .text.wifiIsrHandler:00000000000000c2 .L0 
/var/folders/rt/4gvqv631095f64jvm7jfj_000000gn/T//ccYDFzYw.s:139    .text.wifiIsrHandler:00000000000000c2 .L0 
/var/folders/rt/4gvqv631095f64jvm7jfj_000000gn/T//ccYDFzYw.s:149    .text.wifiIsrHandler:00000000000000d4 .L0 
/var/folders/rt/4gvqv631095f64jvm7jfj_000000gn/T//ccYDFzYw.s:150    .text.wifiIsrHandler:00000000000000d4 .L0 
/var/folders/rt/4gvqv631095f64jvm7jfj_000000gn/T//ccYDFzYw.s:154    .text.wifiIsrHandler:00000000000000de .L0 
/var/folders/rt/4gvqv631095f64jvm7jfj_000000gn/T//ccYDFzYw.s:155    .text.wifiIsrHandler:00000000000000de .L0 
/var/folders/rt/4gvqv631095f64jvm7jfj_000000gn/T//ccYDFzYw.s:158    .text.wifiIsrHandler:00000000000000e4 .L0 
/var/folders/rt/4gvqv631095f64jvm7jfj_000000gn/T//ccYDFzYw.s:160    .text.wifiIsrHandler:00000000000000e8 .L0 
/var/folders/rt/4gvqv631095f64jvm7jfj_000000gn/T//ccYDFzYw.s:161    .text.wifiIsrHandler:00000000000000e8 .L0 
GAS LISTING /var/folders/rt/4gvqv631095f64jvm7jfj_000000gn/T//ccYDFzYw.s 			page 16


/var/folders/rt/4gvqv631095f64jvm7jfj_000000gn/T//ccYDFzYw.s:163    .text.wifiIsrHandler:00000000000000ea .L0 
/var/folders/rt/4gvqv631095f64jvm7jfj_000000gn/T//ccYDFzYw.s:165    .text.wifiIsrHandler:00000000000000ee .L0 
/var/folders/rt/4gvqv631095f64jvm7jfj_000000gn/T//ccYDFzYw.s:168    .text.wifiIsrHandler:00000000000000f4 .L0 
/var/folders/rt/4gvqv631095f64jvm7jfj_000000gn/T//ccYDFzYw.s:174    .text.wifiIsrHandler:00000000000000fc .L0 
/var/folders/rt/4gvqv631095f64jvm7jfj_000000gn/T//ccYDFzYw.s:181    .text.u0_TX_Queue:0000000000000000 u0_TX_Queue
/var/folders/rt/4gvqv631095f64jvm7jfj_000000gn/T//ccYDFzYw.s:184    .text.u0_TX_Queue:0000000000000000 .L0 
/var/folders/rt/4gvqv631095f64jvm7jfj_000000gn/T//ccYDFzYw.s:185    .text.u0_TX_Queue:0000000000000000 .L0 
/var/folders/rt/4gvqv631095f64jvm7jfj_000000gn/T//ccYDFzYw.s:186    .text.u0_TX_Queue:0000000000000000 .L0 
/var/folders/rt/4gvqv631095f64jvm7jfj_000000gn/T//ccYDFzYw.s:187    .text.u0_TX_Queue:0000000000000000 .L0 
/var/folders/rt/4gvqv631095f64jvm7jfj_000000gn/T//ccYDFzYw.s:189    .text.u0_TX_Queue:0000000000000002 .L0 
/var/folders/rt/4gvqv631095f64jvm7jfj_000000gn/T//ccYDFzYw.s:191    .text.u0_TX_Queue:0000000000000004 .L0 
/var/folders/rt/4gvqv631095f64jvm7jfj_000000gn/T//ccYDFzYw.s:193    .text.u0_TX_Queue:0000000000000004 .L0 
/var/folders/rt/4gvqv631095f64jvm7jfj_000000gn/T//ccYDFzYw.s:196    .text.u0_TX_Queue:000000000000000c .L0 
/var/folders/rt/4gvqv631095f64jvm7jfj_000000gn/T//ccYDFzYw.s:200    .text.u0_TX_Queue:0000000000000016 .L0 
/var/folders/rt/4gvqv631095f64jvm7jfj_000000gn/T//ccYDFzYw.s:202    .text.u0_TX_Queue:000000000000001a .L0 
/var/folders/rt/4gvqv631095f64jvm7jfj_000000gn/T//ccYDFzYw.s:203    .text.u0_TX_Queue:000000000000001a .L0 
/var/folders/rt/4gvqv631095f64jvm7jfj_000000gn/T//ccYDFzYw.s:205    .text.u0_TX_Queue:000000000000001a .L0 
/var/folders/rt/4gvqv631095f64jvm7jfj_000000gn/T//ccYDFzYw.s:207    .text.u0_TX_Queue:000000000000001e .L0 
/var/folders/rt/4gvqv631095f64jvm7jfj_000000gn/T//ccYDFzYw.s:208    .text.u0_TX_Queue:000000000000001e .L0 
/var/folders/rt/4gvqv631095f64jvm7jfj_000000gn/T//ccYDFzYw.s:214    .text.u0_TX_Queue:0000000000000030 .L0 
/var/folders/rt/4gvqv631095f64jvm7jfj_000000gn/T//ccYDFzYw.s:218    .text.u0_TX_Queue:0000000000000032 .L0 
/var/folders/rt/4gvqv631095f64jvm7jfj_000000gn/T//ccYDFzYw.s:219    .text.u0_TX_Queue:0000000000000032 .L0 
/var/folders/rt/4gvqv631095f64jvm7jfj_000000gn/T//ccYDFzYw.s:221    .text.u0_TX_Queue:0000000000000034 .L0 
/var/folders/rt/4gvqv631095f64jvm7jfj_000000gn/T//ccYDFzYw.s:223    .text.u0_TX_Queue:0000000000000038 .L0 
/var/folders/rt/4gvqv631095f64jvm7jfj_000000gn/T//ccYDFzYw.s:226    .text.u0_TX_Queue:000000000000003e .L0 
/var/folders/rt/4gvqv631095f64jvm7jfj_000000gn/T//ccYDFzYw.s:231    .text.u0_TX_Queue:000000000000004c .L0 
/var/folders/rt/4gvqv631095f64jvm7jfj_000000gn/T//ccYDFzYw.s:235    .text.u0_TX_Queue:0000000000000056 .L0 
/var/folders/rt/4gvqv631095f64jvm7jfj_000000gn/T//ccYDFzYw.s:236    .text.u0_TX_Queue:0000000000000056 .L0 
/var/folders/rt/4gvqv631095f64jvm7jfj_000000gn/T//ccYDFzYw.s:244    .text.u0_TX_Queue:0000000000000062 .L0 
/var/folders/rt/4gvqv631095f64jvm7jfj_000000gn/T//ccYDFzYw.s:245    .text.u0_TX_Queue:0000000000000064 .L0 
/var/folders/rt/4gvqv631095f64jvm7jfj_000000gn/T//ccYDFzYw.s:246    .text.u0_TX_Queue:0000000000000064 .L0 
/var/folders/rt/4gvqv631095f64jvm7jfj_000000gn/T//ccYDFzYw.s:248    .text.u0_TX_Queue:0000000000000066 .L0 
/var/folders/rt/4gvqv631095f64jvm7jfj_000000gn/T//ccYDFzYw.s:250    .text.u0_TX_Queue:0000000000000068 .L0 
/var/folders/rt/4gvqv631095f64jvm7jfj_000000gn/T//ccYDFzYw.s:253    .text.u0_TX_Queue:000000000000006a .L0 
/var/folders/rt/4gvqv631095f64jvm7jfj_000000gn/T//ccYDFzYw.s:257    .text.u0_TX_Queue:000000000000006c .L0 
/var/folders/rt/4gvqv631095f64jvm7jfj_000000gn/T//ccYDFzYw.s:259    .text.u0_TX_Queue:000000000000006c .L0 
/var/folders/rt/4gvqv631095f64jvm7jfj_000000gn/T//ccYDFzYw.s:260    .text.u0_TX_Queue:000000000000006c .L0 
/var/folders/rt/4gvqv631095f64jvm7jfj_000000gn/T//ccYDFzYw.s:261    .text.u0_TX_Queue:000000000000006e .L0 
/var/folders/rt/4gvqv631095f64jvm7jfj_000000gn/T//ccYDFzYw.s:263    .text.u0_TX_Queue:0000000000000070 .L0 
/var/folders/rt/4gvqv631095f64jvm7jfj_000000gn/T//ccYDFzYw.s:265    .text.u0_TX_Queue:0000000000000072 .L0 
/var/folders/rt/4gvqv631095f64jvm7jfj_000000gn/T//ccYDFzYw.s:267    .text.u0_TX_Queue:0000000000000072 .L0 
/var/folders/rt/4gvqv631095f64jvm7jfj_000000gn/T//ccYDFzYw.s:269    .text.u0_TX_Queue:0000000000000076 .L0 
/var/folders/rt/4gvqv631095f64jvm7jfj_000000gn/T//ccYDFzYw.s:270    .text.u0_TX_Queue:0000000000000076 .L0 
/var/folders/rt/4gvqv631095f64jvm7jfj_000000gn/T//ccYDFzYw.s:273    .text.u0_TX_Queue:000000000000007e .L0 
/var/folders/rt/4gvqv631095f64jvm7jfj_000000gn/T//ccYDFzYw.s:275    .text.u0_TX_Queue:0000000000000080 .L0 
/var/folders/rt/4gvqv631095f64jvm7jfj_000000gn/T//ccYDFzYw.s:277    .text.u0_TX_Queue:0000000000000080 .L0 
/var/folders/rt/4gvqv631095f64jvm7jfj_000000gn/T//ccYDFzYw.s:279    .text.u0_TX_Queue:0000000000000088 .L0 
/var/folders/rt/4gvqv631095f64jvm7jfj_000000gn/T//ccYDFzYw.s:286    .text.putch:0000000000000000 putch
/var/folders/rt/4gvqv631095f64jvm7jfj_000000gn/T//ccYDFzYw.s:289    .text.putch:0000000000000000 .L0 
/var/folders/rt/4gvqv631095f64jvm7jfj_000000gn/T//ccYDFzYw.s:291    .text.putch:0000000000000000 .L0 
/var/folders/rt/4gvqv631095f64jvm7jfj_000000gn/T//ccYDFzYw.s:292    .text.putch:0000000000000000 .L0 
/var/folders/rt/4gvqv631095f64jvm7jfj_000000gn/T//ccYDFzYw.s:293    .text.putch:0000000000000000 .L0 
/var/folders/rt/4gvqv631095f64jvm7jfj_000000gn/T//ccYDFzYw.s:295    .text.putch:0000000000000002 .L0 
/var/folders/rt/4gvqv631095f64jvm7jfj_000000gn/T//ccYDFzYw.s:300    .text.putch:000000000000000a .L0 
/var/folders/rt/4gvqv631095f64jvm7jfj_000000gn/T//ccYDFzYw.s:301    .text.putch:000000000000000a .L0 
/var/folders/rt/4gvqv631095f64jvm7jfj_000000gn/T//ccYDFzYw.s:302    .text.putch:000000000000000a .L0 
/var/folders/rt/4gvqv631095f64jvm7jfj_000000gn/T//ccYDFzYw.s:303    .text.putch:000000000000000a .L0 
GAS LISTING /var/folders/rt/4gvqv631095f64jvm7jfj_000000gn/T//ccYDFzYw.s 			page 17


/var/folders/rt/4gvqv631095f64jvm7jfj_000000gn/T//ccYDFzYw.s:305    .text.putch:000000000000000a .L0 
/var/folders/rt/4gvqv631095f64jvm7jfj_000000gn/T//ccYDFzYw.s:307    .text.putch:000000000000000e .L0 
/var/folders/rt/4gvqv631095f64jvm7jfj_000000gn/T//ccYDFzYw.s:309    .text.putch:0000000000000012 .L0 
/var/folders/rt/4gvqv631095f64jvm7jfj_000000gn/T//ccYDFzYw.s:313    .text.putch:0000000000000016 .L0 
/var/folders/rt/4gvqv631095f64jvm7jfj_000000gn/T//ccYDFzYw.s:316    .text.putch:000000000000001c .L0 
/var/folders/rt/4gvqv631095f64jvm7jfj_000000gn/T//ccYDFzYw.s:318    .text.putch:0000000000000020 .L0 
/var/folders/rt/4gvqv631095f64jvm7jfj_000000gn/T//ccYDFzYw.s:320    .text.putch:0000000000000024 .L0 
/var/folders/rt/4gvqv631095f64jvm7jfj_000000gn/T//ccYDFzYw.s:322    .text.putch:0000000000000028 .L0 
/var/folders/rt/4gvqv631095f64jvm7jfj_000000gn/T//ccYDFzYw.s:324    .text.putch:000000000000002c .L0 
/var/folders/rt/4gvqv631095f64jvm7jfj_000000gn/T//ccYDFzYw.s:325    .text.putch:000000000000002c .L0 
/var/folders/rt/4gvqv631095f64jvm7jfj_000000gn/T//ccYDFzYw.s:328    .text.putch:0000000000000034 .L0 
/var/folders/rt/4gvqv631095f64jvm7jfj_000000gn/T//ccYDFzYw.s:329    .text.putch:0000000000000036 .L0 
/var/folders/rt/4gvqv631095f64jvm7jfj_000000gn/T//ccYDFzYw.s:330    .text.putch:0000000000000036 .L0 
/var/folders/rt/4gvqv631095f64jvm7jfj_000000gn/T//ccYDFzYw.s:332    .text.putch:0000000000000036 .L0 
/var/folders/rt/4gvqv631095f64jvm7jfj_000000gn/T//ccYDFzYw.s:334    .text.putch:000000000000003a .L0 
/var/folders/rt/4gvqv631095f64jvm7jfj_000000gn/T//ccYDFzYw.s:335    .text.putch:000000000000003c .L0 
/var/folders/rt/4gvqv631095f64jvm7jfj_000000gn/T//ccYDFzYw.s:337    .text.putch:000000000000003e .L0 
/var/folders/rt/4gvqv631095f64jvm7jfj_000000gn/T//ccYDFzYw.s:339    .text.putch:0000000000000040 .L0 
/var/folders/rt/4gvqv631095f64jvm7jfj_000000gn/T//ccYDFzYw.s:341    .text.putch:0000000000000040 .L0 
/var/folders/rt/4gvqv631095f64jvm7jfj_000000gn/T//ccYDFzYw.s:344    .text.putch:0000000000000044 .L0 
/var/folders/rt/4gvqv631095f64jvm7jfj_000000gn/T//ccYDFzYw.s:345    .text.putch:0000000000000044 .L0 
/var/folders/rt/4gvqv631095f64jvm7jfj_000000gn/T//ccYDFzYw.s:347    .text.putch:0000000000000046 .L0 
/var/folders/rt/4gvqv631095f64jvm7jfj_000000gn/T//ccYDFzYw.s:349    .text.putch:000000000000004a .L0 
/var/folders/rt/4gvqv631095f64jvm7jfj_000000gn/T//ccYDFzYw.s:350    .text.putch:000000000000004a .L0 
/var/folders/rt/4gvqv631095f64jvm7jfj_000000gn/T//ccYDFzYw.s:353    .text.putch:0000000000000052 .L0 
/var/folders/rt/4gvqv631095f64jvm7jfj_000000gn/T//ccYDFzYw.s:355    .text.putch:0000000000000054 .L0 
/var/folders/rt/4gvqv631095f64jvm7jfj_000000gn/T//ccYDFzYw.s:357    .text.putch:0000000000000054 .L0 
/var/folders/rt/4gvqv631095f64jvm7jfj_000000gn/T//ccYDFzYw.s:361    .text.putch:000000000000005c .L0 
/var/folders/rt/4gvqv631095f64jvm7jfj_000000gn/T//ccYDFzYw.s:364    .text.putch:000000000000005e .L0 
/var/folders/rt/4gvqv631095f64jvm7jfj_000000gn/T//ccYDFzYw.s:368    .text.putch:000000000000006a .L0 
/var/folders/rt/4gvqv631095f64jvm7jfj_000000gn/T//ccYDFzYw.s:375    .text.putstr:0000000000000000 putstr
/var/folders/rt/4gvqv631095f64jvm7jfj_000000gn/T//ccYDFzYw.s:378    .text.putstr:0000000000000000 .L0 
/var/folders/rt/4gvqv631095f64jvm7jfj_000000gn/T//ccYDFzYw.s:380    .text.putstr:0000000000000000 .L0 
/var/folders/rt/4gvqv631095f64jvm7jfj_000000gn/T//ccYDFzYw.s:382    .text.putstr:0000000000000002 .L0 
/var/folders/rt/4gvqv631095f64jvm7jfj_000000gn/T//ccYDFzYw.s:385    .text.putstr:0000000000000006 .L0 
/var/folders/rt/4gvqv631095f64jvm7jfj_000000gn/T//ccYDFzYw.s:386    .text.putstr:0000000000000006 .L0 
/var/folders/rt/4gvqv631095f64jvm7jfj_000000gn/T//ccYDFzYw.s:391    .text.putstr:0000000000000008 .L0 
/var/folders/rt/4gvqv631095f64jvm7jfj_000000gn/T//ccYDFzYw.s:392    .text.putstr:0000000000000008 .L0 
/var/folders/rt/4gvqv631095f64jvm7jfj_000000gn/T//ccYDFzYw.s:394    .text.putstr:000000000000000c .L0 
/var/folders/rt/4gvqv631095f64jvm7jfj_000000gn/T//ccYDFzYw.s:396    .text.putstr:000000000000000e .L0 
/var/folders/rt/4gvqv631095f64jvm7jfj_000000gn/T//ccYDFzYw.s:397    .text.putstr:0000000000000010 .L0 
/var/folders/rt/4gvqv631095f64jvm7jfj_000000gn/T//ccYDFzYw.s:398    .text.putstr:0000000000000010 .L0 
/var/folders/rt/4gvqv631095f64jvm7jfj_000000gn/T//ccYDFzYw.s:400    .text.putstr:0000000000000012 .L0 
/var/folders/rt/4gvqv631095f64jvm7jfj_000000gn/T//ccYDFzYw.s:404    .text.putstr:0000000000000014 .L0 
/var/folders/rt/4gvqv631095f64jvm7jfj_000000gn/T//ccYDFzYw.s:409    .text.putstr:0000000000000016 .L0 
/var/folders/rt/4gvqv631095f64jvm7jfj_000000gn/T//ccYDFzYw.s:411    .text.putstr:0000000000000016 .L0 
/var/folders/rt/4gvqv631095f64jvm7jfj_000000gn/T//ccYDFzYw.s:412    .text.putstr:0000000000000016 .L0 
/var/folders/rt/4gvqv631095f64jvm7jfj_000000gn/T//ccYDFzYw.s:415    .text.putstr:0000000000000018 .L0 
/var/folders/rt/4gvqv631095f64jvm7jfj_000000gn/T//ccYDFzYw.s:418    .text.putstr:0000000000000022 .L0 
/var/folders/rt/4gvqv631095f64jvm7jfj_000000gn/T//ccYDFzYw.s:425    .text.u0init:0000000000000000 u0init
/var/folders/rt/4gvqv631095f64jvm7jfj_000000gn/T//ccYDFzYw.s:428    .text.u0init:0000000000000000 .L0 
/var/folders/rt/4gvqv631095f64jvm7jfj_000000gn/T//ccYDFzYw.s:430    .text.u0init:0000000000000000 .L0 
/var/folders/rt/4gvqv631095f64jvm7jfj_000000gn/T//ccYDFzYw.s:431    .text.u0init:0000000000000000 .L0 
/var/folders/rt/4gvqv631095f64jvm7jfj_000000gn/T//ccYDFzYw.s:432    .text.u0init:0000000000000000 .L0 
/var/folders/rt/4gvqv631095f64jvm7jfj_000000gn/T//ccYDFzYw.s:434    .text.u0init:0000000000000002 .L0 
/var/folders/rt/4gvqv631095f64jvm7jfj_000000gn/T//ccYDFzYw.s:436    .text.u0init:0000000000000004 .L0 
/var/folders/rt/4gvqv631095f64jvm7jfj_000000gn/T//ccYDFzYw.s:439    .text.u0init:0000000000000006 .L0 
GAS LISTING /var/folders/rt/4gvqv631095f64jvm7jfj_000000gn/T//ccYDFzYw.s 			page 18


/var/folders/rt/4gvqv631095f64jvm7jfj_000000gn/T//ccYDFzYw.s:442    .text.u0init:000000000000000a .L0 
/var/folders/rt/4gvqv631095f64jvm7jfj_000000gn/T//ccYDFzYw.s:444    .text.u0init:000000000000000e .L0 
/var/folders/rt/4gvqv631095f64jvm7jfj_000000gn/T//ccYDFzYw.s:445    .text.u0init:000000000000000e .L0 
/var/folders/rt/4gvqv631095f64jvm7jfj_000000gn/T//ccYDFzYw.s:447    .text.u0init:000000000000000e .L0 
/var/folders/rt/4gvqv631095f64jvm7jfj_000000gn/T//ccYDFzYw.s:450    .text.u0init:0000000000000016 .L0 
/var/folders/rt/4gvqv631095f64jvm7jfj_000000gn/T//ccYDFzYw.s:458    .text.u0init:000000000000002e .L0 
/var/folders/rt/4gvqv631095f64jvm7jfj_000000gn/T//ccYDFzYw.s:465    .text.u0init:0000000000000044 .L0 
/var/folders/rt/4gvqv631095f64jvm7jfj_000000gn/T//ccYDFzYw.s:467    .text.u0init:0000000000000048 .L0 
/var/folders/rt/4gvqv631095f64jvm7jfj_000000gn/T//ccYDFzYw.s:469    .text.u0init:000000000000004c .L0 
/var/folders/rt/4gvqv631095f64jvm7jfj_000000gn/T//ccYDFzYw.s:472    .text.u0init:0000000000000054 .L0 
/var/folders/rt/4gvqv631095f64jvm7jfj_000000gn/T//ccYDFzYw.s:476    .text.u0init:0000000000000060 .L0 
/var/folders/rt/4gvqv631095f64jvm7jfj_000000gn/T//ccYDFzYw.s:482    .text.u0init:0000000000000072 .L0 
/var/folders/rt/4gvqv631095f64jvm7jfj_000000gn/T//ccYDFzYw.s:487    .text.u0init:0000000000000080 .L0 
/var/folders/rt/4gvqv631095f64jvm7jfj_000000gn/T//ccYDFzYw.s:492    .text.u0init:000000000000008e .L0 
/var/folders/rt/4gvqv631095f64jvm7jfj_000000gn/T//ccYDFzYw.s:497    .text.u0init:000000000000009c .L0 
/var/folders/rt/4gvqv631095f64jvm7jfj_000000gn/T//ccYDFzYw.s:502    .text.u0init:00000000000000aa .L0 
/var/folders/rt/4gvqv631095f64jvm7jfj_000000gn/T//ccYDFzYw.s:507    .text.u0init:00000000000000b8 .L0 
/var/folders/rt/4gvqv631095f64jvm7jfj_000000gn/T//ccYDFzYw.s:511    .text.u0init:00000000000000c4 .L0 
/var/folders/rt/4gvqv631095f64jvm7jfj_000000gn/T//ccYDFzYw.s:516    .text.u0init:00000000000000d2 .L0 
/var/folders/rt/4gvqv631095f64jvm7jfj_000000gn/T//ccYDFzYw.s:521    .text.u0init:00000000000000e0 .L0 
/var/folders/rt/4gvqv631095f64jvm7jfj_000000gn/T//ccYDFzYw.s:522    .text.u0init:00000000000000e0 .L0 
/var/folders/rt/4gvqv631095f64jvm7jfj_000000gn/T//ccYDFzYw.s:524    .text.u0init:00000000000000e2 .L0 
/var/folders/rt/4gvqv631095f64jvm7jfj_000000gn/T//ccYDFzYw.s:529    .text.u0init:00000000000000f2 .L0 
/var/folders/rt/4gvqv631095f64jvm7jfj_000000gn/T//ccYDFzYw.s:530    .text.u0init:00000000000000f2 .L0 
/var/folders/rt/4gvqv631095f64jvm7jfj_000000gn/T//ccYDFzYw.s:531    .text.u0init:00000000000000f4 .L0 
/var/folders/rt/4gvqv631095f64jvm7jfj_000000gn/T//ccYDFzYw.s:532    .text.u0init:00000000000000f4 .L0 
/var/folders/rt/4gvqv631095f64jvm7jfj_000000gn/T//ccYDFzYw.s:534    .text.u0init:00000000000000f6 .L0 
/var/folders/rt/4gvqv631095f64jvm7jfj_000000gn/T//ccYDFzYw.s:536    .text.u0init:00000000000000f8 .L0 
/var/folders/rt/4gvqv631095f64jvm7jfj_000000gn/T//ccYDFzYw.s:539    .text.u0init:00000000000000f8 .L0 
/var/folders/rt/4gvqv631095f64jvm7jfj_000000gn/T//ccYDFzYw.s:541    .text.u0init:00000000000000fc .L0 
/var/folders/rt/4gvqv631095f64jvm7jfj_000000gn/T//ccYDFzYw.s:542    .text.u0init:00000000000000fc .L0 
/var/folders/rt/4gvqv631095f64jvm7jfj_000000gn/T//ccYDFzYw.s:547    .text.u0init:0000000000000108 .L0 
/var/folders/rt/4gvqv631095f64jvm7jfj_000000gn/T//ccYDFzYw.s:549    .text.u0init:000000000000010a .L0 
/var/folders/rt/4gvqv631095f64jvm7jfj_000000gn/T//ccYDFzYw.s:551    .text.u0init:000000000000010a .L0 
/var/folders/rt/4gvqv631095f64jvm7jfj_000000gn/T//ccYDFzYw.s:555    .text.u0init:0000000000000112 .L0 
/var/folders/rt/4gvqv631095f64jvm7jfj_000000gn/T//ccYDFzYw.s:557    .text.u0init:0000000000000112 .L0 
/var/folders/rt/4gvqv631095f64jvm7jfj_000000gn/T//ccYDFzYw.s:558    .text.u0init:0000000000000114 .L0 
/var/folders/rt/4gvqv631095f64jvm7jfj_000000gn/T//ccYDFzYw.s:560    .text.u0init:0000000000000116 .L0 
/var/folders/rt/4gvqv631095f64jvm7jfj_000000gn/T//ccYDFzYw.s:562    .text.u0init:0000000000000118 .L0 
/var/folders/rt/4gvqv631095f64jvm7jfj_000000gn/T//ccYDFzYw.s:566    .text.u0init:000000000000011a .L0 
/var/folders/rt/4gvqv631095f64jvm7jfj_000000gn/T//ccYDFzYw.s:568    .text.u0init:000000000000011c .L0 
/var/folders/rt/4gvqv631095f64jvm7jfj_000000gn/T//ccYDFzYw.s:588    .sbss.commandBufferIndex:0000000000000000 commandBufferIndex
/var/folders/rt/4gvqv631095f64jvm7jfj_000000gn/T//ccYDFzYw.s:581    .bss.txq:0000000000000000 txq
/var/folders/rt/4gvqv631095f64jvm7jfj_000000gn/T//ccYDFzYw.s:602    .sbss.txw:0000000000000000 txw
/var/folders/rt/4gvqv631095f64jvm7jfj_000000gn/T//ccYDFzYw.s:595    .sbss.txr:0000000000000000 txr
/var/folders/rt/4gvqv631095f64jvm7jfj_000000gn/T//ccYDFzYw.s:578    .bss.txq:0000000000000000 .LANCHOR2
/var/folders/rt/4gvqv631095f64jvm7jfj_000000gn/T//ccYDFzYw.s:585    .sbss.commandBufferIndex:0000000000000000 .LANCHOR3
/var/folders/rt/4gvqv631095f64jvm7jfj_000000gn/T//ccYDFzYw.s:592    .sbss.txr:0000000000000000 .LANCHOR0
/var/folders/rt/4gvqv631095f64jvm7jfj_000000gn/T//ccYDFzYw.s:599    .sbss.txw:0000000000000000 .LANCHOR1
/var/folders/rt/4gvqv631095f64jvm7jfj_000000gn/T//ccYDFzYw.s:177    .text.wifiIsrHandler:00000000000000fc .L0 
/var/folders/rt/4gvqv631095f64jvm7jfj_000000gn/T//ccYDFzYw.s:282    .text.u0_TX_Queue:0000000000000088 .L0 
/var/folders/rt/4gvqv631095f64jvm7jfj_000000gn/T//ccYDFzYw.s:371    .text.putch:000000000000006a .L0 
/var/folders/rt/4gvqv631095f64jvm7jfj_000000gn/T//ccYDFzYw.s:421    .text.putstr:0000000000000022 .L0 
/var/folders/rt/4gvqv631095f64jvm7jfj_000000gn/T//ccYDFzYw.s:576    .text.u0init:000000000000011c .L0 
                     .debug_frame:0000000000000000 .L0 
/var/folders/rt/4gvqv631095f64jvm7jfj_000000gn/T//ccYDFzYw.s:81     .text.wifiIsrHandler:0000000000000078 .L2
/var/folders/rt/4gvqv631095f64jvm7jfj_000000gn/T//ccYDFzYw.s:135    .text.wifiIsrHandler:00000000000000c2 .L3
GAS LISTING /var/folders/rt/4gvqv631095f64jvm7jfj_000000gn/T//ccYDFzYw.s 			page 19


/var/folders/rt/4gvqv631095f64jvm7jfj_000000gn/T//ccYDFzYw.s:116    .text.wifiIsrHandler:00000000000000b4 .L1
/var/folders/rt/4gvqv631095f64jvm7jfj_000000gn/T//ccYDFzYw.s:144    .text.wifiIsrHandler:00000000000000d4 .L6
/var/folders/rt/4gvqv631095f64jvm7jfj_000000gn/T//ccYDFzYw.s:107    .text.wifiIsrHandler:00000000000000a6 .L5
/var/folders/rt/4gvqv631095f64jvm7jfj_000000gn/T//ccYDFzYw.s:255    .text.u0_TX_Queue:000000000000006c .L15
/var/folders/rt/4gvqv631095f64jvm7jfj_000000gn/T//ccYDFzYw.s:240    .text.u0_TX_Queue:0000000000000062 .L14
/var/folders/rt/4gvqv631095f64jvm7jfj_000000gn/T//ccYDFzYw.s:359    .text.putch:000000000000005c .L23
/var/folders/rt/4gvqv631095f64jvm7jfj_000000gn/T//ccYDFzYw.s:311    .text.putch:0000000000000016 .L22
/var/folders/rt/4gvqv631095f64jvm7jfj_000000gn/T//ccYDFzYw.s:407    .text.putstr:0000000000000016 .L27
/var/folders/rt/4gvqv631095f64jvm7jfj_000000gn/T//ccYDFzYw.s:390    .text.putstr:0000000000000008 .L26
/var/folders/rt/4gvqv631095f64jvm7jfj_000000gn/T//ccYDFzYw.s:553    .text.u0init:0000000000000112 .L29
/var/folders/rt/4gvqv631095f64jvm7jfj_000000gn/T//ccYDFzYw.s:3320   .debug_abbrev:0000000000000000 .Ldebug_abbrev0
/var/folders/rt/4gvqv631095f64jvm7jfj_000000gn/T//ccYDFzYw.s:4472   .debug_str:000000000000018a .LASF285
/var/folders/rt/4gvqv631095f64jvm7jfj_000000gn/T//ccYDFzYw.s:4878   .debug_str:0000000000000bff .LASF286
/var/folders/rt/4gvqv631095f64jvm7jfj_000000gn/T//ccYDFzYw.s:4566   .debug_str:0000000000000450 .LASF287
/var/folders/rt/4gvqv631095f64jvm7jfj_000000gn/T//ccYDFzYw.s:4370   .debug_ranges:0000000000000000 .Ldebug_ranges0
/var/folders/rt/4gvqv631095f64jvm7jfj_000000gn/T//ccYDFzYw.s:4398   .debug_line:0000000000000000 .Ldebug_line0
/var/folders/rt/4gvqv631095f64jvm7jfj_000000gn/T//ccYDFzYw.s:4520   .debug_str:0000000000000318 .LASF288
/var/folders/rt/4gvqv631095f64jvm7jfj_000000gn/T//ccYDFzYw.s:4732   .debug_str:000000000000087f .LASF0
/var/folders/rt/4gvqv631095f64jvm7jfj_000000gn/T//ccYDFzYw.s:4976   .debug_str:0000000000000e53 .LASF1
/var/folders/rt/4gvqv631095f64jvm7jfj_000000gn/T//ccYDFzYw.s:4630   .debug_str:00000000000005fb .LASF2
/var/folders/rt/4gvqv631095f64jvm7jfj_000000gn/T//ccYDFzYw.s:4528   .debug_str:0000000000000349 .LASF3
/var/folders/rt/4gvqv631095f64jvm7jfj_000000gn/T//ccYDFzYw.s:4780   .debug_str:0000000000000991 .LASF4
/var/folders/rt/4gvqv631095f64jvm7jfj_000000gn/T//ccYDFzYw.s:4866   .debug_str:0000000000000ba0 .LASF5
/var/folders/rt/4gvqv631095f64jvm7jfj_000000gn/T//ccYDFzYw.s:4918   .debug_str:0000000000000ce8 .LASF6
/var/folders/rt/4gvqv631095f64jvm7jfj_000000gn/T//ccYDFzYw.s:4516   .debug_str:00000000000002ff .LASF7
/var/folders/rt/4gvqv631095f64jvm7jfj_000000gn/T//ccYDFzYw.s:4978   .debug_str:0000000000000e60 .LASF8
/var/folders/rt/4gvqv631095f64jvm7jfj_000000gn/T//ccYDFzYw.s:4802   .debug_str:0000000000000a09 .LASF9
/var/folders/rt/4gvqv631095f64jvm7jfj_000000gn/T//ccYDFzYw.s:4870   .debug_str:0000000000000bbf .LASF10
/var/folders/rt/4gvqv631095f64jvm7jfj_000000gn/T//ccYDFzYw.s:4862   .debug_str:0000000000000b8c .LASF11
/var/folders/rt/4gvqv631095f64jvm7jfj_000000gn/T//ccYDFzYw.s:4622   .debug_str:00000000000005cc .LASF12
/var/folders/rt/4gvqv631095f64jvm7jfj_000000gn/T//ccYDFzYw.s:4402   .debug_str:000000000000000f .LASF13
/var/folders/rt/4gvqv631095f64jvm7jfj_000000gn/T//ccYDFzYw.s:4952   .debug_str:0000000000000d95 .LASF14
/var/folders/rt/4gvqv631095f64jvm7jfj_000000gn/T//ccYDFzYw.s:4730   .debug_str:0000000000000874 .LASF15
/var/folders/rt/4gvqv631095f64jvm7jfj_000000gn/T//ccYDFzYw.s:4492   .debug_str:0000000000000273 .LASF16
/var/folders/rt/4gvqv631095f64jvm7jfj_000000gn/T//ccYDFzYw.s:4460   .debug_str:000000000000013d .LASF17
/var/folders/rt/4gvqv631095f64jvm7jfj_000000gn/T//ccYDFzYw.s:4798   .debug_str:00000000000009e8 .LASF18
/var/folders/rt/4gvqv631095f64jvm7jfj_000000gn/T//ccYDFzYw.s:4590   .debug_str:0000000000000505 .LASF19
/var/folders/rt/4gvqv631095f64jvm7jfj_000000gn/T//ccYDFzYw.s:4550   .debug_str:00000000000003c8 .LASF20
/var/folders/rt/4gvqv631095f64jvm7jfj_000000gn/T//ccYDFzYw.s:4900   .debug_str:0000000000000c81 .LASF21
/var/folders/rt/4gvqv631095f64jvm7jfj_000000gn/T//ccYDFzYw.s:4658   .debug_str:00000000000006b3 .LASF22
/var/folders/rt/4gvqv631095f64jvm7jfj_000000gn/T//ccYDFzYw.s:4574   .debug_str:00000000000004b1 .LASF23
/var/folders/rt/4gvqv631095f64jvm7jfj_000000gn/T//ccYDFzYw.s:4518   .debug_str:000000000000030b .LASF24
/var/folders/rt/4gvqv631095f64jvm7jfj_000000gn/T//ccYDFzYw.s:4664   .debug_str:00000000000006d8 .LASF25
/var/folders/rt/4gvqv631095f64jvm7jfj_000000gn/T//ccYDFzYw.s:4474   .debug_str:0000000000000212 .LASF26
/var/folders/rt/4gvqv631095f64jvm7jfj_000000gn/T//ccYDFzYw.s:4882   .debug_str:0000000000000c11 .LASF27
/var/folders/rt/4gvqv631095f64jvm7jfj_000000gn/T//ccYDFzYw.s:4514   .debug_str:00000000000002f2 .LASF28
/var/folders/rt/4gvqv631095f64jvm7jfj_000000gn/T//ccYDFzYw.s:4414   .debug_str:0000000000000050 .LASF29
/var/folders/rt/4gvqv631095f64jvm7jfj_000000gn/T//ccYDFzYw.s:4884   .debug_str:0000000000000c20 .LASF30
/var/folders/rt/4gvqv631095f64jvm7jfj_000000gn/T//ccYDFzYw.s:4908   .debug_str:0000000000000cb5 .LASF31
/var/folders/rt/4gvqv631095f64jvm7jfj_000000gn/T//ccYDFzYw.s:4670   .debug_str:00000000000006f9 .LASF32
/var/folders/rt/4gvqv631095f64jvm7jfj_000000gn/T//ccYDFzYw.s:4674   .debug_str:0000000000000718 .LASF33
/var/folders/rt/4gvqv631095f64jvm7jfj_000000gn/T//ccYDFzYw.s:4478   .debug_str:0000000000000226 .LASF34
/var/folders/rt/4gvqv631095f64jvm7jfj_000000gn/T//ccYDFzYw.s:4824   .debug_str:0000000000000ab8 .LASF35
/var/folders/rt/4gvqv631095f64jvm7jfj_000000gn/T//ccYDFzYw.s:4496   .debug_str:0000000000000290 .LASF36
/var/folders/rt/4gvqv631095f64jvm7jfj_000000gn/T//ccYDFzYw.s:4416   .debug_str:0000000000000060 .LASF37
/var/folders/rt/4gvqv631095f64jvm7jfj_000000gn/T//ccYDFzYw.s:4610   .debug_str:0000000000000598 .LASF38
/var/folders/rt/4gvqv631095f64jvm7jfj_000000gn/T//ccYDFzYw.s:4554   .debug_str:00000000000003f4 .LASF39
GAS LISTING /var/folders/rt/4gvqv631095f64jvm7jfj_000000gn/T//ccYDFzYw.s 			page 20


/var/folders/rt/4gvqv631095f64jvm7jfj_000000gn/T//ccYDFzYw.s:4920   .debug_str:0000000000000cf1 .LASF40
/var/folders/rt/4gvqv631095f64jvm7jfj_000000gn/T//ccYDFzYw.s:4698   .debug_str:0000000000000792 .LASF41
/var/folders/rt/4gvqv631095f64jvm7jfj_000000gn/T//ccYDFzYw.s:4770   .debug_str:0000000000000946 .LASF42
/var/folders/rt/4gvqv631095f64jvm7jfj_000000gn/T//ccYDFzYw.s:4820   .debug_str:0000000000000aa3 .LASF43
/var/folders/rt/4gvqv631095f64jvm7jfj_000000gn/T//ccYDFzYw.s:4604   .debug_str:0000000000000566 .LASF44
/var/folders/rt/4gvqv631095f64jvm7jfj_000000gn/T//ccYDFzYw.s:4596   .debug_str:000000000000052b .LASF45
/var/folders/rt/4gvqv631095f64jvm7jfj_000000gn/T//ccYDFzYw.s:4854   .debug_str:0000000000000b5d .LASF46
/var/folders/rt/4gvqv631095f64jvm7jfj_000000gn/T//ccYDFzYw.s:4702   .debug_str:00000000000007a4 .LASF47
/var/folders/rt/4gvqv631095f64jvm7jfj_000000gn/T//ccYDFzYw.s:4434   .debug_str:00000000000000b9 .LASF48
/var/folders/rt/4gvqv631095f64jvm7jfj_000000gn/T//ccYDFzYw.s:4786   .debug_str:00000000000009ae .LASF49
/var/folders/rt/4gvqv631095f64jvm7jfj_000000gn/T//ccYDFzYw.s:4494   .debug_str:0000000000000286 .LASF50
/var/folders/rt/4gvqv631095f64jvm7jfj_000000gn/T//ccYDFzYw.s:4942   .debug_str:0000000000000d60 .LASF51
/var/folders/rt/4gvqv631095f64jvm7jfj_000000gn/T//ccYDFzYw.s:4724   .debug_str:000000000000083f .LASF52
/var/folders/rt/4gvqv631095f64jvm7jfj_000000gn/T//ccYDFzYw.s:4584   .debug_str:00000000000004dd .LASF53
/var/folders/rt/4gvqv631095f64jvm7jfj_000000gn/T//ccYDFzYw.s:4922   .debug_str:0000000000000cfb .LASF54
/var/folders/rt/4gvqv631095f64jvm7jfj_000000gn/T//ccYDFzYw.s:4772   .debug_str:0000000000000952 .LASF55
/var/folders/rt/4gvqv631095f64jvm7jfj_000000gn/T//ccYDFzYw.s:4560   .debug_str:000000000000041b .LASF56
/var/folders/rt/4gvqv631095f64jvm7jfj_000000gn/T//ccYDFzYw.s:4906   .debug_str:0000000000000ca2 .LASF57
/var/folders/rt/4gvqv631095f64jvm7jfj_000000gn/T//ccYDFzYw.s:4872   .debug_str:0000000000000bcc .LASF58
/var/folders/rt/4gvqv631095f64jvm7jfj_000000gn/T//ccYDFzYw.s:4632   .debug_str:0000000000000608 .LASF59
/var/folders/rt/4gvqv631095f64jvm7jfj_000000gn/T//ccYDFzYw.s:4624   .debug_str:00000000000005d7 .LASF60
/var/folders/rt/4gvqv631095f64jvm7jfj_000000gn/T//ccYDFzYw.s:4586   .debug_str:00000000000004e9 .LASF61
/var/folders/rt/4gvqv631095f64jvm7jfj_000000gn/T//ccYDFzYw.s:4936   .debug_str:0000000000000d3a .LASF62
/var/folders/rt/4gvqv631095f64jvm7jfj_000000gn/T//ccYDFzYw.s:4484   .debug_str:0000000000000246 .LASF63
/var/folders/rt/4gvqv631095f64jvm7jfj_000000gn/T//ccYDFzYw.s:4982   .debug_str:0000000000000e6f .LASF64
/var/folders/rt/4gvqv631095f64jvm7jfj_000000gn/T//ccYDFzYw.s:4712   .debug_str:00000000000007fe .LASF65
/var/folders/rt/4gvqv631095f64jvm7jfj_000000gn/T//ccYDFzYw.s:4738   .debug_str:00000000000008a2 .LASF66
/var/folders/rt/4gvqv631095f64jvm7jfj_000000gn/T//ccYDFzYw.s:4540   .debug_str:000000000000038e .LASF67
/var/folders/rt/4gvqv631095f64jvm7jfj_000000gn/T//ccYDFzYw.s:4490   .debug_str:0000000000000269 .LASF72
/var/folders/rt/4gvqv631095f64jvm7jfj_000000gn/T//ccYDFzYw.s:4548   .debug_str:00000000000003ba .LASF68
/var/folders/rt/4gvqv631095f64jvm7jfj_000000gn/T//ccYDFzYw.s:4880   .debug_str:0000000000000c07 .LASF69
/var/folders/rt/4gvqv631095f64jvm7jfj_000000gn/T//ccYDFzYw.s:4946   .debug_str:0000000000000d70 .LASF70
/var/folders/rt/4gvqv631095f64jvm7jfj_000000gn/T//ccYDFzYw.s:4506   .debug_str:00000000000002cd .LASF71
/var/folders/rt/4gvqv631095f64jvm7jfj_000000gn/T//ccYDFzYw.s:4672   .debug_str:000000000000070d .LASF73
/var/folders/rt/4gvqv631095f64jvm7jfj_000000gn/T//ccYDFzYw.s:4628   .debug_str:00000000000005e9 .LASF74
/var/folders/rt/4gvqv631095f64jvm7jfj_000000gn/T//ccYDFzYw.s:4680   .debug_str:0000000000000736 .LASF75
/var/folders/rt/4gvqv631095f64jvm7jfj_000000gn/T//ccYDFzYw.s:4806   .debug_str:0000000000000a2a .LASF76
/var/folders/rt/4gvqv631095f64jvm7jfj_000000gn/T//ccYDFzYw.s:4542   .debug_str:000000000000039a .LASF77
/var/folders/rt/4gvqv631095f64jvm7jfj_000000gn/T//ccYDFzYw.s:4928   .debug_str:0000000000000d17 .LASF78
/var/folders/rt/4gvqv631095f64jvm7jfj_000000gn/T//ccYDFzYw.s:4638   .debug_str:000000000000062e .LASF147
/var/folders/rt/4gvqv631095f64jvm7jfj_000000gn/T//ccYDFzYw.s:4846   .debug_str:0000000000000b3a .LASF79
/var/folders/rt/4gvqv631095f64jvm7jfj_000000gn/T//ccYDFzYw.s:4848   .debug_str:0000000000000b43 .LASF80
/var/folders/rt/4gvqv631095f64jvm7jfj_000000gn/T//ccYDFzYw.s:4734   .debug_str:0000000000000891 .LASF81
/var/folders/rt/4gvqv631095f64jvm7jfj_000000gn/T//ccYDFzYw.s:4914   .debug_str:0000000000000cd8 .LASF82
/var/folders/rt/4gvqv631095f64jvm7jfj_000000gn/T//ccYDFzYw.s:4662   .debug_str:00000000000006ce .LASF83
/var/folders/rt/4gvqv631095f64jvm7jfj_000000gn/T//ccYDFzYw.s:4448   .debug_str:00000000000000fb .LASF84
/var/folders/rt/4gvqv631095f64jvm7jfj_000000gn/T//ccYDFzYw.s:4450   .debug_str:0000000000000106 .LASF85
/var/folders/rt/4gvqv631095f64jvm7jfj_000000gn/T//ccYDFzYw.s:4452   .debug_str:0000000000000111 .LASF86
/var/folders/rt/4gvqv631095f64jvm7jfj_000000gn/T//ccYDFzYw.s:4454   .debug_str:000000000000011c .LASF87
/var/folders/rt/4gvqv631095f64jvm7jfj_000000gn/T//ccYDFzYw.s:4456   .debug_str:0000000000000127 .LASF88
/var/folders/rt/4gvqv631095f64jvm7jfj_000000gn/T//ccYDFzYw.s:4458   .debug_str:0000000000000132 .LASF89
/var/folders/rt/4gvqv631095f64jvm7jfj_000000gn/T//ccYDFzYw.s:4762   .debug_str:000000000000091f .LASF90
/var/folders/rt/4gvqv631095f64jvm7jfj_000000gn/T//ccYDFzYw.s:4532   .debug_str:0000000000000360 .LASF91
/var/folders/rt/4gvqv631095f64jvm7jfj_000000gn/T//ccYDFzYw.s:4534   .debug_str:0000000000000369 .LASF92
/var/folders/rt/4gvqv631095f64jvm7jfj_000000gn/T//ccYDFzYw.s:4464   .debug_str:000000000000015b .LASF93
/var/folders/rt/4gvqv631095f64jvm7jfj_000000gn/T//ccYDFzYw.s:4466   .debug_str:0000000000000166 .LASF94
/var/folders/rt/4gvqv631095f64jvm7jfj_000000gn/T//ccYDFzYw.s:4430   .debug_str:00000000000000a5 .LASF95
GAS LISTING /var/folders/rt/4gvqv631095f64jvm7jfj_000000gn/T//ccYDFzYw.s 			page 21


/var/folders/rt/4gvqv631095f64jvm7jfj_000000gn/T//ccYDFzYw.s:4432   .debug_str:00000000000000af .LASF96
/var/folders/rt/4gvqv631095f64jvm7jfj_000000gn/T//ccYDFzYw.s:4930   .debug_str:0000000000000d20 .LASF97
/var/folders/rt/4gvqv631095f64jvm7jfj_000000gn/T//ccYDFzYw.s:4932   .debug_str:0000000000000d29 .LASF98
/var/folders/rt/4gvqv631095f64jvm7jfj_000000gn/T//ccYDFzYw.s:4864   .debug_str:0000000000000b97 .LASF99
/var/folders/rt/4gvqv631095f64jvm7jfj_000000gn/T//ccYDFzYw.s:4568   .debug_str:0000000000000493 .LASF100
/var/folders/rt/4gvqv631095f64jvm7jfj_000000gn/T//ccYDFzYw.s:4898   .debug_str:0000000000000c78 .LASF101
/var/folders/rt/4gvqv631095f64jvm7jfj_000000gn/T//ccYDFzYw.s:4420   .debug_str:0000000000000073 .LASF102
/var/folders/rt/4gvqv631095f64jvm7jfj_000000gn/T//ccYDFzYw.s:4544   .debug_str:00000000000003a2 .LASF103
/var/folders/rt/4gvqv631095f64jvm7jfj_000000gn/T//ccYDFzYw.s:4782   .debug_str:00000000000009a0 .LASF104
/var/folders/rt/4gvqv631095f64jvm7jfj_000000gn/T//ccYDFzYw.s:4640   .debug_str:000000000000063e .LASF105
/var/folders/rt/4gvqv631095f64jvm7jfj_000000gn/T//ccYDFzYw.s:4682   .debug_str:0000000000000744 .LASF106
/var/folders/rt/4gvqv631095f64jvm7jfj_000000gn/T//ccYDFzYw.s:4684   .debug_str:000000000000074e .LASF107
/var/folders/rt/4gvqv631095f64jvm7jfj_000000gn/T//ccYDFzYw.s:4686   .debug_str:0000000000000758 .LASF108
/var/folders/rt/4gvqv631095f64jvm7jfj_000000gn/T//ccYDFzYw.s:4688   .debug_str:0000000000000762 .LASF109
/var/folders/rt/4gvqv631095f64jvm7jfj_000000gn/T//ccYDFzYw.s:4690   .debug_str:000000000000076c .LASF110
/var/folders/rt/4gvqv631095f64jvm7jfj_000000gn/T//ccYDFzYw.s:4676   .debug_str:0000000000000724 .LASF111
/var/folders/rt/4gvqv631095f64jvm7jfj_000000gn/T//ccYDFzYw.s:4678   .debug_str:000000000000072d .LASF112
/var/folders/rt/4gvqv631095f64jvm7jfj_000000gn/T//ccYDFzYw.s:4446   .debug_str:00000000000000f0 .LASF113
/var/folders/rt/4gvqv631095f64jvm7jfj_000000gn/T//ccYDFzYw.s:4530   .debug_str:0000000000000357 .LASF114
/var/folders/rt/4gvqv631095f64jvm7jfj_000000gn/T//ccYDFzYw.s:4462   .debug_str:0000000000000150 .LASF115
/var/folders/rt/4gvqv631095f64jvm7jfj_000000gn/T//ccYDFzYw.s:4974   .debug_str:0000000000000e44 .LASF116
/var/folders/rt/4gvqv631095f64jvm7jfj_000000gn/T//ccYDFzYw.s:4538   .debug_str:000000000000037f .LASF117
/var/folders/rt/4gvqv631095f64jvm7jfj_000000gn/T//ccYDFzYw.s:4894   .debug_str:0000000000000c5f .LASF118
/var/folders/rt/4gvqv631095f64jvm7jfj_000000gn/T//ccYDFzYw.s:4428   .debug_str:0000000000000097 .LASF119
/var/folders/rt/4gvqv631095f64jvm7jfj_000000gn/T//ccYDFzYw.s:4718   .debug_str:0000000000000823 .LASF120
/var/folders/rt/4gvqv631095f64jvm7jfj_000000gn/T//ccYDFzYw.s:4602   .debug_str:0000000000000556 .LASF121
/var/folders/rt/4gvqv631095f64jvm7jfj_000000gn/T//ccYDFzYw.s:4938   .debug_str:0000000000000d48 .LASF122
/var/folders/rt/4gvqv631095f64jvm7jfj_000000gn/T//ccYDFzYw.s:4564   .debug_str:0000000000000440 .LASF123
/var/folders/rt/4gvqv631095f64jvm7jfj_000000gn/T//ccYDFzYw.s:4546   .debug_str:00000000000003aa .LASF124
/var/folders/rt/4gvqv631095f64jvm7jfj_000000gn/T//ccYDFzYw.s:4572   .debug_str:00000000000004a1 .LASF125
/var/folders/rt/4gvqv631095f64jvm7jfj_000000gn/T//ccYDFzYw.s:4812   .debug_str:0000000000000a65 .LASF126
/var/folders/rt/4gvqv631095f64jvm7jfj_000000gn/T//ccYDFzYw.s:4608   .debug_str:0000000000000585 .LASF127
/var/folders/rt/4gvqv631095f64jvm7jfj_000000gn/T//ccYDFzYw.s:4562   .debug_str:000000000000042e .LASF128
/var/folders/rt/4gvqv631095f64jvm7jfj_000000gn/T//ccYDFzYw.s:4966   .debug_str:0000000000000e01 .LASF129
/var/folders/rt/4gvqv631095f64jvm7jfj_000000gn/T//ccYDFzYw.s:4816   .debug_str:0000000000000a81 .LASF130
/var/folders/rt/4gvqv631095f64jvm7jfj_000000gn/T//ccYDFzYw.s:4856   .debug_str:0000000000000b6c .LASF131
/var/folders/rt/4gvqv631095f64jvm7jfj_000000gn/T//ccYDFzYw.s:4828   .debug_str:0000000000000aca .LASF132
/var/folders/rt/4gvqv631095f64jvm7jfj_000000gn/T//ccYDFzYw.s:4706   .debug_str:00000000000007bd .LASF133
/var/folders/rt/4gvqv631095f64jvm7jfj_000000gn/T//ccYDFzYw.s:4958   .debug_str:0000000000000dbd .LASF134
/var/folders/rt/4gvqv631095f64jvm7jfj_000000gn/T//ccYDFzYw.s:4804   .debug_str:0000000000000a12 .LASF135
/var/folders/rt/4gvqv631095f64jvm7jfj_000000gn/T//ccYDFzYw.s:4776   .debug_str:000000000000096f .LASF136
/var/folders/rt/4gvqv631095f64jvm7jfj_000000gn/T//ccYDFzYw.s:4400   .debug_str:0000000000000000 .LASF137
/var/folders/rt/4gvqv631095f64jvm7jfj_000000gn/T//ccYDFzYw.s:4488   .debug_str:000000000000025b .LASF138
/var/folders/rt/4gvqv631095f64jvm7jfj_000000gn/T//ccYDFzYw.s:4482   .debug_str:0000000000000239 .LASF139
/var/folders/rt/4gvqv631095f64jvm7jfj_000000gn/T//ccYDFzYw.s:4578   .debug_str:00000000000004c2 .LASF140
/var/folders/rt/4gvqv631095f64jvm7jfj_000000gn/T//ccYDFzYw.s:4600   .debug_str:0000000000000547 .LASF141
/var/folders/rt/4gvqv631095f64jvm7jfj_000000gn/T//ccYDFzYw.s:4696   .debug_str:0000000000000784 .LASF142
/var/folders/rt/4gvqv631095f64jvm7jfj_000000gn/T//ccYDFzYw.s:4588   .debug_str:00000000000004f7 .LASF143
/var/folders/rt/4gvqv631095f64jvm7jfj_000000gn/T//ccYDFzYw.s:4766   .debug_str:0000000000000931 .LASF144
/var/folders/rt/4gvqv631095f64jvm7jfj_000000gn/T//ccYDFzYw.s:4592   .debug_str:0000000000000518 .LASF145
/var/folders/rt/4gvqv631095f64jvm7jfj_000000gn/T//ccYDFzYw.s:4576   .debug_str:00000000000004bd .LASF146
/var/folders/rt/4gvqv631095f64jvm7jfj_000000gn/T//ccYDFzYw.s:4502   .debug_str:00000000000002b1 .LASF148
/var/folders/rt/4gvqv631095f64jvm7jfj_000000gn/T//ccYDFzYw.s:4606   .debug_str:0000000000000572 .LASF149
/var/folders/rt/4gvqv631095f64jvm7jfj_000000gn/T//ccYDFzYw.s:4852   .debug_str:0000000000000b56 .LASF150
/var/folders/rt/4gvqv631095f64jvm7jfj_000000gn/T//ccYDFzYw.s:4940   .debug_str:0000000000000d59 .LASF151
/var/folders/rt/4gvqv631095f64jvm7jfj_000000gn/T//ccYDFzYw.s:4790   .debug_str:00000000000009c0 .LASF152
/var/folders/rt/4gvqv631095f64jvm7jfj_000000gn/T//ccYDFzYw.s:4404   .debug_str:000000000000001a .LASF153
GAS LISTING /var/folders/rt/4gvqv631095f64jvm7jfj_000000gn/T//ccYDFzYw.s 			page 22


/var/folders/rt/4gvqv631095f64jvm7jfj_000000gn/T//ccYDFzYw.s:4486   .debug_str:0000000000000255 .LASF154
/var/folders/rt/4gvqv631095f64jvm7jfj_000000gn/T//ccYDFzYw.s:4792   .debug_str:00000000000009c8 .LASF155
/var/folders/rt/4gvqv631095f64jvm7jfj_000000gn/T//ccYDFzYw.s:4764   .debug_str:0000000000000929 .LASF156
/var/folders/rt/4gvqv631095f64jvm7jfj_000000gn/T//ccYDFzYw.s:4408   .debug_str:000000000000002e .LASF157
/var/folders/rt/4gvqv631095f64jvm7jfj_000000gn/T//ccYDFzYw.s:4842   .debug_str:0000000000000b2a .LASF158
/var/folders/rt/4gvqv631095f64jvm7jfj_000000gn/T//ccYDFzYw.s:4926   .debug_str:0000000000000d0f .LASF159
/var/folders/rt/4gvqv631095f64jvm7jfj_000000gn/T//ccYDFzYw.s:4642   .debug_str:0000000000000645 .LASF160
/var/folders/rt/4gvqv631095f64jvm7jfj_000000gn/T//ccYDFzYw.s:4836   .debug_str:0000000000000b04 .LASF161
/var/folders/rt/4gvqv631095f64jvm7jfj_000000gn/T//ccYDFzYw.s:4656   .debug_str:00000000000006ab .LASF166
/var/folders/rt/4gvqv631095f64jvm7jfj_000000gn/T//ccYDFzYw.s:4858   .debug_str:0000000000000b80 .LASF162
/var/folders/rt/4gvqv631095f64jvm7jfj_000000gn/T//ccYDFzYw.s:4660   .debug_str:00000000000006c6 .LASF163
/var/folders/rt/4gvqv631095f64jvm7jfj_000000gn/T//ccYDFzYw.s:4722   .debug_str:0000000000000839 .LASF164
/var/folders/rt/4gvqv631095f64jvm7jfj_000000gn/T//ccYDFzYw.s:4614   .debug_str:00000000000005ad .LASF165
/var/folders/rt/4gvqv631095f64jvm7jfj_000000gn/T//ccYDFzYw.s:4438   .debug_str:00000000000000cb .LASF167
/var/folders/rt/4gvqv631095f64jvm7jfj_000000gn/T//ccYDFzYw.s:4444   .debug_str:00000000000000e7 .LASF168
/var/folders/rt/4gvqv631095f64jvm7jfj_000000gn/T//ccYDFzYw.s:4970   .debug_str:0000000000000e2e .LASF169
/var/folders/rt/4gvqv631095f64jvm7jfj_000000gn/T//ccYDFzYw.s:4948   .debug_str:0000000000000d83 .LASF170
/var/folders/rt/4gvqv631095f64jvm7jfj_000000gn/T//ccYDFzYw.s:4742   .debug_str:00000000000008be .LASF171
/var/folders/rt/4gvqv631095f64jvm7jfj_000000gn/T//ccYDFzYw.s:4524   .debug_str:000000000000032c .LASF172
/var/folders/rt/4gvqv631095f64jvm7jfj_000000gn/T//ccYDFzYw.s:4896   .debug_str:0000000000000c6e .LASF173
/var/folders/rt/4gvqv631095f64jvm7jfj_000000gn/T//ccYDFzYw.s:4774   .debug_str:0000000000000965 .LASF174
/var/folders/rt/4gvqv631095f64jvm7jfj_000000gn/T//ccYDFzYw.s:4778   .debug_str:0000000000000987 .LASF175
/var/folders/rt/4gvqv631095f64jvm7jfj_000000gn/T//ccYDFzYw.s:4964   .debug_str:0000000000000df6 .LASF176
/var/folders/rt/4gvqv631095f64jvm7jfj_000000gn/T//ccYDFzYw.s:4498   .debug_str:000000000000029d .LASF177
/var/folders/rt/4gvqv631095f64jvm7jfj_000000gn/T//ccYDFzYw.s:4962   .debug_str:0000000000000dee .LASF178
/var/folders/rt/4gvqv631095f64jvm7jfj_000000gn/T//ccYDFzYw.s:4810   .debug_str:0000000000000a59 .LASF179
/var/folders/rt/4gvqv631095f64jvm7jfj_000000gn/T//ccYDFzYw.s:4888   .debug_str:0000000000000c39 .LASF180
/var/folders/rt/4gvqv631095f64jvm7jfj_000000gn/T//ccYDFzYw.s:4912   .debug_str:0000000000000cd0 .LASF181
/var/folders/rt/4gvqv631095f64jvm7jfj_000000gn/T//ccYDFzYw.s:4760   .debug_str:0000000000000917 .LASF182
/var/folders/rt/4gvqv631095f64jvm7jfj_000000gn/T//ccYDFzYw.s:4570   .debug_str:000000000000049c .LASF183
/var/folders/rt/4gvqv631095f64jvm7jfj_000000gn/T//ccYDFzYw.s:4580   .debug_str:00000000000004d1 .LASF184
/var/folders/rt/4gvqv631095f64jvm7jfj_000000gn/T//ccYDFzYw.s:4910   .debug_str:0000000000000cc9 .LASF185
/var/folders/rt/4gvqv631095f64jvm7jfj_000000gn/T//ccYDFzYw.s:4826   .debug_str:0000000000000ac4 .LASF186
/var/folders/rt/4gvqv631095f64jvm7jfj_000000gn/T//ccYDFzYw.s:4512   .debug_str:00000000000002ec .LASF187
/var/folders/rt/4gvqv631095f64jvm7jfj_000000gn/T//ccYDFzYw.s:4950   .debug_str:0000000000000d8d .LASF188
/var/folders/rt/4gvqv631095f64jvm7jfj_000000gn/T//ccYDFzYw.s:4758   .debug_str:0000000000000910 .LASF189
/var/folders/rt/4gvqv631095f64jvm7jfj_000000gn/T//ccYDFzYw.s:4500   .debug_str:00000000000002ab .LASF190
/var/folders/rt/4gvqv631095f64jvm7jfj_000000gn/T//ccYDFzYw.s:4902   .debug_str:0000000000000c94 .LASF191
/var/folders/rt/4gvqv631095f64jvm7jfj_000000gn/T//ccYDFzYw.s:4612   .debug_str:00000000000005a5 .LASF192
/var/folders/rt/4gvqv631095f64jvm7jfj_000000gn/T//ccYDFzYw.s:4418   .debug_str:000000000000006d .LASF193
/var/folders/rt/4gvqv631095f64jvm7jfj_000000gn/T//ccYDFzYw.s:4422   .debug_str:000000000000007b .LASF194
/var/folders/rt/4gvqv631095f64jvm7jfj_000000gn/T//ccYDFzYw.s:4788   .debug_str:00000000000009ba .LASF195
/var/folders/rt/4gvqv631095f64jvm7jfj_000000gn/T//ccYDFzYw.s:4582   .debug_str:00000000000004d6 .LASF196
/var/folders/rt/4gvqv631095f64jvm7jfj_000000gn/T//ccYDFzYw.s:4746   .debug_str:00000000000008cd .LASF197
/var/folders/rt/4gvqv631095f64jvm7jfj_000000gn/T//ccYDFzYw.s:4442   .debug_str:00000000000000e1 .LASF198
/var/folders/rt/4gvqv631095f64jvm7jfj_000000gn/T//ccYDFzYw.s:4822   .debug_str:0000000000000aaf .LASF199
/var/folders/rt/4gvqv631095f64jvm7jfj_000000gn/T//ccYDFzYw.s:4618   .debug_str:00000000000005bc .LASF200
/var/folders/rt/4gvqv631095f64jvm7jfj_000000gn/T//ccYDFzYw.s:4860   .debug_str:0000000000000b86 .LASF201
/var/folders/rt/4gvqv631095f64jvm7jfj_000000gn/T//ccYDFzYw.s:4468   .debug_str:0000000000000171 .LASF202
/var/folders/rt/4gvqv631095f64jvm7jfj_000000gn/T//ccYDFzYw.s:4752   .debug_str:00000000000008e9 .LASF203
/var/folders/rt/4gvqv631095f64jvm7jfj_000000gn/T//ccYDFzYw.s:4636   .debug_str:0000000000000626 .LASF204
/var/folders/rt/4gvqv631095f64jvm7jfj_000000gn/T//ccYDFzYw.s:4556   .debug_str:0000000000000401 .LASF205
/var/folders/rt/4gvqv631095f64jvm7jfj_000000gn/T//ccYDFzYw.s:4644   .debug_str:0000000000000657 .LASF206
/var/folders/rt/4gvqv631095f64jvm7jfj_000000gn/T//ccYDFzYw.s:4594   .debug_str:0000000000000524 .LASF207
/var/folders/rt/4gvqv631095f64jvm7jfj_000000gn/T//ccYDFzYw.s:4818   .debug_str:0000000000000a9b .LASF208
/var/folders/rt/4gvqv631095f64jvm7jfj_000000gn/T//ccYDFzYw.s:4748   .debug_str:00000000000008d3 .LASF209
/var/folders/rt/4gvqv631095f64jvm7jfj_000000gn/T//ccYDFzYw.s:4904   .debug_str:0000000000000c9d .LASF210
GAS LISTING /var/folders/rt/4gvqv631095f64jvm7jfj_000000gn/T//ccYDFzYw.s 			page 23


/var/folders/rt/4gvqv631095f64jvm7jfj_000000gn/T//ccYDFzYw.s:4728   .debug_str:0000000000000869 .LASF211
/var/folders/rt/4gvqv631095f64jvm7jfj_000000gn/T//ccYDFzYw.s:4552   .debug_str:00000000000003db .LASF212
/var/folders/rt/4gvqv631095f64jvm7jfj_000000gn/T//ccYDFzYw.s:4924   .debug_str:0000000000000d07 .LASF213
/var/folders/rt/4gvqv631095f64jvm7jfj_000000gn/T//ccYDFzYw.s:4634   .debug_str:000000000000061b .LASF214
/var/folders/rt/4gvqv631095f64jvm7jfj_000000gn/T//ccYDFzYw.s:4666   .debug_str:00000000000006e6 .LASF215
/var/folders/rt/4gvqv631095f64jvm7jfj_000000gn/T//ccYDFzYw.s:4934   .debug_str:0000000000000d32 .LASF216
/var/folders/rt/4gvqv631095f64jvm7jfj_000000gn/T//ccYDFzYw.s:4510   .debug_str:00000000000002e2 .LASF217
/var/folders/rt/4gvqv631095f64jvm7jfj_000000gn/T//ccYDFzYw.s:4626   .debug_str:00000000000005e4 .LASF218
/var/folders/rt/4gvqv631095f64jvm7jfj_000000gn/T//ccYDFzYw.s:4714   .debug_str:0000000000000813 .LASF219
/var/folders/rt/4gvqv631095f64jvm7jfj_000000gn/T//ccYDFzYw.s:4426   .debug_str:000000000000008f .LASF220
/var/folders/rt/4gvqv631095f64jvm7jfj_000000gn/T//ccYDFzYw.s:4620   .debug_str:00000000000005c4 .LASF221
/var/folders/rt/4gvqv631095f64jvm7jfj_000000gn/T//ccYDFzYw.s:4744   .debug_str:00000000000008c8 .LASF222
/var/folders/rt/4gvqv631095f64jvm7jfj_000000gn/T//ccYDFzYw.s:4668   .debug_str:00000000000006f0 .LASF223
/var/folders/rt/4gvqv631095f64jvm7jfj_000000gn/T//ccYDFzYw.s:4616   .debug_str:00000000000005b2 .LASF224
/var/folders/rt/4gvqv631095f64jvm7jfj_000000gn/T//ccYDFzYw.s:4700   .debug_str:000000000000079c .LASF225
/var/folders/rt/4gvqv631095f64jvm7jfj_000000gn/T//ccYDFzYw.s:4412   .debug_str:000000000000004b .LASF226
/var/folders/rt/4gvqv631095f64jvm7jfj_000000gn/T//ccYDFzYw.s:4838   .debug_str:0000000000000b0d .LASF227
/var/folders/rt/4gvqv631095f64jvm7jfj_000000gn/T//ccYDFzYw.s:4720   .debug_str:0000000000000833 .LASF228
/var/folders/rt/4gvqv631095f64jvm7jfj_000000gn/T//ccYDFzYw.s:4692   .debug_str:0000000000000776 .LASF229
/var/folders/rt/4gvqv631095f64jvm7jfj_000000gn/T//ccYDFzYw.s:4716   .debug_str:000000000000081d .LASF230
/var/folders/rt/4gvqv631095f64jvm7jfj_000000gn/T//ccYDFzYw.s:4814   .debug_str:0000000000000a79 .LASF231
/var/folders/rt/4gvqv631095f64jvm7jfj_000000gn/T//ccYDFzYw.s:4784   .debug_str:00000000000009a8 .LASF232
/var/folders/rt/4gvqv631095f64jvm7jfj_000000gn/T//ccYDFzYw.s:4476   .debug_str:0000000000000220 .LASF233
/var/folders/rt/4gvqv631095f64jvm7jfj_000000gn/T//ccYDFzYw.s:4944   .debug_str:0000000000000d6b .LASF234
/var/folders/rt/4gvqv631095f64jvm7jfj_000000gn/T//ccYDFzYw.s:4536   .debug_str:0000000000000372 .LASF235
/var/folders/rt/4gvqv631095f64jvm7jfj_000000gn/T//ccYDFzYw.s:4830   .debug_str:0000000000000add .LASF236
/var/folders/rt/4gvqv631095f64jvm7jfj_000000gn/T//ccYDFzYw.s:4424   .debug_str:0000000000000082 .LASF237
/var/folders/rt/4gvqv631095f64jvm7jfj_000000gn/T//ccYDFzYw.s:4522   .debug_str:000000000000031d .LASF238
/var/folders/rt/4gvqv631095f64jvm7jfj_000000gn/T//ccYDFzYw.s:4708   .debug_str:00000000000007d0 .LASF239
/var/folders/rt/4gvqv631095f64jvm7jfj_000000gn/T//ccYDFzYw.s:4754   .debug_str:00000000000008f2 .LASF240
/var/folders/rt/4gvqv631095f64jvm7jfj_000000gn/T//ccYDFzYw.s:4844   .debug_str:0000000000000b35 .LASF241
/var/folders/rt/4gvqv631095f64jvm7jfj_000000gn/T//ccYDFzYw.s:4876   .debug_str:0000000000000bf2 .LASF242
/var/folders/rt/4gvqv631095f64jvm7jfj_000000gn/T//ccYDFzYw.s:4800   .debug_str:00000000000009fb .LASF243
/var/folders/rt/4gvqv631095f64jvm7jfj_000000gn/T//ccYDFzYw.s:4750   .debug_str:00000000000008db .LASF244
/var/folders/rt/4gvqv631095f64jvm7jfj_000000gn/T//ccYDFzYw.s:4794   .debug_str:00000000000009cf .LASF245
/var/folders/rt/4gvqv631095f64jvm7jfj_000000gn/T//ccYDFzYw.s:4650   .debug_str:000000000000068b .LASF246
/var/folders/rt/4gvqv631095f64jvm7jfj_000000gn/T//ccYDFzYw.s:4972   .debug_str:0000000000000e37 .LASF247
/var/folders/rt/4gvqv631095f64jvm7jfj_000000gn/T//ccYDFzYw.s:4504   .debug_str:00000000000002bf .LASF248
/var/folders/rt/4gvqv631095f64jvm7jfj_000000gn/T//ccYDFzYw.s:4832   .debug_str:0000000000000aea .LASF249
/var/folders/rt/4gvqv631095f64jvm7jfj_000000gn/T//ccYDFzYw.s:4956   .debug_str:0000000000000dac .LASF250
/var/folders/rt/4gvqv631095f64jvm7jfj_000000gn/T//ccYDFzYw.s:4740   .debug_str:00000000000008af .LASF251
/var/folders/rt/4gvqv631095f64jvm7jfj_000000gn/T//ccYDFzYw.s:4440   .debug_str:00000000000000d0 .LASF252
/var/folders/rt/4gvqv631095f64jvm7jfj_000000gn/T//ccYDFzYw.s:4736   .debug_str:0000000000000899 .LASF253
/var/folders/rt/4gvqv631095f64jvm7jfj_000000gn/T//ccYDFzYw.s:4916   .debug_str:0000000000000ce1 .LASF254
/var/folders/rt/4gvqv631095f64jvm7jfj_000000gn/T//ccYDFzYw.s:4704   .debug_str:00000000000007b4 .LASF255
/var/folders/rt/4gvqv631095f64jvm7jfj_000000gn/T//ccYDFzYw.s:4436   .debug_str:00000000000000c3 .LASF256
/var/folders/rt/4gvqv631095f64jvm7jfj_000000gn/T//ccYDFzYw.s:4406   .debug_str:0000000000000023 .LASF289
/var/folders/rt/4gvqv631095f64jvm7jfj_000000gn/T//ccYDFzYw.s:4508   .debug_str:00000000000002d6 .LASF257
/var/folders/rt/4gvqv631095f64jvm7jfj_000000gn/T//ccYDFzYw.s:4558   .debug_str:0000000000000408 .LASF258
/var/folders/rt/4gvqv631095f64jvm7jfj_000000gn/T//ccYDFzYw.s:4886   .debug_str:0000000000000c2f .LASF259
/var/folders/rt/4gvqv631095f64jvm7jfj_000000gn/T//ccYDFzYw.s:4834   .debug_str:0000000000000af9 .LASF260
/var/folders/rt/4gvqv631095f64jvm7jfj_000000gn/T//ccYDFzYw.s:4768   .debug_str:000000000000093f .LASF261
/var/folders/rt/4gvqv631095f64jvm7jfj_000000gn/T//ccYDFzYw.s:426    .text.u0init:0000000000000000 .LFB6
/var/folders/rt/4gvqv631095f64jvm7jfj_000000gn/T//ccYDFzYw.s:569    .text.u0init:000000000000011c .LFE6
/var/folders/rt/4gvqv631095f64jvm7jfj_000000gn/T//ccYDFzYw.s:4166   .debug_loc:0000000000000000 .LLST6
/var/folders/rt/4gvqv631095f64jvm7jfj_000000gn/T//ccYDFzYw.s:4694   .debug_str:000000000000077d .LASF263
/var/folders/rt/4gvqv631095f64jvm7jfj_000000gn/T//ccYDFzYw.s:4194   .debug_loc:0000000000000044 .LLST7
GAS LISTING /var/folders/rt/4gvqv631095f64jvm7jfj_000000gn/T//ccYDFzYw.s 			page 24


/var/folders/rt/4gvqv631095f64jvm7jfj_000000gn/T//ccYDFzYw.s:448    .text.u0init:0000000000000016 .LVL22
/var/folders/rt/4gvqv631095f64jvm7jfj_000000gn/T//ccYDFzYw.s:456    .text.u0init:000000000000002e .LVL23
/var/folders/rt/4gvqv631095f64jvm7jfj_000000gn/T//ccYDFzYw.s:463    .text.u0init:0000000000000044 .LVL24
/var/folders/rt/4gvqv631095f64jvm7jfj_000000gn/T//ccYDFzYw.s:470    .text.u0init:0000000000000054 .LVL25
/var/folders/rt/4gvqv631095f64jvm7jfj_000000gn/T//ccYDFzYw.s:474    .text.u0init:0000000000000060 .LVL26
/var/folders/rt/4gvqv631095f64jvm7jfj_000000gn/T//ccYDFzYw.s:480    .text.u0init:0000000000000072 .LVL27
/var/folders/rt/4gvqv631095f64jvm7jfj_000000gn/T//ccYDFzYw.s:485    .text.u0init:0000000000000080 .LVL28
/var/folders/rt/4gvqv631095f64jvm7jfj_000000gn/T//ccYDFzYw.s:490    .text.u0init:000000000000008e .LVL29
/var/folders/rt/4gvqv631095f64jvm7jfj_000000gn/T//ccYDFzYw.s:495    .text.u0init:000000000000009c .LVL30
/var/folders/rt/4gvqv631095f64jvm7jfj_000000gn/T//ccYDFzYw.s:500    .text.u0init:00000000000000aa .LVL31
/var/folders/rt/4gvqv631095f64jvm7jfj_000000gn/T//ccYDFzYw.s:505    .text.u0init:00000000000000b8 .LVL32
/var/folders/rt/4gvqv631095f64jvm7jfj_000000gn/T//ccYDFzYw.s:509    .text.u0init:00000000000000c4 .LVL33
/var/folders/rt/4gvqv631095f64jvm7jfj_000000gn/T//ccYDFzYw.s:514    .text.u0init:00000000000000d2 .LVL34
/var/folders/rt/4gvqv631095f64jvm7jfj_000000gn/T//ccYDFzYw.s:519    .text.u0init:00000000000000e0 .LVL35
/var/folders/rt/4gvqv631095f64jvm7jfj_000000gn/T//ccYDFzYw.s:527    .text.u0init:00000000000000f2 .LVL36
/var/folders/rt/4gvqv631095f64jvm7jfj_000000gn/T//ccYDFzYw.s:552    .text.u0init:0000000000000112 .LVL38
/var/folders/rt/4gvqv631095f64jvm7jfj_000000gn/T//ccYDFzYw.s:4654   .debug_str:00000000000006a4 .LASF262
/var/folders/rt/4gvqv631095f64jvm7jfj_000000gn/T//ccYDFzYw.s:376    .text.putstr:0000000000000000 .LFB5
/var/folders/rt/4gvqv631095f64jvm7jfj_000000gn/T//ccYDFzYw.s:419    .text.putstr:0000000000000022 .LFE5
/var/folders/rt/4gvqv631095f64jvm7jfj_000000gn/T//ccYDFzYw.s:4223   .debug_loc:0000000000000089 .LLST4
/var/folders/rt/4gvqv631095f64jvm7jfj_000000gn/T//ccYDFzYw.s:4246   .debug_loc:00000000000000c1 .LLST5
/var/folders/rt/4gvqv631095f64jvm7jfj_000000gn/T//ccYDFzYw.s:416    .text.putstr:0000000000000020 .LVL19
/var/folders/rt/4gvqv631095f64jvm7jfj_000000gn/T//ccYDFzYw.s:4980   .debug_str:0000000000000e69 .LASF264
/var/folders/rt/4gvqv631095f64jvm7jfj_000000gn/T//ccYDFzYw.s:287    .text.putch:0000000000000000 .LFB4
/var/folders/rt/4gvqv631095f64jvm7jfj_000000gn/T//ccYDFzYw.s:369    .text.putch:000000000000006a .LFE4
/var/folders/rt/4gvqv631095f64jvm7jfj_000000gn/T//ccYDFzYw.s:4261   .debug_loc:00000000000000ea .LLST2
/var/folders/rt/4gvqv631095f64jvm7jfj_000000gn/T//ccYDFzYw.s:4284   .debug_loc:0000000000000122 .LLST3
/var/folders/rt/4gvqv631095f64jvm7jfj_000000gn/T//ccYDFzYw.s:358    .text.putch:000000000000005c .LVL12
/var/folders/rt/4gvqv631095f64jvm7jfj_000000gn/T//ccYDFzYw.s:365    .text.putch:0000000000000066 .LVL13
/var/folders/rt/4gvqv631095f64jvm7jfj_000000gn/T//ccYDFzYw.s:4954   .debug_str:0000000000000da0 .LASF290
/var/folders/rt/4gvqv631095f64jvm7jfj_000000gn/T//ccYDFzYw.s:4796   .debug_str:00000000000009d9 .LASF291
/var/folders/rt/4gvqv631095f64jvm7jfj_000000gn/T//ccYDFzYw.s:14     .text.wifiIsrHandler:0000000000000000 .LFB2
/var/folders/rt/4gvqv631095f64jvm7jfj_000000gn/T//ccYDFzYw.s:175    .text.wifiIsrHandler:00000000000000fc .LFE2
/var/folders/rt/4gvqv631095f64jvm7jfj_000000gn/T//ccYDFzYw.s:4298   .debug_loc:0000000000000143 .LLST0
/var/folders/rt/4gvqv631095f64jvm7jfj_000000gn/T//ccYDFzYw.s:92     .text.wifiIsrHandler:0000000000000092 .LBB6
/var/folders/rt/4gvqv631095f64jvm7jfj_000000gn/T//ccYDFzYw.s:152    .text.wifiIsrHandler:00000000000000de .LVL6
/var/folders/rt/4gvqv631095f64jvm7jfj_000000gn/T//ccYDFzYw.s:113    .text.wifiIsrHandler:00000000000000b2 .LVL4
/var/folders/rt/4gvqv631095f64jvm7jfj_000000gn/T//ccYDFzYw.s:41     .text.wifiIsrHandler:0000000000000024 .LVL0
/var/folders/rt/4gvqv631095f64jvm7jfj_000000gn/T//ccYDFzYw.s:57     .text.wifiIsrHandler:0000000000000048 .LVL1
/var/folders/rt/4gvqv631095f64jvm7jfj_000000gn/T//ccYDFzYw.s:74     .text.wifiIsrHandler:000000000000006c .LVL2
/var/folders/rt/4gvqv631095f64jvm7jfj_000000gn/T//ccYDFzYw.s:89     .text.wifiIsrHandler:0000000000000090 .LVL3
/var/folders/rt/4gvqv631095f64jvm7jfj_000000gn/T//ccYDFzYw.s:142    .text.wifiIsrHandler:00000000000000d2 .LVL5
/var/folders/rt/4gvqv631095f64jvm7jfj_000000gn/T//ccYDFzYw.s:182    .text.u0_TX_Queue:0000000000000000 .LFB3
/var/folders/rt/4gvqv631095f64jvm7jfj_000000gn/T//ccYDFzYw.s:280    .text.u0_TX_Queue:0000000000000088 .LFE3
/var/folders/rt/4gvqv631095f64jvm7jfj_000000gn/T//ccYDFzYw.s:4321   .debug_loc:000000000000017b .LLST1
/var/folders/rt/4gvqv631095f64jvm7jfj_000000gn/T//ccYDFzYw.s:215    .text.u0_TX_Queue:0000000000000032 .LBB15
/var/folders/rt/4gvqv631095f64jvm7jfj_000000gn/T//ccYDFzYw.s:242    .text.u0_TX_Queue:0000000000000062 .LBE15
/var/folders/rt/4gvqv631095f64jvm7jfj_000000gn/T//ccYDFzYw.s:233    .text.u0_TX_Queue:0000000000000056 .LVL8
/var/folders/rt/4gvqv631095f64jvm7jfj_000000gn/T//ccYDFzYw.s:212    .text.u0_TX_Queue:0000000000000030 .LVL7
/var/folders/rt/4gvqv631095f64jvm7jfj_000000gn/T//ccYDFzYw.s:278    .text.u0_TX_Queue:0000000000000088 .LVL9
/var/folders/rt/4gvqv631095f64jvm7jfj_000000gn/T//ccYDFzYw.s:4960   .debug_str:0000000000000dd6 .LASF265
/var/folders/rt/4gvqv631095f64jvm7jfj_000000gn/T//ccYDFzYw.s:4850   .debug_str:0000000000000b4c .LASF266
/var/folders/rt/4gvqv631095f64jvm7jfj_000000gn/T//ccYDFzYw.s:4652   .debug_str:0000000000000697 .LASF267
/var/folders/rt/4gvqv631095f64jvm7jfj_000000gn/T//ccYDFzYw.s:4470   .debug_str:0000000000000177 .LASF268
/var/folders/rt/4gvqv631095f64jvm7jfj_000000gn/T//ccYDFzYw.s:4868   .debug_str:0000000000000bab .LASF269
/var/folders/rt/4gvqv631095f64jvm7jfj_000000gn/T//ccYDFzYw.s:4648   .debug_str:0000000000000675 .LASF270
/var/folders/rt/4gvqv631095f64jvm7jfj_000000gn/T//ccYDFzYw.s:4874   .debug_str:0000000000000bdf .LASF271
GAS LISTING /var/folders/rt/4gvqv631095f64jvm7jfj_000000gn/T//ccYDFzYw.s 			page 25


/var/folders/rt/4gvqv631095f64jvm7jfj_000000gn/T//ccYDFzYw.s:4710   .debug_str:00000000000007df .LASF272
/var/folders/rt/4gvqv631095f64jvm7jfj_000000gn/T//ccYDFzYw.s:4726   .debug_str:000000000000084a .LASF273
/var/folders/rt/4gvqv631095f64jvm7jfj_000000gn/T//ccYDFzYw.s:4598   .debug_str:000000000000053a .LASF274
/var/folders/rt/4gvqv631095f64jvm7jfj_000000gn/T//ccYDFzYw.s:4840   .debug_str:0000000000000b14 .LASF275
/var/folders/rt/4gvqv631095f64jvm7jfj_000000gn/T//ccYDFzYw.s:4410   .debug_str:0000000000000036 .LASF276
/var/folders/rt/4gvqv631095f64jvm7jfj_000000gn/T//ccYDFzYw.s:4646   .debug_str:000000000000065e .LASF277
/var/folders/rt/4gvqv631095f64jvm7jfj_000000gn/T//ccYDFzYw.s:4890   .debug_str:0000000000000c42 .LASF278
/var/folders/rt/4gvqv631095f64jvm7jfj_000000gn/T//ccYDFzYw.s:4756   .debug_str:00000000000008fd .LASF279
/var/folders/rt/4gvqv631095f64jvm7jfj_000000gn/T//ccYDFzYw.s:4892   .debug_str:0000000000000c50 .LASF280
/var/folders/rt/4gvqv631095f64jvm7jfj_000000gn/T//ccYDFzYw.s:4968   .debug_str:0000000000000e15 .LASF281
/var/folders/rt/4gvqv631095f64jvm7jfj_000000gn/T//ccYDFzYw.s:4480   .debug_str:0000000000000232 .LASF282
/var/folders/rt/4gvqv631095f64jvm7jfj_000000gn/T//ccYDFzYw.s:4526   .debug_str:0000000000000335 .LASF283
/var/folders/rt/4gvqv631095f64jvm7jfj_000000gn/T//ccYDFzYw.s:4808   .debug_str:0000000000000a41 .LASF284
/var/folders/rt/4gvqv631095f64jvm7jfj_000000gn/T//ccYDFzYw.s:433    .text.u0init:0000000000000002 .LCFI13
/var/folders/rt/4gvqv631095f64jvm7jfj_000000gn/T//ccYDFzYw.s:548    .text.u0init:000000000000010a .LCFI14
/var/folders/rt/4gvqv631095f64jvm7jfj_000000gn/T//ccYDFzYw.s:554    .text.u0init:0000000000000112 .LCFI15
/var/folders/rt/4gvqv631095f64jvm7jfj_000000gn/T//ccYDFzYw.s:565    .text.u0init:000000000000011a .LCFI16
/var/folders/rt/4gvqv631095f64jvm7jfj_000000gn/T//ccYDFzYw.s:429    .text.u0init:0000000000000000 .LVL20
/var/folders/rt/4gvqv631095f64jvm7jfj_000000gn/T//ccYDFzYw.s:440    .text.u0init:000000000000000a .LVL21
/var/folders/rt/4gvqv631095f64jvm7jfj_000000gn/T//ccYDFzYw.s:537    .text.u0init:00000000000000f8 .LVL37
/var/folders/rt/4gvqv631095f64jvm7jfj_000000gn/T//ccYDFzYw.s:563    .text.u0init:0000000000000118 .LVL39
/var/folders/rt/4gvqv631095f64jvm7jfj_000000gn/T//ccYDFzYw.s:381    .text.putstr:0000000000000002 .LCFI10
/var/folders/rt/4gvqv631095f64jvm7jfj_000000gn/T//ccYDFzYw.s:403    .text.putstr:0000000000000014 .LCFI11
/var/folders/rt/4gvqv631095f64jvm7jfj_000000gn/T//ccYDFzYw.s:408    .text.putstr:0000000000000016 .LCFI12
/var/folders/rt/4gvqv631095f64jvm7jfj_000000gn/T//ccYDFzYw.s:379    .text.putstr:0000000000000000 .LVL14
/var/folders/rt/4gvqv631095f64jvm7jfj_000000gn/T//ccYDFzYw.s:389    .text.putstr:0000000000000008 .LVL15
/var/folders/rt/4gvqv631095f64jvm7jfj_000000gn/T//ccYDFzYw.s:401    .text.putstr:0000000000000012 .LVL16
/var/folders/rt/4gvqv631095f64jvm7jfj_000000gn/T//ccYDFzYw.s:406    .text.putstr:0000000000000016 .LVL17
/var/folders/rt/4gvqv631095f64jvm7jfj_000000gn/T//ccYDFzYw.s:294    .text.putch:0000000000000002 .LCFI7
/var/folders/rt/4gvqv631095f64jvm7jfj_000000gn/T//ccYDFzYw.s:354    .text.putch:0000000000000054 .LCFI8
/var/folders/rt/4gvqv631095f64jvm7jfj_000000gn/T//ccYDFzYw.s:360    .text.putch:000000000000005c .LCFI9
/var/folders/rt/4gvqv631095f64jvm7jfj_000000gn/T//ccYDFzYw.s:290    .text.putch:0000000000000000 .LVL10
/var/folders/rt/4gvqv631095f64jvm7jfj_000000gn/T//ccYDFzYw.s:310    .text.putch:0000000000000016 .LVL11
/var/folders/rt/4gvqv631095f64jvm7jfj_000000gn/T//ccYDFzYw.s:21     .text.wifiIsrHandler:0000000000000002 .LCFI0
/var/folders/rt/4gvqv631095f64jvm7jfj_000000gn/T//ccYDFzYw.s:132    .text.wifiIsrHandler:00000000000000c0 .LCFI1
/var/folders/rt/4gvqv631095f64jvm7jfj_000000gn/T//ccYDFzYw.s:136    .text.wifiIsrHandler:00000000000000c2 .LCFI2
/var/folders/rt/4gvqv631095f64jvm7jfj_000000gn/T//ccYDFzYw.s:188    .text.u0_TX_Queue:0000000000000002 .LCFI3
/var/folders/rt/4gvqv631095f64jvm7jfj_000000gn/T//ccYDFzYw.s:252    .text.u0_TX_Queue:000000000000006a .LCFI4
/var/folders/rt/4gvqv631095f64jvm7jfj_000000gn/T//ccYDFzYw.s:256    .text.u0_TX_Queue:000000000000006c .LCFI5
/var/folders/rt/4gvqv631095f64jvm7jfj_000000gn/T//ccYDFzYw.s:274    .text.u0_TX_Queue:0000000000000080 .LCFI6
/var/folders/rt/4gvqv631095f64jvm7jfj_000000gn/T//ccYDFzYw.s:623    .debug_info:0000000000000000 .Ldebug_info0
/var/folders/rt/4gvqv631095f64jvm7jfj_000000gn/T//ccYDFzYw.s:118    .text.wifiIsrHandler:00000000000000b4 .LBE6
/var/folders/rt/4gvqv631095f64jvm7jfj_000000gn/T//ccYDFzYw.s:145    .text.wifiIsrHandler:00000000000000d4 .LBB12
/var/folders/rt/4gvqv631095f64jvm7jfj_000000gn/T//ccYDFzYw.s:173    .text.wifiIsrHandler:00000000000000fc .LBE12
/var/folders/rt/4gvqv631095f64jvm7jfj_000000gn/T//ccYDFzYw.s:94     .text.wifiIsrHandler:0000000000000092 .LBB8
/var/folders/rt/4gvqv631095f64jvm7jfj_000000gn/T//ccYDFzYw.s:97     .text.wifiIsrHandler:0000000000000096 .LBE8
/var/folders/rt/4gvqv631095f64jvm7jfj_000000gn/T//ccYDFzYw.s:100    .text.wifiIsrHandler:000000000000009a .LBB9
/var/folders/rt/4gvqv631095f64jvm7jfj_000000gn/T//ccYDFzYw.s:108    .text.wifiIsrHandler:00000000000000a6 .LBE9
/var/folders/rt/4gvqv631095f64jvm7jfj_000000gn/T//ccYDFzYw.s:147    .text.wifiIsrHandler:00000000000000d4 .LBB10
/var/folders/rt/4gvqv631095f64jvm7jfj_000000gn/T//ccYDFzYw.s:171    .text.wifiIsrHandler:00000000000000fc .LBE10

UNDEFINED SYMBOLS
usart_interrupt_flag_get
l88mem
usart_data_transmit
usart_flag_get
usart_interrupt_disable
GAS LISTING /var/folders/rt/4gvqv631095f64jvm7jfj_000000gn/T//ccYDFzYw.s 			page 26


usart_data_receive
usart_interrupt_enable
rcu_periph_clock_enable
gpio_init
usart_deinit
usart_baudrate_set
usart_parity_config
usart_word_length_set
usart_stop_bit_set
usart_hardware_flow_rts_config
usart_hardware_flow_cts_config
usart_enable
usart_transmit_config
usart_receive_config
eclicw_enable
