GAS LISTING /var/folders/rt/4gvqv631095f64jvm7jfj_000000gn/T//ccDhfxRf.s 			page 1


   1              		.file	"usart.c"
   2              		.option nopic
   3              		.attribute arch, "rv32i2p0_m2p0_a2p0_c2p0"
   4              		.attribute unaligned_access, 0
   5              		.attribute stack_align, 16
   6              		.text
   7              	.Ltext0:
   8              		.cfi_sections	.debug_frame
   9              		.section	.text.wifiIsrHandler,"ax",@progbits
  10              		.align	1
  11              		.globl	wifiIsrHandler
  13              	wifiIsrHandler:
  14              	.LFB2:
  15              		.file 1 "usart.c"
   1:usart.c       **** #include "gd32vf103.h"
   2:usart.c       **** #include "usart.h"
   3:usart.c       **** #include "eclicw.h"
   4:usart.c       **** #define BUF_SIZE 256
   5:usart.c       **** 
   6:usart.c       **** int txr = 0, txw = 0, txq[512] = {0}; // 256 Byte wr queue
   7:usart.c       **** 
   8:usart.c       **** volatile char commandBuffer[BUF_SIZE];
   9:usart.c       **** volatile int commandBufferIndex = 0;
  10:usart.c       **** 
  11:usart.c       **** void wifiIsrHandler(void)
  12:usart.c       **** {
  16              		.loc 1 12 1
  17              		.cfi_startproc
  13:usart.c       ****   // TRANSMIT
  14:usart.c       ****   if (usart_interrupt_flag_get(USART0, USART_INT_FLAG_TBE))
  18              		.loc 1 14 3
  12:usart.c       ****   // TRANSMIT
  19              		.loc 1 12 1 is_stmt 0
  20 0000 0111     		addi	sp,sp,-32
  21              	.LCFI0:
  22              		.cfi_def_cfa_offset 32
  23 0002 26CA     		sw	s1,20(sp)
  24              		.loc 1 14 7
  25 0004 B7050700 		li	a1,458752
  26              		.cfi_offset 9, -12
  27 0008 B7440140 		li	s1,1073823744
  28 000c 93857530 		addi	a1,a1,775
  29 0010 13850480 		addi	a0,s1,-2048
  12:usart.c       ****   // TRANSMIT
  30              		.loc 1 12 1
  31 0014 06CE     		sw	ra,28(sp)
  32 0016 22CC     		sw	s0,24(sp)
  33 0018 4AC8     		sw	s2,16(sp)
  34 001a 4EC6     		sw	s3,12(sp)
  35              		.cfi_offset 1, -4
  36              		.cfi_offset 8, -8
  37              		.cfi_offset 18, -16
  38              		.cfi_offset 19, -20
  39              		.loc 1 14 7
  40 001c 97000000 		call	usart_interrupt_flag_get
  40      E7800000 
  41              	.LVL0:
GAS LISTING /var/folders/rt/4gvqv631095f64jvm7jfj_000000gn/T//ccDhfxRf.s 			page 2


  42              		.loc 1 14 6
  43 0024 31C1     		beq	a0,zero,.L2
  15:usart.c       ****   {
  16:usart.c       ****     if (txr != txw)
  44              		.loc 1 16 5 is_stmt 1
  45              		.loc 1 16 13 is_stmt 0
  46 0026 37040000 		lui	s0,%hi(.LANCHOR0)
  47 002a 13040400 		addi	s0,s0,%lo(.LANCHOR0)
  48              		.loc 1 16 8
  49 002e B7070000 		lui	a5,%hi(.LANCHOR1)
  50              		.loc 1 16 13
  51 0032 1840     		lw	a4,0(s0)
  52              		.loc 1 16 8
  53 0034 83A70700 		lw	a5,%lo(.LANCHOR1)(a5)
  54 0038 630DF706 		beq	a4,a5,.L3
  17:usart.c       ****     {
  18:usart.c       ****                                                 // ...no! Device redy?
  19:usart.c       ****       usart_data_transmit(USART0, txq[txr++]); //        Yes Write!
  55              		.loc 1 19 7 is_stmt 1
  56              		.loc 1 19 42 is_stmt 0
  57 003c 93071700 		addi	a5,a4,1
  58 0040 1CC0     		sw	a5,0(s0)
  59              		.loc 1 19 38
  60 0042 B7070000 		lui	a5,%hi(txq)
  61 0046 0A07     		slli	a4,a4,2
  62 0048 93870700 		addi	a5,a5,%lo(txq)
  63 004c BA97     		add	a5,a5,a4
  64              		.loc 1 19 7
  65 004e 8C43     		lw	a1,0(a5)
  66 0050 13850480 		addi	a0,s1,-2048
  67 0054 97000000 		call	usart_data_transmit
  67      E7800000 
  68              	.LVL1:
  20:usart.c       ****       txr %= 512;                              //            wrap around.
  69              		.loc 1 20 7 is_stmt 1
  70              		.loc 1 20 11 is_stmt 0
  71 005c 1C40     		lw	a5,0(s0)
  72 005e 13070020 		li	a4,512
  73 0062 B3E7E702 		rem	a5,a5,a4
  74 0066 1CC0     		sw	a5,0(s0)
  75              	.L2:
  21:usart.c       ****     }
  22:usart.c       ****     else
  23:usart.c       ****       usart_interrupt_disable(USART0, USART_INT_TBE);
  24:usart.c       ****   }
  25:usart.c       **** 
  26:usart.c       ****   // RECEIVE
  27:usart.c       ****   if (usart_interrupt_flag_get(USART0, USART_INT_FLAG_RBNE))
  76              		.loc 1 27 3 is_stmt 1
  77              		.loc 1 27 7 is_stmt 0
  78 0068 B7050500 		li	a1,327680
  79 006c 37440140 		li	s0,1073823744
  80 0070 93855530 		addi	a1,a1,773
  81 0074 13050480 		addi	a0,s0,-2048
  82 0078 97000000 		call	usart_interrupt_flag_get
  82      E7800000 
  83              	.LVL2:
GAS LISTING /var/folders/rt/4gvqv631095f64jvm7jfj_000000gn/T//ccDhfxRf.s 			page 3


  84              		.loc 1 27 6
  85 0080 15C1     		beq	a0,zero,.L1
  86              	.LBB6:
  87              	.LBB7:
  88              	.LBB8:
  28:usart.c       ****   {
  29:usart.c       ****     while (usart_flag_get(USART0, USART_FLAG_RBNE))
  30:usart.c       ****     {
  31:usart.c       ****       char c = usart_data_receive(USART0);
  32:usart.c       ****       if (commandBufferIndex < BUF_SIZE)
  33:usart.c       ****       {
  34:usart.c       ****         commandBuffer[commandBufferIndex++] = c;
  89              		.loc 1 34 45
  90 0082 B7040000 		lui	s1,%hi(commandBuffer)
  91              	.LBE8:
  29:usart.c       ****     {
  92              		.loc 1 29 12
  93 0086 13040480 		addi	s0,s0,-2048
  94              	.LBB9:
  32:usart.c       ****       {
  95              		.loc 1 32 30
  96 008a 37090000 		lui	s2,%hi(.LANCHOR2)
  32:usart.c       ****       {
  97              		.loc 1 32 10
  98 008e 9309F00F 		li	s3,255
  99              		.loc 1 34 45
 100 0092 93840400 		addi	s1,s1,%lo(commandBuffer)
 101              	.L5:
 102              	.LBE9:
  29:usart.c       ****     {
 103              		.loc 1 29 12
 104 0096 9545     		li	a1,5
 105 0098 2285     		mv	a0,s0
 106 009a 97000000 		call	usart_flag_get
 106      E7800000 
 107              	.LVL3:
  29:usart.c       ****     {
 108              		.loc 1 29 11
 109 00a2 0DE1     		bne	a0,zero,.L6
 110              	.L1:
 111              	.LBE7:
 112              	.LBE6:
  35:usart.c       ****       }
  36:usart.c       ****     }
  37:usart.c       ****   }
  38:usart.c       **** }
 113              		.loc 1 38 1
 114 00a4 F240     		lw	ra,28(sp)
 115              		.cfi_remember_state
 116              		.cfi_restore 1
 117 00a6 6244     		lw	s0,24(sp)
 118              		.cfi_restore 8
 119 00a8 D244     		lw	s1,20(sp)
 120              		.cfi_restore 9
 121 00aa 4249     		lw	s2,16(sp)
 122              		.cfi_restore 18
 123 00ac B249     		lw	s3,12(sp)
GAS LISTING /var/folders/rt/4gvqv631095f64jvm7jfj_000000gn/T//ccDhfxRf.s 			page 4


 124              		.cfi_restore 19
 125 00ae 0561     		addi	sp,sp,32
 126              	.LCFI1:
 127              		.cfi_def_cfa_offset 0
 128 00b0 8280     		jr	ra
 129              	.L3:
 130              	.LCFI2:
 131              		.cfi_restore_state
  23:usart.c       ****   }
 132              		.loc 1 23 7 is_stmt 1
 133 00b2 93057030 		li	a1,775
 134 00b6 13850480 		addi	a0,s1,-2048
 135 00ba 97000000 		call	usart_interrupt_disable
 135      E7800000 
 136              	.LVL4:
 137 00c2 5DB7     		j	.L2
 138              	.L6:
 139              	.LBB12:
 140              	.LBB11:
 141              	.LBB10:
  31:usart.c       ****       if (commandBufferIndex < BUF_SIZE)
 142              		.loc 1 31 7
  31:usart.c       ****       if (commandBufferIndex < BUF_SIZE)
 143              		.loc 1 31 16 is_stmt 0
 144 00c4 2285     		mv	a0,s0
 145 00c6 97000000 		call	usart_data_receive
 145      E7800000 
 146              	.LVL5:
  32:usart.c       ****       {
 147              		.loc 1 32 7 is_stmt 1
  32:usart.c       ****       {
 148              		.loc 1 32 30 is_stmt 0
 149 00ce 13070900 		addi	a4,s2,%lo(.LANCHOR2)
 150 00d2 1C43     		lw	a5,0(a4)
  32:usart.c       ****       {
 151              		.loc 1 32 10
 152 00d4 E3C1F9FC 		bgt	a5,s3,.L5
  34:usart.c       ****       }
 153              		.loc 1 34 9 is_stmt 1
  34:usart.c       ****       }
 154              		.loc 1 34 41 is_stmt 0
 155 00d8 1C43     		lw	a5,0(a4)
  31:usart.c       ****       if (commandBufferIndex < BUF_SIZE)
 156              		.loc 1 31 12
 157 00da 1375F50F 		andi	a0,a0,0xff
  34:usart.c       ****       }
 158              		.loc 1 34 41
 159 00de 93861700 		addi	a3,a5,1
 160 00e2 14C3     		sw	a3,0(a4)
  34:usart.c       ****       }
 161              		.loc 1 34 45
 162 00e4 A697     		add	a5,s1,a5
 163 00e6 2380A700 		sb	a0,0(a5)
 164 00ea 75B7     		j	.L5
 165              	.LBE10:
 166              	.LBE11:
 167              	.LBE12:
GAS LISTING /var/folders/rt/4gvqv631095f64jvm7jfj_000000gn/T//ccDhfxRf.s 			page 5


 168              		.cfi_endproc
 169              	.LFE2:
 171              		.section	.text.u0_TX_Queue,"ax",@progbits
 172              		.align	1
 173              		.globl	u0_TX_Queue
 175              	u0_TX_Queue:
 176              	.LFB3:
  39:usart.c       **** 
  40:usart.c       **** void u0_TX_Queue(void)
  41:usart.c       **** {
 177              		.loc 1 41 1 is_stmt 1
 178              		.cfi_startproc
  42:usart.c       ****   if (txr != txw)
 179              		.loc 1 42 3
  41:usart.c       ****   if (txr != txw)
 180              		.loc 1 41 1 is_stmt 0
 181 0000 4111     		addi	sp,sp,-16
 182              	.LCFI3:
 183              		.cfi_def_cfa_offset 16
 184 0002 22C4     		sw	s0,8(sp)
 185              		.cfi_offset 8, -8
 186              		.loc 1 42 11
 187 0004 37040000 		lui	s0,%hi(.LANCHOR0)
 188 0008 13040400 		addi	s0,s0,%lo(.LANCHOR0)
 189              		.loc 1 42 6
 190 000c B7070000 		lui	a5,%hi(.LANCHOR1)
 191 0010 1840     		lw	a4,0(s0)
 192 0012 83A70700 		lw	a5,%lo(.LANCHOR1)(a5)
  41:usart.c       ****   if (txr != txw)
 193              		.loc 1 41 1
 194 0016 06C6     		sw	ra,12(sp)
 195 0018 26C2     		sw	s1,4(sp)
 196              		.cfi_offset 1, -4
 197              		.cfi_offset 9, -12
 198              		.loc 1 42 6
 199 001a 6308F704 		beq	a4,a5,.L15
  43:usart.c       ****   { // Buffer empty?
  44:usart.c       ****     if (usart_flag_get(USART0, USART_FLAG_TBE))
 200              		.loc 1 44 5 is_stmt 1
 201              		.loc 1 44 9 is_stmt 0
 202 001e B7440140 		li	s1,1073823744
 203 0022 9D45     		li	a1,7
 204 0024 13850480 		addi	a0,s1,-2048
 205 0028 97000000 		call	usart_flag_get
 205      E7800000 
 206              	.LVL6:
 207              		.loc 1 44 8
 208 0030 05C9     		beq	a0,zero,.L14
 209              	.LBB15:
 210              	.LBB16:
  45:usart.c       ****     {                                          // ...no! Device redy?
  46:usart.c       ****       usart_data_transmit(USART0, txq[txr++]); //        Yes Write!
 211              		.loc 1 46 7 is_stmt 1
 212              		.loc 1 46 42 is_stmt 0
 213 0032 1840     		lw	a4,0(s0)
 214              		.loc 1 46 7
 215 0034 13850480 		addi	a0,s1,-2048
GAS LISTING /var/folders/rt/4gvqv631095f64jvm7jfj_000000gn/T//ccDhfxRf.s 			page 6


 216              		.loc 1 46 42
 217 0038 93071700 		addi	a5,a4,1
 218 003c 1CC0     		sw	a5,0(s0)
 219              		.loc 1 46 38
 220 003e B7070000 		lui	a5,%hi(txq)
 221 0042 0A07     		slli	a4,a4,2
 222 0044 93870700 		addi	a5,a5,%lo(txq)
 223 0048 BA97     		add	a5,a5,a4
 224              		.loc 1 46 7
 225 004a 8C43     		lw	a1,0(a5)
 226 004c 97000000 		call	usart_data_transmit
 226      E7800000 
 227              	.LVL7:
  47:usart.c       ****       txr %= 256;                              //            wrap around.
 228              		.loc 1 47 7 is_stmt 1
 229              		.loc 1 47 11 is_stmt 0
 230 0054 1C40     		lw	a5,0(s0)
 231 0056 13070010 		li	a4,256
 232 005a B3E7E702 		rem	a5,a5,a4
 233 005e 1CC0     		sw	a5,0(s0)
 234              	.L14:
 235              	.LBE16:
 236              	.LBE15:
  48:usart.c       ****     } //        No! Return!
  49:usart.c       ****   }
  50:usart.c       ****   else
  51:usart.c       ****     usart_interrupt_disable(USART0, USART_INT_TBE);
  52:usart.c       **** }
 237              		.loc 1 52 1
 238 0060 B240     		lw	ra,12(sp)
 239              		.cfi_remember_state
 240              		.cfi_restore 1
 241 0062 2244     		lw	s0,8(sp)
 242              		.cfi_restore 8
 243 0064 9244     		lw	s1,4(sp)
 244              		.cfi_restore 9
 245 0066 4101     		addi	sp,sp,16
 246              	.LCFI4:
 247              		.cfi_def_cfa_offset 0
 248 0068 8280     		jr	ra
 249              	.L15:
 250              	.LCFI5:
 251              		.cfi_restore_state
  51:usart.c       **** }
 252              		.loc 1 51 5 is_stmt 1
 253              		.loc 1 52 1 is_stmt 0
 254 006a 2244     		lw	s0,8(sp)
 255              		.cfi_restore 8
 256 006c B240     		lw	ra,12(sp)
 257              		.cfi_restore 1
 258 006e 9244     		lw	s1,4(sp)
 259              		.cfi_restore 9
  51:usart.c       **** }
 260              		.loc 1 51 5
 261 0070 37450140 		li	a0,1073823744
 262              		.loc 1 52 1
  51:usart.c       **** }
GAS LISTING /var/folders/rt/4gvqv631095f64jvm7jfj_000000gn/T//ccDhfxRf.s 			page 7


 263              		.loc 1 51 5
 264 0074 93057030 		li	a1,775
 265 0078 13050580 		addi	a0,a0,-2048
 266              		.loc 1 52 1
 267 007c 4101     		addi	sp,sp,16
 268              	.LCFI6:
 269              		.cfi_def_cfa_offset 0
  51:usart.c       **** }
 270              		.loc 1 51 5
 271 007e 17030000 		tail	usart_interrupt_disable
 271      67000300 
 272              	.LVL8:
 273              		.cfi_endproc
 274              	.LFE3:
 276              		.section	.text.putch,"ax",@progbits
 277              		.align	1
 278              		.globl	putch
 280              	putch:
 281              	.LFB4:
  53:usart.c       **** 
  54:usart.c       **** void putch(char ch)
  55:usart.c       **** {
 282              		.loc 1 55 1 is_stmt 1
 283              		.cfi_startproc
 284              	.LVL9:
  56:usart.c       ****   while (((txw + 1) % 512) == txr)
 285              		.loc 1 56 3
  55:usart.c       ****   while (((txw + 1) % 512) == txr)
 286              		.loc 1 55 1 is_stmt 0
 287 0000 0111     		addi	sp,sp,-32
 288              	.LCFI7:
 289              		.cfi_def_cfa_offset 32
 290 0002 22CC     		sw	s0,24(sp)
 291 0004 26CA     		sw	s1,20(sp)
 292 0006 4AC8     		sw	s2,16(sp)
 293 0008 06CE     		sw	ra,28(sp)
 294              		.cfi_offset 8, -8
 295              		.cfi_offset 9, -12
 296              		.cfi_offset 18, -16
 297              		.cfi_offset 1, -4
 298              		.loc 1 56 16
 299 000a 37090000 		lui	s2,%hi(.LANCHOR1)
 300              		.loc 1 56 21
 301 000e 93040020 		li	s1,512
 302              		.loc 1 56 28
 303 0012 37040000 		lui	s0,%hi(.LANCHOR0)
 304              	.LVL10:
 305              	.L22:
 306              		.loc 1 56 16
 307 0016 13060900 		addi	a2,s2,%lo(.LANCHOR1)
 308 001a 1442     		lw	a3,0(a2)
 309              		.loc 1 56 9
 310 001c 83270400 		lw	a5,%lo(.LANCHOR0)(s0)
 311              		.loc 1 56 16
 312 0020 13871600 		addi	a4,a3,1
 313              		.loc 1 56 21
 314 0024 33679702 		rem	a4,a4,s1
GAS LISTING /var/folders/rt/4gvqv631095f64jvm7jfj_000000gn/T//ccDhfxRf.s 			page 8


 315              		.loc 1 56 9
 316 0028 6309F702 		beq	a4,a5,.L23
  57:usart.c       ****     u0_TX_Queue(); // If buffer full then spin...
  58:usart.c       ****   txq[txw++] = ch; //...If/when not then store data...
 317              		.loc 1 58 3 is_stmt 1
 318              		.loc 1 58 14 is_stmt 0
 319 002c B7070000 		lui	a5,%hi(txq)
  59:usart.c       ****   txw %= 512;      //...and advance write index!
  60:usart.c       ****   usart_interrupt_enable(USART0, USART_INT_TBE);
  61:usart.c       **** }
 320              		.loc 1 61 1
 321 0030 6244     		lw	s0,24(sp)
 322              		.cfi_remember_state
 323              		.cfi_restore 8
  58:usart.c       ****   txw %= 512;      //...and advance write index!
 324              		.loc 1 58 14
 325 0032 8A06     		slli	a3,a3,2
 326 0034 93870700 		addi	a5,a5,%lo(txq)
 327              		.loc 1 61 1
 328 0038 F240     		lw	ra,28(sp)
 329              		.cfi_restore 1
 330 003a D244     		lw	s1,20(sp)
 331              		.cfi_restore 9
 332 003c 4249     		lw	s2,16(sp)
 333              		.cfi_restore 18
  58:usart.c       ****   txw %= 512;      //...and advance write index!
 334              		.loc 1 58 14
 335 003e B697     		add	a5,a5,a3
 336 0040 88C3     		sw	a0,0(a5)
  59:usart.c       ****   txw %= 512;      //...and advance write index!
 337              		.loc 1 59 3 is_stmt 1
  59:usart.c       ****   txw %= 512;      //...and advance write index!
 338              		.loc 1 59 7 is_stmt 0
 339 0042 18C2     		sw	a4,0(a2)
  60:usart.c       **** }
 340              		.loc 1 60 3 is_stmt 1
 341 0044 37450140 		li	a0,1073823744
 342              		.loc 1 61 1 is_stmt 0
  60:usart.c       **** }
 343              		.loc 1 60 3
 344 0048 93057030 		li	a1,775
 345 004c 13050580 		addi	a0,a0,-2048
 346              		.loc 1 61 1
 347 0050 0561     		addi	sp,sp,32
 348              	.LCFI8:
 349              		.cfi_def_cfa_offset 0
  60:usart.c       **** }
 350              		.loc 1 60 3
 351 0052 17030000 		tail	usart_interrupt_enable
 351      67000300 
 352              	.LVL11:
 353              	.L23:
 354              	.LCFI9:
 355              		.cfi_restore_state
 356 005a 2AC6     		sw	a0,12(sp)
  57:usart.c       ****   txq[txw++] = ch; //...If/when not then store data...
 357              		.loc 1 57 5 is_stmt 1
GAS LISTING /var/folders/rt/4gvqv631095f64jvm7jfj_000000gn/T//ccDhfxRf.s 			page 9


 358 005c 97000000 		call	u0_TX_Queue
 358      E7800000 
 359              	.LVL12:
 360 0064 3245     		lw	a0,12(sp)
 361 0066 45BF     		j	.L22
 362              		.cfi_endproc
 363              	.LFE4:
 365              		.section	.text.putstr,"ax",@progbits
 366              		.align	1
 367              		.globl	putstr
 369              	putstr:
 370              	.LFB5:
  62:usart.c       **** 
  63:usart.c       **** void putstr(char str[])
  64:usart.c       **** {
 371              		.loc 1 64 1
 372              		.cfi_startproc
 373              	.LVL13:
 374 0000 4111     		addi	sp,sp,-16
 375              	.LCFI10:
 376              		.cfi_def_cfa_offset 16
 377 0002 22C4     		sw	s0,8(sp)
 378 0004 06C6     		sw	ra,12(sp)
 379              		.cfi_offset 8, -8
 380              		.cfi_offset 1, -4
 381 0006 2A84     		mv	s0,a0
  65:usart.c       ****   while (*str)
 382              		.loc 1 65 3
 383              	.LVL14:
 384              	.L26:
 385              		.loc 1 65 10 is_stmt 0
 386 0008 03450400 		lbu	a0,0(s0)
 387              		.loc 1 65 9
 388 000c 09E5     		bne	a0,zero,.L27
  66:usart.c       ****     putch(*str++);
  67:usart.c       **** }
 389              		.loc 1 67 1
 390 000e B240     		lw	ra,12(sp)
 391              		.cfi_remember_state
 392              		.cfi_restore 1
 393 0010 2244     		lw	s0,8(sp)
 394              		.cfi_restore 8
 395              	.LVL15:
 396 0012 4101     		addi	sp,sp,16
 397              	.LCFI11:
 398              		.cfi_def_cfa_offset 0
 399 0014 8280     		jr	ra
 400              	.LVL16:
 401              	.L27:
 402              	.LCFI12:
 403              		.cfi_restore_state
  66:usart.c       ****     putch(*str++);
 404              		.loc 1 66 5 is_stmt 1
  66:usart.c       ****     putch(*str++);
 405              		.loc 1 66 15 is_stmt 0
 406 0016 0504     		addi	s0,s0,1
 407              	.LVL17:
GAS LISTING /var/folders/rt/4gvqv631095f64jvm7jfj_000000gn/T//ccDhfxRf.s 			page 10


  66:usart.c       ****     putch(*str++);
 408              		.loc 1 66 5
 409 0018 97000000 		call	putch
 409      E7800000 
 410              	.LVL18:
 411 0020 E5B7     		j	.L26
 412              		.cfi_endproc
 413              	.LFE5:
 415              		.section	.text.u0init,"ax",@progbits
 416              		.align	1
 417              		.globl	u0init
 419              	u0init:
 420              	.LFB6:
  68:usart.c       **** 
  69:usart.c       **** void u0init(int enable)
  70:usart.c       **** {
 421              		.loc 1 70 1 is_stmt 1
 422              		.cfi_startproc
 423              	.LVL19:
  71:usart.c       ****   rcu_periph_clock_enable(RCU_GPIOA);
 424              		.loc 1 71 3
  70:usart.c       ****   rcu_periph_clock_enable(RCU_GPIOA);
 425              		.loc 1 70 1 is_stmt 0
 426 0000 4111     		addi	sp,sp,-16
 427              	.LCFI13:
 428              		.cfi_def_cfa_offset 16
 429 0002 26C2     		sw	s1,4(sp)
 430              		.cfi_offset 9, -12
 431 0004 AA84     		mv	s1,a0
 432              		.loc 1 71 3
 433 0006 13052060 		li	a0,1538
 434              	.LVL20:
  70:usart.c       ****   rcu_periph_clock_enable(RCU_GPIOA);
 435              		.loc 1 70 1
 436 000a 06C6     		sw	ra,12(sp)
 437 000c 22C4     		sw	s0,8(sp)
 438              		.cfi_offset 1, -4
 439              		.cfi_offset 8, -8
 440              		.loc 1 71 3
 441 000e 97000000 		call	rcu_periph_clock_enable
 441      E7800000 
 442              	.LVL21:
  72:usart.c       ****   gpio_init(GPIOA, GPIO_MODE_AF_PP, GPIO_OSPEED_50MHZ, GPIO_PIN_9);
 443              		.loc 1 72 3 is_stmt 1
 444 0016 37140140 		li	s0,1073811456
 445 001a 13050480 		addi	a0,s0,-2048
 446 001e 93060020 		li	a3,512
 447 0022 0D46     		li	a2,3
 448 0024 E145     		li	a1,24
 449 0026 97000000 		call	gpio_init
 449      E7800000 
 450              	.LVL22:
  73:usart.c       ****   // gpio_init(GPIOA, GPIO_MODE_IN_FLOATING, GPIO_OSPEED_50MHZ, GPIO_PIN_10); ORIGINAL
  74:usart.c       ****   gpio_init(GPIOA, GPIO_MODE_IPU, GPIO_OSPEED_50MHZ, GPIO_PIN_10);
 451              		.loc 1 74 3
 452 002e 93060040 		li	a3,1024
 453 0032 0D46     		li	a2,3
GAS LISTING /var/folders/rt/4gvqv631095f64jvm7jfj_000000gn/T//ccDhfxRf.s 			page 11


 454 0034 93058004 		li	a1,72
 455 0038 13050480 		addi	a0,s0,-2048
 456 003c 97000000 		call	gpio_init
 456      E7800000 
 457              	.LVL23:
  75:usart.c       **** 
  76:usart.c       ****   rcu_periph_clock_enable(RCU_USART0);
 458              		.loc 1 76 3
 459 0044 1305E060 		li	a0,1550
  77:usart.c       ****   usart_deinit(USART0);
 460              		.loc 1 77 3 is_stmt 0
 461 0048 37440140 		li	s0,1073823744
  76:usart.c       ****   usart_deinit(USART0);
 462              		.loc 1 76 3
 463 004c 97000000 		call	rcu_periph_clock_enable
 463      E7800000 
 464              	.LVL24:
 465              		.loc 1 77 3 is_stmt 1
 466 0054 13050480 		addi	a0,s0,-2048
 467 0058 97000000 		call	usart_deinit
 467      E7800000 
 468              	.LVL25:
  78:usart.c       ****   usart_baudrate_set(USART0, 115200);
 469              		.loc 1 78 3
 470 0060 F165     		li	a1,114688
 471 0062 93850520 		addi	a1,a1,512
 472 0066 13050480 		addi	a0,s0,-2048
 473 006a 97000000 		call	usart_baudrate_set
 473      E7800000 
 474              	.LVL26:
  79:usart.c       ****   usart_parity_config(USART0, USART_PM_NONE);
 475              		.loc 1 79 3
 476 0072 8145     		li	a1,0
 477 0074 13050480 		addi	a0,s0,-2048
 478 0078 97000000 		call	usart_parity_config
 478      E7800000 
 479              	.LVL27:
  80:usart.c       ****   usart_word_length_set(USART0, USART_WL_8BIT);
 480              		.loc 1 80 3
 481 0080 8145     		li	a1,0
 482 0082 13050480 		addi	a0,s0,-2048
 483 0086 97000000 		call	usart_word_length_set
 483      E7800000 
 484              	.LVL28:
  81:usart.c       ****   usart_stop_bit_set(USART0, USART_STB_1BIT);
 485              		.loc 1 81 3
 486 008e 8145     		li	a1,0
 487 0090 13050480 		addi	a0,s0,-2048
 488 0094 97000000 		call	usart_stop_bit_set
 488      E7800000 
 489              	.LVL29:
  82:usart.c       ****   usart_hardware_flow_rts_config(USART0, USART_RTS_DISABLE);
 490              		.loc 1 82 3
 491 009c 8145     		li	a1,0
 492 009e 13050480 		addi	a0,s0,-2048
 493 00a2 97000000 		call	usart_hardware_flow_rts_config
 493      E7800000 
GAS LISTING /var/folders/rt/4gvqv631095f64jvm7jfj_000000gn/T//ccDhfxRf.s 			page 12


 494              	.LVL30:
  83:usart.c       ****   usart_hardware_flow_cts_config(USART0, USART_CTS_DISABLE);
 495              		.loc 1 83 3
 496 00aa 8145     		li	a1,0
 497 00ac 13050480 		addi	a0,s0,-2048
 498 00b0 97000000 		call	usart_hardware_flow_cts_config
 498      E7800000 
 499              	.LVL31:
  84:usart.c       ****   usart_enable(USART0);
 500              		.loc 1 84 3
 501 00b8 13050480 		addi	a0,s0,-2048
 502 00bc 97000000 		call	usart_enable
 502      E7800000 
 503              	.LVL32:
  85:usart.c       ****   usart_transmit_config(USART0, USART_TRANSMIT_ENABLE);
 504              		.loc 1 85 3
 505 00c4 A145     		li	a1,8
 506 00c6 13050480 		addi	a0,s0,-2048
 507 00ca 97000000 		call	usart_transmit_config
 507      E7800000 
 508              	.LVL33:
  86:usart.c       ****   usart_receive_config(USART0, USART_RECEIVE_ENABLE);
 509              		.loc 1 86 3
 510 00d2 9145     		li	a1,4
 511 00d4 13050480 		addi	a0,s0,-2048
 512 00d8 97000000 		call	usart_receive_config
 512      E7800000 
 513              	.LVL34:
  87:usart.c       **** 
  88:usart.c       ****   if (enable)
 514              		.loc 1 88 3
 515              		.loc 1 88 6 is_stmt 0
 516 00e0 8DC8     		beq	s1,zero,.L29
  89:usart.c       ****   {
  90:usart.c       ****     usart_interrupt_enable(USART0, USART_INT_RBNE); // INTERRUPT FÖR RX
 517              		.loc 1 90 5 is_stmt 1
 518 00e2 13050480 		addi	a0,s0,-2048
 519 00e6 93055030 		li	a1,773
 520 00ea 97000000 		call	usart_interrupt_enable
 520      E7800000 
 521              	.LVL35:
  91:usart.c       ****     eclicw_enable(USART0_IRQn, 3, 1, &wifiIsrHandler);
 522              		.loc 1 91 5
  92:usart.c       ****   }
  93:usart.c       **** }...
 523              		.loc 1 93 1 is_stmt 0
 524 00f2 2244     		lw	s0,8(sp)
 525              		.cfi_remember_state
 526              		.cfi_restore 8
 527 00f4 B240     		lw	ra,12(sp)
 528              		.cfi_restore 1
 529 00f6 9244     		lw	s1,4(sp)
 530              		.cfi_restore 9
 531              	.LVL36:
  91:usart.c       ****     eclicw_enable(USART0_IRQn, 3, 1, &wifiIsrHandler);
 532              		.loc 1 91 5
 533 00f8 B7060000 		lui	a3,%hi(wifiIsrHandler)
GAS LISTING /var/folders/rt/4gvqv631095f64jvm7jfj_000000gn/T//ccDhfxRf.s 			page 13


 534              		.loc 1 93 1
  91:usart.c       ****     eclicw_enable(USART0_IRQn, 3, 1, &wifiIsrHandler);
 535              		.loc 1 91 5
 536 00fc 93860600 		addi	a3,a3,%lo(wifiIsrHandler)
 537 0100 0546     		li	a2,1
 538 0102 8D45     		li	a1,3
 539 0104 13058003 		li	a0,56
 540              		.loc 1 93 1
 541 0108 4101     		addi	sp,sp,16
 542              	.LCFI14:
 543              		.cfi_def_cfa_offset 0
  91:usart.c       ****     eclicw_enable(USART0_IRQn, 3, 1, &wifiIsrHandler);
 544              		.loc 1 91 5
 545 010a 17030000 		tail	eclicw_enable
 545      67000300 
 546              	.LVL37:
 547              	.L29:
 548              	.LCFI15:
 549              		.cfi_restore_state
 550              		.loc 1 93 1
 551 0112 B240     		lw	ra,12(sp)
 552              		.cfi_restore 1
 553 0114 2244     		lw	s0,8(sp)
 554              		.cfi_restore 8
 555 0116 9244     		lw	s1,4(sp)
 556              		.cfi_restore 9
 557              	.LVL38:
 558 0118 4101     		addi	sp,sp,16
 559              	.LCFI16:
 560              		.cfi_def_cfa_offset 0
 561 011a 8280     		jr	ra
 562              		.cfi_endproc
 563              	.LFE6:
 565              		.globl	commandBufferIndex
 566              		.comm	commandBuffer,256,4
 567              		.globl	txq
 568              		.globl	txw
 569              		.globl	txr
 570              		.section	.bss.txq,"aw",@nobits
 571              		.align	2
 574              	txq:
 575 0000 00000000 		.zero	2048
 575      00000000 
 575      00000000 
 575      00000000 
 575      00000000 
 576              		.section	.sbss.commandBufferIndex,"aw",@nobits
 577              		.align	2
 578              		.set	.LANCHOR2,. + 0
 581              	commandBufferIndex:
 582 0000 00000000 		.zero	4
 583              		.section	.sbss.txr,"aw",@nobits
 584              		.align	2
 585              		.set	.LANCHOR0,. + 0
 588              	txr:
 589 0000 00000000 		.zero	4
 590              		.section	.sbss.txw,"aw",@nobits
GAS LISTING /var/folders/rt/4gvqv631095f64jvm7jfj_000000gn/T//ccDhfxRf.s 			page 14


 591              		.align	2
 592              		.set	.LANCHOR1,. + 0
 595              	txw:
 596 0000 00000000 		.zero	4
 597              		.text
 598              	.Letext0:
 599              		.file 2 "/Users/alexstrae/toolchain-gd32v-v202-osx/compiler/riscv64-unknown-elf/include/machine/_d
 600              		.file 3 "/Users/alexstrae/toolchain-gd32v-v202-osx/compiler/riscv64-unknown-elf/include/sys/_stdin
 601              		.file 4 "../../firmware/GD32VF103_standard_peripheral/Include/gd32vf103_rcu.h"
 602              		.file 5 "../../firmware/GD32VF103_standard_peripheral/Include/gd32vf103_usart.h"
 603              		.file 6 "../../firmware/GD32VF103_standard_peripheral/system_gd32vf103.h"
 604              		.file 7 "usart.h"
 605              		.file 8 "../../firmware/GD32VF103_standard_peripheral/Include/gd32vf103_gpio.h"
 606              		.file 9 "lib/eclicw/include/eclicw.h"
 607              		.file 10 "../../firmware/GD32VF103_standard_peripheral/gd32vf103.h"
GAS LISTING /var/folders/rt/4gvqv631095f64jvm7jfj_000000gn/T//ccDhfxRf.s 			page 15


DEFINED SYMBOLS
                            *ABS*:0000000000000000 usart.c
/var/folders/rt/4gvqv631095f64jvm7jfj_000000gn/T//ccDhfxRf.s:13     .text.wifiIsrHandler:0000000000000000 wifiIsrHandler
/var/folders/rt/4gvqv631095f64jvm7jfj_000000gn/T//ccDhfxRf.s:17     .text.wifiIsrHandler:0000000000000000 .L0 
/var/folders/rt/4gvqv631095f64jvm7jfj_000000gn/T//ccDhfxRf.s:18     .text.wifiIsrHandler:0000000000000000 .L0 
/var/folders/rt/4gvqv631095f64jvm7jfj_000000gn/T//ccDhfxRf.s:19     .text.wifiIsrHandler:0000000000000000 .L0 
/var/folders/rt/4gvqv631095f64jvm7jfj_000000gn/T//ccDhfxRf.s:20     .text.wifiIsrHandler:0000000000000000 .L0 
/var/folders/rt/4gvqv631095f64jvm7jfj_000000gn/T//ccDhfxRf.s:22     .text.wifiIsrHandler:0000000000000002 .L0 
/var/folders/rt/4gvqv631095f64jvm7jfj_000000gn/T//ccDhfxRf.s:25     .text.wifiIsrHandler:0000000000000004 .L0 
/var/folders/rt/4gvqv631095f64jvm7jfj_000000gn/T//ccDhfxRf.s:26     .text.wifiIsrHandler:0000000000000008 .L0 
/var/folders/rt/4gvqv631095f64jvm7jfj_000000gn/T//ccDhfxRf.s:31     .text.wifiIsrHandler:0000000000000014 .L0 
/var/folders/rt/4gvqv631095f64jvm7jfj_000000gn/T//ccDhfxRf.s:35     .text.wifiIsrHandler:000000000000001c .L0 
/var/folders/rt/4gvqv631095f64jvm7jfj_000000gn/T//ccDhfxRf.s:36     .text.wifiIsrHandler:000000000000001c .L0 
/var/folders/rt/4gvqv631095f64jvm7jfj_000000gn/T//ccDhfxRf.s:37     .text.wifiIsrHandler:000000000000001c .L0 
/var/folders/rt/4gvqv631095f64jvm7jfj_000000gn/T//ccDhfxRf.s:38     .text.wifiIsrHandler:000000000000001c .L0 
/var/folders/rt/4gvqv631095f64jvm7jfj_000000gn/T//ccDhfxRf.s:40     .text.wifiIsrHandler:000000000000001c .L0 
/var/folders/rt/4gvqv631095f64jvm7jfj_000000gn/T//ccDhfxRf.s:43     .text.wifiIsrHandler:0000000000000024 .L0 
/var/folders/rt/4gvqv631095f64jvm7jfj_000000gn/T//ccDhfxRf.s:45     .text.wifiIsrHandler:0000000000000026 .L0 
/var/folders/rt/4gvqv631095f64jvm7jfj_000000gn/T//ccDhfxRf.s:46     .text.wifiIsrHandler:0000000000000026 .L0 
/var/folders/rt/4gvqv631095f64jvm7jfj_000000gn/T//ccDhfxRf.s:49     .text.wifiIsrHandler:000000000000002e .L0 
/var/folders/rt/4gvqv631095f64jvm7jfj_000000gn/T//ccDhfxRf.s:51     .text.wifiIsrHandler:0000000000000032 .L0 
/var/folders/rt/4gvqv631095f64jvm7jfj_000000gn/T//ccDhfxRf.s:53     .text.wifiIsrHandler:0000000000000034 .L0 
/var/folders/rt/4gvqv631095f64jvm7jfj_000000gn/T//ccDhfxRf.s:56     .text.wifiIsrHandler:000000000000003c .L0 
/var/folders/rt/4gvqv631095f64jvm7jfj_000000gn/T//ccDhfxRf.s:57     .text.wifiIsrHandler:000000000000003c .L0 
/var/folders/rt/4gvqv631095f64jvm7jfj_000000gn/T//ccDhfxRf.s:574    .bss.txq:0000000000000000 txq
/var/folders/rt/4gvqv631095f64jvm7jfj_000000gn/T//ccDhfxRf.s:60     .text.wifiIsrHandler:0000000000000042 .L0 
/var/folders/rt/4gvqv631095f64jvm7jfj_000000gn/T//ccDhfxRf.s:65     .text.wifiIsrHandler:000000000000004e .L0 
/var/folders/rt/4gvqv631095f64jvm7jfj_000000gn/T//ccDhfxRf.s:70     .text.wifiIsrHandler:000000000000005c .L0 
/var/folders/rt/4gvqv631095f64jvm7jfj_000000gn/T//ccDhfxRf.s:71     .text.wifiIsrHandler:000000000000005c .L0 
/var/folders/rt/4gvqv631095f64jvm7jfj_000000gn/T//ccDhfxRf.s:77     .text.wifiIsrHandler:0000000000000068 .L0 
/var/folders/rt/4gvqv631095f64jvm7jfj_000000gn/T//ccDhfxRf.s:78     .text.wifiIsrHandler:0000000000000068 .L0 
/var/folders/rt/4gvqv631095f64jvm7jfj_000000gn/T//ccDhfxRf.s:85     .text.wifiIsrHandler:0000000000000080 .L0 
                            *COM*:0000000000000100 commandBuffer
/var/folders/rt/4gvqv631095f64jvm7jfj_000000gn/T//ccDhfxRf.s:90     .text.wifiIsrHandler:0000000000000082 .L0 
/var/folders/rt/4gvqv631095f64jvm7jfj_000000gn/T//ccDhfxRf.s:93     .text.wifiIsrHandler:0000000000000086 .L0 
/var/folders/rt/4gvqv631095f64jvm7jfj_000000gn/T//ccDhfxRf.s:96     .text.wifiIsrHandler:000000000000008a .L0 
/var/folders/rt/4gvqv631095f64jvm7jfj_000000gn/T//ccDhfxRf.s:98     .text.wifiIsrHandler:000000000000008e .L0 
/var/folders/rt/4gvqv631095f64jvm7jfj_000000gn/T//ccDhfxRf.s:100    .text.wifiIsrHandler:0000000000000092 .L0 
/var/folders/rt/4gvqv631095f64jvm7jfj_000000gn/T//ccDhfxRf.s:104    .text.wifiIsrHandler:0000000000000096 .L0 
/var/folders/rt/4gvqv631095f64jvm7jfj_000000gn/T//ccDhfxRf.s:109    .text.wifiIsrHandler:00000000000000a2 .L0 
/var/folders/rt/4gvqv631095f64jvm7jfj_000000gn/T//ccDhfxRf.s:114    .text.wifiIsrHandler:00000000000000a4 .L0 
/var/folders/rt/4gvqv631095f64jvm7jfj_000000gn/T//ccDhfxRf.s:115    .text.wifiIsrHandler:00000000000000a6 .L0 
/var/folders/rt/4gvqv631095f64jvm7jfj_000000gn/T//ccDhfxRf.s:116    .text.wifiIsrHandler:00000000000000a6 .L0 
/var/folders/rt/4gvqv631095f64jvm7jfj_000000gn/T//ccDhfxRf.s:118    .text.wifiIsrHandler:00000000000000a8 .L0 
/var/folders/rt/4gvqv631095f64jvm7jfj_000000gn/T//ccDhfxRf.s:120    .text.wifiIsrHandler:00000000000000aa .L0 
/var/folders/rt/4gvqv631095f64jvm7jfj_000000gn/T//ccDhfxRf.s:122    .text.wifiIsrHandler:00000000000000ac .L0 
/var/folders/rt/4gvqv631095f64jvm7jfj_000000gn/T//ccDhfxRf.s:124    .text.wifiIsrHandler:00000000000000ae .L0 
/var/folders/rt/4gvqv631095f64jvm7jfj_000000gn/T//ccDhfxRf.s:127    .text.wifiIsrHandler:00000000000000b0 .L0 
/var/folders/rt/4gvqv631095f64jvm7jfj_000000gn/T//ccDhfxRf.s:131    .text.wifiIsrHandler:00000000000000b2 .L0 
/var/folders/rt/4gvqv631095f64jvm7jfj_000000gn/T//ccDhfxRf.s:133    .text.wifiIsrHandler:00000000000000b2 .L0 
/var/folders/rt/4gvqv631095f64jvm7jfj_000000gn/T//ccDhfxRf.s:143    .text.wifiIsrHandler:00000000000000c4 .L0 
/var/folders/rt/4gvqv631095f64jvm7jfj_000000gn/T//ccDhfxRf.s:144    .text.wifiIsrHandler:00000000000000c4 .L0 
/var/folders/rt/4gvqv631095f64jvm7jfj_000000gn/T//ccDhfxRf.s:148    .text.wifiIsrHandler:00000000000000ce .L0 
/var/folders/rt/4gvqv631095f64jvm7jfj_000000gn/T//ccDhfxRf.s:149    .text.wifiIsrHandler:00000000000000ce .L0 
/var/folders/rt/4gvqv631095f64jvm7jfj_000000gn/T//ccDhfxRf.s:152    .text.wifiIsrHandler:00000000000000d4 .L0 
/var/folders/rt/4gvqv631095f64jvm7jfj_000000gn/T//ccDhfxRf.s:154    .text.wifiIsrHandler:00000000000000d8 .L0 
/var/folders/rt/4gvqv631095f64jvm7jfj_000000gn/T//ccDhfxRf.s:155    .text.wifiIsrHandler:00000000000000d8 .L0 
GAS LISTING /var/folders/rt/4gvqv631095f64jvm7jfj_000000gn/T//ccDhfxRf.s 			page 16


/var/folders/rt/4gvqv631095f64jvm7jfj_000000gn/T//ccDhfxRf.s:157    .text.wifiIsrHandler:00000000000000da .L0 
/var/folders/rt/4gvqv631095f64jvm7jfj_000000gn/T//ccDhfxRf.s:159    .text.wifiIsrHandler:00000000000000de .L0 
/var/folders/rt/4gvqv631095f64jvm7jfj_000000gn/T//ccDhfxRf.s:162    .text.wifiIsrHandler:00000000000000e4 .L0 
/var/folders/rt/4gvqv631095f64jvm7jfj_000000gn/T//ccDhfxRf.s:168    .text.wifiIsrHandler:00000000000000ec .L0 
/var/folders/rt/4gvqv631095f64jvm7jfj_000000gn/T//ccDhfxRf.s:175    .text.u0_TX_Queue:0000000000000000 u0_TX_Queue
/var/folders/rt/4gvqv631095f64jvm7jfj_000000gn/T//ccDhfxRf.s:178    .text.u0_TX_Queue:0000000000000000 .L0 
/var/folders/rt/4gvqv631095f64jvm7jfj_000000gn/T//ccDhfxRf.s:179    .text.u0_TX_Queue:0000000000000000 .L0 
/var/folders/rt/4gvqv631095f64jvm7jfj_000000gn/T//ccDhfxRf.s:180    .text.u0_TX_Queue:0000000000000000 .L0 
/var/folders/rt/4gvqv631095f64jvm7jfj_000000gn/T//ccDhfxRf.s:181    .text.u0_TX_Queue:0000000000000000 .L0 
/var/folders/rt/4gvqv631095f64jvm7jfj_000000gn/T//ccDhfxRf.s:183    .text.u0_TX_Queue:0000000000000002 .L0 
/var/folders/rt/4gvqv631095f64jvm7jfj_000000gn/T//ccDhfxRf.s:185    .text.u0_TX_Queue:0000000000000004 .L0 
/var/folders/rt/4gvqv631095f64jvm7jfj_000000gn/T//ccDhfxRf.s:187    .text.u0_TX_Queue:0000000000000004 .L0 
/var/folders/rt/4gvqv631095f64jvm7jfj_000000gn/T//ccDhfxRf.s:190    .text.u0_TX_Queue:000000000000000c .L0 
/var/folders/rt/4gvqv631095f64jvm7jfj_000000gn/T//ccDhfxRf.s:194    .text.u0_TX_Queue:0000000000000016 .L0 
/var/folders/rt/4gvqv631095f64jvm7jfj_000000gn/T//ccDhfxRf.s:196    .text.u0_TX_Queue:000000000000001a .L0 
/var/folders/rt/4gvqv631095f64jvm7jfj_000000gn/T//ccDhfxRf.s:197    .text.u0_TX_Queue:000000000000001a .L0 
/var/folders/rt/4gvqv631095f64jvm7jfj_000000gn/T//ccDhfxRf.s:199    .text.u0_TX_Queue:000000000000001a .L0 
/var/folders/rt/4gvqv631095f64jvm7jfj_000000gn/T//ccDhfxRf.s:201    .text.u0_TX_Queue:000000000000001e .L0 
/var/folders/rt/4gvqv631095f64jvm7jfj_000000gn/T//ccDhfxRf.s:202    .text.u0_TX_Queue:000000000000001e .L0 
/var/folders/rt/4gvqv631095f64jvm7jfj_000000gn/T//ccDhfxRf.s:208    .text.u0_TX_Queue:0000000000000030 .L0 
/var/folders/rt/4gvqv631095f64jvm7jfj_000000gn/T//ccDhfxRf.s:212    .text.u0_TX_Queue:0000000000000032 .L0 
/var/folders/rt/4gvqv631095f64jvm7jfj_000000gn/T//ccDhfxRf.s:213    .text.u0_TX_Queue:0000000000000032 .L0 
/var/folders/rt/4gvqv631095f64jvm7jfj_000000gn/T//ccDhfxRf.s:215    .text.u0_TX_Queue:0000000000000034 .L0 
/var/folders/rt/4gvqv631095f64jvm7jfj_000000gn/T//ccDhfxRf.s:217    .text.u0_TX_Queue:0000000000000038 .L0 
/var/folders/rt/4gvqv631095f64jvm7jfj_000000gn/T//ccDhfxRf.s:220    .text.u0_TX_Queue:000000000000003e .L0 
/var/folders/rt/4gvqv631095f64jvm7jfj_000000gn/T//ccDhfxRf.s:225    .text.u0_TX_Queue:000000000000004a .L0 
/var/folders/rt/4gvqv631095f64jvm7jfj_000000gn/T//ccDhfxRf.s:229    .text.u0_TX_Queue:0000000000000054 .L0 
/var/folders/rt/4gvqv631095f64jvm7jfj_000000gn/T//ccDhfxRf.s:230    .text.u0_TX_Queue:0000000000000054 .L0 
/var/folders/rt/4gvqv631095f64jvm7jfj_000000gn/T//ccDhfxRf.s:238    .text.u0_TX_Queue:0000000000000060 .L0 
/var/folders/rt/4gvqv631095f64jvm7jfj_000000gn/T//ccDhfxRf.s:239    .text.u0_TX_Queue:0000000000000062 .L0 
/var/folders/rt/4gvqv631095f64jvm7jfj_000000gn/T//ccDhfxRf.s:240    .text.u0_TX_Queue:0000000000000062 .L0 
/var/folders/rt/4gvqv631095f64jvm7jfj_000000gn/T//ccDhfxRf.s:242    .text.u0_TX_Queue:0000000000000064 .L0 
/var/folders/rt/4gvqv631095f64jvm7jfj_000000gn/T//ccDhfxRf.s:244    .text.u0_TX_Queue:0000000000000066 .L0 
/var/folders/rt/4gvqv631095f64jvm7jfj_000000gn/T//ccDhfxRf.s:247    .text.u0_TX_Queue:0000000000000068 .L0 
/var/folders/rt/4gvqv631095f64jvm7jfj_000000gn/T//ccDhfxRf.s:251    .text.u0_TX_Queue:000000000000006a .L0 
/var/folders/rt/4gvqv631095f64jvm7jfj_000000gn/T//ccDhfxRf.s:253    .text.u0_TX_Queue:000000000000006a .L0 
/var/folders/rt/4gvqv631095f64jvm7jfj_000000gn/T//ccDhfxRf.s:254    .text.u0_TX_Queue:000000000000006a .L0 
/var/folders/rt/4gvqv631095f64jvm7jfj_000000gn/T//ccDhfxRf.s:255    .text.u0_TX_Queue:000000000000006c .L0 
/var/folders/rt/4gvqv631095f64jvm7jfj_000000gn/T//ccDhfxRf.s:257    .text.u0_TX_Queue:000000000000006e .L0 
/var/folders/rt/4gvqv631095f64jvm7jfj_000000gn/T//ccDhfxRf.s:259    .text.u0_TX_Queue:0000000000000070 .L0 
/var/folders/rt/4gvqv631095f64jvm7jfj_000000gn/T//ccDhfxRf.s:261    .text.u0_TX_Queue:0000000000000070 .L0 
/var/folders/rt/4gvqv631095f64jvm7jfj_000000gn/T//ccDhfxRf.s:263    .text.u0_TX_Queue:0000000000000074 .L0 
/var/folders/rt/4gvqv631095f64jvm7jfj_000000gn/T//ccDhfxRf.s:264    .text.u0_TX_Queue:0000000000000074 .L0 
/var/folders/rt/4gvqv631095f64jvm7jfj_000000gn/T//ccDhfxRf.s:267    .text.u0_TX_Queue:000000000000007c .L0 
/var/folders/rt/4gvqv631095f64jvm7jfj_000000gn/T//ccDhfxRf.s:269    .text.u0_TX_Queue:000000000000007e .L0 
/var/folders/rt/4gvqv631095f64jvm7jfj_000000gn/T//ccDhfxRf.s:271    .text.u0_TX_Queue:000000000000007e .L0 
/var/folders/rt/4gvqv631095f64jvm7jfj_000000gn/T//ccDhfxRf.s:273    .text.u0_TX_Queue:0000000000000086 .L0 
/var/folders/rt/4gvqv631095f64jvm7jfj_000000gn/T//ccDhfxRf.s:280    .text.putch:0000000000000000 putch
/var/folders/rt/4gvqv631095f64jvm7jfj_000000gn/T//ccDhfxRf.s:283    .text.putch:0000000000000000 .L0 
/var/folders/rt/4gvqv631095f64jvm7jfj_000000gn/T//ccDhfxRf.s:285    .text.putch:0000000000000000 .L0 
/var/folders/rt/4gvqv631095f64jvm7jfj_000000gn/T//ccDhfxRf.s:286    .text.putch:0000000000000000 .L0 
/var/folders/rt/4gvqv631095f64jvm7jfj_000000gn/T//ccDhfxRf.s:287    .text.putch:0000000000000000 .L0 
/var/folders/rt/4gvqv631095f64jvm7jfj_000000gn/T//ccDhfxRf.s:289    .text.putch:0000000000000002 .L0 
/var/folders/rt/4gvqv631095f64jvm7jfj_000000gn/T//ccDhfxRf.s:294    .text.putch:000000000000000a .L0 
/var/folders/rt/4gvqv631095f64jvm7jfj_000000gn/T//ccDhfxRf.s:295    .text.putch:000000000000000a .L0 
/var/folders/rt/4gvqv631095f64jvm7jfj_000000gn/T//ccDhfxRf.s:296    .text.putch:000000000000000a .L0 
/var/folders/rt/4gvqv631095f64jvm7jfj_000000gn/T//ccDhfxRf.s:297    .text.putch:000000000000000a .L0 
GAS LISTING /var/folders/rt/4gvqv631095f64jvm7jfj_000000gn/T//ccDhfxRf.s 			page 17


/var/folders/rt/4gvqv631095f64jvm7jfj_000000gn/T//ccDhfxRf.s:299    .text.putch:000000000000000a .L0 
/var/folders/rt/4gvqv631095f64jvm7jfj_000000gn/T//ccDhfxRf.s:301    .text.putch:000000000000000e .L0 
/var/folders/rt/4gvqv631095f64jvm7jfj_000000gn/T//ccDhfxRf.s:303    .text.putch:0000000000000012 .L0 
/var/folders/rt/4gvqv631095f64jvm7jfj_000000gn/T//ccDhfxRf.s:307    .text.putch:0000000000000016 .L0 
/var/folders/rt/4gvqv631095f64jvm7jfj_000000gn/T//ccDhfxRf.s:310    .text.putch:000000000000001c .L0 
/var/folders/rt/4gvqv631095f64jvm7jfj_000000gn/T//ccDhfxRf.s:312    .text.putch:0000000000000020 .L0 
/var/folders/rt/4gvqv631095f64jvm7jfj_000000gn/T//ccDhfxRf.s:314    .text.putch:0000000000000024 .L0 
/var/folders/rt/4gvqv631095f64jvm7jfj_000000gn/T//ccDhfxRf.s:316    .text.putch:0000000000000028 .L0 
/var/folders/rt/4gvqv631095f64jvm7jfj_000000gn/T//ccDhfxRf.s:318    .text.putch:000000000000002c .L0 
/var/folders/rt/4gvqv631095f64jvm7jfj_000000gn/T//ccDhfxRf.s:319    .text.putch:000000000000002c .L0 
/var/folders/rt/4gvqv631095f64jvm7jfj_000000gn/T//ccDhfxRf.s:321    .text.putch:0000000000000030 .L0 
/var/folders/rt/4gvqv631095f64jvm7jfj_000000gn/T//ccDhfxRf.s:322    .text.putch:0000000000000032 .L0 
/var/folders/rt/4gvqv631095f64jvm7jfj_000000gn/T//ccDhfxRf.s:323    .text.putch:0000000000000032 .L0 
/var/folders/rt/4gvqv631095f64jvm7jfj_000000gn/T//ccDhfxRf.s:325    .text.putch:0000000000000032 .L0 
/var/folders/rt/4gvqv631095f64jvm7jfj_000000gn/T//ccDhfxRf.s:328    .text.putch:0000000000000038 .L0 
/var/folders/rt/4gvqv631095f64jvm7jfj_000000gn/T//ccDhfxRf.s:329    .text.putch:000000000000003a .L0 
/var/folders/rt/4gvqv631095f64jvm7jfj_000000gn/T//ccDhfxRf.s:331    .text.putch:000000000000003c .L0 
/var/folders/rt/4gvqv631095f64jvm7jfj_000000gn/T//ccDhfxRf.s:333    .text.putch:000000000000003e .L0 
/var/folders/rt/4gvqv631095f64jvm7jfj_000000gn/T//ccDhfxRf.s:335    .text.putch:000000000000003e .L0 
/var/folders/rt/4gvqv631095f64jvm7jfj_000000gn/T//ccDhfxRf.s:338    .text.putch:0000000000000042 .L0 
/var/folders/rt/4gvqv631095f64jvm7jfj_000000gn/T//ccDhfxRf.s:339    .text.putch:0000000000000042 .L0 
/var/folders/rt/4gvqv631095f64jvm7jfj_000000gn/T//ccDhfxRf.s:341    .text.putch:0000000000000044 .L0 
/var/folders/rt/4gvqv631095f64jvm7jfj_000000gn/T//ccDhfxRf.s:343    .text.putch:0000000000000048 .L0 
/var/folders/rt/4gvqv631095f64jvm7jfj_000000gn/T//ccDhfxRf.s:344    .text.putch:0000000000000048 .L0 
/var/folders/rt/4gvqv631095f64jvm7jfj_000000gn/T//ccDhfxRf.s:347    .text.putch:0000000000000050 .L0 
/var/folders/rt/4gvqv631095f64jvm7jfj_000000gn/T//ccDhfxRf.s:349    .text.putch:0000000000000052 .L0 
/var/folders/rt/4gvqv631095f64jvm7jfj_000000gn/T//ccDhfxRf.s:351    .text.putch:0000000000000052 .L0 
/var/folders/rt/4gvqv631095f64jvm7jfj_000000gn/T//ccDhfxRf.s:355    .text.putch:000000000000005a .L0 
/var/folders/rt/4gvqv631095f64jvm7jfj_000000gn/T//ccDhfxRf.s:358    .text.putch:000000000000005c .L0 
/var/folders/rt/4gvqv631095f64jvm7jfj_000000gn/T//ccDhfxRf.s:362    .text.putch:0000000000000068 .L0 
/var/folders/rt/4gvqv631095f64jvm7jfj_000000gn/T//ccDhfxRf.s:369    .text.putstr:0000000000000000 putstr
/var/folders/rt/4gvqv631095f64jvm7jfj_000000gn/T//ccDhfxRf.s:372    .text.putstr:0000000000000000 .L0 
/var/folders/rt/4gvqv631095f64jvm7jfj_000000gn/T//ccDhfxRf.s:374    .text.putstr:0000000000000000 .L0 
/var/folders/rt/4gvqv631095f64jvm7jfj_000000gn/T//ccDhfxRf.s:376    .text.putstr:0000000000000002 .L0 
/var/folders/rt/4gvqv631095f64jvm7jfj_000000gn/T//ccDhfxRf.s:379    .text.putstr:0000000000000006 .L0 
/var/folders/rt/4gvqv631095f64jvm7jfj_000000gn/T//ccDhfxRf.s:380    .text.putstr:0000000000000006 .L0 
/var/folders/rt/4gvqv631095f64jvm7jfj_000000gn/T//ccDhfxRf.s:385    .text.putstr:0000000000000008 .L0 
/var/folders/rt/4gvqv631095f64jvm7jfj_000000gn/T//ccDhfxRf.s:386    .text.putstr:0000000000000008 .L0 
/var/folders/rt/4gvqv631095f64jvm7jfj_000000gn/T//ccDhfxRf.s:388    .text.putstr:000000000000000c .L0 
/var/folders/rt/4gvqv631095f64jvm7jfj_000000gn/T//ccDhfxRf.s:390    .text.putstr:000000000000000e .L0 
/var/folders/rt/4gvqv631095f64jvm7jfj_000000gn/T//ccDhfxRf.s:391    .text.putstr:0000000000000010 .L0 
/var/folders/rt/4gvqv631095f64jvm7jfj_000000gn/T//ccDhfxRf.s:392    .text.putstr:0000000000000010 .L0 
/var/folders/rt/4gvqv631095f64jvm7jfj_000000gn/T//ccDhfxRf.s:394    .text.putstr:0000000000000012 .L0 
/var/folders/rt/4gvqv631095f64jvm7jfj_000000gn/T//ccDhfxRf.s:398    .text.putstr:0000000000000014 .L0 
/var/folders/rt/4gvqv631095f64jvm7jfj_000000gn/T//ccDhfxRf.s:403    .text.putstr:0000000000000016 .L0 
/var/folders/rt/4gvqv631095f64jvm7jfj_000000gn/T//ccDhfxRf.s:405    .text.putstr:0000000000000016 .L0 
/var/folders/rt/4gvqv631095f64jvm7jfj_000000gn/T//ccDhfxRf.s:406    .text.putstr:0000000000000016 .L0 
/var/folders/rt/4gvqv631095f64jvm7jfj_000000gn/T//ccDhfxRf.s:409    .text.putstr:0000000000000018 .L0 
/var/folders/rt/4gvqv631095f64jvm7jfj_000000gn/T//ccDhfxRf.s:412    .text.putstr:0000000000000022 .L0 
/var/folders/rt/4gvqv631095f64jvm7jfj_000000gn/T//ccDhfxRf.s:419    .text.u0init:0000000000000000 u0init
/var/folders/rt/4gvqv631095f64jvm7jfj_000000gn/T//ccDhfxRf.s:422    .text.u0init:0000000000000000 .L0 
/var/folders/rt/4gvqv631095f64jvm7jfj_000000gn/T//ccDhfxRf.s:424    .text.u0init:0000000000000000 .L0 
/var/folders/rt/4gvqv631095f64jvm7jfj_000000gn/T//ccDhfxRf.s:425    .text.u0init:0000000000000000 .L0 
/var/folders/rt/4gvqv631095f64jvm7jfj_000000gn/T//ccDhfxRf.s:426    .text.u0init:0000000000000000 .L0 
/var/folders/rt/4gvqv631095f64jvm7jfj_000000gn/T//ccDhfxRf.s:428    .text.u0init:0000000000000002 .L0 
/var/folders/rt/4gvqv631095f64jvm7jfj_000000gn/T//ccDhfxRf.s:430    .text.u0init:0000000000000004 .L0 
/var/folders/rt/4gvqv631095f64jvm7jfj_000000gn/T//ccDhfxRf.s:433    .text.u0init:0000000000000006 .L0 
GAS LISTING /var/folders/rt/4gvqv631095f64jvm7jfj_000000gn/T//ccDhfxRf.s 			page 18


/var/folders/rt/4gvqv631095f64jvm7jfj_000000gn/T//ccDhfxRf.s:436    .text.u0init:000000000000000a .L0 
/var/folders/rt/4gvqv631095f64jvm7jfj_000000gn/T//ccDhfxRf.s:438    .text.u0init:000000000000000e .L0 
/var/folders/rt/4gvqv631095f64jvm7jfj_000000gn/T//ccDhfxRf.s:439    .text.u0init:000000000000000e .L0 
/var/folders/rt/4gvqv631095f64jvm7jfj_000000gn/T//ccDhfxRf.s:441    .text.u0init:000000000000000e .L0 
/var/folders/rt/4gvqv631095f64jvm7jfj_000000gn/T//ccDhfxRf.s:444    .text.u0init:0000000000000016 .L0 
/var/folders/rt/4gvqv631095f64jvm7jfj_000000gn/T//ccDhfxRf.s:452    .text.u0init:000000000000002e .L0 
/var/folders/rt/4gvqv631095f64jvm7jfj_000000gn/T//ccDhfxRf.s:459    .text.u0init:0000000000000044 .L0 
/var/folders/rt/4gvqv631095f64jvm7jfj_000000gn/T//ccDhfxRf.s:461    .text.u0init:0000000000000048 .L0 
/var/folders/rt/4gvqv631095f64jvm7jfj_000000gn/T//ccDhfxRf.s:463    .text.u0init:000000000000004c .L0 
/var/folders/rt/4gvqv631095f64jvm7jfj_000000gn/T//ccDhfxRf.s:466    .text.u0init:0000000000000054 .L0 
/var/folders/rt/4gvqv631095f64jvm7jfj_000000gn/T//ccDhfxRf.s:470    .text.u0init:0000000000000060 .L0 
/var/folders/rt/4gvqv631095f64jvm7jfj_000000gn/T//ccDhfxRf.s:476    .text.u0init:0000000000000072 .L0 
/var/folders/rt/4gvqv631095f64jvm7jfj_000000gn/T//ccDhfxRf.s:481    .text.u0init:0000000000000080 .L0 
/var/folders/rt/4gvqv631095f64jvm7jfj_000000gn/T//ccDhfxRf.s:486    .text.u0init:000000000000008e .L0 
/var/folders/rt/4gvqv631095f64jvm7jfj_000000gn/T//ccDhfxRf.s:491    .text.u0init:000000000000009c .L0 
/var/folders/rt/4gvqv631095f64jvm7jfj_000000gn/T//ccDhfxRf.s:496    .text.u0init:00000000000000aa .L0 
/var/folders/rt/4gvqv631095f64jvm7jfj_000000gn/T//ccDhfxRf.s:501    .text.u0init:00000000000000b8 .L0 
/var/folders/rt/4gvqv631095f64jvm7jfj_000000gn/T//ccDhfxRf.s:505    .text.u0init:00000000000000c4 .L0 
/var/folders/rt/4gvqv631095f64jvm7jfj_000000gn/T//ccDhfxRf.s:510    .text.u0init:00000000000000d2 .L0 
/var/folders/rt/4gvqv631095f64jvm7jfj_000000gn/T//ccDhfxRf.s:515    .text.u0init:00000000000000e0 .L0 
/var/folders/rt/4gvqv631095f64jvm7jfj_000000gn/T//ccDhfxRf.s:516    .text.u0init:00000000000000e0 .L0 
/var/folders/rt/4gvqv631095f64jvm7jfj_000000gn/T//ccDhfxRf.s:518    .text.u0init:00000000000000e2 .L0 
/var/folders/rt/4gvqv631095f64jvm7jfj_000000gn/T//ccDhfxRf.s:523    .text.u0init:00000000000000f2 .L0 
/var/folders/rt/4gvqv631095f64jvm7jfj_000000gn/T//ccDhfxRf.s:524    .text.u0init:00000000000000f2 .L0 
/var/folders/rt/4gvqv631095f64jvm7jfj_000000gn/T//ccDhfxRf.s:525    .text.u0init:00000000000000f4 .L0 
/var/folders/rt/4gvqv631095f64jvm7jfj_000000gn/T//ccDhfxRf.s:526    .text.u0init:00000000000000f4 .L0 
/var/folders/rt/4gvqv631095f64jvm7jfj_000000gn/T//ccDhfxRf.s:528    .text.u0init:00000000000000f6 .L0 
/var/folders/rt/4gvqv631095f64jvm7jfj_000000gn/T//ccDhfxRf.s:530    .text.u0init:00000000000000f8 .L0 
/var/folders/rt/4gvqv631095f64jvm7jfj_000000gn/T//ccDhfxRf.s:533    .text.u0init:00000000000000f8 .L0 
/var/folders/rt/4gvqv631095f64jvm7jfj_000000gn/T//ccDhfxRf.s:535    .text.u0init:00000000000000fc .L0 
/var/folders/rt/4gvqv631095f64jvm7jfj_000000gn/T//ccDhfxRf.s:536    .text.u0init:00000000000000fc .L0 
/var/folders/rt/4gvqv631095f64jvm7jfj_000000gn/T//ccDhfxRf.s:541    .text.u0init:0000000000000108 .L0 
/var/folders/rt/4gvqv631095f64jvm7jfj_000000gn/T//ccDhfxRf.s:543    .text.u0init:000000000000010a .L0 
/var/folders/rt/4gvqv631095f64jvm7jfj_000000gn/T//ccDhfxRf.s:545    .text.u0init:000000000000010a .L0 
/var/folders/rt/4gvqv631095f64jvm7jfj_000000gn/T//ccDhfxRf.s:549    .text.u0init:0000000000000112 .L0 
/var/folders/rt/4gvqv631095f64jvm7jfj_000000gn/T//ccDhfxRf.s:551    .text.u0init:0000000000000112 .L0 
/var/folders/rt/4gvqv631095f64jvm7jfj_000000gn/T//ccDhfxRf.s:552    .text.u0init:0000000000000114 .L0 
/var/folders/rt/4gvqv631095f64jvm7jfj_000000gn/T//ccDhfxRf.s:554    .text.u0init:0000000000000116 .L0 
/var/folders/rt/4gvqv631095f64jvm7jfj_000000gn/T//ccDhfxRf.s:556    .text.u0init:0000000000000118 .L0 
/var/folders/rt/4gvqv631095f64jvm7jfj_000000gn/T//ccDhfxRf.s:560    .text.u0init:000000000000011a .L0 
/var/folders/rt/4gvqv631095f64jvm7jfj_000000gn/T//ccDhfxRf.s:562    .text.u0init:000000000000011c .L0 
/var/folders/rt/4gvqv631095f64jvm7jfj_000000gn/T//ccDhfxRf.s:581    .sbss.commandBufferIndex:0000000000000000 commandBufferIndex
/var/folders/rt/4gvqv631095f64jvm7jfj_000000gn/T//ccDhfxRf.s:595    .sbss.txw:0000000000000000 txw
/var/folders/rt/4gvqv631095f64jvm7jfj_000000gn/T//ccDhfxRf.s:588    .sbss.txr:0000000000000000 txr
/var/folders/rt/4gvqv631095f64jvm7jfj_000000gn/T//ccDhfxRf.s:578    .sbss.commandBufferIndex:0000000000000000 .LANCHOR2
/var/folders/rt/4gvqv631095f64jvm7jfj_000000gn/T//ccDhfxRf.s:585    .sbss.txr:0000000000000000 .LANCHOR0
/var/folders/rt/4gvqv631095f64jvm7jfj_000000gn/T//ccDhfxRf.s:592    .sbss.txw:0000000000000000 .LANCHOR1
/var/folders/rt/4gvqv631095f64jvm7jfj_000000gn/T//ccDhfxRf.s:171    .text.wifiIsrHandler:00000000000000ec .L0 
/var/folders/rt/4gvqv631095f64jvm7jfj_000000gn/T//ccDhfxRf.s:276    .text.u0_TX_Queue:0000000000000086 .L0 
/var/folders/rt/4gvqv631095f64jvm7jfj_000000gn/T//ccDhfxRf.s:365    .text.putch:0000000000000068 .L0 
/var/folders/rt/4gvqv631095f64jvm7jfj_000000gn/T//ccDhfxRf.s:415    .text.putstr:0000000000000022 .L0 
/var/folders/rt/4gvqv631095f64jvm7jfj_000000gn/T//ccDhfxRf.s:570    .text.u0init:000000000000011c .L0 
                     .debug_frame:0000000000000000 .L0 
/var/folders/rt/4gvqv631095f64jvm7jfj_000000gn/T//ccDhfxRf.s:75     .text.wifiIsrHandler:0000000000000068 .L2
/var/folders/rt/4gvqv631095f64jvm7jfj_000000gn/T//ccDhfxRf.s:129    .text.wifiIsrHandler:00000000000000b2 .L3
/var/folders/rt/4gvqv631095f64jvm7jfj_000000gn/T//ccDhfxRf.s:110    .text.wifiIsrHandler:00000000000000a4 .L1
/var/folders/rt/4gvqv631095f64jvm7jfj_000000gn/T//ccDhfxRf.s:138    .text.wifiIsrHandler:00000000000000c4 .L6
GAS LISTING /var/folders/rt/4gvqv631095f64jvm7jfj_000000gn/T//ccDhfxRf.s 			page 19


/var/folders/rt/4gvqv631095f64jvm7jfj_000000gn/T//ccDhfxRf.s:101    .text.wifiIsrHandler:0000000000000096 .L5
/var/folders/rt/4gvqv631095f64jvm7jfj_000000gn/T//ccDhfxRf.s:249    .text.u0_TX_Queue:000000000000006a .L15
/var/folders/rt/4gvqv631095f64jvm7jfj_000000gn/T//ccDhfxRf.s:234    .text.u0_TX_Queue:0000000000000060 .L14
/var/folders/rt/4gvqv631095f64jvm7jfj_000000gn/T//ccDhfxRf.s:353    .text.putch:000000000000005a .L23
/var/folders/rt/4gvqv631095f64jvm7jfj_000000gn/T//ccDhfxRf.s:305    .text.putch:0000000000000016 .L22
/var/folders/rt/4gvqv631095f64jvm7jfj_000000gn/T//ccDhfxRf.s:401    .text.putstr:0000000000000016 .L27
/var/folders/rt/4gvqv631095f64jvm7jfj_000000gn/T//ccDhfxRf.s:384    .text.putstr:0000000000000008 .L26
/var/folders/rt/4gvqv631095f64jvm7jfj_000000gn/T//ccDhfxRf.s:547    .text.u0init:0000000000000112 .L29
/var/folders/rt/4gvqv631095f64jvm7jfj_000000gn/T//ccDhfxRf.s:1940   .debug_abbrev:0000000000000000 .Ldebug_abbrev0
/var/folders/rt/4gvqv631095f64jvm7jfj_000000gn/T//ccDhfxRf.s:2946   .debug_str:0000000000000675 .LASF173
/var/folders/rt/4gvqv631095f64jvm7jfj_000000gn/T//ccDhfxRf.s:2850   .debug_str:00000000000003fd .LASF174
/var/folders/rt/4gvqv631095f64jvm7jfj_000000gn/T//ccDhfxRf.s:2840   .debug_str:0000000000000374 .LASF175
/var/folders/rt/4gvqv631095f64jvm7jfj_000000gn/T//ccDhfxRf.s:2684   .debug_ranges:0000000000000000 .Ldebug_ranges0
/var/folders/rt/4gvqv631095f64jvm7jfj_000000gn/T//ccDhfxRf.s:2712   .debug_line:0000000000000000 .Ldebug_line0
/var/folders/rt/4gvqv631095f64jvm7jfj_000000gn/T//ccDhfxRf.s:2938   .debug_str:0000000000000643 .LASF176
/var/folders/rt/4gvqv631095f64jvm7jfj_000000gn/T//ccDhfxRf.s:2940   .debug_str:0000000000000648 .LASF0
/var/folders/rt/4gvqv631095f64jvm7jfj_000000gn/T//ccDhfxRf.s:2960   .debug_str:0000000000000744 .LASF1
/var/folders/rt/4gvqv631095f64jvm7jfj_000000gn/T//ccDhfxRf.s:2894   .debug_str:0000000000000508 .LASF2
/var/folders/rt/4gvqv631095f64jvm7jfj_000000gn/T//ccDhfxRf.s:2968   .debug_str:0000000000000786 .LASF3
/var/folders/rt/4gvqv631095f64jvm7jfj_000000gn/T//ccDhfxRf.s:2906   .debug_str:000000000000054d .LASF4
/var/folders/rt/4gvqv631095f64jvm7jfj_000000gn/T//ccDhfxRf.s:3048   .debug_str:00000000000009be .LASF5
/var/folders/rt/4gvqv631095f64jvm7jfj_000000gn/T//ccDhfxRf.s:2764   .debug_str:0000000000000172 .LASF6
/var/folders/rt/4gvqv631095f64jvm7jfj_000000gn/T//ccDhfxRf.s:3068   .debug_str:0000000000000a62 .LASF7
/var/folders/rt/4gvqv631095f64jvm7jfj_000000gn/T//ccDhfxRf.s:2950   .debug_str:0000000000000708 .LASF8
/var/folders/rt/4gvqv631095f64jvm7jfj_000000gn/T//ccDhfxRf.s:2802   .debug_str:0000000000000285 .LASF9
/var/folders/rt/4gvqv631095f64jvm7jfj_000000gn/T//ccDhfxRf.s:2892   .debug_str:00000000000004fb .LASF10
/var/folders/rt/4gvqv631095f64jvm7jfj_000000gn/T//ccDhfxRf.s:2746   .debug_str:00000000000000f9 .LASF11
/var/folders/rt/4gvqv631095f64jvm7jfj_000000gn/T//ccDhfxRf.s:2976   .debug_str:00000000000007b4 .LASF12
/var/folders/rt/4gvqv631095f64jvm7jfj_000000gn/T//ccDhfxRf.s:2824   .debug_str:0000000000000313 .LASF13
/var/folders/rt/4gvqv631095f64jvm7jfj_000000gn/T//ccDhfxRf.s:3046   .debug_str:00000000000009b3 .LASF14
/var/folders/rt/4gvqv631095f64jvm7jfj_000000gn/T//ccDhfxRf.s:2898   .debug_str:0000000000000521 .LASF15
/var/folders/rt/4gvqv631095f64jvm7jfj_000000gn/T//ccDhfxRf.s:3042   .debug_str:000000000000098d .LASF16
/var/folders/rt/4gvqv631095f64jvm7jfj_000000gn/T//ccDhfxRf.s:2842   .debug_str:00000000000003b7 .LASF17
/var/folders/rt/4gvqv631095f64jvm7jfj_000000gn/T//ccDhfxRf.s:2742   .debug_str:00000000000000da .LASF18
/var/folders/rt/4gvqv631095f64jvm7jfj_000000gn/T//ccDhfxRf.s:2966   .debug_str:0000000000000773 .LASF19
/var/folders/rt/4gvqv631095f64jvm7jfj_000000gn/T//ccDhfxRf.s:2786   .debug_str:000000000000021e .LASF20
/var/folders/rt/4gvqv631095f64jvm7jfj_000000gn/T//ccDhfxRf.s:3034   .debug_str:000000000000094e .LASF21
/var/folders/rt/4gvqv631095f64jvm7jfj_000000gn/T//ccDhfxRf.s:2888   .debug_str:00000000000004d0 .LASF22
/var/folders/rt/4gvqv631095f64jvm7jfj_000000gn/T//ccDhfxRf.s:2738   .debug_str:00000000000000c1 .LASF23
/var/folders/rt/4gvqv631095f64jvm7jfj_000000gn/T//ccDhfxRf.s:2810   .debug_str:00000000000002bd .LASF24
/var/folders/rt/4gvqv631095f64jvm7jfj_000000gn/T//ccDhfxRf.s:2828   .debug_str:0000000000000329 .LASF25
/var/folders/rt/4gvqv631095f64jvm7jfj_000000gn/T//ccDhfxRf.s:2730   .debug_str:000000000000008e .LASF26
/var/folders/rt/4gvqv631095f64jvm7jfj_000000gn/T//ccDhfxRf.s:2996   .debug_str:0000000000000835 .LASF27
/var/folders/rt/4gvqv631095f64jvm7jfj_000000gn/T//ccDhfxRf.s:2986   .debug_str:00000000000007f5 .LASF28
/var/folders/rt/4gvqv631095f64jvm7jfj_000000gn/T//ccDhfxRf.s:3020   .debug_str:00000000000008eb .LASF29
/var/folders/rt/4gvqv631095f64jvm7jfj_000000gn/T//ccDhfxRf.s:2910   .debug_str:0000000000000570 .LASF30
/var/folders/rt/4gvqv631095f64jvm7jfj_000000gn/T//ccDhfxRf.s:3060   .debug_str:0000000000000a15 .LASF31
/var/folders/rt/4gvqv631095f64jvm7jfj_000000gn/T//ccDhfxRf.s:2726   .debug_str:000000000000006a .LASF32
/var/folders/rt/4gvqv631095f64jvm7jfj_000000gn/T//ccDhfxRf.s:2744   .debug_str:00000000000000ed .LASF33
/var/folders/rt/4gvqv631095f64jvm7jfj_000000gn/T//ccDhfxRf.s:2970   .debug_str:0000000000000794 .LASF34
/var/folders/rt/4gvqv631095f64jvm7jfj_000000gn/T//ccDhfxRf.s:2820   .debug_str:00000000000002f6 .LASF35
/var/folders/rt/4gvqv631095f64jvm7jfj_000000gn/T//ccDhfxRf.s:3010   .debug_str:00000000000008b3 .LASF36
/var/folders/rt/4gvqv631095f64jvm7jfj_000000gn/T//ccDhfxRf.s:2860   .debug_str:0000000000000431 .LASF37
/var/folders/rt/4gvqv631095f64jvm7jfj_000000gn/T//ccDhfxRf.s:2926   .debug_str:00000000000005f0 .LASF38
/var/folders/rt/4gvqv631095f64jvm7jfj_000000gn/T//ccDhfxRf.s:2982   .debug_str:00000000000007d6 .LASF39
/var/folders/rt/4gvqv631095f64jvm7jfj_000000gn/T//ccDhfxRf.s:2918   .debug_str:00000000000005b2 .LASF40
/var/folders/rt/4gvqv631095f64jvm7jfj_000000gn/T//ccDhfxRf.s:2780   .debug_str:00000000000001ea .LASF41
GAS LISTING /var/folders/rt/4gvqv631095f64jvm7jfj_000000gn/T//ccDhfxRf.s 			page 20


/var/folders/rt/4gvqv631095f64jvm7jfj_000000gn/T//ccDhfxRf.s:2758   .debug_str:0000000000000148 .LASF42
/var/folders/rt/4gvqv631095f64jvm7jfj_000000gn/T//ccDhfxRf.s:2958   .debug_str:0000000000000738 .LASF43
/var/folders/rt/4gvqv631095f64jvm7jfj_000000gn/T//ccDhfxRf.s:2804   .debug_str:000000000000028e .LASF44
/var/folders/rt/4gvqv631095f64jvm7jfj_000000gn/T//ccDhfxRf.s:2952   .debug_str:0000000000000711 .LASF45
/var/folders/rt/4gvqv631095f64jvm7jfj_000000gn/T//ccDhfxRf.s:2954   .debug_str:0000000000000720 .LASF46
/var/folders/rt/4gvqv631095f64jvm7jfj_000000gn/T//ccDhfxRf.s:2990   .debug_str:0000000000000815 .LASF47
/var/folders/rt/4gvqv631095f64jvm7jfj_000000gn/T//ccDhfxRf.s:2778   .debug_str:00000000000001e0 .LASF48
/var/folders/rt/4gvqv631095f64jvm7jfj_000000gn/T//ccDhfxRf.s:3040   .debug_str:0000000000000981 .LASF49
/var/folders/rt/4gvqv631095f64jvm7jfj_000000gn/T//ccDhfxRf.s:3018   .debug_str:00000000000008e1 .LASF50
/var/folders/rt/4gvqv631095f64jvm7jfj_000000gn/T//ccDhfxRf.s:2884   .debug_str:00000000000004b6 .LASF51
/var/folders/rt/4gvqv631095f64jvm7jfj_000000gn/T//ccDhfxRf.s:2760   .debug_str:0000000000000154 .LASF52
/var/folders/rt/4gvqv631095f64jvm7jfj_000000gn/T//ccDhfxRf.s:2896   .debug_str:0000000000000515 .LASF53
/var/folders/rt/4gvqv631095f64jvm7jfj_000000gn/T//ccDhfxRf.s:2766   .debug_str:000000000000017b .LASF54
/var/folders/rt/4gvqv631095f64jvm7jfj_000000gn/T//ccDhfxRf.s:2988   .debug_str:0000000000000802 .LASF55
/var/folders/rt/4gvqv631095f64jvm7jfj_000000gn/T//ccDhfxRf.s:2838   .debug_str:0000000000000361 .LASF56
/var/folders/rt/4gvqv631095f64jvm7jfj_000000gn/T//ccDhfxRf.s:2736   .debug_str:00000000000000ae .LASF57
/var/folders/rt/4gvqv631095f64jvm7jfj_000000gn/T//ccDhfxRf.s:2920   .debug_str:00000000000005bc .LASF58
/var/folders/rt/4gvqv631095f64jvm7jfj_000000gn/T//ccDhfxRf.s:2782   .debug_str:00000000000001f4 .LASF59
/var/folders/rt/4gvqv631095f64jvm7jfj_000000gn/T//ccDhfxRf.s:2932   .debug_str:000000000000061a .LASF60
/var/folders/rt/4gvqv631095f64jvm7jfj_000000gn/T//ccDhfxRf.s:2944   .debug_str:0000000000000667 .LASF61
/var/folders/rt/4gvqv631095f64jvm7jfj_000000gn/T//ccDhfxRf.s:2794   .debug_str:000000000000024f .LASF62
/var/folders/rt/4gvqv631095f64jvm7jfj_000000gn/T//ccDhfxRf.s:2900   .debug_str:000000000000052c .LASF63
/var/folders/rt/4gvqv631095f64jvm7jfj_000000gn/T//ccDhfxRf.s:2852   .debug_str:0000000000000405 .LASF64
/var/folders/rt/4gvqv631095f64jvm7jfj_000000gn/T//ccDhfxRf.s:3004   .debug_str:0000000000000878 .LASF65
/var/folders/rt/4gvqv631095f64jvm7jfj_000000gn/T//ccDhfxRf.s:2740   .debug_str:00000000000000cd .LASF66
/var/folders/rt/4gvqv631095f64jvm7jfj_000000gn/T//ccDhfxRf.s:2848   .debug_str:00000000000003f1 .LASF67
/var/folders/rt/4gvqv631095f64jvm7jfj_000000gn/T//ccDhfxRf.s:3028   .debug_str:0000000000000925 .LASF72
/var/folders/rt/4gvqv631095f64jvm7jfj_000000gn/T//ccDhfxRf.s:3012   .debug_str:00000000000008c0 .LASF68
/var/folders/rt/4gvqv631095f64jvm7jfj_000000gn/T//ccDhfxRf.s:2750   .debug_str:000000000000010d .LASF69
/var/folders/rt/4gvqv631095f64jvm7jfj_000000gn/T//ccDhfxRf.s:3044   .debug_str:00000000000009a0 .LASF70
/var/folders/rt/4gvqv631095f64jvm7jfj_000000gn/T//ccDhfxRf.s:2956   .debug_str:000000000000072f .LASF71
/var/folders/rt/4gvqv631095f64jvm7jfj_000000gn/T//ccDhfxRf.s:3016   .debug_str:00000000000008d6 .LASF73
/var/folders/rt/4gvqv631095f64jvm7jfj_000000gn/T//ccDhfxRf.s:2984   .debug_str:00000000000007e3 .LASF74
/var/folders/rt/4gvqv631095f64jvm7jfj_000000gn/T//ccDhfxRf.s:2868   .debug_str:000000000000045c .LASF75
/var/folders/rt/4gvqv631095f64jvm7jfj_000000gn/T//ccDhfxRf.s:2784   .debug_str:0000000000000207 .LASF76
/var/folders/rt/4gvqv631095f64jvm7jfj_000000gn/T//ccDhfxRf.s:2846   .debug_str:00000000000003e9 .LASF77
/var/folders/rt/4gvqv631095f64jvm7jfj_000000gn/T//ccDhfxRf.s:2772   .debug_str:00000000000001ad .LASF78
/var/folders/rt/4gvqv631095f64jvm7jfj_000000gn/T//ccDhfxRf.s:2936   .debug_str:0000000000000633 .LASF147
/var/folders/rt/4gvqv631095f64jvm7jfj_000000gn/T//ccDhfxRf.s:2732   .debug_str:000000000000009c .LASF79
/var/folders/rt/4gvqv631095f64jvm7jfj_000000gn/T//ccDhfxRf.s:2734   .debug_str:00000000000000a5 .LASF80
/var/folders/rt/4gvqv631095f64jvm7jfj_000000gn/T//ccDhfxRf.s:3070   .debug_str:0000000000000a6e .LASF81
/var/folders/rt/4gvqv631095f64jvm7jfj_000000gn/T//ccDhfxRf.s:2994   .debug_str:000000000000082c .LASF82
/var/folders/rt/4gvqv631095f64jvm7jfj_000000gn/T//ccDhfxRf.s:3036   .debug_str:0000000000000961 .LASF83
/var/folders/rt/4gvqv631095f64jvm7jfj_000000gn/T//ccDhfxRf.s:2854   .debug_str:0000000000000410 .LASF84
/var/folders/rt/4gvqv631095f64jvm7jfj_000000gn/T//ccDhfxRf.s:2856   .debug_str:000000000000041b .LASF85
/var/folders/rt/4gvqv631095f64jvm7jfj_000000gn/T//ccDhfxRf.s:2858   .debug_str:0000000000000426 .LASF86
/var/folders/rt/4gvqv631095f64jvm7jfj_000000gn/T//ccDhfxRf.s:2790   .debug_str:000000000000023c .LASF87
/var/folders/rt/4gvqv631095f64jvm7jfj_000000gn/T//ccDhfxRf.s:2862   .debug_str:000000000000043e .LASF88
/var/folders/rt/4gvqv631095f64jvm7jfj_000000gn/T//ccDhfxRf.s:2864   .debug_str:0000000000000449 .LASF89
/var/folders/rt/4gvqv631095f64jvm7jfj_000000gn/T//ccDhfxRf.s:2818   .debug_str:00000000000002ec .LASF90
/var/folders/rt/4gvqv631095f64jvm7jfj_000000gn/T//ccDhfxRf.s:2832   .debug_str:0000000000000340 .LASF91
/var/folders/rt/4gvqv631095f64jvm7jfj_000000gn/T//ccDhfxRf.s:2834   .debug_str:0000000000000349 .LASF92
/var/folders/rt/4gvqv631095f64jvm7jfj_000000gn/T//ccDhfxRf.s:2948   .debug_str:00000000000006fd .LASF93
/var/folders/rt/4gvqv631095f64jvm7jfj_000000gn/T//ccDhfxRf.s:3030   .debug_str:000000000000092f .LASF94
/var/folders/rt/4gvqv631095f64jvm7jfj_000000gn/T//ccDhfxRf.s:2972   .debug_str:00000000000007a0 .LASF95
/var/folders/rt/4gvqv631095f64jvm7jfj_000000gn/T//ccDhfxRf.s:2974   .debug_str:00000000000007aa .LASF96
/var/folders/rt/4gvqv631095f64jvm7jfj_000000gn/T//ccDhfxRf.s:2814   .debug_str:00000000000002da .LASF97
GAS LISTING /var/folders/rt/4gvqv631095f64jvm7jfj_000000gn/T//ccDhfxRf.s 			page 21


/var/folders/rt/4gvqv631095f64jvm7jfj_000000gn/T//ccDhfxRf.s:2816   .debug_str:00000000000002e3 .LASF98
/var/folders/rt/4gvqv631095f64jvm7jfj_000000gn/T//ccDhfxRf.s:2902   .debug_str:000000000000053b .LASF99
/var/folders/rt/4gvqv631095f64jvm7jfj_000000gn/T//ccDhfxRf.s:2904   .debug_str:0000000000000544 .LASF100
/var/folders/rt/4gvqv631095f64jvm7jfj_000000gn/T//ccDhfxRf.s:2748   .debug_str:0000000000000104 .LASF101
/var/folders/rt/4gvqv631095f64jvm7jfj_000000gn/T//ccDhfxRf.s:3014   .debug_str:00000000000008ce .LASF102
/var/folders/rt/4gvqv631095f64jvm7jfj_000000gn/T//ccDhfxRf.s:2792   .debug_str:0000000000000247 .LASF103
/var/folders/rt/4gvqv631095f64jvm7jfj_000000gn/T//ccDhfxRf.s:2866   .debug_str:0000000000000454 .LASF104
/var/folders/rt/4gvqv631095f64jvm7jfj_000000gn/T//ccDhfxRf.s:3002   .debug_str:0000000000000871 .LASF105
/var/folders/rt/4gvqv631095f64jvm7jfj_000000gn/T//ccDhfxRf.s:2870   .debug_str:000000000000046a .LASF106
/var/folders/rt/4gvqv631095f64jvm7jfj_000000gn/T//ccDhfxRf.s:2872   .debug_str:0000000000000474 .LASF107
/var/folders/rt/4gvqv631095f64jvm7jfj_000000gn/T//ccDhfxRf.s:2874   .debug_str:000000000000047e .LASF108
/var/folders/rt/4gvqv631095f64jvm7jfj_000000gn/T//ccDhfxRf.s:2876   .debug_str:0000000000000488 .LASF109
/var/folders/rt/4gvqv631095f64jvm7jfj_000000gn/T//ccDhfxRf.s:2878   .debug_str:0000000000000492 .LASF110
/var/folders/rt/4gvqv631095f64jvm7jfj_000000gn/T//ccDhfxRf.s:3024   .debug_str:0000000000000913 .LASF111
/var/folders/rt/4gvqv631095f64jvm7jfj_000000gn/T//ccDhfxRf.s:3026   .debug_str:000000000000091c .LASF112
/var/folders/rt/4gvqv631095f64jvm7jfj_000000gn/T//ccDhfxRf.s:2788   .debug_str:0000000000000231 .LASF113
/var/folders/rt/4gvqv631095f64jvm7jfj_000000gn/T//ccDhfxRf.s:2830   .debug_str:0000000000000337 .LASF114
/var/folders/rt/4gvqv631095f64jvm7jfj_000000gn/T//ccDhfxRf.s:2826   .debug_str:000000000000031e .LASF115
/var/folders/rt/4gvqv631095f64jvm7jfj_000000gn/T//ccDhfxRf.s:2756   .debug_str:0000000000000139 .LASF116
/var/folders/rt/4gvqv631095f64jvm7jfj_000000gn/T//ccDhfxRf.s:2886   .debug_str:00000000000004c1 .LASF117
/var/folders/rt/4gvqv631095f64jvm7jfj_000000gn/T//ccDhfxRf.s:2962   .debug_str:0000000000000751 .LASF118
/var/folders/rt/4gvqv631095f64jvm7jfj_000000gn/T//ccDhfxRf.s:3062   .debug_str:0000000000000a29 .LASF119
/var/folders/rt/4gvqv631095f64jvm7jfj_000000gn/T//ccDhfxRf.s:2914   .debug_str:0000000000000593 .LASF120
/var/folders/rt/4gvqv631095f64jvm7jfj_000000gn/T//ccDhfxRf.s:2812   .debug_str:00000000000002ca .LASF121
/var/folders/rt/4gvqv631095f64jvm7jfj_000000gn/T//ccDhfxRf.s:2822   .debug_str:0000000000000302 .LASF122
/var/folders/rt/4gvqv631095f64jvm7jfj_000000gn/T//ccDhfxRf.s:2728   .debug_str:000000000000007e .LASF123
/var/folders/rt/4gvqv631095f64jvm7jfj_000000gn/T//ccDhfxRf.s:2978   .debug_str:00000000000007bf .LASF124
/var/folders/rt/4gvqv631095f64jvm7jfj_000000gn/T//ccDhfxRf.s:2774   .debug_str:00000000000001b6 .LASF125
/var/folders/rt/4gvqv631095f64jvm7jfj_000000gn/T//ccDhfxRf.s:3032   .debug_str:000000000000093a .LASF126
/var/folders/rt/4gvqv631095f64jvm7jfj_000000gn/T//ccDhfxRf.s:2762   .debug_str:000000000000015f .LASF127
/var/folders/rt/4gvqv631095f64jvm7jfj_000000gn/T//ccDhfxRf.s:2800   .debug_str:0000000000000273 .LASF128
/var/folders/rt/4gvqv631095f64jvm7jfj_000000gn/T//ccDhfxRf.s:2908   .debug_str:000000000000055c .LASF129
/var/folders/rt/4gvqv631095f64jvm7jfj_000000gn/T//ccDhfxRf.s:2776   .debug_str:00000000000001c6 .LASF130
/var/folders/rt/4gvqv631095f64jvm7jfj_000000gn/T//ccDhfxRf.s:3052   .debug_str:00000000000009d8 .LASF131
/var/folders/rt/4gvqv631095f64jvm7jfj_000000gn/T//ccDhfxRf.s:3066   .debug_str:0000000000000a4f .LASF132
/var/folders/rt/4gvqv631095f64jvm7jfj_000000gn/T//ccDhfxRf.s:2924   .debug_str:00000000000005dd .LASF133
/var/folders/rt/4gvqv631095f64jvm7jfj_000000gn/T//ccDhfxRf.s:2720   .debug_str:0000000000000046 .LASF134
/var/folders/rt/4gvqv631095f64jvm7jfj_000000gn/T//ccDhfxRf.s:2754   .debug_str:0000000000000121 .LASF135
/var/folders/rt/4gvqv631095f64jvm7jfj_000000gn/T//ccDhfxRf.s:2890   .debug_str:00000000000004e3 .LASF136
/var/folders/rt/4gvqv631095f64jvm7jfj_000000gn/T//ccDhfxRf.s:2836   .debug_str:0000000000000352 .LASF137
/var/folders/rt/4gvqv631095f64jvm7jfj_000000gn/T//ccDhfxRf.s:2880   .debug_str:000000000000049c .LASF138
/var/folders/rt/4gvqv631095f64jvm7jfj_000000gn/T//ccDhfxRf.s:3008   .debug_str:00000000000008a6 .LASF139
/var/folders/rt/4gvqv631095f64jvm7jfj_000000gn/T//ccDhfxRf.s:2928   .debug_str:00000000000005fd .LASF140
/var/folders/rt/4gvqv631095f64jvm7jfj_000000gn/T//ccDhfxRf.s:2916   .debug_str:00000000000005a3 .LASF141
/var/folders/rt/4gvqv631095f64jvm7jfj_000000gn/T//ccDhfxRf.s:2808   .debug_str:00000000000002af .LASF142
/var/folders/rt/4gvqv631095f64jvm7jfj_000000gn/T//ccDhfxRf.s:3058   .debug_str:0000000000000a07 .LASF143
/var/folders/rt/4gvqv631095f64jvm7jfj_000000gn/T//ccDhfxRf.s:2930   .debug_str:000000000000060c .LASF144
/var/folders/rt/4gvqv631095f64jvm7jfj_000000gn/T//ccDhfxRf.s:2934   .debug_str:0000000000000627 .LASF145
/var/folders/rt/4gvqv631095f64jvm7jfj_000000gn/T//ccDhfxRf.s:2724   .debug_str:0000000000000065 .LASF146
/var/folders/rt/4gvqv631095f64jvm7jfj_000000gn/T//ccDhfxRf.s:3056   .debug_str:00000000000009f9 .LASF148
/var/folders/rt/4gvqv631095f64jvm7jfj_000000gn/T//ccDhfxRf.s:2718   .debug_str:0000000000000033 .LASF149
/var/folders/rt/4gvqv631095f64jvm7jfj_000000gn/T//ccDhfxRf.s:2992   .debug_str:0000000000000825 .LASF150
/var/folders/rt/4gvqv631095f64jvm7jfj_000000gn/T//ccDhfxRf.s:420    .text.u0init:0000000000000000 .LFB6
/var/folders/rt/4gvqv631095f64jvm7jfj_000000gn/T//ccDhfxRf.s:563    .text.u0init:000000000000011c .LFE6
/var/folders/rt/4gvqv631095f64jvm7jfj_000000gn/T//ccDhfxRf.s:2480   .debug_loc:0000000000000000 .LLST6
/var/folders/rt/4gvqv631095f64jvm7jfj_000000gn/T//ccDhfxRf.s:2796   .debug_str:000000000000025d .LASF152
/var/folders/rt/4gvqv631095f64jvm7jfj_000000gn/T//ccDhfxRf.s:2508   .debug_loc:0000000000000044 .LLST7
GAS LISTING /var/folders/rt/4gvqv631095f64jvm7jfj_000000gn/T//ccDhfxRf.s 			page 22


/var/folders/rt/4gvqv631095f64jvm7jfj_000000gn/T//ccDhfxRf.s:442    .text.u0init:0000000000000016 .LVL21
/var/folders/rt/4gvqv631095f64jvm7jfj_000000gn/T//ccDhfxRf.s:450    .text.u0init:000000000000002e .LVL22
/var/folders/rt/4gvqv631095f64jvm7jfj_000000gn/T//ccDhfxRf.s:457    .text.u0init:0000000000000044 .LVL23
/var/folders/rt/4gvqv631095f64jvm7jfj_000000gn/T//ccDhfxRf.s:464    .text.u0init:0000000000000054 .LVL24
/var/folders/rt/4gvqv631095f64jvm7jfj_000000gn/T//ccDhfxRf.s:468    .text.u0init:0000000000000060 .LVL25
/var/folders/rt/4gvqv631095f64jvm7jfj_000000gn/T//ccDhfxRf.s:474    .text.u0init:0000000000000072 .LVL26
/var/folders/rt/4gvqv631095f64jvm7jfj_000000gn/T//ccDhfxRf.s:479    .text.u0init:0000000000000080 .LVL27
/var/folders/rt/4gvqv631095f64jvm7jfj_000000gn/T//ccDhfxRf.s:484    .text.u0init:000000000000008e .LVL28
/var/folders/rt/4gvqv631095f64jvm7jfj_000000gn/T//ccDhfxRf.s:489    .text.u0init:000000000000009c .LVL29
/var/folders/rt/4gvqv631095f64jvm7jfj_000000gn/T//ccDhfxRf.s:494    .text.u0init:00000000000000aa .LVL30
/var/folders/rt/4gvqv631095f64jvm7jfj_000000gn/T//ccDhfxRf.s:499    .text.u0init:00000000000000b8 .LVL31
/var/folders/rt/4gvqv631095f64jvm7jfj_000000gn/T//ccDhfxRf.s:503    .text.u0init:00000000000000c4 .LVL32
/var/folders/rt/4gvqv631095f64jvm7jfj_000000gn/T//ccDhfxRf.s:508    .text.u0init:00000000000000d2 .LVL33
/var/folders/rt/4gvqv631095f64jvm7jfj_000000gn/T//ccDhfxRf.s:513    .text.u0init:00000000000000e0 .LVL34
/var/folders/rt/4gvqv631095f64jvm7jfj_000000gn/T//ccDhfxRf.s:521    .text.u0init:00000000000000f2 .LVL35
/var/folders/rt/4gvqv631095f64jvm7jfj_000000gn/T//ccDhfxRf.s:546    .text.u0init:0000000000000112 .LVL37
/var/folders/rt/4gvqv631095f64jvm7jfj_000000gn/T//ccDhfxRf.s:2980   .debug_str:00000000000007cf .LASF151
/var/folders/rt/4gvqv631095f64jvm7jfj_000000gn/T//ccDhfxRf.s:370    .text.putstr:0000000000000000 .LFB5
/var/folders/rt/4gvqv631095f64jvm7jfj_000000gn/T//ccDhfxRf.s:413    .text.putstr:0000000000000022 .LFE5
/var/folders/rt/4gvqv631095f64jvm7jfj_000000gn/T//ccDhfxRf.s:2537   .debug_loc:0000000000000089 .LLST4
/var/folders/rt/4gvqv631095f64jvm7jfj_000000gn/T//ccDhfxRf.s:2560   .debug_loc:00000000000000c1 .LLST5
/var/folders/rt/4gvqv631095f64jvm7jfj_000000gn/T//ccDhfxRf.s:410    .text.putstr:0000000000000020 .LVL18
/var/folders/rt/4gvqv631095f64jvm7jfj_000000gn/T//ccDhfxRf.s:2722   .debug_str:000000000000005f .LASF153
/var/folders/rt/4gvqv631095f64jvm7jfj_000000gn/T//ccDhfxRf.s:281    .text.putch:0000000000000000 .LFB4
/var/folders/rt/4gvqv631095f64jvm7jfj_000000gn/T//ccDhfxRf.s:363    .text.putch:0000000000000068 .LFE4
/var/folders/rt/4gvqv631095f64jvm7jfj_000000gn/T//ccDhfxRf.s:2575   .debug_loc:00000000000000ea .LLST2
/var/folders/rt/4gvqv631095f64jvm7jfj_000000gn/T//ccDhfxRf.s:2598   .debug_loc:0000000000000122 .LLST3
/var/folders/rt/4gvqv631095f64jvm7jfj_000000gn/T//ccDhfxRf.s:352    .text.putch:000000000000005a .LVL11
/var/folders/rt/4gvqv631095f64jvm7jfj_000000gn/T//ccDhfxRf.s:359    .text.putch:0000000000000064 .LVL12
/var/folders/rt/4gvqv631095f64jvm7jfj_000000gn/T//ccDhfxRf.s:2882   .debug_str:00000000000004aa .LASF177
/var/folders/rt/4gvqv631095f64jvm7jfj_000000gn/T//ccDhfxRf.s:2798   .debug_str:0000000000000264 .LASF178
/var/folders/rt/4gvqv631095f64jvm7jfj_000000gn/T//ccDhfxRf.s:14     .text.wifiIsrHandler:0000000000000000 .LFB2
/var/folders/rt/4gvqv631095f64jvm7jfj_000000gn/T//ccDhfxRf.s:169    .text.wifiIsrHandler:00000000000000ec .LFE2
/var/folders/rt/4gvqv631095f64jvm7jfj_000000gn/T//ccDhfxRf.s:2612   .debug_loc:0000000000000143 .LLST0
/var/folders/rt/4gvqv631095f64jvm7jfj_000000gn/T//ccDhfxRf.s:86     .text.wifiIsrHandler:0000000000000082 .LBB6
/var/folders/rt/4gvqv631095f64jvm7jfj_000000gn/T//ccDhfxRf.s:146    .text.wifiIsrHandler:00000000000000ce .LVL5
/var/folders/rt/4gvqv631095f64jvm7jfj_000000gn/T//ccDhfxRf.s:107    .text.wifiIsrHandler:00000000000000a2 .LVL3
/var/folders/rt/4gvqv631095f64jvm7jfj_000000gn/T//ccDhfxRf.s:41     .text.wifiIsrHandler:0000000000000024 .LVL0
/var/folders/rt/4gvqv631095f64jvm7jfj_000000gn/T//ccDhfxRf.s:68     .text.wifiIsrHandler:000000000000005c .LVL1
/var/folders/rt/4gvqv631095f64jvm7jfj_000000gn/T//ccDhfxRf.s:83     .text.wifiIsrHandler:0000000000000080 .LVL2
/var/folders/rt/4gvqv631095f64jvm7jfj_000000gn/T//ccDhfxRf.s:136    .text.wifiIsrHandler:00000000000000c2 .LVL4
/var/folders/rt/4gvqv631095f64jvm7jfj_000000gn/T//ccDhfxRf.s:176    .text.u0_TX_Queue:0000000000000000 .LFB3
/var/folders/rt/4gvqv631095f64jvm7jfj_000000gn/T//ccDhfxRf.s:274    .text.u0_TX_Queue:0000000000000086 .LFE3
/var/folders/rt/4gvqv631095f64jvm7jfj_000000gn/T//ccDhfxRf.s:2635   .debug_loc:000000000000017b .LLST1
/var/folders/rt/4gvqv631095f64jvm7jfj_000000gn/T//ccDhfxRf.s:209    .text.u0_TX_Queue:0000000000000032 .LBB15
/var/folders/rt/4gvqv631095f64jvm7jfj_000000gn/T//ccDhfxRf.s:236    .text.u0_TX_Queue:0000000000000060 .LBE15
/var/folders/rt/4gvqv631095f64jvm7jfj_000000gn/T//ccDhfxRf.s:227    .text.u0_TX_Queue:0000000000000054 .LVL7
/var/folders/rt/4gvqv631095f64jvm7jfj_000000gn/T//ccDhfxRf.s:206    .text.u0_TX_Queue:0000000000000030 .LVL6
/var/folders/rt/4gvqv631095f64jvm7jfj_000000gn/T//ccDhfxRf.s:272    .text.u0_TX_Queue:0000000000000086 .LVL8
/var/folders/rt/4gvqv631095f64jvm7jfj_000000gn/T//ccDhfxRf.s:3064   .debug_str:0000000000000a37 .LASF154
/var/folders/rt/4gvqv631095f64jvm7jfj_000000gn/T//ccDhfxRf.s:2752   .debug_str:0000000000000117 .LASF155
/var/folders/rt/4gvqv631095f64jvm7jfj_000000gn/T//ccDhfxRf.s:2942   .debug_str:000000000000065a .LASF156
/var/folders/rt/4gvqv631095f64jvm7jfj_000000gn/T//ccDhfxRf.s:2964   .debug_str:0000000000000760 .LASF157
/var/folders/rt/4gvqv631095f64jvm7jfj_000000gn/T//ccDhfxRf.s:2912   .debug_str:000000000000057f .LASF158
/var/folders/rt/4gvqv631095f64jvm7jfj_000000gn/T//ccDhfxRf.s:3038   .debug_str:000000000000096b .LASF159
/var/folders/rt/4gvqv631095f64jvm7jfj_000000gn/T//ccDhfxRf.s:2770   .debug_str:000000000000019a .LASF160
/var/folders/rt/4gvqv631095f64jvm7jfj_000000gn/T//ccDhfxRf.s:2844   .debug_str:00000000000003ca .LASF161
GAS LISTING /var/folders/rt/4gvqv631095f64jvm7jfj_000000gn/T//ccDhfxRf.s 			page 23


/var/folders/rt/4gvqv631095f64jvm7jfj_000000gn/T//ccDhfxRf.s:2714   .debug_str:0000000000000000 .LASF162
/var/folders/rt/4gvqv631095f64jvm7jfj_000000gn/T//ccDhfxRf.s:3054   .debug_str:00000000000009ec .LASF163
/var/folders/rt/4gvqv631095f64jvm7jfj_000000gn/T//ccDhfxRf.s:2998   .debug_str:0000000000000844 .LASF164
/var/folders/rt/4gvqv631095f64jvm7jfj_000000gn/T//ccDhfxRf.s:2806   .debug_str:000000000000029a .LASF165
/var/folders/rt/4gvqv631095f64jvm7jfj_000000gn/T//ccDhfxRf.s:3000   .debug_str:000000000000085a .LASF166
/var/folders/rt/4gvqv631095f64jvm7jfj_000000gn/T//ccDhfxRf.s:2922   .debug_str:00000000000005cf .LASF167
/var/folders/rt/4gvqv631095f64jvm7jfj_000000gn/T//ccDhfxRf.s:2768   .debug_str:0000000000000187 .LASF168
/var/folders/rt/4gvqv631095f64jvm7jfj_000000gn/T//ccDhfxRf.s:3050   .debug_str:00000000000009c9 .LASF169
/var/folders/rt/4gvqv631095f64jvm7jfj_000000gn/T//ccDhfxRf.s:3006   .debug_str:000000000000088d .LASF170
/var/folders/rt/4gvqv631095f64jvm7jfj_000000gn/T//ccDhfxRf.s:2716   .debug_str:000000000000001f .LASF171
/var/folders/rt/4gvqv631095f64jvm7jfj_000000gn/T//ccDhfxRf.s:3022   .debug_str:00000000000008fb .LASF172
/var/folders/rt/4gvqv631095f64jvm7jfj_000000gn/T//ccDhfxRf.s:427    .text.u0init:0000000000000002 .LCFI13
/var/folders/rt/4gvqv631095f64jvm7jfj_000000gn/T//ccDhfxRf.s:542    .text.u0init:000000000000010a .LCFI14
/var/folders/rt/4gvqv631095f64jvm7jfj_000000gn/T//ccDhfxRf.s:548    .text.u0init:0000000000000112 .LCFI15
/var/folders/rt/4gvqv631095f64jvm7jfj_000000gn/T//ccDhfxRf.s:559    .text.u0init:000000000000011a .LCFI16
/var/folders/rt/4gvqv631095f64jvm7jfj_000000gn/T//ccDhfxRf.s:423    .text.u0init:0000000000000000 .LVL19
/var/folders/rt/4gvqv631095f64jvm7jfj_000000gn/T//ccDhfxRf.s:434    .text.u0init:000000000000000a .LVL20
/var/folders/rt/4gvqv631095f64jvm7jfj_000000gn/T//ccDhfxRf.s:531    .text.u0init:00000000000000f8 .LVL36
/var/folders/rt/4gvqv631095f64jvm7jfj_000000gn/T//ccDhfxRf.s:557    .text.u0init:0000000000000118 .LVL38
/var/folders/rt/4gvqv631095f64jvm7jfj_000000gn/T//ccDhfxRf.s:375    .text.putstr:0000000000000002 .LCFI10
/var/folders/rt/4gvqv631095f64jvm7jfj_000000gn/T//ccDhfxRf.s:397    .text.putstr:0000000000000014 .LCFI11
/var/folders/rt/4gvqv631095f64jvm7jfj_000000gn/T//ccDhfxRf.s:402    .text.putstr:0000000000000016 .LCFI12
/var/folders/rt/4gvqv631095f64jvm7jfj_000000gn/T//ccDhfxRf.s:373    .text.putstr:0000000000000000 .LVL13
/var/folders/rt/4gvqv631095f64jvm7jfj_000000gn/T//ccDhfxRf.s:383    .text.putstr:0000000000000008 .LVL14
/var/folders/rt/4gvqv631095f64jvm7jfj_000000gn/T//ccDhfxRf.s:395    .text.putstr:0000000000000012 .LVL15
/var/folders/rt/4gvqv631095f64jvm7jfj_000000gn/T//ccDhfxRf.s:400    .text.putstr:0000000000000016 .LVL16
/var/folders/rt/4gvqv631095f64jvm7jfj_000000gn/T//ccDhfxRf.s:288    .text.putch:0000000000000002 .LCFI7
/var/folders/rt/4gvqv631095f64jvm7jfj_000000gn/T//ccDhfxRf.s:348    .text.putch:0000000000000052 .LCFI8
/var/folders/rt/4gvqv631095f64jvm7jfj_000000gn/T//ccDhfxRf.s:354    .text.putch:000000000000005a .LCFI9
/var/folders/rt/4gvqv631095f64jvm7jfj_000000gn/T//ccDhfxRf.s:284    .text.putch:0000000000000000 .LVL9
/var/folders/rt/4gvqv631095f64jvm7jfj_000000gn/T//ccDhfxRf.s:304    .text.putch:0000000000000016 .LVL10
/var/folders/rt/4gvqv631095f64jvm7jfj_000000gn/T//ccDhfxRf.s:21     .text.wifiIsrHandler:0000000000000002 .LCFI0
/var/folders/rt/4gvqv631095f64jvm7jfj_000000gn/T//ccDhfxRf.s:126    .text.wifiIsrHandler:00000000000000b0 .LCFI1
/var/folders/rt/4gvqv631095f64jvm7jfj_000000gn/T//ccDhfxRf.s:130    .text.wifiIsrHandler:00000000000000b2 .LCFI2
/var/folders/rt/4gvqv631095f64jvm7jfj_000000gn/T//ccDhfxRf.s:182    .text.u0_TX_Queue:0000000000000002 .LCFI3
/var/folders/rt/4gvqv631095f64jvm7jfj_000000gn/T//ccDhfxRf.s:246    .text.u0_TX_Queue:0000000000000068 .LCFI4
/var/folders/rt/4gvqv631095f64jvm7jfj_000000gn/T//ccDhfxRf.s:250    .text.u0_TX_Queue:000000000000006a .LCFI5
/var/folders/rt/4gvqv631095f64jvm7jfj_000000gn/T//ccDhfxRf.s:268    .text.u0_TX_Queue:000000000000007e .LCFI6
/var/folders/rt/4gvqv631095f64jvm7jfj_000000gn/T//ccDhfxRf.s:609    .debug_info:0000000000000000 .Ldebug_info0
/var/folders/rt/4gvqv631095f64jvm7jfj_000000gn/T//ccDhfxRf.s:112    .text.wifiIsrHandler:00000000000000a4 .LBE6
/var/folders/rt/4gvqv631095f64jvm7jfj_000000gn/T//ccDhfxRf.s:139    .text.wifiIsrHandler:00000000000000c4 .LBB12
/var/folders/rt/4gvqv631095f64jvm7jfj_000000gn/T//ccDhfxRf.s:167    .text.wifiIsrHandler:00000000000000ec .LBE12
/var/folders/rt/4gvqv631095f64jvm7jfj_000000gn/T//ccDhfxRf.s:88     .text.wifiIsrHandler:0000000000000082 .LBB8
/var/folders/rt/4gvqv631095f64jvm7jfj_000000gn/T//ccDhfxRf.s:91     .text.wifiIsrHandler:0000000000000086 .LBE8
/var/folders/rt/4gvqv631095f64jvm7jfj_000000gn/T//ccDhfxRf.s:94     .text.wifiIsrHandler:000000000000008a .LBB9
/var/folders/rt/4gvqv631095f64jvm7jfj_000000gn/T//ccDhfxRf.s:102    .text.wifiIsrHandler:0000000000000096 .LBE9
/var/folders/rt/4gvqv631095f64jvm7jfj_000000gn/T//ccDhfxRf.s:141    .text.wifiIsrHandler:00000000000000c4 .LBB10
/var/folders/rt/4gvqv631095f64jvm7jfj_000000gn/T//ccDhfxRf.s:165    .text.wifiIsrHandler:00000000000000ec .LBE10

UNDEFINED SYMBOLS
usart_interrupt_flag_get
usart_data_transmit
usart_flag_get
usart_interrupt_disable
usart_data_receive
usart_interrupt_enable
rcu_periph_clock_enable
GAS LISTING /var/folders/rt/4gvqv631095f64jvm7jfj_000000gn/T//ccDhfxRf.s 			page 24


gpio_init
usart_deinit
usart_baudrate_set
usart_parity_config
usart_word_length_set
usart_stop_bit_set
usart_hardware_flow_rts_config
usart_hardware_flow_cts_config
usart_enable
usart_transmit_config
usart_receive_config
eclicw_enable
