GAS LISTING /var/folders/rt/4gvqv631095f64jvm7jfj_000000gn/T//cc7JYoUt.s 			page 1


   1              		.file	"utilities.c"
   2              		.option nopic
   3              		.attribute arch, "rv32i2p0_m2p0_a2p0_c2p0"
   4              		.attribute unaligned_access, 0
   5              		.attribute stack_align, 16
   6              		.text
   7              	.Ltext0:
   8              		.cfi_sections	.debug_frame
   9              		.section	.text.rtcInit,"ax",@progbits
  10              		.align	1
  11              		.globl	rtcInit
  13              	rtcInit:
  14              	.LFB5:
  15              		.file 1 "utilities.c"
   1:utilities.c   **** 
   2:utilities.c   **** #include "gd32vf103.h"
   3:utilities.c   **** #include "lcd.h"
   4:utilities.c   **** #include <stdio.h>
   5:utilities.c   **** 
   6:utilities.c   **** // KTH code was from: https://gms.tf/riscv-gd32vf103.html#realtime-clock-rtc
   7:utilities.c   **** void rtcInit(void)
   8:utilities.c   **** {
  16              		.loc 1 8 1
  17              		.cfi_startproc
   9:utilities.c   ****   rcu_periph_clock_enable(RCU_PMU); // enable power managemenet unit - perhaps enabled by default
  18              		.loc 1 9 3
   8:utilities.c   ****   rcu_periph_clock_enable(RCU_PMU); // enable power managemenet unit - perhaps enabled by default
  19              		.loc 1 8 1 is_stmt 0
  20 0000 4111     		addi	sp,sp,-16
  21              	.LCFI0:
  22              		.cfi_def_cfa_offset 16
  23              		.loc 1 9 3
  24 0002 1305C071 		li	a0,1820
   8:utilities.c   ****   rcu_periph_clock_enable(RCU_PMU); // enable power managemenet unit - perhaps enabled by default
  25              		.loc 1 8 1
  26 0006 06C6     		sw	ra,12(sp)
  27              		.cfi_offset 1, -4
  28              		.loc 1 9 3
  29 0008 97000000 		call	rcu_periph_clock_enable
  29      E7800000 
  30              	.LVL0:
  10:utilities.c   ****   // enable write access to the registers in the backup domain
  11:utilities.c   ****   pmu_backup_write_enable();
  31              		.loc 1 11 3 is_stmt 1
  32 0010 97000000 		call	pmu_backup_write_enable
  32      E7800000 
  33              	.LVL1:
  12:utilities.c   ****   // enable backup domain
  13:utilities.c   ****   rcu_periph_clock_enable(RCU_BKPI);
  34              		.loc 1 13 3
  35 0018 1305B071 		li	a0,1819
  36 001c 97000000 		call	rcu_periph_clock_enable
  36      E7800000 
  37              	.LVL2:
  14:utilities.c   ****   // reset backup domain registers
  15:utilities.c   ****   bkp_deinit();
  38              		.loc 1 15 3
GAS LISTING /var/folders/rt/4gvqv631095f64jvm7jfj_000000gn/T//cc7JYoUt.s 			page 2


  39 0024 97000000 		call	bkp_deinit
  39      E7800000 
  40              	.LVL3:
  16:utilities.c   ****   // set the results of a previous calibration procedure
  17:utilities.c   ****   // bkp_rtc_calibration_value_set(x);
  18:utilities.c   **** 
  19:utilities.c   ****   // setup RTC
  20:utilities.c   ****   // enable external low speed XO
  21:utilities.c   ****   rcu_osci_on(RCU_HXTAL);
  41              		.loc 1 21 3
  42 002c 4145     		li	a0,16
  43 002e 97000000 		call	rcu_osci_on
  43      E7800000 
  44              	.LVL4:
  22:utilities.c   ****   if (rcu_osci_stab_wait(RCU_HXTAL))
  45              		.loc 1 22 3
  46              		.loc 1 22 7 is_stmt 0
  47 0036 4145     		li	a0,16
  48 0038 97000000 		call	rcu_osci_stab_wait
  48      E7800000 
  49              	.LVL5:
  50              		.loc 1 22 6
  51 0040 21CD     		beq	a0,zero,.L1
  23:utilities.c   ****   {
  24:utilities.c   ****     // use external low speed oscillaotr, i.e. 32.768 kHz
  25:utilities.c   ****     rcu_rtc_clock_config(RCU_RTCSRC_HXTAL_DIV_128);
  52              		.loc 1 25 5 is_stmt 1
  53 0042 13050030 		li	a0,768
  54 0046 97000000 		call	rcu_rtc_clock_config
  54      E7800000 
  55              	.LVL6:
  26:utilities.c   ****     rcu_periph_clock_enable(RCU_RTC);
  56              		.loc 1 26 5
  57 004e 0565     		li	a0,4096
  58 0050 1305F580 		addi	a0,a0,-2033
  59 0054 97000000 		call	rcu_periph_clock_enable
  59      E7800000 
  60              	.LVL7:
  27:utilities.c   ****     // wait until shadow registers are synced from the backup domain
  28:utilities.c   ****     // over the APB bus
  29:utilities.c   ****     rtc_register_sync_wait();
  61              		.loc 1 29 5
  62 005c 97000000 		call	rtc_register_sync_wait
  62      E7800000 
  63              	.LVL8:
  30:utilities.c   ****     // wait until shadow register changes are synced over APB
  31:utilities.c   ****     // to the backup doamin
  32:utilities.c   ****     rtc_lwoff_wait();
  64              		.loc 1 32 5
  65 0064 97000000 		call	rtc_lwoff_wait
  65      E7800000 
  66              	.LVL9:
  33:utilities.c   ****     // prescale to 1 second
  34:utilities.c   ****     rtc_prescaler_set(62500 - 1);
  67              		.loc 1 34 5
  68 006c 3D65     		li	a0,61440
  69 006e 13053542 		addi	a0,a0,1059
GAS LISTING /var/folders/rt/4gvqv631095f64jvm7jfj_000000gn/T//cc7JYoUt.s 			page 3


  70 0072 97000000 		call	rtc_prescaler_set
  70      E7800000 
  71              	.LVL10:
  35:utilities.c   ****     rtc_lwoff_wait();
  72              		.loc 1 35 5
  73 007a 97000000 		call	rtc_lwoff_wait
  73      E7800000 
  74              	.LVL11:
  36:utilities.c   ****     rtc_flag_clear(RTC_INT_FLAG_SECOND);
  75              		.loc 1 36 5
  76 0082 0545     		li	a0,1
  77 0084 97000000 		call	rtc_flag_clear
  77      E7800000 
  78              	.LVL12:
  37:utilities.c   ****     // rtc_interrupt_enable(RTC_INT_SECOND);
  38:utilities.c   ****     rtc_lwoff_wait();
  79              		.loc 1 38 5
  39:utilities.c   ****   }
  40:utilities.c   **** }
  80              		.loc 1 40 1 is_stmt 0
  81 008c B240     		lw	ra,12(sp)
  82              		.cfi_remember_state
  83              		.cfi_restore 1
  84 008e 4101     		addi	sp,sp,16
  85              	.LCFI1:
  86              		.cfi_def_cfa_offset 0
  38:utilities.c   ****   }
  87              		.loc 1 38 5
  88 0090 17030000 		tail	rtc_lwoff_wait
  88      67000300 
  89              	.LVL13:
  90              	.L1:
  91              	.LCFI2:
  92              		.cfi_restore_state
  93              		.loc 1 40 1
  94 0098 B240     		lw	ra,12(sp)
  95              		.cfi_restore 1
  96 009a 4101     		addi	sp,sp,16
  97              	.LCFI3:
  98              		.cfi_def_cfa_offset 0
  99 009c 8280     		jr	ra
 100              		.cfi_endproc
 101              	.LFE5:
 103              		.section	.text.generateTimeStamp,"ax",@progbits
 104              		.align	1
 105              		.globl	generateTimeStamp
 107              	generateTimeStamp:
 108              	.LFB6:
  41:utilities.c   **** 
  42:utilities.c   **** void generateTimeStamp(char buffer[])
  43:utilities.c   **** {
 109              		.loc 1 43 1 is_stmt 1
 110              		.cfi_startproc
 111              	.LVL14:
  44:utilities.c   ****   uint32_t currentTime = rtc_counter_get();
 112              		.loc 1 44 3
  43:utilities.c   ****   uint32_t currentTime = rtc_counter_get();
GAS LISTING /var/folders/rt/4gvqv631095f64jvm7jfj_000000gn/T//cc7JYoUt.s 			page 4


 113              		.loc 1 43 1 is_stmt 0
 114 0000 4111     		addi	sp,sp,-16
 115              	.LCFI4:
 116              		.cfi_def_cfa_offset 16
 117 0002 22C4     		sw	s0,8(sp)
 118 0004 06C6     		sw	ra,12(sp)
 119              		.cfi_offset 8, -8
 120              		.cfi_offset 1, -4
  43:utilities.c   ****   uint32_t currentTime = rtc_counter_get();
 121              		.loc 1 43 1
 122 0006 2A84     		mv	s0,a0
 123              		.loc 1 44 26
 124 0008 97000000 		call	rtc_counter_get
 124      E7800000 
 125              	.LVL15:
  45:utilities.c   ****   int hours = currentTime / 3600;
 126              		.loc 1 45 3 is_stmt 1
  46:utilities.c   ****   int min = (currentTime % 3600) / 60;
 127              		.loc 1 46 3
  47:utilities.c   ****   int sec = currentTime % 60;
 128              		.loc 1 47 3
  48:utilities.c   ****   snprintf(buffer, 9, "%02d:%02d:%02d", hours, min, sec);
 129              		.loc 1 48 3
  46:utilities.c   ****   int min = (currentTime % 3600) / 60;
 130              		.loc 1 46 26 is_stmt 0
 131 0010 8566     		li	a3,4096
 132 0012 938606E1 		addi	a3,a3,-496
 133 0016 3376D502 		remu	a2,a0,a3
  47:utilities.c   ****   int sec = currentTime % 60;
 134              		.loc 1 47 25
 135 001a 1307C003 		li	a4,60
  49:utilities.c   **** }
 136              		.loc 1 49 1
 137 001e B240     		lw	ra,12(sp)
 138              		.cfi_restore 1
  48:utilities.c   ****   snprintf(buffer, 9, "%02d:%02d:%02d", hours, min, sec);
 139              		.loc 1 48 3
 140 0020 A545     		li	a1,9
 141 0022 B377E502 		remu	a5,a0,a4
 142              	.LVL16:
 143 0026 B356D502 		divu	a3,a0,a3
 144 002a 2285     		mv	a0,s0
 145              	.LVL17:
 146              		.loc 1 49 1
 147 002c 2244     		lw	s0,8(sp)
 148              		.cfi_restore 8
 149              	.LVL18:
 150 002e 4101     		addi	sp,sp,16
 151              	.LCFI5:
 152              		.cfi_def_cfa_offset 0
  48:utilities.c   ****   snprintf(buffer, 9, "%02d:%02d:%02d", hours, min, sec);
 153              		.loc 1 48 3
 154 0030 3357E602 		divu	a4,a2,a4
 155 0034 37060000 		lui	a2,%hi(.LC0)
 156 0038 13060600 		addi	a2,a2,%lo(.LC0)
 157 003c 17030000 		tail	snprintf
 157      67000300 
GAS LISTING /var/folders/rt/4gvqv631095f64jvm7jfj_000000gn/T//cc7JYoUt.s 			page 5


 158              	.LVL19:
 159              		.cfi_endproc
 160              	.LFE6:
 162              		.section	.text.generateTimeStampFromValue,"ax",@progbits
 163              		.align	1
 164              		.globl	generateTimeStampFromValue
 166              	generateTimeStampFromValue:
 167              	.LFB7:
  50:utilities.c   **** 
  51:utilities.c   **** void generateTimeStampFromValue(char buffer[], uint32_t source)
  52:utilities.c   **** {
 168              		.loc 1 52 1 is_stmt 1
 169              		.cfi_startproc
 170              	.LVL20:
  53:utilities.c   ****   int hours = source / 3600;
 171              		.loc 1 53 3
  54:utilities.c   ****   int min = (source % 3600) / 60;
 172              		.loc 1 54 3
  55:utilities.c   ****   int sec = source % 60;
 173              		.loc 1 55 3
  56:utilities.c   ****   snprintf(buffer, 9, "%02d:%02d:%02d", hours, min, sec);
 174              		.loc 1 56 3
  54:utilities.c   ****   int min = (source % 3600) / 60;
 175              		.loc 1 54 21 is_stmt 0
 176 0000 8566     		li	a3,4096
 177 0002 938606E1 		addi	a3,a3,-496
 178 0006 33F6D502 		remu	a2,a1,a3
  55:utilities.c   ****   int sec = source % 60;
 179              		.loc 1 55 20
 180 000a 1307C003 		li	a4,60
 181              		.loc 1 56 3
 182 000e B3F7E502 		remu	a5,a1,a4
 183              	.LVL21:
 184 0012 B3D6D502 		divu	a3,a1,a3
 185 0016 A545     		li	a1,9
 186              	.LVL22:
 187 0018 3357E602 		divu	a4,a2,a4
 188 001c 37060000 		lui	a2,%hi(.LC0)
 189 0020 13060600 		addi	a2,a2,%lo(.LC0)
 190 0024 17030000 		tail	snprintf
 190      67000300 
 191              	.LVL23:
 192              		.cfi_endproc
 193              	.LFE7:
 195              		.section	.text.oneMinuteHasPassed,"ax",@progbits
 196              		.align	1
 197              		.globl	oneMinuteHasPassed
 199              	oneMinuteHasPassed:
 200              	.LFB8:
  57:utilities.c   **** }
  58:utilities.c   **** 
  59:utilities.c   **** int oneMinuteHasPassed(int *currentMin) {
 201              		.loc 1 59 41 is_stmt 1
 202              		.cfi_startproc
 203              	.LVL24:
  60:utilities.c   ****   uint32_t currentTime = rtc_counter_get();
 204              		.loc 1 60 3
GAS LISTING /var/folders/rt/4gvqv631095f64jvm7jfj_000000gn/T//cc7JYoUt.s 			page 6


  59:utilities.c   ****   uint32_t currentTime = rtc_counter_get();
 205              		.loc 1 59 41 is_stmt 0
 206 0000 4111     		addi	sp,sp,-16
 207              	.LCFI6:
 208              		.cfi_def_cfa_offset 16
 209 0002 22C4     		sw	s0,8(sp)
 210 0004 06C6     		sw	ra,12(sp)
 211              		.cfi_offset 8, -8
 212              		.cfi_offset 1, -4
  59:utilities.c   ****   uint32_t currentTime = rtc_counter_get();
 213              		.loc 1 59 41
 214 0006 2A84     		mv	s0,a0
 215              		.loc 1 60 26
 216 0008 97000000 		call	rtc_counter_get
 216      E7800000 
 217              	.LVL25:
  61:utilities.c   ****   int min = (currentTime % 3600) / 60;
 218              		.loc 1 61 3 is_stmt 1
 219              		.loc 1 61 26 is_stmt 0
 220 0010 8567     		li	a5,4096
 221 0012 938707E1 		addi	a5,a5,-496
 222 0016 3375F502 		remu	a0,a0,a5
 223              	.LVL26:
 224              		.loc 1 61 34
 225 001a 9307C003 		li	a5,60
 226 001e 3355F502 		divu	a0,a0,a5
 227              	.LVL27:
  62:utilities.c   ****   if (min <= *currentMin) return 0;
 228              		.loc 1 62 3 is_stmt 1
 229              		.loc 1 62 6 is_stmt 0
 230 0022 1C40     		lw	a5,0(s0)
 231 0024 63D8A700 		bge	a5,a0,.L9
  63:utilities.c   ****   else {
  64:utilities.c   ****     *currentMin = min;
 232              		.loc 1 64 5 is_stmt 1
 233              		.loc 1 64 17 is_stmt 0
 234 0028 08C0     		sw	a0,0(s0)
  65:utilities.c   ****     return 1;
 235              		.loc 1 65 5 is_stmt 1
 236              		.loc 1 65 12 is_stmt 0
 237 002a 0545     		li	a0,1
 238              	.LVL28:
 239              	.L7:
  66:utilities.c   ****   }
  67:utilities.c   **** }
 240              		.loc 1 67 1
 241 002c B240     		lw	ra,12(sp)
 242              		.cfi_remember_state
 243              		.cfi_restore 1
 244 002e 2244     		lw	s0,8(sp)
 245              		.cfi_restore 8
 246              	.LVL29:
 247 0030 4101     		addi	sp,sp,16
 248              	.LCFI7:
 249              		.cfi_def_cfa_offset 0
 250 0032 8280     		jr	ra
 251              	.LVL30:
GAS LISTING /var/folders/rt/4gvqv631095f64jvm7jfj_000000gn/T//cc7JYoUt.s 			page 7


 252              	.L9:
 253              	.LCFI8:
 254              		.cfi_restore_state
  62:utilities.c   ****   else {
 255              		.loc 1 62 34
 256 0034 0145     		li	a0,0
 257              	.LVL31:
 258 0036 DDBF     		j	.L7
 259              		.cfi_endproc
 260              	.LFE8:
 262              		.section	.rodata.generateTimeStamp.str1.4,"aMS",@progbits,1
 263              		.align	2
 264              	.LC0:
 265 0000 25303264 		.string	"%02d:%02d:%02d"
 265      3A253032 
 265      643A2530 
 265      326400
 266              		.text
 267              	.Letext0:
 268              		.file 2 "/Users/alexstrae/toolchain-gd32v-v202-osx/compiler/riscv64-unknown-elf/include/machine/_d
 269              		.file 3 "/Users/alexstrae/toolchain-gd32v-v202-osx/compiler/riscv64-unknown-elf/include/sys/_stdin
 270              		.file 4 "../../firmware/GD32VF103_standard_peripheral/Include/gd32vf103_rcu.h"
 271              		.file 5 "/Users/alexstrae/toolchain-gd32v-v202-osx/compiler/lib/gcc/riscv64-unknown-elf/8.3.0/incl
 272              		.file 6 "/Users/alexstrae/toolchain-gd32v-v202-osx/compiler/riscv64-unknown-elf/include/sys/_types
 273              		.file 7 "/Users/alexstrae/toolchain-gd32v-v202-osx/compiler/riscv64-unknown-elf/include/sys/reent.
 274              		.file 8 "/Users/alexstrae/toolchain-gd32v-v202-osx/compiler/riscv64-unknown-elf/include/sys/lock.h
 275              		.file 9 "../../firmware/GD32VF103_standard_peripheral/system_gd32vf103.h"
 276              		.file 10 "/Users/alexstrae/toolchain-gd32v-v202-osx/compiler/riscv64-unknown-elf/include/stdlib.h"
 277              		.file 11 "lib/lcd/include/lcd.h"
 278              		.file 12 "../../firmware/GD32VF103_standard_peripheral/Include/gd32vf103_rtc.h"
 279              		.file 13 "/Users/alexstrae/toolchain-gd32v-v202-osx/compiler/riscv64-unknown-elf/include/stdio.h"
 280              		.file 14 "../../firmware/GD32VF103_standard_peripheral/Include/gd32vf103_pmu.h"
 281              		.file 15 "../../firmware/GD32VF103_standard_peripheral/Include/gd32vf103_bkp.h"
GAS LISTING /var/folders/rt/4gvqv631095f64jvm7jfj_000000gn/T//cc7JYoUt.s 			page 8

