GAS LISTING /var/folders/rt/4gvqv631095f64jvm7jfj_000000gn/T//cc1DjAVj.s 			page 1


   1              		.file	"utilities.c"
   2              		.option nopic
   3              		.attribute arch, "rv32i2p0_m2p0_a2p0_c2p0"
   4              		.attribute unaligned_access, 0
   5              		.attribute stack_align, 16
   6              		.text
   7              	.Ltext0:
   8              		.cfi_sections	.debug_frame
   9              		.section	.text.rtcInit,"ax",@progbits
  10              		.align	1
  11              		.globl	rtcInit
  13              	rtcInit:
  14              	.LFB5:
  15              		.file 1 "utilities.c"
   1:utilities.c   **** #include "gd32vf103.h"
   2:utilities.c   **** #include "adc.h"
   3:utilities.c   **** #include "lcd.h"
   4:utilities.c   **** #include <stdio.h>
   5:utilities.c   **** 
   6:utilities.c   **** 
   7:utilities.c   **** // KTH code was from: https://gms.tf/riscv-gd32vf103.html#realtime-clock-rtc
   8:utilities.c   **** void rtcInit(void)
   9:utilities.c   **** {
  16              		.loc 1 9 1
  17              		.cfi_startproc
  10:utilities.c   ****   rcu_periph_clock_enable(RCU_PMU); // enable power managemenet unit - perhaps enabled by default
  18              		.loc 1 10 3
   9:utilities.c   ****   rcu_periph_clock_enable(RCU_PMU); // enable power managemenet unit - perhaps enabled by default
  19              		.loc 1 9 1 is_stmt 0
  20 0000 4111     		addi	sp,sp,-16
  21              	.LCFI0:
  22              		.cfi_def_cfa_offset 16
  23              		.loc 1 10 3
  24 0002 1305C071 		li	a0,1820
   9:utilities.c   ****   rcu_periph_clock_enable(RCU_PMU); // enable power managemenet unit - perhaps enabled by default
  25              		.loc 1 9 1
  26 0006 06C6     		sw	ra,12(sp)
  27              		.cfi_offset 1, -4
  28              		.loc 1 10 3
  29 0008 97000000 		call	rcu_periph_clock_enable
  29      E7800000 
  30              	.LVL0:
  11:utilities.c   ****   // enable write access to the registers in the backup domain
  12:utilities.c   ****   pmu_backup_write_enable();
  31              		.loc 1 12 3 is_stmt 1
  32 0010 97000000 		call	pmu_backup_write_enable
  32      E7800000 
  33              	.LVL1:
  13:utilities.c   ****   // enable backup domain
  14:utilities.c   ****   rcu_periph_clock_enable(RCU_BKPI);
  34              		.loc 1 14 3
  35 0018 1305B071 		li	a0,1819
  36 001c 97000000 		call	rcu_periph_clock_enable
  36      E7800000 
  37              	.LVL2:
  15:utilities.c   ****   // reset backup domain registers
  16:utilities.c   ****   bkp_deinit();
GAS LISTING /var/folders/rt/4gvqv631095f64jvm7jfj_000000gn/T//cc1DjAVj.s 			page 2


  38              		.loc 1 16 3
  39 0024 97000000 		call	bkp_deinit
  39      E7800000 
  40              	.LVL3:
  17:utilities.c   ****   // set the results of a previous calibration procedure
  18:utilities.c   ****   // bkp_rtc_calibration_value_set(x);
  19:utilities.c   **** 
  20:utilities.c   ****   // setup RTC
  21:utilities.c   ****   // enable external low speed XO
  22:utilities.c   ****   rcu_osci_on(RCU_HXTAL);
  41              		.loc 1 22 3
  42 002c 4145     		li	a0,16
  43 002e 97000000 		call	rcu_osci_on
  43      E7800000 
  44              	.LVL4:
  23:utilities.c   ****   if (rcu_osci_stab_wait(RCU_HXTAL))
  45              		.loc 1 23 3
  46              		.loc 1 23 7 is_stmt 0
  47 0036 4145     		li	a0,16
  48 0038 97000000 		call	rcu_osci_stab_wait
  48      E7800000 
  49              	.LVL5:
  50              		.loc 1 23 6
  51 0040 21CD     		beq	a0,zero,.L1
  24:utilities.c   ****   {
  25:utilities.c   ****     // use external low speed oscillaotr, i.e. 32.768 kHz
  26:utilities.c   ****     rcu_rtc_clock_config(RCU_RTCSRC_HXTAL_DIV_128);
  52              		.loc 1 26 5 is_stmt 1
  53 0042 13050030 		li	a0,768
  54 0046 97000000 		call	rcu_rtc_clock_config
  54      E7800000 
  55              	.LVL6:
  27:utilities.c   ****     rcu_periph_clock_enable(RCU_RTC);
  56              		.loc 1 27 5
  57 004e 0565     		li	a0,4096
  58 0050 1305F580 		addi	a0,a0,-2033
  59 0054 97000000 		call	rcu_periph_clock_enable
  59      E7800000 
  60              	.LVL7:
  28:utilities.c   ****     // wait until shadow registers are synced from the backup domain
  29:utilities.c   ****     // over the APB bus
  30:utilities.c   ****     rtc_register_sync_wait();
  61              		.loc 1 30 5
  62 005c 97000000 		call	rtc_register_sync_wait
  62      E7800000 
  63              	.LVL8:
  31:utilities.c   ****     // wait until shadow register changes are synced over APB
  32:utilities.c   ****     // to the backup doamin
  33:utilities.c   ****     rtc_lwoff_wait();
  64              		.loc 1 33 5
  65 0064 97000000 		call	rtc_lwoff_wait
  65      E7800000 
  66              	.LVL9:
  34:utilities.c   ****     // prescale to 1 second
  35:utilities.c   ****     rtc_prescaler_set(62500 - 1);
  67              		.loc 1 35 5
  68 006c 3D65     		li	a0,61440
GAS LISTING /var/folders/rt/4gvqv631095f64jvm7jfj_000000gn/T//cc1DjAVj.s 			page 3


  69 006e 13053542 		addi	a0,a0,1059
  70 0072 97000000 		call	rtc_prescaler_set
  70      E7800000 
  71              	.LVL10:
  36:utilities.c   ****     rtc_lwoff_wait();
  72              		.loc 1 36 5
  73 007a 97000000 		call	rtc_lwoff_wait
  73      E7800000 
  74              	.LVL11:
  37:utilities.c   ****     rtc_flag_clear(RTC_INT_FLAG_SECOND);
  75              		.loc 1 37 5
  76 0082 0545     		li	a0,1
  77 0084 97000000 		call	rtc_flag_clear
  77      E7800000 
  78              	.LVL12:
  38:utilities.c   ****     // rtc_interrupt_enable(RTC_INT_SECOND);
  39:utilities.c   ****     rtc_lwoff_wait();
  79              		.loc 1 39 5
  40:utilities.c   ****   }
  41:utilities.c   **** }
  80              		.loc 1 41 1 is_stmt 0
  81 008c B240     		lw	ra,12(sp)
  82              		.cfi_remember_state
  83              		.cfi_restore 1
  84 008e 4101     		addi	sp,sp,16
  85              	.LCFI1:
  86              		.cfi_def_cfa_offset 0
  39:utilities.c   ****   }
  87              		.loc 1 39 5
  88 0090 17030000 		tail	rtc_lwoff_wait
  88      67000300 
  89              	.LVL13:
  90              	.L1:
  91              	.LCFI2:
  92              		.cfi_restore_state
  93              		.loc 1 41 1
  94 0098 B240     		lw	ra,12(sp)
  95              		.cfi_restore 1
  96 009a 4101     		addi	sp,sp,16
  97              	.LCFI3:
  98              		.cfi_def_cfa_offset 0
  99 009c 8280     		jr	ra
 100              		.cfi_endproc
 101              	.LFE5:
 103              		.section	.text.generateTimeStamp,"ax",@progbits
 104              		.align	1
 105              		.globl	generateTimeStamp
 107              	generateTimeStamp:
 108              	.LFB6:
  42:utilities.c   **** 
  43:utilities.c   **** void generateTimeStamp(char buffer[])
  44:utilities.c   **** {
 109              		.loc 1 44 1 is_stmt 1
 110              		.cfi_startproc
 111              	.LVL14:
  45:utilities.c   ****   uint32_t currentTime = rtc_counter_get();
 112              		.loc 1 45 3
GAS LISTING /var/folders/rt/4gvqv631095f64jvm7jfj_000000gn/T//cc1DjAVj.s 			page 4


  44:utilities.c   ****   uint32_t currentTime = rtc_counter_get();
 113              		.loc 1 44 1 is_stmt 0
 114 0000 4111     		addi	sp,sp,-16
 115              	.LCFI4:
 116              		.cfi_def_cfa_offset 16
 117 0002 22C4     		sw	s0,8(sp)
 118 0004 06C6     		sw	ra,12(sp)
 119              		.cfi_offset 8, -8
 120              		.cfi_offset 1, -4
  44:utilities.c   ****   uint32_t currentTime = rtc_counter_get();
 121              		.loc 1 44 1
 122 0006 2A84     		mv	s0,a0
 123              		.loc 1 45 26
 124 0008 97000000 		call	rtc_counter_get
 124      E7800000 
 125              	.LVL15:
  46:utilities.c   ****   int hours = currentTime / 3600;
 126              		.loc 1 46 3 is_stmt 1
  47:utilities.c   ****   int min = (currentTime % 3600) / 60;
 127              		.loc 1 47 3
  48:utilities.c   ****   int sec = currentTime % 60;
 128              		.loc 1 48 3
  49:utilities.c   ****   snprintf(buffer, 9, "%02d:%02d:%02d", hours, min, sec);
 129              		.loc 1 49 3
  47:utilities.c   ****   int min = (currentTime % 3600) / 60;
 130              		.loc 1 47 26 is_stmt 0
 131 0010 8566     		li	a3,4096
 132 0012 938606E1 		addi	a3,a3,-496
 133 0016 3376D502 		remu	a2,a0,a3
  48:utilities.c   ****   int sec = currentTime % 60;
 134              		.loc 1 48 25
 135 001a 1307C003 		li	a4,60
  50:utilities.c   **** }
 136              		.loc 1 50 1
 137 001e B240     		lw	ra,12(sp)
 138              		.cfi_restore 1
  49:utilities.c   ****   snprintf(buffer, 9, "%02d:%02d:%02d", hours, min, sec);
 139              		.loc 1 49 3
 140 0020 A545     		li	a1,9
 141 0022 B377E502 		remu	a5,a0,a4
 142              	.LVL16:
 143 0026 B356D502 		divu	a3,a0,a3
 144 002a 2285     		mv	a0,s0
 145              	.LVL17:
 146              		.loc 1 50 1
 147 002c 2244     		lw	s0,8(sp)
 148              		.cfi_restore 8
 149              	.LVL18:
 150 002e 4101     		addi	sp,sp,16
 151              	.LCFI5:
 152              		.cfi_def_cfa_offset 0
  49:utilities.c   ****   snprintf(buffer, 9, "%02d:%02d:%02d", hours, min, sec);
 153              		.loc 1 49 3
 154 0030 3357E602 		divu	a4,a2,a4
 155 0034 37060000 		lui	a2,%hi(.LC0)
 156 0038 13060600 		addi	a2,a2,%lo(.LC0)
 157 003c 17030000 		tail	snprintf
GAS LISTING /var/folders/rt/4gvqv631095f64jvm7jfj_000000gn/T//cc1DjAVj.s 			page 5


 157      67000300 
 158              	.LVL19:
 159              		.cfi_endproc
 160              	.LFE6:
 162              		.section	.text.readSensor,"ax",@progbits
 163              		.align	1
 164              		.globl	readSensor
 166              	readSensor:
 167              	.LFB7:
  51:utilities.c   **** 
  52:utilities.c   **** int readSensor(uint32_t source, uint32_t EOC)
  53:utilities.c   **** {
 168              		.loc 1 53 1 is_stmt 1
 169              		.cfi_startproc
 170              	.LVL20:
  54:utilities.c   ****   adc_software_trigger_enable(source, ADC_REGULAR_CHANNEL);
 171              		.loc 1 54 3
  53:utilities.c   ****   adc_software_trigger_enable(source, ADC_REGULAR_CHANNEL);
 172              		.loc 1 53 1 is_stmt 0
 173 0000 0111     		addi	sp,sp,-32
 174              	.LCFI6:
 175              		.cfi_def_cfa_offset 32
 176 0002 26CA     		sw	s1,20(sp)
 177              		.cfi_offset 9, -12
 178 0004 AE84     		mv	s1,a1
 179              		.loc 1 54 3
 180 0006 8545     		li	a1,1
 181              	.LVL21:
  53:utilities.c   ****   adc_software_trigger_enable(source, ADC_REGULAR_CHANNEL);
 182              		.loc 1 53 1
 183 0008 22CC     		sw	s0,24(sp)
 184 000a 4AC8     		sw	s2,16(sp)
 185 000c 4EC6     		sw	s3,12(sp)
 186 000e 06CE     		sw	ra,28(sp)
 187              		.cfi_offset 8, -8
 188              		.cfi_offset 18, -16
 189              		.cfi_offset 19, -20
 190              		.cfi_offset 1, -4
  53:utilities.c   ****   adc_software_trigger_enable(source, ADC_REGULAR_CHANNEL);
 191              		.loc 1 53 1
 192 0010 2A84     		mv	s0,a0
  55:utilities.c   ****   int called = 0;
 193              		.loc 1 55 7
 194 0012 0149     		li	s2,0
  54:utilities.c   ****   adc_software_trigger_enable(source, ADC_REGULAR_CHANNEL);
 195              		.loc 1 54 3
 196 0014 97000000 		call	adc_software_trigger_enable
 196      E7800000 
 197              	.LVL22:
 198              		.loc 1 55 3 is_stmt 1
  56:utilities.c   ****   while (!adc_flag_get(source, EOC))
 199              		.loc 1 56 3
  57:utilities.c   ****   { // blocking
  58:utilities.c   ****     if (!called)
  59:utilities.c   ****     {
  60:utilities.c   ****       LCD_Clear(BLACK);
  61:utilities.c   ****       LCD_ShowStr(50, 4, "reads sensor", GREEN, TRANSPARENT);
GAS LISTING /var/folders/rt/4gvqv631095f64jvm7jfj_000000gn/T//cc1DjAVj.s 			page 6


 200              		.loc 1 61 7 is_stmt 0
 201 001c B7090000 		lui	s3,%hi(.LC1)
 202              	.LVL23:
 203              	.L8:
  56:utilities.c   ****   while (!adc_flag_get(source, EOC))
 204              		.loc 1 56 11
 205 0020 A685     		mv	a1,s1
 206 0022 2285     		mv	a0,s0
 207 0024 97000000 		call	adc_flag_get
 207      E7800000 
 208              	.LVL24:
  56:utilities.c   ****   while (!adc_flag_get(source, EOC))
 209              		.loc 1 56 9
 210 002c 0DC5     		beq	a0,zero,.L9
  62:utilities.c   ****       called = 1;
  63:utilities.c   ****     }
  64:utilities.c   ****   }
  65:utilities.c   ****   int reading = adc_regular_data_read(source);
 211              		.loc 1 65 3 is_stmt 1
 212              		.loc 1 65 17 is_stmt 0
 213 002e 2285     		mv	a0,s0
 214 0030 97000000 		call	adc_regular_data_read
 214      E7800000 
 215              	.LVL25:
 216 0038 2A89     		mv	s2,a0
 217              	.LVL26:
  66:utilities.c   ****   adc_flag_clear(source, EOC);
 218              		.loc 1 66 3 is_stmt 1
 219 003a A685     		mv	a1,s1
 220 003c 2285     		mv	a0,s0
 221 003e 97000000 		call	adc_flag_clear
 221      E7800000 
 222              	.LVL27:
  67:utilities.c   ****   return reading;
 223              		.loc 1 67 3
  68:utilities.c   **** }...
 224              		.loc 1 68 1 is_stmt 0
 225 0046 F240     		lw	ra,28(sp)
 226              		.cfi_remember_state
 227              		.cfi_restore 1
 228 0048 6244     		lw	s0,24(sp)
 229              		.cfi_restore 8
 230              	.LVL28:
 231 004a 4A85     		mv	a0,s2
 232 004c D244     		lw	s1,20(sp)
 233              		.cfi_restore 9
 234              	.LVL29:
 235 004e 4249     		lw	s2,16(sp)
 236              		.cfi_restore 18
 237              	.LVL30:
 238 0050 B249     		lw	s3,12(sp)
 239              		.cfi_restore 19
 240 0052 0561     		addi	sp,sp,32
 241              	.LCFI7:
 242              		.cfi_def_cfa_offset 0
 243 0054 8280     		jr	ra
 244              	.LVL31:
GAS LISTING /var/folders/rt/4gvqv631095f64jvm7jfj_000000gn/T//cc1DjAVj.s 			page 7


 245              	.L9:
 246              	.LCFI8:
 247              		.cfi_restore_state
  58:utilities.c   ****     if (!called)
 248              		.loc 1 58 5 is_stmt 1
  58:utilities.c   ****     if (!called)
 249              		.loc 1 58 8 is_stmt 0
 250 0056 E31509FC 		bne	s2,zero,.L8
  60:utilities.c   ****       LCD_Clear(BLACK);
 251              		.loc 1 60 7 is_stmt 1
 252 005a 97000000 		call	LCD_Clear
 252      E7800000 
 253              	.LVL32:
  61:utilities.c   ****       LCD_ShowStr(50, 4, "reads sensor", GREEN, TRANSPARENT);
 254              		.loc 1 61 7
 255 0062 0547     		li	a4,1
 256 0064 9306007E 		li	a3,2016
 257 0068 13860900 		addi	a2,s3,%lo(.LC1)
 258 006c 9145     		li	a1,4
 259 006e 13052003 		li	a0,50
 260 0072 97000000 		call	LCD_ShowStr
 260      E7800000 
 261              	.LVL33:
  62:utilities.c   ****       called = 1;
 262              		.loc 1 62 7
  62:utilities.c   ****       called = 1;
 263              		.loc 1 62 14 is_stmt 0
 264 007a 0549     		li	s2,1
 265 007c 55B7     		j	.L8
 266              		.cfi_endproc
 267              	.LFE7:
 269              		.section	.rodata.generateTimeStamp.str1.4,"aMS",@progbits,1
 270              		.align	2
 271              	.LC0:
 272 0000 25303264 		.string	"%02d:%02d:%02d"
 272      3A253032 
 272      643A2530 
 272      326400
 273              		.section	.rodata.readSensor.str1.4,"aMS",@progbits,1
 274              		.align	2
 275              	.LC1:
 276 0000 72656164 		.string	"reads sensor"
 276      73207365 
 276      6E736F72 
 276      00
 277              		.text
 278              	.Letext0:
 279              		.file 2 "/Users/alexstrae/toolchain-gd32v-v202-osx/compiler/riscv64-unknown-elf/include/machine/_d
 280              		.file 3 "/Users/alexstrae/toolchain-gd32v-v202-osx/compiler/riscv64-unknown-elf/include/sys/_stdin
 281              		.file 4 "../../firmware/GD32VF103_standard_peripheral/Include/gd32vf103_rcu.h"
 282              		.file 5 "/Users/alexstrae/toolchain-gd32v-v202-osx/compiler/lib/gcc/riscv64-unknown-elf/8.3.0/incl
 283              		.file 6 "/Users/alexstrae/toolchain-gd32v-v202-osx/compiler/riscv64-unknown-elf/include/sys/_types
 284              		.file 7 "/Users/alexstrae/toolchain-gd32v-v202-osx/compiler/riscv64-unknown-elf/include/sys/reent.
 285              		.file 8 "/Users/alexstrae/toolchain-gd32v-v202-osx/compiler/riscv64-unknown-elf/include/sys/lock.h
 286              		.file 9 "../../firmware/GD32VF103_standard_peripheral/system_gd32vf103.h"
 287              		.file 10 "/Users/alexstrae/toolchain-gd32v-v202-osx/compiler/riscv64-unknown-elf/include/stdlib.h"
 288              		.file 11 "lcd.h"
GAS LISTING /var/folders/rt/4gvqv631095f64jvm7jfj_000000gn/T//cc1DjAVj.s 			page 8


 289              		.file 12 "../../firmware/GD32VF103_standard_peripheral/Include/gd32vf103_adc.h"
 290              		.file 13 "../../firmware/GD32VF103_standard_peripheral/Include/gd32vf103_rtc.h"
 291              		.file 14 "/Users/alexstrae/toolchain-gd32v-v202-osx/compiler/riscv64-unknown-elf/include/stdio.h"
 292              		.file 15 "../../firmware/GD32VF103_standard_peripheral/Include/gd32vf103_pmu.h"
 293              		.file 16 "../../firmware/GD32VF103_standard_peripheral/Include/gd32vf103_bkp.h"
GAS LISTING /var/folders/rt/4gvqv631095f64jvm7jfj_000000gn/T//cc1DjAVj.s 			page 9


DEFINED SYMBOLS
                            *ABS*:0000000000000000 utilities.c
/var/folders/rt/4gvqv631095f64jvm7jfj_000000gn/T//cc1DjAVj.s:13     .text.rtcInit:0000000000000000 rtcInit
/var/folders/rt/4gvqv631095f64jvm7jfj_000000gn/T//cc1DjAVj.s:17     .text.rtcInit:0000000000000000 .L0 
/var/folders/rt/4gvqv631095f64jvm7jfj_000000gn/T//cc1DjAVj.s:18     .text.rtcInit:0000000000000000 .L0 
/var/folders/rt/4gvqv631095f64jvm7jfj_000000gn/T//cc1DjAVj.s:19     .text.rtcInit:0000000000000000 .L0 
/var/folders/rt/4gvqv631095f64jvm7jfj_000000gn/T//cc1DjAVj.s:20     .text.rtcInit:0000000000000000 .L0 
/var/folders/rt/4gvqv631095f64jvm7jfj_000000gn/T//cc1DjAVj.s:22     .text.rtcInit:0000000000000002 .L0 
/var/folders/rt/4gvqv631095f64jvm7jfj_000000gn/T//cc1DjAVj.s:24     .text.rtcInit:0000000000000002 .L0 
/var/folders/rt/4gvqv631095f64jvm7jfj_000000gn/T//cc1DjAVj.s:26     .text.rtcInit:0000000000000006 .L0 
/var/folders/rt/4gvqv631095f64jvm7jfj_000000gn/T//cc1DjAVj.s:27     .text.rtcInit:0000000000000008 .L0 
/var/folders/rt/4gvqv631095f64jvm7jfj_000000gn/T//cc1DjAVj.s:29     .text.rtcInit:0000000000000008 .L0 
/var/folders/rt/4gvqv631095f64jvm7jfj_000000gn/T//cc1DjAVj.s:32     .text.rtcInit:0000000000000010 .L0 
/var/folders/rt/4gvqv631095f64jvm7jfj_000000gn/T//cc1DjAVj.s:35     .text.rtcInit:0000000000000018 .L0 
/var/folders/rt/4gvqv631095f64jvm7jfj_000000gn/T//cc1DjAVj.s:39     .text.rtcInit:0000000000000024 .L0 
/var/folders/rt/4gvqv631095f64jvm7jfj_000000gn/T//cc1DjAVj.s:42     .text.rtcInit:000000000000002c .L0 
/var/folders/rt/4gvqv631095f64jvm7jfj_000000gn/T//cc1DjAVj.s:46     .text.rtcInit:0000000000000036 .L0 
/var/folders/rt/4gvqv631095f64jvm7jfj_000000gn/T//cc1DjAVj.s:47     .text.rtcInit:0000000000000036 .L0 
/var/folders/rt/4gvqv631095f64jvm7jfj_000000gn/T//cc1DjAVj.s:51     .text.rtcInit:0000000000000040 .L0 
/var/folders/rt/4gvqv631095f64jvm7jfj_000000gn/T//cc1DjAVj.s:53     .text.rtcInit:0000000000000042 .L0 
/var/folders/rt/4gvqv631095f64jvm7jfj_000000gn/T//cc1DjAVj.s:57     .text.rtcInit:000000000000004e .L0 
/var/folders/rt/4gvqv631095f64jvm7jfj_000000gn/T//cc1DjAVj.s:62     .text.rtcInit:000000000000005c .L0 
/var/folders/rt/4gvqv631095f64jvm7jfj_000000gn/T//cc1DjAVj.s:65     .text.rtcInit:0000000000000064 .L0 
/var/folders/rt/4gvqv631095f64jvm7jfj_000000gn/T//cc1DjAVj.s:68     .text.rtcInit:000000000000006c .L0 
/var/folders/rt/4gvqv631095f64jvm7jfj_000000gn/T//cc1DjAVj.s:73     .text.rtcInit:000000000000007a .L0 
/var/folders/rt/4gvqv631095f64jvm7jfj_000000gn/T//cc1DjAVj.s:76     .text.rtcInit:0000000000000082 .L0 
/var/folders/rt/4gvqv631095f64jvm7jfj_000000gn/T//cc1DjAVj.s:80     .text.rtcInit:000000000000008c .L0 
/var/folders/rt/4gvqv631095f64jvm7jfj_000000gn/T//cc1DjAVj.s:81     .text.rtcInit:000000000000008c .L0 
/var/folders/rt/4gvqv631095f64jvm7jfj_000000gn/T//cc1DjAVj.s:82     .text.rtcInit:000000000000008e .L0 
/var/folders/rt/4gvqv631095f64jvm7jfj_000000gn/T//cc1DjAVj.s:83     .text.rtcInit:000000000000008e .L0 
/var/folders/rt/4gvqv631095f64jvm7jfj_000000gn/T//cc1DjAVj.s:86     .text.rtcInit:0000000000000090 .L0 
/var/folders/rt/4gvqv631095f64jvm7jfj_000000gn/T//cc1DjAVj.s:88     .text.rtcInit:0000000000000090 .L0 
/var/folders/rt/4gvqv631095f64jvm7jfj_000000gn/T//cc1DjAVj.s:92     .text.rtcInit:0000000000000098 .L0 
/var/folders/rt/4gvqv631095f64jvm7jfj_000000gn/T//cc1DjAVj.s:94     .text.rtcInit:0000000000000098 .L0 
/var/folders/rt/4gvqv631095f64jvm7jfj_000000gn/T//cc1DjAVj.s:95     .text.rtcInit:000000000000009a .L0 
/var/folders/rt/4gvqv631095f64jvm7jfj_000000gn/T//cc1DjAVj.s:98     .text.rtcInit:000000000000009c .L0 
/var/folders/rt/4gvqv631095f64jvm7jfj_000000gn/T//cc1DjAVj.s:100    .text.rtcInit:000000000000009e .L0 
/var/folders/rt/4gvqv631095f64jvm7jfj_000000gn/T//cc1DjAVj.s:107    .text.generateTimeStamp:0000000000000000 generateTimeStamp
/var/folders/rt/4gvqv631095f64jvm7jfj_000000gn/T//cc1DjAVj.s:110    .text.generateTimeStamp:0000000000000000 .L0 
/var/folders/rt/4gvqv631095f64jvm7jfj_000000gn/T//cc1DjAVj.s:112    .text.generateTimeStamp:0000000000000000 .L0 
/var/folders/rt/4gvqv631095f64jvm7jfj_000000gn/T//cc1DjAVj.s:113    .text.generateTimeStamp:0000000000000000 .L0 
/var/folders/rt/4gvqv631095f64jvm7jfj_000000gn/T//cc1DjAVj.s:114    .text.generateTimeStamp:0000000000000000 .L0 
/var/folders/rt/4gvqv631095f64jvm7jfj_000000gn/T//cc1DjAVj.s:116    .text.generateTimeStamp:0000000000000002 .L0 
/var/folders/rt/4gvqv631095f64jvm7jfj_000000gn/T//cc1DjAVj.s:119    .text.generateTimeStamp:0000000000000006 .L0 
/var/folders/rt/4gvqv631095f64jvm7jfj_000000gn/T//cc1DjAVj.s:120    .text.generateTimeStamp:0000000000000006 .L0 
/var/folders/rt/4gvqv631095f64jvm7jfj_000000gn/T//cc1DjAVj.s:122    .text.generateTimeStamp:0000000000000006 .L0 
/var/folders/rt/4gvqv631095f64jvm7jfj_000000gn/T//cc1DjAVj.s:124    .text.generateTimeStamp:0000000000000008 .L0 
/var/folders/rt/4gvqv631095f64jvm7jfj_000000gn/T//cc1DjAVj.s:127    .text.generateTimeStamp:0000000000000010 .L0 
/var/folders/rt/4gvqv631095f64jvm7jfj_000000gn/T//cc1DjAVj.s:128    .text.generateTimeStamp:0000000000000010 .L0 
/var/folders/rt/4gvqv631095f64jvm7jfj_000000gn/T//cc1DjAVj.s:129    .text.generateTimeStamp:0000000000000010 .L0 
/var/folders/rt/4gvqv631095f64jvm7jfj_000000gn/T//cc1DjAVj.s:130    .text.generateTimeStamp:0000000000000010 .L0 
/var/folders/rt/4gvqv631095f64jvm7jfj_000000gn/T//cc1DjAVj.s:131    .text.generateTimeStamp:0000000000000010 .L0 
/var/folders/rt/4gvqv631095f64jvm7jfj_000000gn/T//cc1DjAVj.s:135    .text.generateTimeStamp:000000000000001a .L0 
/var/folders/rt/4gvqv631095f64jvm7jfj_000000gn/T//cc1DjAVj.s:137    .text.generateTimeStamp:000000000000001e .L0 
/var/folders/rt/4gvqv631095f64jvm7jfj_000000gn/T//cc1DjAVj.s:138    .text.generateTimeStamp:0000000000000020 .L0 
/var/folders/rt/4gvqv631095f64jvm7jfj_000000gn/T//cc1DjAVj.s:140    .text.generateTimeStamp:0000000000000020 .L0 
/var/folders/rt/4gvqv631095f64jvm7jfj_000000gn/T//cc1DjAVj.s:147    .text.generateTimeStamp:000000000000002c .L0 
GAS LISTING /var/folders/rt/4gvqv631095f64jvm7jfj_000000gn/T//cc1DjAVj.s 			page 10


/var/folders/rt/4gvqv631095f64jvm7jfj_000000gn/T//cc1DjAVj.s:148    .text.generateTimeStamp:000000000000002e .L0 
/var/folders/rt/4gvqv631095f64jvm7jfj_000000gn/T//cc1DjAVj.s:152    .text.generateTimeStamp:0000000000000030 .L0 
/var/folders/rt/4gvqv631095f64jvm7jfj_000000gn/T//cc1DjAVj.s:154    .text.generateTimeStamp:0000000000000030 .L0 
/var/folders/rt/4gvqv631095f64jvm7jfj_000000gn/T//cc1DjAVj.s:159    .text.generateTimeStamp:0000000000000044 .L0 
/var/folders/rt/4gvqv631095f64jvm7jfj_000000gn/T//cc1DjAVj.s:166    .text.readSensor:0000000000000000 readSensor
/var/folders/rt/4gvqv631095f64jvm7jfj_000000gn/T//cc1DjAVj.s:169    .text.readSensor:0000000000000000 .L0 
/var/folders/rt/4gvqv631095f64jvm7jfj_000000gn/T//cc1DjAVj.s:171    .text.readSensor:0000000000000000 .L0 
/var/folders/rt/4gvqv631095f64jvm7jfj_000000gn/T//cc1DjAVj.s:172    .text.readSensor:0000000000000000 .L0 
/var/folders/rt/4gvqv631095f64jvm7jfj_000000gn/T//cc1DjAVj.s:173    .text.readSensor:0000000000000000 .L0 
/var/folders/rt/4gvqv631095f64jvm7jfj_000000gn/T//cc1DjAVj.s:175    .text.readSensor:0000000000000002 .L0 
/var/folders/rt/4gvqv631095f64jvm7jfj_000000gn/T//cc1DjAVj.s:177    .text.readSensor:0000000000000004 .L0 
/var/folders/rt/4gvqv631095f64jvm7jfj_000000gn/T//cc1DjAVj.s:180    .text.readSensor:0000000000000006 .L0 
/var/folders/rt/4gvqv631095f64jvm7jfj_000000gn/T//cc1DjAVj.s:183    .text.readSensor:0000000000000008 .L0 
/var/folders/rt/4gvqv631095f64jvm7jfj_000000gn/T//cc1DjAVj.s:187    .text.readSensor:0000000000000010 .L0 
/var/folders/rt/4gvqv631095f64jvm7jfj_000000gn/T//cc1DjAVj.s:188    .text.readSensor:0000000000000010 .L0 
/var/folders/rt/4gvqv631095f64jvm7jfj_000000gn/T//cc1DjAVj.s:189    .text.readSensor:0000000000000010 .L0 
/var/folders/rt/4gvqv631095f64jvm7jfj_000000gn/T//cc1DjAVj.s:190    .text.readSensor:0000000000000010 .L0 
/var/folders/rt/4gvqv631095f64jvm7jfj_000000gn/T//cc1DjAVj.s:192    .text.readSensor:0000000000000010 .L0 
/var/folders/rt/4gvqv631095f64jvm7jfj_000000gn/T//cc1DjAVj.s:194    .text.readSensor:0000000000000012 .L0 
/var/folders/rt/4gvqv631095f64jvm7jfj_000000gn/T//cc1DjAVj.s:196    .text.readSensor:0000000000000014 .L0 
/var/folders/rt/4gvqv631095f64jvm7jfj_000000gn/T//cc1DjAVj.s:199    .text.readSensor:000000000000001c .L0 
/var/folders/rt/4gvqv631095f64jvm7jfj_000000gn/T//cc1DjAVj.s:200    .text.readSensor:000000000000001c .L0 
/var/folders/rt/4gvqv631095f64jvm7jfj_000000gn/T//cc1DjAVj.s:201    .text.readSensor:000000000000001c .L0 
/var/folders/rt/4gvqv631095f64jvm7jfj_000000gn/T//cc1DjAVj.s:205    .text.readSensor:0000000000000020 .L0 
/var/folders/rt/4gvqv631095f64jvm7jfj_000000gn/T//cc1DjAVj.s:210    .text.readSensor:000000000000002c .L0 
/var/folders/rt/4gvqv631095f64jvm7jfj_000000gn/T//cc1DjAVj.s:212    .text.readSensor:000000000000002e .L0 
/var/folders/rt/4gvqv631095f64jvm7jfj_000000gn/T//cc1DjAVj.s:213    .text.readSensor:000000000000002e .L0 
/var/folders/rt/4gvqv631095f64jvm7jfj_000000gn/T//cc1DjAVj.s:219    .text.readSensor:000000000000003a .L0 
/var/folders/rt/4gvqv631095f64jvm7jfj_000000gn/T//cc1DjAVj.s:224    .text.readSensor:0000000000000046 .L0 
/var/folders/rt/4gvqv631095f64jvm7jfj_000000gn/T//cc1DjAVj.s:225    .text.readSensor:0000000000000046 .L0 
/var/folders/rt/4gvqv631095f64jvm7jfj_000000gn/T//cc1DjAVj.s:226    .text.readSensor:0000000000000048 .L0 
/var/folders/rt/4gvqv631095f64jvm7jfj_000000gn/T//cc1DjAVj.s:227    .text.readSensor:0000000000000048 .L0 
/var/folders/rt/4gvqv631095f64jvm7jfj_000000gn/T//cc1DjAVj.s:229    .text.readSensor:000000000000004a .L0 
/var/folders/rt/4gvqv631095f64jvm7jfj_000000gn/T//cc1DjAVj.s:233    .text.readSensor:000000000000004e .L0 
/var/folders/rt/4gvqv631095f64jvm7jfj_000000gn/T//cc1DjAVj.s:236    .text.readSensor:0000000000000050 .L0 
/var/folders/rt/4gvqv631095f64jvm7jfj_000000gn/T//cc1DjAVj.s:239    .text.readSensor:0000000000000052 .L0 
/var/folders/rt/4gvqv631095f64jvm7jfj_000000gn/T//cc1DjAVj.s:242    .text.readSensor:0000000000000054 .L0 
/var/folders/rt/4gvqv631095f64jvm7jfj_000000gn/T//cc1DjAVj.s:247    .text.readSensor:0000000000000056 .L0 
/var/folders/rt/4gvqv631095f64jvm7jfj_000000gn/T//cc1DjAVj.s:249    .text.readSensor:0000000000000056 .L0 
/var/folders/rt/4gvqv631095f64jvm7jfj_000000gn/T//cc1DjAVj.s:250    .text.readSensor:0000000000000056 .L0 
/var/folders/rt/4gvqv631095f64jvm7jfj_000000gn/T//cc1DjAVj.s:252    .text.readSensor:000000000000005a .L0 
/var/folders/rt/4gvqv631095f64jvm7jfj_000000gn/T//cc1DjAVj.s:255    .text.readSensor:0000000000000062 .L0 
/var/folders/rt/4gvqv631095f64jvm7jfj_000000gn/T//cc1DjAVj.s:263    .text.readSensor:000000000000007a .L0 
/var/folders/rt/4gvqv631095f64jvm7jfj_000000gn/T//cc1DjAVj.s:264    .text.readSensor:000000000000007a .L0 
/var/folders/rt/4gvqv631095f64jvm7jfj_000000gn/T//cc1DjAVj.s:266    .text.readSensor:000000000000007e .L0 
/var/folders/rt/4gvqv631095f64jvm7jfj_000000gn/T//cc1DjAVj.s:103    .text.rtcInit:000000000000009e .L0 
/var/folders/rt/4gvqv631095f64jvm7jfj_000000gn/T//cc1DjAVj.s:162    .text.generateTimeStamp:0000000000000044 .L0 
/var/folders/rt/4gvqv631095f64jvm7jfj_000000gn/T//cc1DjAVj.s:269    .text.readSensor:000000000000007e .L0 
                     .debug_frame:0000000000000000 .L0 
/var/folders/rt/4gvqv631095f64jvm7jfj_000000gn/T//cc1DjAVj.s:90     .text.rtcInit:0000000000000098 .L1
/var/folders/rt/4gvqv631095f64jvm7jfj_000000gn/T//cc1DjAVj.s:271    .rodata.generateTimeStamp.str1.4:0000000000000000 .LC0
/var/folders/rt/4gvqv631095f64jvm7jfj_000000gn/T//cc1DjAVj.s:275    .rodata.readSensor.str1.4:0000000000000000 .LC1
/var/folders/rt/4gvqv631095f64jvm7jfj_000000gn/T//cc1DjAVj.s:245    .text.readSensor:0000000000000056 .L9
/var/folders/rt/4gvqv631095f64jvm7jfj_000000gn/T//cc1DjAVj.s:203    .text.readSensor:0000000000000020 .L8
/var/folders/rt/4gvqv631095f64jvm7jfj_000000gn/T//cc1DjAVj.s:2360   .debug_abbrev:0000000000000000 .Ldebug_abbrev0
/var/folders/rt/4gvqv631095f64jvm7jfj_000000gn/T//cc1DjAVj.s:3635   .debug_str:00000000000006a1 .LASF197
/var/folders/rt/4gvqv631095f64jvm7jfj_000000gn/T//cc1DjAVj.s:3469   .debug_str:0000000000000368 .LASF198
GAS LISTING /var/folders/rt/4gvqv631095f64jvm7jfj_000000gn/T//cc1DjAVj.s 			page 11


/var/folders/rt/4gvqv631095f64jvm7jfj_000000gn/T//cc1DjAVj.s:3639   .debug_str:0000000000000732 .LASF199
/var/folders/rt/4gvqv631095f64jvm7jfj_000000gn/T//cc1DjAVj.s:3289   .debug_ranges:0000000000000000 .Ldebug_ranges0
/var/folders/rt/4gvqv631095f64jvm7jfj_000000gn/T//cc1DjAVj.s:3299   .debug_line:0000000000000000 .Ldebug_line0
/var/folders/rt/4gvqv631095f64jvm7jfj_000000gn/T//cc1DjAVj.s:3613   .debug_str:0000000000000633 .LASF0
/var/folders/rt/4gvqv631095f64jvm7jfj_000000gn/T//cc1DjAVj.s:3363   .debug_str:000000000000014d .LASF1
/var/folders/rt/4gvqv631095f64jvm7jfj_000000gn/T//cc1DjAVj.s:3319   .debug_str:0000000000000052 .LASF6
/var/folders/rt/4gvqv631095f64jvm7jfj_000000gn/T//cc1DjAVj.s:3545   .debug_str:0000000000000500 .LASF2
/var/folders/rt/4gvqv631095f64jvm7jfj_000000gn/T//cc1DjAVj.s:3619   .debug_str:0000000000000654 .LASF3
/var/folders/rt/4gvqv631095f64jvm7jfj_000000gn/T//cc1DjAVj.s:3641   .debug_str:0000000000000775 .LASF4
/var/folders/rt/4gvqv631095f64jvm7jfj_000000gn/T//cc1DjAVj.s:3327   .debug_str:0000000000000079 .LASF5
/var/folders/rt/4gvqv631095f64jvm7jfj_000000gn/T//cc1DjAVj.s:3415   .debug_str:0000000000000244 .LASF7
/var/folders/rt/4gvqv631095f64jvm7jfj_000000gn/T//cc1DjAVj.s:3443   .debug_str:00000000000002d5 .LASF8
/var/folders/rt/4gvqv631095f64jvm7jfj_000000gn/T//cc1DjAVj.s:3399   .debug_str:00000000000001ec .LASF9
/var/folders/rt/4gvqv631095f64jvm7jfj_000000gn/T//cc1DjAVj.s:3335   .debug_str:00000000000000ad .LASF10
/var/folders/rt/4gvqv631095f64jvm7jfj_000000gn/T//cc1DjAVj.s:3625   .debug_str:0000000000000670 .LASF11
/var/folders/rt/4gvqv631095f64jvm7jfj_000000gn/T//cc1DjAVj.s:3657   .debug_str:00000000000007d8 .LASF12
/var/folders/rt/4gvqv631095f64jvm7jfj_000000gn/T//cc1DjAVj.s:3433   .debug_str:0000000000000292 .LASF166
/var/folders/rt/4gvqv631095f64jvm7jfj_000000gn/T//cc1DjAVj.s:3309   .debug_str:0000000000000027 .LASF13
/var/folders/rt/4gvqv631095f64jvm7jfj_000000gn/T//cc1DjAVj.s:3365   .debug_str:0000000000000159 .LASF14
/var/folders/rt/4gvqv631095f64jvm7jfj_000000gn/T//cc1DjAVj.s:3359   .debug_str:000000000000013e .LASF15
/var/folders/rt/4gvqv631095f64jvm7jfj_000000gn/T//cc1DjAVj.s:3617   .debug_str:000000000000064b .LASF16
/var/folders/rt/4gvqv631095f64jvm7jfj_000000gn/T//cc1DjAVj.s:3397   .debug_str:00000000000001e2 .LASF17
/var/folders/rt/4gvqv631095f64jvm7jfj_000000gn/T//cc1DjAVj.s:3533   .debug_str:00000000000004be .LASF18
/var/folders/rt/4gvqv631095f64jvm7jfj_000000gn/T//cc1DjAVj.s:3535   .debug_str:00000000000004c9 .LASF19
/var/folders/rt/4gvqv631095f64jvm7jfj_000000gn/T//cc1DjAVj.s:3537   .debug_str:00000000000004d4 .LASF20
/var/folders/rt/4gvqv631095f64jvm7jfj_000000gn/T//cc1DjAVj.s:3539   .debug_str:00000000000004df .LASF21
/var/folders/rt/4gvqv631095f64jvm7jfj_000000gn/T//cc1DjAVj.s:3541   .debug_str:00000000000004ea .LASF22
/var/folders/rt/4gvqv631095f64jvm7jfj_000000gn/T//cc1DjAVj.s:3543   .debug_str:00000000000004f5 .LASF23
/var/folders/rt/4gvqv631095f64jvm7jfj_000000gn/T//cc1DjAVj.s:3633   .debug_str:0000000000000697 .LASF24
/var/folders/rt/4gvqv631095f64jvm7jfj_000000gn/T//cc1DjAVj.s:3305   .debug_str:0000000000000015 .LASF25
/var/folders/rt/4gvqv631095f64jvm7jfj_000000gn/T//cc1DjAVj.s:3307   .debug_str:000000000000001e .LASF26
/var/folders/rt/4gvqv631095f64jvm7jfj_000000gn/T//cc1DjAVj.s:3511   .debug_str:0000000000000441 .LASF27
/var/folders/rt/4gvqv631095f64jvm7jfj_000000gn/T//cc1DjAVj.s:3513   .debug_str:000000000000044c .LASF28
/var/folders/rt/4gvqv631095f64jvm7jfj_000000gn/T//cc1DjAVj.s:3337   .debug_str:00000000000000c4 .LASF29
/var/folders/rt/4gvqv631095f64jvm7jfj_000000gn/T//cc1DjAVj.s:3339   .debug_str:00000000000000ce .LASF30
/var/folders/rt/4gvqv631095f64jvm7jfj_000000gn/T//cc1DjAVj.s:3677   .debug_str:0000000000000841 .LASF31
/var/folders/rt/4gvqv631095f64jvm7jfj_000000gn/T//cc1DjAVj.s:3595   .debug_str:00000000000005e8 .LASF32
/var/folders/rt/4gvqv631095f64jvm7jfj_000000gn/T//cc1DjAVj.s:3409   .debug_str:000000000000022c .LASF33
/var/folders/rt/4gvqv631095f64jvm7jfj_000000gn/T//cc1DjAVj.s:3357   .debug_str:0000000000000135 .LASF34
/var/folders/rt/4gvqv631095f64jvm7jfj_000000gn/T//cc1DjAVj.s:3601   .debug_str:0000000000000603 .LASF35
/var/folders/rt/4gvqv631095f64jvm7jfj_000000gn/T//cc1DjAVj.s:3651   .debug_str:00000000000007b4 .LASF36
/var/folders/rt/4gvqv631095f64jvm7jfj_000000gn/T//cc1DjAVj.s:3463   .debug_str:0000000000000347 .LASF37
/var/folders/rt/4gvqv631095f64jvm7jfj_000000gn/T//cc1DjAVj.s:3453   .debug_str:0000000000000315 .LASF38
/var/folders/rt/4gvqv631095f64jvm7jfj_000000gn/T//cc1DjAVj.s:3317   .debug_str:000000000000004b .LASF39
/var/folders/rt/4gvqv631095f64jvm7jfj_000000gn/T//cc1DjAVj.s:3343   .debug_str:00000000000000e0 .LASF40
/var/folders/rt/4gvqv631095f64jvm7jfj_000000gn/T//cc1DjAVj.s:3435   .debug_str:00000000000002a2 .LASF41
/var/folders/rt/4gvqv631095f64jvm7jfj_000000gn/T//cc1DjAVj.s:3437   .debug_str:00000000000002ac .LASF42
/var/folders/rt/4gvqv631095f64jvm7jfj_000000gn/T//cc1DjAVj.s:3347   .debug_str:00000000000000f5 .LASF43
/var/folders/rt/4gvqv631095f64jvm7jfj_000000gn/T//cc1DjAVj.s:3665   .debug_str:00000000000007f9 .LASF44
/var/folders/rt/4gvqv631095f64jvm7jfj_000000gn/T//cc1DjAVj.s:3449   .debug_str:0000000000000303 .LASF45
/var/folders/rt/4gvqv631095f64jvm7jfj_000000gn/T//cc1DjAVj.s:3451   .debug_str:000000000000030c .LASF46
/var/folders/rt/4gvqv631095f64jvm7jfj_000000gn/T//cc1DjAVj.s:3531   .debug_str:00000000000004b3 .LASF47
/var/folders/rt/4gvqv631095f64jvm7jfj_000000gn/T//cc1DjAVj.s:3303   .debug_str:000000000000000c .LASF48
/var/folders/rt/4gvqv631095f64jvm7jfj_000000gn/T//cc1DjAVj.s:3509   .debug_str:0000000000000436 .LASF49
/var/folders/rt/4gvqv631095f64jvm7jfj_000000gn/T//cc1DjAVj.s:3411   .debug_str:0000000000000235 .LASF50
/var/folders/rt/4gvqv631095f64jvm7jfj_000000gn/T//cc1DjAVj.s:3621   .debug_str:000000000000065e .LASF51
/var/folders/rt/4gvqv631095f64jvm7jfj_000000gn/T//cc1DjAVj.s:3487   .debug_str:00000000000003d0 .LASF52
GAS LISTING /var/folders/rt/4gvqv631095f64jvm7jfj_000000gn/T//cc1DjAVj.s 			page 12


/var/folders/rt/4gvqv631095f64jvm7jfj_000000gn/T//cc1DjAVj.s:3615   .debug_str:0000000000000640 .LASF53
/var/folders/rt/4gvqv631095f64jvm7jfj_000000gn/T//cc1DjAVj.s:3383   .debug_str:00000000000001a5 .LASF54
/var/folders/rt/4gvqv631095f64jvm7jfj_000000gn/T//cc1DjAVj.s:3695   .debug_str:00000000000008a4 .LASF55
/var/folders/rt/4gvqv631095f64jvm7jfj_000000gn/T//cc1DjAVj.s:3649   .debug_str:00000000000007a8 .LASF56
/var/folders/rt/4gvqv631095f64jvm7jfj_000000gn/T//cc1DjAVj.s:3603   .debug_str:000000000000060c .LASF57
/var/folders/rt/4gvqv631095f64jvm7jfj_000000gn/T//cc1DjAVj.s:3525   .debug_str:000000000000048a .LASF58
/var/folders/rt/4gvqv631095f64jvm7jfj_000000gn/T//cc1DjAVj.s:3325   .debug_str:0000000000000072 .LASF59
/var/folders/rt/4gvqv631095f64jvm7jfj_000000gn/T//cc1DjAVj.s:3599   .debug_str:00000000000005fb .LASF60
/var/folders/rt/4gvqv631095f64jvm7jfj_000000gn/T//cc1DjAVj.s:3667   .debug_str:0000000000000803 .LASF61
/var/folders/rt/4gvqv631095f64jvm7jfj_000000gn/T//cc1DjAVj.s:3477   .debug_str:0000000000000390 .LASF62
/var/folders/rt/4gvqv631095f64jvm7jfj_000000gn/T//cc1DjAVj.s:3431   .debug_str:000000000000028b .LASF63
/var/folders/rt/4gvqv631095f64jvm7jfj_000000gn/T//cc1DjAVj.s:3589   .debug_str:00000000000005d2 .LASF64
/var/folders/rt/4gvqv631095f64jvm7jfj_000000gn/T//cc1DjAVj.s:3591   .debug_str:00000000000005da .LASF65
/var/folders/rt/4gvqv631095f64jvm7jfj_000000gn/T//cc1DjAVj.s:3561   .debug_str:0000000000000546 .LASF66
/var/folders/rt/4gvqv631095f64jvm7jfj_000000gn/T//cc1DjAVj.s:3647   .debug_str:00000000000007a0 .LASF67
/var/folders/rt/4gvqv631095f64jvm7jfj_000000gn/T//cc1DjAVj.s:3459   .debug_str:000000000000032a .LASF68
/var/folders/rt/4gvqv631095f64jvm7jfj_000000gn/T//cc1DjAVj.s:3551   .debug_str:000000000000051d .LASF69
/var/folders/rt/4gvqv631095f64jvm7jfj_000000gn/T//cc1DjAVj.s:3425   .debug_str:0000000000000278 .LASF74
/var/folders/rt/4gvqv631095f64jvm7jfj_000000gn/T//cc1DjAVj.s:3629   .debug_str:0000000000000684 .LASF70
/var/folders/rt/4gvqv631095f64jvm7jfj_000000gn/T//cc1DjAVj.s:3583   .debug_str:00000000000005bd .LASF71
/var/folders/rt/4gvqv631095f64jvm7jfj_000000gn/T//cc1DjAVj.s:3417   .debug_str:000000000000024f .LASF72
/var/folders/rt/4gvqv631095f64jvm7jfj_000000gn/T//cc1DjAVj.s:3661   .debug_str:00000000000007ee .LASF73
/var/folders/rt/4gvqv631095f64jvm7jfj_000000gn/T//cc1DjAVj.s:3429   .debug_str:0000000000000286 .LASF75
/var/folders/rt/4gvqv631095f64jvm7jfj_000000gn/T//cc1DjAVj.s:3355   .debug_str:000000000000012c .LASF76
/var/folders/rt/4gvqv631095f64jvm7jfj_000000gn/T//cc1DjAVj.s:3691   .debug_str:000000000000088c .LASF77
/var/folders/rt/4gvqv631095f64jvm7jfj_000000gn/T//cc1DjAVj.s:3371   .debug_str:000000000000016e .LASF78
/var/folders/rt/4gvqv631095f64jvm7jfj_000000gn/T//cc1DjAVj.s:3703   .debug_str:00000000000008cc .LASF79
/var/folders/rt/4gvqv631095f64jvm7jfj_000000gn/T//cc1DjAVj.s:3501   .debug_str:0000000000000409 .LASF80
/var/folders/rt/4gvqv631095f64jvm7jfj_000000gn/T//cc1DjAVj.s:3493   .debug_str:00000000000003e7 .LASF81
/var/folders/rt/4gvqv631095f64jvm7jfj_000000gn/T//cc1DjAVj.s:3597   .debug_str:00000000000005f1 .LASF82
/var/folders/rt/4gvqv631095f64jvm7jfj_000000gn/T//cc1DjAVj.s:3553   .debug_str:0000000000000526 .LASF83
/var/folders/rt/4gvqv631095f64jvm7jfj_000000gn/T//cc1DjAVj.s:3685   .debug_str:0000000000000863 .LASF84
/var/folders/rt/4gvqv631095f64jvm7jfj_000000gn/T//cc1DjAVj.s:3375   .debug_str:000000000000017d .LASF85
/var/folders/rt/4gvqv631095f64jvm7jfj_000000gn/T//cc1DjAVj.s:3311   .debug_str:0000000000000030 .LASF86
/var/folders/rt/4gvqv631095f64jvm7jfj_000000gn/T//cc1DjAVj.s:3301   .debug_str:0000000000000000 .LASF87
/var/folders/rt/4gvqv631095f64jvm7jfj_000000gn/T//cc1DjAVj.s:3637   .debug_str:0000000000000729 .LASF88
/var/folders/rt/4gvqv631095f64jvm7jfj_000000gn/T//cc1DjAVj.s:3391   .debug_str:00000000000001c9 .LASF89
/var/folders/rt/4gvqv631095f64jvm7jfj_000000gn/T//cc1DjAVj.s:3515   .debug_str:0000000000000457 .LASF90
/var/folders/rt/4gvqv631095f64jvm7jfj_000000gn/T//cc1DjAVj.s:3575   .debug_str:000000000000058d .LASF91
/var/folders/rt/4gvqv631095f64jvm7jfj_000000gn/T//cc1DjAVj.s:3413   .debug_str:000000000000023f .LASF92
/var/folders/rt/4gvqv631095f64jvm7jfj_000000gn/T//cc1DjAVj.s:3555   .debug_str:0000000000000530 .LASF93
/var/folders/rt/4gvqv631095f64jvm7jfj_000000gn/T//cc1DjAVj.s:3369   .debug_str:0000000000000168 .LASF94
/var/folders/rt/4gvqv631095f64jvm7jfj_000000gn/T//cc1DjAVj.s:3611   .debug_str:000000000000062d .LASF95
/var/folders/rt/4gvqv631095f64jvm7jfj_000000gn/T//cc1DjAVj.s:3563   .debug_str:0000000000000551 .LASF96
/var/folders/rt/4gvqv631095f64jvm7jfj_000000gn/T//cc1DjAVj.s:3389   .debug_str:00000000000001c2 .LASF97
/var/folders/rt/4gvqv631095f64jvm7jfj_000000gn/T//cc1DjAVj.s:3445   .debug_str:00000000000002e7 .LASF98
/var/folders/rt/4gvqv631095f64jvm7jfj_000000gn/T//cc1DjAVj.s:3701   .debug_str:00000000000008c3 .LASF99
/var/folders/rt/4gvqv631095f64jvm7jfj_000000gn/T//cc1DjAVj.s:3377   .debug_str:000000000000018b .LASF100
/var/folders/rt/4gvqv631095f64jvm7jfj_000000gn/T//cc1DjAVj.s:3427   .debug_str:0000000000000280 .LASF101
/var/folders/rt/4gvqv631095f64jvm7jfj_000000gn/T//cc1DjAVj.s:3491   .debug_str:00000000000003e0 .LASF102
/var/folders/rt/4gvqv631095f64jvm7jfj_000000gn/T//cc1DjAVj.s:3593   .debug_str:00000000000005e2 .LASF103
/var/folders/rt/4gvqv631095f64jvm7jfj_000000gn/T//cc1DjAVj.s:3361   .debug_str:0000000000000146 .LASF104
/var/folders/rt/4gvqv631095f64jvm7jfj_000000gn/T//cc1DjAVj.s:3367   .debug_str:0000000000000162 .LASF105
/var/folders/rt/4gvqv631095f64jvm7jfj_000000gn/T//cc1DjAVj.s:3679   .debug_str:000000000000084a .LASF106
/var/folders/rt/4gvqv631095f64jvm7jfj_000000gn/T//cc1DjAVj.s:3609   .debug_str:0000000000000624 .LASF107
/var/folders/rt/4gvqv631095f64jvm7jfj_000000gn/T//cc1DjAVj.s:3499   .debug_str:0000000000000401 .LASF108
/var/folders/rt/4gvqv631095f64jvm7jfj_000000gn/T//cc1DjAVj.s:3455   .debug_str:000000000000031d .LASF109
GAS LISTING /var/folders/rt/4gvqv631095f64jvm7jfj_000000gn/T//cc1DjAVj.s 			page 13


/var/folders/rt/4gvqv631095f64jvm7jfj_000000gn/T//cc1DjAVj.s:3483   .debug_str:00000000000003c4 .LASF110
/var/folders/rt/4gvqv631095f64jvm7jfj_000000gn/T//cc1DjAVj.s:3565   .debug_str:0000000000000559 .LASF111
/var/folders/rt/4gvqv631095f64jvm7jfj_000000gn/T//cc1DjAVj.s:3557   .debug_str:0000000000000537 .LASF112
/var/folders/rt/4gvqv631095f64jvm7jfj_000000gn/T//cc1DjAVj.s:3585   .debug_str:00000000000005c5 .LASF113
/var/folders/rt/4gvqv631095f64jvm7jfj_000000gn/T//cc1DjAVj.s:3605   .debug_str:0000000000000618 .LASF114
/var/folders/rt/4gvqv631095f64jvm7jfj_000000gn/T//cc1DjAVj.s:3393   .debug_str:00000000000001d1 .LASF115
/var/folders/rt/4gvqv631095f64jvm7jfj_000000gn/T//cc1DjAVj.s:3623   .debug_str:0000000000000668 .LASF116
/var/folders/rt/4gvqv631095f64jvm7jfj_000000gn/T//cc1DjAVj.s:3423   .debug_str:0000000000000270 .LASF117
/var/folders/rt/4gvqv631095f64jvm7jfj_000000gn/T//cc1DjAVj.s:3573   .debug_str:0000000000000588 .LASF118
/var/folders/rt/4gvqv631095f64jvm7jfj_000000gn/T//cc1DjAVj.s:3315   .debug_str:0000000000000040 .LASF119
/var/folders/rt/4gvqv631095f64jvm7jfj_000000gn/T//cc1DjAVj.s:3581   .debug_str:00000000000005a4 .LASF120
/var/folders/rt/4gvqv631095f64jvm7jfj_000000gn/T//cc1DjAVj.s:3577   .debug_str:0000000000000592 .LASF121
/var/folders/rt/4gvqv631095f64jvm7jfj_000000gn/T//cc1DjAVj.s:3519   .debug_str:0000000000000469 .LASF122
/var/folders/rt/4gvqv631095f64jvm7jfj_000000gn/T//cc1DjAVj.s:3579   .debug_str:000000000000059a .LASF123
/var/folders/rt/4gvqv631095f64jvm7jfj_000000gn/T//cc1DjAVj.s:3475   .debug_str:0000000000000388 .LASF124
/var/folders/rt/4gvqv631095f64jvm7jfj_000000gn/T//cc1DjAVj.s:3395   .debug_str:00000000000001d8 .LASF125
/var/folders/rt/4gvqv631095f64jvm7jfj_000000gn/T//cc1DjAVj.s:3699   .debug_str:00000000000008be .LASF126
/var/folders/rt/4gvqv631095f64jvm7jfj_000000gn/T//cc1DjAVj.s:3529   .debug_str:00000000000004a9 .LASF127
/var/folders/rt/4gvqv631095f64jvm7jfj_000000gn/T//cc1DjAVj.s:3441   .debug_str:00000000000002cd .LASF128
/var/folders/rt/4gvqv631095f64jvm7jfj_000000gn/T//cc1DjAVj.s:3401   .debug_str:00000000000001fa .LASF129
/var/folders/rt/4gvqv631095f64jvm7jfj_000000gn/T//cc1DjAVj.s:3387   .debug_str:00000000000001bd .LASF130
/var/folders/rt/4gvqv631095f64jvm7jfj_000000gn/T//cc1DjAVj.s:3323   .debug_str:0000000000000069 .LASF131
/var/folders/rt/4gvqv631095f64jvm7jfj_000000gn/T//cc1DjAVj.s:3673   .debug_str:0000000000000822 .LASF132
/var/folders/rt/4gvqv631095f64jvm7jfj_000000gn/T//cc1DjAVj.s:3379   .debug_str:0000000000000193 .LASF133
/var/folders/rt/4gvqv631095f64jvm7jfj_000000gn/T//cc1DjAVj.s:3373   .debug_str:0000000000000178 .LASF134
/var/folders/rt/4gvqv631095f64jvm7jfj_000000gn/T//cc1DjAVj.s:3607   .debug_str:000000000000061f .LASF135
/var/folders/rt/4gvqv631095f64jvm7jfj_000000gn/T//cc1DjAVj.s:3559   .debug_str:000000000000053f .LASF136
/var/folders/rt/4gvqv631095f64jvm7jfj_000000gn/T//cc1DjAVj.s:3663   .debug_str:00000000000007f3 .LASF137
/var/folders/rt/4gvqv631095f64jvm7jfj_000000gn/T//cc1DjAVj.s:3457   .debug_str:0000000000000323 .LASF138
/var/folders/rt/4gvqv631095f64jvm7jfj_000000gn/T//cc1DjAVj.s:3547   .debug_str:000000000000050e .LASF139
/var/folders/rt/4gvqv631095f64jvm7jfj_000000gn/T//cc1DjAVj.s:3313   .debug_str:0000000000000038 .LASF140
/var/folders/rt/4gvqv631095f64jvm7jfj_000000gn/T//cc1DjAVj.s:3587   .debug_str:00000000000005cc .LASF141
/var/folders/rt/4gvqv631095f64jvm7jfj_000000gn/T//cc1DjAVj.s:3485   .debug_str:00000000000003ca .LASF142
/var/folders/rt/4gvqv631095f64jvm7jfj_000000gn/T//cc1DjAVj.s:3645   .debug_str:000000000000079b .LASF143
/var/folders/rt/4gvqv631095f64jvm7jfj_000000gn/T//cc1DjAVj.s:3659   .debug_str:00000000000007e1 .LASF144
/var/folders/rt/4gvqv631095f64jvm7jfj_000000gn/T//cc1DjAVj.s:3631   .debug_str:000000000000068a .LASF145
/var/folders/rt/4gvqv631095f64jvm7jfj_000000gn/T//cc1DjAVj.s:3467   .debug_str:000000000000035b .LASF146
/var/folders/rt/4gvqv631095f64jvm7jfj_000000gn/T//cc1DjAVj.s:3687   .debug_str:000000000000086e .LASF147
/var/folders/rt/4gvqv631095f64jvm7jfj_000000gn/T//cc1DjAVj.s:3521   .debug_str:0000000000000474 .LASF148
/var/folders/rt/4gvqv631095f64jvm7jfj_000000gn/T//cc1DjAVj.s:3461   .debug_str:000000000000033c .LASF149
/var/folders/rt/4gvqv631095f64jvm7jfj_000000gn/T//cc1DjAVj.s:3507   .debug_str:0000000000000431 .LASF150
/var/folders/rt/4gvqv631095f64jvm7jfj_000000gn/T//cc1DjAVj.s:3571   .debug_str:000000000000057b .LASF151
/var/folders/rt/4gvqv631095f64jvm7jfj_000000gn/T//cc1DjAVj.s:3697   .debug_str:00000000000008b0 .LASF152
/var/folders/rt/4gvqv631095f64jvm7jfj_000000gn/T//cc1DjAVj.s:3353   .debug_str:000000000000011e .LASF153
/var/folders/rt/4gvqv631095f64jvm7jfj_000000gn/T//cc1DjAVj.s:3669   .debug_str:000000000000080c .LASF154
/var/folders/rt/4gvqv631095f64jvm7jfj_000000gn/T//cc1DjAVj.s:3465   .debug_str:000000000000034f .LASF155
/var/folders/rt/4gvqv631095f64jvm7jfj_000000gn/T//cc1DjAVj.s:3321   .debug_str:000000000000005c .LASF156
/var/folders/rt/4gvqv631095f64jvm7jfj_000000gn/T//cc1DjAVj.s:3407   .debug_str:000000000000021e .LASF157
/var/folders/rt/4gvqv631095f64jvm7jfj_000000gn/T//cc1DjAVj.s:3351   .debug_str:000000000000010f .LASF158
/var/folders/rt/4gvqv631095f64jvm7jfj_000000gn/T//cc1DjAVj.s:3405   .debug_str:000000000000020d .LASF159
/var/folders/rt/4gvqv631095f64jvm7jfj_000000gn/T//cc1DjAVj.s:3329   .debug_str:0000000000000082 .LASF160
/var/folders/rt/4gvqv631095f64jvm7jfj_000000gn/T//cc1DjAVj.s:3331   .debug_str:0000000000000091 .LASF161
/var/folders/rt/4gvqv631095f64jvm7jfj_000000gn/T//cc1DjAVj.s:3549   .debug_str:0000000000000514 .LASF162
/var/folders/rt/4gvqv631095f64jvm7jfj_000000gn/T//cc1DjAVj.s:3505   .debug_str:000000000000042a .LASF163
/var/folders/rt/4gvqv631095f64jvm7jfj_000000gn/T//cc1DjAVj.s:3495   .debug_str:00000000000003f1 .LASF164
/var/folders/rt/4gvqv631095f64jvm7jfj_000000gn/T//cc1DjAVj.s:3681   .debug_str:0000000000000850 .LASF165
/var/folders/rt/4gvqv631095f64jvm7jfj_000000gn/T//cc1DjAVj.s:3345   .debug_str:00000000000000ea .LASF200
GAS LISTING /var/folders/rt/4gvqv631095f64jvm7jfj_000000gn/T//cc1DjAVj.s 			page 14


/var/folders/rt/4gvqv631095f64jvm7jfj_000000gn/T//cc1DjAVj.s:3421   .debug_str:0000000000000264 .LASF167
/var/folders/rt/4gvqv631095f64jvm7jfj_000000gn/T//cc1DjAVj.s:3655   .debug_str:00000000000007c5 .LASF168
/var/folders/rt/4gvqv631095f64jvm7jfj_000000gn/T//cc1DjAVj.s:3517   .debug_str:000000000000045f .LASF169
/var/folders/rt/4gvqv631095f64jvm7jfj_000000gn/T//cc1DjAVj.s:3333   .debug_str:00000000000000a2 .LASF170
/var/folders/rt/4gvqv631095f64jvm7jfj_000000gn/T//cc1DjAVj.s:3683   .debug_str:0000000000000858 .LASF201
/var/folders/rt/4gvqv631095f64jvm7jfj_000000gn/T//cc1DjAVj.s:167    .text.readSensor:0000000000000000 .LFB7
/var/folders/rt/4gvqv631095f64jvm7jfj_000000gn/T//cc1DjAVj.s:267    .text.readSensor:000000000000007e .LFE7
/var/folders/rt/4gvqv631095f64jvm7jfj_000000gn/T//cc1DjAVj.s:3042   .debug_loc:0000000000000000 .LLST7
/var/folders/rt/4gvqv631095f64jvm7jfj_000000gn/T//cc1DjAVj.s:3497   .debug_str:00000000000003fa .LASF171
/var/folders/rt/4gvqv631095f64jvm7jfj_000000gn/T//cc1DjAVj.s:3065   .debug_loc:0000000000000038 .LLST8
/var/folders/rt/4gvqv631095f64jvm7jfj_000000gn/T//cc1DjAVj.s:3087   .debug_loc:000000000000006f .LLST9
/var/folders/rt/4gvqv631095f64jvm7jfj_000000gn/T//cc1DjAVj.s:3523   .debug_str:0000000000000483 .LASF172
/var/folders/rt/4gvqv631095f64jvm7jfj_000000gn/T//cc1DjAVj.s:3109   .debug_loc:00000000000000a6 .LLST10
/var/folders/rt/4gvqv631095f64jvm7jfj_000000gn/T//cc1DjAVj.s:3341   .debug_str:00000000000000d8 .LASF173
/var/folders/rt/4gvqv631095f64jvm7jfj_000000gn/T//cc1DjAVj.s:3130   .debug_loc:00000000000000dc .LLST11
/var/folders/rt/4gvqv631095f64jvm7jfj_000000gn/T//cc1DjAVj.s:197    .text.readSensor:000000000000001c .LVL22
/var/folders/rt/4gvqv631095f64jvm7jfj_000000gn/T//cc1DjAVj.s:208    .text.readSensor:000000000000002c .LVL24
/var/folders/rt/4gvqv631095f64jvm7jfj_000000gn/T//cc1DjAVj.s:215    .text.readSensor:0000000000000038 .LVL25
/var/folders/rt/4gvqv631095f64jvm7jfj_000000gn/T//cc1DjAVj.s:222    .text.readSensor:0000000000000046 .LVL27
/var/folders/rt/4gvqv631095f64jvm7jfj_000000gn/T//cc1DjAVj.s:253    .text.readSensor:0000000000000062 .LVL32
/var/folders/rt/4gvqv631095f64jvm7jfj_000000gn/T//cc1DjAVj.s:261    .text.readSensor:000000000000007a .LVL33
/var/folders/rt/4gvqv631095f64jvm7jfj_000000gn/T//cc1DjAVj.s:3479   .debug_str:0000000000000396 .LASF177
/var/folders/rt/4gvqv631095f64jvm7jfj_000000gn/T//cc1DjAVj.s:108    .text.generateTimeStamp:0000000000000000 .LFB6
/var/folders/rt/4gvqv631095f64jvm7jfj_000000gn/T//cc1DjAVj.s:160    .text.generateTimeStamp:0000000000000044 .LFE6
/var/folders/rt/4gvqv631095f64jvm7jfj_000000gn/T//cc1DjAVj.s:3142   .debug_loc:00000000000000f5 .LLST1
/var/folders/rt/4gvqv631095f64jvm7jfj_000000gn/T//cc1DjAVj.s:3569   .debug_str:0000000000000574 .LASF174
/var/folders/rt/4gvqv631095f64jvm7jfj_000000gn/T//cc1DjAVj.s:3160   .debug_loc:0000000000000121 .LLST2
/var/folders/rt/4gvqv631095f64jvm7jfj_000000gn/T//cc1DjAVj.s:3671   .debug_str:0000000000000816 .LASF175
/var/folders/rt/4gvqv631095f64jvm7jfj_000000gn/T//cc1DjAVj.s:3182   .debug_loc:0000000000000158 .LLST3
/var/folders/rt/4gvqv631095f64jvm7jfj_000000gn/T//cc1DjAVj.s:3489   .debug_str:00000000000003da .LASF176
/var/folders/rt/4gvqv631095f64jvm7jfj_000000gn/T//cc1DjAVj.s:3189   .debug_loc:000000000000016b .LLST4
/var/folders/rt/4gvqv631095f64jvm7jfj_000000gn/T//cc1DjAVj.s:3207   .debug_loc:000000000000018a .LLST5
/var/folders/rt/4gvqv631095f64jvm7jfj_000000gn/T//cc1DjAVj.s:3228   .debug_loc:00000000000001ac .LLST6
/var/folders/rt/4gvqv631095f64jvm7jfj_000000gn/T//cc1DjAVj.s:125    .text.generateTimeStamp:0000000000000010 .LVL15
/var/folders/rt/4gvqv631095f64jvm7jfj_000000gn/T//cc1DjAVj.s:158    .text.generateTimeStamp:0000000000000044 .LVL19
/var/folders/rt/4gvqv631095f64jvm7jfj_000000gn/T//cc1DjAVj.s:3473   .debug_str:0000000000000380 .LASF178
/var/folders/rt/4gvqv631095f64jvm7jfj_000000gn/T//cc1DjAVj.s:14     .text.rtcInit:0000000000000000 .LFB5
/var/folders/rt/4gvqv631095f64jvm7jfj_000000gn/T//cc1DjAVj.s:101    .text.rtcInit:000000000000009e .LFE5
/var/folders/rt/4gvqv631095f64jvm7jfj_000000gn/T//cc1DjAVj.s:3244   .debug_loc:00000000000001cf .LLST0
/var/folders/rt/4gvqv631095f64jvm7jfj_000000gn/T//cc1DjAVj.s:30     .text.rtcInit:0000000000000010 .LVL0
/var/folders/rt/4gvqv631095f64jvm7jfj_000000gn/T//cc1DjAVj.s:33     .text.rtcInit:0000000000000018 .LVL1
/var/folders/rt/4gvqv631095f64jvm7jfj_000000gn/T//cc1DjAVj.s:37     .text.rtcInit:0000000000000024 .LVL2
/var/folders/rt/4gvqv631095f64jvm7jfj_000000gn/T//cc1DjAVj.s:40     .text.rtcInit:000000000000002c .LVL3
/var/folders/rt/4gvqv631095f64jvm7jfj_000000gn/T//cc1DjAVj.s:44     .text.rtcInit:0000000000000036 .LVL4
/var/folders/rt/4gvqv631095f64jvm7jfj_000000gn/T//cc1DjAVj.s:49     .text.rtcInit:0000000000000040 .LVL5
/var/folders/rt/4gvqv631095f64jvm7jfj_000000gn/T//cc1DjAVj.s:55     .text.rtcInit:000000000000004e .LVL6
/var/folders/rt/4gvqv631095f64jvm7jfj_000000gn/T//cc1DjAVj.s:60     .text.rtcInit:000000000000005c .LVL7
/var/folders/rt/4gvqv631095f64jvm7jfj_000000gn/T//cc1DjAVj.s:63     .text.rtcInit:0000000000000064 .LVL8
/var/folders/rt/4gvqv631095f64jvm7jfj_000000gn/T//cc1DjAVj.s:66     .text.rtcInit:000000000000006c .LVL9
/var/folders/rt/4gvqv631095f64jvm7jfj_000000gn/T//cc1DjAVj.s:71     .text.rtcInit:000000000000007a .LVL10
/var/folders/rt/4gvqv631095f64jvm7jfj_000000gn/T//cc1DjAVj.s:74     .text.rtcInit:0000000000000082 .LVL11
/var/folders/rt/4gvqv631095f64jvm7jfj_000000gn/T//cc1DjAVj.s:78     .text.rtcInit:000000000000008c .LVL12
/var/folders/rt/4gvqv631095f64jvm7jfj_000000gn/T//cc1DjAVj.s:89     .text.rtcInit:0000000000000098 .LVL13
/var/folders/rt/4gvqv631095f64jvm7jfj_000000gn/T//cc1DjAVj.s:3481   .debug_str:00000000000003a8 .LASF179
/var/folders/rt/4gvqv631095f64jvm7jfj_000000gn/T//cc1DjAVj.s:3385   .debug_str:00000000000001b0 .LASF180
/var/folders/rt/4gvqv631095f64jvm7jfj_000000gn/T//cc1DjAVj.s:3447   .debug_str:00000000000002ed .LASF181
/var/folders/rt/4gvqv631095f64jvm7jfj_000000gn/T//cc1DjAVj.s:3693   .debug_str:0000000000000895 .LASF182
GAS LISTING /var/folders/rt/4gvqv631095f64jvm7jfj_000000gn/T//cc1DjAVj.s 			page 15


/var/folders/rt/4gvqv631095f64jvm7jfj_000000gn/T//cc1DjAVj.s:3381   .debug_str:000000000000019b .LASF183
/var/folders/rt/4gvqv631095f64jvm7jfj_000000gn/T//cc1DjAVj.s:3627   .debug_str:0000000000000678 .LASF184
/var/folders/rt/4gvqv631095f64jvm7jfj_000000gn/T//cc1DjAVj.s:3349   .debug_str:00000000000000ff .LASF185
/var/folders/rt/4gvqv631095f64jvm7jfj_000000gn/T//cc1DjAVj.s:3653   .debug_str:00000000000007bc .LASF186
/var/folders/rt/4gvqv631095f64jvm7jfj_000000gn/T//cc1DjAVj.s:3503   .debug_str:0000000000000412 .LASF187
/var/folders/rt/4gvqv631095f64jvm7jfj_000000gn/T//cc1DjAVj.s:3527   .debug_str:0000000000000491 .LASF188
/var/folders/rt/4gvqv631095f64jvm7jfj_000000gn/T//cc1DjAVj.s:3403   .debug_str:0000000000000202 .LASF189
/var/folders/rt/4gvqv631095f64jvm7jfj_000000gn/T//cc1DjAVj.s:3471   .debug_str:0000000000000374 .LASF190
/var/folders/rt/4gvqv631095f64jvm7jfj_000000gn/T//cc1DjAVj.s:3643   .debug_str:0000000000000788 .LASF191
/var/folders/rt/4gvqv631095f64jvm7jfj_000000gn/T//cc1DjAVj.s:3675   .debug_str:000000000000082c .LASF192
/var/folders/rt/4gvqv631095f64jvm7jfj_000000gn/T//cc1DjAVj.s:3439   .debug_str:00000000000002b6 .LASF193
/var/folders/rt/4gvqv631095f64jvm7jfj_000000gn/T//cc1DjAVj.s:3689   .debug_str:000000000000087d .LASF194
/var/folders/rt/4gvqv631095f64jvm7jfj_000000gn/T//cc1DjAVj.s:3567   .debug_str:0000000000000562 .LASF195
/var/folders/rt/4gvqv631095f64jvm7jfj_000000gn/T//cc1DjAVj.s:3419   .debug_str:0000000000000255 .LASF196
/var/folders/rt/4gvqv631095f64jvm7jfj_000000gn/T//cc1DjAVj.s:174    .text.readSensor:0000000000000002 .LCFI6
/var/folders/rt/4gvqv631095f64jvm7jfj_000000gn/T//cc1DjAVj.s:241    .text.readSensor:0000000000000054 .LCFI7
/var/folders/rt/4gvqv631095f64jvm7jfj_000000gn/T//cc1DjAVj.s:246    .text.readSensor:0000000000000056 .LCFI8
/var/folders/rt/4gvqv631095f64jvm7jfj_000000gn/T//cc1DjAVj.s:170    .text.readSensor:0000000000000000 .LVL20
/var/folders/rt/4gvqv631095f64jvm7jfj_000000gn/T//cc1DjAVj.s:230    .text.readSensor:000000000000004a .LVL28
/var/folders/rt/4gvqv631095f64jvm7jfj_000000gn/T//cc1DjAVj.s:244    .text.readSensor:0000000000000056 .LVL31
/var/folders/rt/4gvqv631095f64jvm7jfj_000000gn/T//cc1DjAVj.s:181    .text.readSensor:0000000000000008 .LVL21
/var/folders/rt/4gvqv631095f64jvm7jfj_000000gn/T//cc1DjAVj.s:234    .text.readSensor:000000000000004e .LVL29
/var/folders/rt/4gvqv631095f64jvm7jfj_000000gn/T//cc1DjAVj.s:202    .text.readSensor:0000000000000020 .LVL23
/var/folders/rt/4gvqv631095f64jvm7jfj_000000gn/T//cc1DjAVj.s:217    .text.readSensor:000000000000003a .LVL26
/var/folders/rt/4gvqv631095f64jvm7jfj_000000gn/T//cc1DjAVj.s:237    .text.readSensor:0000000000000050 .LVL30
/var/folders/rt/4gvqv631095f64jvm7jfj_000000gn/T//cc1DjAVj.s:115    .text.generateTimeStamp:0000000000000002 .LCFI4
/var/folders/rt/4gvqv631095f64jvm7jfj_000000gn/T//cc1DjAVj.s:151    .text.generateTimeStamp:0000000000000030 .LCFI5
/var/folders/rt/4gvqv631095f64jvm7jfj_000000gn/T//cc1DjAVj.s:111    .text.generateTimeStamp:0000000000000000 .LVL14
/var/folders/rt/4gvqv631095f64jvm7jfj_000000gn/T//cc1DjAVj.s:149    .text.generateTimeStamp:000000000000002e .LVL18
/var/folders/rt/4gvqv631095f64jvm7jfj_000000gn/T//cc1DjAVj.s:145    .text.generateTimeStamp:000000000000002c .LVL17
/var/folders/rt/4gvqv631095f64jvm7jfj_000000gn/T//cc1DjAVj.s:142    .text.generateTimeStamp:0000000000000026 .LVL16
/var/folders/rt/4gvqv631095f64jvm7jfj_000000gn/T//cc1DjAVj.s:21     .text.rtcInit:0000000000000002 .LCFI0
/var/folders/rt/4gvqv631095f64jvm7jfj_000000gn/T//cc1DjAVj.s:85     .text.rtcInit:0000000000000090 .LCFI1
/var/folders/rt/4gvqv631095f64jvm7jfj_000000gn/T//cc1DjAVj.s:91     .text.rtcInit:0000000000000098 .LCFI2
/var/folders/rt/4gvqv631095f64jvm7jfj_000000gn/T//cc1DjAVj.s:97     .text.rtcInit:000000000000009c .LCFI3
/var/folders/rt/4gvqv631095f64jvm7jfj_000000gn/T//cc1DjAVj.s:295    .debug_info:0000000000000000 .Ldebug_info0

UNDEFINED SYMBOLS
rcu_periph_clock_enable
pmu_backup_write_enable
bkp_deinit
rcu_osci_on
rcu_osci_stab_wait
rcu_rtc_clock_config
rtc_register_sync_wait
rtc_lwoff_wait
rtc_prescaler_set
rtc_flag_clear
rtc_counter_get
snprintf
adc_software_trigger_enable
adc_flag_get
adc_regular_data_read
adc_flag_clear
LCD_Clear
LCD_ShowStr
