GAS LISTING /var/folders/rt/4gvqv631095f64jvm7jfj_000000gn/T//cc9RLqo0.s 			page 1


   1              		.file	"wifiServices.c"
   2              		.option nopic
   3              		.attribute arch, "rv32i2p0_m2p0_a2p0_c2p0"
   4              		.attribute unaligned_access, 0
   5              		.attribute stack_align, 16
   6              		.text
   7              	.Ltext0:
   8              		.cfi_sections	.debug_frame
   9              		.section	.text.jsonAllPlants,"ax",@progbits
  10              		.align	1
  11              		.globl	jsonAllPlants
  13              	jsonAllPlants:
  14              	.LFB6:
  15              		.file 1 "wifiServices.c"
   1:wifiServices.c **** #include "lcd.h"
   2:wifiServices.c **** #include "plant.h"
   3:wifiServices.c **** #include "usart.h"
   4:wifiServices.c **** #include "adc.h"
   5:wifiServices.c **** #include "wifiServices.h"
   6:wifiServices.c **** #include <stdio.h>
   7:wifiServices.c **** #include <string.h>
   8:wifiServices.c **** #include "renderPlants.h"
   9:wifiServices.c **** 
  10:wifiServices.c **** void jsonAllPlants(char *out, size_t outSize, Plant allPlants[], int numberOfPlants)
  11:wifiServices.c **** {
  16              		.loc 1 11 1
  17              		.cfi_startproc
  18              	.LVL0:
  12:wifiServices.c ****   int currentIndex = 0;
  19              		.loc 1 12 3
  13:wifiServices.c ****   currentIndex += snprintf(out + currentIndex, outSize - currentIndex, "[");
  20              		.loc 1 13 3
  11:wifiServices.c ****   int currentIndex = 0;
  21              		.loc 1 11 1 is_stmt 0
  22 0000 5971     		addi	sp,sp,-112
  23              	.LCFI0:
  24              		.cfi_def_cfa_offset 112
  25 0002 A2D4     		sw	s0,104(sp)
  26              		.cfi_offset 8, -8
  27 0004 3284     		mv	s0,a2
  28              		.loc 1 13 19
  29 0006 37060000 		lui	a2,%hi(.LC0)
  30              	.LVL1:
  31 000a 13060600 		addi	a2,a2,%lo(.LC0)
  11:wifiServices.c ****   int currentIndex = 0;
  32              		.loc 1 11 1
  33 000e A6D2     		sw	s1,100(sp)
  34 0010 CAD0     		sw	s2,96(sp)
  35 0012 CECE     		sw	s3,92(sp)
  36 0014 D2CC     		sw	s4,88(sp)
  37 0016 D6CA     		sw	s5,84(sp)
  38 0018 DAC8     		sw	s6,80(sp)
  39 001a DEC6     		sw	s7,76(sp)
  40 001c E2C4     		sw	s8,72(sp)
  41 001e E6C2     		sw	s9,68(sp)
  42 0020 EAC0     		sw	s10,64(sp)
  43 0022 86D6     		sw	ra,108(sp)
GAS LISTING /var/folders/rt/4gvqv631095f64jvm7jfj_000000gn/T//cc9RLqo0.s 			page 2


  44 0024 6EDE     		sw	s11,60(sp)
  45              		.cfi_offset 9, -12
  46              		.cfi_offset 18, -16
  47              		.cfi_offset 19, -20
  48              		.cfi_offset 20, -24
  49              		.cfi_offset 21, -28
  50              		.cfi_offset 22, -32
  51              		.cfi_offset 23, -36
  52              		.cfi_offset 24, -40
  53              		.cfi_offset 25, -44
  54              		.cfi_offset 26, -48
  55              		.cfi_offset 1, -4
  56              		.cfi_offset 27, -52
  11:wifiServices.c ****   int currentIndex = 0;
  57              		.loc 1 11 1
  58 0026 2A8A     		mv	s4,a0
  59 0028 AE89     		mv	s3,a1
  60 002a 368B     		mv	s6,a3
  61              	.LBB2:
  14:wifiServices.c ****   for (int i = 0; i < numberOfPlants; i++)
  62              		.loc 1 14 12
  63 002c 0149     		li	s2,0
  64              	.LBE2:
  13:wifiServices.c ****   currentIndex += snprintf(out + currentIndex, outSize - currentIndex, "[");
  65              		.loc 1 13 19
  66 002e 97000000 		call	snprintf
  66      E7800000 
  67              	.LVL2:
  68              		.loc 1 14 3 is_stmt 1
  69              	.LBB7:
  70              		.loc 1 14 8
  71              	.LBE7:
  13:wifiServices.c ****   currentIndex += snprintf(out + currentIndex, outSize - currentIndex, "[");
  72              		.loc 1 13 16 is_stmt 0
  73 0036 8544     		li	s1,1
  74              	.LBB8:
  15:wifiServices.c ****   {
  16:wifiServices.c ****     if (i > 0)
  17:wifiServices.c ****       currentIndex += snprintf(out + currentIndex, outSize - currentIndex, ",");
  75              		.loc 1 17 23
  76 0038 B70A0000 		lui	s5,%hi(.LC1)
  18:wifiServices.c **** 
  19:wifiServices.c ****     currentIndex += snprintf(out + currentIndex, outSize - currentIndex,
  77              		.loc 1 19 21
  78 003c B70B0000 		lui	s7,%hi(.LC2)
  79              	.LBB3:
  20:wifiServices.c ****                              "{\"name\":\"%s\","
  21:wifiServices.c ****                              "\"status\":\"%s\","
  22:wifiServices.c ****                              "\"currentSun\":%d,"
  23:wifiServices.c ****                              "\"currentMoist\":%d,"
  24:wifiServices.c ****                              "\"currentTemp\":%d,"
  25:wifiServices.c ****                              "\"idealMoist\":%d,"
  26:wifiServices.c ****                              "\"idealSun\":%d,"
  27:wifiServices.c ****                              "\"idealTemp\":%d,"
  28:wifiServices.c ****                              "\"minMoist\":%d,"
  29:wifiServices.c ****                              "\"minSun\":%d,"
  30:wifiServices.c ****                              "\"minTemp\":%d,"
GAS LISTING /var/folders/rt/4gvqv631095f64jvm7jfj_000000gn/T//cc9RLqo0.s 			page 3


  31:wifiServices.c ****                              "\"maxMoist\":%d,"
  32:wifiServices.c ****                              "\"maxSun\":%d,"
  33:wifiServices.c ****                              "\"maxTemp\":%d,"
  34:wifiServices.c ****                              "\"sunHistory\":[",// ORIGINAL: "\"maxTemp\":%d}"
  35:wifiServices.c ****                              allPlants[i].name,
  36:wifiServices.c ****                              allPlants[i].currentStatus,
  37:wifiServices.c ****                              allPlants[i].sun[allPlants[i].numberOfSunReadings - 1].reading,
  38:wifiServices.c ****                              allPlants[i].moisture[allPlants[i].numberOfMoistureReadings - 1].readi
  39:wifiServices.c ****                              allPlants[i].temp[allPlants[i].numberOfTempReadings - 1].reading,
  40:wifiServices.c ****                              allPlants[i].idealMoist,
  41:wifiServices.c ****                              allPlants[i].idealSun,
  42:wifiServices.c ****                              allPlants[i].idealTemp,
  43:wifiServices.c ****                              allPlants[i].lowMoist,
  44:wifiServices.c ****                              allPlants[i].lowSun,
  45:wifiServices.c ****                              allPlants[i].lowTemp,
  46:wifiServices.c ****                              allPlants[i].highMoist,
  47:wifiServices.c ****                              allPlants[i].highSun,
  48:wifiServices.c ****                              allPlants[i].highTemp);
  49:wifiServices.c ****             
  50:wifiServices.c ****   for (int j = 0; j < allPlants[i].numberOfSunHistory; j++) {
  51:wifiServices.c ****      if (i > 0)
  52:wifiServices.c ****       currentIndex += snprintf(out + currentIndex, outSize - currentIndex, ",");
  53:wifiServices.c ****     currentIndex += snprintf(out + currentIndex, outSize - currentIndex, "%d", allPlants[i].sunHist
  80              		.loc 1 53 21
  81 0040 370C0000 		lui	s8,%hi(.LC3)
  82              	.LBE3:
  54:wifiServices.c ****   }
  55:wifiServices.c ****   currentIndex += snprintf(out + currentIndex, outSize - currentIndex, "]");
  83              		.loc 1 55 19
  84 0044 B70C0000 		lui	s9,%hi(.LC4)
  56:wifiServices.c ****   currentIndex += snprintf(out + currentIndex, outSize - currentIndex, "}");
  85              		.loc 1 56 19
  86 0048 370D0000 		lui	s10,%hi(.LC5)
  87              	.LVL3:
  88              	.L2:
  89 004c 33059A00 		add	a0,s4,s1
  90 0050 B3859940 		sub	a1,s3,s1
  14:wifiServices.c ****   {
  91              		.loc 1 14 3 discriminator 1
  92 0054 63486903 		blt	s2,s6,.L7
  93              	.LBE8:
  57:wifiServices.c ****   }
  58:wifiServices.c ****   snprintf(out + currentIndex, outSize - currentIndex, "]\n");
  94              		.loc 1 58 3 is_stmt 1
  59:wifiServices.c **** }
  95              		.loc 1 59 1 is_stmt 0
  96 0058 2654     		lw	s0,104(sp)
  97              		.cfi_remember_state
  98              		.cfi_restore 8
  99 005a B650     		lw	ra,108(sp)
 100              		.cfi_restore 1
 101 005c 9654     		lw	s1,100(sp)
 102              		.cfi_restore 9
 103              	.LVL4:
 104 005e 0659     		lw	s2,96(sp)
 105              		.cfi_restore 18
 106              	.LVL5:
GAS LISTING /var/folders/rt/4gvqv631095f64jvm7jfj_000000gn/T//cc9RLqo0.s 			page 4


 107 0060 F649     		lw	s3,92(sp)
 108              		.cfi_restore 19
 109              	.LVL6:
 110 0062 664A     		lw	s4,88(sp)
 111              		.cfi_restore 20
 112              	.LVL7:
 113 0064 D64A     		lw	s5,84(sp)
 114              		.cfi_restore 21
 115 0066 464B     		lw	s6,80(sp)
 116              		.cfi_restore 22
 117              	.LVL8:
 118 0068 B64B     		lw	s7,76(sp)
 119              		.cfi_restore 23
 120 006a 264C     		lw	s8,72(sp)
 121              		.cfi_restore 24
 122 006c 964C     		lw	s9,68(sp)
 123              		.cfi_restore 25
 124 006e 064D     		lw	s10,64(sp)
 125              		.cfi_restore 26
 126 0070 F25D     		lw	s11,60(sp)
 127              		.cfi_restore 27
  58:wifiServices.c **** }
 128              		.loc 1 58 3
 129 0072 37060000 		lui	a2,%hi(.LC6)
 130              		.loc 1 59 1
  58:wifiServices.c **** }
 131              		.loc 1 58 3
 132 0076 13060600 		addi	a2,a2,%lo(.LC6)
 133              		.loc 1 59 1
 134 007a 6561     		addi	sp,sp,112
 135              	.LCFI1:
 136              		.cfi_def_cfa_offset 0
  58:wifiServices.c **** }
 137              		.loc 1 58 3
 138 007c 17030000 		tail	snprintf
 138      67000300 
 139              	.LVL9:
 140              	.L7:
 141              	.LCFI2:
 142              		.cfi_restore_state
 143              	.LBB9:
  16:wifiServices.c ****       currentIndex += snprintf(out + currentIndex, outSize - currentIndex, ",");
 144              		.loc 1 16 5 is_stmt 1
  16:wifiServices.c ****       currentIndex += snprintf(out + currentIndex, outSize - currentIndex, ",");
 145              		.loc 1 16 8 is_stmt 0
 146 0084 63592001 		ble	s2,zero,.L3
  17:wifiServices.c **** 
 147              		.loc 1 17 7 is_stmt 1
  17:wifiServices.c **** 
 148              		.loc 1 17 23 is_stmt 0
 149 0088 13860A00 		addi	a2,s5,%lo(.LC1)
 150 008c 97000000 		call	snprintf
 150      E7800000 
 151              	.LVL10:
  17:wifiServices.c **** 
 152              		.loc 1 17 20
 153 0094 8504     		addi	s1,s1,1
GAS LISTING /var/folders/rt/4gvqv631095f64jvm7jfj_000000gn/T//cc9RLqo0.s 			page 5


 154              	.LVL11:
 155              	.L3:
  19:wifiServices.c ****                              "{\"name\":\"%s\","
 156              		.loc 1 19 5 is_stmt 1
  39:wifiServices.c ****                              allPlants[i].idealMoist,
 157              		.loc 1 39 60 is_stmt 0
 158 0096 03477432 		lbu	a4,807(s0)
 159 009a 83476432 		lbu	a5,806(s0)
  19:wifiServices.c ****                              "{\"name\":\"%s\","
 160              		.loc 1 19 21
 161 009e 0345B44C 		lbu	a0,1227(s0)
  39:wifiServices.c ****                              allPlants[i].idealMoist,
 162              		.loc 1 39 60
 163 00a2 2207     		slli	a4,a4,8
 164 00a4 5D8F     		or	a4,a4,a5
 165 00a6 83478432 		lbu	a5,808(s0)
  19:wifiServices.c ****                              "{\"name\":\"%s\","
 166              		.loc 1 19 21
 167 00aa 2205     		slli	a0,a0,8
 168              	.LBB4:
  50:wifiServices.c ****      if (i > 0)
 169              		.loc 1 50 12
 170 00ac 814D     		li	s11,0
 171              	.LBE4:
  39:wifiServices.c ****                              allPlants[i].idealMoist,
 172              		.loc 1 39 60
 173 00ae C207     		slli	a5,a5,16
 174 00b0 5D8F     		or	a4,a5,a4
 175 00b2 83479432 		lbu	a5,809(s0)
 176 00b6 E207     		slli	a5,a5,24
 177 00b8 D98F     		or	a5,a5,a4
  19:wifiServices.c ****                              "{\"name\":\"%s\","
 178              		.loc 1 19 21
 179 00ba 93879704 		addi	a5,a5,73
 180 00be 8E07     		slli	a5,a5,3
 181 00c0 A297     		add	a5,s0,a5
 182 00c2 83C83701 		lbu	a7,19(a5)
 183 00c6 83C52701 		lbu	a1,18(a5)
  38:wifiServices.c ****                              allPlants[i].temp[allPlants[i].numberOfTempReadings - 1].reading,
 184              		.loc 1 38 64
 185 00ca 0347F431 		lbu	a4,799(s0)
  19:wifiServices.c ****                              "{\"name\":\"%s\","
 186              		.loc 1 19 21
 187 00ce A208     		slli	a7,a7,8
 188 00d0 B3E8B800 		or	a7,a7,a1
 189 00d4 83C54701 		lbu	a1,20(a5)
  38:wifiServices.c ****                              allPlants[i].temp[allPlants[i].numberOfTempReadings - 1].reading,
 190              		.loc 1 38 64
 191 00d8 2207     		slli	a4,a4,8
  19:wifiServices.c ****                              "{\"name\":\"%s\","
 192              		.loc 1 19 21
 193 00da C205     		slli	a1,a1,16
 194 00dc B3E51501 		or	a1,a1,a7
 195 00e0 83C85701 		lbu	a7,21(a5)
  38:wifiServices.c ****                              allPlants[i].temp[allPlants[i].numberOfTempReadings - 1].reading,
 196              		.loc 1 38 64
 197 00e4 8347E431 		lbu	a5,798(s0)
GAS LISTING /var/folders/rt/4gvqv631095f64jvm7jfj_000000gn/T//cc9RLqo0.s 			page 6


  19:wifiServices.c ****                              "{\"name\":\"%s\","
 198              		.loc 1 19 21
 199 00e8 E208     		slli	a7,a7,24
  38:wifiServices.c ****                              allPlants[i].temp[allPlants[i].numberOfTempReadings - 1].reading,
 200              		.loc 1 38 64
 201 00ea 5D8F     		or	a4,a4,a5
 202 00ec 83470432 		lbu	a5,800(s0)
  19:wifiServices.c ****                              "{\"name\":\"%s\","
 203              		.loc 1 19 21
 204 00f0 B3E8B800 		or	a7,a7,a1
 205 00f4 B3859940 		sub	a1,s3,s1
  38:wifiServices.c ****                              allPlants[i].temp[allPlants[i].numberOfTempReadings - 1].reading,
 206              		.loc 1 38 64
 207 00f8 C207     		slli	a5,a5,16
 208 00fa 5D8F     		or	a4,a5,a4
 209 00fc 83471432 		lbu	a5,801(s0)
 210 0100 E207     		slli	a5,a5,24
 211 0102 D98F     		or	a5,a5,a4
  19:wifiServices.c ****                              "{\"name\":\"%s\","
 212              		.loc 1 19 21
 213 0104 8507     		addi	a5,a5,1
 214 0106 8E07     		slli	a5,a5,3
 215 0108 A297     		add	a5,s0,a5
 216 010a 03C83701 		lbu	a6,19(a5)
 217 010e 03C62701 		lbu	a2,18(a5)
  37:wifiServices.c ****                              allPlants[i].moisture[allPlants[i].numberOfMoistureReadings - 1].readi
 218              		.loc 1 37 59
 219 0112 03472432 		lbu	a4,802(s0)
  19:wifiServices.c ****                              "{\"name\":\"%s\","
 220              		.loc 1 19 21
 221 0116 2208     		slli	a6,a6,8
 222 0118 3368C800 		or	a6,a6,a2
 223 011c 03C64701 		lbu	a2,20(a5)
 224 0120 4206     		slli	a2,a2,16
 225 0122 33660601 		or	a2,a2,a6
 226 0126 03C85701 		lbu	a6,21(a5)
  37:wifiServices.c ****                              allPlants[i].moisture[allPlants[i].numberOfMoistureReadings - 1].readi
 227              		.loc 1 37 59
 228 012a 83473432 		lbu	a5,803(s0)
  19:wifiServices.c ****                              "{\"name\":\"%s\","
 229              		.loc 1 19 21
 230 012e 6208     		slli	a6,a6,24
  37:wifiServices.c ****                              allPlants[i].moisture[allPlants[i].numberOfMoistureReadings - 1].readi
 231              		.loc 1 37 59
 232 0130 A207     		slli	a5,a5,8
 233 0132 D98F     		or	a5,a5,a4
 234 0134 03474432 		lbu	a4,804(s0)
  19:wifiServices.c ****                              "{\"name\":\"%s\","
 235              		.loc 1 19 21
 236 0138 3368C800 		or	a6,a6,a2
 237 013c 13860B00 		addi	a2,s7,%lo(.LC2)
  37:wifiServices.c ****                              allPlants[i].moisture[allPlants[i].numberOfMoistureReadings - 1].readi
 238              		.loc 1 37 59
 239 0140 4207     		slli	a4,a4,16
 240 0142 D98F     		or	a5,a4,a5
 241 0144 03475432 		lbu	a4,805(s0)
 242 0148 6207     		slli	a4,a4,24
GAS LISTING /var/folders/rt/4gvqv631095f64jvm7jfj_000000gn/T//cc9RLqo0.s 			page 7


 243 014a 5D8F     		or	a4,a4,a5
  19:wifiServices.c ****                              "{\"name\":\"%s\","
 244              		.loc 1 19 21
 245 014c 6507     		addi	a4,a4,25
 246 014e 0E07     		slli	a4,a4,3
 247 0150 2297     		add	a4,s0,a4
 248 0152 83473701 		lbu	a5,19(a4)
 249 0156 83462701 		lbu	a3,18(a4)
 250 015a A207     		slli	a5,a5,8
 251 015c D58F     		or	a5,a5,a3
 252 015e 83464701 		lbu	a3,20(a4)
 253 0162 C206     		slli	a3,a3,16
 254 0164 DD8E     		or	a3,a3,a5
 255 0166 83475701 		lbu	a5,21(a4)
 256 016a 0347A44C 		lbu	a4,1226(s0)
 257 016e E207     		slli	a5,a5,24
 258 0170 598D     		or	a0,a0,a4
 259 0172 0347C44C 		lbu	a4,1228(s0)
 260 0176 D58F     		or	a5,a5,a3
 261 0178 A286     		mv	a3,s0
 262 017a 4207     		slli	a4,a4,16
 263 017c 598D     		or	a0,a4,a0
 264 017e 0347D44C 		lbu	a4,1229(s0)
 265 0182 6207     		slli	a4,a4,24
 266 0184 498F     		or	a4,a4,a0
 267 0186 3AD0     		sw	a4,32(sp)
 268 0188 0345744C 		lbu	a0,1223(s0)
 269 018c 0347644C 		lbu	a4,1222(s0)
 270 0190 2205     		slli	a0,a0,8
 271 0192 598D     		or	a0,a0,a4
 272 0194 0347844C 		lbu	a4,1224(s0)
 273 0198 4207     		slli	a4,a4,16
 274 019a 598D     		or	a0,a4,a0
 275 019c 0347944C 		lbu	a4,1225(s0)
 276 01a0 6207     		slli	a4,a4,24
 277 01a2 498F     		or	a4,a4,a0
 278 01a4 3ACE     		sw	a4,28(sp)
 279 01a6 0345344C 		lbu	a0,1219(s0)
 280 01aa 0347244C 		lbu	a4,1218(s0)
 281 01ae 2205     		slli	a0,a0,8
 282 01b0 598D     		or	a0,a0,a4
 283 01b2 0347444C 		lbu	a4,1220(s0)
 284 01b6 4207     		slli	a4,a4,16
 285 01b8 598D     		or	a0,a4,a0
 286 01ba 0347544C 		lbu	a4,1221(s0)
 287 01be 6207     		slli	a4,a4,24
 288 01c0 498F     		or	a4,a4,a0
 289 01c2 3ACC     		sw	a4,24(sp)
 290 01c4 0345F44B 		lbu	a0,1215(s0)
 291 01c8 0347E44B 		lbu	a4,1214(s0)
 292 01cc 2205     		slli	a0,a0,8
 293 01ce 598D     		or	a0,a0,a4
 294 01d0 0347044C 		lbu	a4,1216(s0)
 295 01d4 4207     		slli	a4,a4,16
 296 01d6 598D     		or	a0,a4,a0
 297 01d8 0347144C 		lbu	a4,1217(s0)
 298 01dc 6207     		slli	a4,a4,24
GAS LISTING /var/folders/rt/4gvqv631095f64jvm7jfj_000000gn/T//cc9RLqo0.s 			page 8


 299 01de 498F     		or	a4,a4,a0
 300 01e0 3ACA     		sw	a4,20(sp)
 301 01e2 0345B44B 		lbu	a0,1211(s0)
 302 01e6 0347A44B 		lbu	a4,1210(s0)
 303 01ea 2205     		slli	a0,a0,8
 304 01ec 598D     		or	a0,a0,a4
 305 01ee 0347C44B 		lbu	a4,1212(s0)
 306 01f2 4207     		slli	a4,a4,16
 307 01f4 598D     		or	a0,a4,a0
 308 01f6 0347D44B 		lbu	a4,1213(s0)
 309 01fa 6207     		slli	a4,a4,24
 310 01fc 498F     		or	a4,a4,a0
 311 01fe 3AC8     		sw	a4,16(sp)
 312 0200 0345744B 		lbu	a0,1207(s0)
 313 0204 0347644B 		lbu	a4,1206(s0)
 314 0208 2205     		slli	a0,a0,8
 315 020a 598D     		or	a0,a0,a4
 316 020c 0347844B 		lbu	a4,1208(s0)
 317 0210 4207     		slli	a4,a4,16
 318 0212 598D     		or	a0,a4,a0
 319 0214 0347944B 		lbu	a4,1209(s0)
 320 0218 6207     		slli	a4,a4,24
 321 021a 498F     		or	a4,a4,a0
 322 021c 3AC6     		sw	a4,12(sp)
 323 021e 0345344B 		lbu	a0,1203(s0)
 324 0222 0347244B 		lbu	a4,1202(s0)
 325 0226 2205     		slli	a0,a0,8
 326 0228 598D     		or	a0,a0,a4
 327 022a 0347444B 		lbu	a4,1204(s0)
 328 022e 4207     		slli	a4,a4,16
 329 0230 598D     		or	a0,a4,a0
 330 0232 0347544B 		lbu	a4,1205(s0)
 331 0236 6207     		slli	a4,a4,24
 332 0238 498F     		or	a4,a4,a0
 333 023a 3AC4     		sw	a4,8(sp)
 334 023c 0345F44A 		lbu	a0,1199(s0)
 335 0240 0347E44A 		lbu	a4,1198(s0)
 336 0244 2205     		slli	a0,a0,8
 337 0246 598D     		or	a0,a0,a4
 338 0248 0347044B 		lbu	a4,1200(s0)
 339 024c 4207     		slli	a4,a4,16
 340 024e 598D     		or	a0,a4,a0
 341 0250 0347144B 		lbu	a4,1201(s0)
 342 0254 6207     		slli	a4,a4,24
 343 0256 498F     		or	a4,a4,a0
 344 0258 3AC2     		sw	a4,4(sp)
 345 025a 0347A44A 		lbu	a4,1194(s0)
 346 025e 0345B44A 		lbu	a0,1195(s0)
 347 0262 2205     		slli	a0,a0,8
 348 0264 598D     		or	a0,a0,a4
 349 0266 0347C44A 		lbu	a4,1196(s0)
 350 026a 4207     		slli	a4,a4,16
 351 026c 598D     		or	a0,a4,a0
 352 026e 0347D44A 		lbu	a4,1197(s0)
 353 0272 6207     		slli	a4,a4,24
 354 0274 498F     		or	a4,a4,a0
 355 0276 3AC0     		sw	a4,0(sp)
GAS LISTING /var/folders/rt/4gvqv631095f64jvm7jfj_000000gn/T//cc9RLqo0.s 			page 9


 356 0278 33059A00 		add	a0,s4,s1
 357 027c 1307F400 		addi	a4,s0,15
 358 0280 97000000 		call	snprintf
 358      E7800000 
 359              	.LVL12:
  19:wifiServices.c ****                              "{\"name\":\"%s\","
 360              		.loc 1 19 18
 361 0288 AA94     		add	s1,s1,a0
 362              	.LVL13:
  50:wifiServices.c ****      if (i > 0)
 363              		.loc 1 50 3 is_stmt 1
 364              	.LBB5:
  50:wifiServices.c ****      if (i > 0)
 365              		.loc 1 50 8
 366              	.L4:
  50:wifiServices.c ****      if (i > 0)
 367              		.loc 1 50 35 is_stmt 0 discriminator 1
 368 028a 03477449 		lbu	a4,1175(s0)
 369 028e 83476449 		lbu	a5,1174(s0)
 370 0292 33059A00 		add	a0,s4,s1
 371 0296 2207     		slli	a4,a4,8
 372 0298 5D8F     		or	a4,a4,a5
 373 029a 83478449 		lbu	a5,1176(s0)
 374 029e B3859940 		sub	a1,s3,s1
 375 02a2 C207     		slli	a5,a5,16
 376 02a4 5D8F     		or	a4,a5,a4
 377 02a6 83479449 		lbu	a5,1177(s0)
 378 02aa E207     		slli	a5,a5,24
 379 02ac D98F     		or	a5,a5,a4
  50:wifiServices.c ****      if (i > 0)
 380              		.loc 1 50 3 discriminator 1
 381 02ae 63C8FD02 		bgt	a5,s11,.L6
 382              	.LBE5:
  55:wifiServices.c ****   currentIndex += snprintf(out + currentIndex, outSize - currentIndex, "}");
 383              		.loc 1 55 3 is_stmt 1 discriminator 2
  55:wifiServices.c ****   currentIndex += snprintf(out + currentIndex, outSize - currentIndex, "}");
 384              		.loc 1 55 19 is_stmt 0 discriminator 2
 385 02b2 13860C00 		addi	a2,s9,%lo(.LC4)
 386 02b6 97000000 		call	snprintf
 386      E7800000 
 387              	.LVL14:
  56:wifiServices.c ****   }
 388              		.loc 1 56 3 is_stmt 1 discriminator 2
  55:wifiServices.c ****   currentIndex += snprintf(out + currentIndex, outSize - currentIndex, "}");
 389              		.loc 1 55 16 is_stmt 0 discriminator 2
 390 02be 13851400 		addi	a0,s1,1
 391              	.LVL15:
  56:wifiServices.c ****   }
 392              		.loc 1 56 19 discriminator 2
 393 02c2 B385A940 		sub	a1,s3,a0
 394 02c6 13060D00 		addi	a2,s10,%lo(.LC5)
 395 02ca 5295     		add	a0,s4,a0
 396              	.LVL16:
 397 02cc 97000000 		call	snprintf
 397      E7800000 
 398              	.LVL17:
  56:wifiServices.c ****   }
GAS LISTING /var/folders/rt/4gvqv631095f64jvm7jfj_000000gn/T//cc9RLqo0.s 			page 10


 399              		.loc 1 56 16 discriminator 2
 400 02d4 8904     		addi	s1,s1,2
 401              	.LVL18:
  14:wifiServices.c ****   {
 402              		.loc 1 14 40 discriminator 2
 403 02d6 0509     		addi	s2,s2,1
 404              	.LVL19:
 405 02d8 1304E44C 		addi	s0,s0,1230
 406 02dc 85BB     		j	.L2
 407              	.L6:
 408              	.LBB6:
  51:wifiServices.c ****       currentIndex += snprintf(out + currentIndex, outSize - currentIndex, ",");
 409              		.loc 1 51 6 is_stmt 1
  51:wifiServices.c ****       currentIndex += snprintf(out + currentIndex, outSize - currentIndex, ",");
 410              		.loc 1 51 9 is_stmt 0
 411 02de 63592001 		ble	s2,zero,.L5
  52:wifiServices.c ****     currentIndex += snprintf(out + currentIndex, outSize - currentIndex, "%d", allPlants[i].sunHist
 412              		.loc 1 52 7 is_stmt 1
  52:wifiServices.c ****     currentIndex += snprintf(out + currentIndex, outSize - currentIndex, "%d", allPlants[i].sunHist
 413              		.loc 1 52 23 is_stmt 0
 414 02e2 13860A00 		addi	a2,s5,%lo(.LC1)
 415 02e6 97000000 		call	snprintf
 415      E7800000 
 416              	.LVL20:
  52:wifiServices.c ****     currentIndex += snprintf(out + currentIndex, outSize - currentIndex, "%d", allPlants[i].sunHist
 417              		.loc 1 52 20
 418 02ee 8504     		addi	s1,s1,1
 419              	.LVL21:
 420              	.L5:
  53:wifiServices.c ****   }
 421              		.loc 1 53 5 is_stmt 1 discriminator 2
  53:wifiServices.c ****   }
 422              		.loc 1 53 21 is_stmt 0 discriminator 2
 423 02f0 93878D0E 		addi	a5,s11,232
 424 02f4 8A07     		slli	a5,a5,2
 425 02f6 A297     		add	a5,s0,a5
 426 02f8 83C63700 		lbu	a3,3(a5)
 427 02fc 03C72700 		lbu	a4,2(a5)
 428 0300 B3859940 		sub	a1,s3,s1
 429 0304 A206     		slli	a3,a3,8
 430 0306 D98E     		or	a3,a3,a4
 431 0308 03C74700 		lbu	a4,4(a5)
 432 030c 33059A00 		add	a0,s4,s1
 433 0310 13060C00 		addi	a2,s8,%lo(.LC3)
 434 0314 4207     		slli	a4,a4,16
 435 0316 558F     		or	a4,a4,a3
 436 0318 83C65700 		lbu	a3,5(a5)
  50:wifiServices.c ****      if (i > 0)
 437              		.loc 1 50 57 discriminator 2
 438 031c 850D     		addi	s11,s11,1
 439              	.LVL22:
  53:wifiServices.c ****   }
 440              		.loc 1 53 21 discriminator 2
 441 031e E206     		slli	a3,a3,24
 442 0320 D98E     		or	a3,a3,a4
 443 0322 97000000 		call	snprintf
 443      E7800000 
GAS LISTING /var/folders/rt/4gvqv631095f64jvm7jfj_000000gn/T//cc9RLqo0.s 			page 11


 444              	.LVL23:
  53:wifiServices.c ****   }
 445              		.loc 1 53 18 discriminator 2
 446 032a AA94     		add	s1,s1,a0
 447              	.LVL24:
 448 032c B9BF     		j	.L4
 449              	.LBE6:
 450              	.LBE9:
 451              		.cfi_endproc
 452              	.LFE6:
 454              		.section	.text.getValue,"ax",@progbits
 455              		.align	1
 456              		.globl	getValue
 458              	getValue:
 459              	.LFB8:
  60:wifiServices.c **** 
  61:wifiServices.c **** void receiveCommands(Plant allPlants[], int *numberOfPlants)
  62:wifiServices.c **** {
  63:wifiServices.c ****   for (int j = 0; j < commandBufferIndex; j++)
  64:wifiServices.c ****   {
  65:wifiServices.c ****     if (commandBuffer[j] == '\n')
  66:wifiServices.c ****     {
  67:wifiServices.c ****       commandBuffer[j] = '\0';
  68:wifiServices.c ****       if (!strcmp((char *)commandBuffer, "getAllPlants"))
  69:wifiServices.c ****       {
  70:wifiServices.c ****         char data[512];
  71:wifiServices.c ****         jsonAllPlants(data, sizeof(data), allPlants, *numberOfPlants);
  72:wifiServices.c ****         putstr(data);
  73:wifiServices.c ****       }
  74:wifiServices.c ****       else
  75:wifiServices.c ****       {
  76:wifiServices.c ****         char cmd[15];
  77:wifiServices.c ****         char *ptr = strstr(commandBuffer, "\"cmd\":\"");
  78:wifiServices.c ****         if (ptr != NULL)    // IntrĂ¤ffar om -^ hittades i body, dĂĄ Ă¤r pointer vĂ¤rdet dĂ¤r det b
  79:wifiServices.c ****           sscanf(ptr, "\"cmd\":\"%14[^\"]\"", cmd); // spara det som kommer efter ptr och cmd synta
  80:wifiServices.c ****         
  81:wifiServices.c ****         if (!strcmp(cmd, "startPump"))
  82:wifiServices.c ****           T1setPWMch0(500);
  83:wifiServices.c **** 
  84:wifiServices.c ****         else if (!strcmp(cmd, "startLamp"))
  85:wifiServices.c ****         {
  86:wifiServices.c ****           if (gpio_output_bit_get(GPIOB, GPIO_PIN_7)) 
  87:wifiServices.c ****             gpio_bit_reset(GPIOB, GPIO_PIN_7);
  88:wifiServices.c ****           else 
  89:wifiServices.c ****             gpio_bit_set(GPIOB, GPIO_PIN_7);
  90:wifiServices.c ****         }
  91:wifiServices.c **** 
  92:wifiServices.c ****         else if (!strcmp(cmd, "addPlant"))
  93:wifiServices.c ****         {
  94:wifiServices.c ****           char name[NAME_LENGTH];
  95:wifiServices.c ****           int idealMoist;
  96:wifiServices.c ****           int idealSun;
  97:wifiServices.c ****           int idealTemp;
  98:wifiServices.c **** 
  99:wifiServices.c ****           int lowMoist;
 100:wifiServices.c ****           int lowSun;
 101:wifiServices.c ****           int lowTemp;
GAS LISTING /var/folders/rt/4gvqv631095f64jvm7jfj_000000gn/T//cc9RLqo0.s 			page 12


 102:wifiServices.c **** 
 103:wifiServices.c ****           int highMoist;
 104:wifiServices.c ****           int highSun;
 105:wifiServices.c ****           int highTemp;
 106:wifiServices.c **** 
 107:wifiServices.c ****           char *ptr = strstr(commandBuffer, "\"name\":\"");
 108:wifiServices.c ****           if (ptr != NULL)
 109:wifiServices.c ****           {
 110:wifiServices.c ****             sscanf(ptr, "\"name\":\"%[^\"]\"", name);
 111:wifiServices.c ****           }
 112:wifiServices.c **** 
 113:wifiServices.c ****           idealMoist = getValue(commandBuffer, "idealMoist");
 114:wifiServices.c ****           idealSun = getValue(commandBuffer, "idealSun");
 115:wifiServices.c ****           idealTemp = getValue(commandBuffer, "idealTemp");
 116:wifiServices.c ****           lowMoist = getValue(commandBuffer, "minMoist");
 117:wifiServices.c ****           lowSun = getValue(commandBuffer, "minSun");
 118:wifiServices.c ****           lowTemp = getValue(commandBuffer, "minTemp");
 119:wifiServices.c ****           highMoist = getValue(commandBuffer, "maxMoist");
 120:wifiServices.c ****           highSun = getValue(commandBuffer, "maxSun");
 121:wifiServices.c ****           highTemp = getValue(commandBuffer, "maxTemp");
 122:wifiServices.c ****           initPlant(name, numberOfPlants, allPlants,
 123:wifiServices.c ****                     idealMoist, lowMoist, highMoist,
 124:wifiServices.c ****                     idealSun, lowSun, highSun,
 125:wifiServices.c ****                     idealTemp, lowTemp, highTemp);
 126:wifiServices.c ****         }
 127:wifiServices.c ****         else
 128:wifiServices.c ****         {
 129:wifiServices.c ****           LCD_Clear(BLACK);
 130:wifiServices.c ****           LCD_ShowStr(10, 10, "HTTP_500:", RED, TRANSPARENT);
 131:wifiServices.c ****           LCD_ShowStr(10, 23, (char *)commandBuffer, WHITE, TRANSPARENT);
 132:wifiServices.c ****           putstr((char *)commandBuffer);
 133:wifiServices.c ****         }
 134:wifiServices.c ****       }
 135:wifiServices.c ****       commandBufferIndex = 0;
 136:wifiServices.c ****       break;
 137:wifiServices.c ****     }
 138:wifiServices.c ****   }
 139:wifiServices.c **** }
 140:wifiServices.c **** 
 141:wifiServices.c **** int getValue(const volatile char *json, const char *key)
 142:wifiServices.c **** {
 460              		.loc 1 142 1 is_stmt 1
 461              		.cfi_startproc
 462              	.LVL25:
 143:wifiServices.c ****   char search[32];
 463              		.loc 1 143 3
 144:wifiServices.c ****   sprintf(search, "\"%s\":", key);
 464              		.loc 1 144 3
 142:wifiServices.c ****   char search[32];
 465              		.loc 1 142 1 is_stmt 0
 466 0000 7971     		addi	sp,sp,-48
 467              	.LCFI3:
 468              		.cfi_def_cfa_offset 48
 469              		.loc 1 144 3
 470 0002 2E86     		mv	a2,a1
 471 0004 B7050000 		lui	a1,%hi(.LC7)
 472              	.LVL26:
GAS LISTING /var/folders/rt/4gvqv631095f64jvm7jfj_000000gn/T//cc9RLqo0.s 			page 13


 142:wifiServices.c ****   char search[32];
 473              		.loc 1 142 1
 474 0008 22D4     		sw	s0,40(sp)
 475              		.loc 1 144 3
 476 000a 93850500 		addi	a1,a1,%lo(.LC7)
 477              		.cfi_offset 8, -8
 142:wifiServices.c ****   char search[32];
 478              		.loc 1 142 1
 479 000e 2A84     		mv	s0,a0
 480              		.loc 1 144 3
 481 0010 0A85     		mv	a0,sp
 482              	.LVL27:
 142:wifiServices.c ****   char search[32];
 483              		.loc 1 142 1
 484 0012 06D6     		sw	ra,44(sp)
 485              		.cfi_offset 1, -4
 486              		.loc 1 144 3
 487 0014 97000000 		call	sprintf
 487      E7800000 
 488              	.LVL28:
 145:wifiServices.c **** 
 146:wifiServices.c ****   char *ptr = strstr(json, search); // DENNA BLIR INDEXET DĂ„R search hittas i json. Dvs motsvarigh
 489              		.loc 1 146 3 is_stmt 1
 490              		.loc 1 146 15 is_stmt 0
 491 001c 8A85     		mv	a1,sp
 492 001e 2285     		mv	a0,s0
 493 0020 97000000 		call	strstr
 493      E7800000 
 494              	.LVL29:
 147:wifiServices.c ****   if (ptr != NULL)
 495              		.loc 1 147 3 is_stmt 1
 496              		.loc 1 147 6 is_stmt 0
 497 0028 05C1     		beq	a0,zero,.L11
 498 002a 2A84     		mv	s0,a0
 499              	.LVL30:
 148:wifiServices.c ****   {
 149:wifiServices.c ****     ptr += strlen(search); // lĂ¤gg till lĂ¤ngden av sĂ¶kordet. Och sĂ¶kordet Ă¤r vĂĄrat nyckelord.
 500              		.loc 1 149 5 is_stmt 1
 501              		.loc 1 149 12 is_stmt 0
 502 002c 0A85     		mv	a0,sp
 503              	.LVL31:
 504 002e 97000000 		call	strlen
 504      E7800000 
 505              	.LVL32:
 150:wifiServices.c ****     return atoi(ptr);      // atoi Ă¤r sĂĄpass smart att den bĂ¶rjar och slutar automatiskt dĂ¤r vĂ
 506              		.loc 1 150 5 is_stmt 1
 507              		.loc 1 150 12 is_stmt 0
 508 0036 2295     		add	a0,s0,a0
 509              	.LVL33:
 510 0038 97000000 		call	atoi
 510      E7800000 
 511              	.LVL34:
 512              	.L9:
 151:wifiServices.c ****   }
 152:wifiServices.c **** 
 153:wifiServices.c ****   return 0;
 154:wifiServices.c **** }...
GAS LISTING /var/folders/rt/4gvqv631095f64jvm7jfj_000000gn/T//cc9RLqo0.s 			page 14


 513              		.loc 1 154 1
 514 0040 B250     		lw	ra,44(sp)
 515              		.cfi_remember_state
 516              		.cfi_restore 1
 517 0042 2254     		lw	s0,40(sp)
 518              		.cfi_restore 8
 519 0044 4561     		addi	sp,sp,48
 520              	.LCFI4:
 521              		.cfi_def_cfa_offset 0
 522 0046 8280     		jr	ra
 523              	.LVL35:
 524              	.L11:
 525              	.LCFI5:
 526              		.cfi_restore_state
 153:wifiServices.c ****   return 0;
 527              		.loc 1 153 10
 528 0048 0145     		li	a0,0
 529              	.LVL36:
 530 004a DDBF     		j	.L9
 531              		.cfi_endproc
 532              	.LFE8:
 534              		.section	.text.receiveCommands,"ax",@progbits
 535              		.align	1
 536              		.globl	receiveCommands
 538              	receiveCommands:
 539              	.LFB7:
  62:wifiServices.c **** {
 540              		.loc 1 62 1 is_stmt 1
 541              		.cfi_startproc
 542              	.LVL37:
  63:wifiServices.c ****   for (int j = 0; j < commandBufferIndex; j++)
 543              		.loc 1 63 3
 544              	.LBB10:
  63:wifiServices.c ****   for (int j = 0; j < commandBufferIndex; j++)
 545              		.loc 1 63 8
 546              	.LBE10:
  62:wifiServices.c **** {
 547              		.loc 1 62 1 is_stmt 0
 548 0000 130101DA 		addi	sp,sp,-608
 549              	.LCFI6:
 550              		.cfi_def_cfa_offset 608
 551 0004 232C8124 		sw	s0,600(sp)
 552              	.LBB15:
  63:wifiServices.c ****   for (int j = 0; j < commandBufferIndex; j++)
 553              		.loc 1 63 21
 554 0008 37070000 		lui	a4,%hi(commandBufferIndex)
 555              		.cfi_offset 8, -8
  65:wifiServices.c ****     if (commandBuffer[j] == '\n')
 556              		.loc 1 65 22
 557 000c 37040000 		lui	s0,%hi(commandBuffer)
 558              	.LBE15:
  62:wifiServices.c **** {
 559              		.loc 1 62 1
 560 0010 23263125 		sw	s3,588(sp)
 561 0014 232E1124 		sw	ra,604(sp)
 562 0018 232A9124 		sw	s1,596(sp)
 563 001c 23282125 		sw	s2,592(sp)
GAS LISTING /var/folders/rt/4gvqv631095f64jvm7jfj_000000gn/T//cc9RLqo0.s 			page 15


 564 0020 23244125 		sw	s4,584(sp)
 565 0024 23225125 		sw	s5,580(sp)
 566 0028 23206125 		sw	s6,576(sp)
 567              		.cfi_offset 19, -20
 568              		.cfi_offset 1, -4
 569              		.cfi_offset 9, -12
 570              		.cfi_offset 18, -16
 571              		.cfi_offset 20, -24
 572              		.cfi_offset 21, -28
 573              		.cfi_offset 22, -32
 574              	.LBB16:
  63:wifiServices.c ****   for (int j = 0; j < commandBufferIndex; j++)
 575              		.loc 1 63 12
 576 002c 8147     		li	a5,0
 577 002e BA89     		mv	s3,a4
  65:wifiServices.c ****     if (commandBuffer[j] == '\n')
 578              		.loc 1 65 22
 579 0030 13060400 		addi	a2,s0,%lo(commandBuffer)
  65:wifiServices.c ****     if (commandBuffer[j] == '\n')
 580              		.loc 1 65 8
 581 0034 2948     		li	a6,10
 582              	.LVL38:
 583              	.L14:
  63:wifiServices.c ****   for (int j = 0; j < commandBufferIndex; j++)
 584              		.loc 1 63 21 discriminator 1
 585 0036 83260700 		lw	a3,%lo(commandBufferIndex)(a4)
  63:wifiServices.c ****   for (int j = 0; j < commandBufferIndex; j++)
 586              		.loc 1 63 3 discriminator 1
 587 003a 63DDD708 		ble	a3,a5,.L13
  65:wifiServices.c ****     if (commandBuffer[j] == '\n')
 588              		.loc 1 65 5 is_stmt 1
  65:wifiServices.c ****     if (commandBuffer[j] == '\n')
 589              		.loc 1 65 22 is_stmt 0
 590 003e B306F600 		add	a3,a2,a5
 591 0042 83C80600 		lbu	a7,0(a3)
  65:wifiServices.c ****     if (commandBuffer[j] == '\n')
 592              		.loc 1 65 8
 593 0046 63121827 		bne	a6,a7,.L15
 594 004a 2E89     		mv	s2,a1
  68:wifiServices.c ****       if (!strcmp((char *)commandBuffer, "getAllPlants"))
 595              		.loc 1 68 12
 596 004c B7050000 		lui	a1,%hi(.LC8)
 597              	.LVL39:
 598 0050 AA84     		mv	s1,a0
  67:wifiServices.c ****       commandBuffer[j] = '\0';
 599              		.loc 1 67 7 is_stmt 1
  68:wifiServices.c ****       if (!strcmp((char *)commandBuffer, "getAllPlants"))
 600              		.loc 1 68 12 is_stmt 0
 601 0052 93850500 		addi	a1,a1,%lo(.LC8)
 602 0056 13050400 		addi	a0,s0,%lo(commandBuffer)
 603              	.LVL40:
  67:wifiServices.c ****       commandBuffer[j] = '\0';
 604              		.loc 1 67 24
 605 005a 23800600 		sb	zero,0(a3)
  68:wifiServices.c ****       if (!strcmp((char *)commandBuffer, "getAllPlants"))
 606              		.loc 1 68 7 is_stmt 1
  68:wifiServices.c ****       if (!strcmp((char *)commandBuffer, "getAllPlants"))
GAS LISTING /var/folders/rt/4gvqv631095f64jvm7jfj_000000gn/T//cc9RLqo0.s 			page 16


 607              		.loc 1 68 12 is_stmt 0
 608 005e 97000000 		call	strcmp
 608      E7800000 
 609              	.LVL41:
  68:wifiServices.c ****       if (!strcmp((char *)commandBuffer, "getAllPlants"))
 610              		.loc 1 68 10
 611 0066 0DE1     		bne	a0,zero,.L16
 612              	.LBB11:
  70:wifiServices.c ****         char data[512];
 613              		.loc 1 70 9 is_stmt 1
  71:wifiServices.c ****         jsonAllPlants(data, sizeof(data), allPlants, *numberOfPlants);
 614              		.loc 1 71 9
 615 0068 83260900 		lw	a3,0(s2)
 616 006c 8800     		addi	a0,sp,64
 617 006e 2686     		mv	a2,s1
 618 0070 93050020 		li	a1,512
 619 0074 97000000 		call	jsonAllPlants
 619      E7800000 
 620              	.LVL42:
  72:wifiServices.c ****         putstr(data);
 621              		.loc 1 72 9
 622 007c 8800     		addi	a0,sp,64
 623              	.LVL43:
 624              	.L34:
 625              	.LBE11:
 626              	.LBB12:
 132:wifiServices.c ****           putstr((char *)commandBuffer);
 627              		.loc 1 132 11 is_stmt 0
 628 007e 97000000 		call	putstr
 628      E7800000 
 629              	.LVL44:
 630 0086 A9A0     		j	.L17
 631              	.LVL45:
 632              	.L16:
  76:wifiServices.c ****         char cmd[15];
 633              		.loc 1 76 9 is_stmt 1
  77:wifiServices.c ****         char *ptr = strstr(commandBuffer, "\"cmd\":\"");
 634              		.loc 1 77 9
  77:wifiServices.c ****         char *ptr = strstr(commandBuffer, "\"cmd\":\"");
 635              		.loc 1 77 21 is_stmt 0
 636 0088 B7050000 		lui	a1,%hi(.LC9)
 637 008c 93850500 		addi	a1,a1,%lo(.LC9)
 638 0090 13050400 		addi	a0,s0,%lo(commandBuffer)
 639 0094 97000000 		call	strstr
 639      E7800000 
 640              	.LVL46:
  78:wifiServices.c ****         if (ptr != NULL)    // IntrĂ¤ffar om -^ hittades i body, dĂĄ Ă¤r pointer vĂ¤rdet dĂ¤r det b
 641              		.loc 1 78 9 is_stmt 1
  78:wifiServices.c ****         if (ptr != NULL)    // IntrĂ¤ffar om -^ hittades i body, dĂĄ Ă¤r pointer vĂ¤rdet dĂ¤r det b
 642              		.loc 1 78 12 is_stmt 0
 643 009c 11C9     		beq	a0,zero,.L18
  79:wifiServices.c ****           sscanf(ptr, "\"cmd\":\"%14[^\"]\"", cmd); // spara det som kommer efter ptr och cmd synta
 644              		.loc 1 79 11 is_stmt 1
 645 009e B7050000 		lui	a1,%hi(.LC10)
 646 00a2 1018     		addi	a2,sp,48
 647 00a4 93850500 		addi	a1,a1,%lo(.LC10)
 648 00a8 97000000 		call	sscanf
GAS LISTING /var/folders/rt/4gvqv631095f64jvm7jfj_000000gn/T//cc9RLqo0.s 			page 17


 648      E7800000 
 649              	.LVL47:
 650              	.L18:
  81:wifiServices.c ****         if (!strcmp(cmd, "startPump"))
 651              		.loc 1 81 9
  81:wifiServices.c ****         if (!strcmp(cmd, "startPump"))
 652              		.loc 1 81 14 is_stmt 0
 653 00b0 B7050000 		lui	a1,%hi(.LC11)
 654 00b4 93850500 		addi	a1,a1,%lo(.LC11)
 655 00b8 0818     		addi	a0,sp,48
 656 00ba 97000000 		call	strcmp
 656      E7800000 
 657              	.LVL48:
  81:wifiServices.c ****         if (!strcmp(cmd, "startPump"))
 658              		.loc 1 81 12
 659 00c2 05ED     		bne	a0,zero,.L19
  82:wifiServices.c ****           T1setPWMch0(500);
 660              		.loc 1 82 11 is_stmt 1
 661 00c4 1305401F 		li	a0,500
 662 00c8 97000000 		call	T1setPWMch0
 662      E7800000 
 663              	.LVL49:
 664              	.L17:
 665              	.LBE12:
 135:wifiServices.c ****       commandBufferIndex = 0;
 666              		.loc 1 135 7
 135:wifiServices.c ****       commandBufferIndex = 0;
 667              		.loc 1 135 26 is_stmt 0
 668 00d0 23A00900 		sw	zero,%lo(commandBufferIndex)(s3)
 136:wifiServices.c ****       break;
 669              		.loc 1 136 7 is_stmt 1
 670              	.LVL50:
 671              	.L13:
 672              	.LBE16:
 139:wifiServices.c **** }
 673              		.loc 1 139 1 is_stmt 0
 674 00d4 8320C125 		lw	ra,604(sp)
 675              		.cfi_remember_state
 676              		.cfi_restore 1
 677 00d8 03248125 		lw	s0,600(sp)
 678              		.cfi_restore 8
 679 00dc 83244125 		lw	s1,596(sp)
 680              		.cfi_restore 9
 681 00e0 03290125 		lw	s2,592(sp)
 682              		.cfi_restore 18
 683 00e4 8329C124 		lw	s3,588(sp)
 684              		.cfi_restore 19
 685 00e8 032A8124 		lw	s4,584(sp)
 686              		.cfi_restore 20
 687 00ec 832A4124 		lw	s5,580(sp)
 688              		.cfi_restore 21
 689 00f0 032B0124 		lw	s6,576(sp)
 690              		.cfi_restore 22
 691 00f4 13010126 		addi	sp,sp,608
 692              	.LCFI7:
 693              		.cfi_def_cfa_offset 0
 694 00f8 8280     		jr	ra
GAS LISTING /var/folders/rt/4gvqv631095f64jvm7jfj_000000gn/T//cc9RLqo0.s 			page 18


 695              	.LVL51:
 696              	.L19:
 697              	.LCFI8:
 698              		.cfi_restore_state
 699              	.LBB17:
 700              	.LBB14:
  84:wifiServices.c ****         else if (!strcmp(cmd, "startLamp"))
 701              		.loc 1 84 14 is_stmt 1
  84:wifiServices.c ****         else if (!strcmp(cmd, "startLamp"))
 702              		.loc 1 84 19 is_stmt 0
 703 00fa B7050000 		lui	a1,%hi(.LC12)
 704 00fe 93850500 		addi	a1,a1,%lo(.LC12)
 705 0102 0818     		addi	a0,sp,48
 706 0104 97000000 		call	strcmp
 706      E7800000 
 707              	.LVL52:
  84:wifiServices.c ****         else if (!strcmp(cmd, "startLamp"))
 708              		.loc 1 84 17
 709 010c 05ED     		bne	a0,zero,.L21
  86:wifiServices.c ****           if (gpio_output_bit_get(GPIOB, GPIO_PIN_7)) 
 710              		.loc 1 86 11 is_stmt 1
  86:wifiServices.c ****           if (gpio_output_bit_get(GPIOB, GPIO_PIN_7)) 
 711              		.loc 1 86 15 is_stmt 0
 712 010e 37140140 		li	s0,1073811456
 713 0112 93050008 		li	a1,128
 714 0116 130504C0 		addi	a0,s0,-1024
 715 011a 97000000 		call	gpio_output_bit_get
 715      E7800000 
 716              	.LVL53:
  87:wifiServices.c ****             gpio_bit_reset(GPIOB, GPIO_PIN_7);
 717              		.loc 1 87 13
 718 0122 93050008 		li	a1,128
  86:wifiServices.c ****           if (gpio_output_bit_get(GPIOB, GPIO_PIN_7)) 
 719              		.loc 1 86 14
 720 0126 01C9     		beq	a0,zero,.L22
  87:wifiServices.c ****             gpio_bit_reset(GPIOB, GPIO_PIN_7);
 721              		.loc 1 87 13 is_stmt 1
 722 0128 130504C0 		addi	a0,s0,-1024
 723 012c 97000000 		call	gpio_bit_reset
 723      E7800000 
 724              	.LVL54:
 725 0134 71BF     		j	.L17
 726              	.L22:
  89:wifiServices.c ****             gpio_bit_set(GPIOB, GPIO_PIN_7);
 727              		.loc 1 89 13
 728 0136 130504C0 		addi	a0,s0,-1024
 729 013a 97000000 		call	gpio_bit_set
 729      E7800000 
 730              	.LVL55:
 731 0142 79B7     		j	.L17
 732              	.L21:
  92:wifiServices.c ****         else if (!strcmp(cmd, "addPlant"))
 733              		.loc 1 92 14
  92:wifiServices.c ****         else if (!strcmp(cmd, "addPlant"))
 734              		.loc 1 92 19 is_stmt 0
 735 0144 B7050000 		lui	a1,%hi(.LC13)
 736 0148 93850500 		addi	a1,a1,%lo(.LC13)
GAS LISTING /var/folders/rt/4gvqv631095f64jvm7jfj_000000gn/T//cc9RLqo0.s 			page 19


 737 014c 0818     		addi	a0,sp,48
 738 014e 97000000 		call	strcmp
 738      E7800000 
 739              	.LVL56:
  92:wifiServices.c ****         else if (!strcmp(cmd, "addPlant"))
 740              		.loc 1 92 17
 741 0156 63190510 		bne	a0,zero,.L23
 742              	.LBB13:
  94:wifiServices.c ****           char name[NAME_LENGTH];
 743              		.loc 1 94 11 is_stmt 1
  95:wifiServices.c ****           int idealMoist;
 744              		.loc 1 95 11
  96:wifiServices.c ****           int idealSun;
 745              		.loc 1 96 11
  97:wifiServices.c ****           int idealTemp;
 746              		.loc 1 97 11
  99:wifiServices.c ****           int lowMoist;
 747              		.loc 1 99 11
 100:wifiServices.c ****           int lowSun;
 748              		.loc 1 100 11
 101:wifiServices.c ****           int lowTemp;
 749              		.loc 1 101 11
 103:wifiServices.c ****           int highMoist;
 750              		.loc 1 103 11
 104:wifiServices.c ****           int highSun;
 751              		.loc 1 104 11
 105:wifiServices.c ****           int highTemp;
 752              		.loc 1 105 11
 107:wifiServices.c ****           char *ptr = strstr(commandBuffer, "\"name\":\"");
 753              		.loc 1 107 11
 107:wifiServices.c ****           char *ptr = strstr(commandBuffer, "\"name\":\"");
 754              		.loc 1 107 23 is_stmt 0
 755 015a B7050000 		lui	a1,%hi(.LC14)
 756 015e 93850500 		addi	a1,a1,%lo(.LC14)
 757 0162 13050400 		addi	a0,s0,%lo(commandBuffer)
 758 0166 97000000 		call	strstr
 758      E7800000 
 759              	.LVL57:
 108:wifiServices.c ****           if (ptr != NULL)
 760              		.loc 1 108 11 is_stmt 1
 108:wifiServices.c ****           if (ptr != NULL)
 761              		.loc 1 108 14 is_stmt 0
 762 016e 11C9     		beq	a0,zero,.L24
 110:wifiServices.c ****             sscanf(ptr, "\"name\":\"%[^\"]\"", name);
 763              		.loc 1 110 13 is_stmt 1
 764 0170 B7050000 		lui	a1,%hi(.LC15)
 765 0174 9000     		addi	a2,sp,64
 766 0176 93850500 		addi	a1,a1,%lo(.LC15)
 767 017a 97000000 		call	sscanf
 767      E7800000 
 768              	.LVL58:
 769              	.L24:
 113:wifiServices.c ****           idealMoist = getValue(commandBuffer, "idealMoist");
 770              		.loc 1 113 11 discriminator 2
 113:wifiServices.c ****           idealMoist = getValue(commandBuffer, "idealMoist");
 771              		.loc 1 113 24 is_stmt 0 discriminator 2
 772 0182 B7050000 		lui	a1,%hi(.LC16)
GAS LISTING /var/folders/rt/4gvqv631095f64jvm7jfj_000000gn/T//cc9RLqo0.s 			page 20


 773 0186 93850500 		addi	a1,a1,%lo(.LC16)
 774 018a 13050400 		addi	a0,s0,%lo(commandBuffer)
 775 018e 97000000 		call	getValue
 775      E7800000 
 776              	.LVL59:
 114:wifiServices.c ****           idealSun = getValue(commandBuffer, "idealSun");
 777              		.loc 1 114 22 discriminator 2
 778 0196 B7050000 		lui	a1,%hi(.LC17)
 113:wifiServices.c ****           idealMoist = getValue(commandBuffer, "idealMoist");
 779              		.loc 1 113 24 discriminator 2
 780 019a 2AD6     		sw	a0,44(sp)
 781              	.LVL60:
 114:wifiServices.c ****           idealSun = getValue(commandBuffer, "idealSun");
 782              		.loc 1 114 11 is_stmt 1 discriminator 2
 114:wifiServices.c ****           idealSun = getValue(commandBuffer, "idealSun");
 783              		.loc 1 114 22 is_stmt 0 discriminator 2
 784 019c 93850500 		addi	a1,a1,%lo(.LC17)
 785 01a0 13050400 		addi	a0,s0,%lo(commandBuffer)
 786              	.LVL61:
 787 01a4 97000000 		call	getValue
 787      E7800000 
 788              	.LVL62:
 115:wifiServices.c ****           idealTemp = getValue(commandBuffer, "idealTemp");
 789              		.loc 1 115 23 discriminator 2
 790 01ac B7050000 		lui	a1,%hi(.LC18)
 114:wifiServices.c ****           idealSun = getValue(commandBuffer, "idealSun");
 791              		.loc 1 114 22 discriminator 2
 792 01b0 2AD4     		sw	a0,40(sp)
 793              	.LVL63:
 115:wifiServices.c ****           idealTemp = getValue(commandBuffer, "idealTemp");
 794              		.loc 1 115 11 is_stmt 1 discriminator 2
 115:wifiServices.c ****           idealTemp = getValue(commandBuffer, "idealTemp");
 795              		.loc 1 115 23 is_stmt 0 discriminator 2
 796 01b2 93850500 		addi	a1,a1,%lo(.LC18)
 797 01b6 13050400 		addi	a0,s0,%lo(commandBuffer)
 798              	.LVL64:
 799 01ba 97000000 		call	getValue
 799      E7800000 
 800              	.LVL65:
 116:wifiServices.c ****           lowMoist = getValue(commandBuffer, "minMoist");
 801              		.loc 1 116 22 discriminator 2
 802 01c2 B7050000 		lui	a1,%hi(.LC19)
 115:wifiServices.c ****           idealTemp = getValue(commandBuffer, "idealTemp");
 803              		.loc 1 115 23 discriminator 2
 804 01c6 AA8A     		mv	s5,a0
 805              	.LVL66:
 116:wifiServices.c ****           lowMoist = getValue(commandBuffer, "minMoist");
 806              		.loc 1 116 11 is_stmt 1 discriminator 2
 116:wifiServices.c ****           lowMoist = getValue(commandBuffer, "minMoist");
 807              		.loc 1 116 22 is_stmt 0 discriminator 2
 808 01c8 93850500 		addi	a1,a1,%lo(.LC19)
 809 01cc 13050400 		addi	a0,s0,%lo(commandBuffer)
 810              	.LVL67:
 811 01d0 97000000 		call	getValue
 811      E7800000 
 812              	.LVL68:
 117:wifiServices.c ****           lowSun = getValue(commandBuffer, "minSun");
GAS LISTING /var/folders/rt/4gvqv631095f64jvm7jfj_000000gn/T//cc9RLqo0.s 			page 21


 813              		.loc 1 117 20 discriminator 2
 814 01d8 B7050000 		lui	a1,%hi(.LC20)
 116:wifiServices.c ****           lowMoist = getValue(commandBuffer, "minMoist");
 815              		.loc 1 116 22 discriminator 2
 816 01dc 2AD2     		sw	a0,36(sp)
 817              	.LVL69:
 117:wifiServices.c ****           lowSun = getValue(commandBuffer, "minSun");
 818              		.loc 1 117 11 is_stmt 1 discriminator 2
 117:wifiServices.c ****           lowSun = getValue(commandBuffer, "minSun");
 819              		.loc 1 117 20 is_stmt 0 discriminator 2
 820 01de 93850500 		addi	a1,a1,%lo(.LC20)
 821 01e2 13050400 		addi	a0,s0,%lo(commandBuffer)
 822              	.LVL70:
 823 01e6 97000000 		call	getValue
 823      E7800000 
 824              	.LVL71:
 118:wifiServices.c ****           lowTemp = getValue(commandBuffer, "minTemp");
 825              		.loc 1 118 21 discriminator 2
 826 01ee B7050000 		lui	a1,%hi(.LC21)
 117:wifiServices.c ****           lowSun = getValue(commandBuffer, "minSun");
 827              		.loc 1 117 20 discriminator 2
 828 01f2 2AD0     		sw	a0,32(sp)
 829              	.LVL72:
 118:wifiServices.c ****           lowTemp = getValue(commandBuffer, "minTemp");
 830              		.loc 1 118 11 is_stmt 1 discriminator 2
 118:wifiServices.c ****           lowTemp = getValue(commandBuffer, "minTemp");
 831              		.loc 1 118 21 is_stmt 0 discriminator 2
 832 01f4 93850500 		addi	a1,a1,%lo(.LC21)
 833 01f8 13050400 		addi	a0,s0,%lo(commandBuffer)
 834              	.LVL73:
 835 01fc 97000000 		call	getValue
 835      E7800000 
 836              	.LVL74:
 119:wifiServices.c ****           highMoist = getValue(commandBuffer, "maxMoist");
 837              		.loc 1 119 23 discriminator 2
 838 0204 B7050000 		lui	a1,%hi(.LC22)
 118:wifiServices.c ****           lowTemp = getValue(commandBuffer, "minTemp");
 839              		.loc 1 118 21 discriminator 2
 840 0208 2A8B     		mv	s6,a0
 841              	.LVL75:
 119:wifiServices.c ****           highMoist = getValue(commandBuffer, "maxMoist");
 842              		.loc 1 119 11 is_stmt 1 discriminator 2
 119:wifiServices.c ****           highMoist = getValue(commandBuffer, "maxMoist");
 843              		.loc 1 119 23 is_stmt 0 discriminator 2
 844 020a 93850500 		addi	a1,a1,%lo(.LC22)
 845 020e 13050400 		addi	a0,s0,%lo(commandBuffer)
 846              	.LVL76:
 847 0212 97000000 		call	getValue
 847      E7800000 
 848              	.LVL77:
 120:wifiServices.c ****           highSun = getValue(commandBuffer, "maxSun");
 849              		.loc 1 120 21 discriminator 2
 850 021a B7050000 		lui	a1,%hi(.LC23)
 119:wifiServices.c ****           highMoist = getValue(commandBuffer, "maxMoist");
 851              		.loc 1 119 23 discriminator 2
 852 021e 2ACE     		sw	a0,28(sp)
 853              	.LVL78:
GAS LISTING /var/folders/rt/4gvqv631095f64jvm7jfj_000000gn/T//cc9RLqo0.s 			page 22


 120:wifiServices.c ****           highSun = getValue(commandBuffer, "maxSun");
 854              		.loc 1 120 11 is_stmt 1 discriminator 2
 120:wifiServices.c ****           highSun = getValue(commandBuffer, "maxSun");
 855              		.loc 1 120 21 is_stmt 0 discriminator 2
 856 0220 93850500 		addi	a1,a1,%lo(.LC23)
 857 0224 13050400 		addi	a0,s0,%lo(commandBuffer)
 858              	.LVL79:
 859 0228 97000000 		call	getValue
 859      E7800000 
 860              	.LVL80:
 121:wifiServices.c ****           highTemp = getValue(commandBuffer, "maxTemp");
 861              		.loc 1 121 22 discriminator 2
 862 0230 B7050000 		lui	a1,%hi(.LC24)
 120:wifiServices.c ****           highSun = getValue(commandBuffer, "maxSun");
 863              		.loc 1 120 21 discriminator 2
 864 0234 2A8A     		mv	s4,a0
 865              	.LVL81:
 121:wifiServices.c ****           highTemp = getValue(commandBuffer, "maxTemp");
 866              		.loc 1 121 11 is_stmt 1 discriminator 2
 121:wifiServices.c ****           highTemp = getValue(commandBuffer, "maxTemp");
 867              		.loc 1 121 22 is_stmt 0 discriminator 2
 868 0236 93850500 		addi	a1,a1,%lo(.LC24)
 869 023a 13050400 		addi	a0,s0,%lo(commandBuffer)
 870              	.LVL82:
 871 023e 97000000 		call	getValue
 871      E7800000 
 872              	.LVL83:
 122:wifiServices.c ****           initPlant(name, numberOfPlants, allPlants,
 873              		.loc 1 122 11 is_stmt 1 discriminator 2
 874 0246 8258     		lw	a7,32(sp)
 875 0248 2258     		lw	a6,40(sp)
 876 024a F247     		lw	a5,28(sp)
 877 024c 1257     		lw	a4,36(sp)
 878 024e B256     		lw	a3,44(sp)
 879 0250 2AC6     		sw	a0,12(sp)
 880 0252 5AC4     		sw	s6,8(sp)
 881 0254 56C2     		sw	s5,4(sp)
 882 0256 52C0     		sw	s4,0(sp)
 883 0258 2686     		mv	a2,s1
 884 025a CA85     		mv	a1,s2
 885 025c 8800     		addi	a0,sp,64
 886              	.LVL84:
 887 025e 97000000 		call	initPlant
 887      E7800000 
 888              	.LVL85:
 889              	.LBE13:
 890 0266 ADB5     		j	.L17
 891              	.LVL86:
 892              	.L23:
 129:wifiServices.c ****           LCD_Clear(BLACK);
 893              		.loc 1 129 11
 894 0268 0145     		li	a0,0
 895 026a 97000000 		call	LCD_Clear
 895      E7800000 
 896              	.LVL87:
 130:wifiServices.c ****           LCD_ShowStr(10, 10, "HTTP_500:", RED, TRANSPARENT);
 897              		.loc 1 130 11
GAS LISTING /var/folders/rt/4gvqv631095f64jvm7jfj_000000gn/T//cc9RLqo0.s 			page 23


 898 0272 C164     		li	s1,65536
 899              	.LVL88:
 900 0274 37060000 		lui	a2,%hi(.LC25)
 901 0278 0547     		li	a4,1
 902 027a 93860480 		addi	a3,s1,-2048
 903 027e 13060600 		addi	a2,a2,%lo(.LC25)
 904 0282 A945     		li	a1,10
 905 0284 2945     		li	a0,10
 906 0286 97000000 		call	LCD_ShowStr
 906      E7800000 
 907              	.LVL89:
 131:wifiServices.c ****           LCD_ShowStr(10, 23, (char *)commandBuffer, WHITE, TRANSPARENT);
 908              		.loc 1 131 11
 909 028e 2945     		li	a0,10
 910 0290 0547     		li	a4,1
 911 0292 9386F4FF 		addi	a3,s1,-1
 912 0296 13060400 		addi	a2,s0,%lo(commandBuffer)
 913 029a DD45     		li	a1,23
 914 029c 97000000 		call	LCD_ShowStr
 914      E7800000 
 915              	.LVL90:
 132:wifiServices.c ****           putstr((char *)commandBuffer);
 916              		.loc 1 132 11
 917 02a4 13050400 		addi	a0,s0,%lo(commandBuffer)
 918 02a8 D9BB     		j	.L34
 919              	.LVL91:
 920              	.L15:
 921              	.LBE14:
  63:wifiServices.c ****   for (int j = 0; j < commandBufferIndex; j++)
 922              		.loc 1 63 44 is_stmt 0 discriminator 2
 923 02aa 8507     		addi	a5,a5,1
 924              	.LVL92:
 925 02ac 69B3     		j	.L14
 926              	.LBE17:
 927              		.cfi_endproc
 928              	.LFE7:
 930              		.section	.rodata.getValue.str1.4,"aMS",@progbits,1
 931              		.align	2
 932              	.LC7:
 933 0000 22257322 		.string	"\"%s\":"
 933      3A00
 934              		.section	.rodata.jsonAllPlants.str1.4,"aMS",@progbits,1
 935              		.align	2
 936              	.LC0:
 937 0000 5B00     		.string	"["
 938 0002 0000     		.zero	2
 939              	.LC1:
 940 0004 2C00     		.string	","
 941 0006 0000     		.zero	2
 942              	.LC2:
 943 0008 7B226E61 		.string	"{\"name\":\"%s\",\"status\":\"%s\",\"currentSun\":%d,\"currentMoist\":%d,\"currentTemp\":
 943      6D65223A 
 943      22257322 
 943      2C227374 
 943      61747573 
 944              	.LC3:
 945 00e0 256400   		.string	"%d"
GAS LISTING /var/folders/rt/4gvqv631095f64jvm7jfj_000000gn/T//cc9RLqo0.s 			page 24


 946 00e3 00       		.zero	1
 947              	.LC4:
 948 00e4 5D00     		.string	"]"
 949 00e6 0000     		.zero	2
 950              	.LC5:
 951 00e8 7D00     		.string	"}"
 952 00ea 0000     		.zero	2
 953              	.LC6:
 954 00ec 5D0A00   		.string	"]\n"
 955              		.section	.rodata.receiveCommands.str1.4,"aMS",@progbits,1
 956              		.align	2
 957              	.LC8:
 958 0000 67657441 		.string	"getAllPlants"
 958      6C6C506C 
 958      616E7473 
 958      00
 959 000d 000000   		.zero	3
 960              	.LC9:
 961 0010 22636D64 		.string	"\"cmd\":\""
 961      223A2200 
 962              	.LC10:
 963 0018 22636D64 		.string	"\"cmd\":\"%14[^\"]\""
 963      223A2225 
 963      31345B5E 
 963      225D2200 
 964              	.LC11:
 965 0028 73746172 		.string	"startPump"
 965      7450756D 
 965      7000
 966 0032 0000     		.zero	2
 967              	.LC12:
 968 0034 73746172 		.string	"startLamp"
 968      744C616D 
 968      7000
 969 003e 0000     		.zero	2
 970              	.LC13:
 971 0040 61646450 		.string	"addPlant"
 971      6C616E74 
 971      00
 972 0049 000000   		.zero	3
 973              	.LC14:
 974 004c 226E616D 		.string	"\"name\":\""
 974      65223A22 
 974      00
 975 0055 000000   		.zero	3
 976              	.LC15:
 977 0058 226E616D 		.string	"\"name\":\"%[^\"]\""
 977      65223A22 
 977      255B5E22 
 977      5D2200
 978 0067 00       		.zero	1
 979              	.LC16:
 980 0068 69646561 		.string	"idealMoist"
 980      6C4D6F69 
 980      737400
 981 0073 00       		.zero	1
 982              	.LC17:
GAS LISTING /var/folders/rt/4gvqv631095f64jvm7jfj_000000gn/T//cc9RLqo0.s 			page 25


 983 0074 69646561 		.string	"idealSun"
 983      6C53756E 
 983      00
 984 007d 000000   		.zero	3
 985              	.LC18:
 986 0080 69646561 		.string	"idealTemp"
 986      6C54656D 
 986      7000
 987 008a 0000     		.zero	2
 988              	.LC19:
 989 008c 6D696E4D 		.string	"minMoist"
 989      6F697374 
 989      00
 990 0095 000000   		.zero	3
 991              	.LC20:
 992 0098 6D696E53 		.string	"minSun"
 992      756E00
 993 009f 00       		.zero	1
 994              	.LC21:
 995 00a0 6D696E54 		.string	"minTemp"
 995      656D7000 
 996              	.LC22:
 997 00a8 6D61784D 		.string	"maxMoist"
 997      6F697374 
 997      00
 998 00b1 000000   		.zero	3
 999              	.LC23:
 1000 00b4 6D617853 		.string	"maxSun"
 1000      756E00
 1001 00bb 00       		.zero	1
 1002              	.LC24:
 1003 00bc 6D617854 		.string	"maxTemp"
 1003      656D7000 
 1004              	.LC25:
 1005 00c4 48545450 		.string	"HTTP_500:"
 1005      5F353030 
 1005      3A00
 1006              		.text
 1007              	.Letext0:
 1008              		.file 2 "/Users/alexstrae/toolchain-gd32v-v202-osx/compiler/lib/gcc/riscv64-unknown-elf/8.3.0/incl
 1009              		.file 3 "/Users/alexstrae/toolchain-gd32v-v202-osx/compiler/riscv64-unknown-elf/include/machine/_d
 1010              		.file 4 "/Users/alexstrae/toolchain-gd32v-v202-osx/compiler/riscv64-unknown-elf/include/sys/_types
 1011              		.file 5 "/Users/alexstrae/toolchain-gd32v-v202-osx/compiler/riscv64-unknown-elf/include/sys/reent.
 1012              		.file 6 "/Users/alexstrae/toolchain-gd32v-v202-osx/compiler/riscv64-unknown-elf/include/sys/lock.h
 1013              		.file 7 "/Users/alexstrae/toolchain-gd32v-v202-osx/compiler/riscv64-unknown-elf/include/stdlib.h"
 1014              		.file 8 "/Users/alexstrae/toolchain-gd32v-v202-osx/compiler/riscv64-unknown-elf/include/sys/_stdin
 1015              		.file 9 "../../firmware/GD32VF103_standard_peripheral/system_gd32vf103.h"
 1016              		.file 10 "lib/lcd/include/lcd.h"
 1017              		.file 11 "plant.h"
 1018              		.file 12 "usart.h"
 1019              		.file 13 "/Users/alexstrae/toolchain-gd32v-v202-osx/compiler/riscv64-unknown-elf/include/stdio.h"
 1020              		.file 14 "/Users/alexstrae/toolchain-gd32v-v202-osx/compiler/riscv64-unknown-elf/include/string.h"
 1021              		.file 15 "adc.h"
 1022              		.file 16 "../../firmware/GD32VF103_standard_peripheral/Include/gd32vf103_gpio.h"
GAS LISTING /var/folders/rt/4gvqv631095f64jvm7jfj_000000gn/T//cc9RLqo0.s 			page 26


DEFINED SYMBOLS
                            *ABS*:0000000000000000 wifiServices.c
/var/folders/rt/4gvqv631095f64jvm7jfj_000000gn/T//cc9RLqo0.s:13     .text.jsonAllPlants:0000000000000000 jsonAllPlants
/var/folders/rt/4gvqv631095f64jvm7jfj_000000gn/T//cc9RLqo0.s:17     .text.jsonAllPlants:0000000000000000 .L0 
/var/folders/rt/4gvqv631095f64jvm7jfj_000000gn/T//cc9RLqo0.s:19     .text.jsonAllPlants:0000000000000000 .L0 
/var/folders/rt/4gvqv631095f64jvm7jfj_000000gn/T//cc9RLqo0.s:20     .text.jsonAllPlants:0000000000000000 .L0 
/var/folders/rt/4gvqv631095f64jvm7jfj_000000gn/T//cc9RLqo0.s:21     .text.jsonAllPlants:0000000000000000 .L0 
/var/folders/rt/4gvqv631095f64jvm7jfj_000000gn/T//cc9RLqo0.s:22     .text.jsonAllPlants:0000000000000000 .L0 
/var/folders/rt/4gvqv631095f64jvm7jfj_000000gn/T//cc9RLqo0.s:24     .text.jsonAllPlants:0000000000000002 .L0 
/var/folders/rt/4gvqv631095f64jvm7jfj_000000gn/T//cc9RLqo0.s:26     .text.jsonAllPlants:0000000000000004 .L0 
/var/folders/rt/4gvqv631095f64jvm7jfj_000000gn/T//cc9RLqo0.s:29     .text.jsonAllPlants:0000000000000006 .L0 
/var/folders/rt/4gvqv631095f64jvm7jfj_000000gn/T//cc9RLqo0.s:33     .text.jsonAllPlants:000000000000000e .L0 
/var/folders/rt/4gvqv631095f64jvm7jfj_000000gn/T//cc9RLqo0.s:45     .text.jsonAllPlants:0000000000000026 .L0 
/var/folders/rt/4gvqv631095f64jvm7jfj_000000gn/T//cc9RLqo0.s:46     .text.jsonAllPlants:0000000000000026 .L0 
/var/folders/rt/4gvqv631095f64jvm7jfj_000000gn/T//cc9RLqo0.s:47     .text.jsonAllPlants:0000000000000026 .L0 
/var/folders/rt/4gvqv631095f64jvm7jfj_000000gn/T//cc9RLqo0.s:48     .text.jsonAllPlants:0000000000000026 .L0 
/var/folders/rt/4gvqv631095f64jvm7jfj_000000gn/T//cc9RLqo0.s:49     .text.jsonAllPlants:0000000000000026 .L0 
/var/folders/rt/4gvqv631095f64jvm7jfj_000000gn/T//cc9RLqo0.s:50     .text.jsonAllPlants:0000000000000026 .L0 
/var/folders/rt/4gvqv631095f64jvm7jfj_000000gn/T//cc9RLqo0.s:51     .text.jsonAllPlants:0000000000000026 .L0 
/var/folders/rt/4gvqv631095f64jvm7jfj_000000gn/T//cc9RLqo0.s:52     .text.jsonAllPlants:0000000000000026 .L0 
/var/folders/rt/4gvqv631095f64jvm7jfj_000000gn/T//cc9RLqo0.s:53     .text.jsonAllPlants:0000000000000026 .L0 
/var/folders/rt/4gvqv631095f64jvm7jfj_000000gn/T//cc9RLqo0.s:54     .text.jsonAllPlants:0000000000000026 .L0 
/var/folders/rt/4gvqv631095f64jvm7jfj_000000gn/T//cc9RLqo0.s:55     .text.jsonAllPlants:0000000000000026 .L0 
/var/folders/rt/4gvqv631095f64jvm7jfj_000000gn/T//cc9RLqo0.s:56     .text.jsonAllPlants:0000000000000026 .L0 
/var/folders/rt/4gvqv631095f64jvm7jfj_000000gn/T//cc9RLqo0.s:58     .text.jsonAllPlants:0000000000000026 .L0 
/var/folders/rt/4gvqv631095f64jvm7jfj_000000gn/T//cc9RLqo0.s:63     .text.jsonAllPlants:000000000000002c .L0 
/var/folders/rt/4gvqv631095f64jvm7jfj_000000gn/T//cc9RLqo0.s:66     .text.jsonAllPlants:000000000000002e .L0 
/var/folders/rt/4gvqv631095f64jvm7jfj_000000gn/T//cc9RLqo0.s:70     .text.jsonAllPlants:0000000000000036 .L0 
/var/folders/rt/4gvqv631095f64jvm7jfj_000000gn/T//cc9RLqo0.s:72     .text.jsonAllPlants:0000000000000036 .L0 
/var/folders/rt/4gvqv631095f64jvm7jfj_000000gn/T//cc9RLqo0.s:73     .text.jsonAllPlants:0000000000000036 .L0 
/var/folders/rt/4gvqv631095f64jvm7jfj_000000gn/T//cc9RLqo0.s:76     .text.jsonAllPlants:0000000000000038 .L0 
/var/folders/rt/4gvqv631095f64jvm7jfj_000000gn/T//cc9RLqo0.s:78     .text.jsonAllPlants:000000000000003c .L0 
/var/folders/rt/4gvqv631095f64jvm7jfj_000000gn/T//cc9RLqo0.s:81     .text.jsonAllPlants:0000000000000040 .L0 
/var/folders/rt/4gvqv631095f64jvm7jfj_000000gn/T//cc9RLqo0.s:84     .text.jsonAllPlants:0000000000000044 .L0 
/var/folders/rt/4gvqv631095f64jvm7jfj_000000gn/T//cc9RLqo0.s:86     .text.jsonAllPlants:0000000000000048 .L0 
/var/folders/rt/4gvqv631095f64jvm7jfj_000000gn/T//cc9RLqo0.s:92     .text.jsonAllPlants:0000000000000054 .L0 
/var/folders/rt/4gvqv631095f64jvm7jfj_000000gn/T//cc9RLqo0.s:95     .text.jsonAllPlants:0000000000000058 .L0 
/var/folders/rt/4gvqv631095f64jvm7jfj_000000gn/T//cc9RLqo0.s:96     .text.jsonAllPlants:0000000000000058 .L0 
/var/folders/rt/4gvqv631095f64jvm7jfj_000000gn/T//cc9RLqo0.s:97     .text.jsonAllPlants:000000000000005a .L0 
/var/folders/rt/4gvqv631095f64jvm7jfj_000000gn/T//cc9RLqo0.s:98     .text.jsonAllPlants:000000000000005a .L0 
/var/folders/rt/4gvqv631095f64jvm7jfj_000000gn/T//cc9RLqo0.s:100    .text.jsonAllPlants:000000000000005c .L0 
/var/folders/rt/4gvqv631095f64jvm7jfj_000000gn/T//cc9RLqo0.s:102    .text.jsonAllPlants:000000000000005e .L0 
/var/folders/rt/4gvqv631095f64jvm7jfj_000000gn/T//cc9RLqo0.s:105    .text.jsonAllPlants:0000000000000060 .L0 
/var/folders/rt/4gvqv631095f64jvm7jfj_000000gn/T//cc9RLqo0.s:108    .text.jsonAllPlants:0000000000000062 .L0 
/var/folders/rt/4gvqv631095f64jvm7jfj_000000gn/T//cc9RLqo0.s:111    .text.jsonAllPlants:0000000000000064 .L0 
/var/folders/rt/4gvqv631095f64jvm7jfj_000000gn/T//cc9RLqo0.s:114    .text.jsonAllPlants:0000000000000066 .L0 
/var/folders/rt/4gvqv631095f64jvm7jfj_000000gn/T//cc9RLqo0.s:116    .text.jsonAllPlants:0000000000000068 .L0 
/var/folders/rt/4gvqv631095f64jvm7jfj_000000gn/T//cc9RLqo0.s:119    .text.jsonAllPlants:000000000000006a .L0 
/var/folders/rt/4gvqv631095f64jvm7jfj_000000gn/T//cc9RLqo0.s:121    .text.jsonAllPlants:000000000000006c .L0 
/var/folders/rt/4gvqv631095f64jvm7jfj_000000gn/T//cc9RLqo0.s:123    .text.jsonAllPlants:000000000000006e .L0 
/var/folders/rt/4gvqv631095f64jvm7jfj_000000gn/T//cc9RLqo0.s:125    .text.jsonAllPlants:0000000000000070 .L0 
/var/folders/rt/4gvqv631095f64jvm7jfj_000000gn/T//cc9RLqo0.s:127    .text.jsonAllPlants:0000000000000072 .L0 
/var/folders/rt/4gvqv631095f64jvm7jfj_000000gn/T//cc9RLqo0.s:129    .text.jsonAllPlants:0000000000000072 .L0 
/var/folders/rt/4gvqv631095f64jvm7jfj_000000gn/T//cc9RLqo0.s:131    .text.jsonAllPlants:0000000000000076 .L0 
/var/folders/rt/4gvqv631095f64jvm7jfj_000000gn/T//cc9RLqo0.s:132    .text.jsonAllPlants:0000000000000076 .L0 
/var/folders/rt/4gvqv631095f64jvm7jfj_000000gn/T//cc9RLqo0.s:134    .text.jsonAllPlants:000000000000007a .L0 
/var/folders/rt/4gvqv631095f64jvm7jfj_000000gn/T//cc9RLqo0.s:136    .text.jsonAllPlants:000000000000007c .L0 
GAS LISTING /var/folders/rt/4gvqv631095f64jvm7jfj_000000gn/T//cc9RLqo0.s 			page 27


/var/folders/rt/4gvqv631095f64jvm7jfj_000000gn/T//cc9RLqo0.s:138    .text.jsonAllPlants:000000000000007c .L0 
/var/folders/rt/4gvqv631095f64jvm7jfj_000000gn/T//cc9RLqo0.s:142    .text.jsonAllPlants:0000000000000084 .L0 
/var/folders/rt/4gvqv631095f64jvm7jfj_000000gn/T//cc9RLqo0.s:145    .text.jsonAllPlants:0000000000000084 .L0 
/var/folders/rt/4gvqv631095f64jvm7jfj_000000gn/T//cc9RLqo0.s:146    .text.jsonAllPlants:0000000000000084 .L0 
/var/folders/rt/4gvqv631095f64jvm7jfj_000000gn/T//cc9RLqo0.s:148    .text.jsonAllPlants:0000000000000088 .L0 
/var/folders/rt/4gvqv631095f64jvm7jfj_000000gn/T//cc9RLqo0.s:149    .text.jsonAllPlants:0000000000000088 .L0 
/var/folders/rt/4gvqv631095f64jvm7jfj_000000gn/T//cc9RLqo0.s:153    .text.jsonAllPlants:0000000000000094 .L0 
/var/folders/rt/4gvqv631095f64jvm7jfj_000000gn/T//cc9RLqo0.s:157    .text.jsonAllPlants:0000000000000096 .L0 
/var/folders/rt/4gvqv631095f64jvm7jfj_000000gn/T//cc9RLqo0.s:158    .text.jsonAllPlants:0000000000000096 .L0 
/var/folders/rt/4gvqv631095f64jvm7jfj_000000gn/T//cc9RLqo0.s:161    .text.jsonAllPlants:000000000000009e .L0 
/var/folders/rt/4gvqv631095f64jvm7jfj_000000gn/T//cc9RLqo0.s:163    .text.jsonAllPlants:00000000000000a2 .L0 
/var/folders/rt/4gvqv631095f64jvm7jfj_000000gn/T//cc9RLqo0.s:167    .text.jsonAllPlants:00000000000000aa .L0 
/var/folders/rt/4gvqv631095f64jvm7jfj_000000gn/T//cc9RLqo0.s:170    .text.jsonAllPlants:00000000000000ac .L0 
/var/folders/rt/4gvqv631095f64jvm7jfj_000000gn/T//cc9RLqo0.s:173    .text.jsonAllPlants:00000000000000ae .L0 
/var/folders/rt/4gvqv631095f64jvm7jfj_000000gn/T//cc9RLqo0.s:179    .text.jsonAllPlants:00000000000000ba .L0 
/var/folders/rt/4gvqv631095f64jvm7jfj_000000gn/T//cc9RLqo0.s:185    .text.jsonAllPlants:00000000000000ca .L0 
/var/folders/rt/4gvqv631095f64jvm7jfj_000000gn/T//cc9RLqo0.s:187    .text.jsonAllPlants:00000000000000ce .L0 
/var/folders/rt/4gvqv631095f64jvm7jfj_000000gn/T//cc9RLqo0.s:191    .text.jsonAllPlants:00000000000000d8 .L0 
/var/folders/rt/4gvqv631095f64jvm7jfj_000000gn/T//cc9RLqo0.s:193    .text.jsonAllPlants:00000000000000da .L0 
/var/folders/rt/4gvqv631095f64jvm7jfj_000000gn/T//cc9RLqo0.s:197    .text.jsonAllPlants:00000000000000e4 .L0 
/var/folders/rt/4gvqv631095f64jvm7jfj_000000gn/T//cc9RLqo0.s:199    .text.jsonAllPlants:00000000000000e8 .L0 
/var/folders/rt/4gvqv631095f64jvm7jfj_000000gn/T//cc9RLqo0.s:201    .text.jsonAllPlants:00000000000000ea .L0 
/var/folders/rt/4gvqv631095f64jvm7jfj_000000gn/T//cc9RLqo0.s:204    .text.jsonAllPlants:00000000000000f0 .L0 
/var/folders/rt/4gvqv631095f64jvm7jfj_000000gn/T//cc9RLqo0.s:207    .text.jsonAllPlants:00000000000000f8 .L0 
/var/folders/rt/4gvqv631095f64jvm7jfj_000000gn/T//cc9RLqo0.s:213    .text.jsonAllPlants:0000000000000104 .L0 
/var/folders/rt/4gvqv631095f64jvm7jfj_000000gn/T//cc9RLqo0.s:219    .text.jsonAllPlants:0000000000000112 .L0 
/var/folders/rt/4gvqv631095f64jvm7jfj_000000gn/T//cc9RLqo0.s:221    .text.jsonAllPlants:0000000000000116 .L0 
/var/folders/rt/4gvqv631095f64jvm7jfj_000000gn/T//cc9RLqo0.s:228    .text.jsonAllPlants:000000000000012a .L0 
/var/folders/rt/4gvqv631095f64jvm7jfj_000000gn/T//cc9RLqo0.s:230    .text.jsonAllPlants:000000000000012e .L0 
/var/folders/rt/4gvqv631095f64jvm7jfj_000000gn/T//cc9RLqo0.s:232    .text.jsonAllPlants:0000000000000130 .L0 
/var/folders/rt/4gvqv631095f64jvm7jfj_000000gn/T//cc9RLqo0.s:236    .text.jsonAllPlants:0000000000000138 .L0 
/var/folders/rt/4gvqv631095f64jvm7jfj_000000gn/T//cc9RLqo0.s:239    .text.jsonAllPlants:0000000000000140 .L0 
/var/folders/rt/4gvqv631095f64jvm7jfj_000000gn/T//cc9RLqo0.s:245    .text.jsonAllPlants:000000000000014c .L0 
/var/folders/rt/4gvqv631095f64jvm7jfj_000000gn/T//cc9RLqo0.s:361    .text.jsonAllPlants:0000000000000288 .L0 
/var/folders/rt/4gvqv631095f64jvm7jfj_000000gn/T//cc9RLqo0.s:365    .text.jsonAllPlants:000000000000028a .L0 
/var/folders/rt/4gvqv631095f64jvm7jfj_000000gn/T//cc9RLqo0.s:367    .text.jsonAllPlants:000000000000028a .L0 
/var/folders/rt/4gvqv631095f64jvm7jfj_000000gn/T//cc9RLqo0.s:368    .text.jsonAllPlants:000000000000028a .L0 
/var/folders/rt/4gvqv631095f64jvm7jfj_000000gn/T//cc9RLqo0.s:381    .text.jsonAllPlants:00000000000002ae .L0 
/var/folders/rt/4gvqv631095f64jvm7jfj_000000gn/T//cc9RLqo0.s:384    .text.jsonAllPlants:00000000000002b2 .L0 
/var/folders/rt/4gvqv631095f64jvm7jfj_000000gn/T//cc9RLqo0.s:385    .text.jsonAllPlants:00000000000002b2 .L0 
/var/folders/rt/4gvqv631095f64jvm7jfj_000000gn/T//cc9RLqo0.s:389    .text.jsonAllPlants:00000000000002be .L0 
/var/folders/rt/4gvqv631095f64jvm7jfj_000000gn/T//cc9RLqo0.s:390    .text.jsonAllPlants:00000000000002be .L0 
/var/folders/rt/4gvqv631095f64jvm7jfj_000000gn/T//cc9RLqo0.s:393    .text.jsonAllPlants:00000000000002c2 .L0 
/var/folders/rt/4gvqv631095f64jvm7jfj_000000gn/T//cc9RLqo0.s:400    .text.jsonAllPlants:00000000000002d4 .L0 
/var/folders/rt/4gvqv631095f64jvm7jfj_000000gn/T//cc9RLqo0.s:403    .text.jsonAllPlants:00000000000002d6 .L0 
/var/folders/rt/4gvqv631095f64jvm7jfj_000000gn/T//cc9RLqo0.s:410    .text.jsonAllPlants:00000000000002de .L0 
/var/folders/rt/4gvqv631095f64jvm7jfj_000000gn/T//cc9RLqo0.s:411    .text.jsonAllPlants:00000000000002de .L0 
/var/folders/rt/4gvqv631095f64jvm7jfj_000000gn/T//cc9RLqo0.s:413    .text.jsonAllPlants:00000000000002e2 .L0 
/var/folders/rt/4gvqv631095f64jvm7jfj_000000gn/T//cc9RLqo0.s:414    .text.jsonAllPlants:00000000000002e2 .L0 
/var/folders/rt/4gvqv631095f64jvm7jfj_000000gn/T//cc9RLqo0.s:418    .text.jsonAllPlants:00000000000002ee .L0 
/var/folders/rt/4gvqv631095f64jvm7jfj_000000gn/T//cc9RLqo0.s:422    .text.jsonAllPlants:00000000000002f0 .L0 
/var/folders/rt/4gvqv631095f64jvm7jfj_000000gn/T//cc9RLqo0.s:423    .text.jsonAllPlants:00000000000002f0 .L0 
/var/folders/rt/4gvqv631095f64jvm7jfj_000000gn/T//cc9RLqo0.s:438    .text.jsonAllPlants:000000000000031c .L0 
/var/folders/rt/4gvqv631095f64jvm7jfj_000000gn/T//cc9RLqo0.s:441    .text.jsonAllPlants:000000000000031e .L0 
/var/folders/rt/4gvqv631095f64jvm7jfj_000000gn/T//cc9RLqo0.s:446    .text.jsonAllPlants:000000000000032a .L0 
/var/folders/rt/4gvqv631095f64jvm7jfj_000000gn/T//cc9RLqo0.s:451    .text.jsonAllPlants:000000000000032e .L0 
/var/folders/rt/4gvqv631095f64jvm7jfj_000000gn/T//cc9RLqo0.s:458    .text.getValue:0000000000000000 getValue
GAS LISTING /var/folders/rt/4gvqv631095f64jvm7jfj_000000gn/T//cc9RLqo0.s 			page 28


/var/folders/rt/4gvqv631095f64jvm7jfj_000000gn/T//cc9RLqo0.s:461    .text.getValue:0000000000000000 .L0 
/var/folders/rt/4gvqv631095f64jvm7jfj_000000gn/T//cc9RLqo0.s:463    .text.getValue:0000000000000000 .L0 
/var/folders/rt/4gvqv631095f64jvm7jfj_000000gn/T//cc9RLqo0.s:464    .text.getValue:0000000000000000 .L0 
/var/folders/rt/4gvqv631095f64jvm7jfj_000000gn/T//cc9RLqo0.s:465    .text.getValue:0000000000000000 .L0 
/var/folders/rt/4gvqv631095f64jvm7jfj_000000gn/T//cc9RLqo0.s:466    .text.getValue:0000000000000000 .L0 
/var/folders/rt/4gvqv631095f64jvm7jfj_000000gn/T//cc9RLqo0.s:468    .text.getValue:0000000000000002 .L0 
/var/folders/rt/4gvqv631095f64jvm7jfj_000000gn/T//cc9RLqo0.s:470    .text.getValue:0000000000000002 .L0 
/var/folders/rt/4gvqv631095f64jvm7jfj_000000gn/T//cc9RLqo0.s:474    .text.getValue:0000000000000008 .L0 
/var/folders/rt/4gvqv631095f64jvm7jfj_000000gn/T//cc9RLqo0.s:476    .text.getValue:000000000000000a .L0 
/var/folders/rt/4gvqv631095f64jvm7jfj_000000gn/T//cc9RLqo0.s:477    .text.getValue:000000000000000e .L0 
/var/folders/rt/4gvqv631095f64jvm7jfj_000000gn/T//cc9RLqo0.s:479    .text.getValue:000000000000000e .L0 
/var/folders/rt/4gvqv631095f64jvm7jfj_000000gn/T//cc9RLqo0.s:481    .text.getValue:0000000000000010 .L0 
/var/folders/rt/4gvqv631095f64jvm7jfj_000000gn/T//cc9RLqo0.s:484    .text.getValue:0000000000000012 .L0 
/var/folders/rt/4gvqv631095f64jvm7jfj_000000gn/T//cc9RLqo0.s:485    .text.getValue:0000000000000014 .L0 
/var/folders/rt/4gvqv631095f64jvm7jfj_000000gn/T//cc9RLqo0.s:487    .text.getValue:0000000000000014 .L0 
/var/folders/rt/4gvqv631095f64jvm7jfj_000000gn/T//cc9RLqo0.s:490    .text.getValue:000000000000001c .L0 
/var/folders/rt/4gvqv631095f64jvm7jfj_000000gn/T//cc9RLqo0.s:491    .text.getValue:000000000000001c .L0 
/var/folders/rt/4gvqv631095f64jvm7jfj_000000gn/T//cc9RLqo0.s:496    .text.getValue:0000000000000028 .L0 
/var/folders/rt/4gvqv631095f64jvm7jfj_000000gn/T//cc9RLqo0.s:497    .text.getValue:0000000000000028 .L0 
/var/folders/rt/4gvqv631095f64jvm7jfj_000000gn/T//cc9RLqo0.s:501    .text.getValue:000000000000002c .L0 
/var/folders/rt/4gvqv631095f64jvm7jfj_000000gn/T//cc9RLqo0.s:502    .text.getValue:000000000000002c .L0 
/var/folders/rt/4gvqv631095f64jvm7jfj_000000gn/T//cc9RLqo0.s:507    .text.getValue:0000000000000036 .L0 
/var/folders/rt/4gvqv631095f64jvm7jfj_000000gn/T//cc9RLqo0.s:508    .text.getValue:0000000000000036 .L0 
/var/folders/rt/4gvqv631095f64jvm7jfj_000000gn/T//cc9RLqo0.s:514    .text.getValue:0000000000000040 .L0 
/var/folders/rt/4gvqv631095f64jvm7jfj_000000gn/T//cc9RLqo0.s:515    .text.getValue:0000000000000042 .L0 
/var/folders/rt/4gvqv631095f64jvm7jfj_000000gn/T//cc9RLqo0.s:516    .text.getValue:0000000000000042 .L0 
/var/folders/rt/4gvqv631095f64jvm7jfj_000000gn/T//cc9RLqo0.s:518    .text.getValue:0000000000000044 .L0 
/var/folders/rt/4gvqv631095f64jvm7jfj_000000gn/T//cc9RLqo0.s:521    .text.getValue:0000000000000046 .L0 
/var/folders/rt/4gvqv631095f64jvm7jfj_000000gn/T//cc9RLqo0.s:526    .text.getValue:0000000000000048 .L0 
/var/folders/rt/4gvqv631095f64jvm7jfj_000000gn/T//cc9RLqo0.s:528    .text.getValue:0000000000000048 .L0 
/var/folders/rt/4gvqv631095f64jvm7jfj_000000gn/T//cc9RLqo0.s:531    .text.getValue:000000000000004c .L0 
/var/folders/rt/4gvqv631095f64jvm7jfj_000000gn/T//cc9RLqo0.s:538    .text.receiveCommands:0000000000000000 receiveCommands
/var/folders/rt/4gvqv631095f64jvm7jfj_000000gn/T//cc9RLqo0.s:541    .text.receiveCommands:0000000000000000 .L0 
/var/folders/rt/4gvqv631095f64jvm7jfj_000000gn/T//cc9RLqo0.s:543    .text.receiveCommands:0000000000000000 .L0 
/var/folders/rt/4gvqv631095f64jvm7jfj_000000gn/T//cc9RLqo0.s:545    .text.receiveCommands:0000000000000000 .L0 
/var/folders/rt/4gvqv631095f64jvm7jfj_000000gn/T//cc9RLqo0.s:547    .text.receiveCommands:0000000000000000 .L0 
/var/folders/rt/4gvqv631095f64jvm7jfj_000000gn/T//cc9RLqo0.s:548    .text.receiveCommands:0000000000000000 .L0 
/var/folders/rt/4gvqv631095f64jvm7jfj_000000gn/T//cc9RLqo0.s:550    .text.receiveCommands:0000000000000004 .L0 
/var/folders/rt/4gvqv631095f64jvm7jfj_000000gn/T//cc9RLqo0.s:554    .text.receiveCommands:0000000000000008 .L0 
/var/folders/rt/4gvqv631095f64jvm7jfj_000000gn/T//cc9RLqo0.s:555    .text.receiveCommands:000000000000000c .L0 
/var/folders/rt/4gvqv631095f64jvm7jfj_000000gn/T//cc9RLqo0.s:557    .text.receiveCommands:000000000000000c .L0 
/var/folders/rt/4gvqv631095f64jvm7jfj_000000gn/T//cc9RLqo0.s:560    .text.receiveCommands:0000000000000010 .L0 
/var/folders/rt/4gvqv631095f64jvm7jfj_000000gn/T//cc9RLqo0.s:567    .text.receiveCommands:000000000000002c .L0 
/var/folders/rt/4gvqv631095f64jvm7jfj_000000gn/T//cc9RLqo0.s:568    .text.receiveCommands:000000000000002c .L0 
/var/folders/rt/4gvqv631095f64jvm7jfj_000000gn/T//cc9RLqo0.s:569    .text.receiveCommands:000000000000002c .L0 
/var/folders/rt/4gvqv631095f64jvm7jfj_000000gn/T//cc9RLqo0.s:570    .text.receiveCommands:000000000000002c .L0 
/var/folders/rt/4gvqv631095f64jvm7jfj_000000gn/T//cc9RLqo0.s:571    .text.receiveCommands:000000000000002c .L0 
/var/folders/rt/4gvqv631095f64jvm7jfj_000000gn/T//cc9RLqo0.s:572    .text.receiveCommands:000000000000002c .L0 
/var/folders/rt/4gvqv631095f64jvm7jfj_000000gn/T//cc9RLqo0.s:573    .text.receiveCommands:000000000000002c .L0 
/var/folders/rt/4gvqv631095f64jvm7jfj_000000gn/T//cc9RLqo0.s:576    .text.receiveCommands:000000000000002c .L0 
/var/folders/rt/4gvqv631095f64jvm7jfj_000000gn/T//cc9RLqo0.s:579    .text.receiveCommands:0000000000000030 .L0 
/var/folders/rt/4gvqv631095f64jvm7jfj_000000gn/T//cc9RLqo0.s:581    .text.receiveCommands:0000000000000034 .L0 
/var/folders/rt/4gvqv631095f64jvm7jfj_000000gn/T//cc9RLqo0.s:585    .text.receiveCommands:0000000000000036 .L0 
/var/folders/rt/4gvqv631095f64jvm7jfj_000000gn/T//cc9RLqo0.s:587    .text.receiveCommands:000000000000003a .L0 
/var/folders/rt/4gvqv631095f64jvm7jfj_000000gn/T//cc9RLqo0.s:589    .text.receiveCommands:000000000000003e .L0 
/var/folders/rt/4gvqv631095f64jvm7jfj_000000gn/T//cc9RLqo0.s:590    .text.receiveCommands:000000000000003e .L0 
/var/folders/rt/4gvqv631095f64jvm7jfj_000000gn/T//cc9RLqo0.s:593    .text.receiveCommands:0000000000000046 .L0 
GAS LISTING /var/folders/rt/4gvqv631095f64jvm7jfj_000000gn/T//cc9RLqo0.s 			page 29


/var/folders/rt/4gvqv631095f64jvm7jfj_000000gn/T//cc9RLqo0.s:596    .text.receiveCommands:000000000000004c .L0 
/var/folders/rt/4gvqv631095f64jvm7jfj_000000gn/T//cc9RLqo0.s:600    .text.receiveCommands:0000000000000052 .L0 
/var/folders/rt/4gvqv631095f64jvm7jfj_000000gn/T//cc9RLqo0.s:601    .text.receiveCommands:0000000000000052 .L0 
/var/folders/rt/4gvqv631095f64jvm7jfj_000000gn/T//cc9RLqo0.s:605    .text.receiveCommands:000000000000005a .L0 
/var/folders/rt/4gvqv631095f64jvm7jfj_000000gn/T//cc9RLqo0.s:607    .text.receiveCommands:000000000000005e .L0 
/var/folders/rt/4gvqv631095f64jvm7jfj_000000gn/T//cc9RLqo0.s:608    .text.receiveCommands:000000000000005e .L0 
/var/folders/rt/4gvqv631095f64jvm7jfj_000000gn/T//cc9RLqo0.s:611    .text.receiveCommands:0000000000000066 .L0 
/var/folders/rt/4gvqv631095f64jvm7jfj_000000gn/T//cc9RLqo0.s:614    .text.receiveCommands:0000000000000068 .L0 
/var/folders/rt/4gvqv631095f64jvm7jfj_000000gn/T//cc9RLqo0.s:615    .text.receiveCommands:0000000000000068 .L0 
/var/folders/rt/4gvqv631095f64jvm7jfj_000000gn/T//cc9RLqo0.s:622    .text.receiveCommands:000000000000007c .L0 
/var/folders/rt/4gvqv631095f64jvm7jfj_000000gn/T//cc9RLqo0.s:628    .text.receiveCommands:000000000000007e .L0 
/var/folders/rt/4gvqv631095f64jvm7jfj_000000gn/T//cc9RLqo0.s:634    .text.receiveCommands:0000000000000088 .L0 
/var/folders/rt/4gvqv631095f64jvm7jfj_000000gn/T//cc9RLqo0.s:635    .text.receiveCommands:0000000000000088 .L0 
/var/folders/rt/4gvqv631095f64jvm7jfj_000000gn/T//cc9RLqo0.s:636    .text.receiveCommands:0000000000000088 .L0 
/var/folders/rt/4gvqv631095f64jvm7jfj_000000gn/T//cc9RLqo0.s:642    .text.receiveCommands:000000000000009c .L0 
/var/folders/rt/4gvqv631095f64jvm7jfj_000000gn/T//cc9RLqo0.s:643    .text.receiveCommands:000000000000009c .L0 
/var/folders/rt/4gvqv631095f64jvm7jfj_000000gn/T//cc9RLqo0.s:645    .text.receiveCommands:000000000000009e .L0 
/var/folders/rt/4gvqv631095f64jvm7jfj_000000gn/T//cc9RLqo0.s:652    .text.receiveCommands:00000000000000b0 .L0 
/var/folders/rt/4gvqv631095f64jvm7jfj_000000gn/T//cc9RLqo0.s:653    .text.receiveCommands:00000000000000b0 .L0 
/var/folders/rt/4gvqv631095f64jvm7jfj_000000gn/T//cc9RLqo0.s:659    .text.receiveCommands:00000000000000c2 .L0 
/var/folders/rt/4gvqv631095f64jvm7jfj_000000gn/T//cc9RLqo0.s:661    .text.receiveCommands:00000000000000c4 .L0 
/var/folders/rt/4gvqv631095f64jvm7jfj_000000gn/T//cc9RLqo0.s:667    .text.receiveCommands:00000000000000d0 .L0 
/var/folders/rt/4gvqv631095f64jvm7jfj_000000gn/T//cc9RLqo0.s:668    .text.receiveCommands:00000000000000d0 .L0 
/var/folders/rt/4gvqv631095f64jvm7jfj_000000gn/T//cc9RLqo0.s:673    .text.receiveCommands:00000000000000d4 .L0 
/var/folders/rt/4gvqv631095f64jvm7jfj_000000gn/T//cc9RLqo0.s:674    .text.receiveCommands:00000000000000d4 .L0 
/var/folders/rt/4gvqv631095f64jvm7jfj_000000gn/T//cc9RLqo0.s:675    .text.receiveCommands:00000000000000d8 .L0 
/var/folders/rt/4gvqv631095f64jvm7jfj_000000gn/T//cc9RLqo0.s:676    .text.receiveCommands:00000000000000d8 .L0 
/var/folders/rt/4gvqv631095f64jvm7jfj_000000gn/T//cc9RLqo0.s:678    .text.receiveCommands:00000000000000dc .L0 
/var/folders/rt/4gvqv631095f64jvm7jfj_000000gn/T//cc9RLqo0.s:680    .text.receiveCommands:00000000000000e0 .L0 
/var/folders/rt/4gvqv631095f64jvm7jfj_000000gn/T//cc9RLqo0.s:682    .text.receiveCommands:00000000000000e4 .L0 
/var/folders/rt/4gvqv631095f64jvm7jfj_000000gn/T//cc9RLqo0.s:684    .text.receiveCommands:00000000000000e8 .L0 
/var/folders/rt/4gvqv631095f64jvm7jfj_000000gn/T//cc9RLqo0.s:686    .text.receiveCommands:00000000000000ec .L0 
/var/folders/rt/4gvqv631095f64jvm7jfj_000000gn/T//cc9RLqo0.s:688    .text.receiveCommands:00000000000000f0 .L0 
/var/folders/rt/4gvqv631095f64jvm7jfj_000000gn/T//cc9RLqo0.s:690    .text.receiveCommands:00000000000000f4 .L0 
/var/folders/rt/4gvqv631095f64jvm7jfj_000000gn/T//cc9RLqo0.s:693    .text.receiveCommands:00000000000000f8 .L0 
/var/folders/rt/4gvqv631095f64jvm7jfj_000000gn/T//cc9RLqo0.s:698    .text.receiveCommands:00000000000000fa .L0 
/var/folders/rt/4gvqv631095f64jvm7jfj_000000gn/T//cc9RLqo0.s:702    .text.receiveCommands:00000000000000fa .L0 
/var/folders/rt/4gvqv631095f64jvm7jfj_000000gn/T//cc9RLqo0.s:703    .text.receiveCommands:00000000000000fa .L0 
/var/folders/rt/4gvqv631095f64jvm7jfj_000000gn/T//cc9RLqo0.s:709    .text.receiveCommands:000000000000010c .L0 
/var/folders/rt/4gvqv631095f64jvm7jfj_000000gn/T//cc9RLqo0.s:711    .text.receiveCommands:000000000000010e .L0 
/var/folders/rt/4gvqv631095f64jvm7jfj_000000gn/T//cc9RLqo0.s:712    .text.receiveCommands:000000000000010e .L0 
/var/folders/rt/4gvqv631095f64jvm7jfj_000000gn/T//cc9RLqo0.s:718    .text.receiveCommands:0000000000000122 .L0 
/var/folders/rt/4gvqv631095f64jvm7jfj_000000gn/T//cc9RLqo0.s:720    .text.receiveCommands:0000000000000126 .L0 
/var/folders/rt/4gvqv631095f64jvm7jfj_000000gn/T//cc9RLqo0.s:722    .text.receiveCommands:0000000000000128 .L0 
/var/folders/rt/4gvqv631095f64jvm7jfj_000000gn/T//cc9RLqo0.s:728    .text.receiveCommands:0000000000000136 .L0 
/var/folders/rt/4gvqv631095f64jvm7jfj_000000gn/T//cc9RLqo0.s:734    .text.receiveCommands:0000000000000144 .L0 
/var/folders/rt/4gvqv631095f64jvm7jfj_000000gn/T//cc9RLqo0.s:735    .text.receiveCommands:0000000000000144 .L0 
/var/folders/rt/4gvqv631095f64jvm7jfj_000000gn/T//cc9RLqo0.s:741    .text.receiveCommands:0000000000000156 .L0 
/var/folders/rt/4gvqv631095f64jvm7jfj_000000gn/T//cc9RLqo0.s:744    .text.receiveCommands:000000000000015a .L0 
/var/folders/rt/4gvqv631095f64jvm7jfj_000000gn/T//cc9RLqo0.s:745    .text.receiveCommands:000000000000015a .L0 
/var/folders/rt/4gvqv631095f64jvm7jfj_000000gn/T//cc9RLqo0.s:746    .text.receiveCommands:000000000000015a .L0 
/var/folders/rt/4gvqv631095f64jvm7jfj_000000gn/T//cc9RLqo0.s:747    .text.receiveCommands:000000000000015a .L0 
/var/folders/rt/4gvqv631095f64jvm7jfj_000000gn/T//cc9RLqo0.s:748    .text.receiveCommands:000000000000015a .L0 
/var/folders/rt/4gvqv631095f64jvm7jfj_000000gn/T//cc9RLqo0.s:749    .text.receiveCommands:000000000000015a .L0 
/var/folders/rt/4gvqv631095f64jvm7jfj_000000gn/T//cc9RLqo0.s:750    .text.receiveCommands:000000000000015a .L0 
/var/folders/rt/4gvqv631095f64jvm7jfj_000000gn/T//cc9RLqo0.s:751    .text.receiveCommands:000000000000015a .L0 
/var/folders/rt/4gvqv631095f64jvm7jfj_000000gn/T//cc9RLqo0.s:752    .text.receiveCommands:000000000000015a .L0 
GAS LISTING /var/folders/rt/4gvqv631095f64jvm7jfj_000000gn/T//cc9RLqo0.s 			page 30


/var/folders/rt/4gvqv631095f64jvm7jfj_000000gn/T//cc9RLqo0.s:753    .text.receiveCommands:000000000000015a .L0 
/var/folders/rt/4gvqv631095f64jvm7jfj_000000gn/T//cc9RLqo0.s:754    .text.receiveCommands:000000000000015a .L0 
/var/folders/rt/4gvqv631095f64jvm7jfj_000000gn/T//cc9RLqo0.s:755    .text.receiveCommands:000000000000015a .L0 
/var/folders/rt/4gvqv631095f64jvm7jfj_000000gn/T//cc9RLqo0.s:761    .text.receiveCommands:000000000000016e .L0 
/var/folders/rt/4gvqv631095f64jvm7jfj_000000gn/T//cc9RLqo0.s:762    .text.receiveCommands:000000000000016e .L0 
/var/folders/rt/4gvqv631095f64jvm7jfj_000000gn/T//cc9RLqo0.s:764    .text.receiveCommands:0000000000000170 .L0 
/var/folders/rt/4gvqv631095f64jvm7jfj_000000gn/T//cc9RLqo0.s:771    .text.receiveCommands:0000000000000182 .L0 
/var/folders/rt/4gvqv631095f64jvm7jfj_000000gn/T//cc9RLqo0.s:772    .text.receiveCommands:0000000000000182 .L0 
/var/folders/rt/4gvqv631095f64jvm7jfj_000000gn/T//cc9RLqo0.s:778    .text.receiveCommands:0000000000000196 .L0 
/var/folders/rt/4gvqv631095f64jvm7jfj_000000gn/T//cc9RLqo0.s:780    .text.receiveCommands:000000000000019a .L0 
/var/folders/rt/4gvqv631095f64jvm7jfj_000000gn/T//cc9RLqo0.s:783    .text.receiveCommands:000000000000019c .L0 
/var/folders/rt/4gvqv631095f64jvm7jfj_000000gn/T//cc9RLqo0.s:784    .text.receiveCommands:000000000000019c .L0 
/var/folders/rt/4gvqv631095f64jvm7jfj_000000gn/T//cc9RLqo0.s:790    .text.receiveCommands:00000000000001ac .L0 
/var/folders/rt/4gvqv631095f64jvm7jfj_000000gn/T//cc9RLqo0.s:792    .text.receiveCommands:00000000000001b0 .L0 
/var/folders/rt/4gvqv631095f64jvm7jfj_000000gn/T//cc9RLqo0.s:795    .text.receiveCommands:00000000000001b2 .L0 
/var/folders/rt/4gvqv631095f64jvm7jfj_000000gn/T//cc9RLqo0.s:796    .text.receiveCommands:00000000000001b2 .L0 
/var/folders/rt/4gvqv631095f64jvm7jfj_000000gn/T//cc9RLqo0.s:802    .text.receiveCommands:00000000000001c2 .L0 
/var/folders/rt/4gvqv631095f64jvm7jfj_000000gn/T//cc9RLqo0.s:804    .text.receiveCommands:00000000000001c6 .L0 
/var/folders/rt/4gvqv631095f64jvm7jfj_000000gn/T//cc9RLqo0.s:807    .text.receiveCommands:00000000000001c8 .L0 
/var/folders/rt/4gvqv631095f64jvm7jfj_000000gn/T//cc9RLqo0.s:808    .text.receiveCommands:00000000000001c8 .L0 
/var/folders/rt/4gvqv631095f64jvm7jfj_000000gn/T//cc9RLqo0.s:814    .text.receiveCommands:00000000000001d8 .L0 
/var/folders/rt/4gvqv631095f64jvm7jfj_000000gn/T//cc9RLqo0.s:816    .text.receiveCommands:00000000000001dc .L0 
/var/folders/rt/4gvqv631095f64jvm7jfj_000000gn/T//cc9RLqo0.s:819    .text.receiveCommands:00000000000001de .L0 
/var/folders/rt/4gvqv631095f64jvm7jfj_000000gn/T//cc9RLqo0.s:820    .text.receiveCommands:00000000000001de .L0 
/var/folders/rt/4gvqv631095f64jvm7jfj_000000gn/T//cc9RLqo0.s:826    .text.receiveCommands:00000000000001ee .L0 
/var/folders/rt/4gvqv631095f64jvm7jfj_000000gn/T//cc9RLqo0.s:828    .text.receiveCommands:00000000000001f2 .L0 
/var/folders/rt/4gvqv631095f64jvm7jfj_000000gn/T//cc9RLqo0.s:831    .text.receiveCommands:00000000000001f4 .L0 
/var/folders/rt/4gvqv631095f64jvm7jfj_000000gn/T//cc9RLqo0.s:832    .text.receiveCommands:00000000000001f4 .L0 
/var/folders/rt/4gvqv631095f64jvm7jfj_000000gn/T//cc9RLqo0.s:838    .text.receiveCommands:0000000000000204 .L0 
/var/folders/rt/4gvqv631095f64jvm7jfj_000000gn/T//cc9RLqo0.s:840    .text.receiveCommands:0000000000000208 .L0 
/var/folders/rt/4gvqv631095f64jvm7jfj_000000gn/T//cc9RLqo0.s:843    .text.receiveCommands:000000000000020a .L0 
/var/folders/rt/4gvqv631095f64jvm7jfj_000000gn/T//cc9RLqo0.s:844    .text.receiveCommands:000000000000020a .L0 
/var/folders/rt/4gvqv631095f64jvm7jfj_000000gn/T//cc9RLqo0.s:850    .text.receiveCommands:000000000000021a .L0 
/var/folders/rt/4gvqv631095f64jvm7jfj_000000gn/T//cc9RLqo0.s:852    .text.receiveCommands:000000000000021e .L0 
/var/folders/rt/4gvqv631095f64jvm7jfj_000000gn/T//cc9RLqo0.s:855    .text.receiveCommands:0000000000000220 .L0 
/var/folders/rt/4gvqv631095f64jvm7jfj_000000gn/T//cc9RLqo0.s:856    .text.receiveCommands:0000000000000220 .L0 
/var/folders/rt/4gvqv631095f64jvm7jfj_000000gn/T//cc9RLqo0.s:862    .text.receiveCommands:0000000000000230 .L0 
/var/folders/rt/4gvqv631095f64jvm7jfj_000000gn/T//cc9RLqo0.s:864    .text.receiveCommands:0000000000000234 .L0 
/var/folders/rt/4gvqv631095f64jvm7jfj_000000gn/T//cc9RLqo0.s:867    .text.receiveCommands:0000000000000236 .L0 
/var/folders/rt/4gvqv631095f64jvm7jfj_000000gn/T//cc9RLqo0.s:868    .text.receiveCommands:0000000000000236 .L0 
/var/folders/rt/4gvqv631095f64jvm7jfj_000000gn/T//cc9RLqo0.s:874    .text.receiveCommands:0000000000000246 .L0 
/var/folders/rt/4gvqv631095f64jvm7jfj_000000gn/T//cc9RLqo0.s:894    .text.receiveCommands:0000000000000268 .L0 
/var/folders/rt/4gvqv631095f64jvm7jfj_000000gn/T//cc9RLqo0.s:898    .text.receiveCommands:0000000000000272 .L0 
/var/folders/rt/4gvqv631095f64jvm7jfj_000000gn/T//cc9RLqo0.s:909    .text.receiveCommands:000000000000028e .L0 
/var/folders/rt/4gvqv631095f64jvm7jfj_000000gn/T//cc9RLqo0.s:917    .text.receiveCommands:00000000000002a4 .L0 
/var/folders/rt/4gvqv631095f64jvm7jfj_000000gn/T//cc9RLqo0.s:923    .text.receiveCommands:00000000000002aa .L0 
/var/folders/rt/4gvqv631095f64jvm7jfj_000000gn/T//cc9RLqo0.s:927    .text.receiveCommands:00000000000002ae .L0 
/var/folders/rt/4gvqv631095f64jvm7jfj_000000gn/T//cc9RLqo0.s:454    .text.jsonAllPlants:000000000000032e .L0 
/var/folders/rt/4gvqv631095f64jvm7jfj_000000gn/T//cc9RLqo0.s:534    .text.getValue:000000000000004c .L0 
/var/folders/rt/4gvqv631095f64jvm7jfj_000000gn/T//cc9RLqo0.s:930    .text.receiveCommands:00000000000002ae .L0 
                     .debug_frame:0000000000000000 .L0 
/var/folders/rt/4gvqv631095f64jvm7jfj_000000gn/T//cc9RLqo0.s:936    .rodata.jsonAllPlants.str1.4:0000000000000000 .LC0
/var/folders/rt/4gvqv631095f64jvm7jfj_000000gn/T//cc9RLqo0.s:939    .rodata.jsonAllPlants.str1.4:0000000000000004 .LC1
/var/folders/rt/4gvqv631095f64jvm7jfj_000000gn/T//cc9RLqo0.s:942    .rodata.jsonAllPlants.str1.4:0000000000000008 .LC2
/var/folders/rt/4gvqv631095f64jvm7jfj_000000gn/T//cc9RLqo0.s:944    .rodata.jsonAllPlants.str1.4:00000000000000e0 .LC3
/var/folders/rt/4gvqv631095f64jvm7jfj_000000gn/T//cc9RLqo0.s:947    .rodata.jsonAllPlants.str1.4:00000000000000e4 .LC4
/var/folders/rt/4gvqv631095f64jvm7jfj_000000gn/T//cc9RLqo0.s:950    .rodata.jsonAllPlants.str1.4:00000000000000e8 .LC5
GAS LISTING /var/folders/rt/4gvqv631095f64jvm7jfj_000000gn/T//cc9RLqo0.s 			page 31


/var/folders/rt/4gvqv631095f64jvm7jfj_000000gn/T//cc9RLqo0.s:953    .rodata.jsonAllPlants.str1.4:00000000000000ec .LC6
/var/folders/rt/4gvqv631095f64jvm7jfj_000000gn/T//cc9RLqo0.s:140    .text.jsonAllPlants:0000000000000084 .L7
/var/folders/rt/4gvqv631095f64jvm7jfj_000000gn/T//cc9RLqo0.s:155    .text.jsonAllPlants:0000000000000096 .L3
/var/folders/rt/4gvqv631095f64jvm7jfj_000000gn/T//cc9RLqo0.s:407    .text.jsonAllPlants:00000000000002de .L6
/var/folders/rt/4gvqv631095f64jvm7jfj_000000gn/T//cc9RLqo0.s:88     .text.jsonAllPlants:000000000000004c .L2
/var/folders/rt/4gvqv631095f64jvm7jfj_000000gn/T//cc9RLqo0.s:420    .text.jsonAllPlants:00000000000002f0 .L5
/var/folders/rt/4gvqv631095f64jvm7jfj_000000gn/T//cc9RLqo0.s:366    .text.jsonAllPlants:000000000000028a .L4
/var/folders/rt/4gvqv631095f64jvm7jfj_000000gn/T//cc9RLqo0.s:932    .rodata.getValue.str1.4:0000000000000000 .LC7
/var/folders/rt/4gvqv631095f64jvm7jfj_000000gn/T//cc9RLqo0.s:524    .text.getValue:0000000000000048 .L11
/var/folders/rt/4gvqv631095f64jvm7jfj_000000gn/T//cc9RLqo0.s:512    .text.getValue:0000000000000040 .L9
/var/folders/rt/4gvqv631095f64jvm7jfj_000000gn/T//cc9RLqo0.s:957    .rodata.receiveCommands.str1.4:0000000000000000 .LC8
/var/folders/rt/4gvqv631095f64jvm7jfj_000000gn/T//cc9RLqo0.s:960    .rodata.receiveCommands.str1.4:0000000000000010 .LC9
/var/folders/rt/4gvqv631095f64jvm7jfj_000000gn/T//cc9RLqo0.s:962    .rodata.receiveCommands.str1.4:0000000000000018 .LC10
/var/folders/rt/4gvqv631095f64jvm7jfj_000000gn/T//cc9RLqo0.s:964    .rodata.receiveCommands.str1.4:0000000000000028 .LC11
/var/folders/rt/4gvqv631095f64jvm7jfj_000000gn/T//cc9RLqo0.s:967    .rodata.receiveCommands.str1.4:0000000000000034 .LC12
/var/folders/rt/4gvqv631095f64jvm7jfj_000000gn/T//cc9RLqo0.s:970    .rodata.receiveCommands.str1.4:0000000000000040 .LC13
/var/folders/rt/4gvqv631095f64jvm7jfj_000000gn/T//cc9RLqo0.s:973    .rodata.receiveCommands.str1.4:000000000000004c .LC14
/var/folders/rt/4gvqv631095f64jvm7jfj_000000gn/T//cc9RLqo0.s:976    .rodata.receiveCommands.str1.4:0000000000000058 .LC15
/var/folders/rt/4gvqv631095f64jvm7jfj_000000gn/T//cc9RLqo0.s:979    .rodata.receiveCommands.str1.4:0000000000000068 .LC16
/var/folders/rt/4gvqv631095f64jvm7jfj_000000gn/T//cc9RLqo0.s:982    .rodata.receiveCommands.str1.4:0000000000000074 .LC17
/var/folders/rt/4gvqv631095f64jvm7jfj_000000gn/T//cc9RLqo0.s:985    .rodata.receiveCommands.str1.4:0000000000000080 .LC18
/var/folders/rt/4gvqv631095f64jvm7jfj_000000gn/T//cc9RLqo0.s:988    .rodata.receiveCommands.str1.4:000000000000008c .LC19
/var/folders/rt/4gvqv631095f64jvm7jfj_000000gn/T//cc9RLqo0.s:991    .rodata.receiveCommands.str1.4:0000000000000098 .LC20
/var/folders/rt/4gvqv631095f64jvm7jfj_000000gn/T//cc9RLqo0.s:994    .rodata.receiveCommands.str1.4:00000000000000a0 .LC21
/var/folders/rt/4gvqv631095f64jvm7jfj_000000gn/T//cc9RLqo0.s:996    .rodata.receiveCommands.str1.4:00000000000000a8 .LC22
/var/folders/rt/4gvqv631095f64jvm7jfj_000000gn/T//cc9RLqo0.s:999    .rodata.receiveCommands.str1.4:00000000000000b4 .LC23
/var/folders/rt/4gvqv631095f64jvm7jfj_000000gn/T//cc9RLqo0.s:1002   .rodata.receiveCommands.str1.4:00000000000000bc .LC24
/var/folders/rt/4gvqv631095f64jvm7jfj_000000gn/T//cc9RLqo0.s:1004   .rodata.receiveCommands.str1.4:00000000000000c4 .LC25
/var/folders/rt/4gvqv631095f64jvm7jfj_000000gn/T//cc9RLqo0.s:671    .text.receiveCommands:00000000000000d4 .L13
/var/folders/rt/4gvqv631095f64jvm7jfj_000000gn/T//cc9RLqo0.s:920    .text.receiveCommands:00000000000002aa .L15
/var/folders/rt/4gvqv631095f64jvm7jfj_000000gn/T//cc9RLqo0.s:632    .text.receiveCommands:0000000000000088 .L16
/var/folders/rt/4gvqv631095f64jvm7jfj_000000gn/T//cc9RLqo0.s:664    .text.receiveCommands:00000000000000d0 .L17
/var/folders/rt/4gvqv631095f64jvm7jfj_000000gn/T//cc9RLqo0.s:650    .text.receiveCommands:00000000000000b0 .L18
/var/folders/rt/4gvqv631095f64jvm7jfj_000000gn/T//cc9RLqo0.s:696    .text.receiveCommands:00000000000000fa .L19
/var/folders/rt/4gvqv631095f64jvm7jfj_000000gn/T//cc9RLqo0.s:732    .text.receiveCommands:0000000000000144 .L21
/var/folders/rt/4gvqv631095f64jvm7jfj_000000gn/T//cc9RLqo0.s:726    .text.receiveCommands:0000000000000136 .L22
/var/folders/rt/4gvqv631095f64jvm7jfj_000000gn/T//cc9RLqo0.s:892    .text.receiveCommands:0000000000000268 .L23
/var/folders/rt/4gvqv631095f64jvm7jfj_000000gn/T//cc9RLqo0.s:769    .text.receiveCommands:0000000000000182 .L24
/var/folders/rt/4gvqv631095f64jvm7jfj_000000gn/T//cc9RLqo0.s:624    .text.receiveCommands:000000000000007e .L34
/var/folders/rt/4gvqv631095f64jvm7jfj_000000gn/T//cc9RLqo0.s:583    .text.receiveCommands:0000000000000036 .L14
/var/folders/rt/4gvqv631095f64jvm7jfj_000000gn/T//cc9RLqo0.s:3903   .debug_abbrev:0000000000000000 .Ldebug_abbrev0
/var/folders/rt/4gvqv631095f64jvm7jfj_000000gn/T//cc9RLqo0.s:5498   .debug_str:00000000000005fb .LASF183
/var/folders/rt/4gvqv631095f64jvm7jfj_000000gn/T//cc9RLqo0.s:5566   .debug_str:0000000000000810 .LASF184
/var/folders/rt/4gvqv631095f64jvm7jfj_000000gn/T//cc9RLqo0.s:5502   .debug_str:000000000000068c .LASF185
/var/folders/rt/4gvqv631095f64jvm7jfj_000000gn/T//cc9RLqo0.s:5146   .debug_ranges:0000000000000000 .Ldebug_ranges0
/var/folders/rt/4gvqv631095f64jvm7jfj_000000gn/T//cc9RLqo0.s:5192   .debug_line:0000000000000000 .Ldebug_line0
/var/folders/rt/4gvqv631095f64jvm7jfj_000000gn/T//cc9RLqo0.s:5204   .debug_str:000000000000002b .LASF4
/var/folders/rt/4gvqv631095f64jvm7jfj_000000gn/T//cc9RLqo0.s:5484   .debug_str:00000000000005bc .LASF0
/var/folders/rt/4gvqv631095f64jvm7jfj_000000gn/T//cc9RLqo0.s:5504   .debug_str:00000000000006cf .LASF1
/var/folders/rt/4gvqv631095f64jvm7jfj_000000gn/T//cc9RLqo0.s:5280   .debug_str:00000000000001c2 .LASF2
/var/folders/rt/4gvqv631095f64jvm7jfj_000000gn/T//cc9RLqo0.s:5474   .debug_str:0000000000000595 .LASF3
/var/folders/rt/4gvqv631095f64jvm7jfj_000000gn/T//cc9RLqo0.s:5462   .debug_str:0000000000000566 .LASF5
/var/folders/rt/4gvqv631095f64jvm7jfj_000000gn/T//cc9RLqo0.s:5246   .debug_str:0000000000000123 .LASF6
/var/folders/rt/4gvqv631095f64jvm7jfj_000000gn/T//cc9RLqo0.s:5414   .debug_str:0000000000000475 .LASF7
/var/folders/rt/4gvqv631095f64jvm7jfj_000000gn/T//cc9RLqo0.s:5198   .debug_str:0000000000000012 .LASF8
/var/folders/rt/4gvqv631095f64jvm7jfj_000000gn/T//cc9RLqo0.s:5362   .debug_str:000000000000033d .LASF9
/var/folders/rt/4gvqv631095f64jvm7jfj_000000gn/T//cc9RLqo0.s:5218   .debug_str:0000000000000076 .LASF10
GAS LISTING /var/folders/rt/4gvqv631095f64jvm7jfj_000000gn/T//cc9RLqo0.s 			page 32


/var/folders/rt/4gvqv631095f64jvm7jfj_000000gn/T//cc9RLqo0.s:5298   .debug_str:0000000000000220 .LASF11
/var/folders/rt/4gvqv631095f64jvm7jfj_000000gn/T//cc9RLqo0.s:5324   .debug_str:0000000000000290 .LASF12
/var/folders/rt/4gvqv631095f64jvm7jfj_000000gn/T//cc9RLqo0.s:5226   .debug_str:00000000000000ad .LASF13
/var/folders/rt/4gvqv631095f64jvm7jfj_000000gn/T//cc9RLqo0.s:5242   .debug_str:0000000000000115 .LASF14
/var/folders/rt/4gvqv631095f64jvm7jfj_000000gn/T//cc9RLqo0.s:5472   .debug_str:000000000000058d .LASF15
/var/folders/rt/4gvqv631095f64jvm7jfj_000000gn/T//cc9RLqo0.s:5536   .debug_str:000000000000077e .LASF16
/var/folders/rt/4gvqv631095f64jvm7jfj_000000gn/T//cc9RLqo0.s:5348   .debug_str:0000000000000307 .LASF17
/var/folders/rt/4gvqv631095f64jvm7jfj_000000gn/T//cc9RLqo0.s:5316   .debug_str:0000000000000269 .LASF18
/var/folders/rt/4gvqv631095f64jvm7jfj_000000gn/T//cc9RLqo0.s:5464   .debug_str:000000000000056d .LASF19
/var/folders/rt/4gvqv631095f64jvm7jfj_000000gn/T//cc9RLqo0.s:5466   .debug_str:0000000000000575 .LASF20
/var/folders/rt/4gvqv631095f64jvm7jfj_000000gn/T//cc9RLqo0.s:5404   .debug_str:0000000000000441 .LASF21
/var/folders/rt/4gvqv631095f64jvm7jfj_000000gn/T//cc9RLqo0.s:5512   .debug_str:00000000000006f4 .LASF22
/var/folders/rt/4gvqv631095f64jvm7jfj_000000gn/T//cc9RLqo0.s:5406   .debug_str:000000000000044c .LASF23
/var/folders/rt/4gvqv631095f64jvm7jfj_000000gn/T//cc9RLqo0.s:5420   .debug_str:0000000000000492 .LASF24
/var/folders/rt/4gvqv631095f64jvm7jfj_000000gn/T//cc9RLqo0.s:5306   .debug_str:0000000000000245 .LASF29
/var/folders/rt/4gvqv631095f64jvm7jfj_000000gn/T//cc9RLqo0.s:5494   .debug_str:00000000000005ee .LASF25
/var/folders/rt/4gvqv631095f64jvm7jfj_000000gn/T//cc9RLqo0.s:5454   .debug_str:0000000000000549 .LASF26
/var/folders/rt/4gvqv631095f64jvm7jfj_000000gn/T//cc9RLqo0.s:5300   .debug_str:000000000000022b .LASF27
/var/folders/rt/4gvqv631095f64jvm7jfj_000000gn/T//cc9RLqo0.s:5380   .debug_str:00000000000003aa .LASF28
/var/folders/rt/4gvqv631095f64jvm7jfj_000000gn/T//cc9RLqo0.s:5314   .debug_str:0000000000000264 .LASF30
/var/folders/rt/4gvqv631095f64jvm7jfj_000000gn/T//cc9RLqo0.s:5240   .debug_str:000000000000010c .LASF31
/var/folders/rt/4gvqv631095f64jvm7jfj_000000gn/T//cc9RLqo0.s:5554   .debug_str:00000000000007d8 .LASF32
/var/folders/rt/4gvqv631095f64jvm7jfj_000000gn/T//cc9RLqo0.s:5256   .debug_str:0000000000000150 .LASF33
/var/folders/rt/4gvqv631095f64jvm7jfj_000000gn/T//cc9RLqo0.s:5568   .debug_str:000000000000081f .LASF34
/var/folders/rt/4gvqv631095f64jvm7jfj_000000gn/T//cc9RLqo0.s:5386   .debug_str:00000000000003d0 .LASF35
/var/folders/rt/4gvqv631095f64jvm7jfj_000000gn/T//cc9RLqo0.s:5370   .debug_str:0000000000000370 .LASF36
/var/folders/rt/4gvqv631095f64jvm7jfj_000000gn/T//cc9RLqo0.s:5470   .debug_str:0000000000000583 .LASF37
/var/folders/rt/4gvqv631095f64jvm7jfj_000000gn/T//cc9RLqo0.s:5422   .debug_str:000000000000049b .LASF38
/var/folders/rt/4gvqv631095f64jvm7jfj_000000gn/T//cc9RLqo0.s:5550   .debug_str:00000000000007be .LASF39
/var/folders/rt/4gvqv631095f64jvm7jfj_000000gn/T//cc9RLqo0.s:5260   .debug_str:000000000000015f .LASF40
/var/folders/rt/4gvqv631095f64jvm7jfj_000000gn/T//cc9RLqo0.s:5202   .debug_str:0000000000000023 .LASF41
/var/folders/rt/4gvqv631095f64jvm7jfj_000000gn/T//cc9RLqo0.s:5194   .debug_str:0000000000000000 .LASF42
/var/folders/rt/4gvqv631095f64jvm7jfj_000000gn/T//cc9RLqo0.s:5500   .debug_str:0000000000000683 .LASF43
/var/folders/rt/4gvqv631095f64jvm7jfj_000000gn/T//cc9RLqo0.s:5276   .debug_str:00000000000001b3 .LASF44
/var/folders/rt/4gvqv631095f64jvm7jfj_000000gn/T//cc9RLqo0.s:5388   .debug_str:00000000000003d9 .LASF45
/var/folders/rt/4gvqv631095f64jvm7jfj_000000gn/T//cc9RLqo0.s:5442   .debug_str:00000000000004fb .LASF46
/var/folders/rt/4gvqv631095f64jvm7jfj_000000gn/T//cc9RLqo0.s:5296   .debug_str:000000000000021b .LASF47
/var/folders/rt/4gvqv631095f64jvm7jfj_000000gn/T//cc9RLqo0.s:5424   .debug_str:00000000000004a5 .LASF48
/var/folders/rt/4gvqv631095f64jvm7jfj_000000gn/T//cc9RLqo0.s:5254   .debug_str:000000000000014a .LASF49
/var/folders/rt/4gvqv631095f64jvm7jfj_000000gn/T//cc9RLqo0.s:5482   .debug_str:00000000000005b6 .LASF50
/var/folders/rt/4gvqv631095f64jvm7jfj_000000gn/T//cc9RLqo0.s:5430   .debug_str:00000000000004bb .LASF51
/var/folders/rt/4gvqv631095f64jvm7jfj_000000gn/T//cc9RLqo0.s:5274   .debug_str:00000000000001ac .LASF52
/var/folders/rt/4gvqv631095f64jvm7jfj_000000gn/T//cc9RLqo0.s:5326   .debug_str:00000000000002a2 .LASF53
/var/folders/rt/4gvqv631095f64jvm7jfj_000000gn/T//cc9RLqo0.s:5562   .debug_str:00000000000007f9 .LASF54
/var/folders/rt/4gvqv631095f64jvm7jfj_000000gn/T//cc9RLqo0.s:5262   .debug_str:000000000000016d .LASF55
/var/folders/rt/4gvqv631095f64jvm7jfj_000000gn/T//cc9RLqo0.s:5310   .debug_str:0000000000000254 .LASF56
/var/folders/rt/4gvqv631095f64jvm7jfj_000000gn/T//cc9RLqo0.s:5368   .debug_str:0000000000000369 .LASF57
/var/folders/rt/4gvqv631095f64jvm7jfj_000000gn/T//cc9RLqo0.s:5468   .debug_str:000000000000057d .LASF58
/var/folders/rt/4gvqv631095f64jvm7jfj_000000gn/T//cc9RLqo0.s:5244   .debug_str:000000000000011c .LASF59
/var/folders/rt/4gvqv631095f64jvm7jfj_000000gn/T//cc9RLqo0.s:5252   .debug_str:0000000000000144 .LASF60
/var/folders/rt/4gvqv631095f64jvm7jfj_000000gn/T//cc9RLqo0.s:5546   .debug_str:00000000000007b0 .LASF61
/var/folders/rt/4gvqv631095f64jvm7jfj_000000gn/T//cc9RLqo0.s:5480   .debug_str:00000000000005ad .LASF62
/var/folders/rt/4gvqv631095f64jvm7jfj_000000gn/T//cc9RLqo0.s:5286   .debug_str:00000000000001e0 .LASF63
/var/folders/rt/4gvqv631095f64jvm7jfj_000000gn/T//cc9RLqo0.s:5332   .debug_str:00000000000002c2 .LASF64
/var/folders/rt/4gvqv631095f64jvm7jfj_000000gn/T//cc9RLqo0.s:5358   .debug_str:0000000000000331 .LASF65
/var/folders/rt/4gvqv631095f64jvm7jfj_000000gn/T//cc9RLqo0.s:5432   .debug_str:00000000000004c3 .LASF66
/var/folders/rt/4gvqv631095f64jvm7jfj_000000gn/T//cc9RLqo0.s:5426   .debug_str:00000000000004ac .LASF67
GAS LISTING /var/folders/rt/4gvqv631095f64jvm7jfj_000000gn/T//cc9RLqo0.s 			page 33


/var/folders/rt/4gvqv631095f64jvm7jfj_000000gn/T//cc9RLqo0.s:5456   .debug_str:0000000000000551 .LASF68
/var/folders/rt/4gvqv631095f64jvm7jfj_000000gn/T//cc9RLqo0.s:5476   .debug_str:00000000000005a1 .LASF69
/var/folders/rt/4gvqv631095f64jvm7jfj_000000gn/T//cc9RLqo0.s:5278   .debug_str:00000000000001bb .LASF70
/var/folders/rt/4gvqv631095f64jvm7jfj_000000gn/T//cc9RLqo0.s:5320   .debug_str:0000000000000280 .LASF71
/var/folders/rt/4gvqv631095f64jvm7jfj_000000gn/T//cc9RLqo0.s:5304   .debug_str:000000000000023d .LASF72
/var/folders/rt/4gvqv631095f64jvm7jfj_000000gn/T//cc9RLqo0.s:5440   .debug_str:00000000000004f6 .LASF73
/var/folders/rt/4gvqv631095f64jvm7jfj_000000gn/T//cc9RLqo0.s:5210   .debug_str:000000000000004e .LASF74
/var/folders/rt/4gvqv631095f64jvm7jfj_000000gn/T//cc9RLqo0.s:5450   .debug_str:000000000000051c .LASF75
/var/folders/rt/4gvqv631095f64jvm7jfj_000000gn/T//cc9RLqo0.s:5446   .debug_str:000000000000050a .LASF76
/var/folders/rt/4gvqv631095f64jvm7jfj_000000gn/T//cc9RLqo0.s:5392   .debug_str:00000000000003eb .LASF77
/var/folders/rt/4gvqv631095f64jvm7jfj_000000gn/T//cc9RLqo0.s:5448   .debug_str:0000000000000512 .LASF78
/var/folders/rt/4gvqv631095f64jvm7jfj_000000gn/T//cc9RLqo0.s:5346   .debug_str:00000000000002ff .LASF79
/var/folders/rt/4gvqv631095f64jvm7jfj_000000gn/T//cc9RLqo0.s:5312   .debug_str:000000000000025a .LASF80
/var/folders/rt/4gvqv631095f64jvm7jfj_000000gn/T//cc9RLqo0.s:5560   .debug_str:00000000000007f4 .LASF81
/var/folders/rt/4gvqv631095f64jvm7jfj_000000gn/T//cc9RLqo0.s:5400   .debug_str:0000000000000423 .LASF82
/var/folders/rt/4gvqv631095f64jvm7jfj_000000gn/T//cc9RLqo0.s:5322   .debug_str:0000000000000288 .LASF83
/var/folders/rt/4gvqv631095f64jvm7jfj_000000gn/T//cc9RLqo0.s:5284   .debug_str:00000000000001d8 .LASF84
/var/folders/rt/4gvqv631095f64jvm7jfj_000000gn/T//cc9RLqo0.s:5356   .debug_str:000000000000032c .LASF85
/var/folders/rt/4gvqv631095f64jvm7jfj_000000gn/T//cc9RLqo0.s:5216   .debug_str:000000000000006d .LASF86
/var/folders/rt/4gvqv631095f64jvm7jfj_000000gn/T//cc9RLqo0.s:5542   .debug_str:000000000000079c .LASF87
/var/folders/rt/4gvqv631095f64jvm7jfj_000000gn/T//cc9RLqo0.s:5264   .debug_str:0000000000000175 .LASF88
/var/folders/rt/4gvqv631095f64jvm7jfj_000000gn/T//cc9RLqo0.s:5258   .debug_str:000000000000015a .LASF89
/var/folders/rt/4gvqv631095f64jvm7jfj_000000gn/T//cc9RLqo0.s:5478   .debug_str:00000000000005a8 .LASF90
/var/folders/rt/4gvqv631095f64jvm7jfj_000000gn/T//cc9RLqo0.s:5428   .debug_str:00000000000004b4 .LASF91
/var/folders/rt/4gvqv631095f64jvm7jfj_000000gn/T//cc9RLqo0.s:5534   .debug_str:0000000000000778 .LASF92
/var/folders/rt/4gvqv631095f64jvm7jfj_000000gn/T//cc9RLqo0.s:5334   .debug_str:00000000000002c8 .LASF93
/var/folders/rt/4gvqv631095f64jvm7jfj_000000gn/T//cc9RLqo0.s:5416   .debug_str:0000000000000483 .LASF94
/var/folders/rt/4gvqv631095f64jvm7jfj_000000gn/T//cc9RLqo0.s:5458   .debug_str:0000000000000558 .LASF95
/var/folders/rt/4gvqv631095f64jvm7jfj_000000gn/T//cc9RLqo0.s:5460   .debug_str:0000000000000560 .LASF96
/var/folders/rt/4gvqv631095f64jvm7jfj_000000gn/T//cc9RLqo0.s:5360   .debug_str:0000000000000337 .LASF97
/var/folders/rt/4gvqv631095f64jvm7jfj_000000gn/T//cc9RLqo0.s:5508   .debug_str:00000000000006ea .LASF98
/var/folders/rt/4gvqv631095f64jvm7jfj_000000gn/T//cc9RLqo0.s:5528   .debug_str:0000000000000758 .LASF99
/var/folders/rt/4gvqv631095f64jvm7jfj_000000gn/T//cc9RLqo0.s:5292   .debug_str:0000000000000200 .LASF100
/var/folders/rt/4gvqv631095f64jvm7jfj_000000gn/T//cc9RLqo0.s:5342   .debug_str:00000000000002eb .LASF101
/var/folders/rt/4gvqv631095f64jvm7jfj_000000gn/T//cc9RLqo0.s:5552   .debug_str:00000000000007c9 .LASF102
/var/folders/rt/4gvqv631095f64jvm7jfj_000000gn/T//cc9RLqo0.s:5394   .debug_str:00000000000003f6 .LASF103
/var/folders/rt/4gvqv631095f64jvm7jfj_000000gn/T//cc9RLqo0.s:5338   .debug_str:00000000000002d4 .LASF104
/var/folders/rt/4gvqv631095f64jvm7jfj_000000gn/T//cc9RLqo0.s:5556   .debug_str:00000000000007e1 .LASF105
/var/folders/rt/4gvqv631095f64jvm7jfj_000000gn/T//cc9RLqo0.s:5438   .debug_str:00000000000004e9 .LASF106
/var/folders/rt/4gvqv631095f64jvm7jfj_000000gn/T//cc9RLqo0.s:5558   .debug_str:00000000000007e6 .LASF107
/var/folders/rt/4gvqv631095f64jvm7jfj_000000gn/T//cc9RLqo0.s:5238   .debug_str:00000000000000fe .LASF108
/var/folders/rt/4gvqv631095f64jvm7jfj_000000gn/T//cc9RLqo0.s:5538   .debug_str:0000000000000787 .LASF109
/var/folders/rt/4gvqv631095f64jvm7jfj_000000gn/T//cc9RLqo0.s:5340   .debug_str:00000000000002df .LASF110
/var/folders/rt/4gvqv631095f64jvm7jfj_000000gn/T//cc9RLqo0.s:5514   .debug_str:00000000000006fc .LASF111
/var/folders/rt/4gvqv631095f64jvm7jfj_000000gn/T//cc9RLqo0.s:5294   .debug_str:000000000000020d .LASF112
/var/folders/rt/4gvqv631095f64jvm7jfj_000000gn/T//cc9RLqo0.s:5516   .debug_str:0000000000000709 .LASF113
/var/folders/rt/4gvqv631095f64jvm7jfj_000000gn/T//cc9RLqo0.s:5290   .debug_str:00000000000001ef .LASF114
/var/folders/rt/4gvqv631095f64jvm7jfj_000000gn/T//cc9RLqo0.s:5220   .debug_str:000000000000007f .LASF115
/var/folders/rt/4gvqv631095f64jvm7jfj_000000gn/T//cc9RLqo0.s:5224   .debug_str:000000000000009c .LASF116
/var/folders/rt/4gvqv631095f64jvm7jfj_000000gn/T//cc9RLqo0.s:5418   .debug_str:0000000000000489 .LASF117
/var/folders/rt/4gvqv631095f64jvm7jfj_000000gn/T//cc9RLqo0.s:5308   .debug_str:000000000000024d .LASF118
/var/folders/rt/4gvqv631095f64jvm7jfj_000000gn/T//cc9RLqo0.s:5374   .debug_str:0000000000000382 .LASF119
/var/folders/rt/4gvqv631095f64jvm7jfj_000000gn/T//cc9RLqo0.s:5548   .debug_str:00000000000007b6 .LASF120
/var/folders/rt/4gvqv631095f64jvm7jfj_000000gn/T//cc9RLqo0.s:5232   .debug_str:00000000000000d3 .LASF186
/var/folders/rt/4gvqv631095f64jvm7jfj_000000gn/T//cc9RLqo0.s:5302   .debug_str:0000000000000231 .LASF121
/var/folders/rt/4gvqv631095f64jvm7jfj_000000gn/T//cc9RLqo0.s:5522   .debug_str:000000000000072e .LASF122
/var/folders/rt/4gvqv631095f64jvm7jfj_000000gn/T//cc9RLqo0.s:5390   .debug_str:00000000000003e1 .LASF123
GAS LISTING /var/folders/rt/4gvqv631095f64jvm7jfj_000000gn/T//cc9RLqo0.s 			page 34


/var/folders/rt/4gvqv631095f64jvm7jfj_000000gn/T//cc9RLqo0.s:5412   .debug_str:000000000000046d .LASF124
/var/folders/rt/4gvqv631095f64jvm7jfj_000000gn/T//cc9RLqo0.s:5524   .debug_str:0000000000000741 .LASF125
/var/folders/rt/4gvqv631095f64jvm7jfj_000000gn/T//cc9RLqo0.s:5318   .debug_str:0000000000000270 .LASF126
/var/folders/rt/4gvqv631095f64jvm7jfj_000000gn/T//cc9RLqo0.s:5354   .debug_str:0000000000000321 .LASF127
/var/folders/rt/4gvqv631095f64jvm7jfj_000000gn/T//cc9RLqo0.s:5444   .debug_str:0000000000000500 .LASF128
/var/folders/rt/4gvqv631095f64jvm7jfj_000000gn/T//cc9RLqo0.s:5230   .debug_str:00000000000000cb .LASF129
/var/folders/rt/4gvqv631095f64jvm7jfj_000000gn/T//cc9RLqo0.s:5436   .debug_str:00000000000004db .LASF130
/var/folders/rt/4gvqv631095f64jvm7jfj_000000gn/T//cc9RLqo0.s:5330   .debug_str:00000000000002bd .LASF131
/var/folders/rt/4gvqv631095f64jvm7jfj_000000gn/T//cc9RLqo0.s:5222   .debug_str:000000000000008e .LASF132
/var/folders/rt/4gvqv631095f64jvm7jfj_000000gn/T//cc9RLqo0.s:5250   .debug_str:000000000000013b .LASF133
/var/folders/rt/4gvqv631095f64jvm7jfj_000000gn/T//cc9RLqo0.s:5266   .debug_str:000000000000017d .LASF134
/var/folders/rt/4gvqv631095f64jvm7jfj_000000gn/T//cc9RLqo0.s:5382   .debug_str:00000000000003af .LASF135
/var/folders/rt/4gvqv631095f64jvm7jfj_000000gn/T//cc9RLqo0.s:5270   .debug_str:000000000000018c .LASF136
/var/folders/rt/4gvqv631095f64jvm7jfj_000000gn/T//cc9RLqo0.s:5328   .debug_str:00000000000002a8 .LASF137
/var/folders/rt/4gvqv631095f64jvm7jfj_000000gn/T//cc9RLqo0.s:5520   .debug_str:0000000000000721 .LASF138
/var/folders/rt/4gvqv631095f64jvm7jfj_000000gn/T//cc9RLqo0.s:5214   .debug_str:0000000000000062 .LASF139
/var/folders/rt/4gvqv631095f64jvm7jfj_000000gn/T//cc9RLqo0.s:5248   .debug_str:000000000000012f .LASF140
/var/folders/rt/4gvqv631095f64jvm7jfj_000000gn/T//cc9RLqo0.s:5364   .debug_str:0000000000000347 .LASF141
/var/folders/rt/4gvqv631095f64jvm7jfj_000000gn/T//cc9RLqo0.s:5236   .debug_str:00000000000000eb .LASF142
/var/folders/rt/4gvqv631095f64jvm7jfj_000000gn/T//cc9RLqo0.s:5452   .debug_str:0000000000000535 .LASF143
/var/folders/rt/4gvqv631095f64jvm7jfj_000000gn/T//cc9RLqo0.s:5564   .debug_str:0000000000000802 .LASF144
/var/folders/rt/4gvqv631095f64jvm7jfj_000000gn/T//cc9RLqo0.s:5376   .debug_str:000000000000038b .LASF145
/var/folders/rt/4gvqv631095f64jvm7jfj_000000gn/T//cc9RLqo0.s:5234   .debug_str:00000000000000de .LASF146
/var/folders/rt/4gvqv631095f64jvm7jfj_000000gn/T//cc9RLqo0.s:5540   .debug_str:0000000000000791 .LASF147
/var/folders/rt/4gvqv631095f64jvm7jfj_000000gn/T//cc9RLqo0.s:5532   .debug_str:000000000000076f .LASF148
/var/folders/rt/4gvqv631095f64jvm7jfj_000000gn/T//cc9RLqo0.s:5530   .debug_str:0000000000000765 .LASF149
/var/folders/rt/4gvqv631095f64jvm7jfj_000000gn/T//cc9RLqo0.s:5486   .debug_str:00000000000005c9 .LASF150
/var/folders/rt/4gvqv631095f64jvm7jfj_000000gn/T//cc9RLqo0.s:5496   .debug_str:00000000000005f4 .LASF151
/var/folders/rt/4gvqv631095f64jvm7jfj_000000gn/T//cc9RLqo0.s:5372   .debug_str:000000000000037a .LASF152
/var/folders/rt/4gvqv631095f64jvm7jfj_000000gn/T//cc9RLqo0.s:5408   .debug_str:000000000000045e .LASF153
/var/folders/rt/4gvqv631095f64jvm7jfj_000000gn/T//cc9RLqo0.s:5506   .debug_str:00000000000006e2 .LASF154
/var/folders/rt/4gvqv631095f64jvm7jfj_000000gn/T//cc9RLqo0.s:5212   .debug_str:0000000000000059 .LASF155
/var/folders/rt/4gvqv631095f64jvm7jfj_000000gn/T//cc9RLqo0.s:5196   .debug_str:000000000000000c .LASF156
/var/folders/rt/4gvqv631095f64jvm7jfj_000000gn/T//cc9RLqo0.s:5396   .debug_str:0000000000000405 .LASF157
/var/folders/rt/4gvqv631095f64jvm7jfj_000000gn/T//cc9RLqo0.s:5378   .debug_str:0000000000000397 .LASF158
/var/folders/rt/4gvqv631095f64jvm7jfj_000000gn/T//cc9RLqo0.s:5492   .debug_str:00000000000005e5 .LASF187
/var/folders/rt/4gvqv631095f64jvm7jfj_000000gn/T//cc9RLqo0.s:459    .text.getValue:0000000000000000 .LFB8
/var/folders/rt/4gvqv631095f64jvm7jfj_000000gn/T//cc9RLqo0.s:532    .text.getValue:000000000000004c .LFE8
/var/folders/rt/4gvqv631095f64jvm7jfj_000000gn/T//cc9RLqo0.s:4629   .debug_loc:0000000000000000 .LLST8
/var/folders/rt/4gvqv631095f64jvm7jfj_000000gn/T//cc9RLqo0.s:5510   .debug_str:00000000000006ef .LASF159
/var/folders/rt/4gvqv631095f64jvm7jfj_000000gn/T//cc9RLqo0.s:4652   .debug_loc:0000000000000038 .LLST9
/var/folders/rt/4gvqv631095f64jvm7jfj_000000gn/T//cc9RLqo0.s:4674   .debug_loc:000000000000006f .LLST10
/var/folders/rt/4gvqv631095f64jvm7jfj_000000gn/T//cc9RLqo0.s:5350   .debug_str:000000000000030d .LASF160
/var/folders/rt/4gvqv631095f64jvm7jfj_000000gn/T//cc9RLqo0.s:4692   .debug_loc:000000000000009b .LLST11
/var/folders/rt/4gvqv631095f64jvm7jfj_000000gn/T//cc9RLqo0.s:488    .text.getValue:000000000000001c .LVL28
/var/folders/rt/4gvqv631095f64jvm7jfj_000000gn/T//cc9RLqo0.s:494    .text.getValue:0000000000000028 .LVL29
/var/folders/rt/4gvqv631095f64jvm7jfj_000000gn/T//cc9RLqo0.s:505    .text.getValue:0000000000000036 .LVL32
/var/folders/rt/4gvqv631095f64jvm7jfj_000000gn/T//cc9RLqo0.s:511    .text.getValue:0000000000000040 .LVL34
/var/folders/rt/4gvqv631095f64jvm7jfj_000000gn/T//cc9RLqo0.s:5398   .debug_str:0000000000000413 .LASF164
/var/folders/rt/4gvqv631095f64jvm7jfj_000000gn/T//cc9RLqo0.s:539    .text.receiveCommands:0000000000000000 .LFB7
/var/folders/rt/4gvqv631095f64jvm7jfj_000000gn/T//cc9RLqo0.s:928    .text.receiveCommands:00000000000002ae .LFE7
/var/folders/rt/4gvqv631095f64jvm7jfj_000000gn/T//cc9RLqo0.s:4720   .debug_loc:00000000000000df .LLST12
/var/folders/rt/4gvqv631095f64jvm7jfj_000000gn/T//cc9RLqo0.s:5366   .debug_str:000000000000035f .LASF161
/var/folders/rt/4gvqv631095f64jvm7jfj_000000gn/T//cc9RLqo0.s:4743   .debug_loc:0000000000000119 .LLST13
/var/folders/rt/4gvqv631095f64jvm7jfj_000000gn/T//cc9RLqo0.s:5434   .debug_str:00000000000004cc .LASF162
/var/folders/rt/4gvqv631095f64jvm7jfj_000000gn/T//cc9RLqo0.s:4787   .debug_loc:0000000000000182 .LLST14
/var/folders/rt/4gvqv631095f64jvm7jfj_000000gn/T//cc9RLqo0.s:4813   .debug_loc:00000000000001c4 .LLST15
GAS LISTING /var/folders/rt/4gvqv631095f64jvm7jfj_000000gn/T//cc9RLqo0.s 			page 35


/var/folders/rt/4gvqv631095f64jvm7jfj_000000gn/T//cc9RLqo0.s:612    .text.receiveCommands:0000000000000068 .LBB11
/var/folders/rt/4gvqv631095f64jvm7jfj_000000gn/T//cc9RLqo0.s:625    .text.receiveCommands:000000000000007e .LBE11
/var/folders/rt/4gvqv631095f64jvm7jfj_000000gn/T//cc9RLqo0.s:5336   .debug_str:00000000000002cf .LASF163
/var/folders/rt/4gvqv631095f64jvm7jfj_000000gn/T//cc9RLqo0.s:620    .text.receiveCommands:000000000000007c .LVL42
/var/folders/rt/4gvqv631095f64jvm7jfj_000000gn/T//cc9RLqo0.s:4829   .debug_loc:00000000000001ee .LLST16
/var/folders/rt/4gvqv631095f64jvm7jfj_000000gn/T//cc9RLqo0.s:742    .text.receiveCommands:000000000000015a .LBB13
/var/folders/rt/4gvqv631095f64jvm7jfj_000000gn/T//cc9RLqo0.s:889    .text.receiveCommands:0000000000000266 .LBE13
/var/folders/rt/4gvqv631095f64jvm7jfj_000000gn/T//cc9RLqo0.s:4836   .debug_loc:0000000000000201 .LLST17
/var/folders/rt/4gvqv631095f64jvm7jfj_000000gn/T//cc9RLqo0.s:4848   .debug_loc:0000000000000221 .LLST18
/var/folders/rt/4gvqv631095f64jvm7jfj_000000gn/T//cc9RLqo0.s:4860   .debug_loc:0000000000000241 .LLST19
/var/folders/rt/4gvqv631095f64jvm7jfj_000000gn/T//cc9RLqo0.s:4871   .debug_loc:000000000000025f .LLST20
/var/folders/rt/4gvqv631095f64jvm7jfj_000000gn/T//cc9RLqo0.s:4883   .debug_loc:000000000000027f .LLST21
/var/folders/rt/4gvqv631095f64jvm7jfj_000000gn/T//cc9RLqo0.s:4895   .debug_loc:000000000000029f .LLST22
/var/folders/rt/4gvqv631095f64jvm7jfj_000000gn/T//cc9RLqo0.s:4906   .debug_loc:00000000000002bd .LLST23
/var/folders/rt/4gvqv631095f64jvm7jfj_000000gn/T//cc9RLqo0.s:4918   .debug_loc:00000000000002dd .LLST24
/var/folders/rt/4gvqv631095f64jvm7jfj_000000gn/T//cc9RLqo0.s:4929   .debug_loc:00000000000002fb .LLST25
/var/folders/rt/4gvqv631095f64jvm7jfj_000000gn/T//cc9RLqo0.s:4941   .debug_loc:000000000000031b .LLST26
/var/folders/rt/4gvqv631095f64jvm7jfj_000000gn/T//cc9RLqo0.s:759    .text.receiveCommands:000000000000016e .LVL57
/var/folders/rt/4gvqv631095f64jvm7jfj_000000gn/T//cc9RLqo0.s:768    .text.receiveCommands:0000000000000182 .LVL58
/var/folders/rt/4gvqv631095f64jvm7jfj_000000gn/T//cc9RLqo0.s:776    .text.receiveCommands:0000000000000196 .LVL59
/var/folders/rt/4gvqv631095f64jvm7jfj_000000gn/T//cc9RLqo0.s:788    .text.receiveCommands:00000000000001ac .LVL62
/var/folders/rt/4gvqv631095f64jvm7jfj_000000gn/T//cc9RLqo0.s:800    .text.receiveCommands:00000000000001c2 .LVL65
/var/folders/rt/4gvqv631095f64jvm7jfj_000000gn/T//cc9RLqo0.s:812    .text.receiveCommands:00000000000001d8 .LVL68
/var/folders/rt/4gvqv631095f64jvm7jfj_000000gn/T//cc9RLqo0.s:824    .text.receiveCommands:00000000000001ee .LVL71
/var/folders/rt/4gvqv631095f64jvm7jfj_000000gn/T//cc9RLqo0.s:836    .text.receiveCommands:0000000000000204 .LVL74
/var/folders/rt/4gvqv631095f64jvm7jfj_000000gn/T//cc9RLqo0.s:848    .text.receiveCommands:000000000000021a .LVL77
/var/folders/rt/4gvqv631095f64jvm7jfj_000000gn/T//cc9RLqo0.s:860    .text.receiveCommands:0000000000000230 .LVL80
/var/folders/rt/4gvqv631095f64jvm7jfj_000000gn/T//cc9RLqo0.s:872    .text.receiveCommands:0000000000000246 .LVL83
/var/folders/rt/4gvqv631095f64jvm7jfj_000000gn/T//cc9RLqo0.s:888    .text.receiveCommands:0000000000000266 .LVL85
/var/folders/rt/4gvqv631095f64jvm7jfj_000000gn/T//cc9RLqo0.s:629    .text.receiveCommands:0000000000000086 .LVL44
/var/folders/rt/4gvqv631095f64jvm7jfj_000000gn/T//cc9RLqo0.s:640    .text.receiveCommands:000000000000009c .LVL46
/var/folders/rt/4gvqv631095f64jvm7jfj_000000gn/T//cc9RLqo0.s:649    .text.receiveCommands:00000000000000b0 .LVL47
/var/folders/rt/4gvqv631095f64jvm7jfj_000000gn/T//cc9RLqo0.s:657    .text.receiveCommands:00000000000000c2 .LVL48
/var/folders/rt/4gvqv631095f64jvm7jfj_000000gn/T//cc9RLqo0.s:663    .text.receiveCommands:00000000000000d0 .LVL49
/var/folders/rt/4gvqv631095f64jvm7jfj_000000gn/T//cc9RLqo0.s:707    .text.receiveCommands:000000000000010c .LVL52
/var/folders/rt/4gvqv631095f64jvm7jfj_000000gn/T//cc9RLqo0.s:716    .text.receiveCommands:0000000000000122 .LVL53
/var/folders/rt/4gvqv631095f64jvm7jfj_000000gn/T//cc9RLqo0.s:724    .text.receiveCommands:0000000000000134 .LVL54
/var/folders/rt/4gvqv631095f64jvm7jfj_000000gn/T//cc9RLqo0.s:730    .text.receiveCommands:0000000000000142 .LVL55
/var/folders/rt/4gvqv631095f64jvm7jfj_000000gn/T//cc9RLqo0.s:739    .text.receiveCommands:0000000000000156 .LVL56
/var/folders/rt/4gvqv631095f64jvm7jfj_000000gn/T//cc9RLqo0.s:896    .text.receiveCommands:0000000000000272 .LVL87
/var/folders/rt/4gvqv631095f64jvm7jfj_000000gn/T//cc9RLqo0.s:907    .text.receiveCommands:000000000000028e .LVL89
/var/folders/rt/4gvqv631095f64jvm7jfj_000000gn/T//cc9RLqo0.s:915    .text.receiveCommands:00000000000002a4 .LVL90
/var/folders/rt/4gvqv631095f64jvm7jfj_000000gn/T//cc9RLqo0.s:609    .text.receiveCommands:0000000000000066 .LVL41
/var/folders/rt/4gvqv631095f64jvm7jfj_000000gn/T//cc9RLqo0.s:5526   .debug_str:000000000000074a .LASF165
/var/folders/rt/4gvqv631095f64jvm7jfj_000000gn/T//cc9RLqo0.s:14     .text.jsonAllPlants:0000000000000000 .LFB6
/var/folders/rt/4gvqv631095f64jvm7jfj_000000gn/T//cc9RLqo0.s:452    .text.jsonAllPlants:000000000000032e .LFE6
/var/folders/rt/4gvqv631095f64jvm7jfj_000000gn/T//cc9RLqo0.s:4948   .debug_loc:000000000000032e .LLST0
/var/folders/rt/4gvqv631095f64jvm7jfj_000000gn/T//cc9RLqo0.s:4971   .debug_loc:0000000000000368 .LLST1
/var/folders/rt/4gvqv631095f64jvm7jfj_000000gn/T//cc9RLqo0.s:5384   .debug_str:00000000000003c8 .LASF166
/var/folders/rt/4gvqv631095f64jvm7jfj_000000gn/T//cc9RLqo0.s:4993   .debug_loc:000000000000039f .LLST2
/var/folders/rt/4gvqv631095f64jvm7jfj_000000gn/T//cc9RLqo0.s:5015   .debug_loc:00000000000003d6 .LLST3
/var/folders/rt/4gvqv631095f64jvm7jfj_000000gn/T//cc9RLqo0.s:5033   .debug_loc:0000000000000402 .LLST4
/var/folders/rt/4gvqv631095f64jvm7jfj_000000gn/T//cc9RLqo0.s:5352   .debug_str:0000000000000314 .LASF167
/var/folders/rt/4gvqv631095f64jvm7jfj_000000gn/T//cc9RLqo0.s:5055   .debug_loc:0000000000000439 .LLST5
/var/folders/rt/4gvqv631095f64jvm7jfj_000000gn/T//cc9RLqo0.s:5096   .debug_loc:000000000000049f .LLST6
/var/folders/rt/4gvqv631095f64jvm7jfj_000000gn/T//cc9RLqo0.s:5112   .debug_loc:00000000000004c9 .LLST7
/var/folders/rt/4gvqv631095f64jvm7jfj_000000gn/T//cc9RLqo0.s:416    .text.jsonAllPlants:00000000000002ee .LVL20
GAS LISTING /var/folders/rt/4gvqv631095f64jvm7jfj_000000gn/T//cc9RLqo0.s 			page 36


/var/folders/rt/4gvqv631095f64jvm7jfj_000000gn/T//cc9RLqo0.s:444    .text.jsonAllPlants:000000000000032a .LVL23
/var/folders/rt/4gvqv631095f64jvm7jfj_000000gn/T//cc9RLqo0.s:151    .text.jsonAllPlants:0000000000000094 .LVL10
/var/folders/rt/4gvqv631095f64jvm7jfj_000000gn/T//cc9RLqo0.s:359    .text.jsonAllPlants:0000000000000288 .LVL12
/var/folders/rt/4gvqv631095f64jvm7jfj_000000gn/T//cc9RLqo0.s:387    .text.jsonAllPlants:00000000000002be .LVL14
/var/folders/rt/4gvqv631095f64jvm7jfj_000000gn/T//cc9RLqo0.s:398    .text.jsonAllPlants:00000000000002d4 .LVL17
/var/folders/rt/4gvqv631095f64jvm7jfj_000000gn/T//cc9RLqo0.s:67     .text.jsonAllPlants:0000000000000036 .LVL2
/var/folders/rt/4gvqv631095f64jvm7jfj_000000gn/T//cc9RLqo0.s:139    .text.jsonAllPlants:0000000000000084 .LVL9
/var/folders/rt/4gvqv631095f64jvm7jfj_000000gn/T//cc9RLqo0.s:5282   .debug_str:00000000000001d0 .LASF168
/var/folders/rt/4gvqv631095f64jvm7jfj_000000gn/T//cc9RLqo0.s:5228   .debug_str:00000000000000c4 .LASF169
/var/folders/rt/4gvqv631095f64jvm7jfj_000000gn/T//cc9RLqo0.s:5344   .debug_str:00000000000002f8 .LASF170
/var/folders/rt/4gvqv631095f64jvm7jfj_000000gn/T//cc9RLqo0.s:5410   .debug_str:0000000000000468 .LASF171
/var/folders/rt/4gvqv631095f64jvm7jfj_000000gn/T//cc9RLqo0.s:5288   .debug_str:00000000000001e8 .LASF172
/var/folders/rt/4gvqv631095f64jvm7jfj_000000gn/T//cc9RLqo0.s:5544   .debug_str:00000000000007a6 .LASF173
/var/folders/rt/4gvqv631095f64jvm7jfj_000000gn/T//cc9RLqo0.s:5488   .debug_str:00000000000005d2 .LASF174
/var/folders/rt/4gvqv631095f64jvm7jfj_000000gn/T//cc9RLqo0.s:5200   .debug_str:000000000000001c .LASF175
/var/folders/rt/4gvqv631095f64jvm7jfj_000000gn/T//cc9RLqo0.s:5272   .debug_str:00000000000001a0 .LASF176
/var/folders/rt/4gvqv631095f64jvm7jfj_000000gn/T//cc9RLqo0.s:5402   .debug_str:000000000000042d .LASF177
/var/folders/rt/4gvqv631095f64jvm7jfj_000000gn/T//cc9RLqo0.s:5206   .debug_str:0000000000000032 .LASF178
/var/folders/rt/4gvqv631095f64jvm7jfj_000000gn/T//cc9RLqo0.s:5208   .debug_str:0000000000000041 .LASF179
/var/folders/rt/4gvqv631095f64jvm7jfj_000000gn/T//cc9RLqo0.s:5268   .debug_str:0000000000000182 .LASF180
/var/folders/rt/4gvqv631095f64jvm7jfj_000000gn/T//cc9RLqo0.s:5490   .debug_str:00000000000005d9 .LASF181
/var/folders/rt/4gvqv631095f64jvm7jfj_000000gn/T//cc9RLqo0.s:5518   .debug_str:0000000000000718 .LASF182
/var/folders/rt/4gvqv631095f64jvm7jfj_000000gn/T//cc9RLqo0.s:467    .text.getValue:0000000000000002 .LCFI3
/var/folders/rt/4gvqv631095f64jvm7jfj_000000gn/T//cc9RLqo0.s:520    .text.getValue:0000000000000046 .LCFI4
/var/folders/rt/4gvqv631095f64jvm7jfj_000000gn/T//cc9RLqo0.s:525    .text.getValue:0000000000000048 .LCFI5
/var/folders/rt/4gvqv631095f64jvm7jfj_000000gn/T//cc9RLqo0.s:462    .text.getValue:0000000000000000 .LVL25
/var/folders/rt/4gvqv631095f64jvm7jfj_000000gn/T//cc9RLqo0.s:482    .text.getValue:0000000000000012 .LVL27
/var/folders/rt/4gvqv631095f64jvm7jfj_000000gn/T//cc9RLqo0.s:499    .text.getValue:000000000000002c .LVL30
/var/folders/rt/4gvqv631095f64jvm7jfj_000000gn/T//cc9RLqo0.s:523    .text.getValue:0000000000000048 .LVL35
/var/folders/rt/4gvqv631095f64jvm7jfj_000000gn/T//cc9RLqo0.s:472    .text.getValue:0000000000000008 .LVL26
/var/folders/rt/4gvqv631095f64jvm7jfj_000000gn/T//cc9RLqo0.s:503    .text.getValue:000000000000002e .LVL31
/var/folders/rt/4gvqv631095f64jvm7jfj_000000gn/T//cc9RLqo0.s:509    .text.getValue:0000000000000038 .LVL33
/var/folders/rt/4gvqv631095f64jvm7jfj_000000gn/T//cc9RLqo0.s:529    .text.getValue:000000000000004a .LVL36
/var/folders/rt/4gvqv631095f64jvm7jfj_000000gn/T//cc9RLqo0.s:549    .text.receiveCommands:0000000000000004 .LCFI6
/var/folders/rt/4gvqv631095f64jvm7jfj_000000gn/T//cc9RLqo0.s:692    .text.receiveCommands:00000000000000f8 .LCFI7
/var/folders/rt/4gvqv631095f64jvm7jfj_000000gn/T//cc9RLqo0.s:697    .text.receiveCommands:00000000000000fa .LCFI8
/var/folders/rt/4gvqv631095f64jvm7jfj_000000gn/T//cc9RLqo0.s:542    .text.receiveCommands:0000000000000000 .LVL37
/var/folders/rt/4gvqv631095f64jvm7jfj_000000gn/T//cc9RLqo0.s:603    .text.receiveCommands:000000000000005a .LVL40
/var/folders/rt/4gvqv631095f64jvm7jfj_000000gn/T//cc9RLqo0.s:623    .text.receiveCommands:000000000000007e .LVL43
/var/folders/rt/4gvqv631095f64jvm7jfj_000000gn/T//cc9RLqo0.s:631    .text.receiveCommands:0000000000000088 .LVL45
/var/folders/rt/4gvqv631095f64jvm7jfj_000000gn/T//cc9RLqo0.s:695    .text.receiveCommands:00000000000000fa .LVL51
/var/folders/rt/4gvqv631095f64jvm7jfj_000000gn/T//cc9RLqo0.s:899    .text.receiveCommands:0000000000000274 .LVL88
/var/folders/rt/4gvqv631095f64jvm7jfj_000000gn/T//cc9RLqo0.s:919    .text.receiveCommands:00000000000002aa .LVL91
/var/folders/rt/4gvqv631095f64jvm7jfj_000000gn/T//cc9RLqo0.s:597    .text.receiveCommands:0000000000000050 .LVL39
/var/folders/rt/4gvqv631095f64jvm7jfj_000000gn/T//cc9RLqo0.s:670    .text.receiveCommands:00000000000000d4 .LVL50
/var/folders/rt/4gvqv631095f64jvm7jfj_000000gn/T//cc9RLqo0.s:582    .text.receiveCommands:0000000000000036 .LVL38
/var/folders/rt/4gvqv631095f64jvm7jfj_000000gn/T//cc9RLqo0.s:781    .text.receiveCommands:000000000000019c .LVL60
/var/folders/rt/4gvqv631095f64jvm7jfj_000000gn/T//cc9RLqo0.s:786    .text.receiveCommands:00000000000001a4 .LVL61
/var/folders/rt/4gvqv631095f64jvm7jfj_000000gn/T//cc9RLqo0.s:891    .text.receiveCommands:0000000000000268 .LVL86
/var/folders/rt/4gvqv631095f64jvm7jfj_000000gn/T//cc9RLqo0.s:793    .text.receiveCommands:00000000000001b2 .LVL63
/var/folders/rt/4gvqv631095f64jvm7jfj_000000gn/T//cc9RLqo0.s:798    .text.receiveCommands:00000000000001ba .LVL64
/var/folders/rt/4gvqv631095f64jvm7jfj_000000gn/T//cc9RLqo0.s:805    .text.receiveCommands:00000000000001c8 .LVL66
/var/folders/rt/4gvqv631095f64jvm7jfj_000000gn/T//cc9RLqo0.s:810    .text.receiveCommands:00000000000001d0 .LVL67
/var/folders/rt/4gvqv631095f64jvm7jfj_000000gn/T//cc9RLqo0.s:817    .text.receiveCommands:00000000000001de .LVL69
/var/folders/rt/4gvqv631095f64jvm7jfj_000000gn/T//cc9RLqo0.s:822    .text.receiveCommands:00000000000001e6 .LVL70
/var/folders/rt/4gvqv631095f64jvm7jfj_000000gn/T//cc9RLqo0.s:829    .text.receiveCommands:00000000000001f4 .LVL72
/var/folders/rt/4gvqv631095f64jvm7jfj_000000gn/T//cc9RLqo0.s:834    .text.receiveCommands:00000000000001fc .LVL73
GAS LISTING /var/folders/rt/4gvqv631095f64jvm7jfj_000000gn/T//cc9RLqo0.s 			page 37


/var/folders/rt/4gvqv631095f64jvm7jfj_000000gn/T//cc9RLqo0.s:841    .text.receiveCommands:000000000000020a .LVL75
/var/folders/rt/4gvqv631095f64jvm7jfj_000000gn/T//cc9RLqo0.s:846    .text.receiveCommands:0000000000000212 .LVL76
/var/folders/rt/4gvqv631095f64jvm7jfj_000000gn/T//cc9RLqo0.s:853    .text.receiveCommands:0000000000000220 .LVL78
/var/folders/rt/4gvqv631095f64jvm7jfj_000000gn/T//cc9RLqo0.s:858    .text.receiveCommands:0000000000000228 .LVL79
/var/folders/rt/4gvqv631095f64jvm7jfj_000000gn/T//cc9RLqo0.s:865    .text.receiveCommands:0000000000000236 .LVL81
/var/folders/rt/4gvqv631095f64jvm7jfj_000000gn/T//cc9RLqo0.s:870    .text.receiveCommands:000000000000023e .LVL82
/var/folders/rt/4gvqv631095f64jvm7jfj_000000gn/T//cc9RLqo0.s:886    .text.receiveCommands:000000000000025e .LVL84
/var/folders/rt/4gvqv631095f64jvm7jfj_000000gn/T//cc9RLqo0.s:23     .text.jsonAllPlants:0000000000000002 .LCFI0
/var/folders/rt/4gvqv631095f64jvm7jfj_000000gn/T//cc9RLqo0.s:135    .text.jsonAllPlants:000000000000007c .LCFI1
/var/folders/rt/4gvqv631095f64jvm7jfj_000000gn/T//cc9RLqo0.s:141    .text.jsonAllPlants:0000000000000084 .LCFI2
/var/folders/rt/4gvqv631095f64jvm7jfj_000000gn/T//cc9RLqo0.s:18     .text.jsonAllPlants:0000000000000000 .LVL0
/var/folders/rt/4gvqv631095f64jvm7jfj_000000gn/T//cc9RLqo0.s:112    .text.jsonAllPlants:0000000000000064 .LVL7
/var/folders/rt/4gvqv631095f64jvm7jfj_000000gn/T//cc9RLqo0.s:109    .text.jsonAllPlants:0000000000000062 .LVL6
/var/folders/rt/4gvqv631095f64jvm7jfj_000000gn/T//cc9RLqo0.s:30     .text.jsonAllPlants:000000000000000a .LVL1
/var/folders/rt/4gvqv631095f64jvm7jfj_000000gn/T//cc9RLqo0.s:87     .text.jsonAllPlants:000000000000004c .LVL3
/var/folders/rt/4gvqv631095f64jvm7jfj_000000gn/T//cc9RLqo0.s:117    .text.jsonAllPlants:0000000000000068 .LVL8
/var/folders/rt/4gvqv631095f64jvm7jfj_000000gn/T//cc9RLqo0.s:103    .text.jsonAllPlants:000000000000005e .LVL4
/var/folders/rt/4gvqv631095f64jvm7jfj_000000gn/T//cc9RLqo0.s:391    .text.jsonAllPlants:00000000000002c2 .LVL15
/var/folders/rt/4gvqv631095f64jvm7jfj_000000gn/T//cc9RLqo0.s:396    .text.jsonAllPlants:00000000000002cc .LVL16
/var/folders/rt/4gvqv631095f64jvm7jfj_000000gn/T//cc9RLqo0.s:401    .text.jsonAllPlants:00000000000002d6 .LVL18
/var/folders/rt/4gvqv631095f64jvm7jfj_000000gn/T//cc9RLqo0.s:106    .text.jsonAllPlants:0000000000000060 .LVL5
/var/folders/rt/4gvqv631095f64jvm7jfj_000000gn/T//cc9RLqo0.s:362    .text.jsonAllPlants:000000000000028a .LVL13
/var/folders/rt/4gvqv631095f64jvm7jfj_000000gn/T//cc9RLqo0.s:439    .text.jsonAllPlants:000000000000031e .LVL22
/var/folders/rt/4gvqv631095f64jvm7jfj_000000gn/T//cc9RLqo0.s:447    .text.jsonAllPlants:000000000000032c .LVL24
/var/folders/rt/4gvqv631095f64jvm7jfj_000000gn/T//cc9RLqo0.s:1024   .debug_info:0000000000000000 .Ldebug_info0
/var/folders/rt/4gvqv631095f64jvm7jfj_000000gn/T//cc9RLqo0.s:61     .text.jsonAllPlants:000000000000002c .LBB2
/var/folders/rt/4gvqv631095f64jvm7jfj_000000gn/T//cc9RLqo0.s:64     .text.jsonAllPlants:000000000000002e .LBE2
/var/folders/rt/4gvqv631095f64jvm7jfj_000000gn/T//cc9RLqo0.s:69     .text.jsonAllPlants:0000000000000036 .LBB7
/var/folders/rt/4gvqv631095f64jvm7jfj_000000gn/T//cc9RLqo0.s:71     .text.jsonAllPlants:0000000000000036 .LBE7
/var/folders/rt/4gvqv631095f64jvm7jfj_000000gn/T//cc9RLqo0.s:74     .text.jsonAllPlants:0000000000000038 .LBB8
/var/folders/rt/4gvqv631095f64jvm7jfj_000000gn/T//cc9RLqo0.s:93     .text.jsonAllPlants:0000000000000058 .LBE8
/var/folders/rt/4gvqv631095f64jvm7jfj_000000gn/T//cc9RLqo0.s:143    .text.jsonAllPlants:0000000000000084 .LBB9
/var/folders/rt/4gvqv631095f64jvm7jfj_000000gn/T//cc9RLqo0.s:450    .text.jsonAllPlants:000000000000032e .LBE9
/var/folders/rt/4gvqv631095f64jvm7jfj_000000gn/T//cc9RLqo0.s:79     .text.jsonAllPlants:0000000000000040 .LBB3
/var/folders/rt/4gvqv631095f64jvm7jfj_000000gn/T//cc9RLqo0.s:82     .text.jsonAllPlants:0000000000000044 .LBE3
/var/folders/rt/4gvqv631095f64jvm7jfj_000000gn/T//cc9RLqo0.s:168    .text.jsonAllPlants:00000000000000ac .LBB4
/var/folders/rt/4gvqv631095f64jvm7jfj_000000gn/T//cc9RLqo0.s:171    .text.jsonAllPlants:00000000000000ae .LBE4
/var/folders/rt/4gvqv631095f64jvm7jfj_000000gn/T//cc9RLqo0.s:364    .text.jsonAllPlants:000000000000028a .LBB5
/var/folders/rt/4gvqv631095f64jvm7jfj_000000gn/T//cc9RLqo0.s:382    .text.jsonAllPlants:00000000000002b2 .LBE5
/var/folders/rt/4gvqv631095f64jvm7jfj_000000gn/T//cc9RLqo0.s:408    .text.jsonAllPlants:00000000000002de .LBB6
/var/folders/rt/4gvqv631095f64jvm7jfj_000000gn/T//cc9RLqo0.s:449    .text.jsonAllPlants:000000000000032e .LBE6
/var/folders/rt/4gvqv631095f64jvm7jfj_000000gn/T//cc9RLqo0.s:544    .text.receiveCommands:0000000000000000 .LBB10
/var/folders/rt/4gvqv631095f64jvm7jfj_000000gn/T//cc9RLqo0.s:546    .text.receiveCommands:0000000000000000 .LBE10
/var/folders/rt/4gvqv631095f64jvm7jfj_000000gn/T//cc9RLqo0.s:552    .text.receiveCommands:0000000000000008 .LBB15
/var/folders/rt/4gvqv631095f64jvm7jfj_000000gn/T//cc9RLqo0.s:558    .text.receiveCommands:0000000000000010 .LBE15
/var/folders/rt/4gvqv631095f64jvm7jfj_000000gn/T//cc9RLqo0.s:574    .text.receiveCommands:000000000000002c .LBB16
/var/folders/rt/4gvqv631095f64jvm7jfj_000000gn/T//cc9RLqo0.s:672    .text.receiveCommands:00000000000000d4 .LBE16
/var/folders/rt/4gvqv631095f64jvm7jfj_000000gn/T//cc9RLqo0.s:699    .text.receiveCommands:00000000000000fa .LBB17
/var/folders/rt/4gvqv631095f64jvm7jfj_000000gn/T//cc9RLqo0.s:926    .text.receiveCommands:00000000000002ae .LBE17
/var/folders/rt/4gvqv631095f64jvm7jfj_000000gn/T//cc9RLqo0.s:626    .text.receiveCommands:000000000000007e .LBB12
/var/folders/rt/4gvqv631095f64jvm7jfj_000000gn/T//cc9RLqo0.s:665    .text.receiveCommands:00000000000000d0 .LBE12
/var/folders/rt/4gvqv631095f64jvm7jfj_000000gn/T//cc9RLqo0.s:700    .text.receiveCommands:00000000000000fa .LBB14
/var/folders/rt/4gvqv631095f64jvm7jfj_000000gn/T//cc9RLqo0.s:921    .text.receiveCommands:00000000000002aa .LBE14

UNDEFINED SYMBOLS
snprintf
sprintf
GAS LISTING /var/folders/rt/4gvqv631095f64jvm7jfj_000000gn/T//cc9RLqo0.s 			page 38


strstr
strlen
atoi
commandBufferIndex
commandBuffer
strcmp
putstr
sscanf
T1setPWMch0
gpio_output_bit_get
gpio_bit_reset
gpio_bit_set
initPlant
LCD_Clear
LCD_ShowStr
