GAS LISTING /var/folders/rt/4gvqv631095f64jvm7jfj_000000gn/T//ccSnq3HU.s 			page 1


   1              		.file	"wifiServices.c"
   2              		.option nopic
   3              		.attribute arch, "rv32i2p0_m2p0_a2p0_c2p0"
   4              		.attribute unaligned_access, 0
   5              		.attribute stack_align, 16
   6              		.text
   7              	.Ltext0:
   8              		.cfi_sections	.debug_frame
   9              		.section	.text.jsonAllPlants,"ax",@progbits
  10              		.align	1
  11              		.globl	jsonAllPlants
  13              	jsonAllPlants:
  14              	.LFB6:
  15              		.file 1 "wifiServices.c"
   1:wifiServices.c **** #include "lcd.h"
   2:wifiServices.c **** #include "plant.h"
   3:wifiServices.c **** #include "usart.h"
   4:wifiServices.c **** #include "pwm.h"
   5:wifiServices.c **** #include "wifiServices.h"
   6:wifiServices.c **** #include <stdio.h>
   7:wifiServices.c **** #include <string.h>
   8:wifiServices.c **** #include "renderPlants.h"
   9:wifiServices.c **** 
  10:wifiServices.c **** void jsonAllPlants(char *out, size_t outSize, Plant allPlants[], int numberOfPlants)
  11:wifiServices.c **** {
  16              		.loc 1 11 1
  17              		.cfi_startproc
  18              	.LVL0:
  12:wifiServices.c ****   int currentIndex = 0;
  19              		.loc 1 12 3
  13:wifiServices.c ****   currentIndex += snprintf(out + currentIndex, outSize - currentIndex, "[");
  20              		.loc 1 13 3
  11:wifiServices.c ****   int currentIndex = 0;
  21              		.loc 1 11 1 is_stmt 0
  22 0000 1D71     		addi	sp,sp,-96
  23              	.LCFI0:
  24              		.cfi_def_cfa_offset 96
  25 0002 A2CC     		sw	s0,88(sp)
  26              		.cfi_offset 8, -8
  27 0004 3284     		mv	s0,a2
  28              		.loc 1 13 19
  29 0006 37060000 		lui	a2,%hi(.LC0)
  30              	.LVL1:
  31 000a 13060600 		addi	a2,a2,%lo(.LC0)
  11:wifiServices.c ****   int currentIndex = 0;
  32              		.loc 1 11 1
  33 000e A6CA     		sw	s1,84(sp)
  34 0010 CAC8     		sw	s2,80(sp)
  35 0012 CEC6     		sw	s3,76(sp)
  36 0014 D2C4     		sw	s4,72(sp)
  37 0016 D6C2     		sw	s5,68(sp)
  38 0018 DAC0     		sw	s6,64(sp)
  39 001a 5EDE     		sw	s7,60(sp)
  40 001c 86CE     		sw	ra,92(sp)
  41              		.cfi_offset 9, -12
  42              		.cfi_offset 18, -16
  43              		.cfi_offset 19, -20
GAS LISTING /var/folders/rt/4gvqv631095f64jvm7jfj_000000gn/T//ccSnq3HU.s 			page 2


  44              		.cfi_offset 20, -24
  45              		.cfi_offset 21, -28
  46              		.cfi_offset 22, -32
  47              		.cfi_offset 23, -36
  48              		.cfi_offset 1, -4
  11:wifiServices.c ****   int currentIndex = 0;
  49              		.loc 1 11 1
  50 001e 2A89     		mv	s2,a0
  51 0020 AE84     		mv	s1,a1
  52 0022 B689     		mv	s3,a3
  53              	.LBB2:
  14:wifiServices.c ****   for (int i = 0; i < numberOfPlants; i++)
  54              		.loc 1 14 12
  55 0024 814B     		li	s7,0
  56              	.LBE2:
  13:wifiServices.c ****   currentIndex += snprintf(out + currentIndex, outSize - currentIndex, "[");
  57              		.loc 1 13 19
  58 0026 97000000 		call	snprintf
  58      E7800000 
  59              	.LVL2:
  60              		.loc 1 14 3 is_stmt 1
  61              	.LBB3:
  62              		.loc 1 14 8
  63              	.LBE3:
  13:wifiServices.c ****   currentIndex += snprintf(out + currentIndex, outSize - currentIndex, "[");
  64              		.loc 1 13 16 is_stmt 0
  65 002e 054B     		li	s6,1
  66              	.LBB4:
  15:wifiServices.c ****   {
  16:wifiServices.c ****     if (i > 0)
  17:wifiServices.c ****     {
  18:wifiServices.c ****       currentIndex += snprintf(out + currentIndex, outSize - currentIndex, ",");
  67              		.loc 1 18 23
  68 0030 370A0000 		lui	s4,%hi(.LC1)
  19:wifiServices.c ****     }
  20:wifiServices.c **** 
  21:wifiServices.c ****     currentIndex += snprintf(out + currentIndex, outSize - currentIndex,
  69              		.loc 1 21 21
  70 0034 B70A0000 		lui	s5,%hi(.LC2)
  71              	.LVL3:
  72              	.L2:
  73 0038 33056901 		add	a0,s2,s6
  74 003c B3856441 		sub	a1,s1,s6
  14:wifiServices.c ****   {
  75              		.loc 1 14 3 discriminator 1
  76 0040 63C43B03 		blt	s7,s3,.L4
  77              	.LBE4:
  22:wifiServices.c ****                              "{\"name\":\"%s\","
  23:wifiServices.c ****                              "\"status\":\"%s\","
  24:wifiServices.c ****                              "\"currentSun\":%d,"
  25:wifiServices.c ****                              "\"currentMoist\":%d,"
  26:wifiServices.c ****                              "\"currentTemp\":%d,"
  27:wifiServices.c ****                              "\"idealMoist\":%d,"
  28:wifiServices.c ****                              "\"idealSun\":%d,"
  29:wifiServices.c ****                              "\"idealTemp\":%d,"
  30:wifiServices.c ****                              "\"minMoist\":%d,"
  31:wifiServices.c ****                              "\"minSun\":%d,"
GAS LISTING /var/folders/rt/4gvqv631095f64jvm7jfj_000000gn/T//ccSnq3HU.s 			page 3


  32:wifiServices.c ****                              "\"minTemp\":%d,"
  33:wifiServices.c ****                              "\"maxMoist\":%d,"
  34:wifiServices.c ****                              "\"maxSun\":%d,"
  35:wifiServices.c ****                              "\"maxTemp\":%d}",
  36:wifiServices.c ****                              allPlants[i].name,
  37:wifiServices.c ****                              allPlants[i].currentStatus,
  38:wifiServices.c ****                              allPlants[i].sun[allPlants[i].numberOfSunReadings - 1].reading,
  39:wifiServices.c ****                              allPlants[i].moisture[allPlants[i].numberOfMoistureReadings - 1].readi
  40:wifiServices.c ****                              allPlants[i].temp[allPlants[i].numberOfTempReadings - 1].reading,
  41:wifiServices.c ****                              allPlants[i].idealMoist,
  42:wifiServices.c ****                              allPlants[i].idealSun,
  43:wifiServices.c ****                              allPlants[i].idealTemp,
  44:wifiServices.c ****                              allPlants[i].lowMoist,
  45:wifiServices.c ****                              allPlants[i].lowSun,
  46:wifiServices.c ****                              allPlants[i].lowTemp,
  47:wifiServices.c ****                              allPlants[i].highMoist,
  48:wifiServices.c ****                              allPlants[i].highSun,
  49:wifiServices.c ****                              allPlants[i].highTemp);
  50:wifiServices.c ****   }
  51:wifiServices.c ****   snprintf(out + currentIndex, outSize - currentIndex, "]\n");
  78              		.loc 1 51 3 is_stmt 1
  52:wifiServices.c **** }
  79              		.loc 1 52 1 is_stmt 0
  80 0044 6644     		lw	s0,88(sp)
  81              		.cfi_remember_state
  82              		.cfi_restore 8
  83 0046 F640     		lw	ra,92(sp)
  84              		.cfi_restore 1
  85 0048 D644     		lw	s1,84(sp)
  86              		.cfi_restore 9
  87              	.LVL4:
  88 004a 4649     		lw	s2,80(sp)
  89              		.cfi_restore 18
  90              	.LVL5:
  91 004c B649     		lw	s3,76(sp)
  92              		.cfi_restore 19
  93              	.LVL6:
  94 004e 264A     		lw	s4,72(sp)
  95              		.cfi_restore 20
  96 0050 964A     		lw	s5,68(sp)
  97              		.cfi_restore 21
  98 0052 064B     		lw	s6,64(sp)
  99              		.cfi_restore 22
 100              	.LVL7:
 101 0054 F25B     		lw	s7,60(sp)
 102              		.cfi_restore 23
 103              	.LVL8:
  51:wifiServices.c **** }
 104              		.loc 1 51 3
 105 0056 37060000 		lui	a2,%hi(.LC3)
 106              		.loc 1 52 1
  51:wifiServices.c **** }
 107              		.loc 1 51 3
 108 005a 13060600 		addi	a2,a2,%lo(.LC3)
 109              		.loc 1 52 1
 110 005e 2561     		addi	sp,sp,96
 111              	.LCFI1:
GAS LISTING /var/folders/rt/4gvqv631095f64jvm7jfj_000000gn/T//ccSnq3HU.s 			page 4


 112              		.cfi_def_cfa_offset 0
  51:wifiServices.c **** }
 113              		.loc 1 51 3
 114 0060 17030000 		tail	snprintf
 114      67000300 
 115              	.LVL9:
 116              	.L4:
 117              	.LCFI2:
 118              		.cfi_restore_state
 119              	.LBB5:
  16:wifiServices.c ****     {
 120              		.loc 1 16 5 is_stmt 1
  16:wifiServices.c ****     {
 121              		.loc 1 16 8 is_stmt 0
 122 0068 63597001 		ble	s7,zero,.L3
  18:wifiServices.c ****     }
 123              		.loc 1 18 7 is_stmt 1
  18:wifiServices.c ****     }
 124              		.loc 1 18 23 is_stmt 0
 125 006c 13060A00 		addi	a2,s4,%lo(.LC1)
 126 0070 97000000 		call	snprintf
 126      E7800000 
 127              	.LVL10:
  18:wifiServices.c ****     }
 128              		.loc 1 18 20
 129 0078 050B     		addi	s6,s6,1
 130              	.LVL11:
 131              	.L3:
  21:wifiServices.c ****                              "{\"name\":\"%s\","
 132              		.loc 1 21 5 is_stmt 1 discriminator 2
  40:wifiServices.c ****                              allPlants[i].idealMoist,
 133              		.loc 1 40 60 is_stmt 0 discriminator 2
 134 007a 03477432 		lbu	a4,807(s0)
 135 007e 83476432 		lbu	a5,806(s0)
  21:wifiServices.c ****                              "{\"name\":\"%s\","
 136              		.loc 1 21 21 discriminator 2
 137 0082 0345B44C 		lbu	a0,1227(s0)
  40:wifiServices.c ****                              allPlants[i].idealMoist,
 138              		.loc 1 40 60 discriminator 2
 139 0086 2207     		slli	a4,a4,8
 140 0088 5D8F     		or	a4,a4,a5
 141 008a 83478432 		lbu	a5,808(s0)
  21:wifiServices.c ****                              "{\"name\":\"%s\","
 142              		.loc 1 21 21 discriminator 2
 143 008e 2205     		slli	a0,a0,8
  14:wifiServices.c ****   {
 144              		.loc 1 14 40 discriminator 2
 145 0090 850B     		addi	s7,s7,1
 146              	.LVL12:
  40:wifiServices.c ****                              allPlants[i].idealMoist,
 147              		.loc 1 40 60 discriminator 2
 148 0092 C207     		slli	a5,a5,16
 149 0094 5D8F     		or	a4,a5,a4
 150 0096 83479432 		lbu	a5,809(s0)
 151 009a E207     		slli	a5,a5,24
 152 009c D98F     		or	a5,a5,a4
  21:wifiServices.c ****                              "{\"name\":\"%s\","
GAS LISTING /var/folders/rt/4gvqv631095f64jvm7jfj_000000gn/T//ccSnq3HU.s 			page 5


 153              		.loc 1 21 21 discriminator 2
 154 009e 93879704 		addi	a5,a5,73
 155 00a2 8E07     		slli	a5,a5,3
 156 00a4 A297     		add	a5,s0,a5
 157 00a6 83C83701 		lbu	a7,19(a5)
 158 00aa 83C52701 		lbu	a1,18(a5)
  39:wifiServices.c ****                              allPlants[i].temp[allPlants[i].numberOfTempReadings - 1].reading,
 159              		.loc 1 39 64 discriminator 2
 160 00ae 0347F431 		lbu	a4,799(s0)
  21:wifiServices.c ****                              "{\"name\":\"%s\","
 161              		.loc 1 21 21 discriminator 2
 162 00b2 A208     		slli	a7,a7,8
 163 00b4 B3E8B800 		or	a7,a7,a1
 164 00b8 83C54701 		lbu	a1,20(a5)
  39:wifiServices.c ****                              allPlants[i].temp[allPlants[i].numberOfTempReadings - 1].reading,
 165              		.loc 1 39 64 discriminator 2
 166 00bc 2207     		slli	a4,a4,8
  21:wifiServices.c ****                              "{\"name\":\"%s\","
 167              		.loc 1 21 21 discriminator 2
 168 00be C205     		slli	a1,a1,16
 169 00c0 B3E51501 		or	a1,a1,a7
 170 00c4 83C85701 		lbu	a7,21(a5)
  39:wifiServices.c ****                              allPlants[i].temp[allPlants[i].numberOfTempReadings - 1].reading,
 171              		.loc 1 39 64 discriminator 2
 172 00c8 8347E431 		lbu	a5,798(s0)
  21:wifiServices.c ****                              "{\"name\":\"%s\","
 173              		.loc 1 21 21 discriminator 2
 174 00cc E208     		slli	a7,a7,24
  39:wifiServices.c ****                              allPlants[i].temp[allPlants[i].numberOfTempReadings - 1].reading,
 175              		.loc 1 39 64 discriminator 2
 176 00ce 5D8F     		or	a4,a4,a5
 177 00d0 83470432 		lbu	a5,800(s0)
  21:wifiServices.c ****                              "{\"name\":\"%s\","
 178              		.loc 1 21 21 discriminator 2
 179 00d4 B3E8B800 		or	a7,a7,a1
 180 00d8 B3856441 		sub	a1,s1,s6
  39:wifiServices.c ****                              allPlants[i].temp[allPlants[i].numberOfTempReadings - 1].reading,
 181              		.loc 1 39 64 discriminator 2
 182 00dc C207     		slli	a5,a5,16
 183 00de 5D8F     		or	a4,a5,a4
 184 00e0 83471432 		lbu	a5,801(s0)
 185 00e4 E207     		slli	a5,a5,24
 186 00e6 D98F     		or	a5,a5,a4
  21:wifiServices.c ****                              "{\"name\":\"%s\","
 187              		.loc 1 21 21 discriminator 2
 188 00e8 8507     		addi	a5,a5,1
 189 00ea 8E07     		slli	a5,a5,3
 190 00ec A297     		add	a5,s0,a5
 191 00ee 03C83701 		lbu	a6,19(a5)
 192 00f2 03C62701 		lbu	a2,18(a5)
  38:wifiServices.c ****                              allPlants[i].moisture[allPlants[i].numberOfMoistureReadings - 1].readi
 193              		.loc 1 38 59 discriminator 2
 194 00f6 03472432 		lbu	a4,802(s0)
  21:wifiServices.c ****                              "{\"name\":\"%s\","
 195              		.loc 1 21 21 discriminator 2
 196 00fa 2208     		slli	a6,a6,8
 197 00fc 3368C800 		or	a6,a6,a2
GAS LISTING /var/folders/rt/4gvqv631095f64jvm7jfj_000000gn/T//ccSnq3HU.s 			page 6


 198 0100 03C64701 		lbu	a2,20(a5)
 199 0104 4206     		slli	a2,a2,16
 200 0106 33660601 		or	a2,a2,a6
 201 010a 03C85701 		lbu	a6,21(a5)
  38:wifiServices.c ****                              allPlants[i].moisture[allPlants[i].numberOfMoistureReadings - 1].readi
 202              		.loc 1 38 59 discriminator 2
 203 010e 83473432 		lbu	a5,803(s0)
  21:wifiServices.c ****                              "{\"name\":\"%s\","
 204              		.loc 1 21 21 discriminator 2
 205 0112 6208     		slli	a6,a6,24
  38:wifiServices.c ****                              allPlants[i].moisture[allPlants[i].numberOfMoistureReadings - 1].readi
 206              		.loc 1 38 59 discriminator 2
 207 0114 A207     		slli	a5,a5,8
 208 0116 D98F     		or	a5,a5,a4
 209 0118 03474432 		lbu	a4,804(s0)
  21:wifiServices.c ****                              "{\"name\":\"%s\","
 210              		.loc 1 21 21 discriminator 2
 211 011c 3368C800 		or	a6,a6,a2
 212 0120 13860A00 		addi	a2,s5,%lo(.LC2)
  38:wifiServices.c ****                              allPlants[i].moisture[allPlants[i].numberOfMoistureReadings - 1].readi
 213              		.loc 1 38 59 discriminator 2
 214 0124 4207     		slli	a4,a4,16
 215 0126 D98F     		or	a5,a4,a5
 216 0128 03475432 		lbu	a4,805(s0)
 217 012c 6207     		slli	a4,a4,24
 218 012e 5D8F     		or	a4,a4,a5
  21:wifiServices.c ****                              "{\"name\":\"%s\","
 219              		.loc 1 21 21 discriminator 2
 220 0130 6507     		addi	a4,a4,25
 221 0132 0E07     		slli	a4,a4,3
 222 0134 2297     		add	a4,s0,a4
 223 0136 83473701 		lbu	a5,19(a4)
 224 013a 83462701 		lbu	a3,18(a4)
 225 013e A207     		slli	a5,a5,8
 226 0140 D58F     		or	a5,a5,a3
 227 0142 83464701 		lbu	a3,20(a4)
 228 0146 C206     		slli	a3,a3,16
 229 0148 DD8E     		or	a3,a3,a5
 230 014a 83475701 		lbu	a5,21(a4)
 231 014e 0347A44C 		lbu	a4,1226(s0)
 232 0152 E207     		slli	a5,a5,24
 233 0154 598D     		or	a0,a0,a4
 234 0156 0347C44C 		lbu	a4,1228(s0)
 235 015a D58F     		or	a5,a5,a3
 236 015c A286     		mv	a3,s0
 237 015e 4207     		slli	a4,a4,16
 238 0160 598D     		or	a0,a4,a0
 239 0162 0347D44C 		lbu	a4,1229(s0)
 240 0166 6207     		slli	a4,a4,24
 241 0168 498F     		or	a4,a4,a0
 242 016a 3AD0     		sw	a4,32(sp)
 243 016c 0345744C 		lbu	a0,1223(s0)
 244 0170 0347644C 		lbu	a4,1222(s0)
 245 0174 2205     		slli	a0,a0,8
 246 0176 598D     		or	a0,a0,a4
 247 0178 0347844C 		lbu	a4,1224(s0)
 248 017c 4207     		slli	a4,a4,16
GAS LISTING /var/folders/rt/4gvqv631095f64jvm7jfj_000000gn/T//ccSnq3HU.s 			page 7


 249 017e 598D     		or	a0,a4,a0
 250 0180 0347944C 		lbu	a4,1225(s0)
 251 0184 6207     		slli	a4,a4,24
 252 0186 498F     		or	a4,a4,a0
 253 0188 3ACE     		sw	a4,28(sp)
 254 018a 0345344C 		lbu	a0,1219(s0)
 255 018e 0347244C 		lbu	a4,1218(s0)
 256 0192 2205     		slli	a0,a0,8
 257 0194 598D     		or	a0,a0,a4
 258 0196 0347444C 		lbu	a4,1220(s0)
 259 019a 4207     		slli	a4,a4,16
 260 019c 598D     		or	a0,a4,a0
 261 019e 0347544C 		lbu	a4,1221(s0)
 262 01a2 6207     		slli	a4,a4,24
 263 01a4 498F     		or	a4,a4,a0
 264 01a6 3ACC     		sw	a4,24(sp)
 265 01a8 0345F44B 		lbu	a0,1215(s0)
 266 01ac 0347E44B 		lbu	a4,1214(s0)
 267 01b0 2205     		slli	a0,a0,8
 268 01b2 598D     		or	a0,a0,a4
 269 01b4 0347044C 		lbu	a4,1216(s0)
 270 01b8 4207     		slli	a4,a4,16
 271 01ba 598D     		or	a0,a4,a0
 272 01bc 0347144C 		lbu	a4,1217(s0)
 273 01c0 6207     		slli	a4,a4,24
 274 01c2 498F     		or	a4,a4,a0
 275 01c4 3ACA     		sw	a4,20(sp)
 276 01c6 0345B44B 		lbu	a0,1211(s0)
 277 01ca 0347A44B 		lbu	a4,1210(s0)
 278 01ce 2205     		slli	a0,a0,8
 279 01d0 598D     		or	a0,a0,a4
 280 01d2 0347C44B 		lbu	a4,1212(s0)
 281 01d6 4207     		slli	a4,a4,16
 282 01d8 598D     		or	a0,a4,a0
 283 01da 0347D44B 		lbu	a4,1213(s0)
 284 01de 6207     		slli	a4,a4,24
 285 01e0 498F     		or	a4,a4,a0
 286 01e2 3AC8     		sw	a4,16(sp)
 287 01e4 0345744B 		lbu	a0,1207(s0)
 288 01e8 0347644B 		lbu	a4,1206(s0)
 289 01ec 2205     		slli	a0,a0,8
 290 01ee 598D     		or	a0,a0,a4
 291 01f0 0347844B 		lbu	a4,1208(s0)
 292 01f4 4207     		slli	a4,a4,16
 293 01f6 598D     		or	a0,a4,a0
 294 01f8 0347944B 		lbu	a4,1209(s0)
 295 01fc 6207     		slli	a4,a4,24
 296 01fe 498F     		or	a4,a4,a0
 297 0200 3AC6     		sw	a4,12(sp)
 298 0202 0345344B 		lbu	a0,1203(s0)
 299 0206 0347244B 		lbu	a4,1202(s0)
 300 020a 2205     		slli	a0,a0,8
 301 020c 598D     		or	a0,a0,a4
 302 020e 0347444B 		lbu	a4,1204(s0)
 303 0212 4207     		slli	a4,a4,16
 304 0214 598D     		or	a0,a4,a0
 305 0216 0347544B 		lbu	a4,1205(s0)
GAS LISTING /var/folders/rt/4gvqv631095f64jvm7jfj_000000gn/T//ccSnq3HU.s 			page 8


 306 021a 6207     		slli	a4,a4,24
 307 021c 498F     		or	a4,a4,a0
 308 021e 3AC4     		sw	a4,8(sp)
 309 0220 0345F44A 		lbu	a0,1199(s0)
 310 0224 0347E44A 		lbu	a4,1198(s0)
 311 0228 2205     		slli	a0,a0,8
 312 022a 598D     		or	a0,a0,a4
 313 022c 0347044B 		lbu	a4,1200(s0)
 314 0230 4207     		slli	a4,a4,16
 315 0232 598D     		or	a0,a4,a0
 316 0234 0347144B 		lbu	a4,1201(s0)
 317 0238 6207     		slli	a4,a4,24
 318 023a 498F     		or	a4,a4,a0
 319 023c 3AC2     		sw	a4,4(sp)
 320 023e 0347A44A 		lbu	a4,1194(s0)
 321 0242 0345B44A 		lbu	a0,1195(s0)
 322 0246 2205     		slli	a0,a0,8
 323 0248 598D     		or	a0,a0,a4
 324 024a 0347C44A 		lbu	a4,1196(s0)
 325 024e 4207     		slli	a4,a4,16
 326 0250 598D     		or	a0,a4,a0
 327 0252 0347D44A 		lbu	a4,1197(s0)
 328 0256 6207     		slli	a4,a4,24
 329 0258 498F     		or	a4,a4,a0
 330 025a 3AC0     		sw	a4,0(sp)
 331 025c 33056901 		add	a0,s2,s6
 332 0260 1307F400 		addi	a4,s0,15
 333 0264 97000000 		call	snprintf
 333      E7800000 
 334              	.LVL13:
  21:wifiServices.c ****                              "{\"name\":\"%s\","
 335              		.loc 1 21 18 discriminator 2
 336 026c 2A9B     		add	s6,s6,a0
 337              	.LVL14:
 338 026e 1304E44C 		addi	s0,s0,1230
 339 0272 D9B3     		j	.L2
 340              	.LBE5:
 341              		.cfi_endproc
 342              	.LFE6:
 344              		.section	.text.getValue,"ax",@progbits
 345              		.align	1
 346              		.globl	getValue
 348              	getValue:
 349              	.LFB8:
  53:wifiServices.c **** 
  54:wifiServices.c **** void receiveCommands(Plant allPlants[], int *numberOfPlants)
  55:wifiServices.c **** {
  56:wifiServices.c ****   LCD_Clear(BLACK);
  57:wifiServices.c ****   LCD_ShowStr(10, 10, "in receive commands", WHITE, TRANSPARENT);
  58:wifiServices.c ****   for (int j = 0; j < commandBufferIndex; j++)
  59:wifiServices.c ****   {
  60:wifiServices.c ****     if (commandBuffer[j] == '\n')
  61:wifiServices.c ****     {
  62:wifiServices.c ****       commandBuffer[j] = '\0';
  63:wifiServices.c ****       if (!strcmp((char *)commandBuffer, "renderAllPlants"))
  64:wifiServices.c ****       {
  65:wifiServices.c ****         LCD_Clear(BLACK);
GAS LISTING /var/folders/rt/4gvqv631095f64jvm7jfj_000000gn/T//ccSnq3HU.s 			page 9


  66:wifiServices.c ****         renderAllPlants(allPlants, *numberOfPlants);
  67:wifiServices.c ****       }
  68:wifiServices.c **** 
  69:wifiServices.c ****       else if (!strcmp((char *)commandBuffer, "getAllPlants"))
  70:wifiServices.c ****       {
  71:wifiServices.c ****         LCD_Clear(BLACK);
  72:wifiServices.c ****         LCD_ShowStr(10, 10, "data transmitted", WHITE, TRANSPARENT);
  73:wifiServices.c **** 
  74:wifiServices.c ****         char data[512];
  75:wifiServices.c ****         jsonAllPlants(data, sizeof(data), allPlants, *numberOfPlants);
  76:wifiServices.c ****         putstr(data);
  77:wifiServices.c ****       }
  78:wifiServices.c **** 
  79:wifiServices.c ****       else
  80:wifiServices.c ****       {
  81:wifiServices.c ****         char cmd[15];
  82:wifiServices.c ****         char *ptr = strstr(commandBuffer, "\"cmd\":\"");
  83:wifiServices.c ****         if (ptr != NULL)
  84:wifiServices.c ****         {
  85:wifiServices.c ****           sscanf(ptr, "\"cmd\":\"%14[^\"]\"", cmd);
  86:wifiServices.c ****         }
  87:wifiServices.c **** 
  88:wifiServices.c ****         if (!strcmp(cmd, "startPump"))
  89:wifiServices.c ****         {
  90:wifiServices.c ****           T1setPWMch0(900);
  91:wifiServices.c ****           LCD_Clear(BLACK);
  92:wifiServices.c ****           LCD_ShowStr(10, 10, "PUMP STARTED!", BLUE, TRANSPARENT);
  93:wifiServices.c ****         }
  94:wifiServices.c **** 
  95:wifiServices.c ****         else if (!strcmp(cmd, "startLamp"))
  96:wifiServices.c ****         {
  97:wifiServices.c ****           if (gpio_output_bit_get(GPIOB, GPIO_PIN_7)) 
  98:wifiServices.c ****             gpio_bit_reset(GPIOB, GPIO_PIN_7);
  99:wifiServices.c ****           else 
 100:wifiServices.c ****             gpio_bit_set(GPIOB, GPIO_PIN_7);
 101:wifiServices.c ****           LCD_Clear(BLACK);
 102:wifiServices.c ****         }
 103:wifiServices.c **** 
 104:wifiServices.c ****         else if (!strcmp(cmd, "addPlant"))
 105:wifiServices.c ****         {
 106:wifiServices.c ****           char name[NAME_LENGTH];
 107:wifiServices.c ****           int idealMoist;
 108:wifiServices.c ****           int idealSun;
 109:wifiServices.c ****           int idealTemp;
 110:wifiServices.c **** 
 111:wifiServices.c ****           int lowMoist;
 112:wifiServices.c ****           int lowSun;
 113:wifiServices.c ****           int lowTemp;
 114:wifiServices.c **** 
 115:wifiServices.c ****           int highMoist;
 116:wifiServices.c ****           int highSun;
 117:wifiServices.c ****           int highTemp;
 118:wifiServices.c **** 
 119:wifiServices.c ****           char *ptr = strstr(commandBuffer, "\"name\":\"");
 120:wifiServices.c ****           if (ptr != NULL)
 121:wifiServices.c ****           {
 122:wifiServices.c ****             sscanf(ptr, "\"name\":\"%[^\"]\"", name);
GAS LISTING /var/folders/rt/4gvqv631095f64jvm7jfj_000000gn/T//ccSnq3HU.s 			page 10


 123:wifiServices.c ****           }
 124:wifiServices.c **** 
 125:wifiServices.c ****           idealMoist = getValue(commandBuffer, "idealMoist");
 126:wifiServices.c ****           idealSun = getValue(commandBuffer, "idealSun");
 127:wifiServices.c ****           idealTemp = getValue(commandBuffer, "idealTemp");
 128:wifiServices.c ****           lowMoist = getValue(commandBuffer, "minMoist");
 129:wifiServices.c ****           lowSun = getValue(commandBuffer, "minSun");
 130:wifiServices.c ****           lowTemp = getValue(commandBuffer, "minTemp");
 131:wifiServices.c ****           highMoist = getValue(commandBuffer, "maxMoist");
 132:wifiServices.c ****           highSun = getValue(commandBuffer, "maxSun");
 133:wifiServices.c ****           highTemp = getValue(commandBuffer, "maxTemp");
 134:wifiServices.c ****           initPlant(name, numberOfPlants, allPlants,
 135:wifiServices.c ****                     idealMoist, lowMoist, highMoist,
 136:wifiServices.c ****                     idealSun, lowSun, highSun,
 137:wifiServices.c ****                     idealTemp, lowTemp, highTemp);
 138:wifiServices.c ****           LCD_Clear(BLACK);
 139:wifiServices.c ****           LCD_ShowStr(10, 10, "NEW PLANT ADDED!", BLUE, TRANSPARENT);
 140:wifiServices.c ****         }
 141:wifiServices.c ****         else
 142:wifiServices.c ****         {
 143:wifiServices.c ****           LCD_Clear(BLACK);
 144:wifiServices.c ****           LCD_ShowStr(10, 10, "BAD COMMAND:", WHITE, TRANSPARENT);
 145:wifiServices.c ****           LCD_ShowStr(10, 23, (char *)commandBuffer, WHITE, TRANSPARENT);
 146:wifiServices.c ****           putstr((char *)commandBuffer);
 147:wifiServices.c ****         }
 148:wifiServices.c ****       }
 149:wifiServices.c ****       commandBufferIndex = 0;
 150:wifiServices.c ****       break;
 151:wifiServices.c ****     }
 152:wifiServices.c ****   }
 153:wifiServices.c **** }
 154:wifiServices.c **** 
 155:wifiServices.c **** int getValue(const volatile char *json, const char *key)
 156:wifiServices.c **** {
 350              		.loc 1 156 1 is_stmt 1
 351              		.cfi_startproc
 352              	.LVL15:
 157:wifiServices.c ****   char search[32];
 353              		.loc 1 157 3
 158:wifiServices.c ****   sprintf(search, "\"%s\":", key);
 354              		.loc 1 158 3
 156:wifiServices.c ****   char search[32];
 355              		.loc 1 156 1 is_stmt 0
 356 0000 7971     		addi	sp,sp,-48
 357              	.LCFI3:
 358              		.cfi_def_cfa_offset 48
 359              		.loc 1 158 3
 360 0002 2E86     		mv	a2,a1
 361 0004 B7050000 		lui	a1,%hi(.LC4)
 362              	.LVL16:
 156:wifiServices.c ****   char search[32];
 363              		.loc 1 156 1
 364 0008 22D4     		sw	s0,40(sp)
 365              		.loc 1 158 3
 366 000a 93850500 		addi	a1,a1,%lo(.LC4)
 367              		.cfi_offset 8, -8
 156:wifiServices.c ****   char search[32];
GAS LISTING /var/folders/rt/4gvqv631095f64jvm7jfj_000000gn/T//ccSnq3HU.s 			page 11


 368              		.loc 1 156 1
 369 000e 2A84     		mv	s0,a0
 370              		.loc 1 158 3
 371 0010 0A85     		mv	a0,sp
 372              	.LVL17:
 156:wifiServices.c ****   char search[32];
 373              		.loc 1 156 1
 374 0012 06D6     		sw	ra,44(sp)
 375              		.cfi_offset 1, -4
 376              		.loc 1 158 3
 377 0014 97000000 		call	sprintf
 377      E7800000 
 378              	.LVL18:
 159:wifiServices.c **** 
 160:wifiServices.c ****   char *ptr = strstr(json, search); // DENNA BLIR INDEXET DĂ„R search hittas i json. Dvs motsvarigh
 379              		.loc 1 160 3 is_stmt 1
 380              		.loc 1 160 15 is_stmt 0
 381 001c 8A85     		mv	a1,sp
 382 001e 2285     		mv	a0,s0
 383 0020 97000000 		call	strstr
 383      E7800000 
 384              	.LVL19:
 161:wifiServices.c ****   if (ptr != NULL)
 385              		.loc 1 161 3 is_stmt 1
 386              		.loc 1 161 6 is_stmt 0
 387 0028 05C1     		beq	a0,zero,.L8
 388 002a 2A84     		mv	s0,a0
 389              	.LVL20:
 162:wifiServices.c ****   {
 163:wifiServices.c ****     ptr += strlen(search); // lĂ¤gg till lĂ¤ngden av sĂ¶kordet. Och sĂ¶kordet Ă¤r vĂĄrat nyckelord.
 390              		.loc 1 163 5 is_stmt 1
 391              		.loc 1 163 12 is_stmt 0
 392 002c 0A85     		mv	a0,sp
 393              	.LVL21:
 394 002e 97000000 		call	strlen
 394      E7800000 
 395              	.LVL22:
 164:wifiServices.c ****     return atoi(ptr);      // atoi Ă¤r sĂĄpass smart att den bĂ¶rjar och slutar automatiskt dĂ¤r vĂ
 396              		.loc 1 164 5 is_stmt 1
 397              		.loc 1 164 12 is_stmt 0
 398 0036 2295     		add	a0,s0,a0
 399              	.LVL23:
 400 0038 97000000 		call	atoi
 400      E7800000 
 401              	.LVL24:
 402              	.L6:
 165:wifiServices.c ****   }
 166:wifiServices.c **** 
 167:wifiServices.c ****   return 0;
 168:wifiServices.c **** }...
 403              		.loc 1 168 1
 404 0040 B250     		lw	ra,44(sp)
 405              		.cfi_remember_state
 406              		.cfi_restore 1
 407 0042 2254     		lw	s0,40(sp)
 408              		.cfi_restore 8
 409 0044 4561     		addi	sp,sp,48
GAS LISTING /var/folders/rt/4gvqv631095f64jvm7jfj_000000gn/T//ccSnq3HU.s 			page 12


 410              	.LCFI4:
 411              		.cfi_def_cfa_offset 0
 412 0046 8280     		jr	ra
 413              	.LVL25:
 414              	.L8:
 415              	.LCFI5:
 416              		.cfi_restore_state
 167:wifiServices.c ****   return 0;
 417              		.loc 1 167 10
 418 0048 0145     		li	a0,0
 419              	.LVL26:
 420 004a DDBF     		j	.L6
 421              		.cfi_endproc
 422              	.LFE8:
 424              		.section	.text.receiveCommands,"ax",@progbits
 425              		.align	1
 426              		.globl	receiveCommands
 428              	receiveCommands:
 429              	.LFB7:
  55:wifiServices.c **** {
 430              		.loc 1 55 1 is_stmt 1
 431              		.cfi_startproc
 432              	.LVL27:
  56:wifiServices.c ****   LCD_Clear(BLACK);
 433              		.loc 1 56 3
  55:wifiServices.c **** {
 434              		.loc 1 55 1 is_stmt 0
 435 0000 130101DA 		addi	sp,sp,-608
 436              	.LCFI6:
 437              		.cfi_def_cfa_offset 608
 438 0004 232A9124 		sw	s1,596(sp)
 439              		.cfi_offset 9, -12
 440 0008 AA84     		mv	s1,a0
  56:wifiServices.c ****   LCD_Clear(BLACK);
 441              		.loc 1 56 3
 442 000a 0145     		li	a0,0
 443              	.LVL28:
  55:wifiServices.c **** {
 444              		.loc 1 55 1
 445 000c 232E1124 		sw	ra,604(sp)
 446 0010 232C8124 		sw	s0,600(sp)
 447 0014 23282125 		sw	s2,592(sp)
 448 0018 23263125 		sw	s3,588(sp)
 449              		.cfi_offset 1, -4
 450              		.cfi_offset 8, -8
 451              		.cfi_offset 18, -16
 452              		.cfi_offset 19, -20
 453 001c 2E89     		mv	s2,a1
 454 001e 23244125 		sw	s4,584(sp)
 455 0022 23225125 		sw	s5,580(sp)
 456 0026 23206125 		sw	s6,576(sp)
 457              		.cfi_offset 20, -24
 458              		.cfi_offset 21, -28
 459              		.cfi_offset 22, -32
  56:wifiServices.c ****   LCD_Clear(BLACK);
 460              		.loc 1 56 3
 461 002a 97000000 		call	LCD_Clear
GAS LISTING /var/folders/rt/4gvqv631095f64jvm7jfj_000000gn/T//ccSnq3HU.s 			page 13


 461      E7800000 
 462              	.LVL29:
  57:wifiServices.c ****   LCD_ShowStr(10, 10, "in receive commands", WHITE, TRANSPARENT);
 463              		.loc 1 57 3 is_stmt 1
 464 0032 C166     		li	a3,65536
 465 0034 37060000 		lui	a2,%hi(.LC5)
 466 0038 0547     		li	a4,1
 467 003a 13060600 		addi	a2,a2,%lo(.LC5)
 468 003e A945     		li	a1,10
 469 0040 FD16     		addi	a3,a3,-1
 470 0042 2945     		li	a0,10
 471 0044 97000000 		call	LCD_ShowStr
 471      E7800000 
 472              	.LVL30:
  58:wifiServices.c ****   for (int j = 0; j < commandBufferIndex; j++)
 473              		.loc 1 58 3
 474              	.LBB6:
  58:wifiServices.c ****   for (int j = 0; j < commandBufferIndex; j++)
 475              		.loc 1 58 8
  58:wifiServices.c ****   for (int j = 0; j < commandBufferIndex; j++)
 476              		.loc 1 58 21 is_stmt 0
 477 004c 37070000 		lui	a4,%hi(commandBufferIndex)
  60:wifiServices.c ****     if (commandBuffer[j] == '\n')
 478              		.loc 1 60 22
 479 0050 37040000 		lui	s0,%hi(commandBuffer)
  58:wifiServices.c ****   for (int j = 0; j < commandBufferIndex; j++)
 480              		.loc 1 58 12
 481 0054 8147     		li	a5,0
 482 0056 BA89     		mv	s3,a4
  60:wifiServices.c ****     if (commandBuffer[j] == '\n')
 483              		.loc 1 60 22
 484 0058 13060400 		addi	a2,s0,%lo(commandBuffer)
  60:wifiServices.c ****     if (commandBuffer[j] == '\n')
 485              		.loc 1 60 8
 486 005c A945     		li	a1,10
 487              	.LVL31:
 488              	.L11:
  58:wifiServices.c ****   for (int j = 0; j < commandBufferIndex; j++)
 489              		.loc 1 58 21 discriminator 1
 490 005e 83260700 		lw	a3,%lo(commandBufferIndex)(a4)
  58:wifiServices.c ****   for (int j = 0; j < commandBufferIndex; j++)
 491              		.loc 1 58 3 discriminator 1
 492 0062 63D2D704 		ble	a3,a5,.L10
  60:wifiServices.c ****     if (commandBuffer[j] == '\n')
 493              		.loc 1 60 5 is_stmt 1
  60:wifiServices.c ****     if (commandBuffer[j] == '\n')
 494              		.loc 1 60 22 is_stmt 0
 495 0066 B306F600 		add	a3,a2,a5
 496 006a 03C50600 		lbu	a0,0(a3)
  60:wifiServices.c ****     if (commandBuffer[j] == '\n')
 497              		.loc 1 60 8
 498 006e 6399A52E 		bne	a1,a0,.L12
  62:wifiServices.c ****       commandBuffer[j] = '\0';
 499              		.loc 1 62 7 is_stmt 1
  63:wifiServices.c ****       if (!strcmp((char *)commandBuffer, "renderAllPlants"))
 500              		.loc 1 63 12 is_stmt 0
 501 0072 B7050000 		lui	a1,%hi(.LC6)
GAS LISTING /var/folders/rt/4gvqv631095f64jvm7jfj_000000gn/T//ccSnq3HU.s 			page 14


 502 0076 93850500 		addi	a1,a1,%lo(.LC6)
 503 007a 13050400 		addi	a0,s0,%lo(commandBuffer)
  62:wifiServices.c ****       commandBuffer[j] = '\0';
 504              		.loc 1 62 24
 505 007e 23800600 		sb	zero,0(a3)
  63:wifiServices.c ****       if (!strcmp((char *)commandBuffer, "renderAllPlants"))
 506              		.loc 1 63 7 is_stmt 1
  63:wifiServices.c ****       if (!strcmp((char *)commandBuffer, "renderAllPlants"))
 507              		.loc 1 63 12 is_stmt 0
 508 0082 97000000 		call	strcmp
 508      E7800000 
 509              	.LVL32:
  63:wifiServices.c ****       if (!strcmp((char *)commandBuffer, "renderAllPlants"))
 510              		.loc 1 63 10
 511 008a 29E1     		bne	a0,zero,.L13
  65:wifiServices.c ****         LCD_Clear(BLACK);
 512              		.loc 1 65 9 is_stmt 1
 513 008c 97000000 		call	LCD_Clear
 513      E7800000 
 514              	.LVL33:
  66:wifiServices.c ****         renderAllPlants(allPlants, *numberOfPlants);
 515              		.loc 1 66 9
 516 0094 83250900 		lw	a1,0(s2)
 517 0098 2685     		mv	a0,s1
 518 009a 97000000 		call	renderAllPlants
 518      E7800000 
 519              	.LVL34:
 520              	.L14:
 149:wifiServices.c ****       commandBufferIndex = 0;
 521              		.loc 1 149 7
 149:wifiServices.c ****       commandBufferIndex = 0;
 522              		.loc 1 149 26 is_stmt 0
 523 00a2 23A00900 		sw	zero,%lo(commandBufferIndex)(s3)
 150:wifiServices.c ****       break;
 524              		.loc 1 150 7 is_stmt 1
 525              	.L10:
 526              	.LBE6:
 153:wifiServices.c **** }
 527              		.loc 1 153 1 is_stmt 0
 528 00a6 8320C125 		lw	ra,604(sp)
 529              		.cfi_remember_state
 530              		.cfi_restore 1
 531 00aa 03248125 		lw	s0,600(sp)
 532              		.cfi_restore 8
 533 00ae 83244125 		lw	s1,596(sp)
 534              		.cfi_restore 9
 535 00b2 03290125 		lw	s2,592(sp)
 536              		.cfi_restore 18
 537              	.LVL35:
 538 00b6 8329C124 		lw	s3,588(sp)
 539              		.cfi_restore 19
 540 00ba 032A8124 		lw	s4,584(sp)
 541              		.cfi_restore 20
 542 00be 832A4124 		lw	s5,580(sp)
 543              		.cfi_restore 21
 544 00c2 032B0124 		lw	s6,576(sp)
 545              		.cfi_restore 22
GAS LISTING /var/folders/rt/4gvqv631095f64jvm7jfj_000000gn/T//ccSnq3HU.s 			page 15


 546 00c6 13010126 		addi	sp,sp,608
 547              	.LCFI7:
 548              		.cfi_def_cfa_offset 0
 549 00ca 8280     		jr	ra
 550              	.LVL36:
 551              	.L13:
 552              	.LCFI8:
 553              		.cfi_restore_state
 554              	.LBB11:
  69:wifiServices.c ****       else if (!strcmp((char *)commandBuffer, "getAllPlants"))
 555              		.loc 1 69 12 is_stmt 1
  69:wifiServices.c ****       else if (!strcmp((char *)commandBuffer, "getAllPlants"))
 556              		.loc 1 69 17 is_stmt 0
 557 00cc B7050000 		lui	a1,%hi(.LC7)
 558 00d0 93850500 		addi	a1,a1,%lo(.LC7)
 559 00d4 13050400 		addi	a0,s0,%lo(commandBuffer)
 560 00d8 97000000 		call	strcmp
 560      E7800000 
 561              	.LVL37:
  69:wifiServices.c ****       else if (!strcmp((char *)commandBuffer, "getAllPlants"))
 562              		.loc 1 69 15
 563 00e0 31E1     		bne	a0,zero,.L15
 564              	.LBB7:
  71:wifiServices.c ****         LCD_Clear(BLACK);
 565              		.loc 1 71 9 is_stmt 1
 566 00e2 97000000 		call	LCD_Clear
 566      E7800000 
 567              	.LVL38:
  72:wifiServices.c ****         LCD_ShowStr(10, 10, "data transmitted", WHITE, TRANSPARENT);
 568              		.loc 1 72 9
 569 00ea C166     		li	a3,65536
 570 00ec 37060000 		lui	a2,%hi(.LC8)
 571 00f0 0547     		li	a4,1
 572 00f2 FD16     		addi	a3,a3,-1
 573 00f4 13060600 		addi	a2,a2,%lo(.LC8)
 574 00f8 A945     		li	a1,10
 575 00fa 2945     		li	a0,10
 576 00fc 97000000 		call	LCD_ShowStr
 576      E7800000 
 577              	.LVL39:
  74:wifiServices.c ****         char data[512];
 578              		.loc 1 74 9
  75:wifiServices.c ****         jsonAllPlants(data, sizeof(data), allPlants, *numberOfPlants);
 579              		.loc 1 75 9
 580 0104 83260900 		lw	a3,0(s2)
 581 0108 8800     		addi	a0,sp,64
 582 010a 2686     		mv	a2,s1
 583 010c 93050020 		li	a1,512
 584 0110 97000000 		call	jsonAllPlants
 584      E7800000 
 585              	.LVL40:
  76:wifiServices.c ****         putstr(data);
 586              		.loc 1 76 9
 587 0118 8800     		addi	a0,sp,64
 588              	.LVL41:
 589              	.L33:
 590              	.LBE7:
GAS LISTING /var/folders/rt/4gvqv631095f64jvm7jfj_000000gn/T//ccSnq3HU.s 			page 16


 591              	.LBB8:
 146:wifiServices.c ****           putstr((char *)commandBuffer);
 592              		.loc 1 146 11 is_stmt 0
 593 011a 97000000 		call	putstr
 593      E7800000 
 594              	.LVL42:
 595 0122 41B7     		j	.L14
 596              	.LVL43:
 597              	.L15:
  81:wifiServices.c ****         char cmd[15];
 598              		.loc 1 81 9 is_stmt 1
  82:wifiServices.c ****         char *ptr = strstr(commandBuffer, "\"cmd\":\"");
 599              		.loc 1 82 9
  82:wifiServices.c ****         char *ptr = strstr(commandBuffer, "\"cmd\":\"");
 600              		.loc 1 82 21 is_stmt 0
 601 0124 B7050000 		lui	a1,%hi(.LC9)
 602 0128 93850500 		addi	a1,a1,%lo(.LC9)
 603 012c 13050400 		addi	a0,s0,%lo(commandBuffer)
 604 0130 97000000 		call	strstr
 604      E7800000 
 605              	.LVL44:
  83:wifiServices.c ****         if (ptr != NULL)
 606              		.loc 1 83 9 is_stmt 1
  83:wifiServices.c ****         if (ptr != NULL)
 607              		.loc 1 83 12 is_stmt 0
 608 0138 11C9     		beq	a0,zero,.L16
  85:wifiServices.c ****           sscanf(ptr, "\"cmd\":\"%14[^\"]\"", cmd);
 609              		.loc 1 85 11 is_stmt 1
 610 013a B7050000 		lui	a1,%hi(.LC10)
 611 013e 1018     		addi	a2,sp,48
 612 0140 93850500 		addi	a1,a1,%lo(.LC10)
 613 0144 97000000 		call	sscanf
 613      E7800000 
 614              	.LVL45:
 615              	.L16:
  88:wifiServices.c ****         if (!strcmp(cmd, "startPump"))
 616              		.loc 1 88 9
  88:wifiServices.c ****         if (!strcmp(cmd, "startPump"))
 617              		.loc 1 88 14 is_stmt 0
 618 014c B7050000 		lui	a1,%hi(.LC11)
 619 0150 93850500 		addi	a1,a1,%lo(.LC11)
 620 0154 0818     		addi	a0,sp,48
 621 0156 97000000 		call	strcmp
 621      E7800000 
 622              	.LVL46:
  88:wifiServices.c ****         if (!strcmp(cmd, "startPump"))
 623              		.loc 1 88 12
 624 015e 0DE9     		bne	a0,zero,.L17
  90:wifiServices.c ****           T1setPWMch0(900);
 625              		.loc 1 90 11 is_stmt 1
 626 0160 13054038 		li	a0,900
 627 0164 97000000 		call	T1setPWMch0
 627      E7800000 
 628              	.LVL47:
  91:wifiServices.c ****           LCD_Clear(BLACK);
 629              		.loc 1 91 11
 630 016c 0145     		li	a0,0
GAS LISTING /var/folders/rt/4gvqv631095f64jvm7jfj_000000gn/T//ccSnq3HU.s 			page 17


 631 016e 97000000 		call	LCD_Clear
 631      E7800000 
 632              	.LVL48:
  92:wifiServices.c ****           LCD_ShowStr(10, 10, "PUMP STARTED!", BLUE, TRANSPARENT);
 633              		.loc 1 92 11
 634 0176 37060000 		lui	a2,%hi(.LC12)
 635 017a 0547     		li	a4,1
 636 017c FD46     		li	a3,31
 637 017e 13060600 		addi	a2,a2,%lo(.LC12)
 638              	.L34:
 639              	.LBB9:
 139:wifiServices.c ****           LCD_ShowStr(10, 10, "NEW PLANT ADDED!", BLUE, TRANSPARENT);
 640              		.loc 1 139 11 is_stmt 0
 641 0182 A945     		li	a1,10
 642 0184 2945     		li	a0,10
 643 0186 97000000 		call	LCD_ShowStr
 643      E7800000 
 644              	.LVL49:
 645              	.LBE9:
 646 018e 11BF     		j	.L14
 647              	.L17:
  95:wifiServices.c ****         else if (!strcmp(cmd, "startLamp"))
 648              		.loc 1 95 14 is_stmt 1
  95:wifiServices.c ****         else if (!strcmp(cmd, "startLamp"))
 649              		.loc 1 95 19 is_stmt 0
 650 0190 B7050000 		lui	a1,%hi(.LC13)
 651 0194 93850500 		addi	a1,a1,%lo(.LC13)
 652 0198 0818     		addi	a0,sp,48
 653 019a 97000000 		call	strcmp
 653      E7800000 
 654              	.LVL50:
  95:wifiServices.c ****         else if (!strcmp(cmd, "startLamp"))
 655              		.loc 1 95 17
 656 01a2 29E1     		bne	a0,zero,.L19
  97:wifiServices.c ****           if (gpio_output_bit_get(GPIOB, GPIO_PIN_7)) 
 657              		.loc 1 97 11 is_stmt 1
  97:wifiServices.c ****           if (gpio_output_bit_get(GPIOB, GPIO_PIN_7)) 
 658              		.loc 1 97 15 is_stmt 0
 659 01a4 37140140 		li	s0,1073811456
 660 01a8 93050008 		li	a1,128
 661 01ac 130504C0 		addi	a0,s0,-1024
 662 01b0 97000000 		call	gpio_output_bit_get
 662      E7800000 
 663              	.LVL51:
  98:wifiServices.c ****             gpio_bit_reset(GPIOB, GPIO_PIN_7);
 664              		.loc 1 98 13
 665 01b8 93050008 		li	a1,128
  97:wifiServices.c ****           if (gpio_output_bit_get(GPIOB, GPIO_PIN_7)) 
 666              		.loc 1 97 14
 667 01bc 09CD     		beq	a0,zero,.L20
  98:wifiServices.c ****             gpio_bit_reset(GPIOB, GPIO_PIN_7);
 668              		.loc 1 98 13 is_stmt 1
 669 01be 130504C0 		addi	a0,s0,-1024
 670 01c2 97000000 		call	gpio_bit_reset
 670      E7800000 
 671              	.LVL52:
 672              	.L21:
GAS LISTING /var/folders/rt/4gvqv631095f64jvm7jfj_000000gn/T//ccSnq3HU.s 			page 18


 101:wifiServices.c ****           LCD_Clear(BLACK);
 673              		.loc 1 101 11
 674 01ca 0145     		li	a0,0
 675 01cc 97000000 		call	LCD_Clear
 675      E7800000 
 676              	.LVL53:
 677 01d4 F9B5     		j	.L14
 678              	.L20:
 100:wifiServices.c ****             gpio_bit_set(GPIOB, GPIO_PIN_7);
 679              		.loc 1 100 13
 680 01d6 130504C0 		addi	a0,s0,-1024
 681 01da 97000000 		call	gpio_bit_set
 681      E7800000 
 682              	.LVL54:
 683 01e2 E5B7     		j	.L21
 684              	.L19:
 104:wifiServices.c ****         else if (!strcmp(cmd, "addPlant"))
 685              		.loc 1 104 14
 104:wifiServices.c ****         else if (!strcmp(cmd, "addPlant"))
 686              		.loc 1 104 19 is_stmt 0
 687 01e4 B7050000 		lui	a1,%hi(.LC14)
 688 01e8 93850500 		addi	a1,a1,%lo(.LC14)
 689 01ec 0818     		addi	a0,sp,48
 690 01ee 97000000 		call	strcmp
 690      E7800000 
 691              	.LVL55:
 104:wifiServices.c ****         else if (!strcmp(cmd, "addPlant"))
 692              		.loc 1 104 17
 693 01f6 63140512 		bne	a0,zero,.L22
 694              	.LBB10:
 106:wifiServices.c ****           char name[NAME_LENGTH];
 695              		.loc 1 106 11 is_stmt 1
 107:wifiServices.c ****           int idealMoist;
 696              		.loc 1 107 11
 108:wifiServices.c ****           int idealSun;
 697              		.loc 1 108 11
 109:wifiServices.c ****           int idealTemp;
 698              		.loc 1 109 11
 111:wifiServices.c ****           int lowMoist;
 699              		.loc 1 111 11
 112:wifiServices.c ****           int lowSun;
 700              		.loc 1 112 11
 113:wifiServices.c ****           int lowTemp;
 701              		.loc 1 113 11
 115:wifiServices.c ****           int highMoist;
 702              		.loc 1 115 11
 116:wifiServices.c ****           int highSun;
 703              		.loc 1 116 11
 117:wifiServices.c ****           int highTemp;
 704              		.loc 1 117 11
 119:wifiServices.c ****           char *ptr = strstr(commandBuffer, "\"name\":\"");
 705              		.loc 1 119 11
 119:wifiServices.c ****           char *ptr = strstr(commandBuffer, "\"name\":\"");
 706              		.loc 1 119 23 is_stmt 0
 707 01fa B7050000 		lui	a1,%hi(.LC15)
 708 01fe 93850500 		addi	a1,a1,%lo(.LC15)
 709 0202 13050400 		addi	a0,s0,%lo(commandBuffer)
GAS LISTING /var/folders/rt/4gvqv631095f64jvm7jfj_000000gn/T//ccSnq3HU.s 			page 19


 710 0206 97000000 		call	strstr
 710      E7800000 
 711              	.LVL56:
 120:wifiServices.c ****           if (ptr != NULL)
 712              		.loc 1 120 11 is_stmt 1
 120:wifiServices.c ****           if (ptr != NULL)
 713              		.loc 1 120 14 is_stmt 0
 714 020e 11C9     		beq	a0,zero,.L23
 122:wifiServices.c ****             sscanf(ptr, "\"name\":\"%[^\"]\"", name);
 715              		.loc 1 122 13 is_stmt 1
 716 0210 B7050000 		lui	a1,%hi(.LC16)
 717 0214 9000     		addi	a2,sp,64
 718 0216 93850500 		addi	a1,a1,%lo(.LC16)
 719 021a 97000000 		call	sscanf
 719      E7800000 
 720              	.LVL57:
 721              	.L23:
 125:wifiServices.c ****           idealMoist = getValue(commandBuffer, "idealMoist");
 722              		.loc 1 125 11
 125:wifiServices.c ****           idealMoist = getValue(commandBuffer, "idealMoist");
 723              		.loc 1 125 24 is_stmt 0
 724 0222 B7050000 		lui	a1,%hi(.LC17)
 725 0226 93850500 		addi	a1,a1,%lo(.LC17)
 726 022a 13050400 		addi	a0,s0,%lo(commandBuffer)
 727 022e 97000000 		call	getValue
 727      E7800000 
 728              	.LVL58:
 126:wifiServices.c ****           idealSun = getValue(commandBuffer, "idealSun");
 729              		.loc 1 126 22
 730 0236 B7050000 		lui	a1,%hi(.LC18)
 125:wifiServices.c ****           idealMoist = getValue(commandBuffer, "idealMoist");
 731              		.loc 1 125 24
 732 023a 2AD6     		sw	a0,44(sp)
 733              	.LVL59:
 126:wifiServices.c ****           idealSun = getValue(commandBuffer, "idealSun");
 734              		.loc 1 126 11 is_stmt 1
 126:wifiServices.c ****           idealSun = getValue(commandBuffer, "idealSun");
 735              		.loc 1 126 22 is_stmt 0
 736 023c 93850500 		addi	a1,a1,%lo(.LC18)
 737 0240 13050400 		addi	a0,s0,%lo(commandBuffer)
 738              	.LVL60:
 739 0244 97000000 		call	getValue
 739      E7800000 
 740              	.LVL61:
 127:wifiServices.c ****           idealTemp = getValue(commandBuffer, "idealTemp");
 741              		.loc 1 127 23
 742 024c B7050000 		lui	a1,%hi(.LC19)
 126:wifiServices.c ****           idealSun = getValue(commandBuffer, "idealSun");
 743              		.loc 1 126 22
 744 0250 2AD4     		sw	a0,40(sp)
 745              	.LVL62:
 127:wifiServices.c ****           idealTemp = getValue(commandBuffer, "idealTemp");
 746              		.loc 1 127 11 is_stmt 1
 127:wifiServices.c ****           idealTemp = getValue(commandBuffer, "idealTemp");
 747              		.loc 1 127 23 is_stmt 0
 748 0252 93850500 		addi	a1,a1,%lo(.LC19)
 749 0256 13050400 		addi	a0,s0,%lo(commandBuffer)
GAS LISTING /var/folders/rt/4gvqv631095f64jvm7jfj_000000gn/T//ccSnq3HU.s 			page 20


 750              	.LVL63:
 751 025a 97000000 		call	getValue
 751      E7800000 
 752              	.LVL64:
 128:wifiServices.c ****           lowMoist = getValue(commandBuffer, "minMoist");
 753              		.loc 1 128 22
 754 0262 B7050000 		lui	a1,%hi(.LC20)
 127:wifiServices.c ****           idealTemp = getValue(commandBuffer, "idealTemp");
 755              		.loc 1 127 23
 756 0266 AA8A     		mv	s5,a0
 757              	.LVL65:
 128:wifiServices.c ****           lowMoist = getValue(commandBuffer, "minMoist");
 758              		.loc 1 128 11 is_stmt 1
 128:wifiServices.c ****           lowMoist = getValue(commandBuffer, "minMoist");
 759              		.loc 1 128 22 is_stmt 0
 760 0268 93850500 		addi	a1,a1,%lo(.LC20)
 761 026c 13050400 		addi	a0,s0,%lo(commandBuffer)
 762              	.LVL66:
 763 0270 97000000 		call	getValue
 763      E7800000 
 764              	.LVL67:
 129:wifiServices.c ****           lowSun = getValue(commandBuffer, "minSun");
 765              		.loc 1 129 20
 766 0278 B7050000 		lui	a1,%hi(.LC21)
 128:wifiServices.c ****           lowMoist = getValue(commandBuffer, "minMoist");
 767              		.loc 1 128 22
 768 027c 2AD2     		sw	a0,36(sp)
 769              	.LVL68:
 129:wifiServices.c ****           lowSun = getValue(commandBuffer, "minSun");
 770              		.loc 1 129 11 is_stmt 1
 129:wifiServices.c ****           lowSun = getValue(commandBuffer, "minSun");
 771              		.loc 1 129 20 is_stmt 0
 772 027e 93850500 		addi	a1,a1,%lo(.LC21)
 773 0282 13050400 		addi	a0,s0,%lo(commandBuffer)
 774              	.LVL69:
 775 0286 97000000 		call	getValue
 775      E7800000 
 776              	.LVL70:
 130:wifiServices.c ****           lowTemp = getValue(commandBuffer, "minTemp");
 777              		.loc 1 130 21
 778 028e B7050000 		lui	a1,%hi(.LC22)
 129:wifiServices.c ****           lowSun = getValue(commandBuffer, "minSun");
 779              		.loc 1 129 20
 780 0292 2AD0     		sw	a0,32(sp)
 781              	.LVL71:
 130:wifiServices.c ****           lowTemp = getValue(commandBuffer, "minTemp");
 782              		.loc 1 130 11 is_stmt 1
 130:wifiServices.c ****           lowTemp = getValue(commandBuffer, "minTemp");
 783              		.loc 1 130 21 is_stmt 0
 784 0294 93850500 		addi	a1,a1,%lo(.LC22)
 785 0298 13050400 		addi	a0,s0,%lo(commandBuffer)
 786              	.LVL72:
 787 029c 97000000 		call	getValue
 787      E7800000 
 788              	.LVL73:
 131:wifiServices.c ****           highMoist = getValue(commandBuffer, "maxMoist");
 789              		.loc 1 131 23
GAS LISTING /var/folders/rt/4gvqv631095f64jvm7jfj_000000gn/T//ccSnq3HU.s 			page 21


 790 02a4 B7050000 		lui	a1,%hi(.LC23)
 130:wifiServices.c ****           lowTemp = getValue(commandBuffer, "minTemp");
 791              		.loc 1 130 21
 792 02a8 2A8B     		mv	s6,a0
 793              	.LVL74:
 131:wifiServices.c ****           highMoist = getValue(commandBuffer, "maxMoist");
 794              		.loc 1 131 11 is_stmt 1
 131:wifiServices.c ****           highMoist = getValue(commandBuffer, "maxMoist");
 795              		.loc 1 131 23 is_stmt 0
 796 02aa 93850500 		addi	a1,a1,%lo(.LC23)
 797 02ae 13050400 		addi	a0,s0,%lo(commandBuffer)
 798              	.LVL75:
 799 02b2 97000000 		call	getValue
 799      E7800000 
 800              	.LVL76:
 132:wifiServices.c ****           highSun = getValue(commandBuffer, "maxSun");
 801              		.loc 1 132 21
 802 02ba B7050000 		lui	a1,%hi(.LC24)
 131:wifiServices.c ****           highMoist = getValue(commandBuffer, "maxMoist");
 803              		.loc 1 131 23
 804 02be 2ACE     		sw	a0,28(sp)
 805              	.LVL77:
 132:wifiServices.c ****           highSun = getValue(commandBuffer, "maxSun");
 806              		.loc 1 132 11 is_stmt 1
 132:wifiServices.c ****           highSun = getValue(commandBuffer, "maxSun");
 807              		.loc 1 132 21 is_stmt 0
 808 02c0 93850500 		addi	a1,a1,%lo(.LC24)
 809 02c4 13050400 		addi	a0,s0,%lo(commandBuffer)
 810              	.LVL78:
 811 02c8 97000000 		call	getValue
 811      E7800000 
 812              	.LVL79:
 133:wifiServices.c ****           highTemp = getValue(commandBuffer, "maxTemp");
 813              		.loc 1 133 22
 814 02d0 B7050000 		lui	a1,%hi(.LC25)
 132:wifiServices.c ****           highSun = getValue(commandBuffer, "maxSun");
 815              		.loc 1 132 21
 816 02d4 2A8A     		mv	s4,a0
 817              	.LVL80:
 133:wifiServices.c ****           highTemp = getValue(commandBuffer, "maxTemp");
 818              		.loc 1 133 11 is_stmt 1
 133:wifiServices.c ****           highTemp = getValue(commandBuffer, "maxTemp");
 819              		.loc 1 133 22 is_stmt 0
 820 02d6 93850500 		addi	a1,a1,%lo(.LC25)
 821 02da 13050400 		addi	a0,s0,%lo(commandBuffer)
 822              	.LVL81:
 823 02de 97000000 		call	getValue
 823      E7800000 
 824              	.LVL82:
 134:wifiServices.c ****           initPlant(name, numberOfPlants, allPlants,
 825              		.loc 1 134 11 is_stmt 1
 826 02e6 1257     		lw	a4,36(sp)
 827 02e8 B256     		lw	a3,44(sp)
 828 02ea 8258     		lw	a7,32(sp)
 829 02ec 2258     		lw	a6,40(sp)
 830 02ee F247     		lw	a5,28(sp)
 831 02f0 2686     		mv	a2,s1
GAS LISTING /var/folders/rt/4gvqv631095f64jvm7jfj_000000gn/T//ccSnq3HU.s 			page 22


 832 02f2 2AC6     		sw	a0,12(sp)
 833 02f4 CA85     		mv	a1,s2
 834 02f6 8800     		addi	a0,sp,64
 835              	.LVL83:
 836 02f8 5AC4     		sw	s6,8(sp)
 837 02fa 56C2     		sw	s5,4(sp)
 838 02fc 52C0     		sw	s4,0(sp)
 839 02fe 97000000 		call	initPlant
 839      E7800000 
 840              	.LVL84:
 138:wifiServices.c ****           LCD_Clear(BLACK);
 841              		.loc 1 138 11
 842 0306 0145     		li	a0,0
 843 0308 97000000 		call	LCD_Clear
 843      E7800000 
 844              	.LVL85:
 139:wifiServices.c ****           LCD_ShowStr(10, 10, "NEW PLANT ADDED!", BLUE, TRANSPARENT);
 845              		.loc 1 139 11
 846 0310 37060000 		lui	a2,%hi(.LC26)
 847 0314 0547     		li	a4,1
 848 0316 FD46     		li	a3,31
 849 0318 13060600 		addi	a2,a2,%lo(.LC26)
 850 031c 9DB5     		j	.L34
 851              	.LVL86:
 852              	.L22:
 853              	.LBE10:
 143:wifiServices.c ****           LCD_Clear(BLACK);
 854              		.loc 1 143 11
 855 031e 0145     		li	a0,0
 856 0320 97000000 		call	LCD_Clear
 856      E7800000 
 857              	.LVL87:
 144:wifiServices.c ****           LCD_ShowStr(10, 10, "BAD COMMAND:", WHITE, TRANSPARENT);
 858              		.loc 1 144 11
 859 0328 C164     		li	s1,65536
 860              	.LVL88:
 861 032a 37060000 		lui	a2,%hi(.LC27)
 862 032e 0547     		li	a4,1
 863 0330 9386F4FF 		addi	a3,s1,-1
 864 0334 13060600 		addi	a2,a2,%lo(.LC27)
 865 0338 A945     		li	a1,10
 866 033a 2945     		li	a0,10
 867 033c 97000000 		call	LCD_ShowStr
 867      E7800000 
 868              	.LVL89:
 145:wifiServices.c ****           LCD_ShowStr(10, 23, (char *)commandBuffer, WHITE, TRANSPARENT);
 869              		.loc 1 145 11
 870 0344 2945     		li	a0,10
 871 0346 0547     		li	a4,1
 872 0348 9386F4FF 		addi	a3,s1,-1
 873 034c 13060400 		addi	a2,s0,%lo(commandBuffer)
 874 0350 DD45     		li	a1,23
 875 0352 97000000 		call	LCD_ShowStr
 875      E7800000 
 876              	.LVL90:
 146:wifiServices.c ****           putstr((char *)commandBuffer);
 877              		.loc 1 146 11
GAS LISTING /var/folders/rt/4gvqv631095f64jvm7jfj_000000gn/T//ccSnq3HU.s 			page 23


 878 035a 13050400 		addi	a0,s0,%lo(commandBuffer)
 879 035e 75BB     		j	.L33
 880              	.LVL91:
 881              	.L12:
 882              	.LBE8:
  58:wifiServices.c ****   for (int j = 0; j < commandBufferIndex; j++)
 883              		.loc 1 58 44 is_stmt 0 discriminator 2
 884 0360 8507     		addi	a5,a5,1
 885              	.LVL92:
 886 0362 F5B9     		j	.L11
 887              	.LBE11:
 888              		.cfi_endproc
 889              	.LFE7:
 891              		.section	.rodata.getValue.str1.4,"aMS",@progbits,1
 892              		.align	2
 893              	.LC4:
 894 0000 22257322 		.string	"\"%s\":"
 894      3A00
 895              		.section	.rodata.jsonAllPlants.str1.4,"aMS",@progbits,1
 896              		.align	2
 897              	.LC0:
 898 0000 5B00     		.string	"["
 899 0002 0000     		.zero	2
 900              	.LC1:
 901 0004 2C00     		.string	","
 902 0006 0000     		.zero	2
 903              	.LC2:
 904 0008 7B226E61 		.string	"{\"name\":\"%s\",\"status\":\"%s\",\"currentSun\":%d,\"currentMoist\":%d,\"currentTemp\":
 904      6D65223A 
 904      22257322 
 904      2C227374 
 904      61747573 
 905 00d2 0000     		.zero	2
 906              	.LC3:
 907 00d4 5D0A00   		.string	"]\n"
 908              		.section	.rodata.receiveCommands.str1.4,"aMS",@progbits,1
 909              		.align	2
 910              	.LC5:
 911 0000 696E2072 		.string	"in receive commands"
 911      65636569 
 911      76652063 
 911      6F6D6D61 
 911      6E647300 
 912              	.LC6:
 913 0014 72656E64 		.string	"renderAllPlants"
 913      6572416C 
 913      6C506C61 
 913      6E747300 
 914              	.LC7:
 915 0024 67657441 		.string	"getAllPlants"
 915      6C6C506C 
 915      616E7473 
 915      00
 916 0031 000000   		.zero	3
 917              	.LC8:
 918 0034 64617461 		.string	"data transmitted"
 918      20747261 
GAS LISTING /var/folders/rt/4gvqv631095f64jvm7jfj_000000gn/T//ccSnq3HU.s 			page 24


 918      6E736D69 
 918      74746564 
 918      00
 919 0045 000000   		.zero	3
 920              	.LC9:
 921 0048 22636D64 		.string	"\"cmd\":\""
 921      223A2200 
 922              	.LC10:
 923 0050 22636D64 		.string	"\"cmd\":\"%14[^\"]\""
 923      223A2225 
 923      31345B5E 
 923      225D2200 
 924              	.LC11:
 925 0060 73746172 		.string	"startPump"
 925      7450756D 
 925      7000
 926 006a 0000     		.zero	2
 927              	.LC12:
 928 006c 50554D50 		.string	"PUMP STARTED!"
 928      20535441 
 928      52544544 
 928      2100
 929 007a 0000     		.zero	2
 930              	.LC13:
 931 007c 73746172 		.string	"startLamp"
 931      744C616D 
 931      7000
 932 0086 0000     		.zero	2
 933              	.LC14:
 934 0088 61646450 		.string	"addPlant"
 934      6C616E74 
 934      00
 935 0091 000000   		.zero	3
 936              	.LC15:
 937 0094 226E616D 		.string	"\"name\":\""
 937      65223A22 
 937      00
 938 009d 000000   		.zero	3
 939              	.LC16:
 940 00a0 226E616D 		.string	"\"name\":\"%[^\"]\""
 940      65223A22 
 940      255B5E22 
 940      5D2200
 941 00af 00       		.zero	1
 942              	.LC17:
 943 00b0 69646561 		.string	"idealMoist"
 943      6C4D6F69 
 943      737400
 944 00bb 00       		.zero	1
 945              	.LC18:
 946 00bc 69646561 		.string	"idealSun"
 946      6C53756E 
 946      00
 947 00c5 000000   		.zero	3
 948              	.LC19:
 949 00c8 69646561 		.string	"idealTemp"
 949      6C54656D 
GAS LISTING /var/folders/rt/4gvqv631095f64jvm7jfj_000000gn/T//ccSnq3HU.s 			page 25


 949      7000
 950 00d2 0000     		.zero	2
 951              	.LC20:
 952 00d4 6D696E4D 		.string	"minMoist"
 952      6F697374 
 952      00
 953 00dd 000000   		.zero	3
 954              	.LC21:
 955 00e0 6D696E53 		.string	"minSun"
 955      756E00
 956 00e7 00       		.zero	1
 957              	.LC22:
 958 00e8 6D696E54 		.string	"minTemp"
 958      656D7000 
 959              	.LC23:
 960 00f0 6D61784D 		.string	"maxMoist"
 960      6F697374 
 960      00
 961 00f9 000000   		.zero	3
 962              	.LC24:
 963 00fc 6D617853 		.string	"maxSun"
 963      756E00
 964 0103 00       		.zero	1
 965              	.LC25:
 966 0104 6D617854 		.string	"maxTemp"
 966      656D7000 
 967              	.LC26:
 968 010c 4E455720 		.string	"NEW PLANT ADDED!"
 968      504C414E 
 968      54204144 
 968      44454421 
 968      00
 969 011d 000000   		.zero	3
 970              	.LC27:
 971 0120 42414420 		.string	"BAD COMMAND:"
 971      434F4D4D 
 971      414E443A 
 971      00
 972              		.text
 973              	.Letext0:
 974              		.file 2 "/Users/alexstrae/toolchain-gd32v-v202-osx/compiler/lib/gcc/riscv64-unknown-elf/8.3.0/incl
 975              		.file 3 "/Users/alexstrae/toolchain-gd32v-v202-osx/compiler/riscv64-unknown-elf/include/machine/_d
 976              		.file 4 "/Users/alexstrae/toolchain-gd32v-v202-osx/compiler/riscv64-unknown-elf/include/sys/_types
 977              		.file 5 "/Users/alexstrae/toolchain-gd32v-v202-osx/compiler/riscv64-unknown-elf/include/sys/reent.
 978              		.file 6 "/Users/alexstrae/toolchain-gd32v-v202-osx/compiler/riscv64-unknown-elf/include/sys/lock.h
 979              		.file 7 "/Users/alexstrae/toolchain-gd32v-v202-osx/compiler/riscv64-unknown-elf/include/stdlib.h"
 980              		.file 8 "/Users/alexstrae/toolchain-gd32v-v202-osx/compiler/riscv64-unknown-elf/include/sys/_stdin
 981              		.file 9 "../../firmware/GD32VF103_standard_peripheral/system_gd32vf103.h"
 982              		.file 10 "lcd.h"
 983              		.file 11 "plant.h"
 984              		.file 12 "usart.h"
 985              		.file 13 "/Users/alexstrae/toolchain-gd32v-v202-osx/compiler/riscv64-unknown-elf/include/stdio.h"
 986              		.file 14 "/Users/alexstrae/toolchain-gd32v-v202-osx/compiler/riscv64-unknown-elf/include/string.h"
 987              		.file 15 "pwm.h"
 988              		.file 16 "../../firmware/GD32VF103_standard_peripheral/Include/gd32vf103_gpio.h"
 989              		.file 17 "renderPlants.h"
GAS LISTING /var/folders/rt/4gvqv631095f64jvm7jfj_000000gn/T//ccSnq3HU.s 			page 26


DEFINED SYMBOLS
                            *ABS*:0000000000000000 wifiServices.c
/var/folders/rt/4gvqv631095f64jvm7jfj_000000gn/T//ccSnq3HU.s:13     .text.jsonAllPlants:0000000000000000 jsonAllPlants
/var/folders/rt/4gvqv631095f64jvm7jfj_000000gn/T//ccSnq3HU.s:17     .text.jsonAllPlants:0000000000000000 .L0 
/var/folders/rt/4gvqv631095f64jvm7jfj_000000gn/T//ccSnq3HU.s:19     .text.jsonAllPlants:0000000000000000 .L0 
/var/folders/rt/4gvqv631095f64jvm7jfj_000000gn/T//ccSnq3HU.s:20     .text.jsonAllPlants:0000000000000000 .L0 
/var/folders/rt/4gvqv631095f64jvm7jfj_000000gn/T//ccSnq3HU.s:21     .text.jsonAllPlants:0000000000000000 .L0 
/var/folders/rt/4gvqv631095f64jvm7jfj_000000gn/T//ccSnq3HU.s:22     .text.jsonAllPlants:0000000000000000 .L0 
/var/folders/rt/4gvqv631095f64jvm7jfj_000000gn/T//ccSnq3HU.s:24     .text.jsonAllPlants:0000000000000002 .L0 
/var/folders/rt/4gvqv631095f64jvm7jfj_000000gn/T//ccSnq3HU.s:26     .text.jsonAllPlants:0000000000000004 .L0 
/var/folders/rt/4gvqv631095f64jvm7jfj_000000gn/T//ccSnq3HU.s:29     .text.jsonAllPlants:0000000000000006 .L0 
/var/folders/rt/4gvqv631095f64jvm7jfj_000000gn/T//ccSnq3HU.s:33     .text.jsonAllPlants:000000000000000e .L0 
/var/folders/rt/4gvqv631095f64jvm7jfj_000000gn/T//ccSnq3HU.s:41     .text.jsonAllPlants:000000000000001e .L0 
/var/folders/rt/4gvqv631095f64jvm7jfj_000000gn/T//ccSnq3HU.s:42     .text.jsonAllPlants:000000000000001e .L0 
/var/folders/rt/4gvqv631095f64jvm7jfj_000000gn/T//ccSnq3HU.s:43     .text.jsonAllPlants:000000000000001e .L0 
/var/folders/rt/4gvqv631095f64jvm7jfj_000000gn/T//ccSnq3HU.s:44     .text.jsonAllPlants:000000000000001e .L0 
/var/folders/rt/4gvqv631095f64jvm7jfj_000000gn/T//ccSnq3HU.s:45     .text.jsonAllPlants:000000000000001e .L0 
/var/folders/rt/4gvqv631095f64jvm7jfj_000000gn/T//ccSnq3HU.s:46     .text.jsonAllPlants:000000000000001e .L0 
/var/folders/rt/4gvqv631095f64jvm7jfj_000000gn/T//ccSnq3HU.s:47     .text.jsonAllPlants:000000000000001e .L0 
/var/folders/rt/4gvqv631095f64jvm7jfj_000000gn/T//ccSnq3HU.s:48     .text.jsonAllPlants:000000000000001e .L0 
/var/folders/rt/4gvqv631095f64jvm7jfj_000000gn/T//ccSnq3HU.s:50     .text.jsonAllPlants:000000000000001e .L0 
/var/folders/rt/4gvqv631095f64jvm7jfj_000000gn/T//ccSnq3HU.s:55     .text.jsonAllPlants:0000000000000024 .L0 
/var/folders/rt/4gvqv631095f64jvm7jfj_000000gn/T//ccSnq3HU.s:58     .text.jsonAllPlants:0000000000000026 .L0 
/var/folders/rt/4gvqv631095f64jvm7jfj_000000gn/T//ccSnq3HU.s:62     .text.jsonAllPlants:000000000000002e .L0 
/var/folders/rt/4gvqv631095f64jvm7jfj_000000gn/T//ccSnq3HU.s:64     .text.jsonAllPlants:000000000000002e .L0 
/var/folders/rt/4gvqv631095f64jvm7jfj_000000gn/T//ccSnq3HU.s:65     .text.jsonAllPlants:000000000000002e .L0 
/var/folders/rt/4gvqv631095f64jvm7jfj_000000gn/T//ccSnq3HU.s:68     .text.jsonAllPlants:0000000000000030 .L0 
/var/folders/rt/4gvqv631095f64jvm7jfj_000000gn/T//ccSnq3HU.s:70     .text.jsonAllPlants:0000000000000034 .L0 
/var/folders/rt/4gvqv631095f64jvm7jfj_000000gn/T//ccSnq3HU.s:76     .text.jsonAllPlants:0000000000000040 .L0 
/var/folders/rt/4gvqv631095f64jvm7jfj_000000gn/T//ccSnq3HU.s:79     .text.jsonAllPlants:0000000000000044 .L0 
/var/folders/rt/4gvqv631095f64jvm7jfj_000000gn/T//ccSnq3HU.s:80     .text.jsonAllPlants:0000000000000044 .L0 
/var/folders/rt/4gvqv631095f64jvm7jfj_000000gn/T//ccSnq3HU.s:81     .text.jsonAllPlants:0000000000000046 .L0 
/var/folders/rt/4gvqv631095f64jvm7jfj_000000gn/T//ccSnq3HU.s:82     .text.jsonAllPlants:0000000000000046 .L0 
/var/folders/rt/4gvqv631095f64jvm7jfj_000000gn/T//ccSnq3HU.s:84     .text.jsonAllPlants:0000000000000048 .L0 
/var/folders/rt/4gvqv631095f64jvm7jfj_000000gn/T//ccSnq3HU.s:86     .text.jsonAllPlants:000000000000004a .L0 
/var/folders/rt/4gvqv631095f64jvm7jfj_000000gn/T//ccSnq3HU.s:89     .text.jsonAllPlants:000000000000004c .L0 
/var/folders/rt/4gvqv631095f64jvm7jfj_000000gn/T//ccSnq3HU.s:92     .text.jsonAllPlants:000000000000004e .L0 
/var/folders/rt/4gvqv631095f64jvm7jfj_000000gn/T//ccSnq3HU.s:95     .text.jsonAllPlants:0000000000000050 .L0 
/var/folders/rt/4gvqv631095f64jvm7jfj_000000gn/T//ccSnq3HU.s:97     .text.jsonAllPlants:0000000000000052 .L0 
/var/folders/rt/4gvqv631095f64jvm7jfj_000000gn/T//ccSnq3HU.s:99     .text.jsonAllPlants:0000000000000054 .L0 
/var/folders/rt/4gvqv631095f64jvm7jfj_000000gn/T//ccSnq3HU.s:102    .text.jsonAllPlants:0000000000000056 .L0 
/var/folders/rt/4gvqv631095f64jvm7jfj_000000gn/T//ccSnq3HU.s:105    .text.jsonAllPlants:0000000000000056 .L0 
/var/folders/rt/4gvqv631095f64jvm7jfj_000000gn/T//ccSnq3HU.s:107    .text.jsonAllPlants:000000000000005a .L0 
/var/folders/rt/4gvqv631095f64jvm7jfj_000000gn/T//ccSnq3HU.s:108    .text.jsonAllPlants:000000000000005a .L0 
/var/folders/rt/4gvqv631095f64jvm7jfj_000000gn/T//ccSnq3HU.s:110    .text.jsonAllPlants:000000000000005e .L0 
/var/folders/rt/4gvqv631095f64jvm7jfj_000000gn/T//ccSnq3HU.s:112    .text.jsonAllPlants:0000000000000060 .L0 
/var/folders/rt/4gvqv631095f64jvm7jfj_000000gn/T//ccSnq3HU.s:114    .text.jsonAllPlants:0000000000000060 .L0 
/var/folders/rt/4gvqv631095f64jvm7jfj_000000gn/T//ccSnq3HU.s:118    .text.jsonAllPlants:0000000000000068 .L0 
/var/folders/rt/4gvqv631095f64jvm7jfj_000000gn/T//ccSnq3HU.s:121    .text.jsonAllPlants:0000000000000068 .L0 
/var/folders/rt/4gvqv631095f64jvm7jfj_000000gn/T//ccSnq3HU.s:122    .text.jsonAllPlants:0000000000000068 .L0 
/var/folders/rt/4gvqv631095f64jvm7jfj_000000gn/T//ccSnq3HU.s:124    .text.jsonAllPlants:000000000000006c .L0 
/var/folders/rt/4gvqv631095f64jvm7jfj_000000gn/T//ccSnq3HU.s:125    .text.jsonAllPlants:000000000000006c .L0 
/var/folders/rt/4gvqv631095f64jvm7jfj_000000gn/T//ccSnq3HU.s:129    .text.jsonAllPlants:0000000000000078 .L0 
/var/folders/rt/4gvqv631095f64jvm7jfj_000000gn/T//ccSnq3HU.s:133    .text.jsonAllPlants:000000000000007a .L0 
/var/folders/rt/4gvqv631095f64jvm7jfj_000000gn/T//ccSnq3HU.s:134    .text.jsonAllPlants:000000000000007a .L0 
/var/folders/rt/4gvqv631095f64jvm7jfj_000000gn/T//ccSnq3HU.s:137    .text.jsonAllPlants:0000000000000082 .L0 
/var/folders/rt/4gvqv631095f64jvm7jfj_000000gn/T//ccSnq3HU.s:139    .text.jsonAllPlants:0000000000000086 .L0 
GAS LISTING /var/folders/rt/4gvqv631095f64jvm7jfj_000000gn/T//ccSnq3HU.s 			page 27


/var/folders/rt/4gvqv631095f64jvm7jfj_000000gn/T//ccSnq3HU.s:143    .text.jsonAllPlants:000000000000008e .L0 
/var/folders/rt/4gvqv631095f64jvm7jfj_000000gn/T//ccSnq3HU.s:145    .text.jsonAllPlants:0000000000000090 .L0 
/var/folders/rt/4gvqv631095f64jvm7jfj_000000gn/T//ccSnq3HU.s:148    .text.jsonAllPlants:0000000000000092 .L0 
/var/folders/rt/4gvqv631095f64jvm7jfj_000000gn/T//ccSnq3HU.s:154    .text.jsonAllPlants:000000000000009e .L0 
/var/folders/rt/4gvqv631095f64jvm7jfj_000000gn/T//ccSnq3HU.s:160    .text.jsonAllPlants:00000000000000ae .L0 
/var/folders/rt/4gvqv631095f64jvm7jfj_000000gn/T//ccSnq3HU.s:162    .text.jsonAllPlants:00000000000000b2 .L0 
/var/folders/rt/4gvqv631095f64jvm7jfj_000000gn/T//ccSnq3HU.s:166    .text.jsonAllPlants:00000000000000bc .L0 
/var/folders/rt/4gvqv631095f64jvm7jfj_000000gn/T//ccSnq3HU.s:168    .text.jsonAllPlants:00000000000000be .L0 
/var/folders/rt/4gvqv631095f64jvm7jfj_000000gn/T//ccSnq3HU.s:172    .text.jsonAllPlants:00000000000000c8 .L0 
/var/folders/rt/4gvqv631095f64jvm7jfj_000000gn/T//ccSnq3HU.s:174    .text.jsonAllPlants:00000000000000cc .L0 
/var/folders/rt/4gvqv631095f64jvm7jfj_000000gn/T//ccSnq3HU.s:176    .text.jsonAllPlants:00000000000000ce .L0 
/var/folders/rt/4gvqv631095f64jvm7jfj_000000gn/T//ccSnq3HU.s:179    .text.jsonAllPlants:00000000000000d4 .L0 
/var/folders/rt/4gvqv631095f64jvm7jfj_000000gn/T//ccSnq3HU.s:182    .text.jsonAllPlants:00000000000000dc .L0 
/var/folders/rt/4gvqv631095f64jvm7jfj_000000gn/T//ccSnq3HU.s:188    .text.jsonAllPlants:00000000000000e8 .L0 
/var/folders/rt/4gvqv631095f64jvm7jfj_000000gn/T//ccSnq3HU.s:194    .text.jsonAllPlants:00000000000000f6 .L0 
/var/folders/rt/4gvqv631095f64jvm7jfj_000000gn/T//ccSnq3HU.s:196    .text.jsonAllPlants:00000000000000fa .L0 
/var/folders/rt/4gvqv631095f64jvm7jfj_000000gn/T//ccSnq3HU.s:203    .text.jsonAllPlants:000000000000010e .L0 
/var/folders/rt/4gvqv631095f64jvm7jfj_000000gn/T//ccSnq3HU.s:205    .text.jsonAllPlants:0000000000000112 .L0 
/var/folders/rt/4gvqv631095f64jvm7jfj_000000gn/T//ccSnq3HU.s:207    .text.jsonAllPlants:0000000000000114 .L0 
/var/folders/rt/4gvqv631095f64jvm7jfj_000000gn/T//ccSnq3HU.s:211    .text.jsonAllPlants:000000000000011c .L0 
/var/folders/rt/4gvqv631095f64jvm7jfj_000000gn/T//ccSnq3HU.s:214    .text.jsonAllPlants:0000000000000124 .L0 
/var/folders/rt/4gvqv631095f64jvm7jfj_000000gn/T//ccSnq3HU.s:220    .text.jsonAllPlants:0000000000000130 .L0 
/var/folders/rt/4gvqv631095f64jvm7jfj_000000gn/T//ccSnq3HU.s:336    .text.jsonAllPlants:000000000000026c .L0 
/var/folders/rt/4gvqv631095f64jvm7jfj_000000gn/T//ccSnq3HU.s:341    .text.jsonAllPlants:0000000000000274 .L0 
/var/folders/rt/4gvqv631095f64jvm7jfj_000000gn/T//ccSnq3HU.s:348    .text.getValue:0000000000000000 getValue
/var/folders/rt/4gvqv631095f64jvm7jfj_000000gn/T//ccSnq3HU.s:351    .text.getValue:0000000000000000 .L0 
/var/folders/rt/4gvqv631095f64jvm7jfj_000000gn/T//ccSnq3HU.s:353    .text.getValue:0000000000000000 .L0 
/var/folders/rt/4gvqv631095f64jvm7jfj_000000gn/T//ccSnq3HU.s:354    .text.getValue:0000000000000000 .L0 
/var/folders/rt/4gvqv631095f64jvm7jfj_000000gn/T//ccSnq3HU.s:355    .text.getValue:0000000000000000 .L0 
/var/folders/rt/4gvqv631095f64jvm7jfj_000000gn/T//ccSnq3HU.s:356    .text.getValue:0000000000000000 .L0 
/var/folders/rt/4gvqv631095f64jvm7jfj_000000gn/T//ccSnq3HU.s:358    .text.getValue:0000000000000002 .L0 
/var/folders/rt/4gvqv631095f64jvm7jfj_000000gn/T//ccSnq3HU.s:360    .text.getValue:0000000000000002 .L0 
/var/folders/rt/4gvqv631095f64jvm7jfj_000000gn/T//ccSnq3HU.s:364    .text.getValue:0000000000000008 .L0 
/var/folders/rt/4gvqv631095f64jvm7jfj_000000gn/T//ccSnq3HU.s:366    .text.getValue:000000000000000a .L0 
/var/folders/rt/4gvqv631095f64jvm7jfj_000000gn/T//ccSnq3HU.s:367    .text.getValue:000000000000000e .L0 
/var/folders/rt/4gvqv631095f64jvm7jfj_000000gn/T//ccSnq3HU.s:369    .text.getValue:000000000000000e .L0 
/var/folders/rt/4gvqv631095f64jvm7jfj_000000gn/T//ccSnq3HU.s:371    .text.getValue:0000000000000010 .L0 
/var/folders/rt/4gvqv631095f64jvm7jfj_000000gn/T//ccSnq3HU.s:374    .text.getValue:0000000000000012 .L0 
/var/folders/rt/4gvqv631095f64jvm7jfj_000000gn/T//ccSnq3HU.s:375    .text.getValue:0000000000000014 .L0 
/var/folders/rt/4gvqv631095f64jvm7jfj_000000gn/T//ccSnq3HU.s:377    .text.getValue:0000000000000014 .L0 
/var/folders/rt/4gvqv631095f64jvm7jfj_000000gn/T//ccSnq3HU.s:380    .text.getValue:000000000000001c .L0 
/var/folders/rt/4gvqv631095f64jvm7jfj_000000gn/T//ccSnq3HU.s:381    .text.getValue:000000000000001c .L0 
/var/folders/rt/4gvqv631095f64jvm7jfj_000000gn/T//ccSnq3HU.s:386    .text.getValue:0000000000000028 .L0 
/var/folders/rt/4gvqv631095f64jvm7jfj_000000gn/T//ccSnq3HU.s:387    .text.getValue:0000000000000028 .L0 
/var/folders/rt/4gvqv631095f64jvm7jfj_000000gn/T//ccSnq3HU.s:391    .text.getValue:000000000000002c .L0 
/var/folders/rt/4gvqv631095f64jvm7jfj_000000gn/T//ccSnq3HU.s:392    .text.getValue:000000000000002c .L0 
/var/folders/rt/4gvqv631095f64jvm7jfj_000000gn/T//ccSnq3HU.s:397    .text.getValue:0000000000000036 .L0 
/var/folders/rt/4gvqv631095f64jvm7jfj_000000gn/T//ccSnq3HU.s:398    .text.getValue:0000000000000036 .L0 
/var/folders/rt/4gvqv631095f64jvm7jfj_000000gn/T//ccSnq3HU.s:404    .text.getValue:0000000000000040 .L0 
/var/folders/rt/4gvqv631095f64jvm7jfj_000000gn/T//ccSnq3HU.s:405    .text.getValue:0000000000000042 .L0 
/var/folders/rt/4gvqv631095f64jvm7jfj_000000gn/T//ccSnq3HU.s:406    .text.getValue:0000000000000042 .L0 
/var/folders/rt/4gvqv631095f64jvm7jfj_000000gn/T//ccSnq3HU.s:408    .text.getValue:0000000000000044 .L0 
/var/folders/rt/4gvqv631095f64jvm7jfj_000000gn/T//ccSnq3HU.s:411    .text.getValue:0000000000000046 .L0 
/var/folders/rt/4gvqv631095f64jvm7jfj_000000gn/T//ccSnq3HU.s:416    .text.getValue:0000000000000048 .L0 
/var/folders/rt/4gvqv631095f64jvm7jfj_000000gn/T//ccSnq3HU.s:418    .text.getValue:0000000000000048 .L0 
/var/folders/rt/4gvqv631095f64jvm7jfj_000000gn/T//ccSnq3HU.s:421    .text.getValue:000000000000004c .L0 
/var/folders/rt/4gvqv631095f64jvm7jfj_000000gn/T//ccSnq3HU.s:428    .text.receiveCommands:0000000000000000 receiveCommands
GAS LISTING /var/folders/rt/4gvqv631095f64jvm7jfj_000000gn/T//ccSnq3HU.s 			page 28


/var/folders/rt/4gvqv631095f64jvm7jfj_000000gn/T//ccSnq3HU.s:431    .text.receiveCommands:0000000000000000 .L0 
/var/folders/rt/4gvqv631095f64jvm7jfj_000000gn/T//ccSnq3HU.s:433    .text.receiveCommands:0000000000000000 .L0 
/var/folders/rt/4gvqv631095f64jvm7jfj_000000gn/T//ccSnq3HU.s:434    .text.receiveCommands:0000000000000000 .L0 
/var/folders/rt/4gvqv631095f64jvm7jfj_000000gn/T//ccSnq3HU.s:435    .text.receiveCommands:0000000000000000 .L0 
/var/folders/rt/4gvqv631095f64jvm7jfj_000000gn/T//ccSnq3HU.s:437    .text.receiveCommands:0000000000000004 .L0 
/var/folders/rt/4gvqv631095f64jvm7jfj_000000gn/T//ccSnq3HU.s:439    .text.receiveCommands:0000000000000008 .L0 
/var/folders/rt/4gvqv631095f64jvm7jfj_000000gn/T//ccSnq3HU.s:442    .text.receiveCommands:000000000000000a .L0 
/var/folders/rt/4gvqv631095f64jvm7jfj_000000gn/T//ccSnq3HU.s:445    .text.receiveCommands:000000000000000c .L0 
/var/folders/rt/4gvqv631095f64jvm7jfj_000000gn/T//ccSnq3HU.s:449    .text.receiveCommands:000000000000001c .L0 
/var/folders/rt/4gvqv631095f64jvm7jfj_000000gn/T//ccSnq3HU.s:450    .text.receiveCommands:000000000000001c .L0 
/var/folders/rt/4gvqv631095f64jvm7jfj_000000gn/T//ccSnq3HU.s:451    .text.receiveCommands:000000000000001c .L0 
/var/folders/rt/4gvqv631095f64jvm7jfj_000000gn/T//ccSnq3HU.s:452    .text.receiveCommands:000000000000001c .L0 
/var/folders/rt/4gvqv631095f64jvm7jfj_000000gn/T//ccSnq3HU.s:457    .text.receiveCommands:000000000000002a .L0 
/var/folders/rt/4gvqv631095f64jvm7jfj_000000gn/T//ccSnq3HU.s:458    .text.receiveCommands:000000000000002a .L0 
/var/folders/rt/4gvqv631095f64jvm7jfj_000000gn/T//ccSnq3HU.s:459    .text.receiveCommands:000000000000002a .L0 
/var/folders/rt/4gvqv631095f64jvm7jfj_000000gn/T//ccSnq3HU.s:461    .text.receiveCommands:000000000000002a .L0 
/var/folders/rt/4gvqv631095f64jvm7jfj_000000gn/T//ccSnq3HU.s:464    .text.receiveCommands:0000000000000032 .L0 
/var/folders/rt/4gvqv631095f64jvm7jfj_000000gn/T//ccSnq3HU.s:475    .text.receiveCommands:000000000000004c .L0 
/var/folders/rt/4gvqv631095f64jvm7jfj_000000gn/T//ccSnq3HU.s:476    .text.receiveCommands:000000000000004c .L0 
/var/folders/rt/4gvqv631095f64jvm7jfj_000000gn/T//ccSnq3HU.s:477    .text.receiveCommands:000000000000004c .L0 
/var/folders/rt/4gvqv631095f64jvm7jfj_000000gn/T//ccSnq3HU.s:479    .text.receiveCommands:0000000000000050 .L0 
/var/folders/rt/4gvqv631095f64jvm7jfj_000000gn/T//ccSnq3HU.s:481    .text.receiveCommands:0000000000000054 .L0 
/var/folders/rt/4gvqv631095f64jvm7jfj_000000gn/T//ccSnq3HU.s:484    .text.receiveCommands:0000000000000058 .L0 
/var/folders/rt/4gvqv631095f64jvm7jfj_000000gn/T//ccSnq3HU.s:486    .text.receiveCommands:000000000000005c .L0 
/var/folders/rt/4gvqv631095f64jvm7jfj_000000gn/T//ccSnq3HU.s:490    .text.receiveCommands:000000000000005e .L0 
/var/folders/rt/4gvqv631095f64jvm7jfj_000000gn/T//ccSnq3HU.s:492    .text.receiveCommands:0000000000000062 .L0 
/var/folders/rt/4gvqv631095f64jvm7jfj_000000gn/T//ccSnq3HU.s:494    .text.receiveCommands:0000000000000066 .L0 
/var/folders/rt/4gvqv631095f64jvm7jfj_000000gn/T//ccSnq3HU.s:495    .text.receiveCommands:0000000000000066 .L0 
/var/folders/rt/4gvqv631095f64jvm7jfj_000000gn/T//ccSnq3HU.s:498    .text.receiveCommands:000000000000006e .L0 
/var/folders/rt/4gvqv631095f64jvm7jfj_000000gn/T//ccSnq3HU.s:500    .text.receiveCommands:0000000000000072 .L0 
/var/folders/rt/4gvqv631095f64jvm7jfj_000000gn/T//ccSnq3HU.s:501    .text.receiveCommands:0000000000000072 .L0 
/var/folders/rt/4gvqv631095f64jvm7jfj_000000gn/T//ccSnq3HU.s:505    .text.receiveCommands:000000000000007e .L0 
/var/folders/rt/4gvqv631095f64jvm7jfj_000000gn/T//ccSnq3HU.s:507    .text.receiveCommands:0000000000000082 .L0 
/var/folders/rt/4gvqv631095f64jvm7jfj_000000gn/T//ccSnq3HU.s:508    .text.receiveCommands:0000000000000082 .L0 
/var/folders/rt/4gvqv631095f64jvm7jfj_000000gn/T//ccSnq3HU.s:511    .text.receiveCommands:000000000000008a .L0 
/var/folders/rt/4gvqv631095f64jvm7jfj_000000gn/T//ccSnq3HU.s:513    .text.receiveCommands:000000000000008c .L0 
/var/folders/rt/4gvqv631095f64jvm7jfj_000000gn/T//ccSnq3HU.s:516    .text.receiveCommands:0000000000000094 .L0 
/var/folders/rt/4gvqv631095f64jvm7jfj_000000gn/T//ccSnq3HU.s:522    .text.receiveCommands:00000000000000a2 .L0 
/var/folders/rt/4gvqv631095f64jvm7jfj_000000gn/T//ccSnq3HU.s:523    .text.receiveCommands:00000000000000a2 .L0 
/var/folders/rt/4gvqv631095f64jvm7jfj_000000gn/T//ccSnq3HU.s:527    .text.receiveCommands:00000000000000a6 .L0 
/var/folders/rt/4gvqv631095f64jvm7jfj_000000gn/T//ccSnq3HU.s:528    .text.receiveCommands:00000000000000a6 .L0 
/var/folders/rt/4gvqv631095f64jvm7jfj_000000gn/T//ccSnq3HU.s:529    .text.receiveCommands:00000000000000aa .L0 
/var/folders/rt/4gvqv631095f64jvm7jfj_000000gn/T//ccSnq3HU.s:530    .text.receiveCommands:00000000000000aa .L0 
/var/folders/rt/4gvqv631095f64jvm7jfj_000000gn/T//ccSnq3HU.s:532    .text.receiveCommands:00000000000000ae .L0 
/var/folders/rt/4gvqv631095f64jvm7jfj_000000gn/T//ccSnq3HU.s:534    .text.receiveCommands:00000000000000b2 .L0 
/var/folders/rt/4gvqv631095f64jvm7jfj_000000gn/T//ccSnq3HU.s:536    .text.receiveCommands:00000000000000b6 .L0 
/var/folders/rt/4gvqv631095f64jvm7jfj_000000gn/T//ccSnq3HU.s:539    .text.receiveCommands:00000000000000ba .L0 
/var/folders/rt/4gvqv631095f64jvm7jfj_000000gn/T//ccSnq3HU.s:541    .text.receiveCommands:00000000000000be .L0 
/var/folders/rt/4gvqv631095f64jvm7jfj_000000gn/T//ccSnq3HU.s:543    .text.receiveCommands:00000000000000c2 .L0 
/var/folders/rt/4gvqv631095f64jvm7jfj_000000gn/T//ccSnq3HU.s:545    .text.receiveCommands:00000000000000c6 .L0 
/var/folders/rt/4gvqv631095f64jvm7jfj_000000gn/T//ccSnq3HU.s:548    .text.receiveCommands:00000000000000ca .L0 
/var/folders/rt/4gvqv631095f64jvm7jfj_000000gn/T//ccSnq3HU.s:553    .text.receiveCommands:00000000000000cc .L0 
/var/folders/rt/4gvqv631095f64jvm7jfj_000000gn/T//ccSnq3HU.s:556    .text.receiveCommands:00000000000000cc .L0 
/var/folders/rt/4gvqv631095f64jvm7jfj_000000gn/T//ccSnq3HU.s:557    .text.receiveCommands:00000000000000cc .L0 
/var/folders/rt/4gvqv631095f64jvm7jfj_000000gn/T//ccSnq3HU.s:563    .text.receiveCommands:00000000000000e0 .L0 
/var/folders/rt/4gvqv631095f64jvm7jfj_000000gn/T//ccSnq3HU.s:566    .text.receiveCommands:00000000000000e2 .L0 
/var/folders/rt/4gvqv631095f64jvm7jfj_000000gn/T//ccSnq3HU.s:569    .text.receiveCommands:00000000000000ea .L0 
GAS LISTING /var/folders/rt/4gvqv631095f64jvm7jfj_000000gn/T//ccSnq3HU.s 			page 29


/var/folders/rt/4gvqv631095f64jvm7jfj_000000gn/T//ccSnq3HU.s:579    .text.receiveCommands:0000000000000104 .L0 
/var/folders/rt/4gvqv631095f64jvm7jfj_000000gn/T//ccSnq3HU.s:580    .text.receiveCommands:0000000000000104 .L0 
/var/folders/rt/4gvqv631095f64jvm7jfj_000000gn/T//ccSnq3HU.s:587    .text.receiveCommands:0000000000000118 .L0 
/var/folders/rt/4gvqv631095f64jvm7jfj_000000gn/T//ccSnq3HU.s:593    .text.receiveCommands:000000000000011a .L0 
/var/folders/rt/4gvqv631095f64jvm7jfj_000000gn/T//ccSnq3HU.s:599    .text.receiveCommands:0000000000000124 .L0 
/var/folders/rt/4gvqv631095f64jvm7jfj_000000gn/T//ccSnq3HU.s:600    .text.receiveCommands:0000000000000124 .L0 
/var/folders/rt/4gvqv631095f64jvm7jfj_000000gn/T//ccSnq3HU.s:601    .text.receiveCommands:0000000000000124 .L0 
/var/folders/rt/4gvqv631095f64jvm7jfj_000000gn/T//ccSnq3HU.s:607    .text.receiveCommands:0000000000000138 .L0 
/var/folders/rt/4gvqv631095f64jvm7jfj_000000gn/T//ccSnq3HU.s:608    .text.receiveCommands:0000000000000138 .L0 
/var/folders/rt/4gvqv631095f64jvm7jfj_000000gn/T//ccSnq3HU.s:610    .text.receiveCommands:000000000000013a .L0 
/var/folders/rt/4gvqv631095f64jvm7jfj_000000gn/T//ccSnq3HU.s:617    .text.receiveCommands:000000000000014c .L0 
/var/folders/rt/4gvqv631095f64jvm7jfj_000000gn/T//ccSnq3HU.s:618    .text.receiveCommands:000000000000014c .L0 
/var/folders/rt/4gvqv631095f64jvm7jfj_000000gn/T//ccSnq3HU.s:624    .text.receiveCommands:000000000000015e .L0 
/var/folders/rt/4gvqv631095f64jvm7jfj_000000gn/T//ccSnq3HU.s:626    .text.receiveCommands:0000000000000160 .L0 
/var/folders/rt/4gvqv631095f64jvm7jfj_000000gn/T//ccSnq3HU.s:630    .text.receiveCommands:000000000000016c .L0 
/var/folders/rt/4gvqv631095f64jvm7jfj_000000gn/T//ccSnq3HU.s:634    .text.receiveCommands:0000000000000176 .L0 
/var/folders/rt/4gvqv631095f64jvm7jfj_000000gn/T//ccSnq3HU.s:641    .text.receiveCommands:0000000000000182 .L0 
/var/folders/rt/4gvqv631095f64jvm7jfj_000000gn/T//ccSnq3HU.s:649    .text.receiveCommands:0000000000000190 .L0 
/var/folders/rt/4gvqv631095f64jvm7jfj_000000gn/T//ccSnq3HU.s:650    .text.receiveCommands:0000000000000190 .L0 
/var/folders/rt/4gvqv631095f64jvm7jfj_000000gn/T//ccSnq3HU.s:656    .text.receiveCommands:00000000000001a2 .L0 
/var/folders/rt/4gvqv631095f64jvm7jfj_000000gn/T//ccSnq3HU.s:658    .text.receiveCommands:00000000000001a4 .L0 
/var/folders/rt/4gvqv631095f64jvm7jfj_000000gn/T//ccSnq3HU.s:659    .text.receiveCommands:00000000000001a4 .L0 
/var/folders/rt/4gvqv631095f64jvm7jfj_000000gn/T//ccSnq3HU.s:665    .text.receiveCommands:00000000000001b8 .L0 
/var/folders/rt/4gvqv631095f64jvm7jfj_000000gn/T//ccSnq3HU.s:667    .text.receiveCommands:00000000000001bc .L0 
/var/folders/rt/4gvqv631095f64jvm7jfj_000000gn/T//ccSnq3HU.s:669    .text.receiveCommands:00000000000001be .L0 
/var/folders/rt/4gvqv631095f64jvm7jfj_000000gn/T//ccSnq3HU.s:674    .text.receiveCommands:00000000000001ca .L0 
/var/folders/rt/4gvqv631095f64jvm7jfj_000000gn/T//ccSnq3HU.s:680    .text.receiveCommands:00000000000001d6 .L0 
/var/folders/rt/4gvqv631095f64jvm7jfj_000000gn/T//ccSnq3HU.s:686    .text.receiveCommands:00000000000001e4 .L0 
/var/folders/rt/4gvqv631095f64jvm7jfj_000000gn/T//ccSnq3HU.s:687    .text.receiveCommands:00000000000001e4 .L0 
/var/folders/rt/4gvqv631095f64jvm7jfj_000000gn/T//ccSnq3HU.s:693    .text.receiveCommands:00000000000001f6 .L0 
/var/folders/rt/4gvqv631095f64jvm7jfj_000000gn/T//ccSnq3HU.s:696    .text.receiveCommands:00000000000001fa .L0 
/var/folders/rt/4gvqv631095f64jvm7jfj_000000gn/T//ccSnq3HU.s:697    .text.receiveCommands:00000000000001fa .L0 
/var/folders/rt/4gvqv631095f64jvm7jfj_000000gn/T//ccSnq3HU.s:698    .text.receiveCommands:00000000000001fa .L0 
/var/folders/rt/4gvqv631095f64jvm7jfj_000000gn/T//ccSnq3HU.s:699    .text.receiveCommands:00000000000001fa .L0 
/var/folders/rt/4gvqv631095f64jvm7jfj_000000gn/T//ccSnq3HU.s:700    .text.receiveCommands:00000000000001fa .L0 
/var/folders/rt/4gvqv631095f64jvm7jfj_000000gn/T//ccSnq3HU.s:701    .text.receiveCommands:00000000000001fa .L0 
/var/folders/rt/4gvqv631095f64jvm7jfj_000000gn/T//ccSnq3HU.s:702    .text.receiveCommands:00000000000001fa .L0 
/var/folders/rt/4gvqv631095f64jvm7jfj_000000gn/T//ccSnq3HU.s:703    .text.receiveCommands:00000000000001fa .L0 
/var/folders/rt/4gvqv631095f64jvm7jfj_000000gn/T//ccSnq3HU.s:704    .text.receiveCommands:00000000000001fa .L0 
/var/folders/rt/4gvqv631095f64jvm7jfj_000000gn/T//ccSnq3HU.s:705    .text.receiveCommands:00000000000001fa .L0 
/var/folders/rt/4gvqv631095f64jvm7jfj_000000gn/T//ccSnq3HU.s:706    .text.receiveCommands:00000000000001fa .L0 
/var/folders/rt/4gvqv631095f64jvm7jfj_000000gn/T//ccSnq3HU.s:707    .text.receiveCommands:00000000000001fa .L0 
/var/folders/rt/4gvqv631095f64jvm7jfj_000000gn/T//ccSnq3HU.s:713    .text.receiveCommands:000000000000020e .L0 
/var/folders/rt/4gvqv631095f64jvm7jfj_000000gn/T//ccSnq3HU.s:714    .text.receiveCommands:000000000000020e .L0 
/var/folders/rt/4gvqv631095f64jvm7jfj_000000gn/T//ccSnq3HU.s:716    .text.receiveCommands:0000000000000210 .L0 
/var/folders/rt/4gvqv631095f64jvm7jfj_000000gn/T//ccSnq3HU.s:723    .text.receiveCommands:0000000000000222 .L0 
/var/folders/rt/4gvqv631095f64jvm7jfj_000000gn/T//ccSnq3HU.s:724    .text.receiveCommands:0000000000000222 .L0 
/var/folders/rt/4gvqv631095f64jvm7jfj_000000gn/T//ccSnq3HU.s:730    .text.receiveCommands:0000000000000236 .L0 
/var/folders/rt/4gvqv631095f64jvm7jfj_000000gn/T//ccSnq3HU.s:732    .text.receiveCommands:000000000000023a .L0 
/var/folders/rt/4gvqv631095f64jvm7jfj_000000gn/T//ccSnq3HU.s:735    .text.receiveCommands:000000000000023c .L0 
/var/folders/rt/4gvqv631095f64jvm7jfj_000000gn/T//ccSnq3HU.s:736    .text.receiveCommands:000000000000023c .L0 
/var/folders/rt/4gvqv631095f64jvm7jfj_000000gn/T//ccSnq3HU.s:742    .text.receiveCommands:000000000000024c .L0 
/var/folders/rt/4gvqv631095f64jvm7jfj_000000gn/T//ccSnq3HU.s:744    .text.receiveCommands:0000000000000250 .L0 
/var/folders/rt/4gvqv631095f64jvm7jfj_000000gn/T//ccSnq3HU.s:747    .text.receiveCommands:0000000000000252 .L0 
/var/folders/rt/4gvqv631095f64jvm7jfj_000000gn/T//ccSnq3HU.s:748    .text.receiveCommands:0000000000000252 .L0 
/var/folders/rt/4gvqv631095f64jvm7jfj_000000gn/T//ccSnq3HU.s:754    .text.receiveCommands:0000000000000262 .L0 
/var/folders/rt/4gvqv631095f64jvm7jfj_000000gn/T//ccSnq3HU.s:756    .text.receiveCommands:0000000000000266 .L0 
GAS LISTING /var/folders/rt/4gvqv631095f64jvm7jfj_000000gn/T//ccSnq3HU.s 			page 30


/var/folders/rt/4gvqv631095f64jvm7jfj_000000gn/T//ccSnq3HU.s:759    .text.receiveCommands:0000000000000268 .L0 
/var/folders/rt/4gvqv631095f64jvm7jfj_000000gn/T//ccSnq3HU.s:760    .text.receiveCommands:0000000000000268 .L0 
/var/folders/rt/4gvqv631095f64jvm7jfj_000000gn/T//ccSnq3HU.s:766    .text.receiveCommands:0000000000000278 .L0 
/var/folders/rt/4gvqv631095f64jvm7jfj_000000gn/T//ccSnq3HU.s:768    .text.receiveCommands:000000000000027c .L0 
/var/folders/rt/4gvqv631095f64jvm7jfj_000000gn/T//ccSnq3HU.s:771    .text.receiveCommands:000000000000027e .L0 
/var/folders/rt/4gvqv631095f64jvm7jfj_000000gn/T//ccSnq3HU.s:772    .text.receiveCommands:000000000000027e .L0 
/var/folders/rt/4gvqv631095f64jvm7jfj_000000gn/T//ccSnq3HU.s:778    .text.receiveCommands:000000000000028e .L0 
/var/folders/rt/4gvqv631095f64jvm7jfj_000000gn/T//ccSnq3HU.s:780    .text.receiveCommands:0000000000000292 .L0 
/var/folders/rt/4gvqv631095f64jvm7jfj_000000gn/T//ccSnq3HU.s:783    .text.receiveCommands:0000000000000294 .L0 
/var/folders/rt/4gvqv631095f64jvm7jfj_000000gn/T//ccSnq3HU.s:784    .text.receiveCommands:0000000000000294 .L0 
/var/folders/rt/4gvqv631095f64jvm7jfj_000000gn/T//ccSnq3HU.s:790    .text.receiveCommands:00000000000002a4 .L0 
/var/folders/rt/4gvqv631095f64jvm7jfj_000000gn/T//ccSnq3HU.s:792    .text.receiveCommands:00000000000002a8 .L0 
/var/folders/rt/4gvqv631095f64jvm7jfj_000000gn/T//ccSnq3HU.s:795    .text.receiveCommands:00000000000002aa .L0 
/var/folders/rt/4gvqv631095f64jvm7jfj_000000gn/T//ccSnq3HU.s:796    .text.receiveCommands:00000000000002aa .L0 
/var/folders/rt/4gvqv631095f64jvm7jfj_000000gn/T//ccSnq3HU.s:802    .text.receiveCommands:00000000000002ba .L0 
/var/folders/rt/4gvqv631095f64jvm7jfj_000000gn/T//ccSnq3HU.s:804    .text.receiveCommands:00000000000002be .L0 
/var/folders/rt/4gvqv631095f64jvm7jfj_000000gn/T//ccSnq3HU.s:807    .text.receiveCommands:00000000000002c0 .L0 
/var/folders/rt/4gvqv631095f64jvm7jfj_000000gn/T//ccSnq3HU.s:808    .text.receiveCommands:00000000000002c0 .L0 
/var/folders/rt/4gvqv631095f64jvm7jfj_000000gn/T//ccSnq3HU.s:814    .text.receiveCommands:00000000000002d0 .L0 
/var/folders/rt/4gvqv631095f64jvm7jfj_000000gn/T//ccSnq3HU.s:816    .text.receiveCommands:00000000000002d4 .L0 
/var/folders/rt/4gvqv631095f64jvm7jfj_000000gn/T//ccSnq3HU.s:819    .text.receiveCommands:00000000000002d6 .L0 
/var/folders/rt/4gvqv631095f64jvm7jfj_000000gn/T//ccSnq3HU.s:820    .text.receiveCommands:00000000000002d6 .L0 
/var/folders/rt/4gvqv631095f64jvm7jfj_000000gn/T//ccSnq3HU.s:826    .text.receiveCommands:00000000000002e6 .L0 
/var/folders/rt/4gvqv631095f64jvm7jfj_000000gn/T//ccSnq3HU.s:842    .text.receiveCommands:0000000000000306 .L0 
/var/folders/rt/4gvqv631095f64jvm7jfj_000000gn/T//ccSnq3HU.s:846    .text.receiveCommands:0000000000000310 .L0 
/var/folders/rt/4gvqv631095f64jvm7jfj_000000gn/T//ccSnq3HU.s:855    .text.receiveCommands:000000000000031e .L0 
/var/folders/rt/4gvqv631095f64jvm7jfj_000000gn/T//ccSnq3HU.s:859    .text.receiveCommands:0000000000000328 .L0 
/var/folders/rt/4gvqv631095f64jvm7jfj_000000gn/T//ccSnq3HU.s:870    .text.receiveCommands:0000000000000344 .L0 
/var/folders/rt/4gvqv631095f64jvm7jfj_000000gn/T//ccSnq3HU.s:878    .text.receiveCommands:000000000000035a .L0 
/var/folders/rt/4gvqv631095f64jvm7jfj_000000gn/T//ccSnq3HU.s:884    .text.receiveCommands:0000000000000360 .L0 
/var/folders/rt/4gvqv631095f64jvm7jfj_000000gn/T//ccSnq3HU.s:888    .text.receiveCommands:0000000000000364 .L0 
/var/folders/rt/4gvqv631095f64jvm7jfj_000000gn/T//ccSnq3HU.s:344    .text.jsonAllPlants:0000000000000274 .L0 
/var/folders/rt/4gvqv631095f64jvm7jfj_000000gn/T//ccSnq3HU.s:424    .text.getValue:000000000000004c .L0 
/var/folders/rt/4gvqv631095f64jvm7jfj_000000gn/T//ccSnq3HU.s:891    .text.receiveCommands:0000000000000364 .L0 
                     .debug_frame:0000000000000000 .L0 
/var/folders/rt/4gvqv631095f64jvm7jfj_000000gn/T//ccSnq3HU.s:897    .rodata.jsonAllPlants.str1.4:0000000000000000 .LC0
/var/folders/rt/4gvqv631095f64jvm7jfj_000000gn/T//ccSnq3HU.s:900    .rodata.jsonAllPlants.str1.4:0000000000000004 .LC1
/var/folders/rt/4gvqv631095f64jvm7jfj_000000gn/T//ccSnq3HU.s:903    .rodata.jsonAllPlants.str1.4:0000000000000008 .LC2
/var/folders/rt/4gvqv631095f64jvm7jfj_000000gn/T//ccSnq3HU.s:906    .rodata.jsonAllPlants.str1.4:00000000000000d4 .LC3
/var/folders/rt/4gvqv631095f64jvm7jfj_000000gn/T//ccSnq3HU.s:116    .text.jsonAllPlants:0000000000000068 .L4
/var/folders/rt/4gvqv631095f64jvm7jfj_000000gn/T//ccSnq3HU.s:131    .text.jsonAllPlants:000000000000007a .L3
/var/folders/rt/4gvqv631095f64jvm7jfj_000000gn/T//ccSnq3HU.s:72     .text.jsonAllPlants:0000000000000038 .L2
/var/folders/rt/4gvqv631095f64jvm7jfj_000000gn/T//ccSnq3HU.s:893    .rodata.getValue.str1.4:0000000000000000 .LC4
/var/folders/rt/4gvqv631095f64jvm7jfj_000000gn/T//ccSnq3HU.s:414    .text.getValue:0000000000000048 .L8
/var/folders/rt/4gvqv631095f64jvm7jfj_000000gn/T//ccSnq3HU.s:402    .text.getValue:0000000000000040 .L6
/var/folders/rt/4gvqv631095f64jvm7jfj_000000gn/T//ccSnq3HU.s:910    .rodata.receiveCommands.str1.4:0000000000000000 .LC5
/var/folders/rt/4gvqv631095f64jvm7jfj_000000gn/T//ccSnq3HU.s:912    .rodata.receiveCommands.str1.4:0000000000000014 .LC6
/var/folders/rt/4gvqv631095f64jvm7jfj_000000gn/T//ccSnq3HU.s:914    .rodata.receiveCommands.str1.4:0000000000000024 .LC7
/var/folders/rt/4gvqv631095f64jvm7jfj_000000gn/T//ccSnq3HU.s:917    .rodata.receiveCommands.str1.4:0000000000000034 .LC8
/var/folders/rt/4gvqv631095f64jvm7jfj_000000gn/T//ccSnq3HU.s:920    .rodata.receiveCommands.str1.4:0000000000000048 .LC9
/var/folders/rt/4gvqv631095f64jvm7jfj_000000gn/T//ccSnq3HU.s:922    .rodata.receiveCommands.str1.4:0000000000000050 .LC10
/var/folders/rt/4gvqv631095f64jvm7jfj_000000gn/T//ccSnq3HU.s:924    .rodata.receiveCommands.str1.4:0000000000000060 .LC11
/var/folders/rt/4gvqv631095f64jvm7jfj_000000gn/T//ccSnq3HU.s:927    .rodata.receiveCommands.str1.4:000000000000006c .LC12
/var/folders/rt/4gvqv631095f64jvm7jfj_000000gn/T//ccSnq3HU.s:930    .rodata.receiveCommands.str1.4:000000000000007c .LC13
/var/folders/rt/4gvqv631095f64jvm7jfj_000000gn/T//ccSnq3HU.s:933    .rodata.receiveCommands.str1.4:0000000000000088 .LC14
/var/folders/rt/4gvqv631095f64jvm7jfj_000000gn/T//ccSnq3HU.s:936    .rodata.receiveCommands.str1.4:0000000000000094 .LC15
/var/folders/rt/4gvqv631095f64jvm7jfj_000000gn/T//ccSnq3HU.s:939    .rodata.receiveCommands.str1.4:00000000000000a0 .LC16
GAS LISTING /var/folders/rt/4gvqv631095f64jvm7jfj_000000gn/T//ccSnq3HU.s 			page 31


/var/folders/rt/4gvqv631095f64jvm7jfj_000000gn/T//ccSnq3HU.s:942    .rodata.receiveCommands.str1.4:00000000000000b0 .LC17
/var/folders/rt/4gvqv631095f64jvm7jfj_000000gn/T//ccSnq3HU.s:945    .rodata.receiveCommands.str1.4:00000000000000bc .LC18
/var/folders/rt/4gvqv631095f64jvm7jfj_000000gn/T//ccSnq3HU.s:948    .rodata.receiveCommands.str1.4:00000000000000c8 .LC19
/var/folders/rt/4gvqv631095f64jvm7jfj_000000gn/T//ccSnq3HU.s:951    .rodata.receiveCommands.str1.4:00000000000000d4 .LC20
/var/folders/rt/4gvqv631095f64jvm7jfj_000000gn/T//ccSnq3HU.s:954    .rodata.receiveCommands.str1.4:00000000000000e0 .LC21
/var/folders/rt/4gvqv631095f64jvm7jfj_000000gn/T//ccSnq3HU.s:957    .rodata.receiveCommands.str1.4:00000000000000e8 .LC22
/var/folders/rt/4gvqv631095f64jvm7jfj_000000gn/T//ccSnq3HU.s:959    .rodata.receiveCommands.str1.4:00000000000000f0 .LC23
/var/folders/rt/4gvqv631095f64jvm7jfj_000000gn/T//ccSnq3HU.s:962    .rodata.receiveCommands.str1.4:00000000000000fc .LC24
/var/folders/rt/4gvqv631095f64jvm7jfj_000000gn/T//ccSnq3HU.s:965    .rodata.receiveCommands.str1.4:0000000000000104 .LC25
/var/folders/rt/4gvqv631095f64jvm7jfj_000000gn/T//ccSnq3HU.s:967    .rodata.receiveCommands.str1.4:000000000000010c .LC26
/var/folders/rt/4gvqv631095f64jvm7jfj_000000gn/T//ccSnq3HU.s:970    .rodata.receiveCommands.str1.4:0000000000000120 .LC27
/var/folders/rt/4gvqv631095f64jvm7jfj_000000gn/T//ccSnq3HU.s:525    .text.receiveCommands:00000000000000a6 .L10
/var/folders/rt/4gvqv631095f64jvm7jfj_000000gn/T//ccSnq3HU.s:881    .text.receiveCommands:0000000000000360 .L12
/var/folders/rt/4gvqv631095f64jvm7jfj_000000gn/T//ccSnq3HU.s:551    .text.receiveCommands:00000000000000cc .L13
/var/folders/rt/4gvqv631095f64jvm7jfj_000000gn/T//ccSnq3HU.s:597    .text.receiveCommands:0000000000000124 .L15
/var/folders/rt/4gvqv631095f64jvm7jfj_000000gn/T//ccSnq3HU.s:520    .text.receiveCommands:00000000000000a2 .L14
/var/folders/rt/4gvqv631095f64jvm7jfj_000000gn/T//ccSnq3HU.s:615    .text.receiveCommands:000000000000014c .L16
/var/folders/rt/4gvqv631095f64jvm7jfj_000000gn/T//ccSnq3HU.s:647    .text.receiveCommands:0000000000000190 .L17
/var/folders/rt/4gvqv631095f64jvm7jfj_000000gn/T//ccSnq3HU.s:684    .text.receiveCommands:00000000000001e4 .L19
/var/folders/rt/4gvqv631095f64jvm7jfj_000000gn/T//ccSnq3HU.s:678    .text.receiveCommands:00000000000001d6 .L20
/var/folders/rt/4gvqv631095f64jvm7jfj_000000gn/T//ccSnq3HU.s:672    .text.receiveCommands:00000000000001ca .L21
/var/folders/rt/4gvqv631095f64jvm7jfj_000000gn/T//ccSnq3HU.s:852    .text.receiveCommands:000000000000031e .L22
/var/folders/rt/4gvqv631095f64jvm7jfj_000000gn/T//ccSnq3HU.s:721    .text.receiveCommands:0000000000000222 .L23
/var/folders/rt/4gvqv631095f64jvm7jfj_000000gn/T//ccSnq3HU.s:638    .text.receiveCommands:0000000000000182 .L34
/var/folders/rt/4gvqv631095f64jvm7jfj_000000gn/T//ccSnq3HU.s:589    .text.receiveCommands:000000000000011a .L33
/var/folders/rt/4gvqv631095f64jvm7jfj_000000gn/T//ccSnq3HU.s:488    .text.receiveCommands:000000000000005e .L11
/var/folders/rt/4gvqv631095f64jvm7jfj_000000gn/T//ccSnq3HU.s:3914   .debug_abbrev:0000000000000000 .Ldebug_abbrev0
/var/folders/rt/4gvqv631095f64jvm7jfj_000000gn/T//ccSnq3HU.s:5459   .debug_str:000000000000060b .LASF184
/var/folders/rt/4gvqv631095f64jvm7jfj_000000gn/T//ccSnq3HU.s:5527   .debug_str:0000000000000820 .LASF185
/var/folders/rt/4gvqv631095f64jvm7jfj_000000gn/T//ccSnq3HU.s:5463   .debug_str:000000000000069c .LASF186
/var/folders/rt/4gvqv631095f64jvm7jfj_000000gn/T//ccSnq3HU.s:5119   .debug_ranges:0000000000000000 .Ldebug_ranges0
/var/folders/rt/4gvqv631095f64jvm7jfj_000000gn/T//ccSnq3HU.s:5151   .debug_line:0000000000000000 .Ldebug_line0
/var/folders/rt/4gvqv631095f64jvm7jfj_000000gn/T//ccSnq3HU.s:5163   .debug_str:000000000000002b .LASF4
/var/folders/rt/4gvqv631095f64jvm7jfj_000000gn/T//ccSnq3HU.s:5445   .debug_str:00000000000005cc .LASF0
/var/folders/rt/4gvqv631095f64jvm7jfj_000000gn/T//ccSnq3HU.s:5465   .debug_str:00000000000006df .LASF1
/var/folders/rt/4gvqv631095f64jvm7jfj_000000gn/T//ccSnq3HU.s:5239   .debug_str:00000000000001c2 .LASF2
/var/folders/rt/4gvqv631095f64jvm7jfj_000000gn/T//ccSnq3HU.s:5435   .debug_str:00000000000005a5 .LASF3
/var/folders/rt/4gvqv631095f64jvm7jfj_000000gn/T//ccSnq3HU.s:5423   .debug_str:0000000000000576 .LASF5
/var/folders/rt/4gvqv631095f64jvm7jfj_000000gn/T//ccSnq3HU.s:5205   .debug_str:0000000000000123 .LASF6
/var/folders/rt/4gvqv631095f64jvm7jfj_000000gn/T//ccSnq3HU.s:5375   .debug_str:0000000000000485 .LASF7
/var/folders/rt/4gvqv631095f64jvm7jfj_000000gn/T//ccSnq3HU.s:5157   .debug_str:0000000000000012 .LASF8
/var/folders/rt/4gvqv631095f64jvm7jfj_000000gn/T//ccSnq3HU.s:5321   .debug_str:000000000000033d .LASF9
/var/folders/rt/4gvqv631095f64jvm7jfj_000000gn/T//ccSnq3HU.s:5177   .debug_str:0000000000000076 .LASF10
/var/folders/rt/4gvqv631095f64jvm7jfj_000000gn/T//ccSnq3HU.s:5257   .debug_str:0000000000000220 .LASF11
/var/folders/rt/4gvqv631095f64jvm7jfj_000000gn/T//ccSnq3HU.s:5283   .debug_str:0000000000000290 .LASF12
/var/folders/rt/4gvqv631095f64jvm7jfj_000000gn/T//ccSnq3HU.s:5185   .debug_str:00000000000000ad .LASF13
/var/folders/rt/4gvqv631095f64jvm7jfj_000000gn/T//ccSnq3HU.s:5201   .debug_str:0000000000000115 .LASF14
/var/folders/rt/4gvqv631095f64jvm7jfj_000000gn/T//ccSnq3HU.s:5433   .debug_str:000000000000059d .LASF15
/var/folders/rt/4gvqv631095f64jvm7jfj_000000gn/T//ccSnq3HU.s:5497   .debug_str:000000000000078e .LASF16
/var/folders/rt/4gvqv631095f64jvm7jfj_000000gn/T//ccSnq3HU.s:5307   .debug_str:0000000000000307 .LASF17
/var/folders/rt/4gvqv631095f64jvm7jfj_000000gn/T//ccSnq3HU.s:5275   .debug_str:0000000000000269 .LASF18
/var/folders/rt/4gvqv631095f64jvm7jfj_000000gn/T//ccSnq3HU.s:5425   .debug_str:000000000000057d .LASF19
/var/folders/rt/4gvqv631095f64jvm7jfj_000000gn/T//ccSnq3HU.s:5427   .debug_str:0000000000000585 .LASF20
/var/folders/rt/4gvqv631095f64jvm7jfj_000000gn/T//ccSnq3HU.s:5365   .debug_str:0000000000000451 .LASF21
/var/folders/rt/4gvqv631095f64jvm7jfj_000000gn/T//ccSnq3HU.s:5473   .debug_str:0000000000000704 .LASF22
/var/folders/rt/4gvqv631095f64jvm7jfj_000000gn/T//ccSnq3HU.s:5367   .debug_str:000000000000045c .LASF23
/var/folders/rt/4gvqv631095f64jvm7jfj_000000gn/T//ccSnq3HU.s:5381   .debug_str:00000000000004a2 .LASF24
GAS LISTING /var/folders/rt/4gvqv631095f64jvm7jfj_000000gn/T//ccSnq3HU.s 			page 32


/var/folders/rt/4gvqv631095f64jvm7jfj_000000gn/T//ccSnq3HU.s:5265   .debug_str:0000000000000245 .LASF29
/var/folders/rt/4gvqv631095f64jvm7jfj_000000gn/T//ccSnq3HU.s:5455   .debug_str:00000000000005fe .LASF25
/var/folders/rt/4gvqv631095f64jvm7jfj_000000gn/T//ccSnq3HU.s:5415   .debug_str:0000000000000559 .LASF26
/var/folders/rt/4gvqv631095f64jvm7jfj_000000gn/T//ccSnq3HU.s:5259   .debug_str:000000000000022b .LASF27
/var/folders/rt/4gvqv631095f64jvm7jfj_000000gn/T//ccSnq3HU.s:5341   .debug_str:00000000000003ba .LASF28
/var/folders/rt/4gvqv631095f64jvm7jfj_000000gn/T//ccSnq3HU.s:5273   .debug_str:0000000000000264 .LASF30
/var/folders/rt/4gvqv631095f64jvm7jfj_000000gn/T//ccSnq3HU.s:5199   .debug_str:000000000000010c .LASF31
/var/folders/rt/4gvqv631095f64jvm7jfj_000000gn/T//ccSnq3HU.s:5515   .debug_str:00000000000007e8 .LASF32
/var/folders/rt/4gvqv631095f64jvm7jfj_000000gn/T//ccSnq3HU.s:5215   .debug_str:0000000000000150 .LASF33
/var/folders/rt/4gvqv631095f64jvm7jfj_000000gn/T//ccSnq3HU.s:5529   .debug_str:000000000000082f .LASF34
/var/folders/rt/4gvqv631095f64jvm7jfj_000000gn/T//ccSnq3HU.s:5347   .debug_str:00000000000003e0 .LASF35
/var/folders/rt/4gvqv631095f64jvm7jfj_000000gn/T//ccSnq3HU.s:5331   .debug_str:0000000000000380 .LASF36
/var/folders/rt/4gvqv631095f64jvm7jfj_000000gn/T//ccSnq3HU.s:5431   .debug_str:0000000000000593 .LASF37
/var/folders/rt/4gvqv631095f64jvm7jfj_000000gn/T//ccSnq3HU.s:5383   .debug_str:00000000000004ab .LASF38
/var/folders/rt/4gvqv631095f64jvm7jfj_000000gn/T//ccSnq3HU.s:5511   .debug_str:00000000000007ce .LASF39
/var/folders/rt/4gvqv631095f64jvm7jfj_000000gn/T//ccSnq3HU.s:5219   .debug_str:000000000000015f .LASF40
/var/folders/rt/4gvqv631095f64jvm7jfj_000000gn/T//ccSnq3HU.s:5161   .debug_str:0000000000000023 .LASF41
/var/folders/rt/4gvqv631095f64jvm7jfj_000000gn/T//ccSnq3HU.s:5153   .debug_str:0000000000000000 .LASF42
/var/folders/rt/4gvqv631095f64jvm7jfj_000000gn/T//ccSnq3HU.s:5461   .debug_str:0000000000000693 .LASF43
/var/folders/rt/4gvqv631095f64jvm7jfj_000000gn/T//ccSnq3HU.s:5235   .debug_str:00000000000001b3 .LASF44
/var/folders/rt/4gvqv631095f64jvm7jfj_000000gn/T//ccSnq3HU.s:5349   .debug_str:00000000000003e9 .LASF45
/var/folders/rt/4gvqv631095f64jvm7jfj_000000gn/T//ccSnq3HU.s:5403   .debug_str:000000000000050b .LASF46
/var/folders/rt/4gvqv631095f64jvm7jfj_000000gn/T//ccSnq3HU.s:5255   .debug_str:000000000000021b .LASF47
/var/folders/rt/4gvqv631095f64jvm7jfj_000000gn/T//ccSnq3HU.s:5385   .debug_str:00000000000004b5 .LASF48
/var/folders/rt/4gvqv631095f64jvm7jfj_000000gn/T//ccSnq3HU.s:5213   .debug_str:000000000000014a .LASF49
/var/folders/rt/4gvqv631095f64jvm7jfj_000000gn/T//ccSnq3HU.s:5443   .debug_str:00000000000005c6 .LASF50
/var/folders/rt/4gvqv631095f64jvm7jfj_000000gn/T//ccSnq3HU.s:5391   .debug_str:00000000000004cb .LASF51
/var/folders/rt/4gvqv631095f64jvm7jfj_000000gn/T//ccSnq3HU.s:5233   .debug_str:00000000000001ac .LASF52
/var/folders/rt/4gvqv631095f64jvm7jfj_000000gn/T//ccSnq3HU.s:5285   .debug_str:00000000000002a2 .LASF53
/var/folders/rt/4gvqv631095f64jvm7jfj_000000gn/T//ccSnq3HU.s:5523   .debug_str:0000000000000809 .LASF54
/var/folders/rt/4gvqv631095f64jvm7jfj_000000gn/T//ccSnq3HU.s:5221   .debug_str:000000000000016d .LASF55
/var/folders/rt/4gvqv631095f64jvm7jfj_000000gn/T//ccSnq3HU.s:5269   .debug_str:0000000000000254 .LASF56
/var/folders/rt/4gvqv631095f64jvm7jfj_000000gn/T//ccSnq3HU.s:5329   .debug_str:0000000000000379 .LASF57
/var/folders/rt/4gvqv631095f64jvm7jfj_000000gn/T//ccSnq3HU.s:5429   .debug_str:000000000000058d .LASF58
/var/folders/rt/4gvqv631095f64jvm7jfj_000000gn/T//ccSnq3HU.s:5203   .debug_str:000000000000011c .LASF59
/var/folders/rt/4gvqv631095f64jvm7jfj_000000gn/T//ccSnq3HU.s:5211   .debug_str:0000000000000144 .LASF60
/var/folders/rt/4gvqv631095f64jvm7jfj_000000gn/T//ccSnq3HU.s:5507   .debug_str:00000000000007c0 .LASF61
/var/folders/rt/4gvqv631095f64jvm7jfj_000000gn/T//ccSnq3HU.s:5441   .debug_str:00000000000005bd .LASF62
/var/folders/rt/4gvqv631095f64jvm7jfj_000000gn/T//ccSnq3HU.s:5245   .debug_str:00000000000001e0 .LASF63
/var/folders/rt/4gvqv631095f64jvm7jfj_000000gn/T//ccSnq3HU.s:5291   .debug_str:00000000000002c2 .LASF64
/var/folders/rt/4gvqv631095f64jvm7jfj_000000gn/T//ccSnq3HU.s:5317   .debug_str:0000000000000331 .LASF65
/var/folders/rt/4gvqv631095f64jvm7jfj_000000gn/T//ccSnq3HU.s:5393   .debug_str:00000000000004d3 .LASF66
/var/folders/rt/4gvqv631095f64jvm7jfj_000000gn/T//ccSnq3HU.s:5387   .debug_str:00000000000004bc .LASF67
/var/folders/rt/4gvqv631095f64jvm7jfj_000000gn/T//ccSnq3HU.s:5417   .debug_str:0000000000000561 .LASF68
/var/folders/rt/4gvqv631095f64jvm7jfj_000000gn/T//ccSnq3HU.s:5437   .debug_str:00000000000005b1 .LASF69
/var/folders/rt/4gvqv631095f64jvm7jfj_000000gn/T//ccSnq3HU.s:5237   .debug_str:00000000000001bb .LASF70
/var/folders/rt/4gvqv631095f64jvm7jfj_000000gn/T//ccSnq3HU.s:5279   .debug_str:0000000000000280 .LASF71
/var/folders/rt/4gvqv631095f64jvm7jfj_000000gn/T//ccSnq3HU.s:5263   .debug_str:000000000000023d .LASF72
/var/folders/rt/4gvqv631095f64jvm7jfj_000000gn/T//ccSnq3HU.s:5401   .debug_str:0000000000000506 .LASF73
/var/folders/rt/4gvqv631095f64jvm7jfj_000000gn/T//ccSnq3HU.s:5169   .debug_str:000000000000004e .LASF74
/var/folders/rt/4gvqv631095f64jvm7jfj_000000gn/T//ccSnq3HU.s:5411   .debug_str:000000000000052c .LASF75
/var/folders/rt/4gvqv631095f64jvm7jfj_000000gn/T//ccSnq3HU.s:5407   .debug_str:000000000000051a .LASF76
/var/folders/rt/4gvqv631095f64jvm7jfj_000000gn/T//ccSnq3HU.s:5353   .debug_str:00000000000003fb .LASF77
/var/folders/rt/4gvqv631095f64jvm7jfj_000000gn/T//ccSnq3HU.s:5409   .debug_str:0000000000000522 .LASF78
/var/folders/rt/4gvqv631095f64jvm7jfj_000000gn/T//ccSnq3HU.s:5305   .debug_str:00000000000002ff .LASF79
/var/folders/rt/4gvqv631095f64jvm7jfj_000000gn/T//ccSnq3HU.s:5271   .debug_str:000000000000025a .LASF80
/var/folders/rt/4gvqv631095f64jvm7jfj_000000gn/T//ccSnq3HU.s:5521   .debug_str:0000000000000804 .LASF81
GAS LISTING /var/folders/rt/4gvqv631095f64jvm7jfj_000000gn/T//ccSnq3HU.s 			page 33


/var/folders/rt/4gvqv631095f64jvm7jfj_000000gn/T//ccSnq3HU.s:5361   .debug_str:0000000000000433 .LASF82
/var/folders/rt/4gvqv631095f64jvm7jfj_000000gn/T//ccSnq3HU.s:5281   .debug_str:0000000000000288 .LASF83
/var/folders/rt/4gvqv631095f64jvm7jfj_000000gn/T//ccSnq3HU.s:5243   .debug_str:00000000000001d8 .LASF84
/var/folders/rt/4gvqv631095f64jvm7jfj_000000gn/T//ccSnq3HU.s:5315   .debug_str:000000000000032c .LASF85
/var/folders/rt/4gvqv631095f64jvm7jfj_000000gn/T//ccSnq3HU.s:5175   .debug_str:000000000000006d .LASF86
/var/folders/rt/4gvqv631095f64jvm7jfj_000000gn/T//ccSnq3HU.s:5503   .debug_str:00000000000007ac .LASF87
/var/folders/rt/4gvqv631095f64jvm7jfj_000000gn/T//ccSnq3HU.s:5223   .debug_str:0000000000000175 .LASF88
/var/folders/rt/4gvqv631095f64jvm7jfj_000000gn/T//ccSnq3HU.s:5217   .debug_str:000000000000015a .LASF89
/var/folders/rt/4gvqv631095f64jvm7jfj_000000gn/T//ccSnq3HU.s:5439   .debug_str:00000000000005b8 .LASF90
/var/folders/rt/4gvqv631095f64jvm7jfj_000000gn/T//ccSnq3HU.s:5389   .debug_str:00000000000004c4 .LASF91
/var/folders/rt/4gvqv631095f64jvm7jfj_000000gn/T//ccSnq3HU.s:5495   .debug_str:0000000000000788 .LASF92
/var/folders/rt/4gvqv631095f64jvm7jfj_000000gn/T//ccSnq3HU.s:5293   .debug_str:00000000000002c8 .LASF93
/var/folders/rt/4gvqv631095f64jvm7jfj_000000gn/T//ccSnq3HU.s:5377   .debug_str:0000000000000493 .LASF94
/var/folders/rt/4gvqv631095f64jvm7jfj_000000gn/T//ccSnq3HU.s:5419   .debug_str:0000000000000568 .LASF95
/var/folders/rt/4gvqv631095f64jvm7jfj_000000gn/T//ccSnq3HU.s:5421   .debug_str:0000000000000570 .LASF96
/var/folders/rt/4gvqv631095f64jvm7jfj_000000gn/T//ccSnq3HU.s:5319   .debug_str:0000000000000337 .LASF97
/var/folders/rt/4gvqv631095f64jvm7jfj_000000gn/T//ccSnq3HU.s:5469   .debug_str:00000000000006fa .LASF98
/var/folders/rt/4gvqv631095f64jvm7jfj_000000gn/T//ccSnq3HU.s:5489   .debug_str:0000000000000768 .LASF99
/var/folders/rt/4gvqv631095f64jvm7jfj_000000gn/T//ccSnq3HU.s:5251   .debug_str:0000000000000200 .LASF100
/var/folders/rt/4gvqv631095f64jvm7jfj_000000gn/T//ccSnq3HU.s:5301   .debug_str:00000000000002eb .LASF101
/var/folders/rt/4gvqv631095f64jvm7jfj_000000gn/T//ccSnq3HU.s:5513   .debug_str:00000000000007d9 .LASF102
/var/folders/rt/4gvqv631095f64jvm7jfj_000000gn/T//ccSnq3HU.s:5355   .debug_str:0000000000000406 .LASF103
/var/folders/rt/4gvqv631095f64jvm7jfj_000000gn/T//ccSnq3HU.s:5297   .debug_str:00000000000002d4 .LASF104
/var/folders/rt/4gvqv631095f64jvm7jfj_000000gn/T//ccSnq3HU.s:5517   .debug_str:00000000000007f1 .LASF105
/var/folders/rt/4gvqv631095f64jvm7jfj_000000gn/T//ccSnq3HU.s:5399   .debug_str:00000000000004f9 .LASF106
/var/folders/rt/4gvqv631095f64jvm7jfj_000000gn/T//ccSnq3HU.s:5519   .debug_str:00000000000007f6 .LASF107
/var/folders/rt/4gvqv631095f64jvm7jfj_000000gn/T//ccSnq3HU.s:5197   .debug_str:00000000000000fe .LASF108
/var/folders/rt/4gvqv631095f64jvm7jfj_000000gn/T//ccSnq3HU.s:5499   .debug_str:0000000000000797 .LASF109
/var/folders/rt/4gvqv631095f64jvm7jfj_000000gn/T//ccSnq3HU.s:5299   .debug_str:00000000000002df .LASF110
/var/folders/rt/4gvqv631095f64jvm7jfj_000000gn/T//ccSnq3HU.s:5475   .debug_str:000000000000070c .LASF111
/var/folders/rt/4gvqv631095f64jvm7jfj_000000gn/T//ccSnq3HU.s:5253   .debug_str:000000000000020d .LASF112
/var/folders/rt/4gvqv631095f64jvm7jfj_000000gn/T//ccSnq3HU.s:5477   .debug_str:0000000000000719 .LASF113
/var/folders/rt/4gvqv631095f64jvm7jfj_000000gn/T//ccSnq3HU.s:5249   .debug_str:00000000000001ef .LASF114
/var/folders/rt/4gvqv631095f64jvm7jfj_000000gn/T//ccSnq3HU.s:5179   .debug_str:000000000000007f .LASF115
/var/folders/rt/4gvqv631095f64jvm7jfj_000000gn/T//ccSnq3HU.s:5183   .debug_str:000000000000009c .LASF116
/var/folders/rt/4gvqv631095f64jvm7jfj_000000gn/T//ccSnq3HU.s:5379   .debug_str:0000000000000499 .LASF117
/var/folders/rt/4gvqv631095f64jvm7jfj_000000gn/T//ccSnq3HU.s:5267   .debug_str:000000000000024d .LASF118
/var/folders/rt/4gvqv631095f64jvm7jfj_000000gn/T//ccSnq3HU.s:5335   .debug_str:0000000000000392 .LASF119
/var/folders/rt/4gvqv631095f64jvm7jfj_000000gn/T//ccSnq3HU.s:5509   .debug_str:00000000000007c6 .LASF120
/var/folders/rt/4gvqv631095f64jvm7jfj_000000gn/T//ccSnq3HU.s:5191   .debug_str:00000000000000d3 .LASF187
/var/folders/rt/4gvqv631095f64jvm7jfj_000000gn/T//ccSnq3HU.s:5261   .debug_str:0000000000000231 .LASF121
/var/folders/rt/4gvqv631095f64jvm7jfj_000000gn/T//ccSnq3HU.s:5483   .debug_str:000000000000073e .LASF122
/var/folders/rt/4gvqv631095f64jvm7jfj_000000gn/T//ccSnq3HU.s:5351   .debug_str:00000000000003f1 .LASF123
/var/folders/rt/4gvqv631095f64jvm7jfj_000000gn/T//ccSnq3HU.s:5373   .debug_str:000000000000047d .LASF124
/var/folders/rt/4gvqv631095f64jvm7jfj_000000gn/T//ccSnq3HU.s:5485   .debug_str:0000000000000751 .LASF125
/var/folders/rt/4gvqv631095f64jvm7jfj_000000gn/T//ccSnq3HU.s:5277   .debug_str:0000000000000270 .LASF126
/var/folders/rt/4gvqv631095f64jvm7jfj_000000gn/T//ccSnq3HU.s:5313   .debug_str:0000000000000321 .LASF127
/var/folders/rt/4gvqv631095f64jvm7jfj_000000gn/T//ccSnq3HU.s:5405   .debug_str:0000000000000510 .LASF128
/var/folders/rt/4gvqv631095f64jvm7jfj_000000gn/T//ccSnq3HU.s:5189   .debug_str:00000000000000cb .LASF129
/var/folders/rt/4gvqv631095f64jvm7jfj_000000gn/T//ccSnq3HU.s:5397   .debug_str:00000000000004eb .LASF130
/var/folders/rt/4gvqv631095f64jvm7jfj_000000gn/T//ccSnq3HU.s:5289   .debug_str:00000000000002bd .LASF131
/var/folders/rt/4gvqv631095f64jvm7jfj_000000gn/T//ccSnq3HU.s:5181   .debug_str:000000000000008e .LASF132
/var/folders/rt/4gvqv631095f64jvm7jfj_000000gn/T//ccSnq3HU.s:5209   .debug_str:000000000000013b .LASF133
/var/folders/rt/4gvqv631095f64jvm7jfj_000000gn/T//ccSnq3HU.s:5225   .debug_str:000000000000017d .LASF134
/var/folders/rt/4gvqv631095f64jvm7jfj_000000gn/T//ccSnq3HU.s:5343   .debug_str:00000000000003bf .LASF135
/var/folders/rt/4gvqv631095f64jvm7jfj_000000gn/T//ccSnq3HU.s:5229   .debug_str:000000000000018c .LASF136
/var/folders/rt/4gvqv631095f64jvm7jfj_000000gn/T//ccSnq3HU.s:5287   .debug_str:00000000000002a8 .LASF137
GAS LISTING /var/folders/rt/4gvqv631095f64jvm7jfj_000000gn/T//ccSnq3HU.s 			page 34


/var/folders/rt/4gvqv631095f64jvm7jfj_000000gn/T//ccSnq3HU.s:5481   .debug_str:0000000000000731 .LASF138
/var/folders/rt/4gvqv631095f64jvm7jfj_000000gn/T//ccSnq3HU.s:5173   .debug_str:0000000000000062 .LASF139
/var/folders/rt/4gvqv631095f64jvm7jfj_000000gn/T//ccSnq3HU.s:5207   .debug_str:000000000000012f .LASF140
/var/folders/rt/4gvqv631095f64jvm7jfj_000000gn/T//ccSnq3HU.s:5325   .debug_str:0000000000000357 .LASF141
/var/folders/rt/4gvqv631095f64jvm7jfj_000000gn/T//ccSnq3HU.s:5195   .debug_str:00000000000000eb .LASF142
/var/folders/rt/4gvqv631095f64jvm7jfj_000000gn/T//ccSnq3HU.s:5413   .debug_str:0000000000000545 .LASF143
/var/folders/rt/4gvqv631095f64jvm7jfj_000000gn/T//ccSnq3HU.s:5525   .debug_str:0000000000000812 .LASF144
/var/folders/rt/4gvqv631095f64jvm7jfj_000000gn/T//ccSnq3HU.s:5337   .debug_str:000000000000039b .LASF145
/var/folders/rt/4gvqv631095f64jvm7jfj_000000gn/T//ccSnq3HU.s:5193   .debug_str:00000000000000de .LASF146
/var/folders/rt/4gvqv631095f64jvm7jfj_000000gn/T//ccSnq3HU.s:5501   .debug_str:00000000000007a1 .LASF147
/var/folders/rt/4gvqv631095f64jvm7jfj_000000gn/T//ccSnq3HU.s:5493   .debug_str:000000000000077f .LASF148
/var/folders/rt/4gvqv631095f64jvm7jfj_000000gn/T//ccSnq3HU.s:5491   .debug_str:0000000000000775 .LASF149
/var/folders/rt/4gvqv631095f64jvm7jfj_000000gn/T//ccSnq3HU.s:5447   .debug_str:00000000000005d9 .LASF150
/var/folders/rt/4gvqv631095f64jvm7jfj_000000gn/T//ccSnq3HU.s:5457   .debug_str:0000000000000604 .LASF151
/var/folders/rt/4gvqv631095f64jvm7jfj_000000gn/T//ccSnq3HU.s:5333   .debug_str:000000000000038a .LASF152
/var/folders/rt/4gvqv631095f64jvm7jfj_000000gn/T//ccSnq3HU.s:5369   .debug_str:000000000000046e .LASF153
/var/folders/rt/4gvqv631095f64jvm7jfj_000000gn/T//ccSnq3HU.s:5467   .debug_str:00000000000006f2 .LASF154
/var/folders/rt/4gvqv631095f64jvm7jfj_000000gn/T//ccSnq3HU.s:5171   .debug_str:0000000000000059 .LASF155
/var/folders/rt/4gvqv631095f64jvm7jfj_000000gn/T//ccSnq3HU.s:5155   .debug_str:000000000000000c .LASF156
/var/folders/rt/4gvqv631095f64jvm7jfj_000000gn/T//ccSnq3HU.s:5357   .debug_str:0000000000000415 .LASF157
/var/folders/rt/4gvqv631095f64jvm7jfj_000000gn/T//ccSnq3HU.s:5339   .debug_str:00000000000003a7 .LASF158
/var/folders/rt/4gvqv631095f64jvm7jfj_000000gn/T//ccSnq3HU.s:5453   .debug_str:00000000000005f5 .LASF188
/var/folders/rt/4gvqv631095f64jvm7jfj_000000gn/T//ccSnq3HU.s:349    .text.getValue:0000000000000000 .LFB8
/var/folders/rt/4gvqv631095f64jvm7jfj_000000gn/T//ccSnq3HU.s:422    .text.getValue:000000000000004c .LFE8
/var/folders/rt/4gvqv631095f64jvm7jfj_000000gn/T//ccSnq3HU.s:4633   .debug_loc:0000000000000000 .LLST7
/var/folders/rt/4gvqv631095f64jvm7jfj_000000gn/T//ccSnq3HU.s:5471   .debug_str:00000000000006ff .LASF159
/var/folders/rt/4gvqv631095f64jvm7jfj_000000gn/T//ccSnq3HU.s:4656   .debug_loc:0000000000000038 .LLST8
/var/folders/rt/4gvqv631095f64jvm7jfj_000000gn/T//ccSnq3HU.s:4678   .debug_loc:000000000000006f .LLST9
/var/folders/rt/4gvqv631095f64jvm7jfj_000000gn/T//ccSnq3HU.s:5309   .debug_str:000000000000030d .LASF160
/var/folders/rt/4gvqv631095f64jvm7jfj_000000gn/T//ccSnq3HU.s:4696   .debug_loc:000000000000009b .LLST10
/var/folders/rt/4gvqv631095f64jvm7jfj_000000gn/T//ccSnq3HU.s:378    .text.getValue:000000000000001c .LVL18
/var/folders/rt/4gvqv631095f64jvm7jfj_000000gn/T//ccSnq3HU.s:384    .text.getValue:0000000000000028 .LVL19
/var/folders/rt/4gvqv631095f64jvm7jfj_000000gn/T//ccSnq3HU.s:395    .text.getValue:0000000000000036 .LVL22
/var/folders/rt/4gvqv631095f64jvm7jfj_000000gn/T//ccSnq3HU.s:401    .text.getValue:0000000000000040 .LVL24
/var/folders/rt/4gvqv631095f64jvm7jfj_000000gn/T//ccSnq3HU.s:5359   .debug_str:0000000000000423 .LASF164
/var/folders/rt/4gvqv631095f64jvm7jfj_000000gn/T//ccSnq3HU.s:429    .text.receiveCommands:0000000000000000 .LFB7
/var/folders/rt/4gvqv631095f64jvm7jfj_000000gn/T//ccSnq3HU.s:889    .text.receiveCommands:0000000000000364 .LFE7
/var/folders/rt/4gvqv631095f64jvm7jfj_000000gn/T//ccSnq3HU.s:4724   .debug_loc:00000000000000df .LLST11
/var/folders/rt/4gvqv631095f64jvm7jfj_000000gn/T//ccSnq3HU.s:5327   .debug_str:000000000000036f .LASF161
/var/folders/rt/4gvqv631095f64jvm7jfj_000000gn/T//ccSnq3HU.s:4747   .debug_loc:0000000000000119 .LLST12
/var/folders/rt/4gvqv631095f64jvm7jfj_000000gn/T//ccSnq3HU.s:5395   .debug_str:00000000000004dc .LASF162
/var/folders/rt/4gvqv631095f64jvm7jfj_000000gn/T//ccSnq3HU.s:4791   .debug_loc:0000000000000182 .LLST13
/var/folders/rt/4gvqv631095f64jvm7jfj_000000gn/T//ccSnq3HU.s:4813   .debug_loc:00000000000001b9 .LLST14
/var/folders/rt/4gvqv631095f64jvm7jfj_000000gn/T//ccSnq3HU.s:564    .text.receiveCommands:00000000000000e2 .LBB7
/var/folders/rt/4gvqv631095f64jvm7jfj_000000gn/T//ccSnq3HU.s:590    .text.receiveCommands:000000000000011a .LBE7
/var/folders/rt/4gvqv631095f64jvm7jfj_000000gn/T//ccSnq3HU.s:5295   .debug_str:00000000000002cf .LASF163
/var/folders/rt/4gvqv631095f64jvm7jfj_000000gn/T//ccSnq3HU.s:567    .text.receiveCommands:00000000000000ea .LVL38
/var/folders/rt/4gvqv631095f64jvm7jfj_000000gn/T//ccSnq3HU.s:577    .text.receiveCommands:0000000000000104 .LVL39
/var/folders/rt/4gvqv631095f64jvm7jfj_000000gn/T//ccSnq3HU.s:585    .text.receiveCommands:0000000000000118 .LVL40
/var/folders/rt/4gvqv631095f64jvm7jfj_000000gn/T//ccSnq3HU.s:591    .text.receiveCommands:000000000000011a .LBB8
/var/folders/rt/4gvqv631095f64jvm7jfj_000000gn/T//ccSnq3HU.s:882    .text.receiveCommands:0000000000000360 .LBE8
/var/folders/rt/4gvqv631095f64jvm7jfj_000000gn/T//ccSnq3HU.s:4829   .debug_loc:00000000000001e3 .LLST15
/var/folders/rt/4gvqv631095f64jvm7jfj_000000gn/T//ccSnq3HU.s:4836   .debug_loc:00000000000001f6 .LLST16
/var/folders/rt/4gvqv631095f64jvm7jfj_000000gn/T//ccSnq3HU.s:4848   .debug_loc:0000000000000216 .LLST17
/var/folders/rt/4gvqv631095f64jvm7jfj_000000gn/T//ccSnq3HU.s:4860   .debug_loc:0000000000000236 .LLST18
/var/folders/rt/4gvqv631095f64jvm7jfj_000000gn/T//ccSnq3HU.s:4871   .debug_loc:0000000000000254 .LLST19
/var/folders/rt/4gvqv631095f64jvm7jfj_000000gn/T//ccSnq3HU.s:4883   .debug_loc:0000000000000274 .LLST20
GAS LISTING /var/folders/rt/4gvqv631095f64jvm7jfj_000000gn/T//ccSnq3HU.s 			page 35


/var/folders/rt/4gvqv631095f64jvm7jfj_000000gn/T//ccSnq3HU.s:4895   .debug_loc:0000000000000294 .LLST21
/var/folders/rt/4gvqv631095f64jvm7jfj_000000gn/T//ccSnq3HU.s:4906   .debug_loc:00000000000002b2 .LLST22
/var/folders/rt/4gvqv631095f64jvm7jfj_000000gn/T//ccSnq3HU.s:4918   .debug_loc:00000000000002d2 .LLST23
/var/folders/rt/4gvqv631095f64jvm7jfj_000000gn/T//ccSnq3HU.s:4929   .debug_loc:00000000000002f0 .LLST24
/var/folders/rt/4gvqv631095f64jvm7jfj_000000gn/T//ccSnq3HU.s:4941   .debug_loc:0000000000000310 .LLST25
/var/folders/rt/4gvqv631095f64jvm7jfj_000000gn/T//ccSnq3HU.s:644    .text.receiveCommands:000000000000018e .LVL49
/var/folders/rt/4gvqv631095f64jvm7jfj_000000gn/T//ccSnq3HU.s:711    .text.receiveCommands:000000000000020e .LVL56
/var/folders/rt/4gvqv631095f64jvm7jfj_000000gn/T//ccSnq3HU.s:720    .text.receiveCommands:0000000000000222 .LVL57
/var/folders/rt/4gvqv631095f64jvm7jfj_000000gn/T//ccSnq3HU.s:728    .text.receiveCommands:0000000000000236 .LVL58
/var/folders/rt/4gvqv631095f64jvm7jfj_000000gn/T//ccSnq3HU.s:740    .text.receiveCommands:000000000000024c .LVL61
/var/folders/rt/4gvqv631095f64jvm7jfj_000000gn/T//ccSnq3HU.s:752    .text.receiveCommands:0000000000000262 .LVL64
/var/folders/rt/4gvqv631095f64jvm7jfj_000000gn/T//ccSnq3HU.s:764    .text.receiveCommands:0000000000000278 .LVL67
/var/folders/rt/4gvqv631095f64jvm7jfj_000000gn/T//ccSnq3HU.s:776    .text.receiveCommands:000000000000028e .LVL70
/var/folders/rt/4gvqv631095f64jvm7jfj_000000gn/T//ccSnq3HU.s:788    .text.receiveCommands:00000000000002a4 .LVL73
/var/folders/rt/4gvqv631095f64jvm7jfj_000000gn/T//ccSnq3HU.s:800    .text.receiveCommands:00000000000002ba .LVL76
/var/folders/rt/4gvqv631095f64jvm7jfj_000000gn/T//ccSnq3HU.s:812    .text.receiveCommands:00000000000002d0 .LVL79
/var/folders/rt/4gvqv631095f64jvm7jfj_000000gn/T//ccSnq3HU.s:824    .text.receiveCommands:00000000000002e6 .LVL82
/var/folders/rt/4gvqv631095f64jvm7jfj_000000gn/T//ccSnq3HU.s:840    .text.receiveCommands:0000000000000306 .LVL84
/var/folders/rt/4gvqv631095f64jvm7jfj_000000gn/T//ccSnq3HU.s:844    .text.receiveCommands:0000000000000310 .LVL85
/var/folders/rt/4gvqv631095f64jvm7jfj_000000gn/T//ccSnq3HU.s:594    .text.receiveCommands:0000000000000122 .LVL42
/var/folders/rt/4gvqv631095f64jvm7jfj_000000gn/T//ccSnq3HU.s:605    .text.receiveCommands:0000000000000138 .LVL44
/var/folders/rt/4gvqv631095f64jvm7jfj_000000gn/T//ccSnq3HU.s:614    .text.receiveCommands:000000000000014c .LVL45
/var/folders/rt/4gvqv631095f64jvm7jfj_000000gn/T//ccSnq3HU.s:622    .text.receiveCommands:000000000000015e .LVL46
/var/folders/rt/4gvqv631095f64jvm7jfj_000000gn/T//ccSnq3HU.s:628    .text.receiveCommands:000000000000016c .LVL47
/var/folders/rt/4gvqv631095f64jvm7jfj_000000gn/T//ccSnq3HU.s:632    .text.receiveCommands:0000000000000176 .LVL48
/var/folders/rt/4gvqv631095f64jvm7jfj_000000gn/T//ccSnq3HU.s:654    .text.receiveCommands:00000000000001a2 .LVL50
/var/folders/rt/4gvqv631095f64jvm7jfj_000000gn/T//ccSnq3HU.s:663    .text.receiveCommands:00000000000001b8 .LVL51
/var/folders/rt/4gvqv631095f64jvm7jfj_000000gn/T//ccSnq3HU.s:671    .text.receiveCommands:00000000000001ca .LVL52
/var/folders/rt/4gvqv631095f64jvm7jfj_000000gn/T//ccSnq3HU.s:676    .text.receiveCommands:00000000000001d4 .LVL53
/var/folders/rt/4gvqv631095f64jvm7jfj_000000gn/T//ccSnq3HU.s:682    .text.receiveCommands:00000000000001e2 .LVL54
/var/folders/rt/4gvqv631095f64jvm7jfj_000000gn/T//ccSnq3HU.s:691    .text.receiveCommands:00000000000001f6 .LVL55
/var/folders/rt/4gvqv631095f64jvm7jfj_000000gn/T//ccSnq3HU.s:857    .text.receiveCommands:0000000000000328 .LVL87
/var/folders/rt/4gvqv631095f64jvm7jfj_000000gn/T//ccSnq3HU.s:868    .text.receiveCommands:0000000000000344 .LVL89
/var/folders/rt/4gvqv631095f64jvm7jfj_000000gn/T//ccSnq3HU.s:876    .text.receiveCommands:000000000000035a .LVL90
/var/folders/rt/4gvqv631095f64jvm7jfj_000000gn/T//ccSnq3HU.s:509    .text.receiveCommands:000000000000008a .LVL32
/var/folders/rt/4gvqv631095f64jvm7jfj_000000gn/T//ccSnq3HU.s:514    .text.receiveCommands:0000000000000094 .LVL33
/var/folders/rt/4gvqv631095f64jvm7jfj_000000gn/T//ccSnq3HU.s:519    .text.receiveCommands:00000000000000a2 .LVL34
/var/folders/rt/4gvqv631095f64jvm7jfj_000000gn/T//ccSnq3HU.s:561    .text.receiveCommands:00000000000000e0 .LVL37
/var/folders/rt/4gvqv631095f64jvm7jfj_000000gn/T//ccSnq3HU.s:462    .text.receiveCommands:0000000000000032 .LVL29
/var/folders/rt/4gvqv631095f64jvm7jfj_000000gn/T//ccSnq3HU.s:472    .text.receiveCommands:000000000000004c .LVL30
/var/folders/rt/4gvqv631095f64jvm7jfj_000000gn/T//ccSnq3HU.s:5487   .debug_str:000000000000075a .LASF165
/var/folders/rt/4gvqv631095f64jvm7jfj_000000gn/T//ccSnq3HU.s:14     .text.jsonAllPlants:0000000000000000 .LFB6
/var/folders/rt/4gvqv631095f64jvm7jfj_000000gn/T//ccSnq3HU.s:342    .text.jsonAllPlants:0000000000000274 .LFE6
/var/folders/rt/4gvqv631095f64jvm7jfj_000000gn/T//ccSnq3HU.s:4948   .debug_loc:0000000000000323 .LLST0
/var/folders/rt/4gvqv631095f64jvm7jfj_000000gn/T//ccSnq3HU.s:4971   .debug_loc:000000000000035d .LLST1
/var/folders/rt/4gvqv631095f64jvm7jfj_000000gn/T//ccSnq3HU.s:5345   .debug_str:00000000000003d8 .LASF166
/var/folders/rt/4gvqv631095f64jvm7jfj_000000gn/T//ccSnq3HU.s:4993   .debug_loc:0000000000000394 .LLST2
/var/folders/rt/4gvqv631095f64jvm7jfj_000000gn/T//ccSnq3HU.s:5015   .debug_loc:00000000000003cb .LLST3
/var/folders/rt/4gvqv631095f64jvm7jfj_000000gn/T//ccSnq3HU.s:5033   .debug_loc:00000000000003f7 .LLST4
/var/folders/rt/4gvqv631095f64jvm7jfj_000000gn/T//ccSnq3HU.s:5311   .debug_str:0000000000000314 .LASF167
/var/folders/rt/4gvqv631095f64jvm7jfj_000000gn/T//ccSnq3HU.s:5055   .debug_loc:000000000000042e .LLST5
/var/folders/rt/4gvqv631095f64jvm7jfj_000000gn/T//ccSnq3HU.s:5076   .debug_loc:0000000000000464 .LLST6
/var/folders/rt/4gvqv631095f64jvm7jfj_000000gn/T//ccSnq3HU.s:127    .text.jsonAllPlants:0000000000000078 .LVL10
/var/folders/rt/4gvqv631095f64jvm7jfj_000000gn/T//ccSnq3HU.s:334    .text.jsonAllPlants:000000000000026c .LVL13
/var/folders/rt/4gvqv631095f64jvm7jfj_000000gn/T//ccSnq3HU.s:59     .text.jsonAllPlants:000000000000002e .LVL2
/var/folders/rt/4gvqv631095f64jvm7jfj_000000gn/T//ccSnq3HU.s:115    .text.jsonAllPlants:0000000000000068 .LVL9
/var/folders/rt/4gvqv631095f64jvm7jfj_000000gn/T//ccSnq3HU.s:5241   .debug_str:00000000000001d0 .LASF168
GAS LISTING /var/folders/rt/4gvqv631095f64jvm7jfj_000000gn/T//ccSnq3HU.s 			page 36


/var/folders/rt/4gvqv631095f64jvm7jfj_000000gn/T//ccSnq3HU.s:5187   .debug_str:00000000000000c4 .LASF169
/var/folders/rt/4gvqv631095f64jvm7jfj_000000gn/T//ccSnq3HU.s:5303   .debug_str:00000000000002f8 .LASF170
/var/folders/rt/4gvqv631095f64jvm7jfj_000000gn/T//ccSnq3HU.s:5371   .debug_str:0000000000000478 .LASF171
/var/folders/rt/4gvqv631095f64jvm7jfj_000000gn/T//ccSnq3HU.s:5227   .debug_str:0000000000000182 .LASF172
/var/folders/rt/4gvqv631095f64jvm7jfj_000000gn/T//ccSnq3HU.s:5451   .debug_str:00000000000005e9 .LASF173
/var/folders/rt/4gvqv631095f64jvm7jfj_000000gn/T//ccSnq3HU.s:5247   .debug_str:00000000000001e8 .LASF174
/var/folders/rt/4gvqv631095f64jvm7jfj_000000gn/T//ccSnq3HU.s:5505   .debug_str:00000000000007b6 .LASF175
/var/folders/rt/4gvqv631095f64jvm7jfj_000000gn/T//ccSnq3HU.s:5449   .debug_str:00000000000005e2 .LASF176
/var/folders/rt/4gvqv631095f64jvm7jfj_000000gn/T//ccSnq3HU.s:5159   .debug_str:000000000000001c .LASF177
/var/folders/rt/4gvqv631095f64jvm7jfj_000000gn/T//ccSnq3HU.s:5231   .debug_str:00000000000001a0 .LASF178
/var/folders/rt/4gvqv631095f64jvm7jfj_000000gn/T//ccSnq3HU.s:5363   .debug_str:000000000000043d .LASF179
/var/folders/rt/4gvqv631095f64jvm7jfj_000000gn/T//ccSnq3HU.s:5165   .debug_str:0000000000000032 .LASF180
/var/folders/rt/4gvqv631095f64jvm7jfj_000000gn/T//ccSnq3HU.s:5167   .debug_str:0000000000000041 .LASF181
/var/folders/rt/4gvqv631095f64jvm7jfj_000000gn/T//ccSnq3HU.s:5323   .debug_str:0000000000000347 .LASF182
/var/folders/rt/4gvqv631095f64jvm7jfj_000000gn/T//ccSnq3HU.s:5479   .debug_str:0000000000000728 .LASF183
/var/folders/rt/4gvqv631095f64jvm7jfj_000000gn/T//ccSnq3HU.s:357    .text.getValue:0000000000000002 .LCFI3
/var/folders/rt/4gvqv631095f64jvm7jfj_000000gn/T//ccSnq3HU.s:410    .text.getValue:0000000000000046 .LCFI4
/var/folders/rt/4gvqv631095f64jvm7jfj_000000gn/T//ccSnq3HU.s:415    .text.getValue:0000000000000048 .LCFI5
/var/folders/rt/4gvqv631095f64jvm7jfj_000000gn/T//ccSnq3HU.s:352    .text.getValue:0000000000000000 .LVL15
/var/folders/rt/4gvqv631095f64jvm7jfj_000000gn/T//ccSnq3HU.s:372    .text.getValue:0000000000000012 .LVL17
/var/folders/rt/4gvqv631095f64jvm7jfj_000000gn/T//ccSnq3HU.s:389    .text.getValue:000000000000002c .LVL20
/var/folders/rt/4gvqv631095f64jvm7jfj_000000gn/T//ccSnq3HU.s:413    .text.getValue:0000000000000048 .LVL25
/var/folders/rt/4gvqv631095f64jvm7jfj_000000gn/T//ccSnq3HU.s:362    .text.getValue:0000000000000008 .LVL16
/var/folders/rt/4gvqv631095f64jvm7jfj_000000gn/T//ccSnq3HU.s:393    .text.getValue:000000000000002e .LVL21
/var/folders/rt/4gvqv631095f64jvm7jfj_000000gn/T//ccSnq3HU.s:399    .text.getValue:0000000000000038 .LVL23
/var/folders/rt/4gvqv631095f64jvm7jfj_000000gn/T//ccSnq3HU.s:419    .text.getValue:000000000000004a .LVL26
/var/folders/rt/4gvqv631095f64jvm7jfj_000000gn/T//ccSnq3HU.s:436    .text.receiveCommands:0000000000000004 .LCFI6
/var/folders/rt/4gvqv631095f64jvm7jfj_000000gn/T//ccSnq3HU.s:547    .text.receiveCommands:00000000000000ca .LCFI7
/var/folders/rt/4gvqv631095f64jvm7jfj_000000gn/T//ccSnq3HU.s:552    .text.receiveCommands:00000000000000cc .LCFI8
/var/folders/rt/4gvqv631095f64jvm7jfj_000000gn/T//ccSnq3HU.s:432    .text.receiveCommands:0000000000000000 .LVL27
/var/folders/rt/4gvqv631095f64jvm7jfj_000000gn/T//ccSnq3HU.s:443    .text.receiveCommands:000000000000000c .LVL28
/var/folders/rt/4gvqv631095f64jvm7jfj_000000gn/T//ccSnq3HU.s:550    .text.receiveCommands:00000000000000cc .LVL36
/var/folders/rt/4gvqv631095f64jvm7jfj_000000gn/T//ccSnq3HU.s:588    .text.receiveCommands:000000000000011a .LVL41
/var/folders/rt/4gvqv631095f64jvm7jfj_000000gn/T//ccSnq3HU.s:596    .text.receiveCommands:0000000000000124 .LVL43
/var/folders/rt/4gvqv631095f64jvm7jfj_000000gn/T//ccSnq3HU.s:860    .text.receiveCommands:000000000000032a .LVL88
/var/folders/rt/4gvqv631095f64jvm7jfj_000000gn/T//ccSnq3HU.s:880    .text.receiveCommands:0000000000000360 .LVL91
/var/folders/rt/4gvqv631095f64jvm7jfj_000000gn/T//ccSnq3HU.s:537    .text.receiveCommands:00000000000000b6 .LVL35
/var/folders/rt/4gvqv631095f64jvm7jfj_000000gn/T//ccSnq3HU.s:487    .text.receiveCommands:000000000000005e .LVL31
/var/folders/rt/4gvqv631095f64jvm7jfj_000000gn/T//ccSnq3HU.s:733    .text.receiveCommands:000000000000023c .LVL59
/var/folders/rt/4gvqv631095f64jvm7jfj_000000gn/T//ccSnq3HU.s:738    .text.receiveCommands:0000000000000244 .LVL60
/var/folders/rt/4gvqv631095f64jvm7jfj_000000gn/T//ccSnq3HU.s:851    .text.receiveCommands:000000000000031e .LVL86
/var/folders/rt/4gvqv631095f64jvm7jfj_000000gn/T//ccSnq3HU.s:745    .text.receiveCommands:0000000000000252 .LVL62
/var/folders/rt/4gvqv631095f64jvm7jfj_000000gn/T//ccSnq3HU.s:750    .text.receiveCommands:000000000000025a .LVL63
/var/folders/rt/4gvqv631095f64jvm7jfj_000000gn/T//ccSnq3HU.s:757    .text.receiveCommands:0000000000000268 .LVL65
/var/folders/rt/4gvqv631095f64jvm7jfj_000000gn/T//ccSnq3HU.s:762    .text.receiveCommands:0000000000000270 .LVL66
/var/folders/rt/4gvqv631095f64jvm7jfj_000000gn/T//ccSnq3HU.s:769    .text.receiveCommands:000000000000027e .LVL68
/var/folders/rt/4gvqv631095f64jvm7jfj_000000gn/T//ccSnq3HU.s:774    .text.receiveCommands:0000000000000286 .LVL69
/var/folders/rt/4gvqv631095f64jvm7jfj_000000gn/T//ccSnq3HU.s:781    .text.receiveCommands:0000000000000294 .LVL71
/var/folders/rt/4gvqv631095f64jvm7jfj_000000gn/T//ccSnq3HU.s:786    .text.receiveCommands:000000000000029c .LVL72
/var/folders/rt/4gvqv631095f64jvm7jfj_000000gn/T//ccSnq3HU.s:793    .text.receiveCommands:00000000000002aa .LVL74
/var/folders/rt/4gvqv631095f64jvm7jfj_000000gn/T//ccSnq3HU.s:798    .text.receiveCommands:00000000000002b2 .LVL75
/var/folders/rt/4gvqv631095f64jvm7jfj_000000gn/T//ccSnq3HU.s:805    .text.receiveCommands:00000000000002c0 .LVL77
/var/folders/rt/4gvqv631095f64jvm7jfj_000000gn/T//ccSnq3HU.s:810    .text.receiveCommands:00000000000002c8 .LVL78
/var/folders/rt/4gvqv631095f64jvm7jfj_000000gn/T//ccSnq3HU.s:817    .text.receiveCommands:00000000000002d6 .LVL80
/var/folders/rt/4gvqv631095f64jvm7jfj_000000gn/T//ccSnq3HU.s:822    .text.receiveCommands:00000000000002de .LVL81
/var/folders/rt/4gvqv631095f64jvm7jfj_000000gn/T//ccSnq3HU.s:835    .text.receiveCommands:00000000000002f8 .LVL83
/var/folders/rt/4gvqv631095f64jvm7jfj_000000gn/T//ccSnq3HU.s:23     .text.jsonAllPlants:0000000000000002 .LCFI0
GAS LISTING /var/folders/rt/4gvqv631095f64jvm7jfj_000000gn/T//ccSnq3HU.s 			page 37


/var/folders/rt/4gvqv631095f64jvm7jfj_000000gn/T//ccSnq3HU.s:111    .text.jsonAllPlants:0000000000000060 .LCFI1
/var/folders/rt/4gvqv631095f64jvm7jfj_000000gn/T//ccSnq3HU.s:117    .text.jsonAllPlants:0000000000000068 .LCFI2
/var/folders/rt/4gvqv631095f64jvm7jfj_000000gn/T//ccSnq3HU.s:18     .text.jsonAllPlants:0000000000000000 .LVL0
/var/folders/rt/4gvqv631095f64jvm7jfj_000000gn/T//ccSnq3HU.s:90     .text.jsonAllPlants:000000000000004c .LVL5
/var/folders/rt/4gvqv631095f64jvm7jfj_000000gn/T//ccSnq3HU.s:87     .text.jsonAllPlants:000000000000004a .LVL4
/var/folders/rt/4gvqv631095f64jvm7jfj_000000gn/T//ccSnq3HU.s:30     .text.jsonAllPlants:000000000000000a .LVL1
/var/folders/rt/4gvqv631095f64jvm7jfj_000000gn/T//ccSnq3HU.s:71     .text.jsonAllPlants:0000000000000038 .LVL3
/var/folders/rt/4gvqv631095f64jvm7jfj_000000gn/T//ccSnq3HU.s:93     .text.jsonAllPlants:000000000000004e .LVL6
/var/folders/rt/4gvqv631095f64jvm7jfj_000000gn/T//ccSnq3HU.s:100    .text.jsonAllPlants:0000000000000054 .LVL7
/var/folders/rt/4gvqv631095f64jvm7jfj_000000gn/T//ccSnq3HU.s:103    .text.jsonAllPlants:0000000000000056 .LVL8
/var/folders/rt/4gvqv631095f64jvm7jfj_000000gn/T//ccSnq3HU.s:146    .text.jsonAllPlants:0000000000000092 .LVL12
/var/folders/rt/4gvqv631095f64jvm7jfj_000000gn/T//ccSnq3HU.s:337    .text.jsonAllPlants:000000000000026e .LVL14
/var/folders/rt/4gvqv631095f64jvm7jfj_000000gn/T//ccSnq3HU.s:991    .debug_info:0000000000000000 .Ldebug_info0
/var/folders/rt/4gvqv631095f64jvm7jfj_000000gn/T//ccSnq3HU.s:53     .text.jsonAllPlants:0000000000000024 .LBB2
/var/folders/rt/4gvqv631095f64jvm7jfj_000000gn/T//ccSnq3HU.s:56     .text.jsonAllPlants:0000000000000026 .LBE2
/var/folders/rt/4gvqv631095f64jvm7jfj_000000gn/T//ccSnq3HU.s:61     .text.jsonAllPlants:000000000000002e .LBB3
/var/folders/rt/4gvqv631095f64jvm7jfj_000000gn/T//ccSnq3HU.s:63     .text.jsonAllPlants:000000000000002e .LBE3
/var/folders/rt/4gvqv631095f64jvm7jfj_000000gn/T//ccSnq3HU.s:66     .text.jsonAllPlants:0000000000000030 .LBB4
/var/folders/rt/4gvqv631095f64jvm7jfj_000000gn/T//ccSnq3HU.s:77     .text.jsonAllPlants:0000000000000044 .LBE4
/var/folders/rt/4gvqv631095f64jvm7jfj_000000gn/T//ccSnq3HU.s:119    .text.jsonAllPlants:0000000000000068 .LBB5
/var/folders/rt/4gvqv631095f64jvm7jfj_000000gn/T//ccSnq3HU.s:340    .text.jsonAllPlants:0000000000000274 .LBE5
/var/folders/rt/4gvqv631095f64jvm7jfj_000000gn/T//ccSnq3HU.s:474    .text.receiveCommands:000000000000004c .LBB6
/var/folders/rt/4gvqv631095f64jvm7jfj_000000gn/T//ccSnq3HU.s:526    .text.receiveCommands:00000000000000a6 .LBE6
/var/folders/rt/4gvqv631095f64jvm7jfj_000000gn/T//ccSnq3HU.s:554    .text.receiveCommands:00000000000000cc .LBB11
/var/folders/rt/4gvqv631095f64jvm7jfj_000000gn/T//ccSnq3HU.s:887    .text.receiveCommands:0000000000000364 .LBE11
/var/folders/rt/4gvqv631095f64jvm7jfj_000000gn/T//ccSnq3HU.s:639    .text.receiveCommands:0000000000000182 .LBB9
/var/folders/rt/4gvqv631095f64jvm7jfj_000000gn/T//ccSnq3HU.s:645    .text.receiveCommands:000000000000018e .LBE9
/var/folders/rt/4gvqv631095f64jvm7jfj_000000gn/T//ccSnq3HU.s:694    .text.receiveCommands:00000000000001fa .LBB10
/var/folders/rt/4gvqv631095f64jvm7jfj_000000gn/T//ccSnq3HU.s:853    .text.receiveCommands:000000000000031e .LBE10

UNDEFINED SYMBOLS
snprintf
sprintf
strstr
strlen
atoi
LCD_Clear
LCD_ShowStr
commandBufferIndex
commandBuffer
strcmp
renderAllPlants
putstr
sscanf
T1setPWMch0
gpio_output_bit_get
gpio_bit_reset
gpio_bit_set
initPlant
