GAS LISTING /var/folders/rt/4gvqv631095f64jvm7jfj_000000gn/T//ccCRPL0F.s 			page 1


   1              		.file	"wifiServices.c"
   2              		.option nopic
   3              		.attribute arch, "rv32i2p0_m2p0_a2p0_c2p0"
   4              		.attribute unaligned_access, 0
   5              		.attribute stack_align, 16
   6              		.text
   7              	.Ltext0:
   8              		.cfi_sections	.debug_frame
   9              		.section	.text.jsonAllPlants,"ax",@progbits
  10              		.align	1
  11              		.globl	jsonAllPlants
  13              	jsonAllPlants:
  14              	.LFB2:
  15              		.file 1 "wifiServices.c"
   1:wifiServices.c **** #include "lcd.h"
   2:wifiServices.c **** #include "plant.h"
   3:wifiServices.c **** #include "usart.h"
   4:wifiServices.c **** 
   5:wifiServices.c **** void jsonAllPlants(char *out, size_t outSize, Plant allPlants[], int numberOfPlants)
   6:wifiServices.c **** {
  16              		.loc 1 6 1
  17              		.cfi_startproc
  18              	.LVL0:
   7:wifiServices.c ****   int currentIndex = 0;
  19              		.loc 1 7 3
   8:wifiServices.c ****   currentIndex += snprintf(out + currentIndex, outSize - currentIndex, "[");
  20              		.loc 1 8 3
   6:wifiServices.c ****   int currentIndex = 0;
  21              		.loc 1 6 1 is_stmt 0
  22 0000 3971     		addi	sp,sp,-64
  23              	.LCFI0:
  24              		.cfi_def_cfa_offset 64
  25 0002 22DC     		sw	s0,56(sp)
  26              		.cfi_offset 8, -8
  27 0004 3284     		mv	s0,a2
  28              		.loc 1 8 19
  29 0006 37060000 		lui	a2,%hi(.LC0)
  30              	.LVL1:
  31 000a 13060600 		addi	a2,a2,%lo(.LC0)
   6:wifiServices.c ****   int currentIndex = 0;
  32              		.loc 1 6 1
  33 000e 26DA     		sw	s1,52(sp)
  34 0010 4AD8     		sw	s2,48(sp)
  35 0012 4ED6     		sw	s3,44(sp)
  36 0014 52D4     		sw	s4,40(sp)
  37 0016 56D2     		sw	s5,36(sp)
  38 0018 5AD0     		sw	s6,32(sp)
  39 001a 5ECE     		sw	s7,28(sp)
  40 001c 62CC     		sw	s8,24(sp)
  41 001e 06DE     		sw	ra,60(sp)
  42              		.cfi_offset 9, -12
  43              		.cfi_offset 18, -16
  44              		.cfi_offset 19, -20
  45              		.cfi_offset 20, -24
  46              		.cfi_offset 21, -28
  47              		.cfi_offset 22, -32
  48              		.cfi_offset 23, -36
GAS LISTING /var/folders/rt/4gvqv631095f64jvm7jfj_000000gn/T//ccCRPL0F.s 			page 2


  49              		.cfi_offset 24, -40
  50              		.cfi_offset 1, -4
   6:wifiServices.c ****   int currentIndex = 0;
  51              		.loc 1 6 1
  52 0020 AA89     		mv	s3,a0
  53 0022 2E89     		mv	s2,a1
  54 0024 368A     		mv	s4,a3
  55              	.LBB2:
   9:wifiServices.c ****   for (int i = 0; i < numberOfPlants; i++)
  56              		.loc 1 9 12
  57 0026 014C     		li	s8,0
  58              	.LBE2:
   8:wifiServices.c ****   currentIndex += snprintf(out + currentIndex, outSize - currentIndex, "[");
  59              		.loc 1 8 19
  60 0028 97000000 		call	snprintf
  60      E7800000 
  61              	.LVL2:
  62              		.loc 1 9 3 is_stmt 1
  63              	.LBB3:
  64              		.loc 1 9 8
  65              	.LBE3:
   8:wifiServices.c ****   currentIndex += snprintf(out + currentIndex, outSize - currentIndex, "[");
  66              		.loc 1 8 16 is_stmt 0
  67 0030 8544     		li	s1,1
  68              	.LBB4:
  10:wifiServices.c ****   {
  11:wifiServices.c ****     if (i > 0)
  12:wifiServices.c ****     {
  13:wifiServices.c ****       currentIndex += snprintf(out + currentIndex, outSize - currentIndex, ",");
  69              		.loc 1 13 23
  70 0032 B70A0000 		lui	s5,%hi(.LC1)
  14:wifiServices.c ****     }
  15:wifiServices.c **** 
  16:wifiServices.c ****     currentIndex += snprintf(out + currentIndex, outSize - currentIndex,
  71              		.loc 1 16 21
  72 0036 370B0000 		lui	s6,%hi(.LC2)
  73 003a B70B0000 		lui	s7,%hi(.LC3)
  74              	.LVL3:
  75              	.L2:
  76 003e 33859900 		add	a0,s3,s1
  77 0042 B3059940 		sub	a1,s2,s1
   9:wifiServices.c ****   {
  78              		.loc 1 9 3 discriminator 1
  79 0046 63454C03 		blt	s8,s4,.L4
  80              	.LBE4:
  17:wifiServices.c ****                              "{\"name\":\"%s\","
  18:wifiServices.c ****                              "\"status\":\"%s\","
  19:wifiServices.c ****                              "\"currentSun\":%d,"
  20:wifiServices.c ****                              "\"currentMoisture\":%d",
  21:wifiServices.c ****                              "\"currentTemp\":%d}",
  22:wifiServices.c ****                              allPlants[i].name,
  23:wifiServices.c ****                              allPlants[i].currentStatus,
  24:wifiServices.c ****                              allPlants[i].sun[allPlants[i].numberOfSunReadings - 1].reading,
  25:wifiServices.c ****                              allPlants[i].moisture[allPlants[i].numberOfMoistureReadings - 1].readi
  26:wifiServices.c ****                               allPlants[i].temp[allPlants[i].numberOfTempReadings - 1].reading
  27:wifiServices.c ****     );
  28:wifiServices.c ****   }
GAS LISTING /var/folders/rt/4gvqv631095f64jvm7jfj_000000gn/T//ccCRPL0F.s 			page 3


  29:wifiServices.c ****   snprintf(out + currentIndex, outSize - currentIndex, "]\n");
  81              		.loc 1 29 3 is_stmt 1
  30:wifiServices.c **** }
  82              		.loc 1 30 1 is_stmt 0
  83 004a 6254     		lw	s0,56(sp)
  84              		.cfi_remember_state
  85              		.cfi_restore 8
  86 004c F250     		lw	ra,60(sp)
  87              		.cfi_restore 1
  88 004e D254     		lw	s1,52(sp)
  89              		.cfi_restore 9
  90              	.LVL4:
  91 0050 4259     		lw	s2,48(sp)
  92              		.cfi_restore 18
  93              	.LVL5:
  94 0052 B259     		lw	s3,44(sp)
  95              		.cfi_restore 19
  96              	.LVL6:
  97 0054 225A     		lw	s4,40(sp)
  98              		.cfi_restore 20
  99              	.LVL7:
 100 0056 925A     		lw	s5,36(sp)
 101              		.cfi_restore 21
 102 0058 025B     		lw	s6,32(sp)
 103              		.cfi_restore 22
 104 005a F24B     		lw	s7,28(sp)
 105              		.cfi_restore 23
 106 005c 624C     		lw	s8,24(sp)
 107              		.cfi_restore 24
 108              	.LVL8:
  29:wifiServices.c **** }
 109              		.loc 1 29 3
 110 005e 37060000 		lui	a2,%hi(.LC4)
 111              		.loc 1 30 1
  29:wifiServices.c **** }
 112              		.loc 1 29 3
 113 0062 13060600 		addi	a2,a2,%lo(.LC4)
 114              		.loc 1 30 1
 115 0066 2161     		addi	sp,sp,64
 116              	.LCFI1:
 117              		.cfi_def_cfa_offset 0
  29:wifiServices.c **** }
 118              		.loc 1 29 3
 119 0068 17030000 		tail	snprintf
 119      67000300 
 120              	.LVL9:
 121              	.L4:
 122              	.LCFI2:
 123              		.cfi_restore_state
 124              	.LBB5:
  11:wifiServices.c ****     {
 125              		.loc 1 11 5 is_stmt 1
  11:wifiServices.c ****     {
 126              		.loc 1 11 8 is_stmt 0
 127 0070 63598001 		ble	s8,zero,.L3
  13:wifiServices.c ****     }
 128              		.loc 1 13 7 is_stmt 1
GAS LISTING /var/folders/rt/4gvqv631095f64jvm7jfj_000000gn/T//ccCRPL0F.s 			page 4


  13:wifiServices.c ****     }
 129              		.loc 1 13 23 is_stmt 0
 130 0074 13860A00 		addi	a2,s5,%lo(.LC1)
 131 0078 97000000 		call	snprintf
 131      E7800000 
 132              	.LVL10:
  13:wifiServices.c ****     }
 133              		.loc 1 13 20
 134 0080 8504     		addi	s1,s1,1
 135              	.LVL11:
 136              	.L3:
  16:wifiServices.c ****                              "{\"name\":\"%s\","
 137              		.loc 1 16 5 is_stmt 1 discriminator 2
  16:wifiServices.c ****                              "{\"name\":\"%s\","
 138              		.loc 1 16 21 is_stmt 0 discriminator 2
 139 0082 83270432 		lw	a5,800(s0)
 140 0086 2287     		mv	a4,s0
 141 0088 B3059940 		sub	a1,s2,s1
 142 008c 8D07     		addi	a5,a5,3
 143 008e 8E07     		slli	a5,a5,3
 144 0090 A297     		add	a5,s0,a5
 145 0092 83A84700 		lw	a7,4(a5)
 146 0096 83274432 		lw	a5,804(s0)
 147 009a 33859900 		add	a0,s3,s1
 148 009e 93060B00 		addi	a3,s6,%lo(.LC2)
 149 00a2 ED07     		addi	a5,a5,27
 150 00a4 8E07     		slli	a5,a5,3
 151 00a6 A297     		add	a5,s0,a5
 152 00a8 03A84700 		lw	a6,4(a5)
 153 00ac 83278432 		lw	a5,808(s0)
 154 00b0 13860B00 		addi	a2,s7,%lo(.LC3)
   9:wifiServices.c ****   {
 155              		.loc 1 9 40 discriminator 2
 156 00b4 050C     		addi	s8,s8,1
 157              	.LVL12:
  16:wifiServices.c ****                              "{\"name\":\"%s\","
 158              		.loc 1 16 21 discriminator 2
 159 00b6 9387B704 		addi	a5,a5,75
 160 00ba 8E07     		slli	a5,a5,3
 161 00bc A297     		add	a5,s0,a5
 162 00be DC43     		lw	a5,4(a5)
 163 00c0 3EC0     		sw	a5,0(sp)
 164 00c2 9307F400 		addi	a5,s0,15
 165 00c6 97000000 		call	snprintf
 165      E7800000 
 166              	.LVL13:
  16:wifiServices.c ****                              "{\"name\":\"%s\","
 167              		.loc 1 16 18 discriminator 2
 168 00ce AA94     		add	s1,s1,a0
 169              	.LVL14:
 170 00d0 1304044D 		addi	s0,s0,1232
 171 00d4 ADB7     		j	.L2
 172              	.LBE5:
 173              		.cfi_endproc
 174              	.LFE2:
 176              		.section	.text.receiveCommands,"ax",@progbits
 177              		.align	1
GAS LISTING /var/folders/rt/4gvqv631095f64jvm7jfj_000000gn/T//ccCRPL0F.s 			page 5


 178              		.globl	receiveCommands
 180              	receiveCommands:
 181              	.LFB3:
  31:wifiServices.c **** 
  32:wifiServices.c **** void receiveCommands(Plant allPlants[], int *numberOfPlants)
  33:wifiServices.c **** {
 182              		.loc 1 33 1 is_stmt 1
 183              		.cfi_startproc
 184              	.LVL15:
  34:wifiServices.c ****   LCD_Clear(BLACK);
 185              		.loc 1 34 3
  33:wifiServices.c ****   LCD_Clear(BLACK);
 186              		.loc 1 33 1 is_stmt 0
 187 0000 130101DE 		addi	sp,sp,-544
 188              	.LCFI3:
 189              		.cfi_def_cfa_offset 544
 190 0004 232A9120 		sw	s1,532(sp)
 191              		.cfi_offset 9, -12
 192 0008 AA84     		mv	s1,a0
 193              		.loc 1 34 3
 194 000a 0145     		li	a0,0
 195              	.LVL16:
  33:wifiServices.c ****   LCD_Clear(BLACK);
 196              		.loc 1 33 1
 197 000c 232E1120 		sw	ra,540(sp)
 198 0010 232C8120 		sw	s0,536(sp)
 199 0014 23282121 		sw	s2,528(sp)
 200 0018 23263121 		sw	s3,524(sp)
 201              		.cfi_offset 1, -4
 202              		.cfi_offset 8, -8
 203              		.cfi_offset 18, -16
 204              		.cfi_offset 19, -20
  33:wifiServices.c ****   LCD_Clear(BLACK);
 205              		.loc 1 33 1
 206 001c 2E89     		mv	s2,a1
 207              		.loc 1 34 3
 208 001e 97000000 		call	LCD_Clear
 208      E7800000 
 209              	.LVL17:
  35:wifiServices.c ****   LCD_ShowStr(0, 0, "in receive commands", WHITE, TRANSPARENT);
 210              		.loc 1 35 3 is_stmt 1
 211 0026 C166     		li	a3,65536
 212 0028 37060000 		lui	a2,%hi(.LC5)
 213 002c 0547     		li	a4,1
 214 002e 13060600 		addi	a2,a2,%lo(.LC5)
 215 0032 8145     		li	a1,0
 216 0034 FD16     		addi	a3,a3,-1
 217 0036 0145     		li	a0,0
 218 0038 97000000 		call	LCD_ShowStr
 218      E7800000 
 219              	.LVL18:
  36:wifiServices.c ****   for (int j = 0; j < commandBufferIndex; j++)
 220              		.loc 1 36 3
 221              	.LBB6:
 222              		.loc 1 36 8
 223              		.loc 1 36 21 is_stmt 0
 224 0040 37070000 		lui	a4,%hi(commandBufferIndex)
GAS LISTING /var/folders/rt/4gvqv631095f64jvm7jfj_000000gn/T//ccCRPL0F.s 			page 6


  37:wifiServices.c ****   {
  38:wifiServices.c ****     if (commandBuffer[j] == '\n')
 225              		.loc 1 38 22
 226 0044 37040000 		lui	s0,%hi(commandBuffer)
  36:wifiServices.c ****   for (int j = 0; j < commandBufferIndex; j++)
 227              		.loc 1 36 12
 228 0048 8147     		li	a5,0
 229 004a BA89     		mv	s3,a4
 230              		.loc 1 38 22
 231 004c 13060400 		addi	a2,s0,%lo(commandBuffer)
 232              		.loc 1 38 8
 233 0050 A945     		li	a1,10
 234              	.LVL19:
 235              	.L7:
  36:wifiServices.c ****   for (int j = 0; j < commandBufferIndex; j++)
 236              		.loc 1 36 21 discriminator 1
 237 0052 83260700 		lw	a3,%lo(commandBufferIndex)(a4)
  36:wifiServices.c ****   for (int j = 0; j < commandBufferIndex; j++)
 238              		.loc 1 36 3 discriminator 1
 239 0056 63D2D704 		ble	a3,a5,.L6
 240              		.loc 1 38 5 is_stmt 1
 241              		.loc 1 38 22 is_stmt 0
 242 005a B306F600 		add	a3,a2,a5
 243 005e 03C50600 		lbu	a0,0(a3)
 244              		.loc 1 38 8
 245 0062 6396A50E 		bne	a1,a0,.L8
  39:wifiServices.c ****     {
  40:wifiServices.c ****       commandBuffer[j] = '\0';
 246              		.loc 1 40 7 is_stmt 1
 247              	.LBB7:
  41:wifiServices.c ****       if (!strcmp((char *)commandBuffer, "renderAllPlants"))
 248              		.loc 1 41 12 is_stmt 0
 249 0066 B7050000 		lui	a1,%hi(.LC6)
 250 006a 93850500 		addi	a1,a1,%lo(.LC6)
 251 006e 13050400 		addi	a0,s0,%lo(commandBuffer)
 252              	.LBE7:
  40:wifiServices.c ****       if (!strcmp((char *)commandBuffer, "renderAllPlants"))
 253              		.loc 1 40 24
 254 0072 23800600 		sb	zero,0(a3)
 255              		.loc 1 41 7 is_stmt 1
 256              	.LBB10:
 257              		.loc 1 41 12 is_stmt 0
 258 0076 97000000 		call	strcmp
 258      E7800000 
 259              	.LVL20:
 260              		.loc 1 41 10
 261 007e 1DE9     		bne	a0,zero,.L9
 262              	.LBB8:
  42:wifiServices.c ****       {
  43:wifiServices.c ****         LCD_Clear(BLACK);
 263              		.loc 1 43 9 is_stmt 1
 264 0080 97000000 		call	LCD_Clear
 264      E7800000 
 265              	.LVL21:
  44:wifiServices.c ****         renderAllPlants(allPlants, *numberOfPlants);
 266              		.loc 1 44 9
 267 0088 83250900 		lw	a1,0(s2)
GAS LISTING /var/folders/rt/4gvqv631095f64jvm7jfj_000000gn/T//ccCRPL0F.s 			page 7


 268 008c 2685     		mv	a0,s1
 269 008e 97000000 		call	renderAllPlants
 269      E7800000 
 270              	.LVL22:
 271              	.L10:
 272              	.LBE8:
 273              	.LBE10:
  45:wifiServices.c ****       }
  46:wifiServices.c **** 
  47:wifiServices.c ****       else if (!strcmp((char *)commandBuffer, "getAllPlants"))
  48:wifiServices.c ****       {
  49:wifiServices.c ****         LCD_Clear(BLACK);
  50:wifiServices.c ****         LCD_ShowStr(0, 0, "transmit in session", WHITE, TRANSPARENT);
  51:wifiServices.c **** 
  52:wifiServices.c ****         char data[512];
  53:wifiServices.c ****         jsonAllPlants(data, sizeof(data), allPlants, *numberOfPlants);
  54:wifiServices.c ****         putstr(data);
  55:wifiServices.c ****       }
  56:wifiServices.c **** 
  57:wifiServices.c ****       else
  58:wifiServices.c ****       {
  59:wifiServices.c ****         LCD_Clear(BLACK);
  60:wifiServices.c ****         LCD_ShowStr(0, 0, "BAD COMMAND:", WHITE, TRANSPARENT);
  61:wifiServices.c ****         LCD_ShowStr(0, 13, (char *)commandBuffer, WHITE, TRANSPARENT);
  62:wifiServices.c ****         putstr((char *)commandBuffer);
  63:wifiServices.c ****       }
  64:wifiServices.c ****       commandBufferIndex = 0;
 274              		.loc 1 64 7
 275              		.loc 1 64 26 is_stmt 0
 276 0096 23A00900 		sw	zero,%lo(commandBufferIndex)(s3)
  65:wifiServices.c ****       break;
 277              		.loc 1 65 7 is_stmt 1
 278              	.L6:
 279              	.LBE6:
  66:wifiServices.c ****     }
  67:wifiServices.c ****   }
  68:wifiServices.c **** }
 280              		.loc 1 68 1 is_stmt 0
 281 009a 8320C121 		lw	ra,540(sp)
 282              		.cfi_remember_state
 283              		.cfi_restore 1
 284 009e 03248121 		lw	s0,536(sp)
 285              		.cfi_restore 8
 286 00a2 83244121 		lw	s1,532(sp)
 287              		.cfi_restore 9
 288 00a6 03290121 		lw	s2,528(sp)
 289              		.cfi_restore 18
 290              	.LVL23:
 291 00aa 8329C120 		lw	s3,524(sp)
 292              		.cfi_restore 19
 293 00ae 13010122 		addi	sp,sp,544
 294              	.LCFI4:
 295              		.cfi_def_cfa_offset 0
 296 00b2 8280     		jr	ra
 297              	.LVL24:
 298              	.L9:
 299              	.LCFI5:
GAS LISTING /var/folders/rt/4gvqv631095f64jvm7jfj_000000gn/T//ccCRPL0F.s 			page 8


 300              		.cfi_restore_state
 301              	.LBB12:
 302              	.LBB11:
  47:wifiServices.c ****       {
 303              		.loc 1 47 12 is_stmt 1
  47:wifiServices.c ****       {
 304              		.loc 1 47 17 is_stmt 0
 305 00b4 B7050000 		lui	a1,%hi(.LC7)
 306 00b8 93850500 		addi	a1,a1,%lo(.LC7)
 307 00bc 13050400 		addi	a0,s0,%lo(commandBuffer)
 308 00c0 97000000 		call	strcmp
 308      E7800000 
 309              	.LVL25:
  47:wifiServices.c ****       {
 310              		.loc 1 47 15
 311 00c8 31E1     		bne	a0,zero,.L11
 312              	.LBB9:
  49:wifiServices.c ****         LCD_ShowStr(0, 0, "transmit in session", WHITE, TRANSPARENT);
 313              		.loc 1 49 9 is_stmt 1
 314 00ca 97000000 		call	LCD_Clear
 314      E7800000 
 315              	.LVL26:
  50:wifiServices.c **** 
 316              		.loc 1 50 9
 317 00d2 C166     		li	a3,65536
 318 00d4 37060000 		lui	a2,%hi(.LC8)
 319 00d8 0547     		li	a4,1
 320 00da FD16     		addi	a3,a3,-1
 321 00dc 13060600 		addi	a2,a2,%lo(.LC8)
 322 00e0 8145     		li	a1,0
 323 00e2 0145     		li	a0,0
 324 00e4 97000000 		call	LCD_ShowStr
 324      E7800000 
 325              	.LVL27:
  52:wifiServices.c ****         jsonAllPlants(data, sizeof(data), allPlants, *numberOfPlants);
 326              		.loc 1 52 9
  53:wifiServices.c ****         putstr(data);
 327              		.loc 1 53 9
 328 00ec 83260900 		lw	a3,0(s2)
 329 00f0 0A85     		mv	a0,sp
 330 00f2 2686     		mv	a2,s1
 331 00f4 93050020 		li	a1,512
 332 00f8 97000000 		call	jsonAllPlants
 332      E7800000 
 333              	.LVL28:
  54:wifiServices.c ****       }
 334              		.loc 1 54 9
 335 0100 0A85     		mv	a0,sp
 336              	.LVL29:
 337              	.L15:
 338              	.LBE9:
  62:wifiServices.c ****       }
 339              		.loc 1 62 9 is_stmt 0
 340 0102 97000000 		call	putstr
 340      E7800000 
 341              	.LVL30:
 342 010a 71B7     		j	.L10
GAS LISTING /var/folders/rt/4gvqv631095f64jvm7jfj_000000gn/T//ccCRPL0F.s 			page 9


 343              	.LVL31:
 344              	.L11:
  59:wifiServices.c ****         LCD_ShowStr(0, 0, "BAD COMMAND:", WHITE, TRANSPARENT);
 345              		.loc 1 59 9 is_stmt 1
 346 010c 0145     		li	a0,0
 347 010e 97000000 		call	LCD_Clear
 347      E7800000 
 348              	.LVL32:
  60:wifiServices.c ****         LCD_ShowStr(0, 13, (char *)commandBuffer, WHITE, TRANSPARENT);
 349              		.loc 1 60 9
 350 0116 C164     		li	s1,65536
 351              	.LVL33:
 352 0118 37060000 		lui	a2,%hi(.LC9)
 353 011c 0547     		li	a4,1
 354 011e 9386F4FF 		addi	a3,s1,-1
 355 0122 13060600 		addi	a2,a2,%lo(.LC9)
 356 0126 8145     		li	a1,0
 357 0128 0145     		li	a0,0
 358 012a 97000000 		call	LCD_ShowStr
 358      E7800000 
 359              	.LVL34:
  61:wifiServices.c ****         putstr((char *)commandBuffer);
 360              		.loc 1 61 9
 361 0132 0145     		li	a0,0
 362 0134 0547     		li	a4,1
 363 0136 9386F4FF 		addi	a3,s1,-1
 364 013a 13060400 		addi	a2,s0,%lo(commandBuffer)
 365 013e B545     		li	a1,13
 366 0140 97000000 		call	LCD_ShowStr
 366      E7800000 
 367              	.LVL35:
  62:wifiServices.c ****       }
 368              		.loc 1 62 9
 369 0148 13050400 		addi	a0,s0,%lo(commandBuffer)
 370 014c 5DBF     		j	.L15
 371              	.LVL36:
 372              	.L8:
 373              	.LBE11:
  36:wifiServices.c ****   {
 374              		.loc 1 36 44 is_stmt 0 discriminator 2
 375 014e 8507     		addi	a5,a5,1
 376              	.LVL37:
 377 0150 09B7     		j	.L7
 378              	.LBE12:
 379              		.cfi_endproc
 380              	.LFE3:
 382              		.section	.rodata.jsonAllPlants.str1.4,"aMS",@progbits,1
 383              		.align	2
 384              	.LC0:
 385 0000 5B00     		.string	"["
 386 0002 0000     		.zero	2
 387              	.LC1:
 388 0004 2C00     		.string	","
 389 0006 0000     		.zero	2
 390              	.LC2:
 391 0008 22637572 		.string	"\"currentTemp\":%d}"
 391      72656E74 
GAS LISTING /var/folders/rt/4gvqv631095f64jvm7jfj_000000gn/T//ccCRPL0F.s 			page 10


 391      54656D70 
 391      223A2564 
 391      7D00
 392 001a 0000     		.zero	2
 393              	.LC3:
 394 001c 7B226E61 		.string	"{\"name\":\"%s\",\"status\":\"%s\",\"currentSun\":%d,\"currentMoisture\":%d"
 394      6D65223A 
 394      22257322 
 394      2C227374 
 394      61747573 
 395              	.LC4:
 396 005c 5D0A00   		.string	"]\n"
 397              		.section	.rodata.receiveCommands.str1.4,"aMS",@progbits,1
 398              		.align	2
 399              	.LC5:
 400 0000 696E2072 		.string	"in receive commands"
 400      65636569 
 400      76652063 
 400      6F6D6D61 
 400      6E647300 
 401              	.LC6:
 402 0014 72656E64 		.string	"renderAllPlants"
 402      6572416C 
 402      6C506C61 
 402      6E747300 
 403              	.LC7:
 404 0024 67657441 		.string	"getAllPlants"
 404      6C6C506C 
 404      616E7473 
 404      00
 405 0031 000000   		.zero	3
 406              	.LC8:
 407 0034 7472616E 		.string	"transmit in session"
 407      736D6974 
 407      20696E20 
 407      73657373 
 407      696F6E00 
 408              	.LC9:
 409 0048 42414420 		.string	"BAD COMMAND:"
 409      434F4D4D 
 409      414E443A 
 409      00
 410              		.text
 411              	.Letext0:
 412              		.file 2 "/Users/alexstrae/toolchain-gd32v-v202-osx/compiler/lib/gcc/riscv64-unknown-elf/8.3.0/incl
 413              		.file 3 "/Users/alexstrae/toolchain-gd32v-v202-osx/compiler/riscv64-unknown-elf/include/machine/_d
 414              		.file 4 "/Users/alexstrae/toolchain-gd32v-v202-osx/compiler/riscv64-unknown-elf/include/sys/_types
 415              		.file 5 "/Users/alexstrae/toolchain-gd32v-v202-osx/compiler/riscv64-unknown-elf/include/sys/reent.
 416              		.file 6 "/Users/alexstrae/toolchain-gd32v-v202-osx/compiler/riscv64-unknown-elf/include/sys/lock.h
 417              		.file 7 "/Users/alexstrae/toolchain-gd32v-v202-osx/compiler/riscv64-unknown-elf/include/stdlib.h"
 418              		.file 8 "/Users/alexstrae/toolchain-gd32v-v202-osx/compiler/riscv64-unknown-elf/include/sys/_stdin
 419              		.file 9 "../../firmware/GD32VF103_standard_peripheral/system_gd32vf103.h"
 420              		.file 10 "lcd.h"
 421              		.file 11 "plant.h"
 422              		.file 12 "usart.h"
 423              		.file 13 "<built-in>"
GAS LISTING /var/folders/rt/4gvqv631095f64jvm7jfj_000000gn/T//ccCRPL0F.s 			page 11

