GAS LISTING /var/folders/rt/4gvqv631095f64jvm7jfj_000000gn/T//ccP1ODyl.s 			page 1


   1              		.file	"wifiServices.c"
   2              		.option nopic
   3              		.attribute arch, "rv32i2p0_m2p0_a2p0_c2p0"
   4              		.attribute unaligned_access, 0
   5              		.attribute stack_align, 16
   6              		.text
   7              	.Ltext0:
   8              		.cfi_sections	.debug_frame
   9              		.section	.text.jsonAllPlants,"ax",@progbits
  10              		.align	1
  11              		.globl	jsonAllPlants
  13              	jsonAllPlants:
  14              	.LFB6:
  15              		.file 1 "wifiServices.c"
   1:wifiServices.c **** #include "lcd.h"
   2:wifiServices.c **** #include "plant.h"
   3:wifiServices.c **** #include "usart.h"
   4:wifiServices.c **** #include "wifiServices.h"
   5:wifiServices.c **** #include <stdio.h>
   6:wifiServices.c **** #include <string.h>
   7:wifiServices.c **** #include "renderPlants.h"
   8:wifiServices.c **** 
   9:wifiServices.c **** void jsonAllPlants(char *out, size_t outSize, Plant allPlants[], int numberOfPlants)
  10:wifiServices.c **** {
  16              		.loc 1 10 1
  17              		.cfi_startproc
  18              	.LVL0:
  11:wifiServices.c ****   int currentIndex = 0;
  19              		.loc 1 11 3
  12:wifiServices.c ****   currentIndex += snprintf(out + currentIndex, outSize - currentIndex, "[");
  20              		.loc 1 12 3
  10:wifiServices.c ****   int currentIndex = 0;
  21              		.loc 1 10 1 is_stmt 0
  22 0000 3971     		addi	sp,sp,-64
  23              	.LCFI0:
  24              		.cfi_def_cfa_offset 64
  25 0002 22DC     		sw	s0,56(sp)
  26              		.cfi_offset 8, -8
  27 0004 3284     		mv	s0,a2
  28              		.loc 1 12 19
  29 0006 37060000 		lui	a2,%hi(.LC0)
  30              	.LVL1:
  31 000a 13060600 		addi	a2,a2,%lo(.LC0)
  10:wifiServices.c ****   int currentIndex = 0;
  32              		.loc 1 10 1
  33 000e 26DA     		sw	s1,52(sp)
  34 0010 4AD8     		sw	s2,48(sp)
  35 0012 4ED6     		sw	s3,44(sp)
  36 0014 52D4     		sw	s4,40(sp)
  37 0016 56D2     		sw	s5,36(sp)
  38 0018 5AD0     		sw	s6,32(sp)
  39 001a 5ECE     		sw	s7,28(sp)
  40 001c 62CC     		sw	s8,24(sp)
  41 001e 06DE     		sw	ra,60(sp)
  42              		.cfi_offset 9, -12
  43              		.cfi_offset 18, -16
  44              		.cfi_offset 19, -20
GAS LISTING /var/folders/rt/4gvqv631095f64jvm7jfj_000000gn/T//ccP1ODyl.s 			page 2


  45              		.cfi_offset 20, -24
  46              		.cfi_offset 21, -28
  47              		.cfi_offset 22, -32
  48              		.cfi_offset 23, -36
  49              		.cfi_offset 24, -40
  50              		.cfi_offset 1, -4
  10:wifiServices.c ****   int currentIndex = 0;
  51              		.loc 1 10 1
  52 0020 AA89     		mv	s3,a0
  53 0022 2E89     		mv	s2,a1
  54 0024 368A     		mv	s4,a3
  55              	.LBB2:
  13:wifiServices.c ****   for (int i = 0; i < numberOfPlants; i++)
  56              		.loc 1 13 12
  57 0026 014C     		li	s8,0
  58              	.LBE2:
  12:wifiServices.c ****   currentIndex += snprintf(out + currentIndex, outSize - currentIndex, "[");
  59              		.loc 1 12 19
  60 0028 97000000 		call	snprintf
  60      E7800000 
  61              	.LVL2:
  62              		.loc 1 13 3 is_stmt 1
  63              	.LBB3:
  64              		.loc 1 13 8
  65              	.LBE3:
  12:wifiServices.c ****   currentIndex += snprintf(out + currentIndex, outSize - currentIndex, "[");
  66              		.loc 1 12 16 is_stmt 0
  67 0030 8544     		li	s1,1
  68              	.LBB4:
  14:wifiServices.c ****   {
  15:wifiServices.c ****     if (i > 0)
  16:wifiServices.c ****     {
  17:wifiServices.c ****       currentIndex += snprintf(out + currentIndex, outSize - currentIndex, ",");
  69              		.loc 1 17 23
  70 0032 B70A0000 		lui	s5,%hi(.LC1)
  18:wifiServices.c ****     }
  19:wifiServices.c **** 
  20:wifiServices.c ****     currentIndex += snprintf(out + currentIndex, outSize - currentIndex,
  71              		.loc 1 20 21
  72 0036 370B0000 		lui	s6,%hi(.LC2)
  73 003a B70B0000 		lui	s7,%hi(.LC3)
  74              	.LVL3:
  75              	.L2:
  76 003e 33859900 		add	a0,s3,s1
  77 0042 B3059940 		sub	a1,s2,s1
  13:wifiServices.c ****   {
  78              		.loc 1 13 3 discriminator 1
  79 0046 63454C03 		blt	s8,s4,.L4
  80              	.LBE4:
  21:wifiServices.c ****                              "{\"name\":\"%s\","
  22:wifiServices.c ****                              "\"status\":\"%s\","
  23:wifiServices.c ****                              "\"currentSun\":%d,"
  24:wifiServices.c ****                              "\"currentMoisture\":%d",
  25:wifiServices.c ****                              "\"currentTemp\":%d}",
  26:wifiServices.c ****                              allPlants[i].name,
  27:wifiServices.c ****                              allPlants[i].currentStatus,
  28:wifiServices.c ****                              allPlants[i].sun[allPlants[i].numberOfSunReadings - 1].reading,
GAS LISTING /var/folders/rt/4gvqv631095f64jvm7jfj_000000gn/T//ccP1ODyl.s 			page 3


  29:wifiServices.c ****                              allPlants[i].moisture[allPlants[i].numberOfMoistureReadings - 1].readi
  30:wifiServices.c ****                               allPlants[i].temp[allPlants[i].numberOfTempReadings - 1].reading
  31:wifiServices.c ****     );
  32:wifiServices.c ****   }
  33:wifiServices.c ****   snprintf(out + currentIndex, outSize - currentIndex, "]\n");
  81              		.loc 1 33 3 is_stmt 1
  34:wifiServices.c **** }
  82              		.loc 1 34 1 is_stmt 0
  83 004a 6254     		lw	s0,56(sp)
  84              		.cfi_remember_state
  85              		.cfi_restore 8
  86 004c F250     		lw	ra,60(sp)
  87              		.cfi_restore 1
  88 004e D254     		lw	s1,52(sp)
  89              		.cfi_restore 9
  90              	.LVL4:
  91 0050 4259     		lw	s2,48(sp)
  92              		.cfi_restore 18
  93              	.LVL5:
  94 0052 B259     		lw	s3,44(sp)
  95              		.cfi_restore 19
  96              	.LVL6:
  97 0054 225A     		lw	s4,40(sp)
  98              		.cfi_restore 20
  99              	.LVL7:
 100 0056 925A     		lw	s5,36(sp)
 101              		.cfi_restore 21
 102 0058 025B     		lw	s6,32(sp)
 103              		.cfi_restore 22
 104 005a F24B     		lw	s7,28(sp)
 105              		.cfi_restore 23
 106 005c 624C     		lw	s8,24(sp)
 107              		.cfi_restore 24
 108              	.LVL8:
  33:wifiServices.c **** }
 109              		.loc 1 33 3
 110 005e 37060000 		lui	a2,%hi(.LC4)
 111              		.loc 1 34 1
  33:wifiServices.c **** }
 112              		.loc 1 33 3
 113 0062 13060600 		addi	a2,a2,%lo(.LC4)
 114              		.loc 1 34 1
 115 0066 2161     		addi	sp,sp,64
 116              	.LCFI1:
 117              		.cfi_def_cfa_offset 0
  33:wifiServices.c **** }
 118              		.loc 1 33 3
 119 0068 17030000 		tail	snprintf
 119      67000300 
 120              	.LVL9:
 121              	.L4:
 122              	.LCFI2:
 123              		.cfi_restore_state
 124              	.LBB5:
  15:wifiServices.c ****     {
 125              		.loc 1 15 5 is_stmt 1
  15:wifiServices.c ****     {
GAS LISTING /var/folders/rt/4gvqv631095f64jvm7jfj_000000gn/T//ccP1ODyl.s 			page 4


 126              		.loc 1 15 8 is_stmt 0
 127 0070 63598001 		ble	s8,zero,.L3
  17:wifiServices.c ****     }
 128              		.loc 1 17 7 is_stmt 1
  17:wifiServices.c ****     }
 129              		.loc 1 17 23 is_stmt 0
 130 0074 13860A00 		addi	a2,s5,%lo(.LC1)
 131 0078 97000000 		call	snprintf
 131      E7800000 
 132              	.LVL10:
  17:wifiServices.c ****     }
 133              		.loc 1 17 20
 134 0080 8504     		addi	s1,s1,1
 135              	.LVL11:
 136              	.L3:
  20:wifiServices.c ****                              "{\"name\":\"%s\","
 137              		.loc 1 20 5 is_stmt 1 discriminator 2
  20:wifiServices.c ****                              "{\"name\":\"%s\","
 138              		.loc 1 20 21 is_stmt 0 discriminator 2
 139 0082 83270432 		lw	a5,800(s0)
 140 0086 2287     		mv	a4,s0
 141 0088 B3059940 		sub	a1,s2,s1
 142 008c 8D07     		addi	a5,a5,3
 143 008e 8E07     		slli	a5,a5,3
 144 0090 A297     		add	a5,s0,a5
 145 0092 83A84700 		lw	a7,4(a5)
 146 0096 83274432 		lw	a5,804(s0)
 147 009a 33859900 		add	a0,s3,s1
 148 009e 93060B00 		addi	a3,s6,%lo(.LC2)
 149 00a2 ED07     		addi	a5,a5,27
 150 00a4 8E07     		slli	a5,a5,3
 151 00a6 A297     		add	a5,s0,a5
 152 00a8 03A84700 		lw	a6,4(a5)
 153 00ac 83278432 		lw	a5,808(s0)
 154 00b0 13860B00 		addi	a2,s7,%lo(.LC3)
  13:wifiServices.c ****   {
 155              		.loc 1 13 40 discriminator 2
 156 00b4 050C     		addi	s8,s8,1
 157              	.LVL12:
  20:wifiServices.c ****                              "{\"name\":\"%s\","
 158              		.loc 1 20 21 discriminator 2
 159 00b6 9387B704 		addi	a5,a5,75
 160 00ba 8E07     		slli	a5,a5,3
 161 00bc A297     		add	a5,s0,a5
 162 00be DC43     		lw	a5,4(a5)
 163 00c0 3EC0     		sw	a5,0(sp)
 164 00c2 9307F400 		addi	a5,s0,15
 165 00c6 97000000 		call	snprintf
 165      E7800000 
 166              	.LVL13:
  20:wifiServices.c ****                              "{\"name\":\"%s\","
 167              		.loc 1 20 18 discriminator 2
 168 00ce AA94     		add	s1,s1,a0
 169              	.LVL14:
 170 00d0 1304044D 		addi	s0,s0,1232
 171 00d4 ADB7     		j	.L2
 172              	.LBE5:
GAS LISTING /var/folders/rt/4gvqv631095f64jvm7jfj_000000gn/T//ccP1ODyl.s 			page 5


 173              		.cfi_endproc
 174              	.LFE6:
 176              		.section	.text.receiveCommands,"ax",@progbits
 177              		.align	1
 178              		.globl	receiveCommands
 180              	receiveCommands:
 181              	.LFB7:
  35:wifiServices.c **** 
  36:wifiServices.c **** void receiveCommands(Plant allPlants[], int *numberOfPlants)
  37:wifiServices.c **** {
 182              		.loc 1 37 1 is_stmt 1
 183              		.cfi_startproc
 184              	.LVL15:
  38:wifiServices.c ****   LCD_Clear(BLACK);
 185              		.loc 1 38 3
  37:wifiServices.c ****   LCD_Clear(BLACK);
 186              		.loc 1 37 1 is_stmt 0
 187 0000 130101DE 		addi	sp,sp,-544
 188              	.LCFI3:
 189              		.cfi_def_cfa_offset 544
 190 0004 232A9120 		sw	s1,532(sp)
 191              		.cfi_offset 9, -12
 192 0008 AA84     		mv	s1,a0
 193              		.loc 1 38 3
 194 000a 0145     		li	a0,0
 195              	.LVL16:
  37:wifiServices.c ****   LCD_Clear(BLACK);
 196              		.loc 1 37 1
 197 000c 232E1120 		sw	ra,540(sp)
 198 0010 232C8120 		sw	s0,536(sp)
 199 0014 23282121 		sw	s2,528(sp)
 200 0018 23263121 		sw	s3,524(sp)
 201              		.cfi_offset 1, -4
 202              		.cfi_offset 8, -8
 203              		.cfi_offset 18, -16
 204              		.cfi_offset 19, -20
  37:wifiServices.c ****   LCD_Clear(BLACK);
 205              		.loc 1 37 1
 206 001c 2E89     		mv	s2,a1
 207              		.loc 1 38 3
 208 001e 97000000 		call	LCD_Clear
 208      E7800000 
 209              	.LVL17:
  39:wifiServices.c ****   LCD_ShowStr(0, 0, "in receive commands", WHITE, TRANSPARENT);
 210              		.loc 1 39 3 is_stmt 1
 211 0026 C166     		li	a3,65536
 212 0028 37060000 		lui	a2,%hi(.LC5)
 213 002c 0547     		li	a4,1
 214 002e 13060600 		addi	a2,a2,%lo(.LC5)
 215 0032 8145     		li	a1,0
 216 0034 FD16     		addi	a3,a3,-1
 217 0036 0145     		li	a0,0
 218 0038 97000000 		call	LCD_ShowStr
 218      E7800000 
 219              	.LVL18:
  40:wifiServices.c ****   for (int j = 0; j < commandBufferIndex; j++)
 220              		.loc 1 40 3
GAS LISTING /var/folders/rt/4gvqv631095f64jvm7jfj_000000gn/T//ccP1ODyl.s 			page 6


 221              	.LBB6:
 222              		.loc 1 40 8
 223              		.loc 1 40 21 is_stmt 0
 224 0040 37070000 		lui	a4,%hi(commandBufferIndex)
  41:wifiServices.c ****   {
  42:wifiServices.c ****     if (commandBuffer[j] == '\n')
 225              		.loc 1 42 22
 226 0044 37040000 		lui	s0,%hi(commandBuffer)
  40:wifiServices.c ****   for (int j = 0; j < commandBufferIndex; j++)
 227              		.loc 1 40 12
 228 0048 8147     		li	a5,0
 229 004a BA89     		mv	s3,a4
 230              		.loc 1 42 22
 231 004c 13060400 		addi	a2,s0,%lo(commandBuffer)
 232              		.loc 1 42 8
 233 0050 A945     		li	a1,10
 234              	.LVL19:
 235              	.L7:
  40:wifiServices.c ****   for (int j = 0; j < commandBufferIndex; j++)
 236              		.loc 1 40 21 discriminator 1
 237 0052 83260700 		lw	a3,%lo(commandBufferIndex)(a4)
  40:wifiServices.c ****   for (int j = 0; j < commandBufferIndex; j++)
 238              		.loc 1 40 3 discriminator 1
 239 0056 63D2D704 		ble	a3,a5,.L6
 240              		.loc 1 42 5 is_stmt 1
 241              		.loc 1 42 22 is_stmt 0
 242 005a B306F600 		add	a3,a2,a5
 243 005e 03C50600 		lbu	a0,0(a3)
 244              		.loc 1 42 8
 245 0062 6396A50E 		bne	a1,a0,.L8
  43:wifiServices.c ****     {
  44:wifiServices.c ****       commandBuffer[j] = '\0';
 246              		.loc 1 44 7 is_stmt 1
  45:wifiServices.c ****       if (!strcmp((char *)commandBuffer, "renderAllPlants"))
 247              		.loc 1 45 12 is_stmt 0
 248 0066 B7050000 		lui	a1,%hi(.LC6)
 249 006a 93850500 		addi	a1,a1,%lo(.LC6)
 250 006e 13050400 		addi	a0,s0,%lo(commandBuffer)
  44:wifiServices.c ****       if (!strcmp((char *)commandBuffer, "renderAllPlants"))
 251              		.loc 1 44 24
 252 0072 23800600 		sb	zero,0(a3)
 253              		.loc 1 45 7 is_stmt 1
 254              		.loc 1 45 12 is_stmt 0
 255 0076 97000000 		call	strcmp
 255      E7800000 
 256              	.LVL20:
 257              		.loc 1 45 10
 258 007e 1DE9     		bne	a0,zero,.L9
  46:wifiServices.c ****       {
  47:wifiServices.c ****         LCD_Clear(BLACK);
 259              		.loc 1 47 9 is_stmt 1
 260 0080 97000000 		call	LCD_Clear
 260      E7800000 
 261              	.LVL21:
  48:wifiServices.c ****         renderAllPlants(allPlants, *numberOfPlants);
 262              		.loc 1 48 9
 263 0088 83250900 		lw	a1,0(s2)
GAS LISTING /var/folders/rt/4gvqv631095f64jvm7jfj_000000gn/T//ccP1ODyl.s 			page 7


 264 008c 2685     		mv	a0,s1
 265 008e 97000000 		call	renderAllPlants
 265      E7800000 
 266              	.LVL22:
 267              	.L10:
  49:wifiServices.c ****       }
  50:wifiServices.c **** 
  51:wifiServices.c ****       else if (!strcmp((char *)commandBuffer, "getAllPlants"))
  52:wifiServices.c ****       {
  53:wifiServices.c ****         LCD_Clear(BLACK);
  54:wifiServices.c ****         LCD_ShowStr(0, 0, "transmit in session", WHITE, TRANSPARENT);
  55:wifiServices.c **** 
  56:wifiServices.c ****         char data[512];
  57:wifiServices.c ****         jsonAllPlants(data, sizeof(data), allPlants, *numberOfPlants);
  58:wifiServices.c ****         putstr(data);
  59:wifiServices.c ****       }
  60:wifiServices.c **** 
  61:wifiServices.c ****       else
  62:wifiServices.c ****       {
  63:wifiServices.c ****         LCD_Clear(BLACK);
  64:wifiServices.c ****         LCD_ShowStr(0, 0, "BAD COMMAND:", WHITE, TRANSPARENT);
  65:wifiServices.c ****         LCD_ShowStr(0, 13, (char *)commandBuffer, WHITE, TRANSPARENT);
  66:wifiServices.c ****         putstr((char *)commandBuffer);
  67:wifiServices.c ****       }
  68:wifiServices.c ****       commandBufferIndex = 0;
 268              		.loc 1 68 7
 269              		.loc 1 68 26 is_stmt 0
 270 0096 23A00900 		sw	zero,%lo(commandBufferIndex)(s3)
  69:wifiServices.c ****       break;
 271              		.loc 1 69 7 is_stmt 1
 272              	.L6:
 273              	.LBE6:
  70:wifiServices.c ****     }
  71:wifiServices.c ****   }
  72:wifiServices.c **** }
 274              		.loc 1 72 1 is_stmt 0
 275 009a 8320C121 		lw	ra,540(sp)
 276              		.cfi_remember_state
 277              		.cfi_restore 1
 278 009e 03248121 		lw	s0,536(sp)
 279              		.cfi_restore 8
 280 00a2 83244121 		lw	s1,532(sp)
 281              		.cfi_restore 9
 282 00a6 03290121 		lw	s2,528(sp)
 283              		.cfi_restore 18
 284              	.LVL23:
 285 00aa 8329C120 		lw	s3,524(sp)
 286              		.cfi_restore 19
 287 00ae 13010122 		addi	sp,sp,544
 288              	.LCFI4:
 289              		.cfi_def_cfa_offset 0
 290 00b2 8280     		jr	ra
 291              	.LVL24:
 292              	.L9:
 293              	.LCFI5:
 294              		.cfi_restore_state
 295              	.LBB8:
GAS LISTING /var/folders/rt/4gvqv631095f64jvm7jfj_000000gn/T//ccP1ODyl.s 			page 8


  51:wifiServices.c ****       {
 296              		.loc 1 51 12 is_stmt 1
  51:wifiServices.c ****       {
 297              		.loc 1 51 17 is_stmt 0
 298 00b4 B7050000 		lui	a1,%hi(.LC7)
 299 00b8 93850500 		addi	a1,a1,%lo(.LC7)
 300 00bc 13050400 		addi	a0,s0,%lo(commandBuffer)
 301 00c0 97000000 		call	strcmp
 301      E7800000 
 302              	.LVL25:
  51:wifiServices.c ****       {
 303              		.loc 1 51 15
 304 00c8 31E1     		bne	a0,zero,.L11
 305              	.LBB7:
  53:wifiServices.c ****         LCD_ShowStr(0, 0, "transmit in session", WHITE, TRANSPARENT);
 306              		.loc 1 53 9 is_stmt 1
 307 00ca 97000000 		call	LCD_Clear
 307      E7800000 
 308              	.LVL26:
  54:wifiServices.c **** 
 309              		.loc 1 54 9
 310 00d2 C166     		li	a3,65536
 311 00d4 37060000 		lui	a2,%hi(.LC8)
 312 00d8 0547     		li	a4,1
 313 00da FD16     		addi	a3,a3,-1
 314 00dc 13060600 		addi	a2,a2,%lo(.LC8)
 315 00e0 8145     		li	a1,0
 316 00e2 0145     		li	a0,0
 317 00e4 97000000 		call	LCD_ShowStr
 317      E7800000 
 318              	.LVL27:
  56:wifiServices.c ****         jsonAllPlants(data, sizeof(data), allPlants, *numberOfPlants);
 319              		.loc 1 56 9
  57:wifiServices.c ****         putstr(data);
 320              		.loc 1 57 9
 321 00ec 83260900 		lw	a3,0(s2)
 322 00f0 0A85     		mv	a0,sp
 323 00f2 2686     		mv	a2,s1
 324 00f4 93050020 		li	a1,512
 325 00f8 97000000 		call	jsonAllPlants
 325      E7800000 
 326              	.LVL28:
  58:wifiServices.c ****       }
 327              		.loc 1 58 9
 328 0100 0A85     		mv	a0,sp
 329              	.LVL29:
 330              	.L15:
 331              	.LBE7:
  66:wifiServices.c ****       }
 332              		.loc 1 66 9 is_stmt 0
 333 0102 97000000 		call	putstr
 333      E7800000 
 334              	.LVL30:
 335 010a 71B7     		j	.L10
 336              	.LVL31:
 337              	.L11:
  63:wifiServices.c ****         LCD_ShowStr(0, 0, "BAD COMMAND:", WHITE, TRANSPARENT);
GAS LISTING /var/folders/rt/4gvqv631095f64jvm7jfj_000000gn/T//ccP1ODyl.s 			page 9


 338              		.loc 1 63 9 is_stmt 1
 339 010c 0145     		li	a0,0
 340 010e 97000000 		call	LCD_Clear
 340      E7800000 
 341              	.LVL32:
  64:wifiServices.c ****         LCD_ShowStr(0, 13, (char *)commandBuffer, WHITE, TRANSPARENT);
 342              		.loc 1 64 9
 343 0116 C164     		li	s1,65536
 344              	.LVL33:
 345 0118 37060000 		lui	a2,%hi(.LC9)
 346 011c 0547     		li	a4,1
 347 011e 9386F4FF 		addi	a3,s1,-1
 348 0122 13060600 		addi	a2,a2,%lo(.LC9)
 349 0126 8145     		li	a1,0
 350 0128 0145     		li	a0,0
 351 012a 97000000 		call	LCD_ShowStr
 351      E7800000 
 352              	.LVL34:
  65:wifiServices.c ****         putstr((char *)commandBuffer);
 353              		.loc 1 65 9
 354 0132 0145     		li	a0,0
 355 0134 0547     		li	a4,1
 356 0136 9386F4FF 		addi	a3,s1,-1
 357 013a 13060400 		addi	a2,s0,%lo(commandBuffer)
 358 013e B545     		li	a1,13
 359 0140 97000000 		call	LCD_ShowStr
 359      E7800000 
 360              	.LVL35:
  66:wifiServices.c ****       }
 361              		.loc 1 66 9
 362 0148 13050400 		addi	a0,s0,%lo(commandBuffer)
 363 014c 5DBF     		j	.L15
 364              	.LVL36:
 365              	.L8:
  40:wifiServices.c ****   {
 366              		.loc 1 40 44 is_stmt 0 discriminator 2
 367 014e 8507     		addi	a5,a5,1
 368              	.LVL37:
 369 0150 09B7     		j	.L7
 370              	.LBE8:
 371              		.cfi_endproc
 372              	.LFE7:
 374              		.section	.rodata.jsonAllPlants.str1.4,"aMS",@progbits,1
 375              		.align	2
 376              	.LC0:
 377 0000 5B00     		.string	"["
 378 0002 0000     		.zero	2
 379              	.LC1:
 380 0004 2C00     		.string	","
 381 0006 0000     		.zero	2
 382              	.LC2:
 383 0008 22637572 		.string	"\"currentTemp\":%d}"
 383      72656E74 
 383      54656D70 
 383      223A2564 
 383      7D00
 384 001a 0000     		.zero	2
GAS LISTING /var/folders/rt/4gvqv631095f64jvm7jfj_000000gn/T//ccP1ODyl.s 			page 10


 385              	.LC3:
 386 001c 7B226E61 		.string	"{\"name\":\"%s\",\"status\":\"%s\",\"currentSun\":%d,\"currentMoisture\":%d"
 386      6D65223A 
 386      22257322 
 386      2C227374 
 386      61747573 
 387              	.LC4:
 388 005c 5D0A00   		.string	"]\n"
 389              		.section	.rodata.receiveCommands.str1.4,"aMS",@progbits,1
 390              		.align	2
 391              	.LC5:
 392 0000 696E2072 		.string	"in receive commands"
 392      65636569 
 392      76652063 
 392      6F6D6D61 
 392      6E647300 
 393              	.LC6:
 394 0014 72656E64 		.string	"renderAllPlants"
 394      6572416C 
 394      6C506C61 
 394      6E747300 
 395              	.LC7:
 396 0024 67657441 		.string	"getAllPlants"
 396      6C6C506C 
 396      616E7473 
 396      00
 397 0031 000000   		.zero	3
 398              	.LC8:
 399 0034 7472616E 		.string	"transmit in session"
 399      736D6974 
 399      20696E20 
 399      73657373 
 399      696F6E00 
 400              	.LC9:
 401 0048 42414420 		.string	"BAD COMMAND:"
 401      434F4D4D 
 401      414E443A 
 401      00
 402              		.text
 403              	.Letext0:
 404              		.file 2 "/Users/alexstrae/toolchain-gd32v-v202-osx/compiler/lib/gcc/riscv64-unknown-elf/8.3.0/incl
 405              		.file 3 "/Users/alexstrae/toolchain-gd32v-v202-osx/compiler/riscv64-unknown-elf/include/machine/_d
 406              		.file 4 "/Users/alexstrae/toolchain-gd32v-v202-osx/compiler/riscv64-unknown-elf/include/sys/_types
 407              		.file 5 "/Users/alexstrae/toolchain-gd32v-v202-osx/compiler/riscv64-unknown-elf/include/sys/reent.
 408              		.file 6 "/Users/alexstrae/toolchain-gd32v-v202-osx/compiler/riscv64-unknown-elf/include/sys/lock.h
 409              		.file 7 "/Users/alexstrae/toolchain-gd32v-v202-osx/compiler/riscv64-unknown-elf/include/stdlib.h"
 410              		.file 8 "/Users/alexstrae/toolchain-gd32v-v202-osx/compiler/riscv64-unknown-elf/include/sys/_stdin
 411              		.file 9 "../../firmware/GD32VF103_standard_peripheral/system_gd32vf103.h"
 412              		.file 10 "lcd.h"
 413              		.file 11 "plant.h"
 414              		.file 12 "usart.h"
 415              		.file 13 "/Users/alexstrae/toolchain-gd32v-v202-osx/compiler/riscv64-unknown-elf/include/string.h"
 416              		.file 14 "renderPlants.h"
 417              		.file 15 "/Users/alexstrae/toolchain-gd32v-v202-osx/compiler/riscv64-unknown-elf/include/stdio.h"
GAS LISTING /var/folders/rt/4gvqv631095f64jvm7jfj_000000gn/T//ccP1ODyl.s 			page 11


DEFINED SYMBOLS
                            *ABS*:0000000000000000 wifiServices.c
/var/folders/rt/4gvqv631095f64jvm7jfj_000000gn/T//ccP1ODyl.s:13     .text.jsonAllPlants:0000000000000000 jsonAllPlants
/var/folders/rt/4gvqv631095f64jvm7jfj_000000gn/T//ccP1ODyl.s:17     .text.jsonAllPlants:0000000000000000 .L0 
/var/folders/rt/4gvqv631095f64jvm7jfj_000000gn/T//ccP1ODyl.s:19     .text.jsonAllPlants:0000000000000000 .L0 
/var/folders/rt/4gvqv631095f64jvm7jfj_000000gn/T//ccP1ODyl.s:20     .text.jsonAllPlants:0000000000000000 .L0 
/var/folders/rt/4gvqv631095f64jvm7jfj_000000gn/T//ccP1ODyl.s:21     .text.jsonAllPlants:0000000000000000 .L0 
/var/folders/rt/4gvqv631095f64jvm7jfj_000000gn/T//ccP1ODyl.s:22     .text.jsonAllPlants:0000000000000000 .L0 
/var/folders/rt/4gvqv631095f64jvm7jfj_000000gn/T//ccP1ODyl.s:24     .text.jsonAllPlants:0000000000000002 .L0 
/var/folders/rt/4gvqv631095f64jvm7jfj_000000gn/T//ccP1ODyl.s:26     .text.jsonAllPlants:0000000000000004 .L0 
/var/folders/rt/4gvqv631095f64jvm7jfj_000000gn/T//ccP1ODyl.s:29     .text.jsonAllPlants:0000000000000006 .L0 
/var/folders/rt/4gvqv631095f64jvm7jfj_000000gn/T//ccP1ODyl.s:33     .text.jsonAllPlants:000000000000000e .L0 
/var/folders/rt/4gvqv631095f64jvm7jfj_000000gn/T//ccP1ODyl.s:42     .text.jsonAllPlants:0000000000000020 .L0 
/var/folders/rt/4gvqv631095f64jvm7jfj_000000gn/T//ccP1ODyl.s:43     .text.jsonAllPlants:0000000000000020 .L0 
/var/folders/rt/4gvqv631095f64jvm7jfj_000000gn/T//ccP1ODyl.s:44     .text.jsonAllPlants:0000000000000020 .L0 
/var/folders/rt/4gvqv631095f64jvm7jfj_000000gn/T//ccP1ODyl.s:45     .text.jsonAllPlants:0000000000000020 .L0 
/var/folders/rt/4gvqv631095f64jvm7jfj_000000gn/T//ccP1ODyl.s:46     .text.jsonAllPlants:0000000000000020 .L0 
/var/folders/rt/4gvqv631095f64jvm7jfj_000000gn/T//ccP1ODyl.s:47     .text.jsonAllPlants:0000000000000020 .L0 
/var/folders/rt/4gvqv631095f64jvm7jfj_000000gn/T//ccP1ODyl.s:48     .text.jsonAllPlants:0000000000000020 .L0 
/var/folders/rt/4gvqv631095f64jvm7jfj_000000gn/T//ccP1ODyl.s:49     .text.jsonAllPlants:0000000000000020 .L0 
/var/folders/rt/4gvqv631095f64jvm7jfj_000000gn/T//ccP1ODyl.s:50     .text.jsonAllPlants:0000000000000020 .L0 
/var/folders/rt/4gvqv631095f64jvm7jfj_000000gn/T//ccP1ODyl.s:52     .text.jsonAllPlants:0000000000000020 .L0 
/var/folders/rt/4gvqv631095f64jvm7jfj_000000gn/T//ccP1ODyl.s:57     .text.jsonAllPlants:0000000000000026 .L0 
/var/folders/rt/4gvqv631095f64jvm7jfj_000000gn/T//ccP1ODyl.s:60     .text.jsonAllPlants:0000000000000028 .L0 
/var/folders/rt/4gvqv631095f64jvm7jfj_000000gn/T//ccP1ODyl.s:64     .text.jsonAllPlants:0000000000000030 .L0 
/var/folders/rt/4gvqv631095f64jvm7jfj_000000gn/T//ccP1ODyl.s:66     .text.jsonAllPlants:0000000000000030 .L0 
/var/folders/rt/4gvqv631095f64jvm7jfj_000000gn/T//ccP1ODyl.s:67     .text.jsonAllPlants:0000000000000030 .L0 
/var/folders/rt/4gvqv631095f64jvm7jfj_000000gn/T//ccP1ODyl.s:70     .text.jsonAllPlants:0000000000000032 .L0 
/var/folders/rt/4gvqv631095f64jvm7jfj_000000gn/T//ccP1ODyl.s:72     .text.jsonAllPlants:0000000000000036 .L0 
/var/folders/rt/4gvqv631095f64jvm7jfj_000000gn/T//ccP1ODyl.s:79     .text.jsonAllPlants:0000000000000046 .L0 
/var/folders/rt/4gvqv631095f64jvm7jfj_000000gn/T//ccP1ODyl.s:82     .text.jsonAllPlants:000000000000004a .L0 
/var/folders/rt/4gvqv631095f64jvm7jfj_000000gn/T//ccP1ODyl.s:83     .text.jsonAllPlants:000000000000004a .L0 
/var/folders/rt/4gvqv631095f64jvm7jfj_000000gn/T//ccP1ODyl.s:84     .text.jsonAllPlants:000000000000004c .L0 
/var/folders/rt/4gvqv631095f64jvm7jfj_000000gn/T//ccP1ODyl.s:85     .text.jsonAllPlants:000000000000004c .L0 
/var/folders/rt/4gvqv631095f64jvm7jfj_000000gn/T//ccP1ODyl.s:87     .text.jsonAllPlants:000000000000004e .L0 
/var/folders/rt/4gvqv631095f64jvm7jfj_000000gn/T//ccP1ODyl.s:89     .text.jsonAllPlants:0000000000000050 .L0 
/var/folders/rt/4gvqv631095f64jvm7jfj_000000gn/T//ccP1ODyl.s:92     .text.jsonAllPlants:0000000000000052 .L0 
/var/folders/rt/4gvqv631095f64jvm7jfj_000000gn/T//ccP1ODyl.s:95     .text.jsonAllPlants:0000000000000054 .L0 
/var/folders/rt/4gvqv631095f64jvm7jfj_000000gn/T//ccP1ODyl.s:98     .text.jsonAllPlants:0000000000000056 .L0 
/var/folders/rt/4gvqv631095f64jvm7jfj_000000gn/T//ccP1ODyl.s:101    .text.jsonAllPlants:0000000000000058 .L0 
/var/folders/rt/4gvqv631095f64jvm7jfj_000000gn/T//ccP1ODyl.s:103    .text.jsonAllPlants:000000000000005a .L0 
/var/folders/rt/4gvqv631095f64jvm7jfj_000000gn/T//ccP1ODyl.s:105    .text.jsonAllPlants:000000000000005c .L0 
/var/folders/rt/4gvqv631095f64jvm7jfj_000000gn/T//ccP1ODyl.s:107    .text.jsonAllPlants:000000000000005e .L0 
/var/folders/rt/4gvqv631095f64jvm7jfj_000000gn/T//ccP1ODyl.s:110    .text.jsonAllPlants:000000000000005e .L0 
/var/folders/rt/4gvqv631095f64jvm7jfj_000000gn/T//ccP1ODyl.s:112    .text.jsonAllPlants:0000000000000062 .L0 
/var/folders/rt/4gvqv631095f64jvm7jfj_000000gn/T//ccP1ODyl.s:113    .text.jsonAllPlants:0000000000000062 .L0 
/var/folders/rt/4gvqv631095f64jvm7jfj_000000gn/T//ccP1ODyl.s:115    .text.jsonAllPlants:0000000000000066 .L0 
/var/folders/rt/4gvqv631095f64jvm7jfj_000000gn/T//ccP1ODyl.s:117    .text.jsonAllPlants:0000000000000068 .L0 
/var/folders/rt/4gvqv631095f64jvm7jfj_000000gn/T//ccP1ODyl.s:119    .text.jsonAllPlants:0000000000000068 .L0 
/var/folders/rt/4gvqv631095f64jvm7jfj_000000gn/T//ccP1ODyl.s:123    .text.jsonAllPlants:0000000000000070 .L0 
/var/folders/rt/4gvqv631095f64jvm7jfj_000000gn/T//ccP1ODyl.s:126    .text.jsonAllPlants:0000000000000070 .L0 
/var/folders/rt/4gvqv631095f64jvm7jfj_000000gn/T//ccP1ODyl.s:127    .text.jsonAllPlants:0000000000000070 .L0 
/var/folders/rt/4gvqv631095f64jvm7jfj_000000gn/T//ccP1ODyl.s:129    .text.jsonAllPlants:0000000000000074 .L0 
/var/folders/rt/4gvqv631095f64jvm7jfj_000000gn/T//ccP1ODyl.s:130    .text.jsonAllPlants:0000000000000074 .L0 
/var/folders/rt/4gvqv631095f64jvm7jfj_000000gn/T//ccP1ODyl.s:134    .text.jsonAllPlants:0000000000000080 .L0 
/var/folders/rt/4gvqv631095f64jvm7jfj_000000gn/T//ccP1ODyl.s:138    .text.jsonAllPlants:0000000000000082 .L0 
/var/folders/rt/4gvqv631095f64jvm7jfj_000000gn/T//ccP1ODyl.s:139    .text.jsonAllPlants:0000000000000082 .L0 
GAS LISTING /var/folders/rt/4gvqv631095f64jvm7jfj_000000gn/T//ccP1ODyl.s 			page 12


/var/folders/rt/4gvqv631095f64jvm7jfj_000000gn/T//ccP1ODyl.s:156    .text.jsonAllPlants:00000000000000b4 .L0 
/var/folders/rt/4gvqv631095f64jvm7jfj_000000gn/T//ccP1ODyl.s:159    .text.jsonAllPlants:00000000000000b6 .L0 
/var/folders/rt/4gvqv631095f64jvm7jfj_000000gn/T//ccP1ODyl.s:168    .text.jsonAllPlants:00000000000000ce .L0 
/var/folders/rt/4gvqv631095f64jvm7jfj_000000gn/T//ccP1ODyl.s:173    .text.jsonAllPlants:00000000000000d6 .L0 
/var/folders/rt/4gvqv631095f64jvm7jfj_000000gn/T//ccP1ODyl.s:180    .text.receiveCommands:0000000000000000 receiveCommands
/var/folders/rt/4gvqv631095f64jvm7jfj_000000gn/T//ccP1ODyl.s:183    .text.receiveCommands:0000000000000000 .L0 
/var/folders/rt/4gvqv631095f64jvm7jfj_000000gn/T//ccP1ODyl.s:185    .text.receiveCommands:0000000000000000 .L0 
/var/folders/rt/4gvqv631095f64jvm7jfj_000000gn/T//ccP1ODyl.s:186    .text.receiveCommands:0000000000000000 .L0 
/var/folders/rt/4gvqv631095f64jvm7jfj_000000gn/T//ccP1ODyl.s:187    .text.receiveCommands:0000000000000000 .L0 
/var/folders/rt/4gvqv631095f64jvm7jfj_000000gn/T//ccP1ODyl.s:189    .text.receiveCommands:0000000000000004 .L0 
/var/folders/rt/4gvqv631095f64jvm7jfj_000000gn/T//ccP1ODyl.s:191    .text.receiveCommands:0000000000000008 .L0 
/var/folders/rt/4gvqv631095f64jvm7jfj_000000gn/T//ccP1ODyl.s:194    .text.receiveCommands:000000000000000a .L0 
/var/folders/rt/4gvqv631095f64jvm7jfj_000000gn/T//ccP1ODyl.s:197    .text.receiveCommands:000000000000000c .L0 
/var/folders/rt/4gvqv631095f64jvm7jfj_000000gn/T//ccP1ODyl.s:201    .text.receiveCommands:000000000000001c .L0 
/var/folders/rt/4gvqv631095f64jvm7jfj_000000gn/T//ccP1ODyl.s:202    .text.receiveCommands:000000000000001c .L0 
/var/folders/rt/4gvqv631095f64jvm7jfj_000000gn/T//ccP1ODyl.s:203    .text.receiveCommands:000000000000001c .L0 
/var/folders/rt/4gvqv631095f64jvm7jfj_000000gn/T//ccP1ODyl.s:204    .text.receiveCommands:000000000000001c .L0 
/var/folders/rt/4gvqv631095f64jvm7jfj_000000gn/T//ccP1ODyl.s:206    .text.receiveCommands:000000000000001c .L0 
/var/folders/rt/4gvqv631095f64jvm7jfj_000000gn/T//ccP1ODyl.s:208    .text.receiveCommands:000000000000001e .L0 
/var/folders/rt/4gvqv631095f64jvm7jfj_000000gn/T//ccP1ODyl.s:211    .text.receiveCommands:0000000000000026 .L0 
/var/folders/rt/4gvqv631095f64jvm7jfj_000000gn/T//ccP1ODyl.s:222    .text.receiveCommands:0000000000000040 .L0 
/var/folders/rt/4gvqv631095f64jvm7jfj_000000gn/T//ccP1ODyl.s:223    .text.receiveCommands:0000000000000040 .L0 
/var/folders/rt/4gvqv631095f64jvm7jfj_000000gn/T//ccP1ODyl.s:224    .text.receiveCommands:0000000000000040 .L0 
/var/folders/rt/4gvqv631095f64jvm7jfj_000000gn/T//ccP1ODyl.s:226    .text.receiveCommands:0000000000000044 .L0 
/var/folders/rt/4gvqv631095f64jvm7jfj_000000gn/T//ccP1ODyl.s:228    .text.receiveCommands:0000000000000048 .L0 
/var/folders/rt/4gvqv631095f64jvm7jfj_000000gn/T//ccP1ODyl.s:231    .text.receiveCommands:000000000000004c .L0 
/var/folders/rt/4gvqv631095f64jvm7jfj_000000gn/T//ccP1ODyl.s:233    .text.receiveCommands:0000000000000050 .L0 
/var/folders/rt/4gvqv631095f64jvm7jfj_000000gn/T//ccP1ODyl.s:237    .text.receiveCommands:0000000000000052 .L0 
/var/folders/rt/4gvqv631095f64jvm7jfj_000000gn/T//ccP1ODyl.s:239    .text.receiveCommands:0000000000000056 .L0 
/var/folders/rt/4gvqv631095f64jvm7jfj_000000gn/T//ccP1ODyl.s:241    .text.receiveCommands:000000000000005a .L0 
/var/folders/rt/4gvqv631095f64jvm7jfj_000000gn/T//ccP1ODyl.s:242    .text.receiveCommands:000000000000005a .L0 
/var/folders/rt/4gvqv631095f64jvm7jfj_000000gn/T//ccP1ODyl.s:245    .text.receiveCommands:0000000000000062 .L0 
/var/folders/rt/4gvqv631095f64jvm7jfj_000000gn/T//ccP1ODyl.s:247    .text.receiveCommands:0000000000000066 .L0 
/var/folders/rt/4gvqv631095f64jvm7jfj_000000gn/T//ccP1ODyl.s:248    .text.receiveCommands:0000000000000066 .L0 
/var/folders/rt/4gvqv631095f64jvm7jfj_000000gn/T//ccP1ODyl.s:252    .text.receiveCommands:0000000000000072 .L0 
/var/folders/rt/4gvqv631095f64jvm7jfj_000000gn/T//ccP1ODyl.s:254    .text.receiveCommands:0000000000000076 .L0 
/var/folders/rt/4gvqv631095f64jvm7jfj_000000gn/T//ccP1ODyl.s:255    .text.receiveCommands:0000000000000076 .L0 
/var/folders/rt/4gvqv631095f64jvm7jfj_000000gn/T//ccP1ODyl.s:258    .text.receiveCommands:000000000000007e .L0 
/var/folders/rt/4gvqv631095f64jvm7jfj_000000gn/T//ccP1ODyl.s:260    .text.receiveCommands:0000000000000080 .L0 
/var/folders/rt/4gvqv631095f64jvm7jfj_000000gn/T//ccP1ODyl.s:263    .text.receiveCommands:0000000000000088 .L0 
/var/folders/rt/4gvqv631095f64jvm7jfj_000000gn/T//ccP1ODyl.s:269    .text.receiveCommands:0000000000000096 .L0 
/var/folders/rt/4gvqv631095f64jvm7jfj_000000gn/T//ccP1ODyl.s:270    .text.receiveCommands:0000000000000096 .L0 
/var/folders/rt/4gvqv631095f64jvm7jfj_000000gn/T//ccP1ODyl.s:274    .text.receiveCommands:000000000000009a .L0 
/var/folders/rt/4gvqv631095f64jvm7jfj_000000gn/T//ccP1ODyl.s:275    .text.receiveCommands:000000000000009a .L0 
/var/folders/rt/4gvqv631095f64jvm7jfj_000000gn/T//ccP1ODyl.s:276    .text.receiveCommands:000000000000009e .L0 
/var/folders/rt/4gvqv631095f64jvm7jfj_000000gn/T//ccP1ODyl.s:277    .text.receiveCommands:000000000000009e .L0 
/var/folders/rt/4gvqv631095f64jvm7jfj_000000gn/T//ccP1ODyl.s:279    .text.receiveCommands:00000000000000a2 .L0 
/var/folders/rt/4gvqv631095f64jvm7jfj_000000gn/T//ccP1ODyl.s:281    .text.receiveCommands:00000000000000a6 .L0 
/var/folders/rt/4gvqv631095f64jvm7jfj_000000gn/T//ccP1ODyl.s:283    .text.receiveCommands:00000000000000aa .L0 
/var/folders/rt/4gvqv631095f64jvm7jfj_000000gn/T//ccP1ODyl.s:286    .text.receiveCommands:00000000000000ae .L0 
/var/folders/rt/4gvqv631095f64jvm7jfj_000000gn/T//ccP1ODyl.s:289    .text.receiveCommands:00000000000000b2 .L0 
/var/folders/rt/4gvqv631095f64jvm7jfj_000000gn/T//ccP1ODyl.s:294    .text.receiveCommands:00000000000000b4 .L0 
/var/folders/rt/4gvqv631095f64jvm7jfj_000000gn/T//ccP1ODyl.s:297    .text.receiveCommands:00000000000000b4 .L0 
/var/folders/rt/4gvqv631095f64jvm7jfj_000000gn/T//ccP1ODyl.s:298    .text.receiveCommands:00000000000000b4 .L0 
/var/folders/rt/4gvqv631095f64jvm7jfj_000000gn/T//ccP1ODyl.s:304    .text.receiveCommands:00000000000000c8 .L0 
/var/folders/rt/4gvqv631095f64jvm7jfj_000000gn/T//ccP1ODyl.s:307    .text.receiveCommands:00000000000000ca .L0 
/var/folders/rt/4gvqv631095f64jvm7jfj_000000gn/T//ccP1ODyl.s:310    .text.receiveCommands:00000000000000d2 .L0 
GAS LISTING /var/folders/rt/4gvqv631095f64jvm7jfj_000000gn/T//ccP1ODyl.s 			page 13


/var/folders/rt/4gvqv631095f64jvm7jfj_000000gn/T//ccP1ODyl.s:320    .text.receiveCommands:00000000000000ec .L0 
/var/folders/rt/4gvqv631095f64jvm7jfj_000000gn/T//ccP1ODyl.s:321    .text.receiveCommands:00000000000000ec .L0 
/var/folders/rt/4gvqv631095f64jvm7jfj_000000gn/T//ccP1ODyl.s:328    .text.receiveCommands:0000000000000100 .L0 
/var/folders/rt/4gvqv631095f64jvm7jfj_000000gn/T//ccP1ODyl.s:333    .text.receiveCommands:0000000000000102 .L0 
/var/folders/rt/4gvqv631095f64jvm7jfj_000000gn/T//ccP1ODyl.s:339    .text.receiveCommands:000000000000010c .L0 
/var/folders/rt/4gvqv631095f64jvm7jfj_000000gn/T//ccP1ODyl.s:343    .text.receiveCommands:0000000000000116 .L0 
/var/folders/rt/4gvqv631095f64jvm7jfj_000000gn/T//ccP1ODyl.s:354    .text.receiveCommands:0000000000000132 .L0 
/var/folders/rt/4gvqv631095f64jvm7jfj_000000gn/T//ccP1ODyl.s:362    .text.receiveCommands:0000000000000148 .L0 
/var/folders/rt/4gvqv631095f64jvm7jfj_000000gn/T//ccP1ODyl.s:367    .text.receiveCommands:000000000000014e .L0 
/var/folders/rt/4gvqv631095f64jvm7jfj_000000gn/T//ccP1ODyl.s:371    .text.receiveCommands:0000000000000152 .L0 
/var/folders/rt/4gvqv631095f64jvm7jfj_000000gn/T//ccP1ODyl.s:176    .text.jsonAllPlants:00000000000000d6 .L0 
/var/folders/rt/4gvqv631095f64jvm7jfj_000000gn/T//ccP1ODyl.s:374    .text.receiveCommands:0000000000000152 .L0 
                     .debug_frame:0000000000000000 .L0 
/var/folders/rt/4gvqv631095f64jvm7jfj_000000gn/T//ccP1ODyl.s:376    .rodata.jsonAllPlants.str1.4:0000000000000000 .LC0
/var/folders/rt/4gvqv631095f64jvm7jfj_000000gn/T//ccP1ODyl.s:379    .rodata.jsonAllPlants.str1.4:0000000000000004 .LC1
/var/folders/rt/4gvqv631095f64jvm7jfj_000000gn/T//ccP1ODyl.s:382    .rodata.jsonAllPlants.str1.4:0000000000000008 .LC2
/var/folders/rt/4gvqv631095f64jvm7jfj_000000gn/T//ccP1ODyl.s:385    .rodata.jsonAllPlants.str1.4:000000000000001c .LC3
/var/folders/rt/4gvqv631095f64jvm7jfj_000000gn/T//ccP1ODyl.s:387    .rodata.jsonAllPlants.str1.4:000000000000005c .LC4
/var/folders/rt/4gvqv631095f64jvm7jfj_000000gn/T//ccP1ODyl.s:121    .text.jsonAllPlants:0000000000000070 .L4
/var/folders/rt/4gvqv631095f64jvm7jfj_000000gn/T//ccP1ODyl.s:136    .text.jsonAllPlants:0000000000000082 .L3
/var/folders/rt/4gvqv631095f64jvm7jfj_000000gn/T//ccP1ODyl.s:75     .text.jsonAllPlants:000000000000003e .L2
/var/folders/rt/4gvqv631095f64jvm7jfj_000000gn/T//ccP1ODyl.s:391    .rodata.receiveCommands.str1.4:0000000000000000 .LC5
/var/folders/rt/4gvqv631095f64jvm7jfj_000000gn/T//ccP1ODyl.s:393    .rodata.receiveCommands.str1.4:0000000000000014 .LC6
/var/folders/rt/4gvqv631095f64jvm7jfj_000000gn/T//ccP1ODyl.s:395    .rodata.receiveCommands.str1.4:0000000000000024 .LC7
/var/folders/rt/4gvqv631095f64jvm7jfj_000000gn/T//ccP1ODyl.s:398    .rodata.receiveCommands.str1.4:0000000000000034 .LC8
/var/folders/rt/4gvqv631095f64jvm7jfj_000000gn/T//ccP1ODyl.s:400    .rodata.receiveCommands.str1.4:0000000000000048 .LC9
/var/folders/rt/4gvqv631095f64jvm7jfj_000000gn/T//ccP1ODyl.s:272    .text.receiveCommands:000000000000009a .L6
/var/folders/rt/4gvqv631095f64jvm7jfj_000000gn/T//ccP1ODyl.s:365    .text.receiveCommands:000000000000014e .L8
/var/folders/rt/4gvqv631095f64jvm7jfj_000000gn/T//ccP1ODyl.s:292    .text.receiveCommands:00000000000000b4 .L9
/var/folders/rt/4gvqv631095f64jvm7jfj_000000gn/T//ccP1ODyl.s:337    .text.receiveCommands:000000000000010c .L11
/var/folders/rt/4gvqv631095f64jvm7jfj_000000gn/T//ccP1ODyl.s:267    .text.receiveCommands:0000000000000096 .L10
/var/folders/rt/4gvqv631095f64jvm7jfj_000000gn/T//ccP1ODyl.s:330    .text.receiveCommands:0000000000000102 .L15
/var/folders/rt/4gvqv631095f64jvm7jfj_000000gn/T//ccP1ODyl.s:235    .text.receiveCommands:0000000000000052 .L7
/var/folders/rt/4gvqv631095f64jvm7jfj_000000gn/T//ccP1ODyl.s:2657   .debug_abbrev:0000000000000000 .Ldebug_abbrev0
/var/folders/rt/4gvqv631095f64jvm7jfj_000000gn/T//ccP1ODyl.s:3910   .debug_str:000000000000058b .LASF170
/var/folders/rt/4gvqv631095f64jvm7jfj_000000gn/T//ccP1ODyl.s:3974   .debug_str:0000000000000791 .LASF171
/var/folders/rt/4gvqv631095f64jvm7jfj_000000gn/T//ccP1ODyl.s:3914   .debug_str:000000000000061c .LASF172
/var/folders/rt/4gvqv631095f64jvm7jfj_000000gn/T//ccP1ODyl.s:3604   .debug_ranges:0000000000000000 .Ldebug_ranges0
/var/folders/rt/4gvqv631095f64jvm7jfj_000000gn/T//ccP1ODyl.s:3628   .debug_line:0000000000000000 .Ldebug_line0
/var/folders/rt/4gvqv631095f64jvm7jfj_000000gn/T//ccP1ODyl.s:3640   .debug_str:000000000000002b .LASF4
/var/folders/rt/4gvqv631095f64jvm7jfj_000000gn/T//ccP1ODyl.s:3898   .debug_str:0000000000000555 .LASF0
/var/folders/rt/4gvqv631095f64jvm7jfj_000000gn/T//ccP1ODyl.s:3916   .debug_str:000000000000065f .LASF1
/var/folders/rt/4gvqv631095f64jvm7jfj_000000gn/T//ccP1ODyl.s:3708   .debug_str:0000000000000192 .LASF2
/var/folders/rt/4gvqv631095f64jvm7jfj_000000gn/T//ccP1ODyl.s:3888   .debug_str:000000000000052e .LASF3
/var/folders/rt/4gvqv631095f64jvm7jfj_000000gn/T//ccP1ODyl.s:3876   .debug_str:00000000000004ff .LASF5
/var/folders/rt/4gvqv631095f64jvm7jfj_000000gn/T//ccP1ODyl.s:3676   .debug_str:00000000000000fa .LASF6
/var/folders/rt/4gvqv631095f64jvm7jfj_000000gn/T//ccP1ODyl.s:3830   .debug_str:0000000000000416 .LASF7
/var/folders/rt/4gvqv631095f64jvm7jfj_000000gn/T//ccP1ODyl.s:3634   .debug_str:0000000000000012 .LASF8
/var/folders/rt/4gvqv631095f64jvm7jfj_000000gn/T//ccP1ODyl.s:3652   .debug_str:0000000000000062 .LASF9
/var/folders/rt/4gvqv631095f64jvm7jfj_000000gn/T//ccP1ODyl.s:3724   .debug_str:00000000000001ef .LASF10
/var/folders/rt/4gvqv631095f64jvm7jfj_000000gn/T//ccP1ODyl.s:3748   .debug_str:0000000000000253 .LASF11
/var/folders/rt/4gvqv631095f64jvm7jfj_000000gn/T//ccP1ODyl.s:3658   .debug_str:000000000000008b .LASF12
/var/folders/rt/4gvqv631095f64jvm7jfj_000000gn/T//ccP1ODyl.s:3672   .debug_str:00000000000000ec .LASF13
/var/folders/rt/4gvqv631095f64jvm7jfj_000000gn/T//ccP1ODyl.s:3886   .debug_str:0000000000000526 .LASF14
/var/folders/rt/4gvqv631095f64jvm7jfj_000000gn/T//ccP1ODyl.s:3946   .debug_str:0000000000000709 .LASF15
/var/folders/rt/4gvqv631095f64jvm7jfj_000000gn/T//ccP1ODyl.s:3770   .debug_str:00000000000002c3 .LASF16
/var/folders/rt/4gvqv631095f64jvm7jfj_000000gn/T//ccP1ODyl.s:3740   .debug_str:000000000000022c .LASF17
GAS LISTING /var/folders/rt/4gvqv631095f64jvm7jfj_000000gn/T//ccP1ODyl.s 			page 14


/var/folders/rt/4gvqv631095f64jvm7jfj_000000gn/T//ccP1ODyl.s:3878   .debug_str:0000000000000506 .LASF18
/var/folders/rt/4gvqv631095f64jvm7jfj_000000gn/T//ccP1ODyl.s:3880   .debug_str:000000000000050e .LASF19
/var/folders/rt/4gvqv631095f64jvm7jfj_000000gn/T//ccP1ODyl.s:3824   .debug_str:00000000000003ef .LASF20
/var/folders/rt/4gvqv631095f64jvm7jfj_000000gn/T//ccP1ODyl.s:3922   .debug_str:000000000000067f .LASF21
/var/folders/rt/4gvqv631095f64jvm7jfj_000000gn/T//ccP1ODyl.s:3826   .debug_str:00000000000003fa .LASF22
/var/folders/rt/4gvqv631095f64jvm7jfj_000000gn/T//ccP1ODyl.s:3836   .debug_str:0000000000000433 .LASF23
/var/folders/rt/4gvqv631095f64jvm7jfj_000000gn/T//ccP1ODyl.s:3732   .debug_str:0000000000000214 .LASF28
/var/folders/rt/4gvqv631095f64jvm7jfj_000000gn/T//ccP1ODyl.s:3906   .debug_str:000000000000057e .LASF24
/var/folders/rt/4gvqv631095f64jvm7jfj_000000gn/T//ccP1ODyl.s:3870   .debug_str:00000000000004ea .LASF25
/var/folders/rt/4gvqv631095f64jvm7jfj_000000gn/T//ccP1ODyl.s:3726   .debug_str:00000000000001fa .LASF26
/var/folders/rt/4gvqv631095f64jvm7jfj_000000gn/T//ccP1ODyl.s:3802   .debug_str:000000000000036c .LASF27
/var/folders/rt/4gvqv631095f64jvm7jfj_000000gn/T//ccP1ODyl.s:3738   .debug_str:0000000000000227 .LASF29
/var/folders/rt/4gvqv631095f64jvm7jfj_000000gn/T//ccP1ODyl.s:3670   .debug_str:00000000000000e3 .LASF30
/var/folders/rt/4gvqv631095f64jvm7jfj_000000gn/T//ccP1ODyl.s:3962   .debug_str:0000000000000759 .LASF31
/var/folders/rt/4gvqv631095f64jvm7jfj_000000gn/T//ccP1ODyl.s:3686   .debug_str:0000000000000127 .LASF32
/var/folders/rt/4gvqv631095f64jvm7jfj_000000gn/T//ccP1ODyl.s:3976   .debug_str:00000000000007a0 .LASF33
/var/folders/rt/4gvqv631095f64jvm7jfj_000000gn/T//ccP1ODyl.s:3808   .debug_str:0000000000000392 .LASF34
/var/folders/rt/4gvqv631095f64jvm7jfj_000000gn/T//ccP1ODyl.s:3792   .debug_str:0000000000000332 .LASF35
/var/folders/rt/4gvqv631095f64jvm7jfj_000000gn/T//ccP1ODyl.s:3884   .debug_str:000000000000051c .LASF36
/var/folders/rt/4gvqv631095f64jvm7jfj_000000gn/T//ccP1ODyl.s:3838   .debug_str:000000000000043c .LASF37
/var/folders/rt/4gvqv631095f64jvm7jfj_000000gn/T//ccP1ODyl.s:3958   .debug_str:000000000000073f .LASF38
/var/folders/rt/4gvqv631095f64jvm7jfj_000000gn/T//ccP1ODyl.s:3690   .debug_str:0000000000000136 .LASF39
/var/folders/rt/4gvqv631095f64jvm7jfj_000000gn/T//ccP1ODyl.s:3638   .debug_str:0000000000000023 .LASF40
/var/folders/rt/4gvqv631095f64jvm7jfj_000000gn/T//ccP1ODyl.s:3630   .debug_str:0000000000000000 .LASF41
/var/folders/rt/4gvqv631095f64jvm7jfj_000000gn/T//ccP1ODyl.s:3912   .debug_str:0000000000000613 .LASF42
/var/folders/rt/4gvqv631095f64jvm7jfj_000000gn/T//ccP1ODyl.s:3702   .debug_str:0000000000000179 .LASF43
/var/folders/rt/4gvqv631095f64jvm7jfj_000000gn/T//ccP1ODyl.s:3810   .debug_str:000000000000039b .LASF44
/var/folders/rt/4gvqv631095f64jvm7jfj_000000gn/T//ccP1ODyl.s:3858   .debug_str:000000000000049c .LASF45
/var/folders/rt/4gvqv631095f64jvm7jfj_000000gn/T//ccP1ODyl.s:3722   .debug_str:00000000000001ea .LASF46
/var/folders/rt/4gvqv631095f64jvm7jfj_000000gn/T//ccP1ODyl.s:3840   .debug_str:0000000000000446 .LASF47
/var/folders/rt/4gvqv631095f64jvm7jfj_000000gn/T//ccP1ODyl.s:3684   .debug_str:0000000000000121 .LASF48
/var/folders/rt/4gvqv631095f64jvm7jfj_000000gn/T//ccP1ODyl.s:3896   .debug_str:000000000000054f .LASF49
/var/folders/rt/4gvqv631095f64jvm7jfj_000000gn/T//ccP1ODyl.s:3846   .debug_str:000000000000045c .LASF50
/var/folders/rt/4gvqv631095f64jvm7jfj_000000gn/T//ccP1ODyl.s:3700   .debug_str:0000000000000172 .LASF51
/var/folders/rt/4gvqv631095f64jvm7jfj_000000gn/T//ccP1ODyl.s:3750   .debug_str:0000000000000265 .LASF52
/var/folders/rt/4gvqv631095f64jvm7jfj_000000gn/T//ccP1ODyl.s:3970   .debug_str:000000000000077a .LASF53
/var/folders/rt/4gvqv631095f64jvm7jfj_000000gn/T//ccP1ODyl.s:3692   .debug_str:0000000000000144 .LASF54
/var/folders/rt/4gvqv631095f64jvm7jfj_000000gn/T//ccP1ODyl.s:3734   .debug_str:000000000000021c .LASF55
/var/folders/rt/4gvqv631095f64jvm7jfj_000000gn/T//ccP1ODyl.s:3790   .debug_str:000000000000032b .LASF56
/var/folders/rt/4gvqv631095f64jvm7jfj_000000gn/T//ccP1ODyl.s:3882   .debug_str:0000000000000516 .LASF57
/var/folders/rt/4gvqv631095f64jvm7jfj_000000gn/T//ccP1ODyl.s:3674   .debug_str:00000000000000f3 .LASF58
/var/folders/rt/4gvqv631095f64jvm7jfj_000000gn/T//ccP1ODyl.s:3682   .debug_str:000000000000011b .LASF59
/var/folders/rt/4gvqv631095f64jvm7jfj_000000gn/T//ccP1ODyl.s:3954   .debug_str:0000000000000731 .LASF60
/var/folders/rt/4gvqv631095f64jvm7jfj_000000gn/T//ccP1ODyl.s:3894   .debug_str:0000000000000546 .LASF61
/var/folders/rt/4gvqv631095f64jvm7jfj_000000gn/T//ccP1ODyl.s:3712   .debug_str:00000000000001a8 .LASF62
/var/folders/rt/4gvqv631095f64jvm7jfj_000000gn/T//ccP1ODyl.s:3756   .debug_str:0000000000000285 .LASF63
/var/folders/rt/4gvqv631095f64jvm7jfj_000000gn/T//ccP1ODyl.s:3780   .debug_str:00000000000002ed .LASF64
/var/folders/rt/4gvqv631095f64jvm7jfj_000000gn/T//ccP1ODyl.s:3848   .debug_str:0000000000000464 .LASF65
/var/folders/rt/4gvqv631095f64jvm7jfj_000000gn/T//ccP1ODyl.s:3842   .debug_str:000000000000044d .LASF66
/var/folders/rt/4gvqv631095f64jvm7jfj_000000gn/T//ccP1ODyl.s:3872   .debug_str:00000000000004f2 .LASF67
/var/folders/rt/4gvqv631095f64jvm7jfj_000000gn/T//ccP1ODyl.s:3890   .debug_str:000000000000053a .LASF68
/var/folders/rt/4gvqv631095f64jvm7jfj_000000gn/T//ccP1ODyl.s:3704   .debug_str:0000000000000181 .LASF69
/var/folders/rt/4gvqv631095f64jvm7jfj_000000gn/T//ccP1ODyl.s:3744   .debug_str:0000000000000243 .LASF70
/var/folders/rt/4gvqv631095f64jvm7jfj_000000gn/T//ccP1ODyl.s:3730   .debug_str:000000000000020c .LASF71
/var/folders/rt/4gvqv631095f64jvm7jfj_000000gn/T//ccP1ODyl.s:3856   .debug_str:0000000000000497 .LASF72
/var/folders/rt/4gvqv631095f64jvm7jfj_000000gn/T//ccP1ODyl.s:3644   .debug_str:000000000000003a .LASF73
/var/folders/rt/4gvqv631095f64jvm7jfj_000000gn/T//ccP1ODyl.s:3866   .debug_str:00000000000004bd .LASF74
GAS LISTING /var/folders/rt/4gvqv631095f64jvm7jfj_000000gn/T//ccP1ODyl.s 			page 15


/var/folders/rt/4gvqv631095f64jvm7jfj_000000gn/T//ccP1ODyl.s:3862   .debug_str:00000000000004ab .LASF75
/var/folders/rt/4gvqv631095f64jvm7jfj_000000gn/T//ccP1ODyl.s:3814   .debug_str:00000000000003ad .LASF76
/var/folders/rt/4gvqv631095f64jvm7jfj_000000gn/T//ccP1ODyl.s:3864   .debug_str:00000000000004b3 .LASF77
/var/folders/rt/4gvqv631095f64jvm7jfj_000000gn/T//ccP1ODyl.s:3768   .debug_str:00000000000002bb .LASF78
/var/folders/rt/4gvqv631095f64jvm7jfj_000000gn/T//ccP1ODyl.s:3706   .debug_str:0000000000000188 .LASF79
/var/folders/rt/4gvqv631095f64jvm7jfj_000000gn/T//ccP1ODyl.s:3968   .debug_str:0000000000000775 .LASF80
/var/folders/rt/4gvqv631095f64jvm7jfj_000000gn/T//ccP1ODyl.s:3822   .debug_str:00000000000003e5 .LASF81
/var/folders/rt/4gvqv631095f64jvm7jfj_000000gn/T//ccP1ODyl.s:3746   .debug_str:000000000000024b .LASF82
/var/folders/rt/4gvqv631095f64jvm7jfj_000000gn/T//ccP1ODyl.s:3710   .debug_str:00000000000001a0 .LASF83
/var/folders/rt/4gvqv631095f64jvm7jfj_000000gn/T//ccP1ODyl.s:3778   .debug_str:00000000000002e8 .LASF84
/var/folders/rt/4gvqv631095f64jvm7jfj_000000gn/T//ccP1ODyl.s:3650   .debug_str:0000000000000059 .LASF85
/var/folders/rt/4gvqv631095f64jvm7jfj_000000gn/T//ccP1ODyl.s:3952   .debug_str:0000000000000727 .LASF86
/var/folders/rt/4gvqv631095f64jvm7jfj_000000gn/T//ccP1ODyl.s:3694   .debug_str:000000000000014c .LASF87
/var/folders/rt/4gvqv631095f64jvm7jfj_000000gn/T//ccP1ODyl.s:3688   .debug_str:0000000000000131 .LASF88
/var/folders/rt/4gvqv631095f64jvm7jfj_000000gn/T//ccP1ODyl.s:3892   .debug_str:0000000000000541 .LASF89
/var/folders/rt/4gvqv631095f64jvm7jfj_000000gn/T//ccP1ODyl.s:3844   .debug_str:0000000000000455 .LASF90
/var/folders/rt/4gvqv631095f64jvm7jfj_000000gn/T//ccP1ODyl.s:3944   .debug_str:0000000000000703 .LASF91
/var/folders/rt/4gvqv631095f64jvm7jfj_000000gn/T//ccP1ODyl.s:3758   .debug_str:000000000000028b .LASF92
/var/folders/rt/4gvqv631095f64jvm7jfj_000000gn/T//ccP1ODyl.s:3832   .debug_str:0000000000000424 .LASF93
/var/folders/rt/4gvqv631095f64jvm7jfj_000000gn/T//ccP1ODyl.s:3642   .debug_str:0000000000000032 .LASF94
/var/folders/rt/4gvqv631095f64jvm7jfj_000000gn/T//ccP1ODyl.s:3874   .debug_str:00000000000004f9 .LASF95
/var/folders/rt/4gvqv631095f64jvm7jfj_000000gn/T//ccP1ODyl.s:3782   .debug_str:00000000000002f3 .LASF96
/var/folders/rt/4gvqv631095f64jvm7jfj_000000gn/T//ccP1ODyl.s:3920   .debug_str:000000000000067a .LASF97
/var/folders/rt/4gvqv631095f64jvm7jfj_000000gn/T//ccP1ODyl.s:3938   .debug_str:00000000000006e3 .LASF98
/var/folders/rt/4gvqv631095f64jvm7jfj_000000gn/T//ccP1ODyl.s:3718   .debug_str:00000000000001cf .LASF99
/var/folders/rt/4gvqv631095f64jvm7jfj_000000gn/T//ccP1ODyl.s:3766   .debug_str:00000000000002ae .LASF100
/var/folders/rt/4gvqv631095f64jvm7jfj_000000gn/T//ccP1ODyl.s:3960   .debug_str:000000000000074a .LASF101
/var/folders/rt/4gvqv631095f64jvm7jfj_000000gn/T//ccP1ODyl.s:3816   .debug_str:00000000000003b8 .LASF102
/var/folders/rt/4gvqv631095f64jvm7jfj_000000gn/T//ccP1ODyl.s:3762   .debug_str:0000000000000297 .LASF103
/var/folders/rt/4gvqv631095f64jvm7jfj_000000gn/T//ccP1ODyl.s:3964   .debug_str:0000000000000762 .LASF104
/var/folders/rt/4gvqv631095f64jvm7jfj_000000gn/T//ccP1ODyl.s:3854   .debug_str:000000000000048a .LASF105
/var/folders/rt/4gvqv631095f64jvm7jfj_000000gn/T//ccP1ODyl.s:3966   .debug_str:0000000000000767 .LASF106
/var/folders/rt/4gvqv631095f64jvm7jfj_000000gn/T//ccP1ODyl.s:3668   .debug_str:00000000000000d5 .LASF107
/var/folders/rt/4gvqv631095f64jvm7jfj_000000gn/T//ccP1ODyl.s:3948   .debug_str:0000000000000712 .LASF108
/var/folders/rt/4gvqv631095f64jvm7jfj_000000gn/T//ccP1ODyl.s:3764   .debug_str:00000000000002a2 .LASF109
/var/folders/rt/4gvqv631095f64jvm7jfj_000000gn/T//ccP1ODyl.s:3924   .debug_str:0000000000000687 .LASF110
/var/folders/rt/4gvqv631095f64jvm7jfj_000000gn/T//ccP1ODyl.s:3720   .debug_str:00000000000001dc .LASF111
/var/folders/rt/4gvqv631095f64jvm7jfj_000000gn/T//ccP1ODyl.s:3926   .debug_str:0000000000000694 .LASF112
/var/folders/rt/4gvqv631095f64jvm7jfj_000000gn/T//ccP1ODyl.s:3716   .debug_str:00000000000001be .LASF113
/var/folders/rt/4gvqv631095f64jvm7jfj_000000gn/T//ccP1ODyl.s:3654   .debug_str:000000000000006b .LASF114
/var/folders/rt/4gvqv631095f64jvm7jfj_000000gn/T//ccP1ODyl.s:3656   .debug_str:000000000000007a .LASF115
/var/folders/rt/4gvqv631095f64jvm7jfj_000000gn/T//ccP1ODyl.s:3834   .debug_str:000000000000042a .LASF116
/var/folders/rt/4gvqv631095f64jvm7jfj_000000gn/T//ccP1ODyl.s:3772   .debug_str:00000000000002c9 .LASF117
/var/folders/rt/4gvqv631095f64jvm7jfj_000000gn/T//ccP1ODyl.s:3796   .debug_str:0000000000000344 .LASF118
/var/folders/rt/4gvqv631095f64jvm7jfj_000000gn/T//ccP1ODyl.s:3956   .debug_str:0000000000000737 .LASF119
/var/folders/rt/4gvqv631095f64jvm7jfj_000000gn/T//ccP1ODyl.s:3662   .debug_str:00000000000000aa .LASF173
/var/folders/rt/4gvqv631095f64jvm7jfj_000000gn/T//ccP1ODyl.s:3728   .debug_str:0000000000000200 .LASF120
/var/folders/rt/4gvqv631095f64jvm7jfj_000000gn/T//ccP1ODyl.s:3932   .debug_str:00000000000006b9 .LASF121
/var/folders/rt/4gvqv631095f64jvm7jfj_000000gn/T//ccP1ODyl.s:3812   .debug_str:00000000000003a3 .LASF122
/var/folders/rt/4gvqv631095f64jvm7jfj_000000gn/T//ccP1ODyl.s:3934   .debug_str:00000000000006cc .LASF123
/var/folders/rt/4gvqv631095f64jvm7jfj_000000gn/T//ccP1ODyl.s:3742   .debug_str:0000000000000233 .LASF124
/var/folders/rt/4gvqv631095f64jvm7jfj_000000gn/T//ccP1ODyl.s:3776   .debug_str:00000000000002dd .LASF125
/var/folders/rt/4gvqv631095f64jvm7jfj_000000gn/T//ccP1ODyl.s:3860   .debug_str:00000000000004a1 .LASF126
/var/folders/rt/4gvqv631095f64jvm7jfj_000000gn/T//ccP1ODyl.s:3660   .debug_str:00000000000000a2 .LASF127
/var/folders/rt/4gvqv631095f64jvm7jfj_000000gn/T//ccP1ODyl.s:3852   .debug_str:000000000000047c .LASF128
/var/folders/rt/4gvqv631095f64jvm7jfj_000000gn/T//ccP1ODyl.s:3754   .debug_str:0000000000000280 .LASF129
/var/folders/rt/4gvqv631095f64jvm7jfj_000000gn/T//ccP1ODyl.s:3714   .debug_str:00000000000001b0 .LASF130
GAS LISTING /var/folders/rt/4gvqv631095f64jvm7jfj_000000gn/T//ccP1ODyl.s 			page 16


/var/folders/rt/4gvqv631095f64jvm7jfj_000000gn/T//ccP1ODyl.s:3680   .debug_str:0000000000000112 .LASF131
/var/folders/rt/4gvqv631095f64jvm7jfj_000000gn/T//ccP1ODyl.s:3736   .debug_str:0000000000000222 .LASF132
/var/folders/rt/4gvqv631095f64jvm7jfj_000000gn/T//ccP1ODyl.s:3804   .debug_str:0000000000000371 .LASF133
/var/folders/rt/4gvqv631095f64jvm7jfj_000000gn/T//ccP1ODyl.s:3698   .debug_str:000000000000015e .LASF134
/var/folders/rt/4gvqv631095f64jvm7jfj_000000gn/T//ccP1ODyl.s:3752   .debug_str:000000000000026b .LASF135
/var/folders/rt/4gvqv631095f64jvm7jfj_000000gn/T//ccP1ODyl.s:3930   .debug_str:00000000000006ac .LASF136
/var/folders/rt/4gvqv631095f64jvm7jfj_000000gn/T//ccP1ODyl.s:3648   .debug_str:000000000000004e .LASF137
/var/folders/rt/4gvqv631095f64jvm7jfj_000000gn/T//ccP1ODyl.s:3678   .debug_str:0000000000000106 .LASF138
/var/folders/rt/4gvqv631095f64jvm7jfj_000000gn/T//ccP1ODyl.s:3786   .debug_str:0000000000000309 .LASF139
/var/folders/rt/4gvqv631095f64jvm7jfj_000000gn/T//ccP1ODyl.s:3666   .debug_str:00000000000000c2 .LASF140
/var/folders/rt/4gvqv631095f64jvm7jfj_000000gn/T//ccP1ODyl.s:3868   .debug_str:00000000000004d6 .LASF141
/var/folders/rt/4gvqv631095f64jvm7jfj_000000gn/T//ccP1ODyl.s:3972   .debug_str:0000000000000783 .LASF142
/var/folders/rt/4gvqv631095f64jvm7jfj_000000gn/T//ccP1ODyl.s:3798   .debug_str:000000000000034d .LASF143
/var/folders/rt/4gvqv631095f64jvm7jfj_000000gn/T//ccP1ODyl.s:3664   .debug_str:00000000000000b5 .LASF144
/var/folders/rt/4gvqv631095f64jvm7jfj_000000gn/T//ccP1ODyl.s:3950   .debug_str:000000000000071c .LASF145
/var/folders/rt/4gvqv631095f64jvm7jfj_000000gn/T//ccP1ODyl.s:3942   .debug_str:00000000000006fa .LASF146
/var/folders/rt/4gvqv631095f64jvm7jfj_000000gn/T//ccP1ODyl.s:3940   .debug_str:00000000000006f0 .LASF147
/var/folders/rt/4gvqv631095f64jvm7jfj_000000gn/T//ccP1ODyl.s:3900   .debug_str:0000000000000562 .LASF148
/var/folders/rt/4gvqv631095f64jvm7jfj_000000gn/T//ccP1ODyl.s:3908   .debug_str:0000000000000584 .LASF149
/var/folders/rt/4gvqv631095f64jvm7jfj_000000gn/T//ccP1ODyl.s:3794   .debug_str:000000000000033c .LASF150
/var/folders/rt/4gvqv631095f64jvm7jfj_000000gn/T//ccP1ODyl.s:3828   .debug_str:000000000000040c .LASF151
/var/folders/rt/4gvqv631095f64jvm7jfj_000000gn/T//ccP1ODyl.s:3918   .debug_str:0000000000000672 .LASF152
/var/folders/rt/4gvqv631095f64jvm7jfj_000000gn/T//ccP1ODyl.s:3646   .debug_str:0000000000000045 .LASF153
/var/folders/rt/4gvqv631095f64jvm7jfj_000000gn/T//ccP1ODyl.s:3632   .debug_str:000000000000000c .LASF154
/var/folders/rt/4gvqv631095f64jvm7jfj_000000gn/T//ccP1ODyl.s:3818   .debug_str:00000000000003c7 .LASF155
/var/folders/rt/4gvqv631095f64jvm7jfj_000000gn/T//ccP1ODyl.s:3800   .debug_str:0000000000000359 .LASF156
/var/folders/rt/4gvqv631095f64jvm7jfj_000000gn/T//ccP1ODyl.s:3820   .debug_str:00000000000003d5 .LASF160
/var/folders/rt/4gvqv631095f64jvm7jfj_000000gn/T//ccP1ODyl.s:181    .text.receiveCommands:0000000000000000 .LFB7
/var/folders/rt/4gvqv631095f64jvm7jfj_000000gn/T//ccP1ODyl.s:372    .text.receiveCommands:0000000000000152 .LFE7
/var/folders/rt/4gvqv631095f64jvm7jfj_000000gn/T//ccP1ODyl.s:3330   .debug_loc:0000000000000000 .LLST7
/var/folders/rt/4gvqv631095f64jvm7jfj_000000gn/T//ccP1ODyl.s:3788   .debug_str:0000000000000321 .LASF157
/var/folders/rt/4gvqv631095f64jvm7jfj_000000gn/T//ccP1ODyl.s:3353   .debug_loc:000000000000003a .LLST8
/var/folders/rt/4gvqv631095f64jvm7jfj_000000gn/T//ccP1ODyl.s:3850   .debug_str:000000000000046d .LASF158
/var/folders/rt/4gvqv631095f64jvm7jfj_000000gn/T//ccP1ODyl.s:3397   .debug_loc:00000000000000a3 .LLST9
/var/folders/rt/4gvqv631095f64jvm7jfj_000000gn/T//ccP1ODyl.s:3419   .debug_loc:00000000000000da .LLST10
/var/folders/rt/4gvqv631095f64jvm7jfj_000000gn/T//ccP1ODyl.s:305    .text.receiveCommands:00000000000000ca .LBB7
/var/folders/rt/4gvqv631095f64jvm7jfj_000000gn/T//ccP1ODyl.s:331    .text.receiveCommands:0000000000000102 .LBE7
/var/folders/rt/4gvqv631095f64jvm7jfj_000000gn/T//ccP1ODyl.s:3760   .debug_str:0000000000000292 .LASF159
/var/folders/rt/4gvqv631095f64jvm7jfj_000000gn/T//ccP1ODyl.s:308    .text.receiveCommands:00000000000000d2 .LVL26
/var/folders/rt/4gvqv631095f64jvm7jfj_000000gn/T//ccP1ODyl.s:318    .text.receiveCommands:00000000000000ec .LVL27
/var/folders/rt/4gvqv631095f64jvm7jfj_000000gn/T//ccP1ODyl.s:326    .text.receiveCommands:0000000000000100 .LVL28
/var/folders/rt/4gvqv631095f64jvm7jfj_000000gn/T//ccP1ODyl.s:256    .text.receiveCommands:000000000000007e .LVL20
/var/folders/rt/4gvqv631095f64jvm7jfj_000000gn/T//ccP1ODyl.s:261    .text.receiveCommands:0000000000000088 .LVL21
/var/folders/rt/4gvqv631095f64jvm7jfj_000000gn/T//ccP1ODyl.s:266    .text.receiveCommands:0000000000000096 .LVL22
/var/folders/rt/4gvqv631095f64jvm7jfj_000000gn/T//ccP1ODyl.s:302    .text.receiveCommands:00000000000000c8 .LVL25
/var/folders/rt/4gvqv631095f64jvm7jfj_000000gn/T//ccP1ODyl.s:334    .text.receiveCommands:000000000000010a .LVL30
/var/folders/rt/4gvqv631095f64jvm7jfj_000000gn/T//ccP1ODyl.s:341    .text.receiveCommands:0000000000000116 .LVL32
/var/folders/rt/4gvqv631095f64jvm7jfj_000000gn/T//ccP1ODyl.s:352    .text.receiveCommands:0000000000000132 .LVL34
/var/folders/rt/4gvqv631095f64jvm7jfj_000000gn/T//ccP1ODyl.s:360    .text.receiveCommands:0000000000000148 .LVL35
/var/folders/rt/4gvqv631095f64jvm7jfj_000000gn/T//ccP1ODyl.s:209    .text.receiveCommands:0000000000000026 .LVL17
/var/folders/rt/4gvqv631095f64jvm7jfj_000000gn/T//ccP1ODyl.s:219    .text.receiveCommands:0000000000000040 .LVL18
/var/folders/rt/4gvqv631095f64jvm7jfj_000000gn/T//ccP1ODyl.s:3936   .debug_str:00000000000006d5 .LASF161
/var/folders/rt/4gvqv631095f64jvm7jfj_000000gn/T//ccP1ODyl.s:14     .text.jsonAllPlants:0000000000000000 .LFB6
/var/folders/rt/4gvqv631095f64jvm7jfj_000000gn/T//ccP1ODyl.s:174    .text.jsonAllPlants:00000000000000d6 .LFE6
/var/folders/rt/4gvqv631095f64jvm7jfj_000000gn/T//ccP1ODyl.s:3435   .debug_loc:0000000000000104 .LLST0
/var/folders/rt/4gvqv631095f64jvm7jfj_000000gn/T//ccP1ODyl.s:3458   .debug_loc:000000000000013e .LLST1
/var/folders/rt/4gvqv631095f64jvm7jfj_000000gn/T//ccP1ODyl.s:3806   .debug_str:000000000000038a .LASF162
GAS LISTING /var/folders/rt/4gvqv631095f64jvm7jfj_000000gn/T//ccP1ODyl.s 			page 17


/var/folders/rt/4gvqv631095f64jvm7jfj_000000gn/T//ccP1ODyl.s:3480   .debug_loc:0000000000000175 .LLST2
/var/folders/rt/4gvqv631095f64jvm7jfj_000000gn/T//ccP1ODyl.s:3502   .debug_loc:00000000000001ac .LLST3
/var/folders/rt/4gvqv631095f64jvm7jfj_000000gn/T//ccP1ODyl.s:3520   .debug_loc:00000000000001d8 .LLST4
/var/folders/rt/4gvqv631095f64jvm7jfj_000000gn/T//ccP1ODyl.s:3774   .debug_str:00000000000002d0 .LASF163
/var/folders/rt/4gvqv631095f64jvm7jfj_000000gn/T//ccP1ODyl.s:3542   .debug_loc:000000000000020f .LLST5
/var/folders/rt/4gvqv631095f64jvm7jfj_000000gn/T//ccP1ODyl.s:3563   .debug_loc:0000000000000245 .LLST6
/var/folders/rt/4gvqv631095f64jvm7jfj_000000gn/T//ccP1ODyl.s:132    .text.jsonAllPlants:0000000000000080 .LVL10
/var/folders/rt/4gvqv631095f64jvm7jfj_000000gn/T//ccP1ODyl.s:166    .text.jsonAllPlants:00000000000000ce .LVL13
/var/folders/rt/4gvqv631095f64jvm7jfj_000000gn/T//ccP1ODyl.s:61     .text.jsonAllPlants:0000000000000030 .LVL2
/var/folders/rt/4gvqv631095f64jvm7jfj_000000gn/T//ccP1ODyl.s:120    .text.jsonAllPlants:0000000000000070 .LVL9
/var/folders/rt/4gvqv631095f64jvm7jfj_000000gn/T//ccP1ODyl.s:3696   .debug_str:0000000000000154 .LASF164
/var/folders/rt/4gvqv631095f64jvm7jfj_000000gn/T//ccP1ODyl.s:3904   .debug_str:0000000000000572 .LASF165
/var/folders/rt/4gvqv631095f64jvm7jfj_000000gn/T//ccP1ODyl.s:3636   .debug_str:000000000000001c .LASF166
/var/folders/rt/4gvqv631095f64jvm7jfj_000000gn/T//ccP1ODyl.s:3784   .debug_str:00000000000002f9 .LASF167
/var/folders/rt/4gvqv631095f64jvm7jfj_000000gn/T//ccP1ODyl.s:3902   .debug_str:000000000000056b .LASF168
/var/folders/rt/4gvqv631095f64jvm7jfj_000000gn/T//ccP1ODyl.s:3928   .debug_str:00000000000006a3 .LASF169
/var/folders/rt/4gvqv631095f64jvm7jfj_000000gn/T//ccP1ODyl.s:188    .text.receiveCommands:0000000000000004 .LCFI3
/var/folders/rt/4gvqv631095f64jvm7jfj_000000gn/T//ccP1ODyl.s:288    .text.receiveCommands:00000000000000b2 .LCFI4
/var/folders/rt/4gvqv631095f64jvm7jfj_000000gn/T//ccP1ODyl.s:293    .text.receiveCommands:00000000000000b4 .LCFI5
/var/folders/rt/4gvqv631095f64jvm7jfj_000000gn/T//ccP1ODyl.s:184    .text.receiveCommands:0000000000000000 .LVL15
/var/folders/rt/4gvqv631095f64jvm7jfj_000000gn/T//ccP1ODyl.s:195    .text.receiveCommands:000000000000000c .LVL16
/var/folders/rt/4gvqv631095f64jvm7jfj_000000gn/T//ccP1ODyl.s:291    .text.receiveCommands:00000000000000b4 .LVL24
/var/folders/rt/4gvqv631095f64jvm7jfj_000000gn/T//ccP1ODyl.s:329    .text.receiveCommands:0000000000000102 .LVL29
/var/folders/rt/4gvqv631095f64jvm7jfj_000000gn/T//ccP1ODyl.s:336    .text.receiveCommands:000000000000010c .LVL31
/var/folders/rt/4gvqv631095f64jvm7jfj_000000gn/T//ccP1ODyl.s:344    .text.receiveCommands:0000000000000118 .LVL33
/var/folders/rt/4gvqv631095f64jvm7jfj_000000gn/T//ccP1ODyl.s:364    .text.receiveCommands:000000000000014e .LVL36
/var/folders/rt/4gvqv631095f64jvm7jfj_000000gn/T//ccP1ODyl.s:284    .text.receiveCommands:00000000000000aa .LVL23
/var/folders/rt/4gvqv631095f64jvm7jfj_000000gn/T//ccP1ODyl.s:234    .text.receiveCommands:0000000000000052 .LVL19
/var/folders/rt/4gvqv631095f64jvm7jfj_000000gn/T//ccP1ODyl.s:23     .text.jsonAllPlants:0000000000000002 .LCFI0
/var/folders/rt/4gvqv631095f64jvm7jfj_000000gn/T//ccP1ODyl.s:116    .text.jsonAllPlants:0000000000000068 .LCFI1
/var/folders/rt/4gvqv631095f64jvm7jfj_000000gn/T//ccP1ODyl.s:122    .text.jsonAllPlants:0000000000000070 .LCFI2
/var/folders/rt/4gvqv631095f64jvm7jfj_000000gn/T//ccP1ODyl.s:18     .text.jsonAllPlants:0000000000000000 .LVL0
/var/folders/rt/4gvqv631095f64jvm7jfj_000000gn/T//ccP1ODyl.s:96     .text.jsonAllPlants:0000000000000054 .LVL6
/var/folders/rt/4gvqv631095f64jvm7jfj_000000gn/T//ccP1ODyl.s:93     .text.jsonAllPlants:0000000000000052 .LVL5
/var/folders/rt/4gvqv631095f64jvm7jfj_000000gn/T//ccP1ODyl.s:30     .text.jsonAllPlants:000000000000000a .LVL1
/var/folders/rt/4gvqv631095f64jvm7jfj_000000gn/T//ccP1ODyl.s:74     .text.jsonAllPlants:000000000000003e .LVL3
/var/folders/rt/4gvqv631095f64jvm7jfj_000000gn/T//ccP1ODyl.s:99     .text.jsonAllPlants:0000000000000056 .LVL7
/var/folders/rt/4gvqv631095f64jvm7jfj_000000gn/T//ccP1ODyl.s:90     .text.jsonAllPlants:0000000000000050 .LVL4
/var/folders/rt/4gvqv631095f64jvm7jfj_000000gn/T//ccP1ODyl.s:108    .text.jsonAllPlants:000000000000005e .LVL8
/var/folders/rt/4gvqv631095f64jvm7jfj_000000gn/T//ccP1ODyl.s:157    .text.jsonAllPlants:00000000000000b6 .LVL12
/var/folders/rt/4gvqv631095f64jvm7jfj_000000gn/T//ccP1ODyl.s:169    .text.jsonAllPlants:00000000000000d0 .LVL14
/var/folders/rt/4gvqv631095f64jvm7jfj_000000gn/T//ccP1ODyl.s:419    .debug_info:0000000000000000 .Ldebug_info0
/var/folders/rt/4gvqv631095f64jvm7jfj_000000gn/T//ccP1ODyl.s:55     .text.jsonAllPlants:0000000000000026 .LBB2
/var/folders/rt/4gvqv631095f64jvm7jfj_000000gn/T//ccP1ODyl.s:58     .text.jsonAllPlants:0000000000000028 .LBE2
/var/folders/rt/4gvqv631095f64jvm7jfj_000000gn/T//ccP1ODyl.s:63     .text.jsonAllPlants:0000000000000030 .LBB3
/var/folders/rt/4gvqv631095f64jvm7jfj_000000gn/T//ccP1ODyl.s:65     .text.jsonAllPlants:0000000000000030 .LBE3
/var/folders/rt/4gvqv631095f64jvm7jfj_000000gn/T//ccP1ODyl.s:68     .text.jsonAllPlants:0000000000000032 .LBB4
/var/folders/rt/4gvqv631095f64jvm7jfj_000000gn/T//ccP1ODyl.s:80     .text.jsonAllPlants:000000000000004a .LBE4
/var/folders/rt/4gvqv631095f64jvm7jfj_000000gn/T//ccP1ODyl.s:124    .text.jsonAllPlants:0000000000000070 .LBB5
/var/folders/rt/4gvqv631095f64jvm7jfj_000000gn/T//ccP1ODyl.s:172    .text.jsonAllPlants:00000000000000d6 .LBE5
/var/folders/rt/4gvqv631095f64jvm7jfj_000000gn/T//ccP1ODyl.s:221    .text.receiveCommands:0000000000000040 .LBB6
/var/folders/rt/4gvqv631095f64jvm7jfj_000000gn/T//ccP1ODyl.s:273    .text.receiveCommands:000000000000009a .LBE6
/var/folders/rt/4gvqv631095f64jvm7jfj_000000gn/T//ccP1ODyl.s:295    .text.receiveCommands:00000000000000b4 .LBB8
/var/folders/rt/4gvqv631095f64jvm7jfj_000000gn/T//ccP1ODyl.s:370    .text.receiveCommands:0000000000000152 .LBE8

UNDEFINED SYMBOLS
snprintf
GAS LISTING /var/folders/rt/4gvqv631095f64jvm7jfj_000000gn/T//ccP1ODyl.s 			page 18


LCD_Clear
LCD_ShowStr
commandBufferIndex
commandBuffer
strcmp
renderAllPlants
putstr
